            ;-- MENUTYPECOM:
            0x00762f20      .byte 0x00
            0x00762f21      .byte 0x88
            0x00762f22      .byte 0x00
            0x00762f23      .byte 0x46
            0x00762f24      .byte 0x00
            0x00762f25      .byte 0xd2
            0x00762f26      .byte 0x00
            0x00762f27      .byte 0x51
            0x00762f28      .byte 0x00
            0x00762f29      .byte 0x80
            0x00762f2a      .byte 0x00
            0x00762f2b      .byte 0x80
            0x00762f2c      .byte 0x00
            0x00762f2d      .byte 0x3c
            0x00762f2e      .byte 0x00
            0x00762f2f      .byte 0x80
            0x00762f30      .byte 0x00
            0x00762f31      .byte 0x80
            0x00762f32      .byte 0x00
            0x00762f33      .byte 0x32
            0x00762f34      .byte 0x00
            0x00762f35      .byte 0x80
            0x00762f36      .byte 0x00
            0x00762f37      .byte 0x80
            0x00762f38      .byte 0x00
            0x00762f39      .byte 0x10
            0x00762f3a      .byte 0x00
            0x00762f3b      .byte 0x80
            0x00762f3c      .byte 0x00
            0x00762f3d      .byte 0x80
            0x00762f3e      .byte 0x00
            0x00762f3f      .byte 0xa7
            0x00762f40      .byte 0x00
            0x00762f41      .byte 0x72
            0x00762f42      .byte 0x00
            0x00762f43      .byte 0x9e
            0x00762f44      .byte 0x00
            0x00762f45      .byte 0xbf
            0x00762f46      .byte 0x00
            0x00762f47      .byte 0x80
            0x00762f48      .byte 0x00
            0x00762f49      .byte 0x80
            0x00762f4a      .byte 0x00
            0x00762f4b      .byte 0xa0
            0x00762f4c      .byte 0x00
            0x00762f4d      .byte 0x96
            0x00762f4e      .byte 0x00
            0x00762f4f      .byte 0x74
            0x00762f50      .byte 0x00
            0x00762f51      .byte 0x23
            0x00762f52      .byte 0x00
            0x00762f53      .byte 0xf0
            0x00762f54      .byte 0x00
            0x00762f55      .byte 0x6e
            0x00762f56      .byte 0x00
            0x00762f57      .byte 0x8c
            0x00762f58      .byte 0x00
            0x00762f59      .byte 0x6e
            0x00762f5a      .byte 0x00
            0x00762f5b      .byte 0x6e
            0x00762f5c      .byte 0x00
            0x00762f5d      .byte 0xc4
            0x00762f5e      .byte 0x00
            0x00762f5f      .byte 0x31
            0x00762f60      .byte 0x00
            0x00762f61      .byte 0x8c
            0x00762f62      .byte 0x00
            0x00762f63      .byte 0xa8
            0x00762f64      .byte 0x00
            0x00762f65      .byte 0x28
            0x00762f66      .byte 0x00
            0x00762f67      .byte 0xb1
            0x00762f68      .byte 0x00
            0x00762f69      .byte 0x00
            0x00762f6a      .byte 0x00
            0x00762f6b      .byte 0x80
            0x00762f6c      .byte 0x00
            0x00762f6d      .byte 0x80
            0x00762f6e      .byte 0x00
            0x00762f6f      .byte 0xff
            0x00762f70      .byte 0x00
            0x00762f71      .byte 0x80
            0x00762f72      .byte 0x00
            0x00762f73      .byte 0x80
            0x00762f74      .byte 0x00
            0x00762f75      .byte 0xcc
            0x00762f76      .byte 0x00
            0x00762f77      .byte 0x80
            0x00762f78      .byte 0x00
            0x00762f79      .byte 0x80
            0x00762f7a      .byte 0x00
            0x00762f7b      .byte 0xad
            0x00762f7c      .byte 0x00
            0x00762f7d      .byte 0x80
            0x00762f7e      .byte 0x00
            0x00762f7f      .byte 0x80
            0x00762f80      .byte 0x00
            0x00762f81      .byte 0xeb
            0x00762f82      .byte 0x00
            0x00762f83      .byte 0x80
            0x00762f84      .byte 0x00
            0x00762f85      .byte 0x80
            0x00762f86      .byte 0x00
            0x00762f87      .byte 0x10
            0x00762f88      .byte 0x00
            0x00762f89      .byte 0x80
            0x00762f8a      .byte 0x00
            0x00762f8b      .byte 0x80
            0x00762f8c      .byte 0x00
            0x00762f8d      .byte 0x80
            0x00762f8e      .byte 0x00
            0x00762f8f      .byte 0x80
            0x00762f90      .byte 0x00
            0x00762f91      .byte 0x80
            0x00762f92      .byte 0x00
            0x00762f93      .byte 0x51
            0x00762f94      .byte 0x00
            0x00762f95      .byte 0x5a
            0x00762f96      .byte 0x00
            0x00762f97      .byte 0xf0
            0x00762f98      .byte 0x00
            0x00762f99      .byte 0xd2
            0x00762f9a      .byte 0x00
            0x00762f9b      .byte 0x10
            0x00762f9c      .byte 0x00
            0x00762f9d      .byte 0x92
            0x00762f9e      .byte 0x00
            0x00762f9f      .byte 0x29
            0x00762fa0      .byte 0x00
            0x00762fa1      .byte 0xf0
            0x00762fa2      .byte 0x00
            0x00762fa3      .byte 0x6e
            0x00762fa4      .byte 0x00
            0x00762fa5      .byte 0x91
            0x00762fa6      .byte 0x00
            0x00762fa7      .byte 0x36
            0x00762fa8      .byte 0x00
            0x00762fa9      .byte 0x22
            0x00762faa      .byte 0x00
            0x00762fab      .byte 0xa2
            0x00762fac      .byte 0x00
            0x00762fad      .byte 0x2c
            0x00762fae      .byte 0x00
            0x00762faf      .byte 0x8e
            0x00762fb0      .byte 0x00
            0x00762fb1      .byte 0x83
            0x00762fb2      .byte 0x00
            0x00762fb3      .byte 0x9c
            0x00762fb4      .byte 0x00
            0x00762fb5      .byte 0x2c
            0x00762fb6      .byte 0x00
            0x00762fb7      .byte 0x70
            0x00762fb8      .byte 0x00
            0x00762fb9      .byte 0x48
            0x00762fba      .byte 0x00
            0x00762fbb      .byte 0x3a
            0x00762fbc      .byte 0x00
            0x00762fbd      .byte 0x54
            0x00762fbe      .byte 0x00
            0x00762fbf      .byte 0xb8
            0x00762fc0      .byte 0x00
            0x00762fc1      .byte 0xc6
            0x00762fc2      .byte 0x00
            0x00762fc3      .byte 0x41
            0x00762fc4      .byte 0x00
            0x00762fc5      .byte 0x64
            0x00762fc6      .byte 0x00
            0x00762fc7      .byte 0xd4
            0x00762fc8      .byte 0x00
            0x00762fc9      .byte 0x23
            0x00762fca      .byte 0x00
            0x00762fcb      .byte 0xd4
            0x00762fcc      .byte 0x00
            0x00762fcd      .byte 0x72
            0x00762fce      .byte 0x00
            0x00762fcf      .byte 0xd2
            0x00762fd0      .byte 0x00
            0x00762fd1      .byte 0x10
            0x00762fd2      .byte 0x00
            0x00762fd3      .byte 0x92
            0x00762fd4      .byte 0x00
            0x00762fd5      .byte 0xaa
            0x00762fd6      .byte 0x00
            0x00762fd7      .byte 0xa6
            0x00762fd8      .byte 0x00
            0x00762fd9      .byte 0x10
            0x00762fda      .byte 0x00
            0x00762fdb      .byte 0x91
            0x00762fdc      .byte 0x00
            0x00762fdd      .byte 0x36
            0x00762fde      .byte 0x00
            0x00762fdf      .byte 0x22
            0x00762fe0      .byte 0x00
            0x00762fe1      .byte 0x6a
            0x00762fe2      .byte 0x00
            0x00762fe3      .byte 0xca
            0x00762fe4      .byte 0x00
            0x00762fe5      .byte 0xde
            0x00762fe6      .byte 0x00
            0x00762fe7      .byte 0x51
            0x00762fe8      .byte 0x00
            0x00762fe9      .byte 0x5a
            0x00762fea      .byte 0x00
            0x00762feb      .byte 0xf0
            0x00762fec      .byte 0x00
            0x00762fed      .byte 0x29
            0x00762fee      .byte 0x00
            0x00762fef      .byte 0xf0
            0x00762ff0      .byte 0x00
            0x00762ff1      .byte 0x6e
            0x00762ff2      .byte 0x3f
            0x00762ff3      .byte 0x80
            0x00762ff4      .byte 0x00
            0x00762ff5      .byte 0x00
            0x00762ff6      .byte 0x00
            0x00762ff7      .byte 0x00
            0x00762ff8      .byte 0x00
            0x00762ff9      .byte 0x00
            0x00762ffa      .byte 0x00
            0x00762ffb      .byte 0x00
            0x00762ffc      .byte 0x00
            0x00762ffd      .byte 0x00
            0x00762ffe      .byte 0x00
            0x00762fff      .byte 0x00
            0x00763000      .byte 0x00
            0x00763001      .byte 0x00
            0x00763002      .byte 0x00
            0x00763003      .byte 0x00
            0x00763004      .byte 0x00
            0x00763005      .byte 0x00
            0x00763006      .byte 0x3f
            0x00763007      .byte 0x80
            0x00763008      .byte 0x00
            0x00763009      .byte 0x00
            0x0076300a      .byte 0x00
            0x0076300b      .byte 0x00
            0x0076300c      .byte 0x00
            0x0076300d      .byte 0x00
            0x0076300e      .byte 0x00
            0x0076300f      .byte 0x00
            0x00763010      .byte 0x00
            0x00763011      .byte 0x00
            0x00763012      .byte 0x00
            0x00763013      .byte 0x00
            0x00763014      .byte 0x00
            0x00763015      .byte 0x00
            0x00763016      .byte 0x00
            0x00763017      .byte 0x00
            0x00763018      .byte 0x00
            0x00763019      .byte 0x00
            0x0076301a      .byte 0x3f
            0x0076301b      .byte 0x80
            0x0076301c      .byte 0x00
            0x0076301d      .byte 0x00
            0x0076301e      .byte 0x00
            0x0076301f      .byte 0x00
            0x00763020      .byte 0x00
            0x00763021      .byte 0x00
            0x00763022      .byte 0x3f
            0x00763023      .byte 0x80
            0x00763024      .byte 0x00
            0x00763025      .byte 0x00
            0x00763026      .byte 0x3f
            0x00763027      .byte 0x80
            0x00763028      .byte 0x00
            0x00763029      .byte 0x00
            0x0076302a      .byte 0x3f
            0x0076302b      .byte 0x80
            0x0076302c      .byte 0x00
            0x0076302d      .byte 0x00
            0x0076302e      .byte 0x00
            0x0076302f      .byte 0x00
            0x00763030      .byte 0x00
            0x00763031      .byte 0x00
            0x00763032      .byte 0x00
            0x00763033      .byte 0x00
            0x00763034      .byte 0x00
            0x00763035      .byte 0x00
            0x00763036      .byte 0x00
            0x00763037      .byte 0x00
            0x00763038      .byte 0x00
            0x00763039      .byte 0x00
            0x0076303a      .byte 0x02
            0x0076303b      .byte 0xc7
            0x0076303c      .byte 0x01
            0x0076303d      .byte 0xe5
            0x0076303e      .byte 0x03
            0x0076303f      .byte 0x00
            0x00763040      .byte 0x01
            0x00763041      .byte 0xe4
            0x00763042      .byte 0x02
            0x00763043      .byte 0xbd
            0x00763044      .byte 0x02
            0x00763045      .byte 0x3f
            0x00763046      .byte 0x00
            0x00763047      .byte 0x00
            0x00763048      .byte 0x00
            0x00763049      .byte 0x00
            0x0076304a      .byte 0x00
            0x0076304b      .byte 0x00
            0x0076304c      .byte 0x00
            0x0076304d      .byte 0x00
            0x0076304e      .byte 0x00
            0x0076304f      .byte 0x00
            0x00763050      .byte 0x3f
            0x00763051      .byte 0x80
            0x00763052      .byte 0x00
            0x00763053      .byte 0x00
            0x00763054      .byte 0x3f
            0x00763055      .byte 0x80
            0x00763056      .byte 0x00
            0x00763057      .byte 0x00
            0x00763058      .byte 0x00
            0x00763059      .byte 0x00
            0x0076305a      .byte 0x00
            0x0076305b      .byte 0x00
            0x0076305c      .byte 0x00
            0x0076305d      .byte 0x00
            0x0076305e      .byte 0x00
            0x0076305f      .byte 0x00
            0x00763060      .byte 0x00
            0x00763061      .byte 0x00
            0x00763062      .byte 0x00
            0x00763063      .byte 0x00
            0x00763064      .byte 0x00
            0x00763065      .byte 0x00
            0x00763066      .byte 0x00
            0x00763067      .byte 0x00
            0x00763068      .byte 0x00
            0x00763069      .byte 0x00
            0x0076306a      .byte 0x00
            0x0076306b      .byte 0x02
            0x0076306c      .byte 0x00
            0x0076306d      .byte 0x00
            0x0076306e      .byte 0x3f
            0x0076306f      .byte 0x80
            0x00763070      .byte 0x00
            0x00763071      .byte 0x00
            0x00763072      .byte 0x3f
            0x00763073      .byte 0x80
            0x00763074      .byte 0x00
            0x00763075      .byte 0x00
            0x00763076      .byte 0x00
            0x00763077      .byte 0x00
            0x00763078      .byte 0x00
            0x00763079      .byte 0x00
            0x0076307a      .byte 0x00
            0x0076307b      .byte 0x00
            0x0076307c      .byte 0x00
            0x0076307d      .byte 0x00
            0x0076307e      .byte 0x3f
            0x0076307f      .byte 0x80
            0x00763080      .byte 0x00
            0x00763081      .byte 0x00
            0x00763082      .byte 0x3f
            0x00763083      .byte 0x80
            0x00763084      .byte 0x00
            0x00763085      .byte 0x00
            0x00763086      .byte 0x00
            0x00763087      .byte 0x00
            0x00763088      .byte 0x00
            0x00763089      .byte 0x00
            0x0076308a      .byte 0x00
            0x0076308b      .byte 0x00
            0x0076308c      .byte 0x00
            0x0076308d      .byte 0x00
            0x0076308e      .byte 0x00
            0x0076308f      .byte 0x00
            0x00763090      .byte 0x00
            0x00763091      .byte 0x00
            0x00763092      .byte 0x00
            0x00763093      .byte 0x00
            0x00763094      .byte 0x00
            0x00763095      .byte 0x00
            0x00763096      .byte 0x00
            0x00763097      .byte 0x00
            0x00763098      .byte 0x00
            0x00763099      .byte 0x01
            0x0076309a      .byte 0x00
            0x0076309b      .byte 0x00
            0x0076309c      .byte 0x00
            0x0076309d      .byte 0x00
            0x0076309e      .byte 0x00
            0x0076309f      .byte 0x00
            0x007630a0      .byte 0x00
            0x007630a1      .byte 0x00
            0x007630a2      .byte 0x00
            0x007630a3      .byte 0x00
            0x007630a4      .byte 0x00
            0x007630a5      .byte 0x00
            0x007630a6      .byte 0x00
            0x007630a7      .byte 0x00
            0x007630a8      .byte 0x00
            0x007630a9      .byte 0x00
            0x007630aa      .byte 0x00
            0x007630ab      .byte 0x00
            0x007630ac      .byte 0x00
            0x007630ad      .byte 0x02
            0x007630ae      .byte 0x71
            0x007630af      .byte 0x02
            0x007630b0      .byte 0x00
            0x007630b1      .byte 0x03
            0x007630b2      .byte 0xa9
            0x007630b3      .byte 0x89
            0x007630b4      .byte 0x00
            0x007630b5      .byte 0x04
            0x007630b6      .byte 0xe2
            0x007630b7      .byte 0x10
            0x007630b8      .byte 0x00
            0x007630b9      .byte 0x06
            0x007630ba      .byte 0x1d
            0x007630bb      .byte 0xdc
            0x007630bc      .byte 0x00
            0x007630bd      .byte 0x07
            0x007630be      .byte 0x57
            0x007630bf      .byte 0x0e
            0x007630c0      .byte 0x00
            0x007630c1      .byte 0x08
            0x007630c2      .byte 0x90
            0x007630c3      .byte 0x42
            0x007630c4      .byte 0x10
            0x007630c5      .byte 0x4d
            0x007630c6      .byte 0xe4
            0x007630c7      .byte 0xe3
            0x007630c8      .byte 0x2a
            0x007630c9      .byte 0xf5
            0x007630ca      .byte 0x74
            0x007630cb      .byte 0xfc
            0x007630cc      .byte 0x31
            0x007630cd      .byte 0xb4
            0x007630ce      .byte 0x09
            0x007630cf      .byte 0x86
            0x007630d0      .byte 0x35
            0x007630d1      .byte 0x21
            0x007630d2      .byte 0xc9
            0x007630d3      .byte 0x34
            0x007630d4      .byte 0x00
            0x007630d5      .byte 0xea
            0x007630d6      .byte 0x3a
            0x007630d7      .byte 0xcb
            0x007630d8      .byte 0x30
            0x007630d9      .byte 0x42
            0x007630da      .byte 0x8a
            0x007630db      .byte 0x19
            0x007630dc      .byte 0x00
            0x007630dd      .byte 0x0a
            0x007630de      .byte 0x00
            0x007630df      .byte 0x08
            0x007630e0      .byte 0x00
            0x007630e1      .byte 0x2a
            0x007630e2      .byte 0x01
            0x007630e3      .byte 0x00
            0x007630e4      .byte 0x00
            0x007630e5      .byte 0x36
            0x007630e6      .byte 0x01
            0x007630e7      .byte 0x00
            0x007630e8      .byte 0x00
            0x007630e9      .byte 0x1d
            0x007630ea      .byte 0x02
            0x007630eb      .byte 0x00
            0x007630ec      .byte 0x03
            0x007630ed      .byte 0x20
            0x007630ee     .string "--- type_purge - releasing heap " ; len=32
            0x0076310e      .byte 0x02
            0x0076310f      .byte 0x4f
            0x00763110      .byte 0x4b
            0x00763111      .byte 0x02
            0x00763112      .byte 0x4f
            0x00763113      .byte 0x4b
            0x00763114      .byte 0x02
            0x00763115      .byte 0x4f
            0x00763116      .byte 0x4b
            0x00763117      .byte 0x0f
            0x00763118     .string "current text : " ; len=15
            0x00763127      .byte 0x05
            0x00763128     .string "line " ; len=5
            0x0076312d      .byte 0x03
            0x0076312e      .byte 0x20
            0x0076312f      .byte 0x3a
            0x00763130      .byte 0x20
            0x00763131      .byte 0x02
            0x00763132      .byte 0x2e
            0x00763133      .byte 0x20
            0x00763134      .byte 0x00
            0x00763135      .byte 0x01
            0x00763136      .byte 0x02
            0x00763137      .byte 0x03
            0x00763138      .byte 0x04
            0x00763139      .byte 0x04
            0x0076313a      .byte 0x04
            0x0076313b      .byte 0x04
            0x0076313c      .byte 0x03
            0x0076313d      .byte 0x04
            0x0076313e      .byte 0x04
            0x0076313f      .byte 0x04
            0x00763140      .byte 0x04
            0x00763141      .byte 0x04
            0x00763142      .byte 0x04
            0x00763143      .byte 0x04
            0x00763144      .byte 0x0c
            0x00763145     .string "update_type " ; len=12
            0x00763151      .byte 0x10
            0x00763152     .string "$huge_type_final" ; len=16
            0x00763162      .byte 0x0a
            0x00763163     .string "$half_type" ; len=10
            0x0076316d      .byte 0x10
            0x0076316e     .string "$other_half_type" ; len=16
            0x0076317e      .byte 0x0b
            0x0076317f     .string "$other_type" ; len=11
            0x0076318a      .byte 0x0c
            0x0076318b     .string "$normal_type" ; len=12
            0x00763197      .byte 0x17
            0x00763198     .string "$normal_type_update_end" ; len=23
            0x007631af      .byte 0x12
            0x007631b0     .string "$normal_type_final" ; len=18
            0x007631c2      .byte 0x15
            0x007631c3     .string "$normal_type_write_on" ; len=21
            0x007631d8      .byte 0x11
            0x007631d9     .string "$other_type_pixel" ; len=17
            0x007631ea      .byte 0x12
            0x007631eb     .string "$normal_type_pixel" ; len=18
            0x007631fd      .byte 0x15
            0x007631fe     .string "$normal_type_no_style" ; len=21
            0x00763213      .byte 0x16
            0x00763214     .string "$normal_type_stick_pic" ; len=22
            0x0076322a      .byte 0x13
            0x0076322b     .string "$normal_type_untack" ; len=19
            0x0076323e      .byte 0x1b
            0x0076323f     .string "$normal_type_untack_unmoved" ; len=27
            0x0076325a      .byte 0x13
            0x0076325b     .string "$normal_type_cursor" ; len=19
            0x0076326e      .byte 0x1e
            0x0076326f     .string "$normal_type_menufont_generate" ; len=30
            0x0076328d      .byte 0x00
            0x0076328e      .byte 0x00
            0x0076328f      .byte 0x03
            0x00763290      .byte 0x00
            0x00763291      .byte 0x00
            0x00763292      .byte 0x00
            0x00763293      .byte 0x00
            0x00763294      .byte 0x00
            0x00763295      .byte 0x00
            0x00763296      .byte 0x00
            0x00763297      .byte 0x00
            0x00763298      .byte 0x40
            0x00763299      .byte 0x80
            0x0076329a      .byte 0x00
            0x0076329b      .byte 0x00
            0x0076329c      .byte 0x00
            0x0076329d      .byte 0x00
            0x0076329e      .byte 0x00
            0x0076329f      .byte 0x00
            0x007632a0      .byte 0x00
            0x007632a1      .byte 0x00
            0x007632a2      .byte 0x00
            0x007632a3      .byte 0x00
            0x007632a4      .byte 0x00
            0x007632a5      .byte 0x80
            0x007632a6      .byte 0x03
            0x007632a7      .byte 0x0b
            0x007632a8     .string "- dis line " ; len=11
            0x007632b3      .byte 0x0b
            0x007632b4     .string "- new line " ; len=11
            0x007632bf      .byte 0x00
            0x007632c0      .byte 0x16
            0x007632c1      .byte 0x00
            0x007632c2      .byte 0x16
            0x007632c3      .byte 0x00
            0x007632c4      .byte 0x16
            0x007632c5      .byte 0x00
            0x007632c6      .byte 0x14
            0x007632c7      .byte 0x00
            0x007632c8      .byte 0x0a
            0x007632c9      .byte 0x00
            0x007632ca      .byte 0x20
            0x007632cb      .byte 0x00
            0x007632cc      .byte 0x14
            0x007632cd      .byte 0x00
            0x007632ce      .byte 0x0a
            0x007632cf      .byte 0x00
            0x007632d0      .byte 0x20
            0x007632d1      .byte 0x00
            0x007632d2      .byte 0x16
            0x007632d3      .byte 0x00
            0x007632d4      .byte 0x16
            0x007632d5      .byte 0x00
            0x007632d6      .byte 0x00
            0x007632d7      .byte 0x20
            0x007632d8      .byte 0x00
            0x007632d9      .byte 0x00
            0x007632da      .byte 0x01
            0x007632db      .byte 0x00
            0x007632dc      .byte 0x00
            0x007632dd      .byte 0x00
            0x007632de      .byte 0x00
            0x007632df      .byte 0x00
            0x007632e0      .byte 0x00
            0x007632e1      .byte 0x00
            0x007632e2      .byte 0x00
            0x007632e3      .byte 0x00
            0x007632e4      .byte 0x00
            0x007632e5      .byte 0x00
            0x007632e6      .byte 0x00
            0x007632e7      .byte 0x00
            0x007632e8      .byte 0x00
            0x007632e9      .byte 0x00
            0x007632ea      .byte 0x00
            0x007632eb      .byte 0x00
            0x007632ec      .byte 0x00
            0x007632ed      .byte 0x00
            0x007632ee      .byte 0x00
            0x007632ef      .byte 0x00
            0x007632f0      .byte 0x00
            0x007632f1      .byte 0x00
            0x007632f2      .byte 0x00
            0x007632f3      .byte 0x00
            0x007632f4      .byte 0x00
            0x007632f5      .byte 0x00
            0x007632f6      .byte 0x00
            0x007632f7      .byte 0x20
            0x007632f8      .byte 0x00
            0x007632f9      .byte 0x00
            0x007632fa      .byte 0x01
            0x007632fb      .byte 0x00
            0x007632fc      .byte 0x00
            0x007632fd      .byte 0x00
            0x007632fe      .byte 0x00
            0x007632ff      .byte 0x00
            0x00763300      .byte 0x00
            0x00763301      .byte 0x00
            0x00763302      .byte 0x00
            0x00763303      .byte 0x00
            0x00763304      .byte 0x00
            0x00763305      .byte 0x00
            0x00763306      .byte 0x00
            0x00763307      .byte 0x00
            0x00763308      .byte 0x00
            0x00763309      .byte 0x00
            0x0076330a      .byte 0x00
            0x0076330b      .byte 0x00
            0x0076330c      .byte 0x00
            0x0076330d      .byte 0x00
            0x0076330e      .byte 0x00
            0x0076330f      .byte 0x00
            0x00763310      .byte 0x00
            0x00763311      .byte 0x00
            0x00763312      .byte 0x00
            0x00763313      .byte 0x00
            0x00763314      .byte 0x00
            0x00763315      .byte 0x00
            0x00763316      .byte 0x00
            0x00763317      .byte 0x20
            0x00763318      .byte 0x00
            0x00763319      .byte 0x00
            0x0076331a      .byte 0x01
            0x0076331b      .byte 0x00
            0x0076331c      .byte 0x00
            0x0076331d      .byte 0x00
            0x0076331e      .byte 0x00
            0x0076331f      .byte 0x00
            0x00763320      .byte 0x00
            0x00763321      .byte 0x00
            0x00763322      .byte 0x00
            0x00763323      .byte 0x00
            0x00763324      .byte 0x00
            0x00763325      .byte 0x00
            0x00763326      .byte 0x00
            0x00763327      .byte 0x00
            0x00763328      .byte 0x00
            0x00763329      .byte 0x00
            0x0076332a      .byte 0x00
            0x0076332b      .byte 0x00
            0x0076332c      .byte 0x00
            0x0076332d      .byte 0x00
            0x0076332e      .byte 0x00
            0x0076332f      .byte 0x00
            0x00763330      .byte 0x00
            0x00763331      .byte 0x00
            0x00763332      .byte 0x00
            0x00763333      .byte 0x00
            0x00763334      .byte 0x00
            0x00763335      .byte 0x00
            0x00763336      .byte 0x00
            0x00763337      .byte 0x20
            0x00763338      .byte 0x00
            0x00763339      .byte 0x00
            0x0076333a      .byte 0x01
            0x0076333b      .byte 0x00
            0x0076333c      .byte 0x00
            0x0076333d      .byte 0x00
            0x0076333e      .byte 0x00
            0x0076333f      .byte 0x00
            0x00763340      .byte 0x00
            0x00763341      .byte 0x00
            0x00763342      .byte 0x00
            0x00763343      .byte 0x00
            0x00763344      .byte 0x00
            0x00763345      .byte 0x00
            0x00763346      .byte 0x00
            0x00763347      .byte 0x00
            0x00763348      .byte 0x00
            0x00763349      .byte 0x00
            0x0076334a      .byte 0x00
            0x0076334b      .byte 0x00
            0x0076334c      .byte 0x00
            0x0076334d      .byte 0x00
            0x0076334e      .byte 0x00
            0x0076334f      .byte 0x00
            0x00763350      .byte 0x00
            0x00763351      .byte 0x00
            0x00763352      .byte 0x00
            0x00763353      .byte 0x00
            0x00763354      .byte 0x00
            0x00763355      .byte 0x00
            0x00763356      .byte 0xff
            0x00763357      .byte 0xff
            0x00763358      .byte 0xff
            0x00763359      .byte 0xff
            0x0076335a      .byte 0xff
            0x0076335b      .byte 0xff
            0x0076335c      .byte 0xff
            0x0076335d      .byte 0xff
            0x0076335e      .byte 0xff
            0x0076335f      .byte 0xff
            0x00763360      .byte 0xff
            0x00763361      .byte 0xff
            0x00763362      .byte 0xff
            0x00763363      .byte 0xff
            0x00763364      .byte 0xff
            0x00763365      .byte 0xff
            0x00763366      .byte 0xff
            0x00763367      .byte 0xff
            0x00763368      .byte 0xff
            0x00763369      .byte 0xff
            0x0076336a      .byte 0xff
            0x0076336b      .byte 0xff
            0x0076336c      .byte 0xff
            0x0076336d      .byte 0xff
            0x0076336e      .byte 0xff
            0x0076336f      .byte 0xff
            0x00763370      .byte 0xff
            0x00763371      .byte 0xff
            0x00763372      .byte 0xff
            0x00763373      .byte 0xff
            0x00763374      .byte 0xff
            0x00763375      .byte 0xff
            0x00763376      .byte 0x02
            0x00763377      .byte 0x4f
            0x00763378      .byte 0x4b
            0x00763379      .byte 0x02
            0x0076337a      .byte 0x4f
            0x0076337b      .byte 0x4b
            0x0076337c      .byte 0x10
            0x0076337d     .string "k_name returned " ; len=16
            0x0076338d      .byte 0x02
            0x0076338e      .byte 0x4f
            0x0076338f      .byte 0x4b
            0x00763390      .byte 0x19
            0x00763391     .string "sel browse font returned " ; len=25
            0x007633aa      .byte 0x0b
            0x007633ab     .string "- new line " ; len=11
            0x007633b6      .byte 0x00
            0x007633b7      .byte 0x00
            0x007633b8      .byte 0x00
            0x007633b9      .byte 0x00
            0x007633ba      .byte 0x00
            0x007633bb      .byte 0x00
            0x007633bc      .byte 0x00
            0x007633bd      .byte 0x00
            0x007633be      .byte 0x0b
            0x007633bf     .string "- dis line " ; len=11
            0x007633ca      .byte 0x00
            0x007633cb      .byte 0x00
            0x007633cc      .byte 0x00
            0x007633cd      .byte 0x00
            0x007633ce      .byte 0x18
            0x007633cf     .string "failed cache allocation " ; len=24
            0x007633e7      .byte 0x0b
            0x007633e8     .string "- dis line " ; len=11
            0x007633f3      .byte 0x0b
            0x007633f4     .string "----- fonts" ; len=11
            0x007633ff      .byte 0x03
            0x00763400      .byte 0x20
            0x00763401      .byte 0x2c
            0x00763402      .byte 0x20
            0x00763403      .byte 0x04
            0x00763404      .byte 0x20
            0x00763405      .byte 0x63
            0x00763406      .byte 0x75
            0x00763407      .byte 0x72
            0x00763408      .byte 0x02
            0x00763409      .byte 0x4f
            0x0076340a      .byte 0x4b
            0x0076340b      .byte 0x18
            0x0076340c     .string "Unable to sel_font_title" ; len=24
            0x00763424      .byte 0x02
            0x00763425      .byte 0x4f
            0x00763426      .byte 0x4b
            0x00763427      .byte 0x02
            0x00763428      .byte 0x50
            0x00763429      .byte 0x45
            0x0076342a      .byte 0x02
            0x0076342b      .byte 0x4f
            0x0076342c      .byte 0x4b
            0x0076342d      .byte 0x02
            0x0076342e      .byte 0x48
            0x0076342f      .byte 0x46
            0x00763430      .byte 0x13
            0x00763431     .string "running out of heap" ; len=19
            0x00763444      .byte 0x0e
            0x00763445     .string "<<raster <font" ; len=14
            0x00763453      .byte 0x00
            0x00763454      .byte 0x00
            0x00763455      .byte 0x00
            0x00763456      .byte 0x00
            0x00763457      .byte 0x00
            0x00763458      .byte 0x18
            0x00763459     .string "failed cache allocation " ; len=24
            0x00763471      .byte 0x00
            0x00763472      .byte 0x03
            0x00763473      .byte 0x00
            0x00763474      .byte 0x00
            0x00763475      .byte 0x00
            0x00763476      .byte 0x00
            0x00763477      .byte 0x00
            0x00763478      .byte 0x00
            0x00763479      .byte 0x00
            0x0076347a      .byte 0x00
            0x0076347b      .byte 0x00
            0x0076347c      .byte 0x00
            0x0076347d      .byte 0x00
            0x0076347e      .byte 0x00
            0x0076347f      .byte 0x00
            0x00763480      .byte 0x00
            0x00763481      .byte 0x00
            0x00763482      .byte 0x00
            0x00763483      .byte 0x00
            0x00763484      .byte 0x00
            0x00763485      .byte 0x00
            0x00763486      .byte 0x00
            0x00763487      .byte 0x00
            0x00763488      .byte 0x00
            0x00763489      .byte 0x00
            0x0076348a      .byte 0x00
            0x0076348b      .byte 0x00
            0x0076348c      .byte 0x00
            0x0076348d      .byte 0x00
            0x0076348e      .byte 0x00
            0x0076348f      .byte 0x00
            0x00763490      .byte 0x00
            0x00763491      .byte 0x00
            0x00763492      .byte 0x03
            0x00763493      .byte 0x00
            0x00763494      .byte 0x00
            0x00763495      .byte 0x00
            0x00763496      .byte 0x00
            0x00763497      .byte 0x00
            0x00763498      .byte 0x00
            0x00763499      .byte 0x00
            0x0076349a      .byte 0x00
            0x0076349b      .byte 0x00
            0x0076349c      .byte 0x00
            0x0076349d      .byte 0x00
            0x0076349e      .byte 0x00
            0x0076349f      .byte 0x00
            0x007634a0      .byte 0x00
            0x007634a1      .byte 0x00
            0x007634a2      .byte 0x00
            0x007634a3      .byte 0x00
            0x007634a4      .byte 0x00
            0x007634a5      .byte 0x00
            0x007634a6      .byte 0x00
            0x007634a7      .byte 0x00
            0x007634a8      .byte 0x00
            0x007634a9      .byte 0x00
            0x007634aa      .byte 0x00
            0x007634ab      .byte 0x00
            0x007634ac      .byte 0x00
            0x007634ad      .byte 0x00
            0x007634ae      .byte 0x00
            0x007634af      .byte 0x00
            0x007634b0      .byte 0x00
            0x007634b1      .byte 0x00
            0x007634b2      .byte 0x03
            0x007634b3      .byte 0x00
            0x007634b4      .byte 0x03
            0x007634b5      .byte 0x0b
            0x007634b6     .string "new_jump = " ; len=11
            0x007634c1      .byte 0x0e
            0x007634c2     .string "large_count = " ; len=14
            0x007634d0      .byte 0x03
            0x007634d1      .byte 0x0d
            0x007634d2     .string "hit_type_num " ; len=13
            0x007634df      .byte 0x0b
            0x007634e0     .string " box_num = " ; len=11
            0x007634eb      .byte 0x00
            0x007634ec      .byte 0x03
            0x007634ed      .byte 0x00
            0x007634ee      .byte 0x03
            0x007634ef      .byte 0x0c
            0x007634f0     .string "Control key " ; len=12
            0x007634fc      .byte 0x02
            0x007634fd      .byte 0x2c
            0x007634fe      .byte 0x20
            0x007634ff      .byte 0x02
            0x00763500      .byte 0x2c
            0x00763501      .byte 0x20
            0x00763502      .byte 0x09
            0x00763503     .string "do_arrow " ; len=9
            0x0076350c      .byte 0x08
            0x0076350d     .string "release " ; len=8
            0x00763515      .byte 0x0a
            0x00763516     .string ", repeat  " ; len=10
            0x00763520      .byte 0x0c
            0x00763521     .string "control hit " ; len=12
            0x0076352d      .byte 0x0b
            0x0076352e     .string "- new line " ; len=11
            0x00763539      .byte 0x0b
            0x0076353a     .string "- dis line " ; len=11
            0x00763545      .byte 0x0b
            0x00763546     .string "- dis line " ; len=11
            0x00763551      .byte 0x0b
            0x00763552     .string "temp cutout" ; len=11
            0x0076355d      .byte 0x02
            0x0076355e      .byte 0x4f
            0x0076355f      .byte 0x4b
            0x00763560      .byte 0x04
            0x00763561      .byte 0x66
            0x00763562      .byte 0x75
            0x00763563      .byte 0x6c
            0x00763564      .byte 0x6c
            0x00763565      .byte 0x0d
            0x00763566     .string "do_type_char " ; len=13
            0x00763573      .byte 0x02
            0x00763574      .byte 0x2c
            0x00763575      .byte 0x20
            0x00763576      .byte 0x01
            0x00763577      .byte 0x00
            0x00763578      .byte 0x00
            0x00763579      .byte 0x00
            0x0076357a      .byte 0x01
            0x0076357b      .byte 0x00
            0x0076357c      .byte 0x00
            0x0076357d      .byte 0x00
            0x0076357e      .byte 0x00
            0x0076357f      .byte 0x00
            0x00763580      .byte 0x00
            0x00763581      .byte 0x00
            0x00763582      .byte 0x00
            0x00763583      .byte 0x00
            0x00763584      .byte 0x00
            0x00763585      .byte 0x00
            0x00763586      .byte 0x00
            0x00763587      .byte 0x00
            0x00763588      .byte 0x00
            0x00763589      .byte 0x00
            0x0076358a      .byte 0x00
            0x0076358b      .byte 0x00
            0x0076358c      .byte 0x00
            0x0076358d      .byte 0x00
            0x0076358e      .byte 0x00
            0x0076358f      .byte 0x00
            0x00763590      .byte 0x00
            0x00763591      .byte 0x00
            0x00763592      .byte 0x00
            0x00763593      .byte 0x00
            0x00763594      .byte 0x00
            0x00763595      .byte 0x00
            0x00763596      .byte 0x00
            0x00763597      .byte 0x20
            0x00763598      .byte 0x00
            0x00763599      .byte 0x00
            0x0076359a      .byte 0x01
            0x0076359b      .byte 0x00
            0x0076359c      .byte 0x00
            0x0076359d      .byte 0x00
            0x0076359e      .byte 0x00
            0x0076359f      .byte 0x00
            0x007635a0      .byte 0x00
            0x007635a1      .byte 0x00
            0x007635a2      .byte 0x00
            0x007635a3      .byte 0x00
            0x007635a4      .byte 0x00
            0x007635a5      .byte 0x00
            0x007635a6      .byte 0x00
            0x007635a7      .byte 0x00
            0x007635a8      .byte 0x00
            0x007635a9      .byte 0x00
            0x007635aa      .byte 0x00
            0x007635ab      .byte 0x00
            0x007635ac      .byte 0x00
            0x007635ad      .byte 0x00
            0x007635ae      .byte 0x00
            0x007635af      .byte 0x00
            0x007635b0      .byte 0x00
            0x007635b1      .byte 0x00
            0x007635b2      .byte 0x00
            0x007635b3      .byte 0x00
            0x007635b4      .byte 0x00
            0x007635b5      .byte 0x00
            0x007635b6      .byte 0x00
            0x007635b7      .byte 0x20
            0x007635b8      .byte 0x00
            0x007635b9      .byte 0x00
            0x007635ba      .byte 0x01
            0x007635bb      .byte 0x00
            0x007635bc      .byte 0x00
            0x007635bd      .byte 0x00
            0x007635be      .byte 0x00
            0x007635bf      .byte 0x00
            0x007635c0      .byte 0x00
            0x007635c1      .byte 0x00
            0x007635c2      .byte 0x00
            0x007635c3      .byte 0x00
            0x007635c4      .byte 0x00
            0x007635c5      .byte 0x00
            0x007635c6      .byte 0x00
            0x007635c7      .byte 0x00
            0x007635c8      .byte 0x00
            0x007635c9      .byte 0x00
            0x007635ca      .byte 0x00
            0x007635cb      .byte 0x00
            0x007635cc      .byte 0x00
            0x007635cd      .byte 0x00
            0x007635ce      .byte 0x00
            0x007635cf      .byte 0x00
            0x007635d0      .byte 0x00
            0x007635d1      .byte 0x00
            0x007635d2      .byte 0x00
            0x007635d3      .byte 0x00
            0x007635d4      .byte 0x00
            0x007635d5      .byte 0x00
            0x007635d6      .byte 0x00
            0x007635d7      .byte 0x20
            0x007635d8      .byte 0x00
            0x007635d9      .byte 0x00
            0x007635da      .byte 0x01
            0x007635db      .byte 0x00
            0x007635dc      .byte 0x00
            0x007635dd      .byte 0x00
            0x007635de      .byte 0x00
            0x007635df      .byte 0x00
            0x007635e0      .byte 0x00
            0x007635e1      .byte 0x00
            0x007635e2      .byte 0x00
            0x007635e3      .byte 0x00
            0x007635e4      .byte 0x00
            0x007635e5      .byte 0x00
            0x007635e6      .byte 0x00
            0x007635e7      .byte 0x00
            0x007635e8      .byte 0x00
            0x007635e9      .byte 0x00
            0x007635ea      .byte 0x00
            0x007635eb      .byte 0x00
            0x007635ec      .byte 0x00
            0x007635ed      .byte 0x00
            0x007635ee      .byte 0x00
            0x007635ef      .byte 0x00
            0x007635f0      .byte 0x00
            0x007635f1      .byte 0x00
            0x007635f2      .byte 0x00
            0x007635f3      .byte 0x00
            0x007635f4      .byte 0x00
            0x007635f5      .byte 0x00
            0x007635f6      .byte 0x00
            0x007635f7      .byte 0x40
            0x007635f8      .byte 0x1c
            0x007635f9      .byte 0x20
            0x007635fa      .byte 0x00
            0x007635fb      .byte 0x00
            0x007635fc      .byte 0x00
            0x007635fd      .byte 0x00
            0x007635fe      .byte 0x00
            0x007635ff      .byte 0x00
            0x00763600      .byte 0x00
            0x00763601      .byte 0x00
            0x00763602      .byte 0x00
            0x00763603      .byte 0x00
            0x00763604      .byte 0x00
            0x00763605      .byte 0x00
            0x00763606      .byte 0x00
            0x00763607      .byte 0x00
            0x00763608      .byte 0x00
            0x00763609      .byte 0x00
            0x0076360a      .byte 0x00
            0x0076360b      .byte 0x00
            0x0076360c      .byte 0x00
            0x0076360d      .byte 0x00
            0x0076360e      .byte 0x00
            0x0076360f      .byte 0x00
            0x00763610      .byte 0x00
            0x00763611      .byte 0x00
            0x00763612      .byte 0x00
            0x00763613      .byte 0x00
            0x00763614      .byte 0x00
            0x00763615      .byte 0x00
            0x00763616      .byte 0x0d
            0x00763617     .string "hit_cut_text " ; len=13
            0x00763624      .byte 0x02
            0x00763625      .byte 0x2c
            0x00763626      .byte 0x20
            0x00763627      .byte 0x07
            0x00763628     .string "no font" ; len=7
            0x0076362f      .byte 0x00
            0x00763630      .byte 0x3f
            0x00763631      .byte 0x80
            0x00763632      .byte 0x00
            0x00763633      .byte 0x00
            0x00763634      .byte 0x3f
            0x00763635      .byte 0x80
            0x00763636      .byte 0x00
            0x00763637      .byte 0x00
            0x00763638      .byte 0x00
            0x00763639      .byte 0x00
            0x0076363a      .byte 0x00
            0x0076363b      .byte 0x00
            0x0076363c      .byte 0x00
            0x0076363d      .byte 0x00
            0x0076363e      .byte 0x00
            0x0076363f      .byte 0x00
            0x00763640      .byte 0x3f
            0x00763641      .byte 0x80
            0x00763642      .byte 0x00
            0x00763643      .byte 0x00
            0x00763644      .byte 0x3f
            0x00763645      .byte 0x80
            0x00763646      .byte 0x00
            0x00763647      .byte 0x00
            0x00763648      .byte 0x00
            0x00763649      .byte 0x00
            0x0076364a      .byte 0x00
            0x0076364b      .byte 0x80
            0x0076364c      .byte 0x03
            0x0076364d      .byte 0x00
            0x0076364e      .byte 0x00
            0x0076364f      .byte 0x44
            0x00763650      .byte 0x00
            0x00763651      .byte 0x00
            0x00763652      .byte 0x18
            0x00763653      .byte 0x00
            0x00763654      .byte 0x00
            0x00763655      .byte 0x00
            0x00763656      .byte 0x00
            0x00763657      .byte 0x00
            0x00763658      .byte 0x00
            0x00763659      .byte 0x00
            0x0076365a      .byte 0x00
            0x0076365b      .byte 0x00
            0x0076365c      .byte 0x00
            0x0076365d      .byte 0x00
            0x0076365e      .byte 0x00
            0x0076365f      .byte 0x00
            0x00763660      .byte 0x00
            0x00763661      .byte 0x00
            0x00763662      .byte 0x00
            0x00763663      .byte 0x00
            0x00763664      .byte 0x00
            0x00763665      .byte 0x00
            0x00763666      .byte 0x00
            0x00763667      .byte 0x00
            0x00763668      .byte 0x00
            0x00763669      .byte 0x00
            0x0076366a      .byte 0x00
            0x0076366b      .byte 0x00
            0x0076366c      .byte 0x00
            0x0076366d      .byte 0x00
            0x0076366e      .byte 0x00
            0x0076366f      .byte 0x00
            0x00763670      .byte 0x00
            0x00763671      .byte 0x00
            0x00763672      .byte 0x00
            0x00763673      .byte 0x00
            0x00763674      .byte 0x00
            0x00763675      .byte 0x00
            0x00763676      .byte 0x00
            0x00763677      .byte 0x00
            0x00763678      .byte 0x00
            0x00763679      .byte 0x00
            0x0076367a      .byte 0x00
            0x0076367b      .byte 0x00
            0x0076367c      .byte 0x0f
            0x0076367d     .string "loading font - " ; len=15
            0x0076368c      .byte 0x03
            0x0076368d      .byte 0x20
            0x0076368e      .byte 0x2d
            0x0076368f      .byte 0x20
            0x00763690      .byte 0x3f
            0x00763691      .byte 0x80
            0x00763692      .byte 0x00
            0x00763693      .byte 0x00
            0x00763694      .byte 0x3f
            0x00763695      .byte 0x80
            0x00763696      .byte 0x00
            0x00763697      .byte 0x00
            0x00763698      .byte 0x00
            0x00763699      .byte 0x00
            0x0076369a      .byte 0x00
            0x0076369b      .byte 0x00
            0x0076369c      .byte 0x00
            0x0076369d      .byte 0x00
            0x0076369e      .byte 0x00
            0x0076369f      .byte 0x00
            0x007636a0      .byte 0x00
            0x007636a1      .byte 0x00
            0x007636a2      .byte 0x00
            0x007636a3      .byte 0x00
            0x007636a4      .byte 0x00
            0x007636a5      .byte 0x00
            0x007636a6      .byte 0x00
            0x007636a7      .byte 0x00
            0x007636a8      .byte 0x00
            0x007636a9      .byte 0x00
            0x007636aa      .byte 0x00
            0x007636ab      .byte 0x00
            0x007636ac      .byte 0x00
            0x007636ad      .byte 0x00
            0x007636ae      .byte 0x00
            0x007636af      .byte 0x00
            0x007636b0      .byte 0x00
            0x007636b1      .byte 0x00
            0x007636b2      .byte 0x00
            0x007636b3      .byte 0x00
            0x007636b4      .byte 0x00
            0x007636b5      .byte 0x00
            0x007636b6      .byte 0x00
            0x007636b7      .byte 0x00
            0x007636b8      .byte 0x04
            0x007636b9      .byte 0x74
            0x007636ba      .byte 0x65
            0x007636bb      .byte 0x78
            0x007636bc      .byte 0x74
            0x007636bd      .byte 0x02
            0x007636be      .byte 0x20
            0x007636bf      .byte 0x20
            0x007636c0      .byte 0x05
            0x007636c1     .string "style" ; len=5
            0x007636c6      .byte 0x05
            0x007636c7     .string "stick" ; len=5
            0x007636cc      .byte 0x05
            0x007636cd     .string "*text" ; len=5
            0x007636d2      .byte 0x06
            0x007636d3     .string "values" ; len=6
            0x007636d9      .byte 0x0d
            0x007636da     .string "*dummy_values" ; len=13
            0x007636e7      .byte 0x02
            0x007636e8      .byte 0x78
            0x007636e9      .byte 0x20
            0x007636ea      .byte 0x02
            0x007636eb      .byte 0x79
            0x007636ec      .byte 0x20
            0x007636ed      .byte 0x02
            0x007636ee      .byte 0x3e
            0x007636ef      .byte 0x4c
            0x007636f0      .byte 0x02
            0x007636f1      .byte 0x3e
            0x007636f2      .byte 0x43
            0x007636f3      .byte 0x02
            0x007636f4      .byte 0x3e
            0x007636f5      .byte 0x52
            0x007636f6      .byte 0x06
            0x007636f7     .string "<<page" ; len=6
            0x007636fd      .byte 0x04
            0x007636fe      .byte 0x6c
            0x007636ff      .byte 0x69
            0x00763700      .byte 0x6e
            0x00763701      .byte 0x65
            0x00763702      .byte 0x08
            0x00763703     .string "<<w<or<d" ; len=8
            0x0076370b      .byte 0x04
            0x0076370c      .byte 0x63
            0x0076370d      .byte 0x68
            0x0076370e      .byte 0x61
            0x0076370f      .byte 0x72
            0x00763710      .byte 0x05
            0x00763711     .string "*char" ; len=5
            0x00763716      .byte 0x05
            0x00763717     .string "*line" ; len=5
            0x0076371c      .byte 0x05
            0x0076371d     .string "size " ; len=5
            0x00763722      .byte 0x09
            0x00763723     .string "k<ern>>>>" ; len=9
            0x0076372c      .byte 0x05
            0x0076372d     .string "yinc " ; len=5
            0x00763732      .byte 0x0b
            0x00763733     .string "<<spa<c<e>>" ; len=11
            0x0076373e      .byte 0x05
            0x0076373f     .string "jump>" ; len=5
            0x00763744      .byte 0x05
            0x00763745     .string "<flip" ; len=5
            0x0076374a      .byte 0x09
            0x0076374b     .string "<<<tumble" ; len=9
            0x00763754      .byte 0x06
            0x00763755     .string "<<lose" ; len=6
            0x0076375b      .byte 0x03
            0x0076375c      .byte 0x73
            0x0076375d      .byte 0x65
            0x0076375e      .byte 0x74
            0x0076375f      .byte 0x05
            0x00763760     .string "<<map" ; len=5
            0x00763765      .byte 0x07
            0x00763766     .string "set map" ; len=7
            0x0076376d      .byte 0x02
            0x0076376e      .byte 0x3c
            0x0076376f      .byte 0x3c
            0x00763770      .byte 0x01
            0x00763771      .byte 0x15
            0x00763772      .byte 0x01
            0x00763773      .byte 0x3c
            0x00763774      .byte 0x01
            0x00763775      .byte 0x17
            0x00763776      .byte 0x02
            0x00763777      .byte 0x3c
            0x00763778      .byte 0x3c
            0x00763779      .byte 0x01
            0x0076377a      .byte 0x19
            0x0076377b      .byte 0x01
            0x0076377c      .byte 0x3c
            0x0076377d      .byte 0x01
            0x0076377e      .byte 0x17
            0x0076377f      .byte 0x02
            0x00763780      .byte 0x3c
            0x00763781      .byte 0x3c
            0x00763782      .byte 0x01
            0x00763783      .byte 0x17
            0x00763784      .byte 0x01
            0x00763785      .byte 0x3c
            0x00763786      .byte 0x01
            0x00763787      .byte 0x15
            0x00763788      .byte 0x02
            0x00763789      .byte 0x3c
            0x0076378a      .byte 0x3c
            0x0076378b      .byte 0x01
            0x0076378c      .byte 0x17
            0x0076378d      .byte 0x01
            0x0076378e      .byte 0x3c
            0x0076378f      .byte 0x01
            0x00763790      .byte 0x19
            0x00763791      .byte 0x00
            0x00763792      .byte 0x00
            0x00763793      .byte 0x20
            0x00763794      .byte 0x00
            0x00763795      .byte 0x00
            0x00763796      .byte 0x01
            0x00763797      .byte 0x00
            0x00763798      .byte 0x00
            0x00763799      .byte 0x00
            0x0076379a      .byte 0x00
            0x0076379b      .byte 0x00
            0x0076379c      .byte 0x00
            0x0076379d      .byte 0x00
            0x0076379e      .byte 0x00
            0x0076379f      .byte 0x00
            0x007637a0      .byte 0x00
            0x007637a1      .byte 0x00
            0x007637a2      .byte 0x00
            0x007637a3      .byte 0x00
            0x007637a4      .byte 0x00
            0x007637a5      .byte 0x00
            0x007637a6      .byte 0x00
            0x007637a7      .byte 0x00
            0x007637a8      .byte 0x00
            0x007637a9      .byte 0x00
            0x007637aa      .byte 0x00
            0x007637ab      .byte 0x00
            0x007637ac      .byte 0x00
            0x007637ad      .byte 0x00
            0x007637ae      .byte 0x00
            0x007637af      .byte 0x00
            0x007637b0      .byte 0x00
            0x007637b1      .byte 0x00
            0x007637b2      .byte 0x05
            0x007637b3      .byte 0x66
            0x007637b4      .byte 0x6f
            0x007637b5      .byte 0x6e
            0x007637b6      .byte 0x74
            0x007637b7      .byte 0x73
 192: MENUTYPECOM.type_purge ();
           0x007637b8      4e56ffca       link.w a6, 0xffca
           0x007637bc      bfd5           cmpa.l (a5), a7
       < 0x007637be      6206           bhi.b 0x7637c6
          0x007637c0      44fc0002       move.w 0x2, ccr
          0x007637c4      4e76           trapv
       > 0x007637c6      defc002c       adda.w 0x2c, a7
           0x007637ca      48e7c1c8       movem.l d0-d1/d7/a0-a1/a4, -(a7)
           0x007637ce      43eefff6       lea.l -0xa(a6), a1
           0x007637d2      7201           moveq 0x1, d1
           0x007637d4      7e00           moveq 0x0, d7
           0x007637d6      28790086e6e4   movea.l 0x86e6e4, a4
           0x007637dc      48780001       pea.l 0x1
       > 0x007637e0      b8c1           cmpa.w d1, a4
      < 0x007637e2      6604           bne.b 0x7637e8
         0x007637e4      584f           addq.w 0x4, a7
     < 0x007637e6      6050           bra.b 0x763838
     > 0x007637e8      b9ecfffc       cmpa.l -0x4(a4), a4
     < 0x007637ec      6702           beq.b 0x7637f0
        0x007637ee      4e4d           trap 0xd
     > 0x007637f0      22ac0008       move.l 0x8(a4), (a1)
     > 0x007637f4      2051           movea.l (a1), a0
        0x007637f6      b0c1           cmpa.w d1, a0
    < 0x007637f8      673a           beq.b 0x763834
       0x007637fa      b1e8fffc       cmpa.l -0x4(a0), a0
   < 0x007637fe      6702           beq.b 0x763802
      0x00763800      4e4d           trap 0xd
   > 0x00763802      20280030       move.l 0x30(a0), d0
       0x00763806      b097           cmp.l (a7), d0
   < 0x00763808      670e           beq.b 0x763818
      0x0076380a      7e01           moveq 0x1, d7
      0x0076380c      48680030       pea.l 0x30(a0)
      0x00763810      4eb900632826   jsr CACHECOM.remove_cache_re
      0x00763816      584f           addq.w 0x4, a7
   > 0x00763818      20280034       move.l 0x34(a0), d0
       0x0076381c      b097           cmp.l (a7), d0
   < 0x0076381e      670e           beq.b 0x76382e
      0x00763820      7e01           moveq 0x1, d7
      0x00763822      48680034       pea.l 0x34(a0)
      0x00763826      4eb900632826   jsr CACHECOM.remove_cache_re
      0x0076382c      584f           addq.w 0x4, a7
   > 0x0076382e      22a80004       move.l 0x4(a0), (a1)
    < 0x00763832      60c0           bra.b 0x7637f4
    > 0x00763834      2854           movea.l (a4), a4
      < 0x00763836      60a8           bra.b 0x7637e0
     > 0x00763838      1f3af8b2       move.b 0x7630ec(pc), -(a7)
           0x0076383c      4eb90063278a   jsr CACHECOM.clear_cache
           0x00763842      544f           addq.w 0x2, a7
           0x00763844      487af8a8       pea.l 0x7630ee(pc)
           0x00763848      48780020       pea.l 0x20
           0x0076384c      2f17           move.l (a7), -(a7)
           0x0076384e      4eb9004047ea   jsr p_wts_o
           0x00763854      defc000a       adda.w 0xa, a7
           0x00763858      1e87           move.b d7, (a7)
           0x0076385a      48780005       pea.l 0x5
           0x0076385e      4eb90040718c   jsr p_wtb_o
           0x00763864      5c4f           addq.w 0x6, a7
           0x00763866      4eb900404946   jsr p_wtln_o
           0x0076386c      1d470008       move.b d7, 0x8(a6)
           0x00763870      4cdf1383       movem.l (a7)+, d0-d1/d7/a0-a1/a4
           0x00763874      4e5e           unlk a6
           0x00763876      4e75           rts
            ; CALL XREF from K91_LIBOPS.k91_add_to_cuto @ 0x64f104
 34: MENUTYPECOM.add_cutout_to_f ();
           ; var int32_t var_782h @ a6-0x782
           ; var int32_t var_77dh @ a6-0x77d
           0x00763878      4e56fffc       link.w a6, 0xfffc
           0x0076387c      bfd5           cmpa.l (a5), a7
       < 0x0076387e      6206           bhi.b 0x763886
          0x00763880      44fc0002       move.w 0x2, ccr
          0x00763884      4e76           trapv
       > 0x00763886      defc0004       adda.w 0x4, a7
           0x0076388a      1d7af883000e   move.b 0x76310f(pc), 0xe(a6)
           0x00763890      1d7af87e000f   move.b 0x763110(pc), 0xf(a6)
           0x00763896      4e5e           unlk a6
           0x00763898      4e75           rts
 28: MENUTYPECOM.save_alt_font ();
           ; var int32_t var_79ch @ a6-0x79c
           0x0076389a      4e56fffc       link.w a6, 0xfffc
           0x0076389e      bfd5           cmpa.l (a5), a7
       < 0x007638a0      6206           bhi.b 0x7638a8
          0x007638a2      44fc0002       move.w 0x2, ccr
          0x007638a6      4e76           trapv
       > 0x007638a8      defc0004       adda.w 0x4, a7
           0x007638ac      3d7af8640108   move.w 0x763112(pc), 0x108(a6)
           0x007638b2      4e5e           unlk a6
           0x007638b4      4e75           rts
 34: MENUTYPECOM.clear_alt_font ();
           ; var int32_t var_7bah @ a6-0x7ba
           ; var int32_t var_7b5h @ a6-0x7b5
           0x007638b6      4e56fffc       link.w a6, 0xfffc
           0x007638ba      bfd5           cmpa.l (a5), a7
       < 0x007638bc      6206           bhi.b 0x7638c4
          0x007638be      44fc0002       move.w 0x2, ccr
          0x007638c2      4e76           trapv
       > 0x007638c4      defc0004       adda.w 0x4, a7
           0x007638c8      1d7af84b0008   move.b 0x763115(pc), 0x8(a6)
           0x007638ce      1d7af8460009   move.b 0x763116(pc), 0x9(a6)
           0x007638d4      4e5e           unlk a6
           0x007638d6      4e75           rts
            ; CALL XREF from MENUTYPECOM.update_type_box @ 0x7655d4
 192: MENUTYPECOM.scale_point ();
           0x007638d8      4e56ffcc       link.w a6, 0xffcc
           0x007638dc      bfd5           cmpa.l (a5), a7
       < 0x007638de      6206           bhi.b 0x7638e6
          0x007638e0      44fc0002       move.w 0x2, ccr
          0x007638e4      4e76           trapv
       > 0x007638e6      defc0034       adda.w 0x34, a7
           0x007638ea      48e798f0       movem.l d0/d3-d4/a0-a3, -(a7)
           0x007638ee      47f900408686   lea.l fcn.00408686, a3
           0x007638f4      554f           subq.w 0x2, a7
           0x007638f6      3f3c0030       move.w 0x30, -(a7)
           0x007638fa      4eb900480fc2   jsr MENUCOM.get_boxon
           0x00763900      544f           addq.w 0x2, a7
           0x00763902      4a1f           tst.b (a7)+
       < 0x00763904      6612           bne.b 0x763918
          0x00763906      554f           subq.w 0x2, a7
          0x00763908      3f3c002f       move.w 0x2f, -(a7)
          0x0076390c      4eb900480fc2   jsr MENUCOM.get_boxon
          0x00763912      544f           addq.w 0x2, a7
          0x00763914      4a1f           tst.b (a7)+
      < 0x00763916      6778           beq.b 0x763990
      > 0x00763918      206e0008       movea.l 0x8(a6), a0
          0x0076391c      38390086e6c4   move.w 0x86e6c4, d4
          0x00763922      48c4           ext.l d4
          0x00763924      4e93           jsr (a3)                    ; fcn.0000000c
          0x00763926      2f04           move.l d4, -(a7)
          0x00763928      7808           moveq 0x8, d4
          0x0076392a      4e93           jsr (a3)                    ; fcn.0000000c
          0x0076392c      2f04           move.l d4, -(a7)
          0x0076392e      2604           move.l d4, d3
          0x00763930      282f0004       move.l 0x4(a7), d4
          0x00763934      4eb900407ff8   jsr fcn.00407ff8
          0x0076393a      2610           move.l (a0), d3
          0x0076393c      4eb900407ba8   jsr fcn.00407ba8
          0x00763942      2084           move.l d4, (a0)
          0x00763944      38390086e6c6   move.w 0x86e6c6, d4
          0x0076394a      48c4           ext.l d4
          0x0076394c      4e93           jsr (a3)                    ; fcn.0000000c
          0x0076394e      2617           move.l (a7), d3
          0x00763950      4eb900407ff8   jsr fcn.00407ff8
          0x00763956      504f           addq.w 0x8, a7
          0x00763958      086800070004   bchg.b 0x7, 0x4(a0)
          0x0076395e      26280004       move.l 0x4(a0), d3
          0x00763962      4eb900407ba8   jsr fcn.00407ba8
          0x00763968      21440004       move.l d4, 0x4(a0)
          0x0076396c      9efc0010       suba.w 0x10, a7
          0x00763970      224f           movea.l a7, a1
          0x00763972      2448           movea.l a0, a2
          0x00763974      7007           moveq 0x7, d0
      > 0x00763976      12da           move.b (a2)+, (a1)+
      < 0x00763978      51c8fffc       dbra d0, 0x763976
          0x0076397c      4eb900500640   jsr MENUGRIDCOM.scaled_pos
          0x00763982      504f           addq.w 0x8, a7
          0x00763984      224f           movea.l a7, a1
          0x00763986      7007           moveq 0x7, d0
      > 0x00763988      10d9           move.b (a1)+, (a0)+
      < 0x0076398a      51c8fffc       dbra d0, 0x763988
          0x0076398e      504f           addq.w 0x8, a7
      > 0x00763990      4cdf0f19       movem.l (a7)+, d0/d3-d4/a0-a3
           0x00763994      4e5e           unlk a6
           0x00763996      4e75           rts
 196: MENUTYPECOM.unscale_point ();
           0x00763998      4e56ffcc       link.w a6, 0xffcc
           0x0076399c      bfd5           cmpa.l (a5), a7
       < 0x0076399e      6206           bhi.b 0x7639a6
          0x007639a0      44fc0002       move.w 0x2, ccr
          0x007639a4      4e76           trapv
       > 0x007639a6      defc0034       adda.w 0x34, a7
           0x007639aa      48e798f0       movem.l d0/d3-d4/a0-a3, -(a7)
           0x007639ae      47f900408686   lea.l fcn.00408686, a3
           0x007639b4      554f           subq.w 0x2, a7
           0x007639b6      3f3c0030       move.w 0x30, -(a7)
           0x007639ba      4eb900480fc2   jsr MENUCOM.get_boxon
           0x007639c0      544f           addq.w 0x2, a7
           0x007639c2      4a1f           tst.b (a7)+
       < 0x007639c4      6612           bne.b 0x7639d8
          0x007639c6      554f           subq.w 0x2, a7
          0x007639c8      3f3c002f       move.w 0x2f, -(a7)
          0x007639cc      4eb900480fc2   jsr MENUCOM.get_boxon
          0x007639d2      544f           addq.w 0x2, a7
          0x007639d4      4a1f           tst.b (a7)+
      < 0x007639d6      677c           beq.b 0x763a54
      > 0x007639d8      206e0008       movea.l 0x8(a6), a0
          0x007639dc      9efc0010       suba.w 0x10, a7
          0x007639e0      224f           movea.l a7, a1
          0x007639e2      2448           movea.l a0, a2
          0x007639e4      7007           moveq 0x7, d0
      > 0x007639e6      12da           move.b (a2)+, (a1)+
      < 0x007639e8      51c8fffc       dbra d0, 0x7639e6
          0x007639ec      4eb90050055e   jsr MENUGRIDCOM.unscaled_pos
          0x007639f2      504f           addq.w 0x8, a7
          0x007639f4      2248           movea.l a0, a1
          0x007639f6      244f           movea.l a7, a2
          0x007639f8      7007           moveq 0x7, d0
      > 0x007639fa      12da           move.b (a2)+, (a1)+
      < 0x007639fc      51c8fffc       dbra d0, 0x7639fa
          0x00763a00      504f           addq.w 0x8, a7
          0x00763a02      38390086e6c4   move.w 0x86e6c4, d4
          0x00763a08      48c4           ext.l d4
          0x00763a0a      4e93           jsr (a3)                    ; fcn.0000000c
          0x00763a0c      2f04           move.l d4, -(a7)
          0x00763a0e      7808           moveq 0x8, d4
          0x00763a10      4e93           jsr (a3)                    ; fcn.0000000c
          0x00763a12      2f04           move.l d4, -(a7)
          0x00763a14      2604           move.l d4, d3
          0x00763a16      282f0004       move.l 0x4(a7), d4
          0x00763a1a      4eb900407ff8   jsr fcn.00407ff8
          0x00763a20      2604           move.l d4, d3
          0x00763a22      2810           move.l (a0), d4
          0x00763a24      4eb900407b44   jsr fcn.00407b44
          0x00763a2a      2084           move.l d4, (a0)
          0x00763a2c      38390086e6c6   move.w 0x86e6c6, d4
          0x00763a32      48c4           ext.l d4
          0x00763a34      4e93           jsr (a3)                    ; fcn.0000000c
          0x00763a36      2617           move.l (a7), d3
          0x00763a38      4eb900407ff8   jsr fcn.00407ff8
          0x00763a3e      504f           addq.w 0x8, a7
          0x00763a40      2604           move.l d4, d3
          0x00763a42      28280004       move.l 0x4(a0), d4
          0x00763a46      4eb900407b44   jsr fcn.00407b44
          0x00763a4c      0844001f       bchg.b 0x1f, d4
          0x00763a50      21440004       move.l d4, 0x4(a0)
      > 0x00763a54      4cdf0f19       movem.l (a7)+, d0/d3-d4/a0-a3
           0x00763a58      4e5e           unlk a6
           0x00763a5a      4e75           rts
 198: MENUTYPECOM.write_text ();
           0x00763a5c      4e56ffc0       link.w a6, 0xffc0
           0x00763a60      bfd5           cmpa.l (a5), a7
       < 0x00763a62      6206           bhi.b 0x763a6a
          0x00763a64      44fc0002       move.w 0x2, ccr
          0x00763a68      4e76           trapv
       > 0x00763a6a      defc0034       adda.w 0x34, a7
           0x00763a6e      48e7e1f8       movem.l d0-d2/d7/a0-a4, -(a7)
           0x00763a72      43f9004047ea   lea.l p_wts_o, a1
           0x00763a78      45f900404946   lea.l p_wtln_o, a2
           0x00763a7e      720c           moveq 0xc, d1
           0x00763a80      7401           moveq 0x1, d2
           0x00763a82      206e0008       movea.l 0x8(a6), a0
           0x00763a86      2650           movea.l (a0), a3
           0x00763a88      7e01           moveq 0x1, d7
           0x00763a8a      4e92           jsr (a2)                    ; fcn.00000009+0x2
           0x00763a8c      487af68a       pea.l 0x763118(pc)
           0x00763a90      4878000f       pea.l 0xf
           0x00763a94      2f17           move.l (a7), -(a7)
           0x00763a96      4e91           jsr (a1)                    ; fcn.0000000a
           0x00763a98      dec1           adda.w d1, a7
           0x00763a9a      4e92           jsr (a2)                    ; fcn.00000009+0x2
       > 0x00763a9c      b6c2           cmpa.w d2, a3
      < 0x00763a9e      677a           beq.b 0x763b1a
         0x00763aa0      487af686       pea.l 0x763128(pc)
         0x00763aa4      48780005       pea.l 0x5
         0x00763aa8      2f17           move.l (a7), -(a7)
         0x00763aaa      4e91           jsr (a1)                    ; fcn.0000000a
         0x00763aac      504f           addq.w 0x8, a7
         0x00763aae      2e87           move.l d7, (a7)
         0x00763ab0      48780000       pea.l 0x0
         0x00763ab4      4eb9004070e4   jsr p_wti_o
         0x00763aba      504f           addq.w 0x8, a7
         0x00763abc      487af670       pea.l 0x76312e(pc)
         0x00763ac0      48780003       pea.l 0x3
         0x00763ac4      2f17           move.l (a7), -(a7)
         0x00763ac6      4e91           jsr (a1)                    ; fcn.0000000a
         0x00763ac8      dec1           adda.w d1, a7
         0x00763aca      b7ebfffc       cmpa.l -0x4(a3), a3
     < 0x00763ace      6702           beq.b 0x763ad2
        0x00763ad0      4e4d           trap 0xd
     > 0x00763ad2      286b0008       movea.l 0x8(a3), a4
     > 0x00763ad6      b8c2           cmpa.w d2, a4
    < 0x00763ad8      6730           beq.b 0x763b0a
       0x00763ada      b9ecfffc       cmpa.l -0x4(a4), a4
   < 0x00763ade      6702           beq.b 0x763ae2
      0x00763ae0      4e4d           trap 0xd
   > 0x00763ae2      487af64e       pea.l 0x763132(pc)
       0x00763ae6      48780002       pea.l 0x2
       0x00763aea      2f17           move.l (a7), -(a7)
       0x00763aec      4e91           jsr (a1)                    ; fcn.0000000a
       0x00763aee      dec1           adda.w d1, a7
       0x00763af0      302c0010       move.w 0x10(a4), d0
       0x00763af4      48c0           ext.l d0
       0x00763af6      2f00           move.l d0, -(a7)
       0x00763af8      48780000       pea.l 0x0
       0x00763afc      4eb9004070e4   jsr p_wti_o
       0x00763b02      504f           addq.w 0x8, a7
       0x00763b04      286c0004       movea.l 0x4(a4), a4
    < 0x00763b08      60cc           bra.b 0x763ad6
    > 0x00763b0a      4e92           jsr (a2)                    ; fcn.00000009+0x2
         0x00763b0c      b7ebfffc       cmpa.l -0x4(a3), a3
     < 0x00763b10      6702           beq.b 0x763b14
        0x00763b12      4e4d           trap 0xd
     > 0x00763b14      2653           movea.l (a3), a3
         0x00763b16      5287           addq.l 0x1, d7
      < 0x00763b18      6082           bra.b 0x763a9c
      > 0x00763b1a      4cdf1f87       movem.l (a7)+, d0-d2/d7/a0-a4
           0x00763b1e      4e5e           unlk a6
           0x00763b20      4e75           rts
 166: MENUTYPECOM.make_clean_copy ();
           0x00763b22      4e56ffda       link.w a6, 0xffda
           0x00763b26      bfd5           cmpa.l (a5), a7
       < 0x00763b28      6206           bhi.b 0x763b30
          0x00763b2a      44fc0002       move.w 0x2, ccr
          0x00763b2e      4e76           trapv
       > 0x00763b30      defc0026       adda.w 0x26, a7
           0x00763b34      48e7c0c0       movem.l d0-d1/a0-a1, -(a7)
           0x00763b38      41f90086e69c   lea.l 0x86e69c, a0
           0x00763b3e      43f90086e698   lea.l 0x86e698, a1
           0x00763b44      7003           moveq 0x3, d0
           0x00763b46      7201           moveq 0x1, d1
           0x00763b48      1f00           move.b d0, -(a7)
           0x00763b4a      2f10           move.l (a0), -(a7)
           0x00763b4c      2f11           move.l (a1), -(a7)
           0x00763b4e      4eb9005223fc   jsr BRUSHCOM.str_write_area
           0x00763b54      504f           addq.w 0x8, a7
           0x00763b56      1e80           move.b d0, (a7)
           0x00763b58      1f00           move.b d0, -(a7)
           0x00763b5a      1f3c0004       move.b 0x4, -(a7)
           0x00763b5e      2f390086e6b8   move.l 0x86e6b8, -(a7)
           0x00763b64      2f10           move.l (a0), -(a7)
           0x00763b66      2f11           move.l (a1), -(a7)
           0x00763b68      4eb900522722   jsr BRUSHCOM.str_any_str_cop
           0x00763b6e      defc0012       adda.w 0x12, a7
           0x00763b72      13c10086e72c   move.b d1, 0x86e72c
           0x00763b78      23f90086e724.  move.l 0x86e724, 0x86e72e.l
           0x00763b82      23f90086e728.  move.l 0x86e728, 0x86e732.l
           0x00763b8c      13c10086e748   move.b d1, 0x86e748
           0x00763b92      23f90086e740.  move.l 0x86e740, 0x86e74a.l
           0x00763b9c      23f90086e744.  move.l 0x86e744, 0x86e74e.l
           0x00763ba6      13c10086e764   move.b d1, 0x86e764
           0x00763bac      23f90086e75c.  move.l 0x86e75c, 0x86e766.l
           0x00763bb6      23f90086e760.  move.l 0x86e760, 0x86e76a.l
           0x00763bc0      4cdf0303       movem.l (a7)+, d0-d1/a0-a1
           0x00763bc4      4e5e           unlk a6
           0x00763bc6      4e75           rts
 214: MENUTYPECOM.wipe_cursor ();
           0x00763bc8      4e56ffb2       link.w a6, 0xffb2
           0x00763bcc      bfd5           cmpa.l (a5), a7
       < 0x00763bce      6206           bhi.b 0x763bd6
          0x00763bd0      44fc0002       move.w 0x2, ccr
          0x00763bd4      4e76           trapv
       > 0x00763bd6      defc0042       adda.w 0x42, a7
           0x00763bda      48e7fcf8       movem.l d0-d5/a0-a4, -(a7)
           0x00763bde      43f90086e6dc   lea.l 0x86e6dc, a1
           0x00763be4      45f90086e6f4   lea.l 0x86e6f4, a2
           0x00763bea      47f90086e6f8   lea.l 0x86e6f8, a3
           0x00763bf0      49eefffc       lea.l -0x4(a6), a4
           0x00763bf4      243cffff8000   move.l 0xffff8000, d2
           0x00763bfa      7603           moveq 0x3, d3
           0x00763bfc      7801           moveq 0x1, d4
           0x00763bfe      2a3c0000ffff   move.l 0xffff, d5
           0x00763c04      2051           movea.l (a1), a0
           0x00763c06      b0c4           cmpa.w d4, a0
       < 0x00763c08      6700008c       beq.w 0x763c96
          0x00763c0c      3012           move.w (a2), d0
          0x00763c0e      48c0           ext.l d0
          0x00763c10      32390086e698   move.w 0x86e698, d1
          0x00763c16      48c1           ext.l d1
          0x00763c18      d280           add.l d0, d1
          0x00763c1a      9282           sub.l d2, d1
          0x00763c1c      b285           cmp.l d5, d1
      < 0x00763c1e      6302           bls.b 0x763c22
         0x00763c20      4e4f           trap 0xf
      > 0x00763c22      d282           add.l d2, d1
          0x00763c24      3d41fff4       move.w d1, -0xc(a6)
          0x00763c28      3d790086e6f6.  move.w 0x86e6f6, -0xa(a6)
          0x00763c30      1f03           move.b d3, -(a7)
          0x00763c32      2f390086e68c   move.l 0x86e68c, -(a7)
          0x00763c38      2f390086e688   move.l 0x86e688, -(a7)
          0x00763c3e      4eb9005223fc   jsr BRUSHCOM.str_write_area
          0x00763c44      defc000a       adda.w 0xa, a7
          0x00763c48      2d52fff8       move.l (a2), -0x8(a6)
          0x00763c4c      2893           move.l (a3), (a4)
          0x00763c4e      3013           move.w (a3), d0
          0x00763c50      48c0           ext.l d0
          0x00763c52      5480           addq.l 0x2, d0
          0x00763c54      9082           sub.l d2, d0
          0x00763c56      b085           cmp.l d5, d0
      < 0x00763c58      6302           bls.b 0x763c5c
         0x00763c5a      4e4f           trap 0xf
      > 0x00763c5c      d082           add.l d2, d0
          0x00763c5e      3880           move.w d0, (a4)
          0x00763c60      30390086e6fa   move.w 0x86e6fa, d0
          0x00763c66      48c0           ext.l d0
          0x00763c68      5480           addq.l 0x2, d0
          0x00763c6a      9082           sub.l d2, d0
          0x00763c6c      b085           cmp.l d5, d0
      < 0x00763c6e      6302           bls.b 0x763c72
         0x00763c70      4e4f           trap 0xf
      > 0x00763c72      d082           add.l d2, d0
          0x00763c74      3d40fffe       move.w d0, -0x2(a6)
          0x00763c78      1f03           move.b d3, -(a7)
          0x00763c7a      1f03           move.b d3, -(a7)
          0x00763c7c      1f3c0004       move.b 0x4, -(a7)
          0x00763c80      2f2efff4       move.l -0xc(a6), -(a7)
          0x00763c84      2f14           move.l (a4), -(a7)
          0x00763c86      2f2efff8       move.l -0x8(a6), -(a7)
          0x00763c8a      4eb900522722   jsr BRUSHCOM.str_any_str_cop
          0x00763c90      defc0012       adda.w 0x12, a7
          0x00763c94      2284           move.l d4, (a1)
       > 0x00763c96      4cdf1f3f       movem.l (a7)+, d0-d5/a0-a4
           0x00763c9a      4e5e           unlk a6
           0x00763c9c      4e75           rts
 806: MENUTYPECOM.display_cursor ();
           0x00763c9e      4e56ffa4       link.w a6, 0xffa4
           0x00763ca2      bfd5           cmpa.l (a5), a7
       < 0x00763ca4      6206           bhi.b 0x763cac
          0x00763ca6      44fc0002       move.w 0x2, ccr
          0x00763caa      4e76           trapv
       > 0x00763cac      defc0054       adda.w 0x54, a7
           0x00763cb0      48e7fff8       movem.l d0-d7/a0-a4, -(a7)
           0x00763cb4      45f90086e6f8   lea.l 0x86e6f8, a2
           0x00763cba      47f90086e6f4   lea.l 0x86e6f4, a3
           0x00763cc0      49f90086e6f6   lea.l 0x86e6f6, a4
           0x00763cc6      2e3cffff8000   move.l 0xffff8000, d7
           0x00763ccc      206e0008       movea.l 0x8(a6), a0
           0x00763cd0      b1e8fffc       cmpa.l -0x4(a0), a0
       < 0x00763cd4      6702           beq.b 0x763cd8
          0x00763cd6      4e4d           trap 0xd
       > 0x00763cd8      226e000c       movea.l 0xc(a6), a1
           0x00763cdc      b3e9fffc       cmpa.l -0x4(a1), a1
       < 0x00763ce0      6702           beq.b 0x763ce4
          0x00763ce2      4e4d           trap 0xd
       > 0x00763ce4      30290014       move.w 0x14(a1), d0
           0x00763ce8      48c0           ext.l d0
           0x00763cea      81fc0008       divs.w 0x8, d0
           0x00763cee      32280062       move.w 0x62(a0), d1
           0x00763cf2      48c1           ext.l d1
           0x00763cf4      48c0           ext.l d0
           0x00763cf6      4480           neg.l d0
           0x00763cf8      d081           add.l d1, d0
           0x00763cfa      9087           sub.l d7, d0
           0x00763cfc      0c800000ffff   cmpi.l 0xffff, d0
       < 0x00763d02      6302           bls.b 0x763d06
          0x00763d04      4e4f           trap 0xf
       > 0x00763d06      d087           add.l d7, d0
           0x00763d08      3680           move.w d0, (a3)
           0x00763d0a      30280010       move.w 0x10(a0), d0
           0x00763d0e      0c400020       cmpi.w 0x20, d0
       < 0x00763d12      670c           beq.b 0x763d20
          0x00763d14      0c400404       cmpi.w 0x404, d0
      < 0x00763d18      6706           beq.b 0x763d20
         0x00763d1a      0c40000d       cmpi.w 0xd, d0
     < 0x00763d1e      665e           bne.b 0x763d7e
     > 0x00763d20      28280044       move.l 0x44(a0), d4
          0x00763d24      7608           moveq 0x8, d3
          0x00763d26      4eb900406b50   jsr fcn.00406b50
          0x00763d2c      2f04           move.l d4, -(a7)
          0x00763d2e      28280040       move.l 0x40(a0), d4
          0x00763d32      4eb900408686   jsr fcn.00408686
          0x00763d38      2604           move.l d4, d3
          0x00763d3a      28280038       move.l 0x38(a0), d4
          0x00763d3e      4eb900407ff8   jsr fcn.00407ff8
          0x00763d44      2f04           move.l d4, -(a7)
          0x00763d46      282f0004       move.l 0x4(a7), d4
          0x00763d4a      4eb900408686   jsr fcn.00408686
          0x00763d50      2617           move.l (a7), d3
          0x00763d52      4eb900407e92   jsr fcn.00407e92
          0x00763d58      504f           addq.w 0x8, a7
          0x00763d5a      26390086e7da   move.l 0x86e7da, d3
          0x00763d60      4eb900407e92   jsr fcn.00407e92
          0x00763d66      4eb900408224   jsr fcn.00408224
          0x00763d6c      9887           sub.l d7, d4
          0x00763d6e      0c840000ffff   cmpi.l 0xffff, d4
      < 0x00763d74      6302           bls.b 0x763d78
         0x00763d76      4e4f           trap 0xf
      > 0x00763d78      d887           add.l d7, d4
          0x00763d7a      3484           move.w d4, (a2)
      < 0x00763d7c      605c           bra.b 0x763dda
     > 0x00763d7e      22280044       move.l 0x44(a0), d1
          0x00763d82      92a80048       sub.l 0x48(a0), d1
          0x00763d86      2801           move.l d1, d4
          0x00763d88      7608           moveq 0x8, d3
          0x00763d8a      4eb900406b50   jsr fcn.00406b50
          0x00763d90      4eb900408686   jsr fcn.00408686
          0x00763d96      2f04           move.l d4, -(a7)
          0x00763d98      28280040       move.l 0x40(a0), d4
          0x00763d9c      4eb900408686   jsr fcn.00408686
          0x00763da2      2604           move.l d4, d3
          0x00763da4      28280038       move.l 0x38(a0), d4
          0x00763da8      4eb900407ff8   jsr fcn.00407ff8
          0x00763dae      2617           move.l (a7), d3
          0x00763db0      4eb900407e92   jsr fcn.00407e92
          0x00763db6      584f           addq.w 0x4, a7
          0x00763db8      26390086e7da   move.l 0x86e7da, d3
          0x00763dbe      4eb900407e92   jsr fcn.00407e92
          0x00763dc4      4eb900408224   jsr fcn.00408224
          0x00763dca      9887           sub.l d7, d4
          0x00763dcc      0c840000ffff   cmpi.l 0xffff, d4
      < 0x00763dd2      6302           bls.b 0x763dd6
         0x00763dd4      4e4f           trap 0xf
      > 0x00763dd6      d887           add.l d7, d4
          0x00763dd8      3484           move.w d4, (a2)
       > 0x00763dda      3212           move.w (a2), d1
           0x00763ddc      0c410004       cmpi.w 0x4, d1
       < 0x00763de0      6c04           bge.b 0x763de6
          0x00763de2      34bc0004       move.w 0x4, (a2)
       > 0x00763de6      0c40000d       cmpi.w 0xd, d0
       < 0x00763dea      661e           bne.b 0x763e0a
          0x00763dec      10390086e7de   move.b 0x86e7de, d0
          0x00763df2      0c000002       cmpi.b 0x2, d0
      < 0x00763df6      6712           beq.b 0x763e0a
         0x00763df8      30290012       move.w 0x12(a1), d0
         0x00763dfc      48c0           ext.l d0
         0x00763dfe      81fc0008       divs.w 0x8, d0
         0x00763e02      06400080       addi.w 0x80, d0
         0x00763e06      3880           move.w d0, (a4)
     < 0x00763e08      6012           bra.b 0x763e1c
     > 0x00763e0a      28280056       move.l 0x56(a0), d4
          0x00763e0e      263c00010000   move.l 0x10000, d3
          0x00763e14      4eb900406b50   jsr fcn.00406b50
          0x00763e1a      3884           move.w d4, (a4)
     > 0x00763e1c      28280040       move.l 0x40(a0), d4
           0x00763e20      4eb900408686   jsr fcn.00408686
           0x00763e26      2604           move.l d4, d3
           0x00763e28      2829001a       move.l 0x1a(a1), d4
           0x00763e2c      4eb900407ff8   jsr fcn.00407ff8
           0x00763e32      4eb900408224   jsr fcn.00408224
           0x00763e38      9887           sub.l d7, d4
           0x00763e3a      0c840000ffff   cmpi.l 0xffff, d4
       < 0x00763e40      6302           bls.b 0x763e44
          0x00763e42      4e4f           trap 0xf
       > 0x00763e44      d887           add.l d7, d4
           0x00763e46      33c40086e6fa   move.w d4, 0x86e6fa
           0x00763e4c      0c440002       cmpi.w 0x2, d4
       < 0x00763e50      6c08           bge.b 0x763e5a
          0x00763e52      33fc00020086.  move.w 0x2, 0x86e6fa.l
       > 0x00763e5a      30390086e688   move.w 0x86e688, d0
           0x00763e60      48c0           ext.l d0
           0x00763e62      32390086e68c   move.w 0x86e68c, d1
           0x00763e68      48c1           ext.l d1
           0x00763e6a      2400           move.l d0, d2
           0x00763e6c      d481           add.l d1, d2
           0x00763e6e      3613           move.w (a3), d3
           0x00763e70      48c3           ext.l d3
           0x00763e72      b682           cmp.l d2, d3
       < 0x00763e74      6f1a           ble.b 0x763e90
          0x00763e76      2802           move.l d2, d4
          0x00763e78      068400000064   addi.l 0x64, d4
          0x00763e7e      9887           sub.l d7, d4
          0x00763e80      0c840000ffff   cmpi.l 0xffff, d4
      < 0x00763e86      6302           bls.b 0x763e8a
         0x00763e88      4e4f           trap 0xf
     > 0x00763e8a      d887           add.l d7, d4
         0x00763e8c      3684           move.w d4, (a3)
     < 0x00763e8e      607a           bra.b 0x763f0a
     > 0x00763e90      3812           move.w (a2), d4
         0x00763e92      48c4           ext.l d4
         0x00763e94      d883           add.l d3, d4
         0x00763e96      b880           cmp.l d0, d4
     < 0x00763e98      6c16           bge.b 0x763eb0
        0x00763e9a      2802           move.l d2, d4
        0x00763e9c      068400000064   addi.l 0x64, d4
        0x00763ea2      9887           sub.l d7, d4
        0x00763ea4      0c840000ffff   cmpi.l 0xffff, d4
    < 0x00763eaa      6302           bls.b 0x763eae
       0x00763eac      4e4f           trap 0xf
    < 0x00763eae      60da           bra.b 0x763e8a
      > 0x00763eb0      38390086e68a   move.w 0x86e68a, d4
          0x00763eb6      48c4           ext.l d4
          0x00763eb8      3a390086e68e   move.w 0x86e68e, d5
          0x00763ebe      48c5           ext.l d5
          0x00763ec0      da84           add.l d4, d5
          0x00763ec2      3c14           move.w (a4), d6
          0x00763ec4      48c6           ext.l d6
          0x00763ec6      bc85           cmp.l d5, d6
      < 0x00763ec8      6f18           ble.b 0x763ee2
         0x00763eca      2a04           move.l d4, d5
         0x00763ecc      da81           add.l d1, d5
         0x00763ece      068500000064   addi.l 0x64, d5
         0x00763ed4      9a87           sub.l d7, d5
         0x00763ed6      0c850000ffff   cmpi.l 0xffff, d5
     < 0x00763edc      6302           bls.b 0x763ee0
        0x00763ede      4e4f           trap 0xf
    > 0x00763ee0      6024           bra.b 0x763f06
     > 0x00763ee2      3a390086e6fa   move.w 0x86e6fa, d5
         0x00763ee8      48c5           ext.l d5
         0x00763eea      da86           add.l d6, d5
         0x00763eec      ba84           cmp.l d4, d5
     < 0x00763eee      6c1a           bge.b 0x763f0a
        0x00763ef0      2a04           move.l d4, d5
        0x00763ef2      da81           add.l d1, d5
        0x00763ef4      068500000064   addi.l 0x64, d5
        0x00763efa      9a87           sub.l d7, d5
        0x00763efc      0c850000ffff   cmpi.l 0xffff, d5
    < 0x00763f02      6302           bls.b 0x763f06
       0x00763f04      4e4f           trap 0xf
    > 0x00763f06      da87           add.l d7, d5
         0x00763f08      3885           move.w d5, (a4)
      > 0x00763f0a      1f3c0003       move.b 0x3, -(a7)
           0x00763f0e      2f390086e68c   move.l 0x86e68c, -(a7)
           0x00763f14      2f390086e688   move.l 0x86e688, -(a7)
           0x00763f1a      4eb9005223fc   jsr BRUSHCOM.str_write_area
           0x00763f20      defc000a       adda.w 0xa, a7
           0x00763f24      2d53fff8       move.l (a3), -0x8(a6)
           0x00763f28      2d52fffc       move.l (a2), -0x4(a6)
           0x00763f2c      3013           move.w (a3), d0
           0x00763f2e      48c0           ext.l d0
           0x00763f30      5480           addq.l 0x2, d0
           0x00763f32      9087           sub.l d7, d0
           0x00763f34      0c800000ffff   cmpi.l 0xffff, d0
       < 0x00763f3a      6302           bls.b 0x763f3e
          0x00763f3c      4e4f           trap 0xf
       > 0x00763f3e      d087           add.l d7, d0
           0x00763f40      3d40fff8       move.w d0, -0x8(a6)
           0x00763f44      3014           move.w (a4), d0
           0x00763f46      48c0           ext.l d0
           0x00763f48      5480           addq.l 0x2, d0
           0x00763f4a      9087           sub.l d7, d0
           0x00763f4c      0c800000ffff   cmpi.l 0xffff, d0
       < 0x00763f52      6302           bls.b 0x763f56
          0x00763f54      4e4f           trap 0xf
       > 0x00763f56      d087           add.l d7, d0
           0x00763f58      3d40fffa       move.w d0, -0x6(a6)
           0x00763f5c      3f3af010       move.w 0x762f6e(pc), -(a7)
           0x00763f60      2f3af026       move.l 0x762f88(pc), -(a7)
           0x00763f64      3f3af020       move.w 0x762f86(pc), -(a7)
           0x00763f68      4eb900520fe8   jsr BRUSHCOM.set_br_key_colo
           0x00763f6e      5c4f           addq.w 0x6, a7
           0x00763f70      1ebc0003       move.b 0x3, (a7)
           0x00763f74      1f3c0004       move.b 0x4, -(a7)
           0x00763f78      2f2efffc       move.l -0x4(a6), -(a7)
           0x00763f7c      2f2efff8       move.l -0x8(a6), -(a7)
           0x00763f80      4eb9005213b4   jsr BRUSHCOM.br_wipe
           0x00763f86      defc000a       adda.w 0xa, a7
           0x00763f8a      3ebaefe2       move.w 0x762f6e(pc), (a7)
           0x00763f8e      2f3af00a       move.l 0x762f9a(pc), -(a7)
           0x00763f92      3f3af004       move.w 0x762f98(pc), -(a7)
           0x00763f96      4eb900520fe8   jsr BRUSHCOM.set_br_key_colo
           0x00763f9c      5c4f           addq.w 0x6, a7
           0x00763f9e      1ebc0003       move.b 0x3, (a7)
           0x00763fa2      1f3c0004       move.b 0x4, -(a7)
           0x00763fa6      2f12           move.l (a2), -(a7)
           0x00763fa8      2f13           move.l (a3), -(a7)
           0x00763faa      4eb9005213b4   jsr BRUSHCOM.br_wipe
           0x00763fb0      defc000c       adda.w 0xc, a7
           0x00763fb4      23ee00080086.  move.l 0x8(a6), 0x86e6dc.l
           0x00763fbc      4cdf1fff       movem.l (a7)+, d0-d7/a0-a4
           0x00763fc0      4e5e           unlk a6
           0x00763fc2      4e75           rts
 304: MENUTYPECOM.update_type_are ();
           0x00763fc4      4e56ffc2       link.w a6, 0xffc2
           0x00763fc8      bfd5           cmpa.l (a5), a7
       < 0x00763fca      6206           bhi.b 0x763fd2
          0x00763fcc      44fc0002       move.w 0x2, ccr
          0x00763fd0      4e76           trapv
       > 0x00763fd2      defc003e       adda.w 0x3e, a7
           0x00763fd6      48e7f8f0       movem.l d0-d4/a0-a3, -(a7)
           0x00763fda      263cffff8000   move.l 0xffff8000, d3
           0x00763fe0      283c0000ffff   move.l 0xffff, d4
           0x00763fe6      206e0008       movea.l 0x8(a6), a0
           0x00763fea      b1e8fffc       cmpa.l -0x4(a0), a0
       < 0x00763fee      6702           beq.b 0x763ff2
          0x00763ff0      4e4d           trap 0xd
       > 0x00763ff2      4a280022       tst.b 0x22(a0)
       < 0x00763ff6      670000f4       beq.w 0x7640ec
          0x00763ffa      10390086e6fc   move.b 0x86e6fc, d0
          0x00764000      4880           ext.w d0
          0x00764002      41bc0004       chk.w 0x4, d0
          0x00764006      c1fc001c       muls.w 0x1c, d0
          0x0076400a      43f90086e67a   lea.l 0x86e67a, a1
          0x00764010      43f10000       lea.l (a1, d0.w), a1
          0x00764014      4a290096       tst.b 0x96(a1)
      < 0x00764018      670000bc       beq.w 0x7640d6
         0x0076401c      30280024       move.w 0x24(a0), d0
         0x00764020      b0690098       cmp.w 0x98(a1), d0
     < 0x00764024      6c24           bge.b 0x76404a
        0x00764026      32290098       move.w 0x98(a1), d1
        0x0076402a      48c1           ext.l d1
        0x0076402c      48c0           ext.l d0
        0x0076402e      9280           sub.l d0, d1
        0x00764030      3429009c       move.w 0x9c(a1), d2
        0x00764034      48c2           ext.l d2
        0x00764036      d282           add.l d2, d1
        0x00764038      9283           sub.l d3, d1
        0x0076403a      b284           cmp.l d4, d1
    < 0x0076403c      6302           bls.b 0x764040
       0x0076403e      4e4f           trap 0xf
    > 0x00764040      d283           add.l d3, d1
        0x00764042      3341009c       move.w d1, 0x9c(a1)
        0x00764046      33400098       move.w d0, 0x98(a1)
     > 0x0076404a      48c0           ext.l d0
         0x0076404c      32280028       move.w 0x28(a0), d1
         0x00764050      48c1           ext.l d1
         0x00764052      d280           add.l d0, d1
         0x00764054      30290098       move.w 0x98(a1), d0
         0x00764058      48c0           ext.l d0
         0x0076405a      3429009c       move.w 0x9c(a1), d2
         0x0076405e      48c2           ext.l d2
         0x00764060      d480           add.l d0, d2
         0x00764062      b282           cmp.l d2, d1
     < 0x00764064      6f12           ble.b 0x764078
        0x00764066      2401           move.l d1, d2
        0x00764068      9480           sub.l d0, d2
        0x0076406a      9483           sub.l d3, d2
        0x0076406c      b484           cmp.l d4, d2
    < 0x0076406e      6302           bls.b 0x764072
       0x00764070      4e4f           trap 0xf
    > 0x00764072      d483           add.l d3, d2
        0x00764074      3342009c       move.w d2, 0x9c(a1)
     > 0x00764078      30280026       move.w 0x26(a0), d0
         0x0076407c      b069009a       cmp.w 0x9a(a1), d0
     < 0x00764080      6c24           bge.b 0x7640a6
        0x00764082      3229009a       move.w 0x9a(a1), d1
        0x00764086      48c1           ext.l d1
        0x00764088      48c0           ext.l d0
        0x0076408a      9280           sub.l d0, d1
        0x0076408c      3429009e       move.w 0x9e(a1), d2
        0x00764090      48c2           ext.l d2
        0x00764092      d282           add.l d2, d1
        0x00764094      9283           sub.l d3, d1
        0x00764096      b284           cmp.l d4, d1
    < 0x00764098      6302           bls.b 0x76409c
       0x0076409a      4e4f           trap 0xf
    > 0x0076409c      d283           add.l d3, d1
        0x0076409e      3341009e       move.w d1, 0x9e(a1)
        0x007640a2      3340009a       move.w d0, 0x9a(a1)
     > 0x007640a6      48c0           ext.l d0
         0x007640a8      3228002a       move.w 0x2a(a0), d1
         0x007640ac      48c1           ext.l d1
         0x007640ae      d280           add.l d0, d1
         0x007640b0      3029009a       move.w 0x9a(a1), d0
         0x007640b4      48c0           ext.l d0
         0x007640b6      3429009e       move.w 0x9e(a1), d2
         0x007640ba      48c2           ext.l d2
         0x007640bc      d480           add.l d0, d2
         0x007640be      b282           cmp.l d2, d1
     < 0x007640c0      6f2a           ble.b 0x7640ec
        0x007640c2      2401           move.l d1, d2
        0x007640c4      9480           sub.l d0, d2
        0x007640c6      9483           sub.l d3, d2
        0x007640c8      b484           cmp.l d4, d2
    < 0x007640ca      6302           bls.b 0x7640ce
       0x007640cc      4e4f           trap 0xf
    > 0x007640ce      d483           add.l d3, d2
        0x007640d0      3342009e       move.w d2, 0x9e(a1)
    < 0x007640d4      6016           bra.b 0x7640ec
    > 0x007640d6      137c00010096   move.b 0x1, 0x96(a1)
        0x007640dc      45e90098       lea.l 0x98(a1), a2
        0x007640e0      47e80024       lea.l 0x24(a0), a3
        0x007640e4      7007           moveq 0x7, d0
    > 0x007640e6      14db           move.b (a3)+, (a2)+
    < 0x007640e8      51c8fffc       dbra d0, 0x7640e6
    > 0x007640ec      4cdf0f1f       movem.l (a7)+, d0-d4/a0-a3
           0x007640f0      4e5e           unlk a6
           0x007640f2      4e75           rts
            ; CALL XREFS from MENUTYPECOM.clip_type_area @ 0x7641e4, 0x764202
 160: MENUTYPECOM.clip ();
           0x007640f4      4e56ffcc       link.w a6, 0xffcc
           0x007640f8      bfd5           cmpa.l (a5), a7
       < 0x007640fa      6206           bhi.b 0x764102
          0x007640fc      44fc0002       move.w 0x2, ccr
          0x00764100      4e76           trapv
       > 0x00764102      defc0034       adda.w 0x34, a7
           0x00764106      48e7f8e0       movem.l d0-d4/a0-a2, -(a7)
           0x0076410a      45ee000c       lea.l 0xc(a6), a2
           0x0076410e      263cffff8000   move.l 0xffff8000, d3
           0x00764114      283c0000ffff   move.l 0xffff, d4
           0x0076411a      206e0014       movea.l 0x14(a6), a0
           0x0076411e      226e0010       movea.l 0x10(a6), a1
           0x00764122      3010           move.w (a0), d0
           0x00764124      48c0           ext.l d0
           0x00764126      3211           move.w (a1), d1
           0x00764128      48c1           ext.l d1
           0x0076412a      2400           move.l d0, d2
           0x0076412c      d481           add.l d1, d2
           0x0076412e      b492           cmp.l (a2), d2
       < 0x00764130      6c06           bge.b 0x764138
          0x00764132      4250           clr.w (a0)
          0x00764134      4251           clr.w (a1)
      < 0x00764136      6026           bra.b 0x76415e
      > 0x00764138      b092           cmp.l (a2), d0
      < 0x0076413a      6c22           bge.b 0x76415e
         0x0076413c      2412           move.l (a2), d2
         0x0076413e      9480           sub.l d0, d2
         0x00764140      4482           neg.l d2
         0x00764142      d481           add.l d1, d2
         0x00764144      9483           sub.l d3, d2
         0x00764146      b484           cmp.l d4, d2
     < 0x00764148      6302           bls.b 0x76414c
        0x0076414a      4e4f           trap 0xf
     > 0x0076414c      d483           add.l d3, d2
         0x0076414e      3282           move.w d2, (a1)
         0x00764150      2412           move.l (a2), d2
         0x00764152      9483           sub.l d3, d2
         0x00764154      b484           cmp.l d4, d2
     < 0x00764156      6302           bls.b 0x76415a
        0x00764158      4e4f           trap 0xf
     > 0x0076415a      d483           add.l d3, d2
         0x0076415c      3082           move.w d2, (a0)
      > 0x0076415e      2012           move.l (a2), d0
           0x00764160      d0ae0008       add.l 0x8(a6), d0
           0x00764164      3210           move.w (a0), d1
           0x00764166      48c1           ext.l d1
           0x00764168      b280           cmp.l d0, d1
       < 0x0076416a      6f06           ble.b 0x764172
          0x0076416c      4250           clr.w (a0)
          0x0076416e      4251           clr.w (a1)
      < 0x00764170      601a           bra.b 0x76418c
      > 0x00764172      3411           move.w (a1), d2
          0x00764174      48c2           ext.l d2
          0x00764176      d481           add.l d1, d2
          0x00764178      b480           cmp.l d0, d2
      < 0x0076417a      6f10           ble.b 0x76418c
         0x0076417c      2400           move.l d0, d2
         0x0076417e      9481           sub.l d1, d2
         0x00764180      9483           sub.l d3, d2
         0x00764182      b484           cmp.l d4, d2
     < 0x00764184      6302           bls.b 0x764188
        0x00764186      4e4f           trap 0xf
     > 0x00764188      d483           add.l d3, d2
         0x0076418a      3282           move.w d2, (a1)
      > 0x0076418c      4cdf071f       movem.l (a7)+, d0-d4/a0-a2
           0x00764190      4e5e           unlk a6
           0x00764192      4e75           rts
 144: MENUTYPECOM.clip_type_area ();
           0x00764194      4e56ffdc       link.w a6, 0xffdc
           0x00764198      bfd5           cmpa.l (a5), a7
       < 0x0076419a      6206           bhi.b 0x7641a2
          0x0076419c      44fc0002       move.w 0x2, ccr
          0x007641a0      4e76           trapv
       > 0x007641a2      defc0024       adda.w 0x24, a7
           0x007641a6      48e7c080       movem.l d0-d1/a0, -(a7)
           0x007641aa      7210           moveq 0x10, d1
           0x007641ac      10390086e6fc   move.b 0x86e6fc, d0
           0x007641b2      4880           ext.w d0
           0x007641b4      41bc0004       chk.w 0x4, d0
           0x007641b8      c1fc001c       muls.w 0x1c, d0
           0x007641bc      41f90086e67a   lea.l 0x86e67a, a0
           0x007641c2      41f00000       lea.l (a0, d0.w), a0
           0x007641c6      4a280096       tst.b 0x96(a0)
       < 0x007641ca      6750           beq.b 0x76421c
          0x007641cc      48680098       pea.l 0x98(a0)
          0x007641d0      4868009c       pea.l 0x9c(a0)
          0x007641d4      3028008e       move.w 0x8e(a0), d0
          0x007641d8      48c0           ext.l d0
          0x007641da      2f00           move.l d0, -(a7)
          0x007641dc      30280092       move.w 0x92(a0), d0
          0x007641e0      48c0           ext.l d0
          0x007641e2      2f00           move.l d0, -(a7)
          0x007641e4      4ebaff0e       jsr MENUTYPECOM.clip(pc)
          0x007641e8      dec1           adda.w d1, a7
          0x007641ea      4868009a       pea.l 0x9a(a0)
          0x007641ee      4868009e       pea.l 0x9e(a0)
          0x007641f2      30280090       move.w 0x90(a0), d0
          0x007641f6      48c0           ext.l d0
          0x007641f8      2f00           move.l d0, -(a7)
          0x007641fa      30280094       move.w 0x94(a0), d0
          0x007641fe      48c0           ext.l d0
          0x00764200      2f00           move.l d0, -(a7)
          0x00764202      4ebafef0       jsr MENUTYPECOM.clip(pc)
          0x00764206      dec1           adda.w d1, a7
          0x00764208      7000           moveq 0x0, d0
          0x0076420a      4a68009c       tst.w 0x9c(a0)
      < 0x0076420e      6708           beq.b 0x764218
         0x00764210      4a68009e       tst.w 0x9e(a0)
     < 0x00764214      6702           beq.b 0x764218
        0x00764216      5200           addq.b 0x1, d0
     > 0x00764218      11400096       move.b d0, 0x96(a0)
       > 0x0076421c      4cdf0103       movem.l (a7)+, d0-d1/a0
           0x00764220      4e5e           unlk a6
           0x00764222      4e75           rts
 424: MENUTYPECOM.make_styled_cut (int32_t arg_2f2h, int32_t arg_2f4h);
           ; arg int32_t arg_2f2h @ a6+0x2f2
           ; arg int32_t arg_2f4h @ a6+0x2f4
           0x00764224      4e56ff9e       link.w a6, 0xff9e
           0x00764228      bfd5           cmpa.l (a5), a7
       < 0x0076422a      6206           bhi.b 0x764232
          0x0076422c      44fc0002       move.w 0x2, ccr
          0x00764230      4e76           trapv
       > 0x00764232      defc0048       adda.w 0x48, a7
           0x00764236      48e7f1f8       movem.l d0-d3/d7/a0-a4, -(a7)
           0x0076423a      49f90086e78a   lea.l 0x86e78a, a4
           0x00764240      223cffff8000   move.l 0xffff8000, d1
           0x00764246      7403           moveq 0x3, d2
           0x00764248      7601           moveq 0x1, d3
           0x0076424a      594f           subq.w 0x4, a7
           0x0076424c      4eb900670ac2   jsr PASTECOM.get_ct_info
           0x00764252      2d57ffe6       move.l (a7), -0x1a(a6)
           0x00764256      554f           subq.w 0x2, a7
           0x00764258      4eb900636d9e   jsr PALETCOM.br_colour
           0x0076425e      4eb900520fa4   jsr BRUSHCOM.set_br_colour
           0x00764264      5c4f           addq.w 0x6, a7
           0x00764266      206e000a       movea.l 0xa(a6), a0
           0x0076426a      1f02           move.b d2, -(a7)
           0x0076426c      4227           clr.b -(a7)
           0x0076426e      514f           subq.w 0x8, a7
           0x00764270      224f           movea.l a7, a1
           0x00764272      2448           movea.l a0, a2
           0x00764274      7007           moveq 0x7, d0
       > 0x00764276      12da           move.b (a2)+, (a1)+
       < 0x00764278      51c8fffc       dbra d0, 0x764276
           0x0076427c      4eb9005213b4   jsr BRUSHCOM.br_wipe
           0x00764282      defc000c       adda.w 0xc, a7
           0x00764286      2254           movea.l (a4), a1
           0x00764288      b3e9fffc       cmpa.l -0x4(a1), a1
       < 0x0076428c      6702           beq.b 0x764290
          0x0076428e      4e4d           trap 0xd
       > 0x00764290      246effe6       movea.l -0x1a(a6), a2
           0x00764294      b5eafffc       cmpa.l -0x4(a2), a2
       < 0x00764298      6702           beq.b 0x76429c
          0x0076429a      4e4d           trap 0xd
       > 0x0076429c      2649           movea.l a1, a3
           0x0076429e      303c071f       move.w 0x71f, d0
       > 0x007642a2      16da           move.b (a2)+, (a3)+
       < 0x007642a4      51c8fffc       dbra d0, 0x7642a2
           0x007642a8      134302d9       move.b d3, 0x2d9(a1)
           0x007642ac      337c400002e8   move.w 0x4000, 0x2e8(a1)
           0x007642b2      5d4f           subq.w 0x6, a7
           0x007642b4      4eb900636d9e   jsr PALETCOM.br_colour
           0x007642ba      45e902dc       lea.l 0x2dc(a1), a2
           0x007642be      264f           movea.l a7, a3
           0x007642c0      7005           moveq 0x5, d0
       > 0x007642c2      14db           move.b (a3)+, (a2)+
       < 0x007642c4      51c8fffc       dbra d0, 0x7642c2
           0x007642c8      5c4f           addq.w 0x6, a7
           0x007642ca      45e902f2       lea.l 0x2f2(a1), a2
           0x007642ce      2648           movea.l a0, a3
           0x007642d0      7007           moveq 0x7, d0
       > 0x007642d2      14db           move.b (a3)+, (a2)+
       < 0x007642d4      51c8fffc       dbra d0, 0x7642d2
           0x007642d8      3e10           move.w (a0), d7
           0x007642da      02470007       andi.w 0x7, d7
           0x007642de      3010           move.w (a0), d0
           0x007642e0      48c0           ext.l d0
           0x007642e2      48c7           ext.l d7
           0x007642e4      9087           sub.l d7, d0
           0x007642e6      9081           sub.l d1, d0
           0x007642e8      0c800000ffff   cmpi.l 0xffff, d0
       < 0x007642ee      6302           bls.b 0x7642f2
          0x007642f0      4e4f           trap 0xf
       > 0x007642f2      d081           add.l d1, d0
           0x007642f4      334002f2       move.w d0, 0x2f2(a1)
           0x007642f8      30280004       move.w 0x4(a0), d0
           0x007642fc      48c0           ext.l d0
           0x007642fe      d087           add.l d7, d0
           0x00764300      5e80           addq.l 0x7, d0
           0x00764302      02800000fff8   andi.l 0xfff8, d0
           0x00764308      9081           sub.l d1, d0
           0x0076430a      0c800000ffff   cmpi.l 0xffff, d0
       < 0x00764310      6302           bls.b 0x764314
          0x00764312      4e4f           trap 0xf
       > 0x00764314      d081           add.l d1, d0
           0x00764316      334002f6       move.w d0, 0x2f6(a1)
           0x0076431a      48780001       pea.l 0x1
           0x0076431e      235f0316       move.l (a7)+, 0x316(a1)
           0x00764322      45e9031a       lea.l 0x31a(a1), a2
           0x00764326      47e902f2       lea.l 0x2f2(a1), a3
           0x0076432a      7007           moveq 0x7, d0
       > 0x0076432c      14db           move.b (a3)+, (a2)+
       < 0x0076432e      51c8fffc       dbra d0, 0x76432c
           0x00764332      554f           subq.w 0x2, a7
           0x00764334      1f03           move.b d3, -(a7)
           0x00764336      48690316       pea.l 0x316(a1)
           0x0076433a      4869031a       pea.l 0x31a(a1)
           0x0076433e      4eb900632858   jsr CACHECOM.new_cache_rec
           0x00764344      defc000a       adda.w 0xa, a7
           0x00764348      4a1f           tst.b (a7)+
           0x0076434a      3d6902f2ffec   move.w 0x2f2(a1), -0x14(a6)
           0x00764350      3d6902f4ffee   move.w 0x2f4(a1), -0x12(a6)
           0x00764356      1f02           move.b d2, -(a7)
           0x00764358      4227           clr.b -(a7)
           0x0076435a      1f3c0004       move.b 0x4, -(a7)
           0x0076435e      2f2effec       move.l -0x14(a6), -(a7)
           0x00764362      514f           subq.w 0x8, a7
           0x00764364      244f           movea.l a7, a2
           0x00764366      47e9031a       lea.l 0x31a(a1), a3
           0x0076436a      7007           moveq 0x7, d0
       > 0x0076436c      14db           move.b (a3)+, (a2)+
       < 0x0076436e      51c8fffc       dbra d0, 0x76436c
           0x00764372      4eb900522722   jsr BRUSHCOM.str_any_str_cop
           0x00764378      defc0012       adda.w 0x12, a7
           0x0076437c      2d790086e688.  move.l 0x86e688, -0x10(a6)
           0x00764384      2d790086e68c.  move.l 0x86e68c, -0xc(a6)
           0x0076438c      2f14           move.l (a4), -(a7)
           0x0076438e      4227           clr.b -(a7)
           0x00764390      2f2effec       move.l -0x14(a6), -(a7)
           0x00764394      2f2efff4       move.l -0xc(a6), -(a7)
           0x00764398      2f2efff0       move.l -0x10(a6), -(a7)
           0x0076439c      1f2e0008       move.b 0x8(a6), -(a7)
           0x007643a0      4eb900674d42   jsr PASTECOM.stick_cutout
           0x007643a6      defc0014       adda.w 0x14, a7
           0x007643aa      2448           movea.l a0, a2
           0x007643ac      47e902fa       lea.l 0x2fa(a1), a3
           0x007643b0      7007           moveq 0x7, d0
       > 0x007643b2      14db           move.b (a3)+, (a2)+
       < 0x007643b4      51c8fffc       dbra d0, 0x7643b2
           0x007643b8      48690316       pea.l 0x316(a1)
           0x007643bc      4eb900632826   jsr CACHECOM.remove_cache_re
           0x007643c2      584f           addq.w 0x4, a7
           0x007643c4      4cdf1f8f       movem.l (a7)+, d0-d3/d7/a0-a4
           0x007643c8      4e5e           unlk a6
           0x007643ca      4e75           rts
            ; XREFS: CALL 0x00764eea  CALL 0x0076632e  CALL 0x00766358  
            ; XREFS: CALL 0x00767d76  CALL 0x00768006  CALL 0x00768038  
            ; XREFS: CALL 0x007681e8  CALL 0x00768546  CALL 0x0076a758  
            ; XREFS: CALL 0x0076aaec  CALL 0x0076acb8  CALL 0x0076ad6a  
            ; XREFS: CALL 0x0076aecc  CALL 0x0076b1c8  
 88: MENUTYPECOM.update_type ();
           0x007643cc      4e56ff56       link.w a6, 0xff56
           0x007643d0      bfd5           cmpa.l (a5), a7
       < 0x007643d2      6206           bhi.b 0x7643da
          0x007643d4      44fc0002       move.w 0x2, ccr
          0x007643d8      4e76           trapv
       > 0x007643da      defc007a       adda.w 0x7a, a7
           0x007643de      48e7fff8       movem.l d0-d7/a0-a4, -(a7)
           0x007643e2      47f90086e6e4   lea.l 0x86e6e4, a3
           0x007643e8      7a01           moveq 0x1, d5
           0x007643ea      10390086e6fc   move.b 0x86e6fc, d0
           0x007643f0      4880           ext.w d0
           0x007643f2      41bc000f       chk.w 0xf, d0
           0x007643f6      1d40ffd0       move.b d0, -0x30(a6)
           0x007643fa      122e0008       move.b 0x8(a6), d1
           0x007643fe      4881           ext.w d1
           0x00764400      41faed32       lea.l 0x763134(pc), a0
           0x00764404      14301000       move.b (a0, d1.w), d2
           0x00764408      13c20086e6fc   move.b d2, 0x86e6fc
           0x0076440e      3601           move.w d1, d3
           0x00764410      5343           subq.w 0x1, d3
           0x00764412      0c43000e       cmpi.w 0xe, d3
       < 0x00764416      6302           bls.b 0x76441a
          0x00764418      4e4e           trap 0xe
       > 0x0076441a      d643           add.w d3, d3
           0x0076441c      363b3006       move.w 0x764424(pc, d3.w), d3
           0x00764420      4efb3002       jmp 0x764424(pc, d3.w)
            0x00764424      001e001e       ori.b 0x1e, (a6)+
            0x00764428      001e001e       ori.b 0x1e, (a6)+
            0x0076442c      037a037a       
            0x0076442d      7a03           moveq 0x3, d5
            0x0076442f      7a03           moveq 0x3, d5
            0x00764431      7a00           moveq 0x0, d5
            0x00764433      1e00           move.b d0, d7
            0x00764435      1e03           move.b d3, d7
            0x00764437      7a02           moveq 0x2, d5
            0x00764439      2206           move.l d6, d1
            0x0076443b      14092c09       
            0x0076443c      092c0930       btst.l d4, 0x930(a4)
            0x00764440      037a4882       
            0x00764441      7a48           moveq 0x48, d5
            0x00764443      8245           or.w d5, d1
            0x00764445      bc00           cmp.b d0, d6
            0x00764447      04761cc7c241   subi.w 0x1cc7, 0x41(a6, a4.w)
            0x0076444d      f900           invalid
            0x0076444f      86e6           divu.w -(a6), d3
            0x00764451      7a41           moveq 0x41, d5
            0x00764453      f030001f       fgetman fp0
            0x00764457      3c00           move.w d0, d6
            0x00764459      0351           bchg.b d1, (a1)
            0x0076445b      4f22           chk.l -(a2), d7
            0x0076445d      4f45e800       
            0x0076445e      45e8008e       lea.l 0x8e(a0), a2
            0x00764462      7607           moveq 0x7, d3
        > 0x00764464      12da           move.b (a2)+, (a1)+
        < 0x00764466      51cbfffc       dbra d3, 0x764464
            0x0076446a      4eb9005223fc   jsr BRUSHCOM.str_write_area
            0x00764470      defc000a       adda.w 0xa, a7
            0x00764474      4a280096       tst.b 0x96(a0)
        < 0x00764478      6734           beq.b 0x7644ae
           0x0076447a      2f3aeaee       move.l 0x762f6a(pc), -(a7)
           0x0076447e      3f3aeae8       move.w 0x762f68(pc), -(a7)
           0x00764482      4eb900520fa4   jsr BRUSHCOM.set_br_colour
           0x00764488      584f           addq.w 0x4, a7
           0x0076448a      1ebc0003       move.b 0x3, (a7)
           0x0076448e      1f05           move.b d5, -(a7)
           0x00764490      514f           subq.w 0x8, a7
           0x00764492      224f           movea.l a7, a1
           0x00764494      45e80098       lea.l 0x98(a0), a2
           0x00764498      7607           moveq 0x7, d3
       > 0x0076449a      12da           move.b (a2)+, (a1)+
       < 0x0076449c      51cbfffc       dbra d3, 0x76449a
           0x007644a0      4eb9005213b4   jsr BRUSHCOM.br_wipe
           0x007644a6      defc000c       adda.w 0xc, a7
           0x007644aa      42280096       clr.b 0x96(a0)
        > 0x007644ae      2853           movea.l (a3), a4
        > 0x007644b0      b8c5           cmpa.w d5, a4
       < 0x007644b2      6700009c       beq.w 0x764550
          0x007644b6      b9ecfffc       cmpa.l -0x4(a4), a4
      < 0x007644ba      6702           beq.b 0x7644be
         0x007644bc      4e4d           trap 0xd
      > 0x007644be      422c0022       clr.b 0x22(a4)
          0x007644c2      4a2c0023       tst.b 0x23(a4)
      < 0x007644c6      67000082       beq.w 0x76454a
         0x007644ca      2f0c           move.l a4, -(a7)
         0x007644cc      2f13           move.l (a3), -(a7)
         0x007644ce      594f           subq.w 0x4, a7
         0x007644d0      1ea8008a       move.b 0x8a(a0), (a7)
         0x007644d4      1f68008b0001   move.b 0x8b(a0), 0x1(a7)
         0x007644da      1f68008c0002   move.b 0x8c(a0), 0x2(a7)
         0x007644e0      1f68008d0003   move.b 0x8d(a0), 0x3(a7)
         0x007644e6      514f           subq.w 0x8, a7
         0x007644e8      224f           movea.l a7, a1
         0x007644ea      45e8008e       lea.l 0x8e(a0), a2
         0x007644ee      7607           moveq 0x7, d3
     > 0x007644f0      12da           move.b (a2)+, (a1)+
     < 0x007644f2      51cbfffc       dbra d3, 0x7644f0
         0x007644f6      2f390086e6ac   move.l 0x86e6ac, -(a7)
         0x007644fc      2f390086e6a8   move.l 0x86e6a8, -(a7)
         0x00764502      4227           clr.b -(a7)
         0x00764504      162e0008       move.b 0x8(a6), d3
         0x00764508      4883           ext.w d3
         0x0076450a      43faed82       lea.l 0x76328e(pc), a1
         0x0076450e      3803           move.w d3, d4
         0x00764510      e64c           lsr.w 0x3, d4
         0x00764512      07314000       btst.l d3, (a1, d4.w)
     < 0x00764516      6602           bne.b 0x76451a
        0x00764518      5217           addq.b 0x1, (a7)
     > 0x0076451a      1f05           move.b d5, -(a7)
         0x0076451c      2f390086e7da   move.l 0x86e7da, -(a7)
         0x00764522      3f390086e7ce   move.w 0x86e7ce, -(a7)
         0x00764528      3f390086e7de   move.w 0x86e7de, -(a7)
         0x0076452e      2f390086e6d0   move.l 0x86e6d0, -(a7)
         0x00764534      4eb90076fbd8   jsr TYPECOM.display_type_li
         0x0076453a      defc0028       adda.w 0x28, a7
         0x0076453e      2e8c           move.l a4, (a7)
         0x00764540      4ebafa82       jsr MENUTYPECOM.update_type_are(pc)
         0x00764544      584f           addq.w 0x4, a7
         0x00764546      422c0023       clr.b 0x23(a4)
      > 0x0076454a      2854           movea.l (a4), a4
       < 0x0076454c      6000ff62       bra.w 0x7644b0
       > 0x00764550      22790086e6d8   movea.l 0x86e6d8, a1
            0x00764556      b3e9fffc       cmpa.l -0x4(a1), a1
        < 0x0076455a      6702           beq.b 0x76455e
           0x0076455c      4e4d           trap 0xd
        > 0x0076455e      2451           movea.l (a1), a2
            0x00764560      b4c5           cmpa.w d5, a2
        < 0x00764562      663e           bne.b 0x7645a2
           0x00764564      22690004       movea.l 0x4(a1), a1
           0x00764568      b2c5           cmpa.w d5, a1
       < 0x0076456a      6636           bne.b 0x7645a2
          0x0076456c      2f3aea2c       move.l 0x762f9a(pc), -(a7)
          0x00764570      3f3aea26       move.w 0x762f98(pc), -(a7)
          0x00764574      4eb900520fa4   jsr BRUSHCOM.set_br_colour
          0x0076457a      5c4f           addq.w 0x6, a7
          0x0076457c      4ebaf64a       jsr MENUTYPECOM.wipe_cursor(pc)
          0x00764580      5d4f           subq.w 0x6, a7
          0x00764582      4eb900636d9e   jsr PALETCOM.br_colour
          0x00764588      4eb900520fa4   jsr BRUSHCOM.set_br_colour
          0x0076458e      544f           addq.w 0x2, a7
          0x00764590      2eb90086e6e8   move.l 0x86e6e8, (a7)
          0x00764596      2f390086e6d8   move.l 0x86e6d8, -(a7)
          0x0076459c      4ebaf700       jsr MENUTYPECOM.display_cursor(pc)
          0x007645a0      504f           addq.w 0x8, a7
       > 0x007645a2      4ebafbf0       jsr MENUTYPECOM.clip_type_area(pc)
            0x007645a6      4eb900523cda   jsr BRUSHCOM.open_block
            0x007645ac      1f3c0002       move.b 0x2, -(a7)
            0x007645b0      2f390086e6b4   move.l 0x86e6b4, -(a7)
            0x007645b6      2f390086e6b0   move.l 0x86e6b0, -(a7)
            0x007645bc      4eb900518a2a   jsr OUTCOM.set_video_crops
            0x007645c2      504f           addq.w 0x8, a7
            0x007645c4      1ebc0002       move.b 0x2, (a7)
            0x007645c8      2f390086e6c0   move.l 0x86e6c0, -(a7)
            0x007645ce      4eb90051872e   jsr OUTCOM.set_scroll
            0x007645d4      584f           addq.w 0x4, a7
            0x007645d6      1ebc0003       move.b 0x3, (a7)
            0x007645da      594f           subq.w 0x4, a7
            0x007645dc      1ea80086       move.b 0x86(a0), (a7)
            0x007645e0      1f6800870001   move.b 0x87(a0), 0x1(a7)
            0x007645e6      1f6800880002   move.b 0x88(a0), 0x2(a7)
            0x007645ec      1f6800890003   move.b 0x89(a0), 0x3(a7)
            0x007645f2      4eb90051872e   jsr OUTCOM.set_scroll
            0x007645f8      584f           addq.w 0x4, a7
            0x007645fa      1ebc0003       move.b 0x3, (a7)
            0x007645fe      36280084       move.w 0x84(a0), d3
            0x00764602      0c43ffff       cmpi.w 0xffff, d3
        < 0x00764606      6302           bls.b 0x76460a
           0x00764608      4e4f           trap 0xf
        > 0x0076460a      3f03           move.w d3, -(a7)
            0x0076460c      2f3aec82       move.l 0x763290(pc), -(a7)
            0x00764610      2f3aec82       move.l 0x763294(pc), -(a7)
            0x00764614      4eb900518898   jsr OUTCOM.set_zoom
            0x0076461a      defc000a       adda.w 0xa, a7
            0x0076461e      1e85           move.b d5, (a7)
            0x00764620      4227           clr.b -(a7)
            0x00764622      4227           clr.b -(a7)
            0x00764624      3f3c4000       move.w 0x4000, -(a7)
            0x00764628      4eb9004b22e2   jsr MENUPASTECOM.paste_set_out
            0x0076462e      504f           addq.w 0x8, a7
            0x00764630      4eb900523cf0   jsr BRUSHCOM.close_block
            0x00764636      48780001       pea.l 0x1
            0x0076463a      4eb900402e42   jsr p_Delay
            0x00764640      584f           addq.w 0x4, a7
        < 0x00764642      60000776       bra.w 0x764dba
           0x00764646      4882           ext.w d2
           0x00764648      45bc0004       chk.w 0x4, d2
           0x0076464c      761c           moveq 0x1c, d3
           0x0076464e      c7c2           muls.w d2, d3
           0x00764650      41f90086e67a   lea.l 0x86e67a, a0
           0x00764656      41f03000       lea.l (a0, d3.w), a0
           0x0076465a      1f3c0003       move.b 0x3, -(a7)
           0x0076465e      514f           subq.w 0x8, a7
           0x00764660      224f           movea.l a7, a1
           0x00764662      45e8008e       lea.l 0x8e(a0), a2
           0x00764666      7607           moveq 0x7, d3
       > 0x00764668      12da           move.b (a2)+, (a1)+
       < 0x0076466a      51cbfffc       dbra d3, 0x764668
           0x0076466e      4eb9005223fc   jsr BRUSHCOM.str_write_area
           0x00764674      defc000a       adda.w 0xa, a7
           0x00764678      4a280096       tst.b 0x96(a0)
       < 0x0076467c      6734           beq.b 0x7646b2
          0x0076467e      2f3ae8ea       move.l 0x762f6a(pc), -(a7)
          0x00764682      3f3ae8e4       move.w 0x762f68(pc), -(a7)
          0x00764686      4eb900520fa4   jsr BRUSHCOM.set_br_colour
          0x0076468c      584f           addq.w 0x4, a7
          0x0076468e      1ebc0003       move.b 0x3, (a7)
          0x00764692      1f05           move.b d5, -(a7)
          0x00764694      514f           subq.w 0x8, a7
          0x00764696      224f           movea.l a7, a1
          0x00764698      45e80098       lea.l 0x98(a0), a2
          0x0076469c      7607           moveq 0x7, d3
      > 0x0076469e      12da           move.b (a2)+, (a1)+
      < 0x007646a0      51cbfffc       dbra d3, 0x76469e
          0x007646a4      4eb9005213b4   jsr BRUSHCOM.br_wipe
          0x007646aa      defc000c       adda.w 0xc, a7
          0x007646ae      42280096       clr.b 0x96(a0)
       > 0x007646b2      2853           movea.l (a3), a4
       > 0x007646b4      b8c5           cmpa.w d5, a4
      < 0x007646b6      6776           beq.b 0x76472e
         0x007646b8      b9ecfffc       cmpa.l -0x4(a4), a4
     < 0x007646bc      6702           beq.b 0x7646c0
        0x007646be      4e4d           trap 0xd
     > 0x007646c0      422c0022       clr.b 0x22(a4)
         0x007646c4      2f0c           move.l a4, -(a7)
         0x007646c6      2f13           move.l (a3), -(a7)
         0x007646c8      594f           subq.w 0x4, a7
         0x007646ca      1ea8008a       move.b 0x8a(a0), (a7)
         0x007646ce      1f68008b0001   move.b 0x8b(a0), 0x1(a7)
         0x007646d4      1f68008c0002   move.b 0x8c(a0), 0x2(a7)
         0x007646da      1f68008d0003   move.b 0x8d(a0), 0x3(a7)
         0x007646e0      514f           subq.w 0x8, a7
         0x007646e2      224f           movea.l a7, a1
         0x007646e4      45e8008e       lea.l 0x8e(a0), a2
         0x007646e8      7607           moveq 0x7, d3
     > 0x007646ea      12da           move.b (a2)+, (a1)+
     < 0x007646ec      51cbfffc       dbra d3, 0x7646ea
         0x007646f0      2f390086e6ac   move.l 0x86e6ac, -(a7)
         0x007646f6      2f390086e6a8   move.l 0x86e6a8, -(a7)
         0x007646fc      1f05           move.b d5, -(a7)
         0x007646fe      1f05           move.b d5, -(a7)
         0x00764700      2f390086e7da   move.l 0x86e7da, -(a7)
         0x00764706      3f390086e7ce   move.w 0x86e7ce, -(a7)
         0x0076470c      3f390086e7de   move.w 0x86e7de, -(a7)
         0x00764712      2f390086e6d0   move.l 0x86e6d0, -(a7)
         0x00764718      4eb90076fbd8   jsr TYPECOM.display_type_li
         0x0076471e      defc0028       adda.w 0x28, a7
         0x00764722      2e8c           move.l a4, (a7)
         0x00764724      4ebaf89e       jsr MENUTYPECOM.update_type_are(pc)
         0x00764728      584f           addq.w 0x4, a7
         0x0076472a      2854           movea.l (a4), a4
      < 0x0076472c      6086           bra.b 0x7646b4
      > 0x0076472e      4ebafa64       jsr MENUTYPECOM.clip_type_area(pc)
           0x00764732      554f           subq.w 0x2, a7
           0x00764734      3f3c002c       move.w 0x2c, -(a7)
           0x00764738      4eb900480fc2   jsr MENUCOM.get_boxon
           0x0076473e      544f           addq.w 0x2, a7
           0x00764740      4a1f           tst.b (a7)+
       < 0x00764742      6704           beq.b 0x764748
          0x00764744      7e01           moveq 0x1, d7
      < 0x00764746      602e           bra.b 0x764776
      > 0x00764748      554f           subq.w 0x2, a7
          0x0076474a      3f3c001f       move.w 0x1f, -(a7)
          0x0076474e      4eb900480fc2   jsr MENUCOM.get_boxon
          0x00764754      544f           addq.w 0x2, a7
          0x00764756      4a1f           tst.b (a7)+
      < 0x00764758      671a           beq.b 0x764774
         0x0076475a      554f           subq.w 0x2, a7
         0x0076475c      3f3c0027       move.w 0x27, -(a7)
         0x00764760      4eb900480fc2   jsr MENUCOM.get_boxon
         0x00764766      544f           addq.w 0x2, a7
         0x00764768      4a1f           tst.b (a7)+
     < 0x0076476a      6704           beq.b 0x764770
        0x0076476c      7e02           moveq 0x2, d7
    < 0x0076476e      6006           bra.b 0x764776
    > 0x00764770      7e03           moveq 0x3, d7
    < 0x00764772      6002           bra.b 0x764776
    > 0x00764774      7e00           moveq 0x0, d7
    > 0x00764776      4a68009c       tst.w 0x9c(a0)
       < 0x0076477a      6f18           ble.b 0x764794
          0x0076477c      4a68009e       tst.w 0x9e(a0)
      < 0x00764780      6f12           ble.b 0x764794
         0x00764782      48680098       pea.l 0x98(a0)
         0x00764786      4887           ext.w d7
         0x00764788      4fbc0004       chk.w 0x4, d7
         0x0076478c      1f07           move.b d7, -(a7)
         0x0076478e      4ebafa94       jsr MENUTYPECOM.make_styled_cut(pc)
         0x00764792      5c4f           addq.w 0x6, a7
      > 0x00764794      4eb9004b21ce   jsr MENUPASTECOM.paste_no_cutout
       < 0x0076479a      6000061e       bra.w 0x764dba
          0x0076479e      4882           ext.w d2
          0x007647a0      45bc0004       chk.w 0x4, d2
          0x007647a4      761c           moveq 0x1c, d3
          0x007647a6      c7c2           muls.w d2, d3
          0x007647a8      41f90086e67a   lea.l 0x86e67a, a0
          0x007647ae      41f03000       lea.l (a0, d3.w), a0
          0x007647b2      7c01           moveq 0x1, d6
          0x007647b4      0c010006       cmpi.b 0x6, d1
      < 0x007647b8      664e           bne.b 0x764808
         0x007647ba      554f           subq.w 0x2, a7
         0x007647bc      486effde       pea.l -0x22(a6)
         0x007647c0      486efffd       pea.l -0x3(a6)
         0x007647c4      4eb9004ab2f2   jsr MENUKEYBDCOM.kbd_char_waitin
         0x007647ca      504f           addq.w 0x8, a7
         0x007647cc      4a1f           tst.b (a7)+
     < 0x007647ce      6738           beq.b 0x764808
        0x007647d0      4a2efffd       tst.b -0x3(a6)
    < 0x007647d4      6726           beq.b 0x7647fc
       0x007647d6      362effde       move.w -0x22(a6), d3
       0x007647da      48c3           ext.l d3
       0x007647dc      008300000800   ori.l 0x800, d3
       0x007647e2      0483ffff8000   subi.l 0xffff8000, d3
       0x007647e8      0c830000ffff   cmpi.l 0xffff, d3
   < 0x007647ee      6302           bls.b 0x7647f2
      0x007647f0      4e4f           trap 0xf
   > 0x007647f2      0683ffff8000   addi.l 0xffff8000, d3
       0x007647f8      3d43ffde       move.w d3, -0x22(a6)
    > 0x007647fc      362effde       move.w -0x22(a6), d3
        0x00764800      02430800       andi.w 0x800, d3
    < 0x00764804      6602           bne.b 0x764808
       0x00764806      7c00           moveq 0x0, d6
    > 0x00764808      4a06           tst.b d6
      < 0x0076480a      67000228       beq.w 0x764a34
         0x0076480e      4ebaf3b8       jsr MENUTYPECOM.wipe_cursor(pc)
         0x00764812      0c010007       cmpi.b 0x7, d1
     < 0x00764816      6614           bne.b 0x76482c
        0x00764818      1f05           move.b d5, -(a7)
        0x0076481a      4227           clr.b -(a7)
        0x0076481c      4227           clr.b -(a7)
        0x0076481e      3f3c4000       move.w 0x4000, -(a7)
        0x00764822      4eb9004b22e2   jsr MENUPASTECOM.paste_set_out
        0x00764828      504f           addq.w 0x8, a7
    < 0x0076482a      6032           bra.b 0x76485e
    > 0x0076482c      43faea6a       lea.l 0x763298(pc), a1
        0x00764830      3601           move.w d1, d3
        0x00764832      e64b           lsr.w 0x3, d3
        0x00764834      03313000       btst.l d1, (a1, d3.w)
    < 0x00764838      6702           beq.b 0x76483c
   < 0x0076483a      6010           bra.b 0x76484c
   > 0x0076483c      0c000004       cmpi.b 0x4, d0
   < 0x00764840      661c           bne.b 0x76485e
      0x00764842      4ebaf2de       jsr MENUTYPECOM.make_clean_copy(pc)
      0x00764846      4eb90051f298   jsr BRUSHCOM.brush_wait
   > 0x0076484c      1f3c0003       move.b 0x3, -(a7)
       0x00764850      2f390086e754   move.l 0x86e754, -(a7)
       0x00764856      4eb90051872e   jsr OUTCOM.set_scroll
       0x0076485c      5c4f           addq.w 0x6, a7
    > 0x0076485e      48780001       pea.l 0x1
         0x00764862      4eb900402e42   jsr p_Delay
         0x00764868      544f           addq.w 0x2, a7
         0x0076486a      1ebc0003       move.b 0x3, (a7)
         0x0076486e      514f           subq.w 0x8, a7
         0x00764870      224f           movea.l a7, a1
         0x00764872      45e8008e       lea.l 0x8e(a0), a2
         0x00764876      7607           moveq 0x7, d3
     > 0x00764878      12da           move.b (a2)+, (a1)+
     < 0x0076487a      51cbfffc       dbra d3, 0x764878
         0x0076487e      4eb9005223fc   jsr BRUSHCOM.str_write_area
         0x00764884      defc000a       adda.w 0xa, a7
         0x00764888      4a280096       tst.b 0x96(a0)
     < 0x0076488c      6734           beq.b 0x7648c2
        0x0076488e      2f3ae6da       move.l 0x762f6a(pc), -(a7)
        0x00764892      3f3ae6d4       move.w 0x762f68(pc), -(a7)
        0x00764896      4eb900520fa4   jsr BRUSHCOM.set_br_colour
        0x0076489c      584f           addq.w 0x4, a7
        0x0076489e      1ebc0003       move.b 0x3, (a7)
        0x007648a2      1f05           move.b d5, -(a7)
        0x007648a4      514f           subq.w 0x8, a7
        0x007648a6      224f           movea.l a7, a1
        0x007648a8      45e80098       lea.l 0x98(a0), a2
        0x007648ac      7607           moveq 0x7, d3
    > 0x007648ae      12da           move.b (a2)+, (a1)+
    < 0x007648b0      51cbfffc       dbra d3, 0x7648ae
        0x007648b4      4eb9005213b4   jsr BRUSHCOM.br_wipe
        0x007648ba      defc000c       adda.w 0xc, a7
        0x007648be      42280096       clr.b 0x96(a0)
     > 0x007648c2      2853           movea.l (a3), a4
     > 0x007648c4      b8c5           cmpa.w d5, a4
    < 0x007648c6      67000092       beq.w 0x76495a
       0x007648ca      b9ecfffc       cmpa.l -0x4(a4), a4
   < 0x007648ce      6702           beq.b 0x7648d2
      0x007648d0      4e4d           trap 0xd
   > 0x007648d2      422c0022       clr.b 0x22(a4)
       0x007648d6      2f0c           move.l a4, -(a7)
       0x007648d8      2f13           move.l (a3), -(a7)
       0x007648da      594f           subq.w 0x4, a7
       0x007648dc      1ea8008a       move.b 0x8a(a0), (a7)
       0x007648e0      1f68008b0001   move.b 0x8b(a0), 0x1(a7)
       0x007648e6      1f68008c0002   move.b 0x8c(a0), 0x2(a7)
       0x007648ec      1f68008d0003   move.b 0x8d(a0), 0x3(a7)
       0x007648f2      514f           subq.w 0x8, a7
       0x007648f4      224f           movea.l a7, a1
       0x007648f6      45e8008e       lea.l 0x8e(a0), a2
       0x007648fa      7607           moveq 0x7, d3
   > 0x007648fc      12da           move.b (a2)+, (a1)+
   < 0x007648fe      51cbfffc       dbra d3, 0x7648fc
       0x00764902      2f390086e6ac   move.l 0x86e6ac, -(a7)
       0x00764908      2f390086e6a8   move.l 0x86e6a8, -(a7)
       0x0076490e      1f05           move.b d5, -(a7)
       0x00764910      1f05           move.b d5, -(a7)
       0x00764912      2f390086e7da   move.l 0x86e7da, -(a7)
       0x00764918      3f390086e7ce   move.w 0x86e7ce, -(a7)
       0x0076491e      3f390086e7de   move.w 0x86e7de, -(a7)
       0x00764924      2f390086e6d0   move.l 0x86e6d0, -(a7)
       0x0076492a      4eb90076fbd8   jsr TYPECOM.display_type_li
       0x00764930      defc002c       adda.w 0x2c, a7
       0x00764934      162e0008       move.b 0x8(a6), d3
       0x00764938      0c03000f       cmpi.b 0xf, d3
   < 0x0076493c      660e           bne.b 0x76494c
      0x0076493e      3f390086e7ce   move.w 0x86e7ce, -(a7)
      0x00764944      4eb90076eef0   jsr TYPECOM.menu_font_add
      0x0076494a      544f           addq.w 0x2, a7
   > 0x0076494c      2f0c           move.l a4, -(a7)
       0x0076494e      4ebaf674       jsr MENUTYPECOM.update_type_are(pc)
       0x00764952      584f           addq.w 0x4, a7
       0x00764954      2854           movea.l (a4), a4
    < 0x00764956      6000ff6c       bra.w 0x7648c4
    > 0x0076495a      4ebaf838       jsr MENUTYPECOM.clip_type_area(pc)
         0x0076495e      162e0008       move.b 0x8(a6), d3
         0x00764962      0c03000a       cmpi.b 0xa, d3
     < 0x00764966      6714           beq.b 0x76497c
        0x00764968      4a280096       tst.b 0x96(a0)
    < 0x0076496c      670e           beq.b 0x76497c
       0x0076496e      48680098       pea.l 0x98(a0)
       0x00764972      1f3c0004       move.b 0x4, -(a7)
       0x00764976      4ebaf8ac       jsr MENUTYPECOM.make_styled_cut(pc)
       0x0076497a      5c4f           addq.w 0x6, a7
    > 0x0076497c      4eb900523cda   jsr BRUSHCOM.open_block
         0x00764982      1f3c0002       move.b 0x2, -(a7)
         0x00764986      2f390086e6b8   move.l 0x86e6b8, -(a7)
         0x0076498c      4eb90051872e   jsr OUTCOM.set_scroll
         0x00764992      584f           addq.w 0x4, a7
         0x00764994      1ebc0002       move.b 0x2, (a7)
         0x00764998      2f390086e68c   move.l 0x86e68c, -(a7)
         0x0076499e      2f390086e688   move.l 0x86e688, -(a7)
         0x007649a4      4eb900518a2a   jsr OUTCOM.set_video_crops
         0x007649aa      504f           addq.w 0x8, a7
         0x007649ac      1ebc0003       move.b 0x3, (a7)
         0x007649b0      594f           subq.w 0x4, a7
         0x007649b2      1ea80086       move.b 0x86(a0), (a7)
         0x007649b6      1f6800870001   move.b 0x87(a0), 0x1(a7)
         0x007649bc      1f6800880002   move.b 0x88(a0), 0x2(a7)
         0x007649c2      1f6800890003   move.b 0x89(a0), 0x3(a7)
         0x007649c8      4eb90051872e   jsr OUTCOM.set_scroll
         0x007649ce      584f           addq.w 0x4, a7
         0x007649d0      1ebc0003       move.b 0x3, (a7)
         0x007649d4      38280084       move.w 0x84(a0), d4
         0x007649d8      0c44ffff       cmpi.w 0xffff, d4
     < 0x007649dc      6302           bls.b 0x7649e0
        0x007649de      4e4f           trap 0xf
     > 0x007649e0      3f04           move.w d4, -(a7)
         0x007649e2      2f3ae8b6       move.l 0x76329a(pc), -(a7)
         0x007649e6      2f3ae8b6       move.l 0x76329e(pc), -(a7)
         0x007649ea      4eb900518898   jsr OUTCOM.set_zoom
         0x007649f0      defc000a       adda.w 0xa, a7
         0x007649f4      4217           clr.b (a7)
         0x007649f6      4227           clr.b -(a7)
         0x007649f8      4227           clr.b -(a7)
         0x007649fa      3f3c4000       move.w 0x4000, -(a7)
         0x007649fe      4eb9004b22e2   jsr MENUPASTECOM.paste_set_out
         0x00764a04      504f           addq.w 0x8, a7
         0x00764a06      4eb900523cf0   jsr BRUSHCOM.close_block
         0x00764a0c      48780001       pea.l 0x1
         0x00764a10      4eb900402e42   jsr p_Delay
         0x00764a16      584f           addq.w 0x4, a7
         0x00764a18      0c03000a       cmpi.b 0xa, d3
     < 0x00764a1c      6716           beq.b 0x764a34
    > 0x00764a1e      4ebaf102       jsr MENUTYPECOM.make_clean_copy(pc)
       0x00764a22      2f390086e6e8   move.l 0x86e6e8, -(a7)
       0x00764a28      2f390086e6d8   move.l 0x86e6d8, -(a7)
       0x00764a2e      4ebaf26e       jsr MENUTYPECOM.display_cursor(pc)
   > 0x00764a32      504f           addq.w 0x8, a7
  > 0x00764a34      60000384       bra.w 0x764dba
       0x00764a38      4ebaf18e       jsr MENUTYPECOM.wipe_cursor(pc)
       0x00764a3c      2853           movea.l (a3), a4
   > 0x00764a3e      b8c5           cmpa.w d5, a4
  < 0x00764a40      675e           beq.b 0x764aa0
     0x00764a42      b9ecfffc       cmpa.l -0x4(a4), a4
  < 0x00764a46      6702           beq.b 0x764a4a
     0x00764a48      4e4d           trap 0xd
  > 0x00764a4a      4a2c0023       tst.b 0x23(a4)
  < 0x00764a4e      674c           beq.b 0x764a9c
     0x00764a50      2f0c           move.l a4, -(a7)
     0x00764a52      2f13           move.l (a3), -(a7)
     0x00764a54      2f390086e758   move.l 0x86e758, -(a7)
     0x00764a5a      2f390086e760   move.l 0x86e760, -(a7)
     0x00764a60      2f390086e75c   move.l 0x86e75c, -(a7)
     0x00764a66      2f390086e6ac   move.l 0x86e6ac, -(a7)
     0x00764a6c      2f390086e6a8   move.l 0x86e6a8, -(a7)
     0x00764a72      4227           clr.b -(a7)
     0x00764a74      4227           clr.b -(a7)
     0x00764a76      2f390086e7da   move.l 0x86e7da, -(a7)
     0x00764a7c      3f390086e7ce   move.w 0x86e7ce, -(a7)
     0x00764a82      3f390086e7de   move.w 0x86e7de, -(a7)
     0x00764a88      2f390086e6d0   move.l 0x86e6d0, -(a7)
     0x00764a8e      4eb90076fbd8   jsr TYPECOM.display_type_li
     0x00764a94      defc002c       adda.w 0x2c, a7
     0x00764a98      422c0023       clr.b 0x23(a4)
  > 0x00764a9c      2854           movea.l (a4), a4
  < 0x00764a9e      609e           bra.b 0x764a3e
  > 0x00764aa0      1f3c0002       move.b 0x2, -(a7)
       0x00764aa4      2f390086e6b4   move.l 0x86e6b4, -(a7)
       0x00764aaa      2f390086e6b0   move.l 0x86e6b0, -(a7)
       0x00764ab0      4eb9005223fc   jsr BRUSHCOM.str_write_area
       0x00764ab6      504f           addq.w 0x8, a7
       0x00764ab8      1ebc0002       move.b 0x2, (a7)
       0x00764abc      1f3c0002       move.b 0x2, -(a7)
       0x00764ac0      1f3c0004       move.b 0x4, -(a7)
       0x00764ac4      2f390086e6b8   move.l 0x86e6b8, -(a7)
       0x00764aca      2f390086e6b4   move.l 0x86e6b4, -(a7)
       0x00764ad0      2f390086e6b0   move.l 0x86e6b0, -(a7)
       0x00764ad6      4eb900522722   jsr BRUSHCOM.str_any_str_cop
       0x00764adc      defc0012       adda.w 0x12, a7
       0x00764ae0      3e390086e766   move.w 0x86e766, d7
       0x00764ae6      02470007       andi.w 0x7, d7
       0x00764aea      30390086e766   move.w 0x86e766, d0
       0x00764af0      48c0           ext.l d0
       0x00764af2      48c7           ext.l d7
       0x00764af4      9087           sub.l d7, d0
       0x00764af6      0480ffff8000   subi.l 0xffff8000, d0
       0x00764afc      0c800000ffff   cmpi.l 0xffff, d0
   < 0x00764b02      6302           bls.b 0x764b06
      0x00764b04      4e4f           trap 0xf
   > 0x00764b06      0680ffff8000   addi.l 0xffff8000, d0
       0x00764b0c      3d40ffe0       move.w d0, -0x20(a6)
       0x00764b10      3d790086e768.  move.w 0x86e768, -0x1e(a6)
       0x00764b18      48780001       pea.l 0x1
       0x00764b1c      2d5ffff8       move.l (a7)+, -0x8(a6)
       0x00764b20      30390086e76a   move.w 0x86e76a, d0
       0x00764b26      48c0           ext.l d0
       0x00764b28      d087           add.l d7, d0
       0x00764b2a      0480ffff8000   subi.l 0xffff8000, d0
       0x00764b30      0c800000ffff   cmpi.l 0xffff, d0
   < 0x00764b36      6302           bls.b 0x764b3a
      0x00764b38      4e4f           trap 0xf
   > 0x00764b3a      0680ffff8000   addi.l 0xffff8000, d0
       0x00764b40      3d40ffec       move.w d0, -0x14(a6)
       0x00764b44      3d790086e76c.  move.w 0x86e76c, -0x12(a6)
       0x00764b4c      302effe0       move.w -0x20(a6), d0
       0x00764b50      48c0           ext.l d0
       0x00764b52      32390086e698   move.w 0x86e698, d1
       0x00764b58      48c1           ext.l d1
       0x00764b5a      4481           neg.l d1
       0x00764b5c      d280           add.l d0, d1
       0x00764b5e      30390086e6b0   move.w 0x86e6b0, d0
       0x00764b64      48c0           ext.l d0
       0x00764b66      d081           add.l d1, d0
       0x00764b68      0480ffff8000   subi.l 0xffff8000, d0
       0x00764b6e      0c800000ffff   cmpi.l 0xffff, d0
   < 0x00764b74      6302           bls.b 0x764b78
      0x00764b76      4e4f           trap 0xf
   > 0x00764b78      0680ffff8000   addi.l 0xffff8000, d0
       0x00764b7e      3d40ffe4       move.w d0, -0x1c(a6)
       0x00764b82      302effe2       move.w -0x1e(a6), d0
       0x00764b86      48c0           ext.l d0
       0x00764b88      32390086e69a   move.w 0x86e69a, d1
       0x00764b8e      48c1           ext.l d1
       0x00764b90      4481           neg.l d1
       0x00764b92      d280           add.l d0, d1
       0x00764b94      30390086e6b2   move.w 0x86e6b2, d0
       0x00764b9a      48c0           ext.l d0
       0x00764b9c      d081           add.l d1, d0
       0x00764b9e      0480ffff8000   subi.l 0xffff8000, d0
       0x00764ba4      0c800000ffff   cmpi.l 0xffff, d0
   < 0x00764baa      6302           bls.b 0x764bae
      0x00764bac      4e4f           trap 0xf
   > 0x00764bae      0680ffff8000   addi.l 0xffff8000, d0
       0x00764bb4      3d40ffe6       move.w d0, -0x1a(a6)
       0x00764bb8      554f           subq.w 0x2, a7
       0x00764bba      3f3c001f       move.w 0x1f, -(a7)
       0x00764bbe      4eb900480fc2   jsr MENUCOM.get_boxon
       0x00764bc4      544f           addq.w 0x2, a7
       0x00764bc6      4a1f           tst.b (a7)+
   < 0x00764bc8      67000096       beq.w 0x764c60
      0x00764bcc      554f           subq.w 0x2, a7
      0x00764bce      1f05           move.b d5, -(a7)
      0x00764bd0      486efff8       pea.l -0x8(a6)
      0x00764bd4      486effe8       pea.l -0x18(a6)
      0x00764bd8      4eb900632858   jsr CACHECOM.new_cache_rec
      0x00764bde      defc000a       adda.w 0xa, a7
      0x00764be2      4a1f           tst.b (a7)+
      0x00764be4      1f3c0003       move.b 0x3, -(a7)
      0x00764be8      4227           clr.b -(a7)
      0x00764bea      1f3c0004       move.b 0x4, -(a7)
      0x00764bee      2f2effe0       move.l -0x20(a6), -(a7)
      0x00764bf2      2f2effec       move.l -0x14(a6), -(a7)
      0x00764bf6      2f2effe8       move.l -0x18(a6), -(a7)
      0x00764bfa      4eb900522722   jsr BRUSHCOM.str_any_str_cop
      0x00764c00      defc000e       adda.w 0xe, a7
      0x00764c04      3ebc0027       move.w 0x27, (a7)
      0x00764c08      4eb900480fc2   jsr MENUCOM.get_boxon
      0x00764c0e      544f           addq.w 0x2, a7
      0x00764c10      4a1f           tst.b (a7)+
  < 0x00764c12      670a           beq.b 0x764c1e
     0x00764c14      2f3ae354       move.l 0x762f6a(pc), -(a7)
     0x00764c18      3f3ae34e       move.w 0x762f68(pc), -(a7)
  < 0x00764c1c      6008           bra.b 0x764c26
  > 0x00764c1e      2f3ae350       move.l 0x762f70(pc), -(a7)
      0x00764c22      3f3ae34a       move.w 0x762f6e(pc), -(a7)
  > 0x00764c26      4eb900520fa4   jsr BRUSHCOM.set_br_colour
      0x00764c2c      5c4f           addq.w 0x6, a7
      0x00764c2e      1f3c0002       move.b 0x2, -(a7)
      0x00764c32      1f05           move.b d5, -(a7)
      0x00764c34      4227           clr.b -(a7)
      0x00764c36      4227           clr.b -(a7)
  > 0x00764c38      4227           clr.b -(a7)
     0x00764c3a      2f2effec       move.l -0x14(a6), -(a7)
     0x00764c3e      2f2effe8       move.l -0x18(a6), -(a7)
     0x00764c42      2f2effe4       move.l -0x1c(a6), -(a7)
     0x00764c46      4eb900522da0   jsr BRUSHCOM.br_any_stamp
     0x00764c4c      defc0016       adda.w 0x16, a7
     0x00764c50      486efff8       pea.l -0x8(a6)
     0x00764c54      4eb900632826   jsr CACHECOM.remove_cache_re
     0x00764c5a      584f           addq.w 0x4, a7
  < 0x00764c5c      600000f0       bra.w 0x764d4e
  > 0x00764c60      554f           subq.w 0x2, a7
      0x00764c62      3f3c002c       move.w 0x2c, -(a7)
      0x00764c66      4eb900480fc2   jsr MENUCOM.get_boxon
      0x00764c6c      544f           addq.w 0x2, a7
      0x00764c6e      4a1f           tst.b (a7)+
  < 0x00764c70      6744           beq.b 0x764cb6
     0x00764c72      554f           subq.w 0x2, a7
     0x00764c74      1f05           move.b d5, -(a7)
     0x00764c76      486efff8       pea.l -0x8(a6)
     0x00764c7a      486effe8       pea.l -0x18(a6)
     0x00764c7e      4eb900632858   jsr CACHECOM.new_cache_rec
     0x00764c84      defc000a       adda.w 0xa, a7
     0x00764c88      4a1f           tst.b (a7)+
     0x00764c8a      1f3c0003       move.b 0x3, -(a7)
     0x00764c8e      4227           clr.b -(a7)
     0x00764c90      1f3c0004       move.b 0x4, -(a7)
     0x00764c94      2f2effe0       move.l -0x20(a6), -(a7)
     0x00764c98      2f2effec       move.l -0x14(a6), -(a7)
     0x00764c9c      2f2effe8       move.l -0x18(a6), -(a7)
     0x00764ca0      4eb900522722   jsr BRUSHCOM.str_any_str_cop
     0x00764ca6      defc0010       adda.w 0x10, a7
     0x00764caa      1ebc0002       move.b 0x2, (a7)
     0x00764cae      4227           clr.b -(a7)
     0x00764cb0      1f05           move.b d5, -(a7)
     0x00764cb2      1f05           move.b d5, -(a7)
  < 0x00764cb4      6082           bra.b 0x764c38
   > 0x00764cb6      30390086e766   move.w 0x86e766, d0
       0x00764cbc      48c0           ext.l d0
       0x00764cbe      32390086e698   move.w 0x86e698, d1
       0x00764cc4      48c1           ext.l d1
       0x00764cc6      4481           neg.l d1
       0x00764cc8      d280           add.l d0, d1
       0x00764cca      30390086e6b0   move.w 0x86e6b0, d0
       0x00764cd0      48c0           ext.l d0
       0x00764cd2      d081           add.l d1, d0
       0x00764cd4      0480ffff8000   subi.l 0xffff8000, d0
       0x00764cda      0c800000ffff   cmpi.l 0xffff, d0
   < 0x00764ce0      6302           bls.b 0x764ce4
      0x00764ce2      4e4f           trap 0xf
   > 0x00764ce4      0680ffff8000   addi.l 0xffff8000, d0
       0x00764cea      3d40ffe4       move.w d0, -0x1c(a6)
       0x00764cee      30390086e768   move.w 0x86e768, d0
       0x00764cf4      48c0           ext.l d0
       0x00764cf6      32390086e69a   move.w 0x86e69a, d1
       0x00764cfc      48c1           ext.l d1
       0x00764cfe      4481           neg.l d1
       0x00764d00      d280           add.l d0, d1
       0x00764d02      30390086e6b2   move.w 0x86e6b2, d0
       0x00764d08      48c0           ext.l d0
       0x00764d0a      d081           add.l d1, d0
       0x00764d0c      0480ffff8000   subi.l 0xffff8000, d0
       0x00764d12      0c800000ffff   cmpi.l 0xffff, d0
   < 0x00764d18      6302           bls.b 0x764d1c
      0x00764d1a      4e4f           trap 0xf
   > 0x00764d1c      0680ffff8000   addi.l 0xffff8000, d0
       0x00764d22      3d40ffe6       move.w d0, -0x1a(a6)
       0x00764d26      1f3c0002       move.b 0x2, -(a7)
       0x00764d2a      4227           clr.b -(a7)
       0x00764d2c      2f390086e76a   move.l 0x86e76a, -(a7)
       0x00764d32      2f390086e766   move.l 0x86e766, -(a7)
       0x00764d38      2f2effe4       move.l -0x1c(a6), -(a7)
       0x00764d3c      1f3c0003       move.b 0x3, -(a7)
       0x00764d40      4227           clr.b -(a7)
       0x00764d42      4227           clr.b -(a7)
       0x00764d44      4eb9005233f0   jsr BRUSHCOM.br_paste
       0x00764d4a      defc0016       adda.w 0x16, a7
  < 0x00764d4e      606a           bra.b 0x764dba
  < 0x00764d50      6000fccc       bra.w 0x764a1e
       0x00764d54      20790086e6e0   movea.l 0x86e6e0, a0
       0x00764d5a      b0c5           cmpa.w d5, a0
   < 0x00764d5c      670a           beq.b 0x764d68
      0x00764d5e      22790086e6ec   movea.l 0x86e6ec, a1
      0x00764d64      b2c5           cmpa.w d5, a1
  < 0x00764d66      6620           bne.b 0x764d88
  > 0x00764d68      22790086e6d8   movea.l 0x86e6d8, a1
      0x00764d6e      b3f90086e6dc   cmpa.l 0x86e6dc, a1
  < 0x00764d74      6704           beq.b 0x764d7a
     0x00764d76      4ebaee50       jsr MENUTYPECOM.wipe_cursor(pc)
  > 0x00764d7a      2f390086e6e8   move.l 0x86e6e8, -(a7)
      0x00764d80      2f390086e6d8   move.l 0x86e6d8, -(a7)
  < 0x00764d86      6018           bra.b 0x764da0
  > 0x00764d88      b1f90086e6dc   cmpa.l 0x86e6dc, a0
  < 0x00764d8e      6704           beq.b 0x764d94
     0x00764d90      4ebaee36       jsr MENUTYPECOM.wipe_cursor(pc)
  > 0x00764d94      2f390086e6ec   move.l 0x86e6ec, -(a7)
      0x00764d9a      2f390086e6e0   move.l 0x86e6e0, -(a7)
   > 0x00764da0      4ebaeefc       jsr MENUTYPECOM.display_cursor(pc)
       0x00764da4      504f           addq.w 0x8, a7
       0x00764da6      4227           clr.b -(a7)
       0x00764da8      4227           clr.b -(a7)
       0x00764daa      4227           clr.b -(a7)
       0x00764dac      3f3c4000       move.w 0x4000, -(a7)
       0x00764db0      4eb9004b22e2   jsr MENUPASTECOM.paste_set_out
  < 0x00764db6      6000fc7a       bra.w 0x764a32
  > 0x00764dba      1f3c0002       move.b 0x2, -(a7)
            0x00764dbe      2f390086e68c   move.l 0x86e68c, -(a7)
            0x00764dc4      2f390086e688   move.l 0x86e688, -(a7)
            0x00764dca      4eb9005223fc   jsr BRUSHCOM.str_write_area
            0x00764dd0      504f           addq.w 0x8, a7
            0x00764dd2      1ebc0003       move.b 0x3, (a7)
            0x00764dd6      2f390086e68c   move.l 0x86e68c, -(a7)
            0x00764ddc      2f390086e688   move.l 0x86e688, -(a7)
            0x00764de2      4eb9005223fc   jsr BRUSHCOM.str_write_area
            0x00764de8      defc000a       adda.w 0xa, a7
            0x00764dec      4cdf1fff       movem.l (a7)+, d0-d7/a0-a4
            0x00764df0      4e5e           unlk a6
            0x00764df2      4e75           rts
            ; CALL XREF from MENUKEYBDCOM.hit_set_kbd_map @ 0x4a6a8a
            ; CALL XREF from MENUPASTECOM.hit_style_selec @ 0x4b3746
 260: MENUTYPECOM.update_text ();
           0x00764df4      4e56ffca       link.w a6, 0xffca
           0x00764df8      bfd5           cmpa.l (a5), a7
       < 0x00764dfa      6206           bhi.b 0x764e02
          0x00764dfc      44fc0002       move.w 0x2, ccr
          0x00764e00      4e76           trapv
       > 0x00764e02      defc0034       adda.w 0x34, a7
           0x00764e06      48e7e1f8       movem.l d0-d2/d7/a0-a4, -(a7)
           0x00764e0a      45f90086e694   lea.l 0x86e694, a2
           0x00764e10      47f90086e690   lea.l 0x86e690, a3
           0x00764e16      49f90086e69c   lea.l 0x86e69c, a4
           0x00764e1c      7203           moveq 0x3, d1
           0x00764e1e      7401           moveq 0x1, d2
           0x00764e20      2f3ae148       move.l 0x762f6a(pc), -(a7)
           0x00764e24      3f3ae142       move.w 0x762f68(pc), -(a7)
           0x00764e28      4eb900520fa4   jsr BRUSHCOM.set_br_colour
           0x00764e2e      584f           addq.w 0x4, a7
           0x00764e30      1e81           move.b d1, (a7)
           0x00764e32      2f12           move.l (a2), -(a7)
           0x00764e34      2f13           move.l (a3), -(a7)
           0x00764e36      4eb9005223fc   jsr BRUSHCOM.str_write_area
           0x00764e3c      504f           addq.w 0x8, a7
           0x00764e3e      1e81           move.b d1, (a7)
           0x00764e40      1f02           move.b d2, -(a7)
           0x00764e42      2f12           move.l (a2), -(a7)
           0x00764e44      2f13           move.l (a3), -(a7)
           0x00764e46      4eb9005213b4   jsr BRUSHCOM.br_wipe
           0x00764e4c      defc000a       adda.w 0xa, a7
           0x00764e50      1e81           move.b d1, (a7)
           0x00764e52      2f14           move.l (a4), -(a7)
           0x00764e54      2f390086e698   move.l 0x86e698, -(a7)
           0x00764e5a      4eb9005223fc   jsr BRUSHCOM.str_write_area
           0x00764e60      504f           addq.w 0x8, a7
           0x00764e62      1e81           move.b d1, (a7)
           0x00764e64      1f02           move.b d2, -(a7)
           0x00764e66      2f14           move.l (a4), -(a7)
           0x00764e68      2f390086e698   move.l 0x86e698, -(a7)
           0x00764e6e      4eb9005213b4   jsr BRUSHCOM.br_wipe
           0x00764e74      defc000c       adda.w 0xc, a7
           0x00764e78      4eb90051f298   jsr BRUSHCOM.brush_wait
           0x00764e7e      1f01           move.b d1, -(a7)
           0x00764e80      2f390086e6a4   move.l 0x86e6a4, -(a7)
           0x00764e86      2f390086e6a0   move.l 0x86e6a0, -(a7)
           0x00764e8c      4eb900518a2a   jsr OUTCOM.set_video_crops
           0x00764e92      504f           addq.w 0x8, a7
           0x00764e94      1e81           move.b d1, (a7)
           0x00764e96      2f3ae40a       move.l 0x7632a2(pc), -(a7)
           0x00764e9a      4eb90051872e   jsr OUTCOM.set_scroll
           0x00764ea0      5c4f           addq.w 0x6, a7
           0x00764ea2      20790086e78a   movea.l 0x86e78a, a0
           0x00764ea8      b1e8fffc       cmpa.l -0x4(a0), a0
       < 0x00764eac      6702           beq.b 0x764eb0
          0x00764eae      4e4d           trap 0xd
       > 0x00764eb0      5d4f           subq.w 0x6, a7
           0x00764eb2      4eb900636d9e   jsr PALETCOM.br_colour
           0x00764eb8      41e802dc       lea.l 0x2dc(a0), a0
           0x00764ebc      224f           movea.l a7, a1
           0x00764ebe      7005           moveq 0x5, d0
       > 0x00764ec0      10d9           move.b (a1)+, (a0)+
       < 0x00764ec2      51c8fffc       dbra d0, 0x764ec0
           0x00764ec6      5c4f           addq.w 0x6, a7
           0x00764ec8      7e01           moveq 0x1, d7
       > 0x00764eca      4887           ext.w d7
          0x00764ecc      701c           moveq 0x1c, d0
          0x00764ece      c1c7           muls.w d7, d0
          0x00764ed0      41f90086e67a   lea.l 0x86e67a, a0
          0x00764ed6      41f00000       lea.l (a0, d0.w), a0
          0x00764eda      42280096       clr.b 0x96(a0)
          0x00764ede      5207           addq.b 0x1, d7
          0x00764ee0      0c070004       cmpi.b 0x4, d7
       < 0x00764ee4      6fe4           ble.b 0x764eca
           0x00764ee6      1f3c0007       move.b 0x7, -(a7)
           0x00764eea      4ebaf4e0       jsr MENUTYPECOM.update_type(pc)
           0x00764eee      544f           addq.w 0x2, a7
           0x00764ef0      4cdf1f87       movem.l (a7)+, d0-d2/d7/a0-a4
           0x00764ef4      4e5e           unlk a6
           0x00764ef6      4e75           rts
            ; CALL XREF from MENUTYPECOM.update_type_box @ 0x7656ec
 338: MENUTYPECOM.find_word_heigh ();
           0x00764ef8      4e56ffb4       link.w a6, 0xffb4
           0x00764efc      bfd5           cmpa.l (a5), a7
       < 0x00764efe      6206           bhi.b 0x764f06
          0x00764f00      44fc0002       move.w 0x2, ccr
          0x00764f04      4e76           trapv
       > 0x00764f06      defc0040       adda.w 0x40, a7
           0x00764f0a      48e7ffe8       movem.l d0-d7/a0-a2/a4, -(a7)
           0x00764f0e      45f90086e7e0   lea.l 0x86e7e0, a2
           0x00764f14      7420           moveq 0x20, d2
           0x00764f16      7c01           moveq 0x1, d6
           0x00764f18      206e0008       movea.l 0x8(a6), a0
           0x00764f1c      b1e8fffc       cmpa.l -0x4(a0), a0
       < 0x00764f20      6702           beq.b 0x764f24
          0x00764f22      4e4d           trap 0xd
       > 0x00764f24      2e280038       move.l 0x38(a0), d7
           0x00764f28      30280010       move.w 0x10(a0), d0
           0x00764f2c      224a           movea.l a2, a1
           0x00764f2e      3200           move.w d0, d1
           0x00764f30      e649           lsr.w 0x3, d1
           0x00764f32      b242           cmp.w d2, d1
       < 0x00764f34      6d04           blt.b 0x764f3a
          0x00764f36      7200           moveq 0x0, d1
      < 0x00764f38      6004           bra.b 0x764f3e
      > 0x00764f3a      01311000       btst.l d0, (a1, d1.w)
      < 0x00764f3e      660000ea       bne.w 0x76502a
          0x00764f42      0c400404       cmpi.w 0x404, d0
      < 0x00764f46      670000e2       beq.w 0x76502a
         0x00764f4a      7a01           moveq 0x1, d5
         0x00764f4c      28680004       movea.l 0x4(a0), a4
     > 0x00764f50      4a05           tst.b d5
    < 0x00764f52      6762           beq.b 0x764fb6
       0x00764f54      b8fc0001       cmpa.w 0x1, a4
   < 0x00764f58      675c           beq.b 0x764fb6
      0x00764f5a      b9ecfffc       cmpa.l -0x4(a4), a4
  < 0x00764f5e      6702           beq.b 0x764f62
     0x00764f60      4e4d           trap 0xd
  > 0x00764f62      302c0010       move.w 0x10(a4), d0
      0x00764f66      224a           movea.l a2, a1
      0x00764f68      3200           move.w d0, d1
      0x00764f6a      e649           lsr.w 0x3, d1
      0x00764f6c      b242           cmp.w d2, d1
  < 0x00764f6e      6d04           blt.b 0x764f74
     0x00764f70      7200           moveq 0x0, d1
 < 0x00764f72      6004           bra.b 0x764f78
 > 0x00764f74      01311000       btst.l d0, (a1, d1.w)
 < 0x00764f78      6606           bne.b 0x764f80
     0x00764f7a      0c400404       cmpi.w 0x404, d0
 < 0x00764f7e      6604           bne.b 0x764f84
 > 0x00764f80      7a00           moveq 0x0, d5
 < 0x00764f82      6030           bra.b 0x764fb4
 > 0x00764f84      2807           move.l d7, d4
     0x00764f86      262c0038       move.l 0x38(a4), d3
     0x00764f8a      4eb900407ba8   jsr fcn.00407ba8
     0x00764f90      2e04           move.l d4, d7
     0x00764f92      48c6           ext.l d6
     0x00764f94      2006           move.l d6, d0
     0x00764f96      5280           addq.l 0x1, d0
     0x00764f98      0480ffff8000   subi.l 0xffff8000, d0
     0x00764f9e      0c800000ffff   cmpi.l 0xffff, d0
 < 0x00764fa4      6302           bls.b 0x764fa8
    0x00764fa6      4e4f           trap 0xf
 > 0x00764fa8      0680ffff8000   addi.l 0xffff8000, d0
     0x00764fae      3c00           move.w d0, d6
     0x00764fb0      286c0004       movea.l 0x4(a4), a4
  < 0x00764fb4      609a           bra.b 0x764f50
   > 0x00764fb6      226e0008       movea.l 0x8(a6), a1
         0x00764fba      b3e9fffc       cmpa.l -0x4(a1), a1
     < 0x00764fbe      6702           beq.b 0x764fc2
        0x00764fc0      4e4d           trap 0xd
     > 0x00764fc2      2851           movea.l (a1), a4
         0x00764fc4      7a01           moveq 0x1, d5
     > 0x00764fc6      4a05           tst.b d5
    < 0x00764fc8      6760           beq.b 0x76502a
       0x00764fca      b8fc0001       cmpa.w 0x1, a4
   < 0x00764fce      675a           beq.b 0x76502a
      0x00764fd0      b9ecfffc       cmpa.l -0x4(a4), a4
  < 0x00764fd4      6702           beq.b 0x764fd8
     0x00764fd6      4e4d           trap 0xd
  > 0x00764fd8      302c0010       move.w 0x10(a4), d0
      0x00764fdc      224a           movea.l a2, a1
      0x00764fde      3200           move.w d0, d1
      0x00764fe0      e649           lsr.w 0x3, d1
      0x00764fe2      b242           cmp.w d2, d1
  < 0x00764fe4      6d04           blt.b 0x764fea
     0x00764fe6      7200           moveq 0x0, d1
 < 0x00764fe8      6004           bra.b 0x764fee
 > 0x00764fea      01311000       btst.l d0, (a1, d1.w)
 < 0x00764fee      6606           bne.b 0x764ff6
     0x00764ff0      0c400404       cmpi.w 0x404, d0
 < 0x00764ff4      6604           bne.b 0x764ffa
 > 0x00764ff6      7a00           moveq 0x0, d5
 < 0x00764ff8      602e           bra.b 0x765028
 > 0x00764ffa      2807           move.l d7, d4
     0x00764ffc      262c0038       move.l 0x38(a4), d3
     0x00765000      4eb900407ba8   jsr fcn.00407ba8
     0x00765006      2e04           move.l d4, d7
     0x00765008      48c6           ext.l d6
     0x0076500a      2006           move.l d6, d0
     0x0076500c      5280           addq.l 0x1, d0
     0x0076500e      0480ffff8000   subi.l 0xffff8000, d0
     0x00765014      0c800000ffff   cmpi.l 0xffff, d0
 < 0x0076501a      6302           bls.b 0x76501e
    0x0076501c      4e4f           trap 0xf
 > 0x0076501e      0680ffff8000   addi.l 0xffff8000, d0
     0x00765024      3c00           move.w d0, d6
     0x00765026      2854           movea.l (a4), a4
  < 0x00765028      609c           bra.b 0x764fc6
   > 0x0076502a      48c6           ext.l d6
           0x0076502c      2806           move.l d6, d4
           0x0076502e      4eb900408686   jsr fcn.00408686
           0x00765034      2604           move.l d4, d3
           0x00765036      2807           move.l d7, d4
           0x00765038      4eb900407ff8   jsr fcn.00407ff8
           0x0076503e      2d44000c       move.l d4, 0xc(a6)
           0x00765042      4cdf17ff       movem.l (a7)+, d0-d7/a0-a2/a4
           0x00765046      4e5e           unlk a6
           0x00765048      4e75           rts
            ; CALL XREF from MENUTYPECOM.update_type_box @ 0x76571a
 348: MENUTYPECOM.find_word_kern ();
           0x0076504a      4e56ffac       link.w a6, 0xffac
           0x0076504e      bfd5           cmpa.l (a5), a7
       < 0x00765050      6206           bhi.b 0x765058
          0x00765052      44fc0002       move.w 0x2, ccr
          0x00765056      4e76           trapv
       > 0x00765058      defc0048       adda.w 0x48, a7
           0x0076505c      48e7fff8       movem.l d0-d7/a0-a4, -(a7)
           0x00765060      45f90086e7e0   lea.l 0x86e7e0, a2
           0x00765066      47f900408686   lea.l fcn.00408686, a3
           0x0076506c      7420           moveq 0x20, d2
           0x0076506e      7c01           moveq 0x1, d6
           0x00765070      206e0008       movea.l 0x8(a6), a0
           0x00765074      b1e8fffc       cmpa.l -0x4(a0), a0
       < 0x00765078      6702           beq.b 0x76507c
          0x0076507a      4e4d           trap 0xd
       > 0x0076507c      28280048       move.l 0x48(a0), d4
           0x00765080      4e93           jsr (a3)                    ; fcn.0000000c
           0x00765082      2e04           move.l d4, d7
           0x00765084      30280010       move.w 0x10(a0), d0
           0x00765088      224a           movea.l a2, a1
           0x0076508a      3200           move.w d0, d1
           0x0076508c      e649           lsr.w 0x3, d1
           0x0076508e      b242           cmp.w d2, d1
       < 0x00765090      6d04           blt.b 0x765096
          0x00765092      7200           moveq 0x0, d1
      < 0x00765094      6004           bra.b 0x76509a
      > 0x00765096      01311000       btst.l d0, (a1, d1.w)
      < 0x0076509a      660000ee       bne.w 0x76518a
          0x0076509e      0c400404       cmpi.w 0x404, d0
      < 0x007650a2      670000e6       beq.w 0x76518a
         0x007650a6      7a01           moveq 0x1, d5
         0x007650a8      28680004       movea.l 0x4(a0), a4
     > 0x007650ac      4a05           tst.b d5
    < 0x007650ae      6764           beq.b 0x765114
       0x007650b0      b8fc0001       cmpa.w 0x1, a4
   < 0x007650b4      675e           beq.b 0x765114
      0x007650b6      b9ecfffc       cmpa.l -0x4(a4), a4
  < 0x007650ba      6702           beq.b 0x7650be
     0x007650bc      4e4d           trap 0xd
  > 0x007650be      302c0010       move.w 0x10(a4), d0
      0x007650c2      224a           movea.l a2, a1
      0x007650c4      3200           move.w d0, d1
      0x007650c6      e649           lsr.w 0x3, d1
      0x007650c8      b242           cmp.w d2, d1
  < 0x007650ca      6d04           blt.b 0x7650d0
     0x007650cc      7200           moveq 0x0, d1
 < 0x007650ce      6004           bra.b 0x7650d4
 > 0x007650d0      01311000       btst.l d0, (a1, d1.w)
 < 0x007650d4      6606           bne.b 0x7650dc
     0x007650d6      0c400404       cmpi.w 0x404, d0
 < 0x007650da      6604           bne.b 0x7650e0
 > 0x007650dc      7a00           moveq 0x0, d5
 < 0x007650de      6032           bra.b 0x765112
 > 0x007650e0      282c0048       move.l 0x48(a4), d4
     0x007650e4      4e93           jsr (a3)                    ; fcn.0000000c
     0x007650e6      2607           move.l d7, d3
     0x007650e8      4eb900407ba8   jsr fcn.00407ba8
     0x007650ee      2e04           move.l d4, d7
     0x007650f0      48c6           ext.l d6
     0x007650f2      2006           move.l d6, d0
     0x007650f4      5280           addq.l 0x1, d0
     0x007650f6      0480ffff8000   subi.l 0xffff8000, d0
     0x007650fc      0c800000ffff   cmpi.l 0xffff, d0
 < 0x00765102      6302           bls.b 0x765106
    0x00765104      4e4f           trap 0xf
 > 0x00765106      0680ffff8000   addi.l 0xffff8000, d0
     0x0076510c      3c00           move.w d0, d6
     0x0076510e      286c0004       movea.l 0x4(a4), a4
  < 0x00765112      6098           bra.b 0x7650ac
   > 0x00765114      226e0008       movea.l 0x8(a6), a1
         0x00765118      b3e9fffc       cmpa.l -0x4(a1), a1
     < 0x0076511c      6702           beq.b 0x765120
        0x0076511e      4e4d           trap 0xd
     > 0x00765120      2851           movea.l (a1), a4
         0x00765122      7a01           moveq 0x1, d5
     > 0x00765124      4a05           tst.b d5
    < 0x00765126      6762           beq.b 0x76518a
       0x00765128      b8fc0001       cmpa.w 0x1, a4
   < 0x0076512c      675c           beq.b 0x76518a
      0x0076512e      b9ecfffc       cmpa.l -0x4(a4), a4
  < 0x00765132      6702           beq.b 0x765136
     0x00765134      4e4d           trap 0xd
  > 0x00765136      302c0010       move.w 0x10(a4), d0
      0x0076513a      224a           movea.l a2, a1
      0x0076513c      3200           move.w d0, d1
      0x0076513e      e649           lsr.w 0x3, d1
      0x00765140      b242           cmp.w d2, d1
  < 0x00765142      6d04           blt.b 0x765148
     0x00765144      7200           moveq 0x0, d1
 < 0x00765146      6004           bra.b 0x76514c
 > 0x00765148      01311000       btst.l d0, (a1, d1.w)
 < 0x0076514c      6606           bne.b 0x765154
     0x0076514e      0c400404       cmpi.w 0x404, d0
 < 0x00765152      6604           bne.b 0x765158
 > 0x00765154      7a00           moveq 0x0, d5
 < 0x00765156      6030           bra.b 0x765188
 > 0x00765158      282c0048       move.l 0x48(a4), d4
     0x0076515c      4e93           jsr (a3)                    ; fcn.0000000c
     0x0076515e      2607           move.l d7, d3
     0x00765160      4eb900407ba8   jsr fcn.00407ba8
     0x00765166      2e04           move.l d4, d7
     0x00765168      48c6           ext.l d6
     0x0076516a      2006           move.l d6, d0
     0x0076516c      5280           addq.l 0x1, d0
     0x0076516e      0480ffff8000   subi.l 0xffff8000, d0
     0x00765174      0c800000ffff   cmpi.l 0xffff, d0
 < 0x0076517a      6302           bls.b 0x76517e
    0x0076517c      4e4f           trap 0xf
 > 0x0076517e      0680ffff8000   addi.l 0xffff8000, d0
     0x00765184      3c00           move.w d0, d6
     0x00765186      2854           movea.l (a4), a4
  < 0x00765188      609a           bra.b 0x765124
   > 0x0076518a      48c6           ext.l d6
           0x0076518c      2806           move.l d6, d4
           0x0076518e      4e93           jsr (a3)                    ; fcn.0000000c
           0x00765190      2604           move.l d4, d3
           0x00765192      2807           move.l d7, d4
           0x00765194      4eb900407ff8   jsr fcn.00407ff8
           0x0076519a      2d44000c       move.l d4, 0xc(a6)
           0x0076519e      4cdf1fff       movem.l (a7)+, d0-d7/a0-a4
           0x007651a2      4e5e           unlk a6
           0x007651a4      4e75           rts
            ; CALL XREF from MENUTYPECOM.update_type_box @ 0x765752
 348: MENUTYPECOM.find_word_jump ();
           0x007651a6      4e56ffac       link.w a6, 0xffac
           0x007651aa      bfd5           cmpa.l (a5), a7
       < 0x007651ac      6206           bhi.b 0x7651b4
          0x007651ae      44fc0002       move.w 0x2, ccr
          0x007651b2      4e76           trapv
       > 0x007651b4      defc0048       adda.w 0x48, a7
           0x007651b8      48e7fff8       movem.l d0-d7/a0-a4, -(a7)
           0x007651bc      45f90086e7e0   lea.l 0x86e7e0, a2
           0x007651c2      47f900408686   lea.l fcn.00408686, a3
           0x007651c8      7420           moveq 0x20, d2
           0x007651ca      7c01           moveq 0x1, d6
           0x007651cc      206e0008       movea.l 0x8(a6), a0
           0x007651d0      b1e8fffc       cmpa.l -0x4(a0), a0
       < 0x007651d4      6702           beq.b 0x7651d8
          0x007651d6      4e4d           trap 0xd
       > 0x007651d8      2828004c       move.l 0x4c(a0), d4
           0x007651dc      4e93           jsr (a3)                    ; fcn.0000000c
           0x007651de      2e04           move.l d4, d7
           0x007651e0      30280010       move.w 0x10(a0), d0
           0x007651e4      224a           movea.l a2, a1
           0x007651e6      3200           move.w d0, d1
           0x007651e8      e649           lsr.w 0x3, d1
           0x007651ea      b242           cmp.w d2, d1
       < 0x007651ec      6d04           blt.b 0x7651f2
          0x007651ee      7200           moveq 0x0, d1
      < 0x007651f0      6004           bra.b 0x7651f6
      > 0x007651f2      01311000       btst.l d0, (a1, d1.w)
      < 0x007651f6      660000ee       bne.w 0x7652e6
          0x007651fa      0c400404       cmpi.w 0x404, d0
      < 0x007651fe      670000e6       beq.w 0x7652e6
         0x00765202      7a01           moveq 0x1, d5
         0x00765204      28680004       movea.l 0x4(a0), a4
     > 0x00765208      4a05           tst.b d5
    < 0x0076520a      6764           beq.b 0x765270
       0x0076520c      b8fc0001       cmpa.w 0x1, a4
   < 0x00765210      675e           beq.b 0x765270
      0x00765212      b9ecfffc       cmpa.l -0x4(a4), a4
  < 0x00765216      6702           beq.b 0x76521a
     0x00765218      4e4d           trap 0xd
  > 0x0076521a      302c0010       move.w 0x10(a4), d0
      0x0076521e      224a           movea.l a2, a1
      0x00765220      3200           move.w d0, d1
      0x00765222      e649           lsr.w 0x3, d1
      0x00765224      b242           cmp.w d2, d1
  < 0x00765226      6d04           blt.b 0x76522c
     0x00765228      7200           moveq 0x0, d1
 < 0x0076522a      6004           bra.b 0x765230
 > 0x0076522c      01311000       btst.l d0, (a1, d1.w)
 < 0x00765230      6606           bne.b 0x765238
     0x00765232      0c400404       cmpi.w 0x404, d0
 < 0x00765236      6604           bne.b 0x76523c
 > 0x00765238      7a00           moveq 0x0, d5
 < 0x0076523a      6032           bra.b 0x76526e
 > 0x0076523c      282c004c       move.l 0x4c(a4), d4
     0x00765240      4e93           jsr (a3)                    ; fcn.0000000c
     0x00765242      2607           move.l d7, d3
     0x00765244      4eb900407ba8   jsr fcn.00407ba8
     0x0076524a      2e04           move.l d4, d7
     0x0076524c      48c6           ext.l d6
     0x0076524e      2006           move.l d6, d0
     0x00765250      5280           addq.l 0x1, d0
     0x00765252      0480ffff8000   subi.l 0xffff8000, d0
     0x00765258      0c800000ffff   cmpi.l 0xffff, d0
 < 0x0076525e      6302           bls.b 0x765262
    0x00765260      4e4f           trap 0xf
 > 0x00765262      0680ffff8000   addi.l 0xffff8000, d0
     0x00765268      3c00           move.w d0, d6
     0x0076526a      286c0004       movea.l 0x4(a4), a4
  < 0x0076526e      6098           bra.b 0x765208
   > 0x00765270      226e0008       movea.l 0x8(a6), a1
         0x00765274      b3e9fffc       cmpa.l -0x4(a1), a1
     < 0x00765278      6702           beq.b 0x76527c
        0x0076527a      4e4d           trap 0xd
     > 0x0076527c      2851           movea.l (a1), a4
         0x0076527e      7a01           moveq 0x1, d5
     > 0x00765280      4a05           tst.b d5
    < 0x00765282      6762           beq.b 0x7652e6
       0x00765284      b8fc0001       cmpa.w 0x1, a4
   < 0x00765288      675c           beq.b 0x7652e6
      0x0076528a      b9ecfffc       cmpa.l -0x4(a4), a4
  < 0x0076528e      6702           beq.b 0x765292
     0x00765290      4e4d           trap 0xd
  > 0x00765292      302c0010       move.w 0x10(a4), d0
      0x00765296      224a           movea.l a2, a1
      0x00765298      3200           move.w d0, d1
      0x0076529a      e649           lsr.w 0x3, d1
      0x0076529c      b242           cmp.w d2, d1
  < 0x0076529e      6d04           blt.b 0x7652a4
     0x007652a0      7200           moveq 0x0, d1
 < 0x007652a2      6004           bra.b 0x7652a8
 > 0x007652a4      01311000       btst.l d0, (a1, d1.w)
 < 0x007652a8      6606           bne.b 0x7652b0
     0x007652aa      0c400404       cmpi.w 0x404, d0
 < 0x007652ae      6604           bne.b 0x7652b4
 > 0x007652b0      7a00           moveq 0x0, d5
 < 0x007652b2      6030           bra.b 0x7652e4
 > 0x007652b4      282c004c       move.l 0x4c(a4), d4
     0x007652b8      4e93           jsr (a3)                    ; fcn.0000000c
     0x007652ba      2607           move.l d7, d3
     0x007652bc      4eb900407ba8   jsr fcn.00407ba8
     0x007652c2      2e04           move.l d4, d7
     0x007652c4      48c6           ext.l d6
     0x007652c6      2006           move.l d6, d0
     0x007652c8      5280           addq.l 0x1, d0
     0x007652ca      0480ffff8000   subi.l 0xffff8000, d0
     0x007652d0      0c800000ffff   cmpi.l 0xffff, d0
 < 0x007652d6      6302           bls.b 0x7652da
    0x007652d8      4e4f           trap 0xf
 > 0x007652da      0680ffff8000   addi.l 0xffff8000, d0
     0x007652e0      3c00           move.w d0, d6
     0x007652e2      2854           movea.l (a4), a4
  < 0x007652e4      609a           bra.b 0x765280
   > 0x007652e6      48c6           ext.l d6
           0x007652e8      2806           move.l d6, d4
           0x007652ea      4e93           jsr (a3)                    ; fcn.0000000c
           0x007652ec      2604           move.l d4, d3
           0x007652ee      2807           move.l d7, d4
           0x007652f0      4eb900407ff8   jsr fcn.00407ff8
           0x007652f6      2d44000c       move.l d4, 0xc(a6)
           0x007652fa      4cdf1fff       movem.l (a7)+, d0-d7/a0-a4
           0x007652fe      4e5e           unlk a6
           0x00765300      4e75           rts
 272: MENUTYPECOM.word_length ();
           0x00765302      4e56ffc0       link.w a6, 0xffc0
           0x00765306      bfd5           cmpa.l (a5), a7
       < 0x00765308      6206           bhi.b 0x765310
          0x0076530a      44fc0002       move.w 0x2, ccr
          0x0076530e      4e76           trapv
       > 0x00765310      defc0038       adda.w 0x38, a7
           0x00765314      48e7ffc8       movem.l d0-d7/a0-a1/a4, -(a7)
           0x00765318      43f90086e7e0   lea.l 0x86e7e0, a1
           0x0076531e      7420           moveq 0x20, d2
           0x00765320      263cffff8000   move.l 0xffff8000, d3
           0x00765326      383c0404       move.w 0x404, d4
           0x0076532a      7a01           moveq 0x1, d5
           0x0076532c      7e01           moveq 0x1, d7
           0x0076532e      206e0008       movea.l 0x8(a6), a0
           0x00765332      b1e8fffc       cmpa.l -0x4(a0), a0
       < 0x00765336      6702           beq.b 0x76533a
          0x00765338      4e4d           trap 0xd
       > 0x0076533a      28680004       movea.l 0x4(a0), a4
           0x0076533e      30280010       move.w 0x10(a0), d0
           0x00765342      2049           movea.l a1, a0
           0x00765344      3200           move.w d0, d1
           0x00765346      e649           lsr.w 0x3, d1
           0x00765348      b242           cmp.w d2, d1
       < 0x0076534a      6d04           blt.b 0x765350
          0x0076534c      7200           moveq 0x0, d1
      < 0x0076534e      6004           bra.b 0x765354
      > 0x00765350      01301000       btst.l d0, (a0, d1.w)
      < 0x00765354      660000b0       bne.w 0x765406
          0x00765358      b044           cmp.w d4, d0
      < 0x0076535a      670000aa       beq.w 0x765406
         0x0076535e      7c01           moveq 0x1, d6
     > 0x00765360      4a06           tst.b d6
    < 0x00765362      6748           beq.b 0x7653ac
       0x00765364      b8c5           cmpa.w d5, a4
   < 0x00765366      6744           beq.b 0x7653ac
      0x00765368      b9ecfffc       cmpa.l -0x4(a4), a4
  < 0x0076536c      6702           beq.b 0x765370
     0x0076536e      4e4d           trap 0xd
  > 0x00765370      302c0010       move.w 0x10(a4), d0
      0x00765374      2049           movea.l a1, a0
      0x00765376      3200           move.w d0, d1
      0x00765378      e649           lsr.w 0x3, d1
      0x0076537a      b242           cmp.w d2, d1
  < 0x0076537c      6d04           blt.b 0x765382
     0x0076537e      7200           moveq 0x0, d1
 < 0x00765380      6004           bra.b 0x765386
 > 0x00765382      01301000       btst.l d0, (a0, d1.w)
 < 0x00765386      6604           bne.b 0x76538c
     0x00765388      b044           cmp.w d4, d0
 < 0x0076538a      6604           bne.b 0x765390
 > 0x0076538c      7c00           moveq 0x0, d6
 < 0x0076538e      601a           bra.b 0x7653aa
 > 0x00765390      48c7           ext.l d7
     0x00765392      2007           move.l d7, d0
     0x00765394      5280           addq.l 0x1, d0
     0x00765396      9083           sub.l d3, d0
     0x00765398      0c800000ffff   cmpi.l 0xffff, d0
 < 0x0076539e      6302           bls.b 0x7653a2
    0x007653a0      4e4f           trap 0xf
 > 0x007653a2      d083           add.l d3, d0
     0x007653a4      3e00           move.w d0, d7
     0x007653a6      286c0004       movea.l 0x4(a4), a4
  < 0x007653aa      60b4           bra.b 0x765360
   > 0x007653ac      206e0008       movea.l 0x8(a6), a0
         0x007653b0      b1e8fffc       cmpa.l -0x4(a0), a0
     < 0x007653b4      6702           beq.b 0x7653b8
        0x007653b6      4e4d           trap 0xd
     > 0x007653b8      2850           movea.l (a0), a4
         0x007653ba      7c01           moveq 0x1, d6
     > 0x007653bc      4a06           tst.b d6
    < 0x007653be      6746           beq.b 0x765406
       0x007653c0      b8c5           cmpa.w d5, a4
   < 0x007653c2      6742           beq.b 0x765406
      0x007653c4      b9ecfffc       cmpa.l -0x4(a4), a4
  < 0x007653c8      6702           beq.b 0x7653cc
     0x007653ca      4e4d           trap 0xd
  > 0x007653cc      302c0010       move.w 0x10(a4), d0
      0x007653d0      2049           movea.l a1, a0
      0x007653d2      3200           move.w d0, d1
      0x007653d4      e649           lsr.w 0x3, d1
      0x007653d6      b242           cmp.w d2, d1
  < 0x007653d8      6d04           blt.b 0x7653de
     0x007653da      7200           moveq 0x0, d1
 < 0x007653dc      6004           bra.b 0x7653e2
 > 0x007653de      01301000       btst.l d0, (a0, d1.w)
 < 0x007653e2      6604           bne.b 0x7653e8
     0x007653e4      b044           cmp.w d4, d0
 < 0x007653e6      6604           bne.b 0x7653ec
 > 0x007653e8      7c00           moveq 0x0, d6
 < 0x007653ea      6018           bra.b 0x765404
 > 0x007653ec      48c7           ext.l d7
     0x007653ee      2007           move.l d7, d0
     0x007653f0      5280           addq.l 0x1, d0
     0x007653f2      9083           sub.l d3, d0
     0x007653f4      0c800000ffff   cmpi.l 0xffff, d0
 < 0x007653fa      6302           bls.b 0x7653fe
    0x007653fc      4e4f           trap 0xf
 > 0x007653fe      d083           add.l d3, d0
     0x00765400      3e00           move.w d0, d7
     0x00765402      2854           movea.l (a4), a4
  < 0x00765404      60b6           bra.b 0x7653bc
   > 0x00765406      3d47000c       move.w d7, 0xc(a6)
           0x0076540a      4cdf13ff       movem.l (a7)+, d0-d7/a0-a1/a4
           0x0076540e      4e5e           unlk a6
           0x00765410      4e75           rts
            ; CALL XREFS from MENUTYPECOM.hit_flip_tumble @ 0x76844e, 0x76850e
 298: MENUTYPECOM.select_word ();
           0x00765412      4e56ffba       link.w a6, 0xffba
           0x00765416      bfd5           cmpa.l (a5), a7
       < 0x00765418      6206           bhi.b 0x765420
          0x0076541a      44fc0002       move.w 0x2, ccr
          0x0076541e      4e76           trapv
       > 0x00765420      defc0040       adda.w 0x40, a7
           0x00765424      48e7f9f8       movem.l d0-d4/d7/a0-a4, -(a7)
           0x00765428      47f90086e7e0   lea.l 0x86e7e0, a3
           0x0076542e      7401           moveq 0x1, d2
           0x00765430      7620           moveq 0x20, d3
           0x00765432      383c0404       move.w 0x404, d4
           0x00765436      206e0010       movea.l 0x10(a6), a0
           0x0076543a      b1e8fffc       cmpa.l -0x4(a0), a0
       < 0x0076543e      6702           beq.b 0x765442
          0x00765440      4e4d           trap 0xd
       > 0x00765442      30280010       move.w 0x10(a0), d0
           0x00765446      224b           movea.l a3, a1
           0x00765448      3200           move.w d0, d1
           0x0076544a      e649           lsr.w 0x3, d1
           0x0076544c      b243           cmp.w d3, d1
       < 0x0076544e      6d04           blt.b 0x765454
          0x00765450      7200           moveq 0x0, d1
      < 0x00765452      6004           bra.b 0x765458
      > 0x00765454      01311000       btst.l d0, (a1, d1.w)
      < 0x00765458      6604           bne.b 0x76545e
          0x0076545a      b044           cmp.w d4, d0
      < 0x0076545c      6614           bne.b 0x765472
      > 0x0076545e      226e000c       movea.l 0xc(a6), a1
          0x00765462      22ae0010       move.l 0x10(a6), (a1)
          0x00765466      226e0008       movea.l 0x8(a6), a1
          0x0076546a      22ae0010       move.l 0x10(a6), (a1)
      < 0x0076546e      600000c4       bra.w 0x765534
      > 0x00765472      28680004       movea.l 0x4(a0), a4
          0x00765476      7e01           moveq 0x1, d7
          0x00765478      226e0008       movea.l 0x8(a6), a1
      > 0x0076547c      4a07           tst.b d7
     < 0x0076547e      6734           beq.b 0x7654b4
        0x00765480      b8c2           cmpa.w d2, a4
    < 0x00765482      6730           beq.b 0x7654b4
       0x00765484      b9ecfffc       cmpa.l -0x4(a4), a4
   < 0x00765488      6702           beq.b 0x76548c
      0x0076548a      4e4d           trap 0xd
   > 0x0076548c      302c0010       move.w 0x10(a4), d0
       0x00765490      244b           movea.l a3, a2
       0x00765492      3200           move.w d0, d1
       0x00765494      e649           lsr.w 0x3, d1
       0x00765496      b243           cmp.w d3, d1
   < 0x00765498      6d04           blt.b 0x76549e
      0x0076549a      7200           moveq 0x0, d1
  < 0x0076549c      6004           bra.b 0x7654a2
  > 0x0076549e      01321000       btst.l d0, (a2, d1.w)
  < 0x007654a2      6604           bne.b 0x7654a8
      0x007654a4      b044           cmp.w d4, d0
  < 0x007654a6      6606           bne.b 0x7654ae
  > 0x007654a8      2294           move.l (a4), (a1)
      0x007654aa      7e00           moveq 0x0, d7
  < 0x007654ac      6004           bra.b 0x7654b2
  > 0x007654ae      286c0004       movea.l 0x4(a4), a4
   < 0x007654b2      60c8           bra.b 0x76547c
    > 0x007654b4      b8c2           cmpa.w d2, a4
      < 0x007654b6      6616           bne.b 0x7654ce
         0x007654b8      226e0008       movea.l 0x8(a6), a1
         0x007654bc      24790086e6e8   movea.l 0x86e6e8, a2
         0x007654c2      b5eafffc       cmpa.l -0x4(a2), a2
     < 0x007654c6      6702           beq.b 0x7654ca
        0x007654c8      4e4d           trap 0xd
     > 0x007654ca      22aa000c       move.l 0xc(a2), (a1)
      > 0x007654ce      226e0010       movea.l 0x10(a6), a1
          0x007654d2      b3e9fffc       cmpa.l -0x4(a1), a1
      < 0x007654d6      6702           beq.b 0x7654da
         0x007654d8      4e4d           trap 0xd
      > 0x007654da      2851           movea.l (a1), a4
          0x007654dc      7e01           moveq 0x1, d7
          0x007654de      226e000c       movea.l 0xc(a6), a1
      > 0x007654e2      4a07           tst.b d7
     < 0x007654e4      6734           beq.b 0x76551a
        0x007654e6      b8c2           cmpa.w d2, a4
    < 0x007654e8      6730           beq.b 0x76551a
       0x007654ea      b9ecfffc       cmpa.l -0x4(a4), a4
   < 0x007654ee      6702           beq.b 0x7654f2
      0x007654f0      4e4d           trap 0xd
   > 0x007654f2      302c0010       move.w 0x10(a4), d0
       0x007654f6      244b           movea.l a3, a2
       0x007654f8      3200           move.w d0, d1
       0x007654fa      e649           lsr.w 0x3, d1
       0x007654fc      b243           cmp.w d3, d1
   < 0x007654fe      6d04           blt.b 0x765504
      0x00765500      7200           moveq 0x0, d1
  < 0x00765502      6004           bra.b 0x765508
  > 0x00765504      01321000       btst.l d0, (a2, d1.w)
  < 0x00765508      6604           bne.b 0x76550e
      0x0076550a      b044           cmp.w d4, d0
  < 0x0076550c      6608           bne.b 0x765516
  > 0x0076550e      22ac0004       move.l 0x4(a4), (a1)
      0x00765512      7e00           moveq 0x0, d7
  < 0x00765514      6002           bra.b 0x765518
  > 0x00765516      2854           movea.l (a4), a4
   < 0x00765518      60c8           bra.b 0x7654e2
    > 0x0076551a      b8c2           cmpa.w d2, a4
      < 0x0076551c      6616           bne.b 0x765534
         0x0076551e      226e000c       movea.l 0xc(a6), a1
         0x00765522      24790086e6e8   movea.l 0x86e6e8, a2
         0x00765528      b5eafffc       cmpa.l -0x4(a2), a2
     < 0x0076552c      6702           beq.b 0x765530
        0x0076552e      4e4d           trap 0xd
     > 0x00765530      22aa0008       move.l 0x8(a2), (a1)
      > 0x00765534      4cdf1f9f       movem.l (a7)+, d0-d4/d7/a0-a4
           0x00765538      4e5e           unlk a6
           0x0076553a      4e75           rts
            ; CALL XREF from MENUTYPECOM.clear_type @ 0x765b26
            ; CALL XREF from MENUTYPECOM.sel_font_title @ 0x766da0
            ; CALL XREF from MENUTYPECOM.enbuffer_font @ 0x767210
            ; CALL XREF from MENUTYPECOM.hit_line_char @ 0x76814c
            ; CALL XREF from MENUTYPECOM @ +0x8626
 966: MENUTYPECOM.update_type_box ();
           0x0076553c      4e56ff9e       link.w a6, 0xff9e
           0x00765540      bfd5           cmpa.l (a5), a7
       < 0x00765542      6206           bhi.b 0x76554a
          0x00765544      44fc0002       move.w 0x2, ccr
          0x00765548      4e76           trapv
       > 0x0076554a      defc005a       adda.w 0x5a, a7
           0x0076554e      48e7fef8       movem.l d0-d6/a0-a4, -(a7)
           0x00765552      47f90086e6d8   lea.l 0x86e6d8, a3
           0x00765558      49f900408686   lea.l fcn.00408686, a4
           0x0076555e      7a01           moveq 0x1, d5
           0x00765560      7c0a           moveq 0xa, d6
           0x00765562      20790086e6e8   movea.l 0x86e6e8, a0
           0x00765568      b0c5           cmpa.w d5, a0
       < 0x0076556a      6700038e       beq.w 0x7658fa
          0x0076556e      b1e8fffc       cmpa.l -0x4(a0), a0
      < 0x00765572      6702           beq.b 0x765576
         0x00765574      4e4d           trap 0xd
      > 0x00765576      30280010       move.w 0x10(a0), d0
          0x0076557a      48c0           ext.l d0
          0x0076557c      32390086e6c4   move.w 0x86e6c4, d1
          0x00765582      48c1           ext.l d1
          0x00765584      4481           neg.l d1
          0x00765586      d280           add.l d0, d1
          0x00765588      2801           move.l d1, d4
          0x0076558a      4e94           jsr (a4)                    ; fcn.0000000d
          0x0076558c      2f04           move.l d4, -(a7)
          0x0076558e      7808           moveq 0x8, d4
          0x00765590      4e94           jsr (a4)                    ; fcn.0000000d
          0x00765592      2f04           move.l d4, -(a7)
          0x00765594      2604           move.l d4, d3
          0x00765596      282f0004       move.l 0x4(a7), d4
          0x0076559a      4eb900407ff8   jsr fcn.00407ff8
          0x007655a0      2d44fff8       move.l d4, -0x8(a6)
          0x007655a4      30390086e6c6   move.w 0x86e6c6, d0
          0x007655aa      48c0           ext.l d0
          0x007655ac      32280012       move.w 0x12(a0), d1
          0x007655b0      48c1           ext.l d1
          0x007655b2      4481           neg.l d1
          0x007655b4      d280           add.l d0, d1
          0x007655b6      2801           move.l d1, d4
          0x007655b8      4e94           jsr (a4)                    ; fcn.0000000d
          0x007655ba      2017           move.l (a7), d0
          0x007655bc      2600           move.l d0, d3
          0x007655be      4eb900407ff8   jsr fcn.00407ff8
          0x007655c4      2d44fffc       move.l d4, -0x4(a6)
          0x007655c8      4a390086e686   tst.b 0x86e686
      < 0x007655ce      670a           beq.b 0x7655da
         0x007655d0      486efff8       pea.l -0x8(a6)
         0x007655d4      4ebae302       jsr MENUTYPECOM.scale_point(pc)
         0x007655d8      584f           addq.w 0x4, a7
      > 0x007655da      3f390086e7ae   move.w 0x86e7ae, -(a7)
          0x007655e0      2f2efff8       move.l -0x8(a6), -(a7)
          0x007655e4      4227           clr.b -(a7)
          0x007655e6      1f05           move.b d5, -(a7)
          0x007655e8      4eb90048da84   jsr MENU2COM.set_numeric_val
          0x007655ee      504f           addq.w 0x8, a7
          0x007655f0      3eb90086e7b0   move.w 0x86e7b0, (a7)
          0x007655f6      2f2efffc       move.l -0x4(a6), -(a7)
          0x007655fa      4227           clr.b -(a7)
          0x007655fc      1f05           move.b d5, -(a7)
          0x007655fe      4eb90048da84   jsr MENU2COM.set_numeric_val
          0x00765604      5c4f           addq.w 0x6, a7
          0x00765606      3eb90086e7a6   move.w 0x86e7a6, (a7)
          0x0076560c      4eb900480fc2   jsr MENUCOM.get_boxon
          0x00765612      544f           addq.w 0x2, a7
          0x00765614      4a1f           tst.b (a7)+
      < 0x00765616      6608           bne.b 0x765620
         0x00765618      4a2e0008       tst.b 0x8(a6)
     < 0x0076561c      670000ae       beq.w 0x7656cc
     > 0x00765620      3f390086e7b2   move.w 0x86e7b2, -(a7)
         0x00765626      2253           movea.l (a3), a1
         0x00765628      b3e9fffc       cmpa.l -0x4(a1), a1
     < 0x0076562c      6702           beq.b 0x765630
        0x0076562e      4e4d           trap 0xd
     > 0x00765630      2f290038       move.l 0x38(a1), -(a7)
         0x00765634      4227           clr.b -(a7)
         0x00765636      1f05           move.b d5, -(a7)
         0x00765638      4eb90048da84   jsr MENU2COM.set_numeric_val
         0x0076563e      dec6           adda.w d6, a7
         0x00765640      7840           moveq 0x40, d4
         0x00765642      4e94           jsr (a4)                    ; fcn.0000000d
         0x00765644      2f04           move.l d4, -(a7)
         0x00765646      3f390086e7b4   move.w 0x86e7b4, -(a7)
         0x0076564c      26390086e7d0   move.l 0x86e7d0, d3
         0x00765652      4eb900407e92   jsr fcn.00407e92
         0x00765658      594f           subq.w 0x4, a7
         0x0076565a      2f04           move.l d4, -(a7)
         0x0076565c      2253           movea.l (a3), a1
         0x0076565e      b3e9fffc       cmpa.l -0x4(a1), a1
     < 0x00765662      6702           beq.b 0x765666
        0x00765664      4e4d           trap 0xd
     > 0x00765666      28290048       move.l 0x48(a1), d4
         0x0076566a      4e94           jsr (a4)                    ; fcn.0000000d
         0x0076566c      2617           move.l (a7), d3
         0x0076566e      4eb900407ff8   jsr fcn.00407ff8
         0x00765674      584f           addq.w 0x4, a7
         0x00765676      2e84           move.l d4, (a7)
         0x00765678      4227           clr.b -(a7)
         0x0076567a      1f05           move.b d5, -(a7)
         0x0076567c      4eb90048da84   jsr MENU2COM.set_numeric_val
         0x00765682      504f           addq.w 0x8, a7
         0x00765684      3eb90086e7ba   move.w 0x86e7ba, (a7)
         0x0076568a      282f0002       move.l 0x2(a7), d4
         0x0076568e      26390086e7d4   move.l 0x86e7d4, d3
         0x00765694      4eb900407e92   jsr fcn.00407e92
         0x0076569a      594f           subq.w 0x4, a7
         0x0076569c      2f04           move.l d4, -(a7)
         0x0076569e      2253           movea.l (a3), a1
         0x007656a0      b3e9fffc       cmpa.l -0x4(a1), a1
     < 0x007656a4      6702           beq.b 0x7656a8
        0x007656a6      4e4d           trap 0xd
     > 0x007656a8      2829004c       move.l 0x4c(a1), d4
         0x007656ac      4e94           jsr (a4)                    ; fcn.0000000d
         0x007656ae      2617           move.l (a7), d3
         0x007656b0      4eb900407ff8   jsr fcn.00407ff8
         0x007656b6      584f           addq.w 0x4, a7
     > 0x007656b8      2e84           move.l d4, (a7)
        0x007656ba      4227           clr.b -(a7)
        0x007656bc      1f05           move.b d5, -(a7)
        0x007656be      4eb90048da84   jsr MENU2COM.set_numeric_val
        0x007656c4      defc000e       adda.w 0xe, a7
    < 0x007656c8      60000108       bra.w 0x7657d2
    > 0x007656cc      554f           subq.w 0x2, a7
        0x007656ce      3f390086e7a4   move.w 0x86e7a4, -(a7)
        0x007656d4      4eb900480fc2   jsr MENUCOM.get_boxon
        0x007656da      544f           addq.w 0x2, a7
        0x007656dc      4a1f           tst.b (a7)+
    < 0x007656de      67000086       beq.w 0x765766
       0x007656e2      3f390086e7b2   move.w 0x86e7b2, -(a7)
       0x007656e8      594f           subq.w 0x4, a7
       0x007656ea      2f13           move.l (a3), -(a7)
       0x007656ec      4ebaf80a       jsr MENUTYPECOM.find_word_heigh(pc)
       0x007656f0      544f           addq.w 0x2, a7
       0x007656f2      4217           clr.b (a7)
       0x007656f4      1f05           move.b d5, -(a7)
       0x007656f6      4eb90048da84   jsr MENU2COM.set_numeric_val
       0x007656fc      dec6           adda.w d6, a7
       0x007656fe      7840           moveq 0x40, d4
       0x00765700      4e94           jsr (a4)                    ; fcn.0000000d
       0x00765702      2f04           move.l d4, -(a7)
       0x00765704      3f390086e7b4   move.w 0x86e7b4, -(a7)
       0x0076570a      26390086e7d0   move.l 0x86e7d0, d3
       0x00765710      4eb900407e92   jsr fcn.00407e92
       0x00765716      514f           subq.w 0x8, a7
       0x00765718      2f13           move.l (a3), -(a7)
       0x0076571a      4ebaf92e       jsr MENUTYPECOM.find_word_kern(pc)
       0x0076571e      584f           addq.w 0x4, a7
       0x00765720      2604           move.l d4, d3
       0x00765722      281f           move.l (a7)+, d4
       0x00765724      4eb900407ff8   jsr fcn.00407ff8
       0x0076572a      2e84           move.l d4, (a7)
       0x0076572c      4227           clr.b -(a7)
       0x0076572e      1f05           move.b d5, -(a7)
       0x00765730      4eb90048da84   jsr MENU2COM.set_numeric_val
       0x00765736      504f           addq.w 0x8, a7
       0x00765738      3eb90086e7ba   move.w 0x86e7ba, (a7)
       0x0076573e      282f0002       move.l 0x2(a7), d4
       0x00765742      26390086e7d4   move.l 0x86e7d4, d3
       0x00765748      4eb900407e92   jsr fcn.00407e92
       0x0076574e      514f           subq.w 0x8, a7
       0x00765750      2f13           move.l (a3), -(a7)
       0x00765752      4ebafa52       jsr MENUTYPECOM.find_word_jump(pc)
       0x00765756      584f           addq.w 0x4, a7
       0x00765758      2604           move.l d4, d3
       0x0076575a      281f           move.l (a7)+, d4
       0x0076575c      4eb900407ff8   jsr fcn.00407ff8
    < 0x00765762      6000ff54       bra.w 0x7656b8
    > 0x00765766      3f390086e7b2   move.w 0x86e7b2, -(a7)
         0x0076576c      22790086e6e8   movea.l 0x86e6e8, a1
         0x00765772      b3e9fffc       cmpa.l -0x4(a1), a1
     < 0x00765776      6702           beq.b 0x76577a
        0x00765778      4e4d           trap 0xd
     > 0x0076577a      2f29001a       move.l 0x1a(a1), -(a7)
         0x0076577e      4227           clr.b -(a7)
         0x00765780      1f05           move.b d5, -(a7)
         0x00765782      4eb90048da84   jsr MENU2COM.set_numeric_val
         0x00765788      504f           addq.w 0x8, a7
         0x0076578a      3eb90086e7b4   move.w 0x86e7b4, (a7)
         0x00765790      7840           moveq 0x40, d4
         0x00765792      4e94           jsr (a4)                    ; fcn.0000000d
         0x00765794      594f           subq.w 0x4, a7
         0x00765796      26390086e7d0   move.l 0x86e7d0, d3
         0x0076579c      4eb900407e92   jsr fcn.00407e92
         0x007657a2      2f04           move.l d4, -(a7)
         0x007657a4      22790086e6e8   movea.l 0x86e6e8, a1
         0x007657aa      b3e9fffc       cmpa.l -0x4(a1), a1
     < 0x007657ae      6702           beq.b 0x7657b2
        0x007657b0      4e4d           trap 0xd
     > 0x007657b2      3829001e       move.w 0x1e(a1), d4
         0x007657b6      48c4           ext.l d4
         0x007657b8      4e94           jsr (a4)                    ; fcn.0000000d
         0x007657ba      2617           move.l (a7), d3
         0x007657bc      4eb900407ff8   jsr fcn.00407ff8
         0x007657c2      584f           addq.w 0x4, a7
         0x007657c4      2e84           move.l d4, (a7)
         0x007657c6      4227           clr.b -(a7)
         0x007657c8      1f05           move.b d5, -(a7)
         0x007657ca      4eb90048da84   jsr MENU2COM.set_numeric_val
         0x007657d0      dec6           adda.w d6, a7
    > 0x007657d2      3f390086e7bc   move.w 0x86e7bc, -(a7)
          0x007657d8      2253           movea.l (a3), a1
          0x007657da      b3e9fffc       cmpa.l -0x4(a1), a1
      < 0x007657de      6702           beq.b 0x7657e2
         0x007657e0      4e4d           trap 0xd
      > 0x007657e2      12290050       move.b 0x50(a1), d1
          0x007657e6      4881           ext.w d1
          0x007657e8      4385           chk.w d5, d1
          0x007657ea      1f01           move.b d1, -(a7)
          0x007657ec      4eb900483776   jsr MENUCOM.swtch_box
          0x007657f2      544f           addq.w 0x2, a7
          0x007657f4      3eb90086e7be   move.w 0x86e7be, (a7)
          0x007657fa      2253           movea.l (a3), a1
          0x007657fc      b3e9fffc       cmpa.l -0x4(a1), a1
      < 0x00765800      6702           beq.b 0x765804
         0x00765802      4e4d           trap 0xd
      > 0x00765804      12290051       move.b 0x51(a1), d1
          0x00765808      4881           ext.w d1
          0x0076580a      4385           chk.w d5, d1
          0x0076580c      1f01           move.b d1, -(a7)
          0x0076580e      4eb900483776   jsr MENUCOM.swtch_box
          0x00765814      584f           addq.w 0x4, a7
          0x00765816      22790086e6e8   movea.l 0x86e6e8, a1
          0x0076581c      b3e9fffc       cmpa.l -0x4(a1), a1
      < 0x00765820      6702           beq.b 0x765824
         0x00765822      4e4d           trap 0xd
      > 0x00765824      24690004       movea.l 0x4(a1), a2
          0x00765828      b4c5           cmpa.w d5, a2
      < 0x0076582a      676c           beq.b 0x765898
         0x0076582c      12390086e7de   move.b 0x86e7de, d1
         0x00765832      4881           ext.w d1
         0x00765834      033ada70       btst.l d1, 0x7632a6(pc)
     < 0x00765838      6744           beq.b 0x76587e
        0x0076583a      3f390086e7b6   move.w 0x86e7b6, -(a7)
        0x00765840      b5eafffc       cmpa.l -0x4(a2), a2
    < 0x00765844      6702           beq.b 0x765848
       0x00765846      4e4d           trap 0xd
    > 0x00765848      32290012       move.w 0x12(a1), d1
        0x0076584c      48c1           ext.l d1
        0x0076584e      342a0012       move.w 0x12(a2), d2
    > 0x00765852      48c2           ext.l d2
       0x00765854      4482           neg.l d2
       0x00765856      d481           add.l d1, d2
       0x00765858      2802           move.l d2, d4
       0x0076585a      4e94           jsr (a4)                    ; fcn.0000000d
       0x0076585c      594f           subq.w 0x4, a7
       0x0076585e      2f04           move.l d4, -(a7)
       0x00765860      2800           move.l d0, d4
       0x00765862      26390086e7d4   move.l 0x86e7d4, d3
       0x00765868      4eb900407e92   jsr fcn.00407e92
       0x0076586e      2604           move.l d4, d3
       0x00765870      2817           move.l (a7), d4
       0x00765872      4eb900407ff8   jsr fcn.00407ff8
       0x00765878      584f           addq.w 0x4, a7
       0x0076587a      2e84           move.l d4, (a7)
   < 0x0076587c      6026           bra.b 0x7658a4
   > 0x0076587e      3f390086e7b6   move.w 0x86e7b6, -(a7)
       0x00765884      b5eafffc       cmpa.l -0x4(a2), a2
   < 0x00765888      6702           beq.b 0x76588c
      0x0076588a      4e4d           trap 0xd
   > 0x0076588c      32290010       move.w 0x10(a1), d1
       0x00765890      48c1           ext.l d1
       0x00765892      342a0010       move.w 0x10(a2), d2
   < 0x00765896      60ba           bra.b 0x765852
     > 0x00765898      3f390086e7b6   move.w 0x86e7b6, -(a7)
         0x0076589e      7800           moveq 0x0, d4
         0x007658a0      4e94           jsr (a4)                    ; fcn.0000000d
         0x007658a2      2f04           move.l d4, -(a7)
   > 0x007658a4      4227           clr.b -(a7)
          0x007658a6      1f05           move.b d5, -(a7)
          0x007658a8      4eb90048da84   jsr MENU2COM.set_numeric_val
          0x007658ae      dec6           adda.w d6, a7
          0x007658b0      5c4f           addq.w 0x6, a7
          0x007658b2      3eb90086e7b8   move.w 0x86e7b8, (a7)
          0x007658b8      7840           moveq 0x40, d4
          0x007658ba      4e94           jsr (a4)                    ; fcn.0000000d
          0x007658bc      594f           subq.w 0x4, a7
          0x007658be      26390086e7d0   move.l 0x86e7d0, d3
          0x007658c4      4eb900407e92   jsr fcn.00407e92
          0x007658ca      2f04           move.l d4, -(a7)
          0x007658cc      22790086e6e8   movea.l 0x86e6e8, a1
          0x007658d2      b3e9fffc       cmpa.l -0x4(a1), a1
      < 0x007658d6      6702           beq.b 0x7658da
         0x007658d8      4e4d           trap 0xd
      > 0x007658da      38290020       move.w 0x20(a1), d4
          0x007658de      48c4           ext.l d4
          0x007658e0      4e94           jsr (a4)                    ; fcn.0000000d
          0x007658e2      2617           move.l (a7), d3
          0x007658e4      4eb900407ff8   jsr fcn.00407ff8
          0x007658ea      584f           addq.w 0x4, a7
          0x007658ec      2e84           move.l d4, (a7)
          0x007658ee      4227           clr.b -(a7)
          0x007658f0      1f05           move.b d5, -(a7)
          0x007658f2      4eb90048da84   jsr MENU2COM.set_numeric_val
          0x007658f8      dec6           adda.w d6, a7
       > 0x007658fa      4cdf1f7f       movem.l (a7)+, d0-d6/a0-a4
           0x007658fe      4e5e           unlk a6
           0x00765900      4e75           rts
            ; CALL XREF from MENUTYPECOM.enbuffer_font @ 0x76714c
            ; CALL XREF from MENUTYPECOM.debuffer_font @ 0x767292
            ; CALL XREFS from MENUTYPECOM.menutype_init @ 0x82a2, 0x76d380
 562: MENUTYPECOM.clear_type ();
           0x00765902      4e56ff68       link.w a6, 0xff68
           0x00765906      bfd5           cmpa.l (a5), a7
       < 0x00765908      6206           bhi.b 0x765910
          0x0076590a      44fc0002       move.w 0x2, ccr
          0x0076590e      4e76           trapv
       > 0x00765910      defc0052       adda.w 0x52, a7
           0x00765914      48e7f9f8       movem.l d0-d4/d7/a0-a4, -(a7)
           0x00765918      45f90086e6e8   lea.l 0x86e6e8, a2
           0x0076591e      7401           moveq 0x1, d2
           0x00765920      263cffff8000   move.l 0xffff8000, d3
           0x00765926      283c0000ffff   move.l 0xffff, d4
           0x0076592c      4a2e0008       tst.b 0x8(a6)
       < 0x00765930      6616           bne.b 0x765948
          0x00765932      2052           movea.l (a2), a0
          0x00765934      b1e8fffc       cmpa.l -0x4(a0), a0
      < 0x00765938      6702           beq.b 0x76593c
         0x0076593a      4e4d           trap 0xd
      > 0x0076593c      43eeffbc       lea.l -0x44(a6), a1
          0x00765940      702b           moveq 0x2b, d0
      > 0x00765942      12d8           move.b (a0)+, (a1)+
      < 0x00765944      51c8fffc       dbra d0, 0x765942
       > 0x00765948      26790086e6e4   movea.l 0x86e6e4, a3
       > 0x0076594e      b6c2           cmpa.w d2, a3
      < 0x00765950      674e           beq.b 0x7659a0
         0x00765952      b7ebfffc       cmpa.l -0x4(a3), a3
     < 0x00765956      6702           beq.b 0x76595a
        0x00765958      4e4d           trap 0xd
     > 0x0076595a      286b0008       movea.l 0x8(a3), a4
     > 0x0076595e      b8c2           cmpa.w d2, a4
    < 0x00765960      671e           beq.b 0x765980
       0x00765962      2d4cffe8       move.l a4, -0x18(a6)
       0x00765966      b9ecfffc       cmpa.l -0x4(a4), a4
   < 0x0076596a      6702           beq.b 0x76596e
      0x0076596c      4e4d           trap 0xd
   > 0x0076596e      286c0004       movea.l 0x4(a4), a4
       0x00765972      486effe8       pea.l -0x18(a6)
       0x00765976      4eb90076ee76   jsr TYPECOM.dispose_type_ch
       0x0076597c      584f           addq.w 0x4, a7
    < 0x0076597e      60de           bra.b 0x76595e
    > 0x00765980      2d4bfff0       move.l a3, -0x10(a6)
         0x00765984      b7ebfffc       cmpa.l -0x4(a3), a3
     < 0x00765988      6702           beq.b 0x76598c
        0x0076598a      4e4d           trap 0xd
     > 0x0076598c      2653           movea.l (a3), a3
         0x0076598e      486efff0       pea.l -0x10(a6)
         0x00765992      4878002c       pea.l 0x2c
         0x00765996      4eb900403b98   jsr p_Dispos
         0x0076599c      504f           addq.w 0x8, a7
      < 0x0076599e      60ae           bra.b 0x76594e
      > 0x007659a0      4a390086e686   tst.b 0x86e686
       < 0x007659a6      6706           beq.b 0x7659ae
          0x007659a8      3e3c0180       move.w 0x180, d7
      < 0x007659ac      6004           bra.b 0x7659b2
      > 0x007659ae      3e3c0080       move.w 0x80, d7
      > 0x007659b2      48790086e6e4   pea.l 0x86e6e4
           0x007659b8      4878002c       pea.l 0x2c
           0x007659bc      4eb900403a92   jsr p_New
           0x007659c2      504f           addq.w 0x8, a7
           0x007659c4      24b90086e6e4   move.l 0x86e6e4, (a2)
           0x007659ca      2052           movea.l (a2), a0
           0x007659cc      b1e8fffc       cmpa.l -0x4(a0), a0
       < 0x007659d0      6702           beq.b 0x7659d4
          0x007659d2      4e4d           trap 0xd
       > 0x007659d4      2082           move.l d2, (a0)
           0x007659d6      21420004       move.l d2, 0x4(a0)
           0x007659da      42280022       clr.b 0x22(a0)
           0x007659de      42280023       clr.b 0x23(a0)
           0x007659e2      23fc001a0000.  move.l 0x1a0000, 0x86e6f0.l
           0x007659ec      4a2e0008       tst.b 0x8(a6)
       < 0x007659f0      670000ae       beq.w 0x765aa0
          0x007659f4      317c00d00010   move.w 0xd0, 0x10(a0)
          0x007659fa      48c7           ext.l d7
          0x007659fc      2007           move.l d7, d0
          0x007659fe      e780           asl.l 0x3, d0
          0x00765a00      9083           sub.l d3, d0
          0x00765a02      b084           cmp.l d4, d0
      < 0x00765a04      6302           bls.b 0x765a08
         0x00765a06      4e4f           trap 0xf
      > 0x00765a08      d083           add.l d3, d0
          0x00765a0a      31400012       move.w d0, 0x12(a0)
          0x00765a0e      4a390086e7de   tst.b 0x86e7de
      < 0x00765a14      6774           beq.b 0x765a8a
         0x00765a16      514f           subq.w 0x8, a7
         0x00765a18      4227           clr.b -(a7)
         0x00765a1a      4eb9006336ea   jsr HANDCOM.get_area
         0x00765a20      544f           addq.w 0x2, a7
         0x00765a22      2d5ffff8       move.l (a7)+, -0x8(a6)
         0x00765a26      2d5ffffc       move.l (a7)+, -0x4(a6)
         0x00765a2a      10390086e7de   move.b 0x86e7de, d0
         0x00765a30      b002           cmp.b d2, d0
     < 0x00765a32      6624           bne.b 0x765a58
        0x00765a34      302efff8       move.w -0x8(a6), d0
        0x00765a38      48c0           ext.l d0
        0x00765a3a      322efffc       move.w -0x4(a6), d1
        0x00765a3e      48c1           ext.l d1
        0x00765a40      d280           add.l d0, d1
        0x00765a42      e781           asl.l 0x3, d1
        0x00765a44      30280010       move.w 0x10(a0), d0
        0x00765a48      48c0           ext.l d0
        0x00765a4a      4480           neg.l d0
        0x00765a4c      d081           add.l d1, d0
        0x00765a4e      9083           sub.l d3, d0
        0x00765a50      b084           cmp.l d4, d0
    < 0x00765a52      6302           bls.b 0x765a56
       0x00765a54      4e4f           trap 0xf
   > 0x00765a56      602c           bra.b 0x765a84
    > 0x00765a58      10390086e7df   move.b 0x86e7df, d0
        0x00765a5e      b002           cmp.b d2, d0
    < 0x00765a60      6628           bne.b 0x765a8a
       0x00765a62      302efff8       move.w -0x8(a6), d0
       0x00765a66      48c0           ext.l d0
       0x00765a68      322efffc       move.w -0x4(a6), d1
       0x00765a6c      48c1           ext.l d1
       0x00765a6e      d280           add.l d0, d1
       0x00765a70      e781           asl.l 0x3, d1
       0x00765a72      30280010       move.w 0x10(a0), d0
       0x00765a76      48c0           ext.l d0
       0x00765a78      4480           neg.l d0
       0x00765a7a      d081           add.l d1, d0
       0x00765a7c      9083           sub.l d3, d0
       0x00765a7e      b084           cmp.l d4, d0
   < 0x00765a80      6302           bls.b 0x765a84
      0x00765a82      4e4f           trap 0xf
   > 0x00765a84      d083           add.l d3, d0
        0x00765a86      31400010       move.w d0, 0x10(a0)
     > 0x00765a8a      42280018       clr.b 0x18(a0)
          0x00765a8e      4268001e       clr.w 0x1e(a0)
          0x00765a92      42680020       clr.w 0x20(a0)
          0x00765a96      217c42480000.  move.l 0x42480000, 0x1a(a0)
      < 0x00765a9e      6038           bra.b 0x765ad8
      > 0x00765aa0      116effcc0010   move.b -0x34(a6), 0x10(a0)
          0x00765aa6      116effcd0011   move.b -0x33(a6), 0x11(a0)
          0x00765aac      116effce0012   move.b -0x32(a6), 0x12(a0)
          0x00765ab2      116effcf0013   move.b -0x31(a6), 0x13(a0)
          0x00765ab8      102effd4       move.b -0x2c(a6), d0
          0x00765abc      4880           ext.w d0
          0x00765abe      41bc0002       chk.w 0x2, d0
          0x00765ac2      11400018       move.b d0, 0x18(a0)
          0x00765ac6      316effda001e   move.w -0x26(a6), 0x1e(a0)
          0x00765acc      316effdc0020   move.w -0x24(a6), 0x20(a0)
          0x00765ad2      216effd6001a   move.l -0x2a(a6), 0x1a(a0)
      > 0x00765ad8      554f           subq.w 0x2, a7
           0x00765ada      2f390086e6d0   move.l 0x86e6d0, -(a7)
           0x00765ae0      3f3c000d       move.w 0xd, -(a7)
           0x00765ae4      2f28001a       move.l 0x1a(a0), -(a7)
           0x00765ae8      3f280020       move.w 0x20(a0), -(a7)
           0x00765aec      4267           clr.w -(a7)
           0x00765aee      4267           clr.w -(a7)
           0x00765af0      4227           clr.b -(a7)
           0x00765af2      4227           clr.b -(a7)
           0x00765af4      2f390086e7da   move.l 0x86e7da, -(a7)
           0x00765afa      48680008       pea.l 0x8(a0)
           0x00765afe      4eb90076eba8   jsr TYPECOM.make_new_char
           0x00765b04      defc001c       adda.w 0x1c, a7
           0x00765b08      4a1f           tst.b (a7)+
           0x00765b0a      21680008000c   move.l 0x8(a0), 0xc(a0)
           0x00765b10      23e800080086.  move.l 0x8(a0), 0x86e6d8.l
           0x00765b18      3f390086e790   move.w 0x86e790, -(a7)
           0x00765b1e      4eb9004836a4   jsr MENUCOM.push_box
           0x00765b24      4217           clr.b (a7)
           0x00765b26      4ebafa14       jsr MENUTYPECOM.update_type_box(pc)
           0x00765b2a      544f           addq.w 0x2, a7
           0x00765b2c      4cdf1f9f       movem.l (a7)+, d0-d4/d7/a0-a4
           0x00765b30      4e5e           unlk a6
           0x00765b32      4e75           rts
 390: MENUTYPECOM.select_type_upd ();
           0x00765b34      4e56ffe4       link.w a6, 0xffe4
           0x00765b38      bfd5           cmpa.l (a5), a7
       < 0x00765b3a      6206           bhi.b 0x765b42
          0x00765b3c      44fc0002       move.w 0x2, ccr
          0x00765b40      4e76           trapv
       > 0x00765b42      defc001c       adda.w 0x1c, a7
           0x00765b46      48e7e0c0       movem.l d0-d2/a0-a1, -(a7)
           0x00765b4a      41ee000c       lea.l 0xc(a6), a0
           0x00765b4e      43ee0008       lea.l 0x8(a6), a1
           0x00765b52      7405           moveq 0x5, d2
           0x00765b54      4210           clr.b (a0)
           0x00765b56      4a6e000a       tst.w 0xa(a6)
       < 0x00765b5a      6624           bne.b 0x765b80
          0x00765b5c      4a11           tst.b (a1)
      < 0x00765b5e      6608           bne.b 0x765b68
         0x00765b60      10bc0001       move.b 0x1, (a0)
     < 0x00765b64      6000014c       bra.w 0x765cb2
     > 0x00765b68      1011           move.b (a1), d0
         0x00765b6a      4880           ext.w d0
         0x00765b6c      013ad752       btst.l d0, 0x7632c0(pc)
     < 0x00765b70      6708           beq.b 0x765b7a
        0x00765b72      10bc0002       move.b 0x2, (a0)
    < 0x00765b76      6000013a       bra.w 0x765cb2
 > 0x00765b7a      4210           clr.b (a0)
 < 0x00765b7c      60000134       bra.w 0x765cb2
 > 0x00765b80      302e000a       move.w 0xa(a6), d0
     0x00765b84      b0790086e7ae   cmp.w 0x86e7ae, d0
 < 0x00765b8a      6620           bne.b 0x765bac
    0x00765b8c      4a11           tst.b (a1)
 < 0x00765b8e      6608           bne.b 0x765b98
    0x00765b90      10bc0003       move.b 0x3, (a0)
 < 0x00765b94      6000011c       bra.w 0x765cb2
 > 0x00765b98      1211           move.b (a1), d1
    0x00765b9a      4881           ext.w d1
    0x00765b9c      033ad724       btst.l d1, 0x7632c2(pc)
 < 0x00765ba0      6708           beq.b 0x765baa
    0x00765ba2      10bc0004       move.b 0x4, (a0)
 < 0x00765ba6      6000010a       bra.w 0x765cb2
 < 0x00765baa      60ce           bra.b 0x765b7a
 > 0x00765bac      b0790086e7b0   cmp.w 0x86e7b0, d0
 < 0x00765bb2      661e           bne.b 0x765bd2
    0x00765bb4      4a11           tst.b (a1)
 < 0x00765bb6      6606           bne.b 0x765bbe
    0x00765bb8      1082           move.b d2, (a0)
 < 0x00765bba      600000f6       bra.w 0x765cb2
 > 0x00765bbe      1211           move.b (a1), d1
    0x00765bc0      4881           ext.w d1
    0x00765bc2      033ad700       btst.l d1, 0x7632c4(pc)
 < 0x00765bc6      6708           beq.b 0x765bd0
    0x00765bc8      10bc0006       move.b 0x6, (a0)
 < 0x00765bcc      600000e4       bra.w 0x765cb2
 < 0x00765bd0      60a8           bra.b 0x765b7a
  > 0x00765bd2      b0790086e7b2   cmp.w 0x86e7b2, d0
  < 0x00765bd8      6636           bne.b 0x765c10
     0x00765bda      1211           move.b (a1), d1
     0x00765bdc      4881           ext.w d1
     0x00765bde      033ad6e6       btst.l d1, 0x7632c6(pc)
 < 0x00765be2      6708           beq.b 0x765bec
    0x00765be4      10bc0008       move.b 0x8, (a0)
 < 0x00765be8      600000c8       bra.w 0x765cb2
 > 0x00765bec      033ad6da       btst.l d1, 0x7632c8(pc)
 < 0x00765bf0      6708           beq.b 0x765bfa
    0x00765bf2      10bc000a       move.b 0xa, (a0)
 < 0x00765bf6      600000ba       bra.w 0x765cb2
 > 0x00765bfa      033ad6ce       btst.l d1, 0x7632ca(pc)
 < 0x00765bfe      6708           beq.b 0x765c08
    0x00765c00      10bc0009       move.b 0x9, (a0)
 < 0x00765c04      600000ac       bra.w 0x765cb2
 > 0x00765c08      10bc0007       move.b 0x7, (a0)
 < 0x00765c0c      600000a4       bra.w 0x765cb2
 > 0x00765c10      b0790086e7b4   cmp.w 0x86e7b4, d0
 < 0x00765c16      6630           bne.b 0x765c48
    0x00765c18      1211           move.b (a1), d1
    0x00765c1a      4881           ext.w d1
    0x00765c1c      033ad6ae       btst.l d1, 0x7632cc(pc)
 < 0x00765c20      6708           beq.b 0x765c2a
    0x00765c22      10bc000c       move.b 0xc, (a0)
 < 0x00765c26      6000008a       bra.w 0x765cb2
 > 0x00765c2a      033ad6a2       btst.l d1, 0x7632ce(pc)
 < 0x00765c2e      6706           beq.b 0x765c36
    0x00765c30      10bc000e       move.b 0xe, (a0)
 < 0x00765c34      607c           bra.b 0x765cb2
 > 0x00765c36      033ad698       btst.l d1, 0x7632d0(pc)
 < 0x00765c3a      6706           beq.b 0x765c42
    0x00765c3c      10bc000d       move.b 0xd, (a0)
 < 0x00765c40      6070           bra.b 0x765cb2
 > 0x00765c42      10bc000b       move.b 0xb, (a0)
 < 0x00765c46      606a           bra.b 0x765cb2
 > 0x00765c48      b0790086e7b6   cmp.w 0x86e7b6, d0
 < 0x00765c4e      661e           bne.b 0x765c6e
    0x00765c50      4a11           tst.b (a1)
 < 0x00765c52      6606           bne.b 0x765c5a
    0x00765c54      10bc0011       move.b 0x11, (a0)
 < 0x00765c58      6058           bra.b 0x765cb2
 > 0x00765c5a      1211           move.b (a1), d1
    0x00765c5c      4881           ext.w d1
    0x00765c5e      033ad672       btst.l d1, 0x7632d2(pc)
 < 0x00765c62      6706           beq.b 0x765c6a
    0x00765c64      10bc0012       move.b 0x12, (a0)
 < 0x00765c68      6048           bra.b 0x765cb2
 < 0x00765c6a      6000ff0e       bra.w 0x765b7a
  > 0x00765c6e      b0790086e7b8   cmp.w 0x86e7b8, d0
  < 0x00765c74      661e           bne.b 0x765c94
     0x00765c76      4a11           tst.b (a1)
 < 0x00765c78      6606           bne.b 0x765c80
    0x00765c7a      10bc000f       move.b 0xf, (a0)
 < 0x00765c7e      6032           bra.b 0x765cb2
 > 0x00765c80      1211           move.b (a1), d1
     0x00765c82      4881           ext.w d1
     0x00765c84      033ad64e       btst.l d1, 0x7632d4(pc)
 < 0x00765c88      6706           beq.b 0x765c90
    0x00765c8a      10bc0010       move.b 0x10, (a0)
 < 0x00765c8e      6022           bra.b 0x765cb2
 < 0x00765c90      6000fee8       bra.w 0x765b7a
   > 0x00765c94      b0790086e7ba   cmp.w 0x86e7ba, d0
   < 0x00765c9a      6612           bne.b 0x765cae
      0x00765c9c      1211           move.b (a1), d1
      0x00765c9e      b202           cmp.b d2, d1
  < 0x00765ca0      6606           bne.b 0x765ca8
     0x00765ca2      10bc0013       move.b 0x13, (a0)
 < 0x00765ca6      600a           bra.b 0x765cb2
 > 0x00765ca8      10bc0014       move.b 0x14, (a0)
 < 0x00765cac      6004           bra.b 0x765cb2
 > 0x00765cae      10bc0015       move.b 0x15, (a0)
 > 0x00765cb2      4cdf0307       movem.l (a7)+, d0-d2/a0-a1
           0x00765cb6      4e5e           unlk a6
           0x00765cb8      4e75           rts
            ; CALL XREF from MENUTYPECOM.non_latin_check @ 0x765eee
            ; CALL XREF from MENUTYPECOM.add_make_char @ 0x7660d8
 260: MENUTYPECOM.replace_char ();
           0x00765cba      4e56ffb2       link.w a6, 0xffb2
           0x00765cbe      bfd5           cmpa.l (a5), a7
       < 0x00765cc0      6206           bhi.b 0x765cc8
          0x00765cc2      44fc0002       move.w 0x2, ccr
          0x00765cc6      4e76           trapv
       > 0x00765cc8      defc004a       adda.w 0x4a, a7
           0x00765ccc      48e7e0f8       movem.l d0-d2/a0-a4, -(a7)
           0x00765cd0      47eefffc       lea.l -0x4(a6), a3
           0x00765cd4      49ee0010       lea.l 0x10(a6), a4
           0x00765cd8      223cffff8000   move.l 0xffff8000, d1
           0x00765cde      7401           moveq 0x1, d2
           0x00765ce0      4aae000c       tst.l 0xc(a6)
       < 0x00765ce4      670000d0       beq.w 0x765db6
          0x00765ce8      2054           movea.l (a4), a0
          0x00765cea      b1e8fffc       cmpa.l -0x4(a0), a0
      < 0x00765cee      6702           beq.b 0x765cf2
         0x00765cf0      4e4d           trap 0xd
      > 0x00765cf2      226e0008       movea.l 0x8(a6), a1
          0x00765cf6      b3e9fffc       cmpa.l -0x4(a1), a1
      < 0x00765cfa      6702           beq.b 0x765cfe
         0x00765cfc      4e4d           trap 0xd
      > 0x00765cfe      554f           subq.w 0x2, a7
          0x00765d00      2f390086e6d0   move.l 0x86e6d0, -(a7)
          0x00765d06      202e000c       move.l 0xc(a6), d0
          0x00765d0a      9081           sub.l d1, d0
          0x00765d0c      0c800000ffff   cmpi.l 0xffff, d0
      < 0x00765d12      6302           bls.b 0x765d16
         0x00765d14      4e4f           trap 0xf
      > 0x00765d16      d081           add.l d1, d0
          0x00765d18      3f00           move.w d0, -(a7)
          0x00765d1a      2f280038       move.l 0x38(a0), -(a7)
          0x00765d1e      3f290020       move.w 0x20(a1), -(a7)
          0x00765d22      20280048       move.l 0x48(a0), d0
          0x00765d26      9081           sub.l d1, d0
          0x00765d28      0c800000ffff   cmpi.l 0xffff, d0
      < 0x00765d2e      6302           bls.b 0x765d32
         0x00765d30      4e4f           trap 0xf
      > 0x00765d32      d081           add.l d1, d0
          0x00765d34      3f00           move.w d0, -(a7)
          0x00765d36      4267           clr.w -(a7)
          0x00765d38      1f280050       move.b 0x50(a0), -(a7)
          0x00765d3c      1f280051       move.b 0x51(a0), -(a7)
          0x00765d40      2f390086e7da   move.l 0x86e7da, -(a7)
          0x00765d46      4853           pea.l (a3)
          0x00765d48      4eb90076eba8   jsr TYPECOM.make_new_char
          0x00765d4e      defc001c       adda.w 0x1c, a7
          0x00765d52      4a1f           tst.b (a7)+
      < 0x00765d54      6760           beq.b 0x765db6
         0x00765d56      2450           movea.l (a0), a2
         0x00765d58      b4c2           cmpa.w d2, a2
     < 0x00765d5a      670e           beq.b 0x765d6a
        0x00765d5c      b5eafffc       cmpa.l -0x4(a2), a2
    < 0x00765d60      6702           beq.b 0x765d64
       0x00765d62      4e4d           trap 0xd
    > 0x00765d64      25530004       move.l (a3), 0x4(a2)
    < 0x00765d68      6004           bra.b 0x765d6e
    > 0x00765d6a      23530008       move.l (a3), 0x8(a1)
    > 0x00765d6e      24680004       movea.l 0x4(a0), a2
         0x00765d72      b4c2           cmpa.w d2, a2
     < 0x00765d74      670c           beq.b 0x765d82
        0x00765d76      b5eafffc       cmpa.l -0x4(a2), a2
    < 0x00765d7a      6702           beq.b 0x765d7e
       0x00765d7c      4e4d           trap 0xd
    > 0x00765d7e      2493           move.l (a3), (a2)
    < 0x00765d80      6004           bra.b 0x765d86
    > 0x00765d82      2353000c       move.l (a3), 0xc(a1)
    > 0x00765d86      2453           movea.l (a3), a2
         0x00765d88      b5eafffc       cmpa.l -0x4(a2), a2
     < 0x00765d8c      6702           beq.b 0x765d90
        0x00765d8e      4e4d           trap 0xd
     > 0x00765d90      2490           move.l (a0), (a2)
         0x00765d92      256800040004   move.l 0x4(a0), 0x4(a2)
         0x00765d98      2454           movea.l (a4), a2
         0x00765d9a      b5f90086e6d8   cmpa.l 0x86e6d8, a2
     < 0x00765da0      6606           bne.b 0x765da8
        0x00765da2      23d30086e6d8   move.l (a3), 0x86e6d8
     > 0x00765da8      4854           pea.l (a4)
         0x00765daa      48780082       pea.l 0x82
         0x00765dae      4eb900403b98   jsr p_Dispos
         0x00765db4      504f           addq.w 0x8, a7
      > 0x00765db6      4cdf1f07       movem.l (a7)+, d0-d2/a0-a4
           0x00765dba      4e5e           unlk a6
           0x00765dbc      4e75           rts
            ; XREFS: CALL 0x007661d8  CALL 0x007661e8  CALL 0x0076a740  
            ; XREFS: CALL 0x0076a74c  CALL 0x0076aa7c  CALL 0x0076aa8a  
            ; XREFS: CALL 0x0076aace  CALL 0x0076aadc  
 320: MENUTYPECOM.non_latin_check ();
           0x00765dbe      4e56ffbc       link.w a6, 0xffbc
           0x00765dc2      bfd5           cmpa.l (a5), a7
       < 0x00765dc4      6206           bhi.b 0x765dcc
          0x00765dc6      44fc0002       move.w 0x2, ccr
          0x00765dca      4e76           trapv
       > 0x00765dcc      defc003e       adda.w 0x3e, a7
           0x00765dd0      48e7f3f0       movem.l d0-d3/d6-d7/a0-a3, -(a7)
           0x00765dd4      47eefffa       lea.l -0x6(a6), a3
           0x00765dd8      7401           moveq 0x1, d2
           0x00765dda      7620           moveq 0x20, d3
           0x00765ddc      206e000c       movea.l 0xc(a6), a0
           0x00765de0      b0c2           cmpa.w d2, a0
       < 0x00765de2      67000112       beq.w 0x765ef6
          0x00765de6      b1e8fffc       cmpa.l -0x4(a0), a0
      < 0x00765dea      6702           beq.b 0x765dee
         0x00765dec      4e4d           trap 0xd
      > 0x00765dee      554f           subq.w 0x2, a7
          0x00765df0      3f280010       move.w 0x10(a0), -(a7)
          0x00765df4      4853           pea.l (a3)
          0x00765df6      4eb9004a0e32   jsr MENUKEYBDCOM.check_in_group
          0x00765dfc      5c4f           addq.w 0x6, a7
          0x00765dfe      4a1f           tst.b (a7)+
      < 0x00765e00      670000f4       beq.w 0x765ef6
         0x00765e04      2250           movea.l (a0), a1
         0x00765e06      b2c2           cmpa.w d2, a1
     < 0x00765e08      672e           beq.b 0x765e38
        0x00765e0a      b3e9fffc       cmpa.l -0x4(a1), a1
    < 0x00765e0e      6702           beq.b 0x765e12
       0x00765e10      4e4d           trap 0xd
    > 0x00765e12      30290010       move.w 0x10(a1), d0
        0x00765e16      b043           cmp.w d3, d0
    < 0x00765e18      6706           beq.b 0x765e20
       0x00765e1a      0c400404       cmpi.w 0x404, d0
   < 0x00765e1e      6602           bne.b 0x765e22
  > 0x00765e20      6016           bra.b 0x765e38
  > 0x00765e22      554f           subq.w 0x2, a7
       0x00765e24      3f00           move.w d0, -(a7)
       0x00765e26      4eb9004a0fee   jsr MENUKEYBDCOM.no_medial_char
       0x00765e2c      544f           addq.w 0x2, a7
       0x00765e2e      4a1f           tst.b (a7)+
   < 0x00765e30      6702           beq.b 0x765e34
  < 0x00765e32      6004           bra.b 0x765e38
  > 0x00765e34      7e00           moveq 0x0, d7
  < 0x00765e36      6002           bra.b 0x765e3a
  > 0x00765e38      7e01           moveq 0x1, d7
    > 0x00765e3a      22680004       movea.l 0x4(a0), a1
         0x00765e3e      b2c2           cmpa.w d2, a1
     < 0x00765e40      672e           beq.b 0x765e70
        0x00765e42      b3e9fffc       cmpa.l -0x4(a1), a1
    < 0x00765e46      6702           beq.b 0x765e4a
       0x00765e48      4e4d           trap 0xd
    > 0x00765e4a      30290010       move.w 0x10(a1), d0
        0x00765e4e      45fad486       lea.l 0x7632d6(pc), a2
        0x00765e52      3200           move.w d0, d1
        0x00765e54      e649           lsr.w 0x3, d1
        0x00765e56      b243           cmp.w d3, d1
    < 0x00765e58      6d04           blt.b 0x765e5e
       0x00765e5a      7200           moveq 0x0, d1
   < 0x00765e5c      6004           bra.b 0x765e62
   > 0x00765e5e      01321000       btst.l d0, (a2, d1.w)
   < 0x00765e62      6606           bne.b 0x765e6a
       0x00765e64      0c400404       cmpi.w 0x404, d0
   < 0x00765e68      6602           bne.b 0x765e6c
  > 0x00765e6a      6004           bra.b 0x765e70
  > 0x00765e6c      7c00           moveq 0x0, d6
   < 0x00765e6e      6002           bra.b 0x765e72
  > 0x00765e70      7c01           moveq 0x1, d6
    > 0x00765e72      4a07           tst.b d7
     < 0x00765e74      671a           beq.b 0x765e90
        0x00765e76      4a06           tst.b d6
    < 0x00765e78      6716           beq.b 0x765e90
       0x00765e7a      2f08           move.l a0, -(a7)
       0x00765e7c      5d4f           subq.w 0x6, a7
       0x00765e7e      3f13           move.w (a3), -(a7)
       0x00765e80      4eb9004a0ea6   jsr MENUKEYBDCOM.get_alone
   > 0x00765e86      544f           addq.w 0x2, a7
      0x00765e88      301f           move.w (a7)+, d0
      0x00765e8a      48c0           ext.l d0
      0x00765e8c      2e80           move.l d0, (a7)
  < 0x00765e8e      605a           bra.b 0x765eea
  > 0x00765e90      4a07           tst.b d7
   < 0x00765e92      6720           beq.b 0x765eb4
      0x00765e94      554f           subq.w 0x2, a7
      0x00765e96      3f13           move.w (a3), -(a7)
      0x00765e98      4eb9004a0ef8   jsr MENUKEYBDCOM.get_initial
      0x00765e9e      544f           addq.w 0x2, a7
      0x00765ea0      3e1f           move.w (a7)+, d7
  < 0x00765ea2      660e           bne.b 0x765eb2
     0x00765ea4      554f           subq.w 0x2, a7
     0x00765ea6      3f13           move.w (a3), -(a7)
     0x00765ea8      4eb9004a0ea6   jsr MENUKEYBDCOM.get_alone
     0x00765eae      544f           addq.w 0x2, a7
     0x00765eb0      3e1f           move.w (a7)+, d7
 > 0x00765eb2      6030           bra.b 0x765ee4
  > 0x00765eb4      4a06           tst.b d6
  < 0x00765eb6      670e           beq.b 0x765ec6
     0x00765eb8      2f08           move.l a0, -(a7)
     0x00765eba      5d4f           subq.w 0x6, a7
     0x00765ebc      3f13           move.w (a3), -(a7)
     0x00765ebe      4eb9004a0f9c   jsr MENUKEYBDCOM.get_final
 < 0x00765ec4      60c0           bra.b 0x765e86
   > 0x00765ec6      554f           subq.w 0x2, a7
       0x00765ec8      3f13           move.w (a3), -(a7)
       0x00765eca      4eb9004a0f4a   jsr MENUKEYBDCOM.get_medial
       0x00765ed0      544f           addq.w 0x2, a7
       0x00765ed2      3e1f           move.w (a7)+, d7
   < 0x00765ed4      660e           bne.b 0x765ee4
      0x00765ed6      554f           subq.w 0x2, a7
      0x00765ed8      3f13           move.w (a3), -(a7)
      0x00765eda      4eb9004a0f9c   jsr MENUKEYBDCOM.get_final
      0x00765ee0      544f           addq.w 0x2, a7
      0x00765ee2      3e1f           move.w (a7)+, d7
 > 0x00765ee4      2f08           move.l a0, -(a7)
        0x00765ee6      48c7           ext.l d7
        0x00765ee8      2f07           move.l d7, -(a7)
  > 0x00765eea      2f2e0008       move.l 0x8(a6), -(a7)
         0x00765eee      4ebafdca       jsr MENUTYPECOM.replace_char(pc)
         0x00765ef2      defc000c       adda.w 0xc, a7
      > 0x00765ef6      4cdf0fcf       movem.l (a7)+, d0-d3/d6-d7/a0-a3
           0x00765efa      4e5e           unlk a6
           0x00765efc      4e75           rts
            ; CALL XREF from MENUTYPECOM.add_make_char @ 0x766086
 300: MENUTYPECOM.non_latin_group ();
           0x00765efe      4e56ffbc       link.w a6, 0xffbc
           0x00765f02      bfd5           cmpa.l (a5), a7
       < 0x00765f04      6206           bhi.b 0x765f0c
          0x00765f06      44fc0002       move.w 0x2, ccr
          0x00765f0a      4e76           trapv
       > 0x00765f0c      defc003e       adda.w 0x3e, a7
           0x00765f10      48e7e3f0       movem.l d0-d2/d6-d7/a0-a3, -(a7)
           0x00765f14      7420           moveq 0x20, d2
           0x00765f16      206e0008       movea.l 0x8(a6), a0
           0x00765f1a      554f           subq.w 0x2, a7
           0x00765f1c      3f10           move.w (a0), -(a7)
           0x00765f1e      486efffc       pea.l -0x4(a6)
           0x00765f22      4eb9004a0e32   jsr MENUKEYBDCOM.check_in_group
           0x00765f28      5c4f           addq.w 0x6, a7
           0x00765f2a      4a1f           tst.b (a7)+
       < 0x00765f2c      670000f4       beq.w 0x766022
          0x00765f30      3d50fffa       move.w (a0), -0x6(a6)
          0x00765f34      226c0012       movea.l 0x12(a4), a1
          0x00765f38      2251           movea.l (a1), a1
          0x00765f3a      b3e9fffc       cmpa.l -0x4(a1), a1
      < 0x00765f3e      6702           beq.b 0x765f42
         0x00765f40      4e4d           trap 0xd
      > 0x00765f42      2451           movea.l (a1), a2
          0x00765f44      b4fc0001       cmpa.w 0x1, a2
      < 0x00765f48      6740           beq.b 0x765f8a
         0x00765f4a      b5eafffc       cmpa.l -0x4(a2), a2
     < 0x00765f4e      6702           beq.b 0x765f52
        0x00765f50      4e4d           trap 0xd
     > 0x00765f52      302a0010       move.w 0x10(a2), d0
         0x00765f56      47fad39e       lea.l 0x7632f6(pc), a3
         0x00765f5a      3200           move.w d0, d1
         0x00765f5c      e649           lsr.w 0x3, d1
         0x00765f5e      b242           cmp.w d2, d1
     < 0x00765f60      6d04           blt.b 0x765f66
        0x00765f62      7200           moveq 0x0, d1
    < 0x00765f64      6004           bra.b 0x765f6a
    > 0x00765f66      01331000       btst.l d0, (a3, d1.w)
    < 0x00765f6a      6606           bne.b 0x765f72
        0x00765f6c      0c400404       cmpi.w 0x404, d0
    < 0x00765f70      6602           bne.b 0x765f74
   > 0x00765f72      6016           bra.b 0x765f8a
   > 0x00765f74      554f           subq.w 0x2, a7
        0x00765f76      3f00           move.w d0, -(a7)
        0x00765f78      4eb9004a0fee   jsr MENUKEYBDCOM.no_medial_char
        0x00765f7e      544f           addq.w 0x2, a7
        0x00765f80      4a1f           tst.b (a7)+
    < 0x00765f82      6702           beq.b 0x765f86
   < 0x00765f84      6004           bra.b 0x765f8a
   > 0x00765f86      7e00           moveq 0x0, d7
   < 0x00765f88      6002           bra.b 0x765f8c
   > 0x00765f8a      7e01           moveq 0x1, d7
     > 0x00765f8c      30290010       move.w 0x10(a1), d0
          0x00765f90      45fad384       lea.l 0x763316(pc), a2
          0x00765f94      3200           move.w d0, d1
          0x00765f96      e649           lsr.w 0x3, d1
          0x00765f98      b242           cmp.w d2, d1
      < 0x00765f9a      6d04           blt.b 0x765fa0
         0x00765f9c      7200           moveq 0x0, d1
     < 0x00765f9e      6004           bra.b 0x765fa4
     > 0x00765fa0      01321000       btst.l d0, (a2, d1.w)
     < 0x00765fa4      6614           bne.b 0x765fba
         0x00765fa6      2251           movea.l (a1), a1
         0x00765fa8      b3e9fffc       cmpa.l -0x4(a1), a1
     < 0x00765fac      6702           beq.b 0x765fb0
        0x00765fae      4e4d           trap 0xd
     > 0x00765fb0      30290010       move.w 0x10(a1), d0
         0x00765fb4      0c400404       cmpi.w 0x404, d0
     < 0x00765fb8      6604           bne.b 0x765fbe
     > 0x00765fba      7c01           moveq 0x1, d6
     < 0x00765fbc      6002           bra.b 0x765fc0
     > 0x00765fbe      7c00           moveq 0x0, d6
      > 0x00765fc0      4a07           tst.b d7
      < 0x00765fc2      6712           beq.b 0x765fd6
         0x00765fc4      4a06           tst.b d6
     < 0x00765fc6      670e           beq.b 0x765fd6
    > 0x00765fc8      554f           subq.w 0x2, a7
       0x00765fca      3f2efffc       move.w -0x4(a6), -(a7)
       0x00765fce      4eb9004a0ea6   jsr MENUKEYBDCOM.get_alone
   < 0x00765fd4      6040           bra.b 0x766016
   > 0x00765fd6      4a07           tst.b d7
    < 0x00765fd8      6716           beq.b 0x765ff0
       0x00765fda      554f           subq.w 0x2, a7
       0x00765fdc      3f2efffc       move.w -0x4(a6), -(a7)
       0x00765fe0      4eb9004a0ef8   jsr MENUKEYBDCOM.get_initial
       0x00765fe6      544f           addq.w 0x2, a7
       0x00765fe8      309f           move.w (a7)+, (a0)
       0x00765fea      4a50           tst.w (a0)
   < 0x00765fec      662c           bne.b 0x76601a
   < 0x00765fee      60d8           bra.b 0x765fc8
    > 0x00765ff0      4a06           tst.b d6
    < 0x00765ff2      6702           beq.b 0x765ff6
   < 0x00765ff4      6014           bra.b 0x76600a
   > 0x00765ff6      554f           subq.w 0x2, a7
       0x00765ff8      3f2efffc       move.w -0x4(a6), -(a7)
       0x00765ffc      4eb9004a0f4a   jsr MENUKEYBDCOM.get_medial
       0x00766002      544f           addq.w 0x2, a7
       0x00766004      309f           move.w (a7)+, (a0)
       0x00766006      4a50           tst.w (a0)
   < 0x00766008      6610           bne.b 0x76601a
   > 0x0076600a      554f           subq.w 0x2, a7
       0x0076600c      3f2efffc       move.w -0x4(a6), -(a7)
       0x00766010      4eb9004a0f9c   jsr MENUKEYBDCOM.get_final
   > 0x00766016      544f           addq.w 0x2, a7
        0x00766018      309f           move.w (a7)+, (a0)
     > 0x0076601a      4a50           tst.w (a0)
      < 0x0076601c      6604           bne.b 0x766022
         0x0076601e      30aefffa       move.w -0x6(a6), (a0)
      > 0x00766022      4cdf0fc7       movem.l (a7)+, d0-d2/d6-d7/a0-a3
           0x00766026      4e5e           unlk a6
           0x00766028      4e75           rts
            ; CALL XREFS from MENUTYPECOM.add_composite_c @ 0x766278, 0x76628e
            ; CALL XREFS from MENUTYPECOM.add_text_char @ 0x766320, 0x766352
 460: MENUTYPECOM.add_make_char ();
           0x0076602a      4e56ffae       link.w a6, 0xffae
           0x0076602e      bfd5           cmpa.l (a5), a7
       < 0x00766030      6206           bhi.b 0x766038
          0x00766032      44fc0002       move.w 0x2, ccr
          0x00766036      4e76           trapv
       > 0x00766038      defc004a       adda.w 0x4a, a7
           0x0076603c      48e7f0f0       movem.l d0-d3/a0-a3, -(a7)
           0x00766040      7401           moveq 0x1, d2
           0x00766042      760c           moveq 0xc, d3
           0x00766044      4a2c001a       tst.b 0x1a(a4)
       < 0x00766048      67000094       beq.w 0x7660de
          0x0076604c      20790086e6d0   movea.l 0x86e6d0, a0
          0x00766052      b1e8fffc       cmpa.l -0x4(a0), a0
      < 0x00766056      6702           beq.b 0x76605a
         0x00766058      4e4d           trap 0xd
      > 0x0076605a      4a28051a       tst.b 0x51a(a0)
      < 0x0076605e      672e           beq.b 0x76608e
         0x00766060      302e0008       move.w 0x8(a6), d0
         0x00766064      41fad2d0       lea.l 0x763336(pc), a0
         0x00766068      3200           move.w d0, d1
         0x0076606a      e649           lsr.w 0x3, d1
         0x0076606c      0c410020       cmpi.w 0x20, d1
     < 0x00766070      6d04           blt.b 0x766076
        0x00766072      7200           moveq 0x0, d1
    < 0x00766074      6004           bra.b 0x76607a
    > 0x00766076      01301000       btst.l d0, (a0, d1.w)
    < 0x0076607a      6662           bne.b 0x7660de
        0x0076607c      0c400404       cmpi.w 0x404, d0
    < 0x00766080      675c           beq.b 0x7660de
       0x00766082      486e0008       pea.l 0x8(a6)
       0x00766086      4ebafe76       jsr MENUTYPECOM.non_latin_group(pc)
       0x0076608a      584f           addq.w 0x4, a7
   < 0x0076608c      6050           bra.b 0x7660de
   > 0x0076608e      206c0012       movea.l 0x12(a4), a0
       0x00766092      2050           movea.l (a0), a0
       0x00766094      b1e8fffc       cmpa.l -0x4(a0), a0
   < 0x00766098      6702           beq.b 0x76609c
      0x0076609a      4e4d           trap 0xd
   > 0x0076609c      554f           subq.w 0x2, a7
       0x0076609e      302e0008       move.w 0x8(a6), d0
       0x007660a2      48c0           ext.l d0
       0x007660a4      2f00           move.l d0, -(a7)
       0x007660a6      4eb9004a114e   jsr MENUKEYBDCOM.get_char_accent
       0x007660ac      584f           addq.w 0x4, a7
       0x007660ae      4a1f           tst.b (a7)+
   < 0x007660b0      672c           beq.b 0x7660de
      0x007660b2      2250           movea.l (a0), a1
      0x007660b4      b2c2           cmpa.w d2, a1
  < 0x007660b6      6726           beq.b 0x7660de
     0x007660b8      2250           movea.l (a0), a1
     0x007660ba      b3e9fffc       cmpa.l -0x4(a1), a1
 < 0x007660be      6702           beq.b 0x7660c2
    0x007660c0      4e4d           trap 0xd
 > 0x007660c2      30290010       move.w 0x10(a1), d0
     0x007660c6      0c400069       cmpi.w 0x69, d0
 < 0x007660ca      6612           bne.b 0x7660de
    0x007660cc      2f10           move.l (a0), -(a7)
    0x007660ce      48780089       pea.l 0x89
    0x007660d2      226c0016       movea.l 0x16(a4), a1
    0x007660d6      2f11           move.l (a1), -(a7)
    0x007660d8      4ebafbe0       jsr MENUTYPECOM.replace_char(pc)
    0x007660dc      dec3           adda.w d3, a7
 > 0x007660de      206c0016       movea.l 0x16(a4), a0
           0x007660e2      2f08           move.l a0, -(a7)
           0x007660e4      2250           movea.l (a0), a1
           0x007660e6      b3e9fffc       cmpa.l -0x4(a1), a1
       < 0x007660ea      6702           beq.b 0x7660ee
          0x007660ec      4e4d           trap 0xd
       > 0x007660ee      554f           subq.w 0x2, a7
           0x007660f0      2f390086e6d0   move.l 0x86e6d0, -(a7)
           0x007660f6      3f2e0008       move.w 0x8(a6), -(a7)
           0x007660fa      2f29001a       move.l 0x1a(a1), -(a7)
           0x007660fe      3f290020       move.w 0x20(a1), -(a7)
           0x00766102      3f29001e       move.w 0x1e(a1), -(a7)
           0x00766106      4267           clr.w -(a7)
           0x00766108      554f           subq.w 0x2, a7
           0x0076610a      3f390086e7bc   move.w 0x86e7bc, -(a7)
           0x00766110      4eb900480fc2   jsr MENUCOM.get_boxon
           0x00766116      544f           addq.w 0x2, a7
           0x00766118      1017           move.b (a7), d0
           0x0076611a      4880           ext.w d0
           0x0076611c      4182           chk.w d2, d0
           0x0076611e      1e80           move.b d0, (a7)
           0x00766120      554f           subq.w 0x2, a7
           0x00766122      3f390086e7be   move.w 0x86e7be, -(a7)
           0x00766128      4eb900480fc2   jsr MENUCOM.get_boxon
           0x0076612e      544f           addq.w 0x2, a7
           0x00766130      1017           move.b (a7), d0
           0x00766132      4880           ext.w d0
           0x00766134      4182           chk.w d2, d0
           0x00766136      1e80           move.b d0, (a7)
           0x00766138      2f390086e7da   move.l 0x86e7da, -(a7)
           0x0076613e      486c0002       pea.l 0x2(a4)
           0x00766142      4eb90076eba8   jsr TYPECOM.make_new_char
           0x00766148      defc001c       adda.w 0x1c, a7
           0x0076614c      4a1f           tst.b (a7)+
       < 0x0076614e      6752           beq.b 0x7661a2
          0x00766150      246c0002       movea.l 0x2(a4), a2
          0x00766154      b5eafffc       cmpa.l -0x4(a2), a2
      < 0x00766158      6702           beq.b 0x76615c
         0x0076615a      4e4d           trap 0xd
      > 0x0076615c      266c0012       movea.l 0x12(a4), a3
          0x00766160      2f0b           move.l a3, -(a7)
          0x00766162      2053           movea.l (a3), a0
          0x00766164      b1e8fffc       cmpa.l -0x4(a0), a0
      < 0x00766168      6702           beq.b 0x76616c
         0x0076616a      4e4d           trap 0xd
      > 0x0076616c      2f08           move.l a0, -(a7)
          0x0076616e      2050           movea.l (a0), a0
          0x00766170      29480006       move.l a0, 0x6(a4)
          0x00766174      2657           movea.l (a7), a3
          0x00766176      26ac0002       move.l 0x2(a4), (a3)
          0x0076617a      2488           move.l a0, (a2)
          0x0076617c      266f0004       movea.l 0x4(a7), a3
          0x00766180      25530004       move.l (a3), 0x4(a2)
          0x00766184      b0c2           cmpa.w d2, a0
      < 0x00766186      6712           beq.b 0x76619a
         0x00766188      b1e8fffc       cmpa.l -0x4(a0), a0
     < 0x0076618c      6702           beq.b 0x766190
        0x0076618e      4e4d           trap 0xd
     > 0x00766190      216c00020004   move.l 0x2(a4), 0x4(a0)
         0x00766196      504f           addq.w 0x8, a7
     < 0x00766198      6008           bra.b 0x7661a2
     > 0x0076619a      236c00020008   move.l 0x2(a4), 0x8(a1)
         0x007661a0      504f           addq.w 0x8, a7
     > 0x007661a2      20790086e6d0   movea.l 0x86e6d0, a0
           0x007661a8      b1e8fffc       cmpa.l -0x4(a0), a0
       < 0x007661ac      6702           beq.b 0x7661b0
          0x007661ae      4e4d           trap 0xd
       > 0x007661b0      4a28051a       tst.b 0x51a(a0)
       < 0x007661b4      6604           bne.b 0x7661ba
          0x007661b6      584f           addq.w 0x4, a7
      < 0x007661b8      6034           bra.b 0x7661ee
      > 0x007661ba      4a2c001a       tst.b 0x1a(a4)
      < 0x007661be      6604           bne.b 0x7661c4
         0x007661c0      584f           addq.w 0x4, a7
     < 0x007661c2      602a           bra.b 0x7661ee
     > 0x007661c4      206c0002       movea.l 0x2(a4), a0
         0x007661c8      b1e8fffc       cmpa.l -0x4(a0), a0
     < 0x007661cc      6702           beq.b 0x7661d0
        0x007661ce      4e4d           trap 0xd
     > 0x007661d0      2f10           move.l (a0), -(a7)
         0x007661d2      226f0004       movea.l 0x4(a7), a1
         0x007661d6      2f11           move.l (a1), -(a7)
         0x007661d8      4ebafbe4       jsr MENUTYPECOM.non_latin_check(pc)
         0x007661dc      584f           addq.w 0x4, a7
         0x007661de      2ea80004       move.l 0x4(a0), (a7)
         0x007661e2      206f0004       movea.l 0x4(a7), a0
         0x007661e6      2f10           move.l (a0), -(a7)
         0x007661e8      4ebafbd4       jsr MENUTYPECOM.non_latin_check(pc)
         0x007661ec      dec3           adda.w d3, a7
     > 0x007661ee      4cdf0f0f       movem.l (a7)+, d0-d3/a0-a3
           0x007661f2      4e5e           unlk a6
           0x007661f4      4e75           rts
            ; CALL XREF from MENUTYPECOM.add_text_char @ 0x766314
 166: MENUTYPECOM.add_composite_c ();
           0x007661f6      4e56ffcc       link.w a6, 0xffcc
           0x007661fa      bfd5           cmpa.l (a5), a7
       < 0x007661fc      6206           bhi.b 0x766204
          0x007661fe      44fc0002       move.w 0x2, ccr
          0x00766202      4e76           trapv
       > 0x00766204      defc0026       adda.w 0x26, a7
           0x00766208      48e7e790       movem.l d0-d2/d5-d7/a0/a3, -(a7)
           0x0076620c      223cffff8000   move.l 0xffff8000, d1
           0x00766212      7401           moveq 0x1, d2
           0x00766214      7c00           moveq 0x0, d6
           0x00766216      7a00           moveq 0x0, d5
           0x00766218      20790086e6d0   movea.l 0x86e6d0, a0
           0x0076621e      b1e8fffc       cmpa.l -0x4(a0), a0
       < 0x00766222      6702           beq.b 0x766226
          0x00766224      4e4d           trap 0xd
       > 0x00766226      26680516       movea.l 0x516(a0), a3
           0x0076622a      7e01           moveq 0x1, d7
       > 0x0076622c      4a07           tst.b d7
      < 0x0076622e      671e           beq.b 0x76624e
         0x00766230      b6c2           cmpa.w d2, a3
     < 0x00766232      671a           beq.b 0x76624e
        0x00766234      b7ebfffc       cmpa.l -0x4(a3), a3
    < 0x00766238      6702           beq.b 0x76623c
       0x0076623a      4e4d           trap 0xd
    > 0x0076623c      2013           move.l (a3), d0
        0x0076623e      b0ae0008       cmp.l 0x8(a6), d0
    < 0x00766242      6604           bne.b 0x766248
       0x00766244      7e00           moveq 0x0, d7
   < 0x00766246      6004           bra.b 0x76624c
   > 0x00766248      266b0012       movea.l 0x12(a3), a3
   < 0x0076624c      60de           bra.b 0x76622c
     > 0x0076624e      b6c2           cmpa.w d2, a3
       < 0x00766250      6606           bne.b 0x766258
          0x00766252      7c00           moveq 0x0, d6
          0x00766254      7a00           moveq 0x0, d5
      < 0x00766256      6010           bra.b 0x766268
      > 0x00766258      b7ebfffc       cmpa.l -0x4(a3), a3
      < 0x0076625c      6702           beq.b 0x766260
         0x0076625e      4e4d           trap 0xd
      > 0x00766260      2c2b000a       move.l 0xa(a3), d6
          0x00766264      2a2b000e       move.l 0xe(a3), d5
      > 0x00766268      9c81           sub.l d1, d6
           0x0076626a      0c860000ffff   cmpi.l 0xffff, d6
       < 0x00766270      6302           bls.b 0x766274
          0x00766272      4e4f           trap 0xf
       > 0x00766274      dc81           add.l d1, d6
           0x00766276      3f06           move.w d6, -(a7)
           0x00766278      4ebafdb0       jsr MENUTYPECOM.add_make_char(pc)
           0x0076627c      544f           addq.w 0x2, a7
           0x0076627e      9a81           sub.l d1, d5
           0x00766280      0c850000ffff   cmpi.l 0xffff, d5
       < 0x00766286      6302           bls.b 0x76628a
          0x00766288      4e4f           trap 0xf
       > 0x0076628a      da81           add.l d1, d5
           0x0076628c      3f05           move.w d5, -(a7)
           0x0076628e      4ebafd9a       jsr MENUTYPECOM.add_make_char(pc)
           0x00766292      544f           addq.w 0x2, a7
           0x00766294      4cdf09e7       movem.l (a7)+, d0-d2/d5-d7/a0/a3
           0x00766298      4e5e           unlk a6
           0x0076629a      4e75           rts
            ; CALL XREF from MENUTYPECOM.char_browse @ 0x766936
            ; CALL XREF from MENUTYPECOM.make_menu_font @ 0x76759e
            ; CALL XREF from MENUTYPECOM @ +0x861c
 220: MENUTYPECOM.add_text_char ();
           0x0076629c      4e56ffc8       link.w a6, 0xffc8
           0x007662a0      bfd5           cmpa.l (a5), a7
       < 0x007662a2      6206           bhi.b 0x7662aa
          0x007662a4      44fc0002       move.w 0x2, ccr
          0x007662a8      4e76           trapv
       > 0x007662aa      defc002e       adda.w 0x2e, a7
           0x007662ae      48e7e0f8       movem.l d0-d2/a0-a4, -(a7)
           0x007662b2      45eefff6       lea.l -0xa(a6), a2
           0x007662b6      47f90086e6f0   lea.l 0x86e6f0, a3
           0x007662bc      7406           moveq 0x6, d2
           0x007662be      302e0012       move.w 0x12(a6), d0
           0x007662c2      41fad092       lea.l 0x763356(pc), a0
           0x007662c6      3200           move.w d0, d1
           0x007662c8      e649           lsr.w 0x3, d1
           0x007662ca      0c410020       cmpi.w 0x20, d1
       < 0x007662ce      6d04           blt.b 0x7662d4
          0x007662d0      7200           moveq 0x0, d1
      < 0x007662d2      6004           bra.b 0x7662d8
      > 0x007662d4      01301000       btst.l d0, (a0, d1.w)
      < 0x007662d8      676e           beq.b 0x766348
          0x007662da      20790086e6d0   movea.l 0x86e6d0, a0
          0x007662e0      b1e8fffc       cmpa.l -0x4(a0), a0
      < 0x007662e4      6702           beq.b 0x7662e8
         0x007662e6      4e4d           trap 0xd
      > 0x007662e8      41bc00ff       chk.w 0xff, d0
          0x007662ec      4a300016       tst.b 0x16(a0, d0.w)
      < 0x007662f0      677e           beq.b 0x766370
         0x007662f2      48c0           ext.l d0
         0x007662f4      2200           move.l d0, d1
         0x007662f6      e581           asl.l 0x2, d1
         0x007662f8      43f01800       lea.l (a0, d1.l), a1
         0x007662fc      22690116       movea.l 0x116(a1), a1
         0x00766300      b3e9fffc       cmpa.l -0x4(a1), a1
     < 0x00766304      6702           beq.b 0x766308
        0x00766306      4e4d           trap 0xd
     > 0x00766308      4a29001d       tst.b 0x1d(a1)
     < 0x0076630c      670e           beq.b 0x76631c
        0x0076630e      48c0           ext.l d0
        0x00766310      2f00           move.l d0, -(a7)
        0x00766312      284a           movea.l a2, a4
        0x00766314      4ebafee0       jsr MENUTYPECOM.add_composite_c(pc)
        0x00766318      584f           addq.w 0x4, a7
    < 0x0076631a      600a           bra.b 0x766326
    > 0x0076631c      3f00           move.w d0, -(a7)
        0x0076631e      284a           movea.l a2, a4
        0x00766320      4ebafd08       jsr MENUTYPECOM.add_make_char(pc)
        0x00766324      544f           addq.w 0x2, a7
    > 0x00766326      4a2e0010       tst.b 0x10(a6)
     < 0x0076632a      6744           beq.b 0x766370
        0x0076632c      1f02           move.b d2, -(a7)
        0x0076632e      4ebae09c       jsr MENUTYPECOM.update_type(pc)
        0x00766332      544f           addq.w 0x2, a7
        0x00766334      226e0008       movea.l 0x8(a6), a1
        0x00766338      2251           movea.l (a1), a1
        0x0076633a      b3e9fffc       cmpa.l -0x4(a1), a1
    < 0x0076633e      6702           beq.b 0x766342
       0x00766340      4e4d           trap 0xd
    > 0x00766342      26a90052       move.l 0x52(a1), (a3)
    < 0x00766346      6028           bra.b 0x766370
    > 0x00766348      0c400404       cmpi.w 0x404, d0
    < 0x0076634c      6622           bne.b 0x766370
       0x0076634e      3f00           move.w d0, -(a7)
       0x00766350      284a           movea.l a2, a4
       0x00766352      4ebafcd6       jsr MENUTYPECOM.add_make_char(pc)
       0x00766356      1e82           move.b d2, (a7)
       0x00766358      4ebae072       jsr MENUTYPECOM.update_type(pc)
       0x0076635c      544f           addq.w 0x2, a7
       0x0076635e      206e0008       movea.l 0x8(a6), a0
       0x00766362      2050           movea.l (a0), a0
       0x00766364      b1e8fffc       cmpa.l -0x4(a0), a0
   < 0x00766368      6702           beq.b 0x76636c
      0x0076636a      4e4d           trap 0xd
   > 0x0076636c      26a80052       move.l 0x52(a0), (a3)
    > 0x00766370      4cdf1f07       movem.l (a7)+, d0-d2/a0-a4
           0x00766374      4e5e           unlk a6
           0x00766376      4e75           rts
 1164: MENUTYPECOM.font_browse ();
           ; var int32_t var_302ch @ a6-0x302c
           ; var int32_t var_3027h @ a6-0x3027
           ; var int32_t var_6eh @ a6-0x6e
           0x00766378      4e56ff0e       link.w a6, 0xff0e
           0x0076637c      bfd5           cmpa.l (a5), a7
       < 0x0076637e      6206           bhi.b 0x766386
          0x00766380      44fc0002       move.w 0x2, ccr
          0x00766384      4e76           trapv
       > 0x00766386      defc0070       adda.w 0x70, a7
           0x0076638a      48e7fff8       movem.l d0-d7/a0-a4, -(a7)
           0x0076638e      49f90086e6d0   lea.l 0x86e6d0, a4
           0x00766394      7401           moveq 0x1, d2
           0x00766396      2a3cffff8000   move.l 0xffff8000, d5
           0x0076639c      1d7acfd90014   move.b 0x763377(pc), 0x14(a6)
           0x007663a2      1d7acfd40015   move.b 0x763378(pc), 0x15(a6)
           0x007663a8      2d54ff7e       move.l (a4), -0x82(a6)
           0x007663ac      48780001       pea.l 0x1
           0x007663b0      2d5fffea       move.l (a7)+, -0x16(a6)
           0x007663b4      206e0010       movea.l 0x10(a6), a0
           0x007663b8      554f           subq.w 0x2, a7
           0x007663ba      4227           clr.b -(a7)
           0x007663bc      4850           pea.l (a0)
           0x007663be      486eff96       pea.l -0x6a(a6)
           0x007663c2      4eb9005a14ae   jsr K04_FILEROPS.k_name
           0x007663c8      defc000a       adda.w 0xa, a7
           0x007663cc      3d5fff92       move.w (a7)+, -0x6e(a6)
           0x007663d0      302eff92       move.w -0x6e(a6), d0
           0x007663d4      b07acfa4       cmp.w 0x76337a(pc), d0
       < 0x007663d8      6732           beq.b 0x76640c
          0x007663da      487acfa1       pea.l 0x76337d(pc)
          0x007663de      48780010       pea.l 0x10
          0x007663e2      2f17           move.l (a7), -(a7)
          0x007663e4      4eb9004047ea   jsr p_wts_o
          0x007663ea      defc000c       adda.w 0xc, a7
          0x007663ee      486eff92       pea.l -0x6e(a6)
          0x007663f2      48780002       pea.l 0x2
          0x007663f6      2f17           move.l (a7), -(a7)
          0x007663f8      4eb9004047ea   jsr p_wts_o
          0x007663fe      defc000c       adda.w 0xc, a7
          0x00766402      4eb900404946   jsr p_wtln_o
      < 0x00766408      60000388       bra.w 0x766792
      > 0x0076640c      554f           subq.w 0x2, a7
          0x0076640e      4850           pea.l (a0)
          0x00766410      4227           clr.b -(a7)
          0x00766412      102effe7       move.b -0x19(a6), d0
          0x00766416      0c000052       cmpi.b 0x52, d0
      < 0x0076641a      6702           beq.b 0x76641e
         0x0076641c      5217           addq.b 0x1, (a7)
      > 0x0076641e      486effea       pea.l -0x16(a6)
          0x00766422      22790086e6d4   movea.l 0x86e6d4, a1
          0x00766428      b3e9fffc       cmpa.l -0x4(a1), a1
      < 0x0076642c      6702           beq.b 0x766430
         0x0076642e      4e4d           trap 0xd
      > 0x00766430      4851           pea.l (a1)
          0x00766432      1f02           move.b d2, -(a7)
          0x00766434      4eb90076ea62   jsr TYPECOM.sel_font
          0x0076643a      defc0010       adda.w 0x10, a7
          0x0076643e      3d5fff92       move.w (a7)+, -0x6e(a6)
          0x00766442      302eff92       move.w -0x6e(a6), d0
          0x00766446      b07acf46       cmp.w 0x76338e(pc), d0
      < 0x0076644a      6732           beq.b 0x76647e
         0x0076644c      487acf43       pea.l 0x763391(pc)
         0x00766450      48780019       pea.l 0x19
         0x00766454      2f17           move.l (a7), -(a7)
         0x00766456      4eb9004047ea   jsr p_wts_o
         0x0076645c      defc000c       adda.w 0xc, a7
         0x00766460      486eff92       pea.l -0x6e(a6)
         0x00766464      48780002       pea.l 0x2
         0x00766468      2f17           move.l (a7), -(a7)
         0x0076646a      4eb9004047ea   jsr p_wts_o
         0x00766470      defc000c       adda.w 0xc, a7
         0x00766474      4eb900404946   jsr p_wtln_o
     < 0x0076647a      6000030a       bra.w 0x766786
     > 0x0076647e      28b90086e6d4   move.l 0x86e6d4, (a4)
         0x00766484      486eff82       pea.l -0x7e(a6)
         0x00766488      4878002c       pea.l 0x2c
         0x0076648c      4eb900403a92   jsr p_New
         0x00766492      504f           addq.w 0x8, a7
         0x00766494      226eff82       movea.l -0x7e(a6), a1
         0x00766498      b3e9fffc       cmpa.l -0x4(a1), a1
     < 0x0076649c      6702           beq.b 0x7664a0
        0x0076649e      4e4d           trap 0xd
     > 0x007664a0      2454           movea.l (a4), a2
         0x007664a2      b5eafffc       cmpa.l -0x4(a2), a2
     < 0x007664a6      6702           beq.b 0x7664aa
        0x007664a8      4e4d           trap 0xd
     > 0x007664aa      554f           subq.w 0x2, a7
         0x007664ac      4eb900478a3a   jsr CONFIGCOM.tvsys
         0x007664b2      4a1f           tst.b (a7)+
     < 0x007664b4      6604           bne.b 0x7664ba
        0x007664b6      7832           moveq 0x32, d4
    < 0x007664b8      6002           bra.b 0x7664bc
    > 0x007664ba      783c           moveq 0x3c, d4
    > 0x007664bc      4eb900408686   jsr fcn.00408686
         0x007664c2      2f04           move.l d4, -(a7)
         0x007664c4      282a000c       move.l 0xc(a2), d4
         0x007664c8      4eb900408686   jsr fcn.00408686
         0x007664ce      2604           move.l d4, d3
         0x007664d0      2817           move.l (a7), d4
         0x007664d2      4eb900407ff8   jsr fcn.00407ff8
         0x007664d8      584f           addq.w 0x4, a7
         0x007664da      2e04           move.l d4, d7
         0x007664dc      2807           move.l d7, d4
         0x007664de      263c3f7d70a4   move.l 0x3f7d70a4, d3
         0x007664e4      4eb900407dd4   jsr fcn.00407dd4
     < 0x007664ea      6c04           bge.b 0x7664f0
        0x007664ec      7848           moveq 0x48, d4
    < 0x007664ee      6004           bra.b 0x7664f4
    > 0x007664f0      282a000c       move.l 0xc(a2), d4
    > 0x007664f4      4eb900408686   jsr fcn.00408686
         0x007664fa      2c04           move.l d4, d6
         0x007664fc      2807           move.l d7, d4
         0x007664fe      263c3f83d70a   move.l 0x3f83d70a, d3
         0x00766504      4eb900407dd4   jsr fcn.00407dd4
     < 0x0076650a      6f7a           ble.b 0x766586
        0x0076650c      266a021a       movea.l 0x21a(a2), a3
        0x00766510      b6c2           cmpa.w d2, a3
    < 0x00766512      6772           beq.b 0x766586
       0x00766514      4a2a0057       tst.b 0x57(a2)
   < 0x00766518      676c           beq.b 0x766586
      0x0076651a      302e000c       move.w 0xc(a6), d0
      0x0076651e      48c0           ext.l d0
      0x00766520      81fc0002       divs.w 0x2, d0
      0x00766524      322e0008       move.w 0x8(a6), d1
      0x00766528      48c1           ext.l d1
      0x0076652a      48c0           ext.l d0
      0x0076652c      d081           add.l d1, d0
      0x0076652e      266a021a       movea.l 0x21a(a2), a3
      0x00766532      b7ebfffc       cmpa.l -0x4(a3), a3
  < 0x00766536      6702           beq.b 0x76653a
     0x00766538      4e4d           trap 0xd
  > 0x0076653a      282b0018       move.l 0x18(a3), d4
      0x0076653e      4eb900408686   jsr fcn.00408686
      0x00766544      2f04           move.l d4, -(a7)
      0x00766546      7810           moveq 0x10, d4
      0x00766548      4eb900408686   jsr fcn.00408686
      0x0076654e      2604           move.l d4, d3
      0x00766550      2817           move.l (a7), d4
      0x00766552      4eb900407ff8   jsr fcn.00407ff8
      0x00766558      584f           addq.w 0x4, a7
      0x0076655a      26390086e7da   move.l 0x86e7da, d3
      0x00766560      4eb900407e92   jsr fcn.00407e92
      0x00766566      4eb900408224   jsr fcn.00408224
      0x0076656c      4484           neg.l d4
      0x0076656e      d880           add.l d0, d4
      0x00766570      e784           asl.l 0x3, d4
      0x00766572      9885           sub.l d5, d4
      0x00766574      0c840000ffff   cmpi.l 0xffff, d4
  < 0x0076657a      6302           bls.b 0x76657e
     0x0076657c      4e4f           trap 0xf
  > 0x0076657e      d885           add.l d5, d4
      0x00766580      33440010       move.w d4, 0x10(a1)
  < 0x00766584      6020           bra.b 0x7665a6
  > 0x00766586      302e0008       move.w 0x8(a6), d0
        0x0076658a      48c0           ext.l d0
        0x0076658c      068000000014   addi.l 0x14, d0
        0x00766592      e780           asl.l 0x3, d0
        0x00766594      9085           sub.l d5, d0
        0x00766596      0c800000ffff   cmpi.l 0xffff, d0
    < 0x0076659c      6302           bls.b 0x7665a0
       0x0076659e      4e4f           trap 0xf
    > 0x007665a0      d085           add.l d5, d0
        0x007665a2      33400010       move.w d0, 0x10(a1)
  > 0x007665a6      302e000a       move.w 0xa(a6), d0
         0x007665aa      48c0           ext.l d0
         0x007665ac      322e000e       move.w 0xe(a6), d1
         0x007665b0      48c1           ext.l d1
         0x007665b2      d280           add.l d0, d1
         0x007665b4      048100000019   subi.l 0x19, d1
         0x007665ba      e781           asl.l 0x3, d1
         0x007665bc      9285           sub.l d5, d1
         0x007665be      0c810000ffff   cmpi.l 0xffff, d1
     < 0x007665c4      6302           bls.b 0x7665c8
        0x007665c6      4e4f           trap 0xf
     > 0x007665c8      d285           add.l d5, d1
         0x007665ca      33410012       move.w d1, 0x12(a1)
         0x007665ce      23420008       move.l d2, 0x8(a1)
         0x007665d2      2342000c       move.l d2, 0xc(a1)
         0x007665d6      2282           move.l d2, (a1)
         0x007665d8      23420004       move.l d2, 0x4(a1)
         0x007665dc      42290022       clr.b 0x22(a1)
         0x007665e0      42290023       clr.b 0x23(a1)
         0x007665e4      42290018       clr.b 0x18(a1)
         0x007665e8      4269001e       clr.w 0x1e(a1)
         0x007665ec      42690020       clr.w 0x20(a1)
         0x007665f0      7832           moveq 0x32, d4
         0x007665f2      4eb900408686   jsr fcn.00408686
         0x007665f8      2344001a       move.l d4, 0x1a(a1)
         0x007665fc      422effee       clr.b -0x12(a6)
         0x00766600      1d7c0002ffef   move.b 0x2, -0x11(a6)
         0x00766606      266a021a       movea.l 0x21a(a2), a3
         0x0076660a      b6c2           cmpa.w d2, a3
     < 0x0076660c      670000de       beq.w 0x7666ec
        0x00766610      4a2a0057       tst.b 0x57(a2)
    < 0x00766614      670000d6       beq.w 0x7666ec
       0x00766618      554f           subq.w 0x2, a7
       0x0076661a      2f14           move.l (a4), -(a7)
       0x0076661c      3f3c0041       move.w 0x41, -(a7)
       0x00766620      2f06           move.l d6, -(a7)
       0x00766622      4267           clr.w -(a7)
       0x00766624      4267           clr.w -(a7)
       0x00766626      4267           clr.w -(a7)
       0x00766628      4227           clr.b -(a7)
       0x0076662a      4227           clr.b -(a7)
       0x0076662c      2f390086e7da   move.l 0x86e7da, -(a7)
       0x00766632      48690008       pea.l 0x8(a1)
       0x00766636      4eb90076eba8   jsr TYPECOM.make_new_char
       0x0076663c      defc001c       adda.w 0x1c, a7
       0x00766640      4a1f           tst.b (a7)+
   < 0x00766642      670000a8       beq.w 0x7666ec
      0x00766646      2f2eff82       move.l -0x7e(a6), -(a7)
      0x0076664a      2f390086e6e4   move.l 0x86e6e4, -(a7)
      0x00766650      2f3acd64       move.l 0x7633b6(pc), -(a7)
      0x00766654      2f2e000c       move.l 0xc(a6), -(a7)
      0x00766658      2f2e0008       move.l 0x8(a6), -(a7)
      0x0076665c      2f390086e6ac   move.l 0x86e6ac, -(a7)
      0x00766662      2f390086e6a8   move.l 0x86e6a8, -(a7)
      0x00766668      1f02           move.b d2, -(a7)
      0x0076666a      1f02           move.b d2, -(a7)
      0x0076666c      2f390086e7da   move.l 0x86e7da, -(a7)
      0x00766672      3f390086e7ce   move.w 0x86e7ce, -(a7)
      0x00766678      3f2effee       move.w -0x12(a6), -(a7)
      0x0076667c      2f14           move.l (a4), -(a7)
      0x0076667e      4eb90076fbd8   jsr TYPECOM.display_type_li
      0x00766684      defc002c       adda.w 0x2c, a7
      0x00766688      26690008       movea.l 0x8(a1), a3
      0x0076668c      b7ebfffc       cmpa.l -0x4(a3), a3
  < 0x00766690      6702           beq.b 0x766694
     0x00766692      4e4d           trap 0xd
  > 0x00766694      282b0040       move.l 0x40(a3), d4
      0x00766698      4eb900408686   jsr fcn.00408686
      0x0076669e      2604           move.l d4, d3
      0x007666a0      282b0038       move.l 0x38(a3), d4
      0x007666a4      4eb900407ff8   jsr fcn.00407ff8
      0x007666aa      2f04           move.l d4, -(a7)
      0x007666ac      282b0044       move.l 0x44(a3), d4
      0x007666b0      4eb900408686   jsr fcn.00408686
      0x007666b6      2617           move.l (a7), d3
      0x007666b8      4eb900407e92   jsr fcn.00407e92
      0x007666be      584f           addq.w 0x4, a7
      0x007666c0      4eb900408224   jsr fcn.00408224
      0x007666c6      30290010       move.w 0x10(a1), d0
      0x007666ca      48c0           ext.l d0
      0x007666cc      d880           add.l d0, d4
      0x007666ce      9885           sub.l d5, d4
      0x007666d0      0c840000ffff   cmpi.l 0xffff, d4
  < 0x007666d6      6302           bls.b 0x7666da
     0x007666d8      4e4f           trap 0xf
  > 0x007666da      d885           add.l d5, d4
      0x007666dc      33440010       move.w d4, 0x10(a1)
      0x007666e0      48690008       pea.l 0x8(a1)
      0x007666e4      4eb90076ee76   jsr TYPECOM.dispose_type_ch
      0x007666ea      584f           addq.w 0x4, a7
   > 0x007666ec      266a029a       movea.l 0x29a(a2), a3
         0x007666f0      b6c2           cmpa.w d2, a3
     < 0x007666f2      67000082       beq.w 0x766776
        0x007666f6      4a2a0077       tst.b 0x77(a2)
    < 0x007666fa      677a           beq.b 0x766776
       0x007666fc      554f           subq.w 0x2, a7
       0x007666fe      2f14           move.l (a4), -(a7)
       0x00766700      3f3c0061       move.w 0x61, -(a7)
       0x00766704      2f06           move.l d6, -(a7)
       0x00766706      4267           clr.w -(a7)
       0x00766708      4267           clr.w -(a7)
       0x0076670a      4267           clr.w -(a7)
       0x0076670c      4227           clr.b -(a7)
       0x0076670e      4227           clr.b -(a7)
       0x00766710      2f390086e7da   move.l 0x86e7da, -(a7)
       0x00766716      48690008       pea.l 0x8(a1)
       0x0076671a      4eb90076eba8   jsr TYPECOM.make_new_char
       0x00766720      defc001c       adda.w 0x1c, a7
       0x00766724      4a1f           tst.b (a7)+
   < 0x00766726      674e           beq.b 0x766776
      0x00766728      2f2eff82       move.l -0x7e(a6), -(a7)
      0x0076672c      2f390086e6e4   move.l 0x86e6e4, -(a7)
      0x00766732      2f3acc86       move.l 0x7633ba(pc), -(a7)
      0x00766736      2f2e000c       move.l 0xc(a6), -(a7)
      0x0076673a      2f2e0008       move.l 0x8(a6), -(a7)
      0x0076673e      2f390086e6ac   move.l 0x86e6ac, -(a7)
      0x00766744      2f390086e6a8   move.l 0x86e6a8, -(a7)
      0x0076674a      1f02           move.b d2, -(a7)
      0x0076674c      1f02           move.b d2, -(a7)
      0x0076674e      2f390086e7da   move.l 0x86e7da, -(a7)
      0x00766754      3f390086e7ce   move.w 0x86e7ce, -(a7)
      0x0076675a      3f2effee       move.w -0x12(a6), -(a7)
      0x0076675e      2f14           move.l (a4), -(a7)
      0x00766760      4eb90076fbd8   jsr TYPECOM.display_type_li
      0x00766766      defc002c       adda.w 0x2c, a7
      0x0076676a      48690008       pea.l 0x8(a1)
      0x0076676e      4eb90076ee76   jsr TYPECOM.dispose_type_ch
      0x00766774      584f           addq.w 0x4, a7
   > 0x00766776      486eff82       pea.l -0x7e(a6)
         0x0076677a      4878002c       pea.l 0x2c
         0x0076677e      4eb900403b98   jsr p_Dispos
         0x00766784      504f           addq.w 0x8, a7
     > 0x00766786      486effea       pea.l -0x16(a6)
          0x0076678a      4eb90076eb6a   jsr TYPECOM.font_forget
          0x00766790      584f           addq.w 0x4, a7
      > 0x00766792      28aeff7e       move.l -0x82(a6), (a4)
           0x00766796      2054           movea.l (a4), a0
           0x00766798      b1e8fffc       cmpa.l -0x4(a0), a0
       < 0x0076679c      6702           beq.b 0x7667a0
          0x0076679e      4e4d           trap 0xd
       > 0x007667a0      2250           movea.l (a0), a1
           0x007667a2      b2c2           cmpa.w d2, a1
       < 0x007667a4      6750           beq.b 0x7667f6
          0x007667a6      4850           pea.l (a0)
          0x007667a8      486efff0       pea.l -0x10(a6)
          0x007667ac      486efffa       pea.l -0x6(a6)
          0x007667b0      486eff92       pea.l -0x6e(a6)
          0x007667b4      4eb900598736   jsr K0_DISKMGR.k_gen_fid
          0x007667ba      defc000c       adda.w 0xc, a7
          0x007667be      2254           movea.l (a4), a1
          0x007667c0      b3e9fffc       cmpa.l -0x4(a1), a1
      < 0x007667c4      6702           beq.b 0x7667c8
         0x007667c6      4e4d           trap 0xd
      > 0x007667c8      48690012       pea.l 0x12(a1)
          0x007667cc      4227           clr.b -(a7)
          0x007667ce      4eb90076deca   jsr TYPECOM.get_menu_block
          0x007667d4      5c4f           addq.w 0x6, a7
          0x007667d6      2e1f           move.l (a7)+, d7
          0x007667d8      2f2efff6       move.l -0xa(a6), -(a7)
          0x007667dc      2f2efff2       move.l -0xe(a6), -(a7)
          0x007667e0      3f2efff0       move.w -0x10(a6), -(a7)
          0x007667e4      2f07           move.l d7, -(a7)
          0x007667e6      4eb9006a7c0a   jsr TEXTMAV.set_type_menufo
          0x007667ec      defc000e       adda.w 0xe, a7
          0x007667f0      4eb9004a46c0   jsr MENUKEYBDCOM.upd_keypad
       > 0x007667f6      3d6eff920014   move.w -0x6e(a6), 0x14(a6)
           0x007667fc      4cdf1fff       movem.l (a7)+, d0-d7/a0-a4
           0x00766800      4e5e           unlk a6
           0x00766802      4e75           rts
            ; CALL XREF from MENUKEYBDCOM.view_cur_char @ 0x4a131a
 1020: MENUTYPECOM.char_browse (int32_t arg_4h, int32_t arg_8h, int32_t arg_10h);
           ; arg int32_t arg_4h @ a6+0x4
           ; arg int32_t arg_8h @ a6+0x8
           ; arg int32_t arg_10h @ a6+0x10
           0x00766804      4e56ff5a       link.w a6, 0xff5a
           0x00766808      bfd5           cmpa.l (a5), a7
       < 0x0076680a      6206           bhi.b 0x766812
          0x0076680c      44fc0002       move.w 0x2, ccr
          0x00766810      4e76           trapv
       > 0x00766812      defc0072       adda.w 0x72, a7
           0x00766816      48e7fff8       movem.l d0-d7/a0-a4, -(a7)
           0x0076681a      49ee000c       lea.l 0xc(a6), a4
           0x0076681e      7a01           moveq 0x1, d5
           0x00766820      7c03           moveq 0x3, d6
           0x00766822      2e3cffff8000   move.l 0xffff8000, d7
           0x00766828      486effcc       pea.l -0x34(a6)
           0x0076682c      4878002c       pea.l 0x2c
           0x00766830      4eb900403a92   jsr p_New
           0x00766836      504f           addq.w 0x8, a7
           0x00766838      2d790086e6d0.  move.l 0x86e6d0, -0x1c(a6)
           0x00766840      206effcc       movea.l -0x34(a6), a0
           0x00766844      b1e8fffc       cmpa.l -0x4(a0), a0
       < 0x00766848      6702           beq.b 0x76684c
          0x0076684a      4e4d           trap 0xd
       > 0x0076684c      22790086e6d0   movea.l 0x86e6d0, a1
           0x00766852      b3e9fffc       cmpa.l -0x4(a1), a1
       < 0x00766856      6702           beq.b 0x76685a
          0x00766858      4e4d           trap 0xd
       > 0x0076685a      2085           move.l d5, (a0)
           0x0076685c      21450004       move.l d5, 0x4(a0)
           0x00766860      42280022       clr.b 0x22(a0)
           0x00766864      42280023       clr.b 0x23(a0)
           0x00766868      42280018       clr.b 0x18(a0)
           0x0076686c      4268001e       clr.w 0x1e(a0)
           0x00766870      42680020       clr.w 0x20(a0)
           0x00766874      7841           moveq 0x41, d4
           0x00766876      4eb900408686   jsr fcn.00408686
           0x0076687c      2144001a       move.l d4, 0x1a(a0)
           0x00766880      2d54ffec       move.l (a4), -0x14(a6)
           0x00766884      2d6e0010fff0   move.l 0x10(a6), -0x10(a6)
           0x0076688a      422efffe       clr.b -0x2(a6)
           0x0076688e      1d7c0002ffff   move.b 0x2, -0x1(a6)
           0x00766894      554f           subq.w 0x2, a7
           0x00766896      2f390086e6d0   move.l 0x86e6d0, -(a7)
           0x0076689c      3f3c000d       move.w 0xd, -(a7)
           0x007668a0      2f04           move.l d4, -(a7)
           0x007668a2      3f280020       move.w 0x20(a0), -(a7)
           0x007668a6      4267           clr.w -(a7)
           0x007668a8      4267           clr.w -(a7)
           0x007668aa      4227           clr.b -(a7)
           0x007668ac      4227           clr.b -(a7)
           0x007668ae      2f390086e7da   move.l 0x86e7da, -(a7)
           0x007668b4      48680008       pea.l 0x8(a0)
           0x007668b8      4eb90076eba8   jsr TYPECOM.make_new_char
           0x007668be      defc001c       adda.w 0x1c, a7
           0x007668c2      4a1f           tst.b (a7)+
           0x007668c4      21680008000c   move.l 0x8(a0), 0xc(a0)
           0x007668ca      2d680008ffd0   move.l 0x8(a0), -0x30(a6)
           0x007668d0      1f06           move.b d6, -(a7)
           0x007668d2      2f2e0010       move.l 0x10(a6), -(a7)
           0x007668d6      2f14           move.l (a4), -(a7)
           0x007668d8      4eb9005223fc   jsr BRUSHCOM.str_write_area
           0x007668de      5c4f           addq.w 0x6, a7
           0x007668e0      2ebac688       move.l 0x762f6a(pc), (a7)
           0x007668e4      3f3ac682       move.w 0x762f68(pc), -(a7)
           0x007668e8      4eb900520fa4   jsr BRUSHCOM.set_br_colour
           0x007668ee      584f           addq.w 0x4, a7
           0x007668f0      1e86           move.b d6, (a7)
           0x007668f2      1f05           move.b d5, -(a7)
           0x007668f4      2f2e0010       move.l 0x10(a6), -(a7)
           0x007668f8      2f14           move.l (a4), -(a7)
           0x007668fa      4eb9005213b4   jsr BRUSHCOM.br_wipe
           0x00766900      defc000c       adda.w 0xc, a7
           0x00766904      302e0014       move.w 0x14(a6), d0
           0x00766908      41bc00ff       chk.w 0xff, d0
           0x0076690c      48c0           ext.l d0
           0x0076690e      2200           move.l d0, d1
           0x00766910      e581           asl.l 0x2, d1
           0x00766912      45f11800       lea.l (a1, d1.l), a2
           0x00766916      246a0116       movea.l 0x116(a2), a2
           0x0076691a      b4c5           cmpa.w d5, a2
       < 0x0076691c      670001b0       beq.w 0x766ace
          0x00766920      4a310816       tst.b 0x16(a1, d0.l)
      < 0x00766924      670001a8       beq.w 0x766ace
         0x00766928      3f2e0014       move.w 0x14(a6), -(a7)
         0x0076692c      4227           clr.b -(a7)
         0x0076692e      486effcc       pea.l -0x34(a6)
         0x00766932      486effd0       pea.l -0x30(a6)
         0x00766936      4ebaf964       jsr MENUTYPECOM.add_text_char(pc)
         0x0076693a      defc000c       adda.w 0xc, a7
         0x0076693e      24680008       movea.l 0x8(a0), a2
         0x00766942      b5eafffc       cmpa.l -0x4(a2), a2
     < 0x00766946      6702           beq.b 0x76694a
        0x00766948      4e4d           trap 0xd
     > 0x0076694a      7808           moveq 0x8, d4
         0x0076694c      262a0040       move.l 0x40(a2), d3
         0x00766950      4eb900406a74   jsr fcn.00406a74
         0x00766956      2f04           move.l d4, -(a7)
         0x00766958      282a0044       move.l 0x44(a2), d4
         0x0076695c      4eb900408686   jsr fcn.00408686
         0x00766962      2628001a       move.l 0x1a(a0), d3
         0x00766966      4eb900407e92   jsr fcn.00407e92
         0x0076696c      2f04           move.l d4, -(a7)
         0x0076696e      282f0004       move.l 0x4(a7), d4
         0x00766972      4eb900408686   jsr fcn.00408686
         0x00766978      2604           move.l d4, d3
         0x0076697a      2817           move.l (a7), d4
         0x0076697c      4eb900407ff8   jsr fcn.00407ff8
         0x00766982      504f           addq.w 0x8, a7
         0x00766984      4eb900408224   jsr fcn.00408224
         0x0076698a      9887           sub.l d7, d4
         0x0076698c      0c840000ffff   cmpi.l 0xffff, d4
     < 0x00766992      6302           bls.b 0x766996
        0x00766994      4e4f           trap 0xf
     > 0x00766996      d887           add.l d7, d4
         0x00766998      3d44fffc       move.w d4, -0x4(a6)
         0x0076699c      302e0010       move.w 0x10(a6), d0
         0x007669a0      48c0           ext.l d0
         0x007669a2      48c4           ext.l d4
         0x007669a4      4484           neg.l d4
         0x007669a6      d880           add.l d0, d4
         0x007669a8      7602           moveq 0x2, d3
         0x007669aa      4eb900406b50   jsr fcn.00406b50
         0x007669b0      3214           move.w (a4), d1
         0x007669b2      48c1           ext.l d1
         0x007669b4      d881           add.l d1, d4
         0x007669b6      9887           sub.l d7, d4
         0x007669b8      0c840000ffff   cmpi.l 0xffff, d4
     < 0x007669be      6302           bls.b 0x7669c2
        0x007669c0      4e4f           trap 0xf
     > 0x007669c2      d887           add.l d7, d4
         0x007669c4      3d440008       move.w d4, 0x8(a6)
         0x007669c8      48c4           ext.l d4
         0x007669ca      2404           move.l d4, d2
         0x007669cc      e782           asl.l 0x3, d2
         0x007669ce      9487           sub.l d7, d2
         0x007669d0      0c820000ffff   cmpi.l 0xffff, d2
     < 0x007669d6      6302           bls.b 0x7669da
        0x007669d8      4e4f           trap 0xf
     > 0x007669da      d487           add.l d7, d2
         0x007669dc      31420010       move.w d2, 0x10(a0)
         0x007669e0      342e000a       move.w 0xa(a6), d2
         0x007669e4      48c2           ext.l d2
         0x007669e6      2602           move.l d2, d3
         0x007669e8      e783           asl.l 0x3, d3
         0x007669ea      9687           sub.l d7, d3
         0x007669ec      0c830000ffff   cmpi.l 0xffff, d3
     < 0x007669f2      6302           bls.b 0x7669f6
        0x007669f4      4e4f           trap 0xf
     > 0x007669f6      d687           add.l d7, d3
         0x007669f8      31430012       move.w d3, 0x12(a0)
         0x007669fc      31410024       move.w d1, 0x24(a0)
         0x00766a00      31420026       move.w d2, 0x26(a0)
         0x00766a04      31400028       move.w d0, 0x28(a0)
         0x00766a08      317c0002002a   move.w 0x2, 0x2a(a0)
         0x00766a0e      2f3ac560       move.l 0x762f70(pc), -(a7)
         0x00766a12      3f3ac55a       move.w 0x762f6e(pc), -(a7)
         0x00766a16      4eb900520fa4   jsr BRUSHCOM.set_br_colour
         0x00766a1c      584f           addq.w 0x4, a7
         0x00766a1e      1e86           move.b d6, (a7)
         0x00766a20      4227           clr.b -(a7)
         0x00766a22      514f           subq.w 0x8, a7
         0x00766a24      244f           movea.l a7, a2
         0x00766a26      47e80024       lea.l 0x24(a0), a3
         0x00766a2a      7007           moveq 0x7, d0
     > 0x00766a2c      14db           move.b (a3)+, (a2)+
     < 0x00766a2e      51c8fffc       dbra d0, 0x766a2c
         0x00766a32      4eb9005213b4   jsr BRUSHCOM.br_wipe
         0x00766a38      defc000c       adda.w 0xc, a7
         0x00766a3c      31440024       move.w d4, 0x24(a0)
         0x00766a40      316e000e0026   move.w 0xe(a6), 0x26(a0)
         0x00766a46      317c00020028   move.w 0x2, 0x28(a0)
         0x00766a4c      316e0012002a   move.w 0x12(a6), 0x2a(a0)
         0x00766a52      2f3ac51c       move.l 0x762f70(pc), -(a7)
         0x00766a56      3f3ac516       move.w 0x762f6e(pc), -(a7)
         0x00766a5a      4eb900520fa4   jsr BRUSHCOM.set_br_colour
         0x00766a60      584f           addq.w 0x4, a7
         0x00766a62      1e86           move.b d6, (a7)
         0x00766a64      4227           clr.b -(a7)
         0x00766a66      514f           subq.w 0x8, a7
         0x00766a68      244f           movea.l a7, a2
         0x00766a6a      47e80024       lea.l 0x24(a0), a3
         0x00766a6e      7007           moveq 0x7, d0
     > 0x00766a70      14db           move.b (a3)+, (a2)+
     < 0x00766a72      51c8fffc       dbra d0, 0x766a70
         0x00766a76      4eb9005213b4   jsr BRUSHCOM.br_wipe
         0x00766a7c      504f           addq.w 0x8, a7
         0x00766a7e      2eaeffcc       move.l -0x34(a6), (a7)
         0x00766a82      2f390086e6e4   move.l 0x86e6e4, -(a7)
         0x00766a88      2f3ac940       move.l 0x7633ca(pc), -(a7)
         0x00766a8c      2f2e0010       move.l 0x10(a6), -(a7)
         0x00766a90      2f14           move.l (a4), -(a7)
         0x00766a92      2f390086e6ac   move.l 0x86e6ac, -(a7)
         0x00766a98      2f390086e6a8   move.l 0x86e6a8, -(a7)
         0x00766a9e      1f05           move.b d5, -(a7)
         0x00766aa0      1f05           move.b d5, -(a7)
         0x00766aa2      2f390086e7da   move.l 0x86e7da, -(a7)
         0x00766aa8      3f390086e7ce   move.w 0x86e7ce, -(a7)
         0x00766aae      3f2efffe       move.w -0x2(a6), -(a7)
         0x00766ab2      2f390086e6d0   move.l 0x86e6d0, -(a7)
         0x00766ab8      4eb90076fbd8   jsr TYPECOM.display_type_li
         0x00766abe      defc002c       adda.w 0x2c, a7
         0x00766ac2      48680008       pea.l 0x8(a0)
         0x00766ac6      4eb90076ee76   jsr TYPECOM.dispose_type_ch
         0x00766acc      584f           addq.w 0x4, a7
      > 0x00766ace      554f           subq.w 0x2, a7
           0x00766ad0      1f05           move.b d5, -(a7)
           0x00766ad2      486effe8       pea.l -0x18(a6)
           0x00766ad6      486effec       pea.l -0x14(a6)
           0x00766ada      4eb900632858   jsr CACHECOM.new_cache_rec
           0x00766ae0      defc000a       adda.w 0xa, a7
           0x00766ae4      4a1f           tst.b (a7)+
       < 0x00766ae6      661e           bne.b 0x766b06
          0x00766ae8      487ac8e5       pea.l 0x7633cf(pc)
          0x00766aec      48780018       pea.l 0x18
          0x00766af0      2f17           move.l (a7), -(a7)
          0x00766af2      4eb9004047ea   jsr p_wts_o
          0x00766af8      defc000c       adda.w 0xc, a7
          0x00766afc      4eb900404946   jsr p_wtln_o
      < 0x00766b02      60000098       bra.w 0x766b9c
      > 0x00766b06      1f06           move.b d6, -(a7)
          0x00766b08      4227           clr.b -(a7)
          0x00766b0a      1f3c0004       move.b 0x4, -(a7)
          0x00766b0e      2f14           move.l (a4), -(a7)
          0x00766b10      2f2efff0       move.l -0x10(a6), -(a7)
          0x00766b14      2f2effec       move.l -0x14(a6), -(a7)
          0x00766b18      4eb900522722   jsr BRUSHCOM.str_any_str_cop
          0x00766b1e      defc000e       adda.w 0xe, a7
          0x00766b22      2ebac464       move.l 0x762f88(pc), (a7)
          0x00766b26      3f3ac45e       move.w 0x762f86(pc), -(a7)
          0x00766b2a      4eb900520fa4   jsr BRUSHCOM.set_br_colour
          0x00766b30      584f           addq.w 0x4, a7
          0x00766b32      1e86           move.b d6, (a7)
          0x00766b34      4227           clr.b -(a7)
          0x00766b36      4227           clr.b -(a7)
          0x00766b38      4227           clr.b -(a7)
          0x00766b3a      4227           clr.b -(a7)
          0x00766b3c      2f2efff0       move.l -0x10(a6), -(a7)
          0x00766b40      2f2effec       move.l -0x14(a6), -(a7)
          0x00766b44      2f14           move.l (a4), -(a7)
          0x00766b46      4eb900522da0   jsr BRUSHCOM.br_any_stamp
          0x00766b4c      defc0012       adda.w 0x12, a7
          0x00766b50      2ebac418       move.l 0x762f6a(pc), (a7)
          0x00766b54      3f3ac412       move.w 0x762f68(pc), -(a7)
          0x00766b58      4eb900520fa4   jsr BRUSHCOM.set_br_colour
          0x00766b5e      584f           addq.w 0x4, a7
          0x00766b60      1e86           move.b d6, (a7)
          0x00766b62      1f05           move.b d5, -(a7)
          0x00766b64      2f2e0010       move.l 0x10(a6), -(a7)
          0x00766b68      2f14           move.l (a4), -(a7)
          0x00766b6a      4eb9005213b4   jsr BRUSHCOM.br_wipe
          0x00766b70      defc000a       adda.w 0xa, a7
          0x00766b74      1e86           move.b d6, (a7)
          0x00766b76      4227           clr.b -(a7)
          0x00766b78      1f3c0004       move.b 0x4, -(a7)
          0x00766b7c      2f14           move.l (a4), -(a7)
          0x00766b7e      2f2efff0       move.l -0x10(a6), -(a7)
          0x00766b82      2f2effec       move.l -0x14(a6), -(a7)
          0x00766b86      4eb900522722   jsr BRUSHCOM.str_any_str_cop
          0x00766b8c      defc0012       adda.w 0x12, a7
          0x00766b90      486effe8       pea.l -0x18(a6)
          0x00766b94      4eb900632826   jsr CACHECOM.remove_cache_re
          0x00766b9a      584f           addq.w 0x4, a7
      > 0x00766b9c      1f06           move.b d6, -(a7)
           0x00766b9e      2f2e0010       move.l 0x10(a6), -(a7)
           0x00766ba2      2f14           move.l (a4), -(a7)
           0x00766ba4      4eb9005223fc   jsr BRUSHCOM.str_write_area
           0x00766baa      defc000a       adda.w 0xa, a7
           0x00766bae      2d680008ffd0   move.l 0x8(a0), -0x30(a6)
       > 0x00766bb4      246effd0       movea.l -0x30(a6), a2
          0x00766bb8      b4c5           cmpa.w d5, a2
      < 0x00766bba      6724           beq.b 0x766be0
         0x00766bbc      2d4affd4       move.l a2, -0x2c(a6)
         0x00766bc0      b5eafffc       cmpa.l -0x4(a2), a2
     < 0x00766bc4      6702           beq.b 0x766bc8
        0x00766bc6      4e4d           trap 0xd
     > 0x00766bc8      2d6a0004ffd0   move.l 0x4(a2), -0x30(a6)
         0x00766bce      b4c5           cmpa.w d5, a2
     < 0x00766bd0      670c           beq.b 0x766bde
        0x00766bd2      486effd4       pea.l -0x2c(a6)
        0x00766bd6      4eb90076ee76   jsr TYPECOM.dispose_type_ch
        0x00766bdc      584f           addq.w 0x4, a7
     < 0x00766bde      60d4           bra.b 0x766bb4
      > 0x00766be0      486effcc       pea.l -0x34(a6)
           0x00766be4      4878002c       pea.l 0x2c
           0x00766be8      4eb900403b98   jsr p_Dispos
           0x00766bee      504f           addq.w 0x8, a7
           0x00766bf0      23eeffe40086.  move.l -0x1c(a6), 0x86e6d0.l
           0x00766bf8      4cdf1fff       movem.l (a7)+, d0-d7/a0-a4
           0x00766bfc      4e5e           unlk a6
           0x00766bfe      4e75           rts
 220: MENUTYPECOM.write_fonts ();
           ; var int32_t var_8h @ a7+0x8
           ; var int32_t var_ch @ a7+0xc
           0x00766c00      4e56fed2       link.w a6, 0xfed2
           0x00766c04      bfd5           cmpa.l (a5), a7
       < 0x00766c06      6206           bhi.b 0x766c0e
          0x00766c08      44fc0002       move.w 0x2, ccr
          0x00766c0c      4e76           trapv
       > 0x00766c0e      defc011c       adda.w 0x11c, a7
           0x00766c12      48e78088       movem.l d0/a0/a4, -(a7)
           0x00766c16      41f9004047ea   lea.l p_wts_o, a0
           0x00766c1c      700c           moveq 0xc, d0
           0x00766c1e      487ac7d4       pea.l 0x7633f4(pc)
           0x00766c22      4878000b       pea.l 0xb
           0x00766c26      2f17           move.l (a7), -(a7)
           0x00766c28      4e90           jsr (a0)                    ; fcn.00000009
           0x00766c2a      dec0           adda.w d0, a7
           0x00766c2c      4eb900404946   jsr p_wtln_o
           0x00766c32      28790086e6c8   movea.l 0x86e6c8, a4
       > 0x00766c38      b8fc0001       cmpa.w 0x1, a4
      < 0x00766c3c      67000096       beq.w 0x766cd4
         0x00766c40      b9ecfffc       cmpa.l -0x4(a4), a4
     < 0x00766c44      6702           beq.b 0x766c48
        0x00766c46      4e4d           trap 0xd
     > 0x00766c48      486c000d       pea.l 0xd(a4)
         0x00766c4c      42a7           clr.l -(a7)
         0x00766c4e      1f6c000c0003   move.b 0xc(a4), 0x3(a7)
         0x00766c54      2f17           move.l (a7), -(a7)
         0x00766c56      4e90           jsr (a0)                    ; fcn.00000009
         0x00766c58      dec0           adda.w d0, a7
         0x00766c5a      487ac7a4       pea.l 0x763400(pc)
         0x00766c5e      48780003       pea.l 0x3
         0x00766c62      2f17           move.l (a7), -(a7)
         0x00766c64      4e90           jsr (a0)                    ; fcn.00000009
         0x00766c66      504f           addq.w 0x8, a7
         0x00766c68      2eac020e       move.l 0x20e(a4), (a7)
         0x00766c6c      4878ffff       pea.l 0xffff
         0x00766c70      4eb9004070e4   jsr p_wti_o
         0x00766c76      504f           addq.w 0x8, a7
         0x00766c78      b9f90086e6cc   cmpa.l 0x86e6cc, a4
     < 0x00766c7e      660e           bne.b 0x766c8e
        0x00766c80      487ac782       pea.l 0x763404(pc)
        0x00766c84      48780004       pea.l 0x4
        0x00766c88      2f17           move.l (a7), -(a7)
        0x00766c8a      4e90           jsr (a0)                    ; fcn.00000009
        0x00766c8c      dec0           adda.w d0, a7
     > 0x00766c8e      486c0008       pea.l 0x8(a4)
         0x00766c92      486efff6       pea.l -0xa(a6)
         0x00766c96      486efff4       pea.l -0xc(a6)
         0x00766c9a      486efff2       pea.l -0xe(a6)
         0x00766c9e      4eb900598736   jsr K0_DISKMGR.k_gen_fid
         0x00766ca4      9efc00f0       suba.w 0xf0, a7
         0x00766ca8      486efff6       pea.l -0xa(a6)
         0x00766cac      4eb9005ef416   jsr F2_UTILITY.f_fid_string
         0x00766cb2      584f           addq.w 0x4, a7
         0x00766cb4      486f0001       pea.l 0x1(a7)
         0x00766cb8      42a7           clr.l -(a7)
         0x00766cba      1f6f00080003   move.b 0x8(a7), 0x3(a7)
         0x00766cc0      2f17           move.l (a7), -(a7)
         0x00766cc2      4e90           jsr (a0)                    ; fcn.00000009
         0x00766cc4      defc010c       adda.w 0x10c, a7
         0x00766cc8      4eb900404946   jsr p_wtln_o
         0x00766cce      2854           movea.l (a4), a4
      < 0x00766cd0      6000ff66       bra.w 0x766c38
      > 0x00766cd4      4cdf1101       movem.l (a7)+, d0/a0/a4
           0x00766cd8      4e5e           unlk a6
           0x00766cda      4e75           rts
            ; XREFS: CALL 0x004a10a0  CALL 0x004a1350  CALL 0x004a153c  
            ; XREFS: CALL 0x004a2296  CALL 0x004a265c  CALL 0x004a3662  
            ; XREFS: CALL 0x004a39c8  CALL 0x004a6278  CALL 0x004a691e  
 30: MENUTYPECOM.get_cur_font_ti ();
           0x00766cdc      4e56fffc       link.w a6, 0xfffc
           0x00766ce0      bfd5           cmpa.l (a5), a7
       < 0x00766ce2      6206           bhi.b 0x766cea
          0x00766ce4      44fc0002       move.w 0x2, ccr
          0x00766ce8      4e76           trapv
       > 0x00766cea      defc0004       adda.w 0x4, a7
           0x00766cee      2d790086e6cc.  move.l 0x86e6cc, 0x8(a6)
           0x00766cf6      4e5e           unlk a6
           0x00766cf8      4e75           rts
            ; CALL XREF from MENUTYPECOM.enbuffer_font @ 0x7671da
            ; CALL XREF from MENUTYPECOM.debuffer_font @ 0x7672de
            ; CALL XREF from MENUTYPECOM.next_font_title @ 0x76a2c4
            ; CALL XREF from MENUTYPECOM.load_fonts @ 0x76c12a
 242: MENUTYPECOM.sel_font_title ();
           0x00766cfa      4e56feda       link.w a6, 0xfeda
           0x00766cfe      bfd5           cmpa.l (a5), a7
       < 0x00766d00      6206           bhi.b 0x766d08
          0x00766d02      44fc0002       move.w 0x2, ccr
          0x00766d06      4e76           trapv
       > 0x00766d08      defc0126       adda.w 0x126, a7
           0x00766d0c      48e7c0f8       movem.l d0-d1/a0-a4, -(a7)
           0x00766d10      47f90086e6d0   lea.l 0x86e6d0, a3
           0x00766d16      49f90086e6cc   lea.l 0x86e6cc, a4
           0x00766d1c      7201           moveq 0x1, d1
           0x00766d1e      206e0008       movea.l 0x8(a6), a0
           0x00766d22      b0c1           cmpa.w d1, a0
       < 0x00766d24      670000a8       beq.w 0x766dce
          0x00766d28      b1e8fffc       cmpa.l -0x4(a0), a0
      < 0x00766d2c      6702           beq.b 0x766d30
         0x00766d2e      4e4d           trap 0xd
      > 0x00766d30      554f           subq.w 0x2, a7
          0x00766d32      48680008       pea.l 0x8(a0)
          0x00766d36      1f28020c       move.b 0x20c(a0), -(a7)
          0x00766d3a      4868020e       pea.l 0x20e(a0)
          0x00766d3e      2253           movea.l (a3), a1
          0x00766d40      b3e9fffc       cmpa.l -0x4(a1), a1
      < 0x00766d44      6702           beq.b 0x766d48
         0x00766d46      4e4d           trap 0xd
      > 0x00766d48      4851           pea.l (a1)
          0x00766d4a      4227           clr.b -(a7)
          0x00766d4c      4eb90076ea62   jsr TYPECOM.sel_font
          0x00766d52      defc0010       adda.w 0x10, a7
          0x00766d56      1017           move.b (a7), d0
          0x00766d58      b03ac6af       cmp.b 0x763409(pc), d0
      < 0x00766d5c      6608           bne.b 0x766d66
         0x00766d5e      102f0001       move.b 0x1(a7), d0
         0x00766d62      b03ac6a6       cmp.b 0x76340a(pc), d0
     > 0x00766d66      6640           bne.b 0x766da8
         0x00766d68      2253           movea.l (a3), a1
         0x00766d6a      b3e9fffc       cmpa.l -0x4(a1), a1
     < 0x00766d6e      6702           beq.b 0x766d72
        0x00766d70      4e4d           trap 0xd
     > 0x00766d72      216905160212   move.l 0x516(a1), 0x212(a0)
         0x00766d78      1169051a0216   move.b 0x51a(a1), 0x216(a0)
         0x00766d7e      2888           move.l a0, (a4)
         0x00766d80      9efc0100       suba.w 0x100, a7
         0x00766d84      224f           movea.l a7, a1
         0x00766d86      45e8010c       lea.l 0x10c(a0), a2
         0x00766d8a      303c00ff       move.w 0xff, d0
     > 0x00766d8e      12da           move.b (a2)+, (a1)+
     < 0x00766d90      51c8fffc       dbra d0, 0x766d8e
         0x00766d94      4eb9004a89b8   jsr MENUKEYBDCOM.sel_map_categor
         0x00766d9a      defc00fe       adda.w 0xfe, a7
         0x00766d9e      4217           clr.b (a7)
         0x00766da0      4ebae79a       jsr MENUTYPECOM.update_type_box(pc)
         0x00766da4      584f           addq.w 0x4, a7
     < 0x00766da6      6026           bra.b 0x766dce
     > 0x00766da8      487ac662       pea.l 0x76340c(pc)
         0x00766dac      48780018       pea.l 0x18
         0x00766db0      2f17           move.l (a7), -(a7)
         0x00766db2      4eb9004047ea   jsr p_wts_o
         0x00766db8      defc000c       adda.w 0xc, a7
         0x00766dbc      4eb900404946   jsr p_wtln_o
         0x00766dc2      48680008       pea.l 0x8(a0)
         0x00766dc6      4eb900767222   jsr MENUTYPECOM.debuffer_font
         0x00766dcc      5c4f           addq.w 0x6, a7
      > 0x00766dce      3f3c0082       move.w 0x82, -(a7)
           0x00766dd2      4227           clr.b -(a7)
           0x00766dd4      2054           movea.l (a4), a0
           0x00766dd6      b0c1           cmpa.w d1, a0
       < 0x00766dd8      6702           beq.b 0x766ddc
          0x00766dda      5217           addq.b 0x1, (a7)
       > 0x00766ddc      4eb900483972   jsr MENUCOM.set_enable_box
           0x00766de2      584f           addq.w 0x4, a7
           0x00766de4      4cdf1f03       movem.l (a7)+, d0-d1/a0-a4
           0x00766de8      4e5e           unlk a6
           0x00766dea      4e75           rts
            ; CALL XREFS from MENUTYPECOM.add_font @ 0x766f4c, 0x766f88
 142: MENUTYPECOM.alphabetical_so ();
           0x00766dec      4e56ffbc       link.w a6, 0xffbc
           0x00766df0      bfd5           cmpa.l (a5), a7
       < 0x00766df2      6206           bhi.b 0x766dfa
          0x00766df4      44fc0002       move.w 0x2, ccr
          0x00766df8      4e76           trapv
       > 0x00766dfa      defc003a       adda.w 0x3a, a7
           0x00766dfe      48e7c7f0       movem.l d0-d1/d5-d7/a0-a3, -(a7)
           0x00766e02      45ee0010       lea.l 0x10(a6), a2
           0x00766e06      47ee000c       lea.l 0xc(a6), a3
           0x00766e0a      223c000000ff   move.l 0xff, d1
           0x00766e10      7c01           moveq 0x1, d6
           0x00766e12      7e01           moveq 0x1, d7
           0x00766e14      2053           movea.l (a3), a0
           0x00766e16      226e0008       movea.l 0x8(a6), a1
           0x00766e1a      1010           move.b (a0), d0
           0x00766e1c      b011           cmp.b (a1), d0
       < 0x00766e1e      6404           bcc.b 0x766e24
          0x00766e20      c081           and.l d1, d0
      < 0x00766e22      6004           bra.b 0x766e28
      > 0x00766e24      4280           clr.l d0
          0x00766e26      1011           move.b (a1), d0
      > 0x00766e28      2a00           move.l d0, d5
           0x00766e2a      2053           movea.l (a3), a0
           0x00766e2c      226e0008       movea.l 0x8(a6), a1
       > 0x00766e30      4a06           tst.b d6
      < 0x00766e32      672c           beq.b 0x766e60
         0x00766e34      be85           cmp.l d5, d7
     < 0x00766e36      6e28           bgt.b 0x766e60
        0x00766e38      be81           cmp.l d1, d7
    < 0x00766e3a      6302           bls.b 0x766e3e
       0x00766e3c      4e4f           trap 0xf
    > 0x00766e3e      10307800       move.b (a0, d7.l), d0
        0x00766e42      b0317800       cmp.b (a1, d7.l), d0
    < 0x00766e46      6408           bcc.b 0x766e50
       0x00766e48      7c00           moveq 0x0, d6
       0x00766e4a      14bc0001       move.b 0x1, (a2)
   < 0x00766e4e      600e           bra.b 0x766e5e
   > 0x00766e50      b0317800       cmp.b (a1, d7.l), d0
   < 0x00766e54      6306           bls.b 0x766e5c
      0x00766e56      7c00           moveq 0x0, d6
      0x00766e58      4212           clr.b (a2)
  < 0x00766e5a      6002           bra.b 0x766e5e
  > 0x00766e5c      5287           addq.l 0x1, d7
  < 0x00766e5e      60d0           bra.b 0x766e30
     > 0x00766e60      be85           cmp.l d5, d7
       < 0x00766e62      6f0e           ble.b 0x766e72
          0x00766e64      4212           clr.b (a2)
          0x00766e66      2053           movea.l (a3), a0
          0x00766e68      1010           move.b (a0), d0
          0x00766e6a      c081           and.l d1, d0
          0x00766e6c      ba80           cmp.l d0, d5
      < 0x00766e6e      6602           bne.b 0x766e72
         0x00766e70      5212           addq.b 0x1, (a2)
      > 0x00766e72      4cdf0fe3       movem.l (a7)+, d0-d1/d5-d7/a0-a3
           0x00766e76      4e5e           unlk a6
           0x00766e78      4e75           rts
            ; CALL XREF from MENUTYPECOM.enbuffer_font @ 0x7671cc
            ; CALL XREF from MENUTYPECOM.load_fonts @ 0x76c122
 360: MENUTYPECOM.add_font ();
           ; var int32_t var_ch @ a6-0xc
           0x00766e7a      4e56ffac       link.w a6, 0xffac
           0x00766e7e      bfd5           cmpa.l (a5), a7
       < 0x00766e80      6206           bhi.b 0x766e88
          0x00766e82      44fc0002       move.w 0x2, ccr
          0x00766e86      4e76           trapv
       > 0x00766e88      defc0042       adda.w 0x42, a7
           0x00766e8c      48e7c1f8       movem.l d0-d1/d7/a0-a4, -(a7)
           0x00766e90      7201           moveq 0x1, d1
           0x00766e92      486efff4       pea.l -0xc(a6)
           0x00766e96      4878021c       pea.l 0x21c
           0x00766e9a      4eb900403a92   jsr p_New
           0x00766ea0      504f           addq.w 0x8, a7
           0x00766ea2      206efff4       movea.l -0xc(a6), a0
           0x00766ea6      b1e8fffc       cmpa.l -0x4(a0), a0
       < 0x00766eaa      6702           beq.b 0x766eae
          0x00766eac      4e4d           trap 0xd
       > 0x00766eae      2081           move.l d1, (a0)
           0x00766eb0      21410004       move.l d1, 0x4(a0)
           0x00766eb4      43e8000c       lea.l 0xc(a0), a1
           0x00766eb8      45ee0108       lea.l 0x108(a6), a2
           0x00766ebc      303c00ff       move.w 0xff, d0
       > 0x00766ec0      12da           move.b (a2)+, (a1)+
       < 0x00766ec2      51c8fffc       dbra d0, 0x766ec0
           0x00766ec6      43e8010c       lea.l 0x10c(a0), a1
           0x00766eca      45ee0008       lea.l 0x8(a6), a2
           0x00766ece      303c00ff       move.w 0xff, d0
       > 0x00766ed2      12da           move.b (a2)+, (a1)+
       < 0x00766ed4      51c8fffc       dbra d0, 0x766ed2
           0x00766ed8      4868010c       pea.l 0x10c(a0)
           0x00766edc      4eb900408fa8   jsr p_upper
           0x00766ee2      584f           addq.w 0x4, a7
           0x00766ee4      4228020c       clr.b 0x20c(a0)
           0x00766ee8      48780001       pea.l 0x1
           0x00766eec      215f020e       move.l (a7)+, 0x20e(a0)
           0x00766ef0      21410212       move.l d1, 0x212(a0)
           0x00766ef4      42280216       clr.b 0x216(a0)
           0x00766ef8      21410008       move.l d1, 0x8(a0)
           0x00766efc      554f           subq.w 0x2, a7
           0x00766efe      486e0208       pea.l 0x208(a6)
           0x00766f02      48680008       pea.l 0x8(a0)
           0x00766f06      4eb900594c72   jsr K0_DISKMGR.k_copy_ref
           0x00766f0c      504f           addq.w 0x8, a7
           0x00766f0e      1017           move.b (a7), d0
           0x00766f10      b03ac513       cmp.b 0x763425(pc), d0
       < 0x00766f14      6608           bne.b 0x766f1e
          0x00766f16      102f0001       move.b 0x1(a7), d0
          0x00766f1a      b03ac50a       cmp.b 0x763426(pc), d0
       > 0x00766f1e      544f           addq.w 0x2, a7
           0x00766f20      22790086e6c8   movea.l 0x86e6c8, a1
           0x00766f26      b2c1           cmpa.w d1, a1
       < 0x00766f28      660c           bne.b 0x766f36
      > 0x00766f2a      23eefff40086.  move.l -0xc(a6), 0x86e6c8.l
     < 0x00766f32      600000a0       bra.w 0x766fd4
     > 0x00766f36      b3e9fffc       cmpa.l -0x4(a1), a1
     < 0x00766f3a      6702           beq.b 0x766f3e
        0x00766f3c      4e4d           trap 0xd
     > 0x00766f3e      2851           movea.l (a1), a4
         0x00766f40      2649           movea.l a1, a3
         0x00766f42      554f           subq.w 0x2, a7
         0x00766f44      4868000c       pea.l 0xc(a0)
         0x00766f48      4869000c       pea.l 0xc(a1)
         0x00766f4c      4ebafe9e       jsr MENUTYPECOM.alphabetical_so(pc)
         0x00766f50      504f           addq.w 0x8, a7
         0x00766f52      4a1f           tst.b (a7)+
     < 0x00766f54      670a           beq.b 0x766f60
        0x00766f56      2089           move.l a1, (a0)
        0x00766f58      236efff40004   move.l -0xc(a6), 0x4(a1)
     < 0x00766f5e      60ca           bra.b 0x766f2a
      > 0x00766f60      7e00           moveq 0x0, d7
      > 0x00766f62      b8c1           cmpa.w d1, a4
     < 0x00766f64      674e           beq.b 0x766fb4
        0x00766f66      4a07           tst.b d7
    < 0x00766f68      664a           bne.b 0x766fb4
       0x00766f6a      246efff4       movea.l -0xc(a6), a2
       0x00766f6e      b5eafffc       cmpa.l -0x4(a2), a2
   < 0x00766f72      6702           beq.b 0x766f76
      0x00766f74      4e4d           trap 0xd
   > 0x00766f76      b9ecfffc       cmpa.l -0x4(a4), a4
   < 0x00766f7a      6702           beq.b 0x766f7e
      0x00766f7c      4e4d           trap 0xd
   > 0x00766f7e      554f           subq.w 0x2, a7
       0x00766f80      486a000c       pea.l 0xc(a2)
       0x00766f84      486c000c       pea.l 0xc(a4)
       0x00766f88      4ebafe62       jsr MENUTYPECOM.alphabetical_so(pc)
       0x00766f8c      504f           addq.w 0x8, a7
       0x00766f8e      4a1f           tst.b (a7)+
   < 0x00766f90      671c           beq.b 0x766fae
      0x00766f92      248c           move.l a4, (a2)
      0x00766f94      254b0004       move.l a3, 0x4(a2)
      0x00766f98      296efff40004   move.l -0xc(a6), 0x4(a4)
      0x00766f9e      b7ebfffc       cmpa.l -0x4(a3), a3
  < 0x00766fa2      6702           beq.b 0x766fa6
     0x00766fa4      4e4d           trap 0xd
  > 0x00766fa6      26aefff4       move.l -0xc(a6), (a3)
      0x00766faa      7e01           moveq 0x1, d7
  < 0x00766fac      6004           bra.b 0x766fb2
  > 0x00766fae      264c           movea.l a4, a3
      0x00766fb0      2854           movea.l (a4), a4
  < 0x00766fb2      60ae           bra.b 0x766f62
    > 0x00766fb4      b8c1           cmpa.w d1, a4
      < 0x00766fb6      661c           bne.b 0x766fd4
         0x00766fb8      b7ebfffc       cmpa.l -0x4(a3), a3
     < 0x00766fbc      6702           beq.b 0x766fc0
        0x00766fbe      4e4d           trap 0xd
     > 0x00766fc0      26aefff4       move.l -0xc(a6), (a3)
         0x00766fc4      246efff4       movea.l -0xc(a6), a2
         0x00766fc8      b5eafffc       cmpa.l -0x4(a2), a2
     < 0x00766fcc      6702           beq.b 0x766fd0
        0x00766fce      4e4d           trap 0xd
     > 0x00766fd0      254b0004       move.l a3, 0x4(a2)
     > 0x00766fd4      2d6efff4020c   move.l -0xc(a6), 0x20c(a6)
           0x00766fda      4cdf1f83       movem.l (a7)+, d0-d1/d7/a0-a4
           0x00766fde      4e5e           unlk a6
           0x00766fe0      4e75           rts
 112: MENUTYPECOM.save_font_list ();
           0x00766fe2      4e56ffd6       link.w a6, 0xffd6
           0x00766fe6      bfd5           cmpa.l (a5), a7
       < 0x00766fe8      6206           bhi.b 0x766ff0
          0x00766fea      44fc0002       move.w 0x2, ccr
          0x00766fee      4e76           trapv
       > 0x00766ff0      defc0018       adda.w 0x18, a7
           0x00766ff4      48e70008       movem.l a4, -(a7)
           0x00766ff8      28790086e6c8   movea.l 0x86e6c8, a4
       > 0x00766ffe      b8fc0001       cmpa.w 0x1, a4
      < 0x00767002      6746           beq.b 0x76704a
         0x00767004      b9ecfffc       cmpa.l -0x4(a4), a4
     < 0x00767008      6702           beq.b 0x76700c
        0x0076700a      4e4d           trap 0xd
     > 0x0076700c      486c0008       pea.l 0x8(a4)
         0x00767010      486efff6       pea.l -0xa(a6)
         0x00767014      486efff4       pea.l -0xc(a6)
         0x00767018      486efff2       pea.l -0xe(a6)
         0x0076701c      4eb900598736   jsr K0_DISKMGR.k_gen_fid
         0x00767022      defc0010       adda.w 0x10, a7
         0x00767026      48780050       pea.l 0x50
         0x0076702a      4eb900494524   jsr TAGFILE.save_tag
         0x00767030      2eaefffc       move.l -0x4(a6), (a7)
         0x00767034      2f2efff8       move.l -0x8(a6), -(a7)
         0x00767038      3f2efff6       move.w -0xa(a6), -(a7)
         0x0076703c      4eb900494714   jsr TAGFILE.save_fid
         0x00767042      defc000a       adda.w 0xa, a7
         0x00767046      2854           movea.l (a4), a4
      < 0x00767048      60b4           bra.b 0x766ffe
      > 0x0076704a      4cdf1000       movem.l (a7)+, a4
           0x0076704e      4e5e           unlk a6
           0x00767050      4e75           rts
            ; CALL XREF from MENUTYPECOM.enbuffer_font @ 0x767216
            ; CALL XREF from MENUTYPECOM.debuffer_font @ 0x767354
 56: MENUTYPECOM.save_fonts ();
           0x00767052      4e56ffea       link.w a6, 0xffea
           0x00767056      bfd5           cmpa.l (a5), a7
       < 0x00767058      6206           bhi.b 0x767060
          0x0076705a      44fc0002       move.w 0x2, ccr
          0x0076705e      4e76           trapv
       > 0x00767060      defc0016       adda.w 0x16, a7
           0x00767064      2f390086e806   move.l 0x86e806, -(a7)
           0x0076706a      2f390086e802   move.l 0x86e802, -(a7)
           0x00767070      3f390086e800   move.w 0x86e800, -(a7)
           0x00767076      4856           pea.l (a6)
           0x00767078      487aff68       pea.l MENUTYPECOM.save_font_list(pc)
           0x0076707c      4eb900494426   jsr TAGFILE.save_tagfile
           0x00767082      defc0012       adda.w 0x12, a7
           0x00767086      4e5e           unlk a6
           0x00767088      4e75           rts
            ; CALL XREF from K91_LIBOPS.fetch_font @ 0x64e296
 408: MENUTYPECOM.enbuffer_font ();
           0x0076708a      4e56fd60       link.w a6, 0xfd60
           0x0076708e      bfd5           cmpa.l (a5), a7
       < 0x00767090      6206           bhi.b 0x767098
          0x00767092      44fc0002       move.w 0x2, ccr
          0x00767096      4e76           trapv
       > 0x00767098      defc028a       adda.w 0x28a, a7
           0x0076709c      48e7f3f8       movem.l d0-d3/d6-d7/a0-a4, -(a7)
           0x007670a0      45eefff0       lea.l -0x10(a6), a2
           0x007670a4      47ee0160       lea.l 0x160(a6), a3
           0x007670a8      7201           moveq 0x1, d1
           0x007670aa      7452           moveq 0x52, d2
           0x007670ac      760c           moveq 0xc, d3
           0x007670ae      36bac378       move.w 0x763428(pc), (a3)
           0x007670b2      7e00           moveq 0x0, d7
           0x007670b4      102e0159       move.b 0x159(a6), d0
           0x007670b8      b002           cmp.b d2, d0
       < 0x007670ba      6602           bne.b 0x7670be
          0x007670bc      5207           addq.b 0x1, d7
       > 0x007670be      4a07           tst.b d7
       < 0x007670c0      672a           beq.b 0x7670ec
          0x007670c2      554f           subq.w 0x2, a7
          0x007670c4      206e015c       movea.l 0x15c(a6), a0
          0x007670c8      4850           pea.l (a0)
          0x007670ca      4eb90076df30   jsr TYPECOM.check_font
          0x007670d0      584f           addq.w 0x4, a7
          0x007670d2      349f           move.w (a7)+, (a2)
          0x007670d4      3692           move.w (a2), (a3)
          0x007670d6      7e00           moveq 0x0, d7
          0x007670d8      1012           move.b (a2), d0
          0x007670da      b03ac34f       cmp.b 0x76342b(pc), d0
      < 0x007670de      6608           bne.b 0x7670e8
         0x007670e0      102efff1       move.b -0xf(a6), d0
         0x007670e4      b03ac346       cmp.b 0x76342c(pc), d0
     > 0x007670e8      6602           bne.b 0x7670ec
         0x007670ea      5207           addq.b 0x1, d7
     > 0x007670ec      4a07           tst.b d7
       < 0x007670ee      6740           beq.b 0x767130
          0x007670f0      486efff4       pea.l -0xc(a6)
          0x007670f4      486efff8       pea.l -0x8(a6)
          0x007670f8      486efffc       pea.l -0x4(a6)
          0x007670fc      4eb900403c94   jsr p_Heap_Data
          0x00767102      dec3           adda.w d3, a7
          0x00767104      202efff4       move.l -0xc(a6), d0
          0x00767108      0c80001e8480   cmpi.l 0x1e8480, d0
      < 0x0076710e      6c20           bge.b 0x767130
         0x00767110      7e00           moveq 0x0, d7
         0x00767112      34bac31a       move.w 0x76342e(pc), (a2)
         0x00767116      3692           move.w (a2), (a3)
         0x00767118      487ac317       pea.l 0x763431(pc)
         0x0076711c      48780013       pea.l 0x13
         0x00767120      2f17           move.l (a7), -(a7)
         0x00767122      4eb9004047ea   jsr p_wts_o
         0x00767128      dec3           adda.w d3, a7
         0x0076712a      4eb900404946   jsr p_wtln_o
      > 0x00767130      4a07           tst.b d7
       < 0x00767132      670000e6       beq.w 0x76721a
          0x00767136      7e00           moveq 0x0, d7
          0x00767138      7c00           moveq 0x0, d6
          0x0076713a      20790086e6c8   movea.l 0x86e6c8, a0
          0x00767140      b0c1           cmpa.w d1, a0
      < 0x00767142      6602           bne.b 0x767146
         0x00767144      5206           addq.b 0x1, d6
      > 0x00767146      4a06           tst.b d6
      < 0x00767148      670a           beq.b 0x767154
         0x0076714a      1f01           move.b d1, -(a7)
         0x0076714c      4ebae7b4       jsr MENUTYPECOM.clear_type(pc)
         0x00767150      544f           addq.w 0x2, a7
     < 0x00767152      6034           bra.b 0x767188
     > 0x00767154      2848           movea.l a0, a4
         0x00767156      226e015c       movea.l 0x15c(a6), a1
     > 0x0076715a      b8c1           cmpa.w d1, a4
    < 0x0076715c      672a           beq.b 0x767188
       0x0076715e      4a07           tst.b d7
   < 0x00767160      6626           bne.b 0x767188
      0x00767162      b9ecfffc       cmpa.l -0x4(a4), a4
  < 0x00767166      6702           beq.b 0x76716a
     0x00767168      4e4d           trap 0xd
  > 0x0076716a      554f           subq.w 0x2, a7
      0x0076716c      4851           pea.l (a1)
      0x0076716e      486c0008       pea.l 0x8(a4)
      0x00767172      4eb9005a25ac   jsr K04_FILEROPS.k_same_file
      0x00767178      504f           addq.w 0x8, a7
      0x0076717a      101f           move.b (a7)+, d0
      0x0076717c      4880           ext.w d0
      0x0076717e      4181           chk.w d1, d0
      0x00767180      1e00           move.b d0, d7
  < 0x00767182      6602           bne.b 0x767186
     0x00767184      2854           movea.l (a4), a4
  < 0x00767186      60d2           bra.b 0x76715a
   > 0x00767188      4a07           tst.b d7
      < 0x0076718a      664c           bne.b 0x7671d8
         0x0076718c      9ec2           suba.w d2, a7
         0x0076718e      204f           movea.l a7, a0
         0x00767190      43ee0108       lea.l 0x108(a6), a1
         0x00767194      7013           moveq 0x13, d0
     > 0x00767196      20d9           move.l (a1)+, (a0)+
     < 0x00767198      51c8fffc       dbra d0, 0x767196
         0x0076719c      10d9           move.b (a1)+, (a0)+
         0x0076719e      594f           subq.w 0x4, a7
         0x007671a0      206e015c       movea.l 0x15c(a6), a0
         0x007671a4      2f10           move.l (a0), -(a7)
         0x007671a6      9efc0100       suba.w 0x100, a7
         0x007671aa      486f0108       pea.l 0x108(a7)
         0x007671ae      4267           clr.w -(a7)
         0x007671b0      3f3c0050       move.w 0x50, -(a7)
         0x007671b4      4eb9006a3cb8   jsr TEXTCOM.t_string
         0x007671ba      9efc00f8       suba.w 0xf8, a7
         0x007671be      204f           movea.l a7, a0
         0x007671c0      43ee0008       lea.l 0x8(a6), a1
         0x007671c4      703f           moveq 0x3f, d0
     > 0x007671c6      20d9           move.l (a1)+, (a0)+
     < 0x007671c8      51c8fffc       dbra d0, 0x7671c6
         0x007671cc      4ebafcac       jsr MENUTYPECOM.add_font(pc)
         0x007671d0      defc0204       adda.w 0x204, a7
         0x007671d4      285f           movea.l (a7)+, a4
         0x007671d6      dec2           adda.w d2, a7
      > 0x007671d8      2f0c           move.l a4, -(a7)
          0x007671da      4ebafb1e       jsr MENUTYPECOM.sel_font_title(pc)
          0x007671de      584f           addq.w 0x4, a7
          0x007671e0      4a06           tst.b d6
      < 0x007671e2      672a           beq.b 0x76720e
         0x007671e4      20790086e6d8   movea.l 0x86e6d8, a0
         0x007671ea      b1e8fffc       cmpa.l -0x4(a0), a0
     < 0x007671ee      6702           beq.b 0x7671f2
        0x007671f0      4e4d           trap 0xd
     > 0x007671f2      22790086e6d0   movea.l 0x86e6d0, a1
         0x007671f8      b3e9fffc       cmpa.l -0x4(a1), a1
     < 0x007671fc      6702           beq.b 0x767200
        0x007671fe      4e4d           trap 0xd
     > 0x00767200      2169000c0040   move.l 0xc(a1), 0x40(a0)
         0x00767206      217c000007d0.  move.l 0x7d0, 0x44(a0)
      > 0x0076720e      4227           clr.b -(a7)
          0x00767210      4ebae32a       jsr MENUTYPECOM.update_type_box(pc)
          0x00767214      544f           addq.w 0x2, a7
          0x00767216      4ebafe3a       jsr MENUTYPECOM.save_fonts(pc)
       > 0x0076721a      4cdf1fcf       movem.l (a7)+, d0-d3/d6-d7/a0-a4
           0x0076721e      4e5e           unlk a6
           0x00767220      4e75           rts
            ; CALL XREF from K91_LIBOPS.k91_delete @ 0x64f4b4
            ; CALL XREF from MENUTYPECOM.sel_font_title @ 0x766dc6
            ; CALL XREF from MENUTYPECOM.hit_lose_font @ 0x7678f2
 322: MENUTYPECOM.debuffer_font ();
           0x00767222      4e56ffc4       link.w a6, 0xffc4
           0x00767226      bfd5           cmpa.l (a5), a7
       < 0x00767228      6206           bhi.b 0x767230
          0x0076722a      44fc0002       move.w 0x2, ccr
          0x0076722e      4e76           trapv
       > 0x00767230      defc0036       adda.w 0x36, a7
           0x00767234      48e780f8       movem.l d0/a0-a4, -(a7)
           0x00767238      7001           moveq 0x1, d0
           0x0076723a      2d790086e6c8.  move.l 0x86e6c8, -0x4(a6)
           0x00767242      206e0008       movea.l 0x8(a6), a0
       > 0x00767246      226efffc       movea.l -0x4(a6), a1
          0x0076724a      b2c0           cmpa.w d0, a1
      < 0x0076724c      6700010e       beq.w 0x76735c
         0x00767250      b3e9fffc       cmpa.l -0x4(a1), a1
     < 0x00767254      6702           beq.b 0x767258
        0x00767256      4e4d           trap 0xd
     > 0x00767258      554f           subq.w 0x2, a7
         0x0076725a      4850           pea.l (a0)
         0x0076725c      48690008       pea.l 0x8(a1)
         0x00767260      4eb9005a25ac   jsr K04_FILEROPS.k_same_file
         0x00767266      504f           addq.w 0x8, a7
         0x00767268      4a1f           tst.b (a7)+
     < 0x0076726a      670000e4       beq.w 0x767350
        0x0076726e      2451           movea.l (a1), a2
        0x00767270      b4c0           cmpa.w d0, a2
    < 0x00767272      665e           bne.b 0x7672d2
       0x00767274      26690004       movea.l 0x4(a1), a3
       0x00767278      b6c0           cmpa.w d0, a3
   < 0x0076727a      6656           bne.b 0x7672d2
      0x0076727c      4eb9004b2456   jsr MENUPASTECOM.push_cut_pic
      0x00767282      3f3c0082       move.w 0x82, -(a7)
      0x00767286      4227           clr.b -(a7)
      0x00767288      4eb900483972   jsr MENUCOM.set_enable_box
      0x0076728e      544f           addq.w 0x2, a7
      0x00767290      1e80           move.b d0, (a7)
      0x00767292      4ebae66e       jsr MENUTYPECOM.clear_type(pc)
      0x00767296      544f           addq.w 0x2, a7
      0x00767298      4869020e       pea.l 0x20e(a1)
      0x0076729c      4eb90076eb6a   jsr TYPECOM.font_forget
      0x007672a2      544f           addq.w 0x2, a7
      0x007672a4      48690008       pea.l 0x8(a1)
      0x007672a8      4eb900594e02   jsr K0_DISKMGR.k_lose_ref
      0x007672ae      584f           addq.w 0x4, a7
      0x007672b0      3d5ffffa       move.w (a7)+, -0x6(a6)
      0x007672b4      486efffc       pea.l -0x4(a6)
      0x007672b8      4878021c       pea.l 0x21c
      0x007672bc      4eb900403b98   jsr p_Dispos
      0x007672c2      504f           addq.w 0x8, a7
      0x007672c4      2d40fffc       move.l d0, -0x4(a6)
      0x007672c8      23c00086e6c8   move.l d0, 0x86e6c8
  < 0x007672ce      60000084       bra.w 0x767354
  > 0x007672d2      b4c0           cmpa.w d0, a2
   < 0x007672d4      6704           beq.b 0x7672da
      0x007672d6      2f0a           move.l a2, -(a7)
  < 0x007672d8      6004           bra.b 0x7672de
  > 0x007672da      2f290004       move.l 0x4(a1), -(a7)
  > 0x007672de      4ebafa1a       jsr MENUTYPECOM.sel_font_title(pc)
       0x007672e2      584f           addq.w 0x4, a7
       0x007672e4      266efffc       movea.l -0x4(a6), a3
       0x007672e8      b7ebfffc       cmpa.l -0x4(a3), a3
   < 0x007672ec      6702           beq.b 0x7672f0
      0x007672ee      4e4d           trap 0xd
   > 0x007672f0      486b020e       pea.l 0x20e(a3)
       0x007672f4      4eb90076eb6a   jsr TYPECOM.font_forget
       0x007672fa      544f           addq.w 0x2, a7
       0x007672fc      486b0008       pea.l 0x8(a3)
       0x00767300      4eb900594e02   jsr K0_DISKMGR.k_lose_ref
       0x00767306      584f           addq.w 0x4, a7
       0x00767308      3d5ffffa       move.w (a7)+, -0x6(a6)
       0x0076730c      286b0004       movea.l 0x4(a3), a4
       0x00767310      b8c0           cmpa.w d0, a4
   < 0x00767312      6608           bne.b 0x76731c
      0x00767314      23d30086e6c8   move.l (a3), 0x86e6c8
  < 0x0076731a      600a           bra.b 0x767326
  > 0x0076731c      b9ecfffc       cmpa.l -0x4(a4), a4
  < 0x00767320      6702           beq.b 0x767324
     0x00767322      4e4d           trap 0xd
  > 0x00767324      2893           move.l (a3), (a4)
  > 0x00767326      2853           movea.l (a3), a4
       0x00767328      b8c0           cmpa.w d0, a4
   < 0x0076732a      670e           beq.b 0x76733a
      0x0076732c      b9ecfffc       cmpa.l -0x4(a4), a4
  < 0x00767330      6702           beq.b 0x767334
     0x00767332      4e4d           trap 0xd
  > 0x00767334      296b00040004   move.l 0x4(a3), 0x4(a4)
   > 0x0076733a      486efffc       pea.l -0x4(a6)
       0x0076733e      4878021c       pea.l 0x21c
       0x00767342      4eb900403b98   jsr p_Dispos
       0x00767348      504f           addq.w 0x8, a7
       0x0076734a      2d40fffc       move.l d0, -0x4(a6)
   < 0x0076734e      6004           bra.b 0x767354
   > 0x00767350      2d51fffc       move.l (a1), -0x4(a6)
  > 0x00767354      4ebafcfc       jsr MENUTYPECOM.save_fonts(pc)
      < 0x00767358      6000feec       bra.w 0x767246
      > 0x0076735c      4cdf1f01       movem.l (a7)+, d0/a0-a4
           0x00767360      4e5e           unlk a6
           0x00767362      4e75           rts
            ; CALL XREF from MENUKEYBDCOM.hit_make_menufo @ 0x4a77f0
            ; CALL XREF from MENUKEYBDCOM.hit_make_keypad @ 0x4a78a8
 1202: MENUTYPECOM.make_menu_font (int32_t arg_4h, int32_t arg_8h, int32_t arg_10h, int32_t arg_14h);
           ; arg int32_t arg_4h @ a6+0x4
           ; arg int32_t arg_8h @ a6+0x8
           ; arg int32_t arg_10h @ a6+0x10
           ; arg int32_t arg_14h @ a6+0x14
           0x00767364      4e56ff62       link.w a6, 0xff62
           0x00767368      bfd5           cmpa.l (a5), a7
       < 0x0076736a      6206           bhi.b 0x767372
          0x0076736c      44fc0002       move.w 0x2, ccr
          0x00767370      4e76           trapv
       > 0x00767372      defc006c       adda.w 0x6c, a7
           0x00767376      48e7fff8       movem.l d0-d7/a0-a4, -(a7)
           0x0076737a      49f90086e6d0   lea.l 0x86e6d0, a4
           0x00767380      7201           moveq 0x1, d1
           0x00767382      7403           moveq 0x3, d2
           0x00767384      7a0a           moveq 0xa, d5
           0x00767386      7c0e           moveq 0xe, d6
           0x00767388      2054           movea.l (a4), a0
           0x0076738a      b1e8fffc       cmpa.l -0x4(a0), a0
       < 0x0076738e      6702           beq.b 0x767392
          0x00767390      4e4d           trap 0xd
       > 0x00767392      4a280010       tst.b 0x10(a0)
       < 0x00767396      672e           beq.b 0x7673c6
          0x00767398      9ec6           suba.w d6, a7
          0x0076739a      204f           movea.l a7, a0
          0x0076739c      43fac0a7       lea.l 0x763445(pc), a1
          0x007673a0      700d           moveq 0xd, d0
      > 0x007673a2      10d9           move.b (a1)+, (a0)+
      < 0x007673a4      51c8fffc       dbra d0, 0x7673a2
          0x007673a8      3f3c0082       move.w 0x82, -(a7)
          0x007673ac      486f0002       pea.l 0x2(a7)
          0x007673b0      48780001       pea.l 0x1
          0x007673b4      4878000e       pea.l 0xe
          0x007673b8      4eb900483af8   jsr MENUCOM.box_error
          0x007673be      defc001c       adda.w 0x1c, a7
      < 0x007673c2      6000044a       bra.w 0x76780e
      > 0x007673c6      4a2e0018       tst.b 0x18(a6)
      < 0x007673ca      661e           bne.b 0x7673ea
         0x007673cc      2d790086e7da.  move.l 0x86e7da, -0x30(a6)
         0x007673d4      28390086e7da   move.l 0x86e7da, d4
         0x007673da      262e0008       move.l 0x8(a6), d3
         0x007673de      4eb900407e92   jsr fcn.00407e92
         0x007673e4      23c40086e7da   move.l d4, 0x86e7da
      > 0x007673ea      486effea       pea.l -0x16(a6)
          0x007673ee      4878002c       pea.l 0x2c
          0x007673f2      4eb900403a92   jsr p_New
          0x007673f8      504f           addq.w 0x8, a7
          0x007673fa      206effea       movea.l -0x16(a6), a0
          0x007673fe      b1e8fffc       cmpa.l -0x4(a0), a0
      < 0x00767402      6702           beq.b 0x767406
         0x00767404      4e4d           trap 0xd
      > 0x00767406      2254           movea.l (a4), a1
          0x00767408      b3e9fffc       cmpa.l -0x4(a1), a1
      < 0x0076740c      6702           beq.b 0x767410
         0x0076740e      4e4d           trap 0xd
      > 0x00767410      2081           move.l d1, (a0)
          0x00767412      21410004       move.l d1, 0x4(a0)
          0x00767416      42280022       clr.b 0x22(a0)
          0x0076741a      42280023       clr.b 0x23(a0)
          0x0076741e      42280018       clr.b 0x18(a0)
          0x00767422      4268001e       clr.w 0x1e(a0)
          0x00767426      42680020       clr.w 0x20(a0)
          0x0076742a      217c41280000.  move.l 0x41280000, 0x1a(a0)
          0x00767432      302e000c       move.w 0xc(a6), d0
          0x00767436      48c0           ext.l d0
          0x00767438      e780           asl.l 0x3, d0
          0x0076743a      0480ffff8000   subi.l 0xffff8000, d0
          0x00767440      0c800000ffff   cmpi.l 0xffff, d0
      < 0x00767446      6302           bls.b 0x76744a
         0x00767448      4e4f           trap 0xf
      > 0x0076744a      0680ffff8000   addi.l 0xffff8000, d0
          0x00767450      31400010       move.w d0, 0x10(a0)
          0x00767454      302e000e       move.w 0xe(a6), d0
          0x00767458      48c0           ext.l d0
          0x0076745a      e780           asl.l 0x3, d0
          0x0076745c      0480ffff8000   subi.l 0xffff8000, d0
          0x00767462      0c800000ffff   cmpi.l 0xffff, d0
      < 0x00767468      6302           bls.b 0x76746c
         0x0076746a      4e4f           trap 0xf
      > 0x0076746c      0680ffff8000   addi.l 0xffff8000, d0
          0x00767472      31400012       move.w d0, 0x12(a0)
          0x00767476      2d6e0010fff2   move.l 0x10(a6), -0xe(a6)
          0x0076747c      2d6e0014fff6   move.l 0x14(a6), -0xa(a6)
          0x00767482      422efffa       clr.b -0x6(a6)
          0x00767486      1d7c0002fffb   move.b 0x2, -0x5(a6)
          0x0076748c      554f           subq.w 0x2, a7
          0x0076748e      2f14           move.l (a4), -(a7)
          0x00767490      3f3c000d       move.w 0xd, -(a7)
          0x00767494      2f28001a       move.l 0x1a(a0), -(a7)
          0x00767498      3f280020       move.w 0x20(a0), -(a7)
          0x0076749c      4267           clr.w -(a7)
          0x0076749e      4267           clr.w -(a7)
          0x007674a0      4227           clr.b -(a7)
          0x007674a2      4227           clr.b -(a7)
          0x007674a4      2f390086e7da   move.l 0x86e7da, -(a7)
          0x007674aa      48680008       pea.l 0x8(a0)
          0x007674ae      4eb90076eba8   jsr TYPECOM.make_new_char
          0x007674b4      defc001c       adda.w 0x1c, a7
          0x007674b8      4a1f           tst.b (a7)+
          0x007674ba      21680008000c   move.l 0x8(a0), 0xc(a0)
          0x007674c0      2d680008fffc   move.l 0x8(a0), -0x4(a6)
          0x007674c6      4eb9006a74ea   jsr TEXTMAV.init_fontdata
          0x007674cc      1f02           move.b d2, -(a7)
          0x007674ce      2f2e0014       move.l 0x14(a6), -(a7)
          0x007674d2      2f2e0010       move.l 0x10(a6), -(a7)
          0x007674d6      4eb9005223fc   jsr BRUSHCOM.str_write_area
          0x007674dc      dec5           adda.w d5, a7
          0x007674de      7e00           moveq 0x0, d7
      > 0x007674e0      4fbc00ff       chk.w 0xff, d7
         0x007674e4      48c7           ext.l d7
         0x007674e6      2007           move.l d7, d0
         0x007674e8      e580           asl.l 0x2, d0
         0x007674ea      45f10800       lea.l (a1, d0.l), a2
         0x007674ee      246a0116       movea.l 0x116(a2), a2
         0x007674f2      b4c1           cmpa.w d1, a2
     < 0x007674f4      67000214       beq.w 0x76770a
        0x007674f8      4a317816       tst.b 0x16(a1, d7.l)
    < 0x007674fc      6700020c       beq.w 0x76770a
       0x00767500      2f3aba44       move.l 0x762f46(pc), -(a7)
       0x00767504      3f3aba3e       move.w 0x762f44(pc), -(a7)
       0x00767508      4eb900520fa4   jsr BRUSHCOM.set_br_colour
       0x0076750e      584f           addq.w 0x4, a7
       0x00767510      1e82           move.b d2, (a7)
       0x00767512      4227           clr.b -(a7)
       0x00767514      2f2e0014       move.l 0x14(a6), -(a7)
       0x00767518      2f2e0010       move.l 0x10(a6), -(a7)
       0x0076751c      4eb9005213b4   jsr BRUSHCOM.br_wipe
       0x00767522      504f           addq.w 0x8, a7
       0x00767524      2ebaba44       move.l 0x762f6a(pc), (a7)
       0x00767528      3f3aba3e       move.w 0x762f68(pc), -(a7)
       0x0076752c      4eb900520fa4   jsr BRUSHCOM.set_br_colour
       0x00767532      584f           addq.w 0x4, a7
       0x00767534      1e82           move.b d2, (a7)
       0x00767536      1f01           move.b d1, -(a7)
       0x00767538      2f2e0014       move.l 0x14(a6), -(a7)
       0x0076753c      2f2e0010       move.l 0x10(a6), -(a7)
       0x00767540      4eb9005213b4   jsr BRUSHCOM.br_wipe
       0x00767546      dec5           adda.w d5, a7
       0x00767548      48c7           ext.l d7
       0x0076754a      2f07           move.l d7, -(a7)
       0x0076754c      4eb9004a114e   jsr MENUKEYBDCOM.get_char_accent
       0x00767552      584f           addq.w 0x4, a7
       0x00767554      4a1f           tst.b (a7)+
   < 0x00767556      6726           beq.b 0x76757e
      0x00767558      246effea       movea.l -0x16(a6), a2
      0x0076755c      b5eafffc       cmpa.l -0x4(a2), a2
  < 0x00767560      6702           beq.b 0x767564
     0x00767562      4e4d           trap 0xd
  > 0x00767564      7802           moveq 0x2, d4
      0x00767566      4eb900408686   jsr fcn.00408686
      0x0076756c      263c41280000   move.l 0x41280000, d3
      0x00767572      4eb900407e92   jsr fcn.00407e92
      0x00767578      2544001a       move.l d4, 0x1a(a2)
  < 0x0076757c      6014           bra.b 0x767592
  > 0x0076757e      246effea       movea.l -0x16(a6), a2
      0x00767582      b5eafffc       cmpa.l -0x4(a2), a2
  < 0x00767586      6702           beq.b 0x76758a
     0x00767588      4e4d           trap 0xd
  > 0x0076758a      257c41280000.  move.l 0x41280000, 0x1a(a2)
  > 0x00767592      3f07           move.w d7, -(a7)
       0x00767594      4227           clr.b -(a7)
       0x00767596      486effea       pea.l -0x16(a6)
       0x0076759a      486efffc       pea.l -0x4(a6)
       0x0076759e      4ebaecfc       jsr MENUTYPECOM.add_text_char(pc)
       0x007675a2      504f           addq.w 0x8, a7
       0x007675a4      2eaeffea       move.l -0x16(a6), (a7)
       0x007675a8      2f390086e6e4   move.l 0x86e6e4, -(a7)
       0x007675ae      2f3abea4       move.l 0x763454(pc), -(a7)
       0x007675b2      2f2e0014       move.l 0x14(a6), -(a7)
       0x007675b6      2f2e0010       move.l 0x10(a6), -(a7)
       0x007675ba      2f390086e6ac   move.l 0x86e6ac, -(a7)
       0x007675c0      2f390086e6a8   move.l 0x86e6a8, -(a7)
       0x007675c6      1f01           move.b d1, -(a7)
       0x007675c8      1f01           move.b d1, -(a7)
       0x007675ca      2f390086e7da   move.l 0x86e7da, -(a7)
       0x007675d0      3f390086e7ce   move.w 0x86e7ce, -(a7)
       0x007675d6      3f2efffa       move.w -0x6(a6), -(a7)
       0x007675da      2f14           move.l (a4), -(a7)
       0x007675dc      4eb90076fbd8   jsr TYPECOM.display_type_li
       0x007675e2      defc002a       adda.w 0x2a, a7
       0x007675e6      3e87           move.w d7, (a7)
       0x007675e8      4eb90076eef0   jsr TYPECOM.menu_font_add
       0x007675ee      544f           addq.w 0x2, a7
       0x007675f0      2d680008fffc   move.l 0x8(a0), -0x4(a6)
   > 0x007675f6      246efffc       movea.l -0x4(a6), a2
      0x007675fa      b5e8000c       cmpa.l 0xc(a0), a2
  < 0x007675fe      6728           beq.b 0x767628
     0x00767600      b5eafffc       cmpa.l -0x4(a2), a2
 < 0x00767604      6702           beq.b 0x767608
    0x00767606      4e4d           trap 0xd
 > 0x00767608      2d6a0004fffc   move.l 0x4(a2), -0x4(a6)
     0x0076760e      266efffc       movea.l -0x4(a6), a3
     0x00767612      b7ebfffc       cmpa.l -0x4(a3), a3
 < 0x00767616      6702           beq.b 0x76761a
    0x00767618      4e4d           trap 0xd
 > 0x0076761a      4853           pea.l (a3)
     0x0076761c      4eb90076ee76   jsr TYPECOM.dispose_type_ch
     0x00767622      584f           addq.w 0x4, a7
     0x00767624      2681           move.l d1, (a3)
  < 0x00767626      60ce           bra.b 0x7675f6
  > 0x00767628      246effea       movea.l -0x16(a6), a2
       0x0076762c      b5eafffc       cmpa.l -0x4(a2), a2
   < 0x00767630      6702           beq.b 0x767634
      0x00767632      4e4d           trap 0xd
   > 0x00767634      256a000c0008   move.l 0xc(a2), 0x8(a2)
       0x0076763a      554f           subq.w 0x2, a7
       0x0076763c      1f01           move.b d1, -(a7)
       0x0076763e      486effee       pea.l -0x12(a6)
       0x00767642      486efff2       pea.l -0xe(a6)
       0x00767646      4eb900632858   jsr CACHECOM.new_cache_rec
       0x0076764c      dec5           adda.w d5, a7
       0x0076764e      4a1f           tst.b (a7)+
   < 0x00767650      661e           bne.b 0x767670
      0x00767652      487abe05       pea.l 0x763459(pc)
      0x00767656      48780018       pea.l 0x18
      0x0076765a      2f17           move.l (a7), -(a7)
      0x0076765c      4eb9004047ea   jsr p_wts_o
      0x00767662      defc000c       adda.w 0xc, a7
      0x00767666      4eb900404946   jsr p_wtln_o
  < 0x0076766c      6000009c       bra.w 0x76770a
  > 0x00767670      1f02           move.b d2, -(a7)
      0x00767672      4227           clr.b -(a7)
      0x00767674      1f3c0004       move.b 0x4, -(a7)
      0x00767678      2f2e0010       move.l 0x10(a6), -(a7)
      0x0076767c      2f2efff6       move.l -0xa(a6), -(a7)
      0x00767680      2f2efff2       move.l -0xe(a6), -(a7)
      0x00767684      4eb900522722   jsr BRUSHCOM.str_any_str_cop
      0x0076768a      dec6           adda.w d6, a7
      0x0076768c      2ebab8fa       move.l 0x762f88(pc), (a7)
      0x00767690      3f3ab8f4       move.w 0x762f86(pc), -(a7)
      0x00767694      4eb900520fa4   jsr BRUSHCOM.set_br_colour
      0x0076769a      584f           addq.w 0x4, a7
      0x0076769c      1e82           move.b d2, (a7)
      0x0076769e      4227           clr.b -(a7)
      0x007676a0      4227           clr.b -(a7)
      0x007676a2      4227           clr.b -(a7)
      0x007676a4      4227           clr.b -(a7)
      0x007676a6      2f2efff6       move.l -0xa(a6), -(a7)
      0x007676aa      2f2efff2       move.l -0xe(a6), -(a7)
      0x007676ae      2f2e0010       move.l 0x10(a6), -(a7)
      0x007676b2      4eb900522da0   jsr BRUSHCOM.br_any_stamp
      0x007676b8      defc0012       adda.w 0x12, a7
      0x007676bc      2ebab8ac       move.l 0x762f6a(pc), (a7)
      0x007676c0      3f3ab8a6       move.w 0x762f68(pc), -(a7)
      0x007676c4      4eb900520fa4   jsr BRUSHCOM.set_br_colour
      0x007676ca      584f           addq.w 0x4, a7
      0x007676cc      1e82           move.b d2, (a7)
      0x007676ce      1f01           move.b d1, -(a7)
      0x007676d0      2f2e0014       move.l 0x14(a6), -(a7)
      0x007676d4      2f2e0010       move.l 0x10(a6), -(a7)
      0x007676d8      4eb9005213b4   jsr BRUSHCOM.br_wipe
      0x007676de      dec5           adda.w d5, a7
      0x007676e0      1e82           move.b d2, (a7)
      0x007676e2      4227           clr.b -(a7)
      0x007676e4      1f3c0004       move.b 0x4, -(a7)
      0x007676e8      2f2e0010       move.l 0x10(a6), -(a7)
      0x007676ec      2f2efff6       move.l -0xa(a6), -(a7)
      0x007676f0      2f2efff2       move.l -0xe(a6), -(a7)
      0x007676f4      4eb900522722   jsr BRUSHCOM.str_any_str_cop
      0x007676fa      defc0012       adda.w 0x12, a7
      0x007676fe      486effee       pea.l -0x12(a6)
      0x00767702      4eb900632826   jsr CACHECOM.remove_cache_re
      0x00767708      584f           addq.w 0x4, a7
  > 0x0076770a      5247           addq.w 0x1, d7
         0x0076770c      0c4700ff       cmpi.w 0xff, d7
      < 0x00767710      6f00fdce       ble.w 0x7674e0
          0x00767714      1f02           move.b d2, -(a7)
          0x00767716      2f2e0014       move.l 0x14(a6), -(a7)
          0x0076771a      2f2e0010       move.l 0x10(a6), -(a7)
          0x0076771e      4eb9005223fc   jsr BRUSHCOM.str_write_area
          0x00767724      dec5           adda.w d5, a7
          0x00767726      246effea       movea.l -0x16(a6), a2
          0x0076772a      b5eafffc       cmpa.l -0x4(a2), a2
      < 0x0076772e      6702           beq.b 0x767732
         0x00767730      4e4d           trap 0xd
      > 0x00767732      486a000c       pea.l 0xc(a2)
          0x00767736      48780082       pea.l 0x82
          0x0076773a      4eb900403b98   jsr p_Dispos
          0x00767740      504f           addq.w 0x8, a7
          0x00767742      486effea       pea.l -0x16(a6)
          0x00767746      4878002c       pea.l 0x2c
          0x0076774a      4eb900403b98   jsr p_Dispos
          0x00767750      504f           addq.w 0x8, a7
          0x00767752      4a2e0018       tst.b 0x18(a6)
      < 0x00767756      6628           bne.b 0x767780
         0x00767758      554f           subq.w 0x2, a7
         0x0076775a      2f3ab8f0       move.l 0x76304c(pc), -(a7)
         0x0076775e      2f3ab8e8       move.l 0x763048(pc), -(a7)
         0x00767762      3f3ab8e2       move.w 0x763046(pc), -(a7)
         0x00767766      48780000       pea.l 0x0
         0x0076776a      4eb9006a7112   jsr TEXTMAV.save_menu_font
         0x00767770      dec6           adda.w d6, a7
         0x00767772      4a1f           tst.b (a7)+
         0x00767774      23eeffd00086.  move.l -0x30(a6), 0x86e7da.l
     < 0x0076777c      60000090       bra.w 0x76780e
     > 0x00767780      2054           movea.l (a4), a0
         0x00767782      b1e8fffc       cmpa.l -0x4(a0), a0
     < 0x00767786      6702           beq.b 0x76778a
        0x00767788      4e4d           trap 0xd
     > 0x0076778a      4850           pea.l (a0)
         0x0076778c      486effd4       pea.l -0x2c(a6)
         0x00767790      486effde       pea.l -0x22(a6)
         0x00767794      486effdf       pea.l -0x21(a6)
         0x00767798      4eb900598736   jsr K0_DISKMGR.k_gen_fid
         0x0076779e      defc000c       adda.w 0xc, a7
         0x007677a2      2054           movea.l (a4), a0
         0x007677a4      b1e8fffc       cmpa.l -0x4(a0), a0
     < 0x007677a8      6702           beq.b 0x7677ac
        0x007677aa      4e4d           trap 0xd
     > 0x007677ac      48680012       pea.l 0x12(a0)
         0x007677b0      4227           clr.b -(a7)
         0x007677b2      4eb90076deca   jsr TYPECOM.get_menu_block
         0x007677b8      5c4f           addq.w 0x6, a7
         0x007677ba      2e17           move.l (a7), d7
         0x007677bc      544f           addq.w 0x2, a7
         0x007677be      2f2effda       move.l -0x26(a6), -(a7)
         0x007677c2      2f2effd6       move.l -0x2a(a6), -(a7)
         0x007677c6      3f2effd4       move.w -0x2c(a6), -(a7)
         0x007677ca      2f07           move.l d7, -(a7)
         0x007677cc      4eb9006a7112   jsr TEXTMAV.save_menu_font
         0x007677d2      dec6           adda.w d6, a7
         0x007677d4      4a1f           tst.b (a7)+
     < 0x007677d6      6736           beq.b 0x76780e
        0x007677d8      2f2effda       move.l -0x26(a6), -(a7)
        0x007677dc      2f2effd6       move.l -0x2a(a6), -(a7)
        0x007677e0      3f2effd4       move.w -0x2c(a6), -(a7)
        0x007677e4      2f07           move.l d7, -(a7)
        0x007677e6      4eb9006a7c0a   jsr TEXTMAV.set_type_menufo
        0x007677ec      dec5           adda.w d5, a7
        0x007677ee      2054           movea.l (a4), a0
        0x007677f0      b1e8fffc       cmpa.l -0x4(a0), a0
    < 0x007677f4      6702           beq.b 0x7677f8
       0x007677f6      4e4d           trap 0xd
    > 0x007677f8      48680012       pea.l 0x12(a0)
        0x007677fc      1f01           move.b d1, -(a7)
        0x007677fe      4eb90076deca   jsr TYPECOM.get_menu_block
        0x00767804      5c4f           addq.w 0x6, a7
        0x00767806      2e1f           move.l (a7)+, d7
        0x00767808      4eb9004a46c0   jsr MENUKEYBDCOM.upd_keypad
     > 0x0076780e      4cdf1fff       movem.l (a7)+, d0-d7/a0-a4
           0x00767812      4e5e           unlk a6
           0x00767814      4e75           rts
            ; CALL XREF from MENUKEYBDCOM.hit_lose_keypad @ 0x4a793c
 136: MENUTYPECOM.lose_keypad_men ();
           0x00767816      4e56ffd2       link.w a6, 0xffd2
           0x0076781a      bfd5           cmpa.l (a5), a7
       < 0x0076781c      6206           bhi.b 0x767824
          0x0076781e      44fc0002       move.w 0x2, ccr
          0x00767822      4e76           trapv
       > 0x00767824      defc001c       adda.w 0x1c, a7
           0x00767828      48e700c0       movem.l a0-a1, -(a7)
           0x0076782c      43f90086e6d0   lea.l 0x86e6d0, a1
           0x00767832      2051           movea.l (a1), a0
           0x00767834      b1e8fffc       cmpa.l -0x4(a0), a0
       < 0x00767838      6702           beq.b 0x76783c
          0x0076783a      4e4d           trap 0xd
       > 0x0076783c      4850           pea.l (a0)
           0x0076783e      486effee       pea.l -0x12(a6)
           0x00767842      486efff8       pea.l -0x8(a6)
           0x00767846      486efff9       pea.l -0x7(a6)
           0x0076784a      4eb900598736   jsr K0_DISKMGR.k_gen_fid
           0x00767850      defc000c       adda.w 0xc, a7
           0x00767854      2051           movea.l (a1), a0
           0x00767856      b1e8fffc       cmpa.l -0x4(a0), a0
       < 0x0076785a      6702           beq.b 0x76785e
          0x0076785c      4e4d           trap 0xd
       > 0x0076785e      48680012       pea.l 0x12(a0)
           0x00767862      4227           clr.b -(a7)
           0x00767864      4eb90076deca   jsr TYPECOM.get_menu_block
           0x0076786a      5c4f           addq.w 0x6, a7
           0x0076786c      2d57fffc       move.l (a7), -0x4(a6)
           0x00767870      544f           addq.w 0x2, a7
           0x00767872      2f2efff4       move.l -0xc(a6), -(a7)
           0x00767876      2f2efff0       move.l -0x10(a6), -(a7)
           0x0076787a      3f2effee       move.w -0x12(a6), -(a7)
           0x0076787e      2f2efffc       move.l -0x4(a6), -(a7)
           0x00767882      4eb9006a733c   jsr TEXTMAV.lose_menu_font
           0x00767888      defc000e       adda.w 0xe, a7
           0x0076788c      4a1f           tst.b (a7)+
       < 0x0076788e      6706           beq.b 0x767896
          0x00767890      4eb9004a46c0   jsr MENUKEYBDCOM.upd_keypad
       > 0x00767896      4cdf0300       movem.l (a7)+, a0-a1
           0x0076789a      4e5e           unlk a6
           0x0076789c      4e75           rts
 104: MENUTYPECOM.hit_lose_font ();
           0x0076789e      4e56fff0       link.w a6, 0xfff0
           0x007678a2      bfd5           cmpa.l (a5), a7
       < 0x007678a4      6206           bhi.b 0x7678ac
          0x007678a6      44fc0002       move.w 0x2, ccr
          0x007678aa      4e76           trapv
       > 0x007678ac      defc0010       adda.w 0x10, a7
           0x007678b0      48e78080       movem.l d0/a0, -(a7)
           0x007678b4      302e0008       move.w 0x8(a6), d0
           0x007678b8      0c400001       cmpi.w 0x1, d0
       < 0x007678bc      6640           bne.b 0x7678fe
          0x007678be      554f           subq.w 0x2, a7
          0x007678c0      3f390086e79c   move.w 0x86e79c, -(a7)
          0x007678c6      4eb900480fc2   jsr MENUCOM.get_boxon
          0x007678cc      544f           addq.w 0x2, a7
          0x007678ce      4a1f           tst.b (a7)+
      < 0x007678d0      670e           beq.b 0x7678e0
         0x007678d2      3f2e000a       move.w 0xa(a6), -(a7)
         0x007678d6      4eb9004a79f8   jsr MENUKEYBDCOM.lose_kbd_map
         0x007678dc      544f           addq.w 0x2, a7
     < 0x007678de      601e           bra.b 0x7678fe
     > 0x007678e0      20790086e6cc   movea.l 0x86e6cc, a0
         0x007678e6      b1e8fffc       cmpa.l -0x4(a0), a0
     < 0x007678ea      6702           beq.b 0x7678ee
        0x007678ec      4e4d           trap 0xd
     > 0x007678ee      48680008       pea.l 0x8(a0)
         0x007678f2      4ebaf92e       jsr MENUTYPECOM.debuffer_font(pc)
         0x007678f6      584f           addq.w 0x4, a7
         0x007678f8      4eb9004a46c0   jsr MENUKEYBDCOM.upd_keypad
     > 0x007678fe      4cdf0101       movem.l (a7)+, d0/a0
           0x00767902      4e5e           unlk a6
           0x00767904      4e75           rts
            ; CALL XREFS from MENUTYPECOM.set_word @ 0x767bd2, 0x767c42, 0x767ca0
            ; CALL XREF from MENUTYPECOM.hit_set_font @ 0x767d08
 272: MENUTYPECOM.swap_char ();
           0x00767906      4e56ffa6       link.w a6, 0xffa6
           0x0076790a      bfd5           cmpa.l (a5), a7
       < 0x0076790c      6206           bhi.b 0x767914
          0x0076790e      44fc0002       move.w 0x2, ccr
          0x00767912      4e76           trapv
       > 0x00767914      defc0052       adda.w 0x52, a7
           0x00767918      48e7e0f8       movem.l d0-d2/a0-a4, -(a7)
           0x0076791c      49eefffc       lea.l -0x4(a6), a4
           0x00767920      223cffff8000   move.l 0xffff8000, d1
           0x00767926      7401           moveq 0x1, d2
           0x00767928      206e000c       movea.l 0xc(a6), a0
           0x0076792c      2250           movea.l (a0), a1
           0x0076792e      2d49fff8       move.l a1, -0x8(a6)
           0x00767932      246e0008       movea.l 0x8(a6), a2
           0x00767936      b5eafffc       cmpa.l -0x4(a2), a2
       < 0x0076793a      6702           beq.b 0x76793e
          0x0076793c      4e4d           trap 0xd
       > 0x0076793e      2650           movea.l (a0), a3
           0x00767940      b7ebfffc       cmpa.l -0x4(a3), a3
       < 0x00767944      6702           beq.b 0x767948
          0x00767946      4e4d           trap 0xd
       > 0x00767948      554f           subq.w 0x2, a7
           0x0076794a      2f390086e6d0   move.l 0x86e6d0, -(a7)
           0x00767950      3f2b0010       move.w 0x10(a3), -(a7)
           0x00767954      2f2b0038       move.l 0x38(a3), -(a7)
           0x00767958      3f2a0020       move.w 0x20(a2), -(a7)
           0x0076795c      202b0048       move.l 0x48(a3), d0
           0x00767960      9081           sub.l d1, d0
           0x00767962      0c800000ffff   cmpi.l 0xffff, d0
       < 0x00767968      6302           bls.b 0x76796c
          0x0076796a      4e4f           trap 0xf
       > 0x0076796c      d081           add.l d1, d0
           0x0076796e      3f00           move.w d0, -(a7)
           0x00767970      202b004c       move.l 0x4c(a3), d0
           0x00767974      9081           sub.l d1, d0
           0x00767976      0c800000ffff   cmpi.l 0xffff, d0
       < 0x0076797c      6302           bls.b 0x767980
          0x0076797e      4e4f           trap 0xf
       > 0x00767980      d081           add.l d1, d0
           0x00767982      3f00           move.w d0, -(a7)
           0x00767984      1f2b0050       move.b 0x50(a3), -(a7)
           0x00767988      1f2b0051       move.b 0x51(a3), -(a7)
           0x0076798c      2f390086e7da   move.l 0x86e7da, -(a7)
           0x00767992      4854           pea.l (a4)
           0x00767994      4eb90076eba8   jsr TYPECOM.make_new_char
           0x0076799a      defc001c       adda.w 0x1c, a7
           0x0076799e      4a1f           tst.b (a7)+
           0x007679a0      2094           move.l (a4), (a0)
           0x007679a2      2054           movea.l (a4), a0
           0x007679a4      b1e8fffc       cmpa.l -0x4(a0), a0
       < 0x007679a8      6702           beq.b 0x7679ac
          0x007679aa      4e4d           trap 0xd
       > 0x007679ac      b3e9fffc       cmpa.l -0x4(a1), a1
       < 0x007679b0      6702           beq.b 0x7679b4
          0x007679b2      4e4d           trap 0xd
       > 0x007679b4      2091           move.l (a1), (a0)
           0x007679b6      2451           movea.l (a1), a2
           0x007679b8      b4c2           cmpa.w d2, a2
       < 0x007679ba      670c           beq.b 0x7679c8
          0x007679bc      b5eafffc       cmpa.l -0x4(a2), a2
      < 0x007679c0      6702           beq.b 0x7679c4
         0x007679c2      4e4d           trap 0xd
      > 0x007679c4      25540004       move.l (a4), 0x4(a2)
       > 0x007679c8      216900040004   move.l 0x4(a1), 0x4(a0)
           0x007679ce      20690004       movea.l 0x4(a1), a0
           0x007679d2      b0c2           cmpa.w d2, a0
       < 0x007679d4      670a           beq.b 0x7679e0
          0x007679d6      b1e8fffc       cmpa.l -0x4(a0), a0
      < 0x007679da      6702           beq.b 0x7679de
         0x007679dc      4e4d           trap 0xd
      > 0x007679de      2094           move.l (a4), (a0)
       > 0x007679e0      20790086e6e8   movea.l 0x86e6e8, a0
           0x007679e6      b1e8fffc       cmpa.l -0x4(a0), a0
       < 0x007679ea      6702           beq.b 0x7679ee
          0x007679ec      4e4d           trap 0xd
       > 0x007679ee      b3e80008       cmpa.l 0x8(a0), a1
       < 0x007679f2      6604           bne.b 0x7679f8
          0x007679f4      21540008       move.l (a4), 0x8(a0)
       > 0x007679f8      b3e8000c       cmpa.l 0xc(a0), a1
       < 0x007679fc      6604           bne.b 0x767a02
          0x007679fe      2154000c       move.l (a4), 0xc(a0)
       > 0x00767a02      486efff8       pea.l -0x8(a6)
           0x00767a06      4eb90076ee76   jsr TYPECOM.dispose_type_ch
           0x00767a0c      584f           addq.w 0x4, a7
           0x00767a0e      4cdf1f07       movem.l (a7)+, d0-d2/a0-a4
           0x00767a12      4e5e           unlk a6
           0x00767a14      4e75           rts
            ; CALL XREFS from MENUTYPECOM.hit_set_font @ 0x767d4a, 0x767d60
 392: MENUTYPECOM.set_line ();
           0x00767a16      4e56ffb6       link.w a6, 0xffb6
           0x00767a1a      bfd5           cmpa.l (a5), a7
       < 0x00767a1c      6206           bhi.b 0x767a24
          0x00767a1e      44fc0002       move.w 0x2, ccr
          0x00767a22      4e76           trapv
       > 0x00767a24      defc004a       adda.w 0x4a, a7
           0x00767a28      48e7f0f0       movem.l d0-d3/a0-a3, -(a7)
           0x00767a2c      47ec0008       lea.l 0x8(a4), a3
           0x00767a30      7201           moveq 0x1, d1
           0x00767a32      243cffff8000   move.l 0xffff8000, d2
           0x00767a38      761c           moveq 0x1c, d3
           0x00767a3a      206e0008       movea.l 0x8(a6), a0
           0x00767a3e      b1e8fffc       cmpa.l -0x4(a0), a0
       < 0x00767a42      6702           beq.b 0x767a46
          0x00767a44      4e4d           trap 0xd
       > 0x00767a46      22680008       movea.l 0x8(a0), a1
           0x00767a4a      29490004       move.l a1, 0x4(a4)
           0x00767a4e      b3e9fffc       cmpa.l -0x4(a1), a1
       < 0x00767a52      6702           beq.b 0x767a56
          0x00767a54      4e4d           trap 0xd
       > 0x00767a56      554f           subq.w 0x2, a7
           0x00767a58      2f390086e6d0   move.l 0x86e6d0, -(a7)
           0x00767a5e      3f290010       move.w 0x10(a1), -(a7)
           0x00767a62      2f290038       move.l 0x38(a1), -(a7)
           0x00767a66      24790086e6e8   movea.l 0x86e6e8, a2
           0x00767a6c      b5eafffc       cmpa.l -0x4(a2), a2
       < 0x00767a70      6702           beq.b 0x767a74
          0x00767a72      4e4d           trap 0xd
       > 0x00767a74      3f2a0020       move.w 0x20(a2), -(a7)
           0x00767a78      20290048       move.l 0x48(a1), d0
           0x00767a7c      9082           sub.l d2, d0
           0x00767a7e      0c800000ffff   cmpi.l 0xffff, d0
       < 0x00767a84      6302           bls.b 0x767a88
          0x00767a86      4e4f           trap 0xf
       > 0x00767a88      d082           add.l d2, d0
           0x00767a8a      3f00           move.w d0, -(a7)
           0x00767a8c      4267           clr.w -(a7)
           0x00767a8e      10290050       move.b 0x50(a1), d0
           0x00767a92      4880           ext.w d0
           0x00767a94      4181           chk.w d1, d0
           0x00767a96      1f00           move.b d0, -(a7)
           0x00767a98      10290051       move.b 0x51(a1), d0
           0x00767a9c      4880           ext.w d0
           0x00767a9e      4181           chk.w d1, d0
           0x00767aa0      1f00           move.b d0, -(a7)
           0x00767aa2      2f390086e7da   move.l 0x86e7da, -(a7)
           0x00767aa8      4853           pea.l (a3)
           0x00767aaa      4eb90076eba8   jsr TYPECOM.make_new_char
           0x00767ab0      dec3           adda.w d3, a7
           0x00767ab2      4a1f           tst.b (a7)+
           0x00767ab4      21530008       move.l (a3), 0x8(a0)
           0x00767ab8      b3f90086e6d8   cmpa.l 0x86e6d8, a1
       < 0x00767abe      6606           bne.b 0x767ac6
          0x00767ac0      23d30086e6d8   move.l (a3), 0x86e6d8
       > 0x00767ac6      2889           move.l a1, (a4)
           0x00767ac8      296900040004   move.l 0x4(a1), 0x4(a4)
           0x00767ace      4854           pea.l (a4)
           0x00767ad0      4eb90076ee76   jsr TYPECOM.dispose_type_ch
           0x00767ad6      584f           addq.w 0x4, a7
           0x00767ad8      2953000c       move.l (a3), 0xc(a4)
       > 0x00767adc      226c0004       movea.l 0x4(a4), a1
          0x00767ae0      b2c1           cmpa.w d1, a1
      < 0x00767ae2      670000ae       beq.w 0x767b92
         0x00767ae6      b3e9fffc       cmpa.l -0x4(a1), a1
     < 0x00767aea      6702           beq.b 0x767aee
        0x00767aec      4e4d           trap 0xd
     > 0x00767aee      554f           subq.w 0x2, a7
         0x00767af0      2f390086e6d0   move.l 0x86e6d0, -(a7)
         0x00767af6      3f290010       move.w 0x10(a1), -(a7)
         0x00767afa      2f290038       move.l 0x38(a1), -(a7)
         0x00767afe      24790086e6e8   movea.l 0x86e6e8, a2
         0x00767b04      b5eafffc       cmpa.l -0x4(a2), a2
     < 0x00767b08      6702           beq.b 0x767b0c
        0x00767b0a      4e4d           trap 0xd
     > 0x00767b0c      3f2a0020       move.w 0x20(a2), -(a7)
         0x00767b10      20290048       move.l 0x48(a1), d0
         0x00767b14      9082           sub.l d2, d0
         0x00767b16      0c800000ffff   cmpi.l 0xffff, d0
     < 0x00767b1c      6302           bls.b 0x767b20
        0x00767b1e      4e4f           trap 0xf
     > 0x00767b20      d082           add.l d2, d0
         0x00767b22      3f00           move.w d0, -(a7)
         0x00767b24      4267           clr.w -(a7)
         0x00767b26      10290050       move.b 0x50(a1), d0
         0x00767b2a      4880           ext.w d0
         0x00767b2c      4181           chk.w d1, d0
         0x00767b2e      1f00           move.b d0, -(a7)
         0x00767b30      10290051       move.b 0x51(a1), d0
         0x00767b34      4880           ext.w d0
         0x00767b36      4181           chk.w d1, d0
         0x00767b38      1f00           move.b d0, -(a7)
         0x00767b3a      2f390086e7da   move.l 0x86e7da, -(a7)
         0x00767b40      4853           pea.l (a3)
         0x00767b42      4eb90076eba8   jsr TYPECOM.make_new_char
         0x00767b48      dec3           adda.w d3, a7
         0x00767b4a      4a1f           tst.b (a7)+
         0x00767b4c      246c000c       movea.l 0xc(a4), a2
         0x00767b50      b5eafffc       cmpa.l -0x4(a2), a2
     < 0x00767b54      6702           beq.b 0x767b58
        0x00767b56      4e4d           trap 0xd
     > 0x00767b58      25530004       move.l (a3), 0x4(a2)
         0x00767b5c      2453           movea.l (a3), a2
         0x00767b5e      b5eafffc       cmpa.l -0x4(a2), a2
     < 0x00767b62      6702           beq.b 0x767b66
        0x00767b64      4e4d           trap 0xd
     > 0x00767b66      24ac000c       move.l 0xc(a4), (a2)
         0x00767b6a      2953000c       move.l (a3), 0xc(a4)
         0x00767b6e      b3f90086e6d8   cmpa.l 0x86e6d8, a1
     < 0x00767b74      6606           bne.b 0x767b7c
        0x00767b76      23d30086e6d8   move.l (a3), 0x86e6d8
     > 0x00767b7c      2889           move.l a1, (a4)
         0x00767b7e      296900040004   move.l 0x4(a1), 0x4(a4)
         0x00767b84      4854           pea.l (a4)
         0x00767b86      4eb90076ee76   jsr TYPECOM.dispose_type_ch
         0x00767b8c      584f           addq.w 0x4, a7
      < 0x00767b8e      6000ff4c       bra.w 0x767adc
      > 0x00767b92      2153000c       move.l (a3), 0xc(a0)
           0x00767b96      4cdf0f0f       movem.l (a7)+, d0-d3/a0-a3
           0x00767b9a      4e5e           unlk a6
           0x00767b9c      4e75           rts
            ; CALL XREF from MENUTYPECOM.hit_set_font @ 0x767d28
 286: MENUTYPECOM.set_word ();
           0x00767b9e      4e56ffb2       link.w a6, 0xffb2
           0x00767ba2      bfd5           cmpa.l (a5), a7
       < 0x00767ba4      6206           bhi.b 0x767bac
          0x00767ba6      44fc0002       move.w 0x2, ccr
          0x00767baa      4e76           trapv
       > 0x00767bac      defc0048       adda.w 0x48, a7
           0x00767bb0      48e7f9f8       movem.l d0-d4/d7/a0-a4, -(a7)
           0x00767bb4      45eefffa       lea.l -0x6(a6), a2
           0x00767bb8      47f90086e6e8   lea.l 0x86e6e8, a3
           0x00767bbe      49f90086e7e0   lea.l 0x86e7e0, a4
           0x00767bc4      7420           moveq 0x20, d2
           0x00767bc6      363c0404       move.w 0x404, d3
           0x00767bca      7801           moveq 0x1, d4
           0x00767bcc      486e0008       pea.l 0x8(a6)
           0x00767bd0      2f13           move.l (a3), -(a7)
           0x00767bd2      4ebafd32       jsr MENUTYPECOM.swap_char(pc)
           0x00767bd6      504f           addq.w 0x8, a7
           0x00767bd8      206e0008       movea.l 0x8(a6), a0
           0x00767bdc      b1e8fffc       cmpa.l -0x4(a0), a0
       < 0x00767be0      6702           beq.b 0x767be4
          0x00767be2      4e4d           trap 0xd
       > 0x00767be4      30280010       move.w 0x10(a0), d0
           0x00767be8      224c           movea.l a4, a1
           0x00767bea      3200           move.w d0, d1
           0x00767bec      e649           lsr.w 0x3, d1
           0x00767bee      b242           cmp.w d2, d1
       < 0x00767bf0      6d04           blt.b 0x767bf6
          0x00767bf2      7200           moveq 0x0, d1
      < 0x00767bf4      6004           bra.b 0x767bfa
      > 0x00767bf6      01311000       btst.l d0, (a1, d1.w)
      < 0x00767bfa      660000b8       bne.w 0x767cb4
          0x00767bfe      b043           cmp.w d3, d0
      < 0x00767c00      670000b2       beq.w 0x767cb4
         0x00767c04      24a80004       move.l 0x4(a0), (a2)
         0x00767c08      7e01           moveq 0x1, d7
     > 0x00767c0a      4a07           tst.b d7
    < 0x00767c0c      674a           beq.b 0x767c58
       0x00767c0e      2252           movea.l (a2), a1
       0x00767c10      b2c4           cmpa.w d4, a1
   < 0x00767c12      6744           beq.b 0x767c58
      0x00767c14      2252           movea.l (a2), a1
      0x00767c16      b3e9fffc       cmpa.l -0x4(a1), a1
  < 0x00767c1a      6702           beq.b 0x767c1e
     0x00767c1c      4e4d           trap 0xd
  > 0x00767c1e      30290010       move.w 0x10(a1), d0
      0x00767c22      224c           movea.l a4, a1
      0x00767c24      3200           move.w d0, d1
      0x00767c26      e649           lsr.w 0x3, d1
      0x00767c28      b242           cmp.w d2, d1
  < 0x00767c2a      6d04           blt.b 0x767c30
     0x00767c2c      7200           moveq 0x0, d1
 < 0x00767c2e      6004           bra.b 0x767c34
 > 0x00767c30      01311000       btst.l d0, (a1, d1.w)
 < 0x00767c34      6604           bne.b 0x767c3a
     0x00767c36      b043           cmp.w d3, d0
 < 0x00767c38      6604           bne.b 0x767c3e
 > 0x00767c3a      7e00           moveq 0x0, d7
 < 0x00767c3c      6018           bra.b 0x767c56
 > 0x00767c3e      4852           pea.l (a2)
     0x00767c40      2f13           move.l (a3), -(a7)
     0x00767c42      4ebafcc2       jsr MENUTYPECOM.swap_char(pc)
     0x00767c46      504f           addq.w 0x8, a7
     0x00767c48      2252           movea.l (a2), a1
     0x00767c4a      b3e9fffc       cmpa.l -0x4(a1), a1
 < 0x00767c4e      6702           beq.b 0x767c52
    0x00767c50      4e4d           trap 0xd
 > 0x00767c52      24a90004       move.l 0x4(a1), (a2)
  < 0x00767c56      60b2           bra.b 0x767c0a
   > 0x00767c58      226e0008       movea.l 0x8(a6), a1
         0x00767c5c      b3e9fffc       cmpa.l -0x4(a1), a1
     < 0x00767c60      6702           beq.b 0x767c64
        0x00767c62      4e4d           trap 0xd
     > 0x00767c64      2491           move.l (a1), (a2)
         0x00767c66      7e01           moveq 0x1, d7
     > 0x00767c68      4a07           tst.b d7
    < 0x00767c6a      6748           beq.b 0x767cb4
       0x00767c6c      2252           movea.l (a2), a1
       0x00767c6e      b2c4           cmpa.w d4, a1
   < 0x00767c70      6742           beq.b 0x767cb4
      0x00767c72      2252           movea.l (a2), a1
      0x00767c74      b3e9fffc       cmpa.l -0x4(a1), a1
  < 0x00767c78      6702           beq.b 0x767c7c
     0x00767c7a      4e4d           trap 0xd
  > 0x00767c7c      30290010       move.w 0x10(a1), d0
      0x00767c80      224c           movea.l a4, a1
      0x00767c82      3200           move.w d0, d1
      0x00767c84      e649           lsr.w 0x3, d1
      0x00767c86      b242           cmp.w d2, d1
  < 0x00767c88      6d04           blt.b 0x767c8e
     0x00767c8a      7200           moveq 0x0, d1
 < 0x00767c8c      6004           bra.b 0x767c92
 > 0x00767c8e      01311000       btst.l d0, (a1, d1.w)
 < 0x00767c92      6604           bne.b 0x767c98
     0x00767c94      b043           cmp.w d3, d0
 < 0x00767c96      6604           bne.b 0x767c9c
 > 0x00767c98      7e00           moveq 0x0, d7
 < 0x00767c9a      6016           bra.b 0x767cb2
 > 0x00767c9c      4852           pea.l (a2)
     0x00767c9e      2f13           move.l (a3), -(a7)
     0x00767ca0      4ebafc64       jsr MENUTYPECOM.swap_char(pc)
     0x00767ca4      504f           addq.w 0x8, a7
     0x00767ca6      2252           movea.l (a2), a1
     0x00767ca8      b3e9fffc       cmpa.l -0x4(a1), a1
 < 0x00767cac      6702           beq.b 0x767cb0
    0x00767cae      4e4d           trap 0xd
 > 0x00767cb0      2491           move.l (a1), (a2)
  < 0x00767cb2      60b4           bra.b 0x767c68
   > 0x00767cb4      4cdf1f9f       movem.l (a7)+, d0-d4/d7/a0-a4
           0x00767cb8      4e5e           unlk a6
           0x00767cba      4e75           rts
 200: MENUTYPECOM.hit_set_font ();
           0x00767cbc      4e56ffc0       link.w a6, 0xffc0
           0x00767cc0      bfd5           cmpa.l (a5), a7
       < 0x00767cc2      6206           bhi.b 0x767cca
          0x00767cc4      44fc0002       move.w 0x2, ccr
          0x00767cc8      4e76           trapv
       > 0x00767cca      defc0028       adda.w 0x28, a7
           0x00767cce      48e7c0f8       movem.l d0-d1/a0-a4, -(a7)
           0x00767cd2      43f90086e6d8   lea.l 0x86e6d8, a1
           0x00767cd8      45f900480fc2   lea.l MENUCOM.get_boxon, a2
           0x00767cde      7201           moveq 0x1, d1
           0x00767ce0      302e0008       move.w 0x8(a6), d0
           0x00767ce4      b041           cmp.w d1, d0
       < 0x00767ce6      66000094       bne.w 0x767d7c
          0x00767cea      554f           subq.w 0x2, a7
          0x00767cec      3f390086e7a6   move.w 0x86e7a6, -(a7)
          0x00767cf2      4e92           jsr (a2)                    ; fcn.00000009+0x2
          0x00767cf4      544f           addq.w 0x2, a7
          0x00767cf6      4a1f           tst.b (a7)+
      < 0x00767cf8      6716           beq.b 0x767d10
         0x00767cfa      2051           movea.l (a1), a0
         0x00767cfc      b0c1           cmpa.w d1, a0
     < 0x00767cfe      6710           beq.b 0x767d10
        0x00767d00      4851           pea.l (a1)
        0x00767d02      2f390086e6e8   move.l 0x86e6e8, -(a7)
        0x00767d08      4ebafbfc       jsr MENUTYPECOM.swap_char(pc)
        0x00767d0c      504f           addq.w 0x8, a7
    < 0x00767d0e      6062           bra.b 0x767d72
    > 0x00767d10      554f           subq.w 0x2, a7
         0x00767d12      3f390086e7a4   move.w 0x86e7a4, -(a7)
         0x00767d18      4e92           jsr (a2)                    ; fcn.00000009+0x2
         0x00767d1a      544f           addq.w 0x2, a7
         0x00767d1c      4a1f           tst.b (a7)+
     < 0x00767d1e      6710           beq.b 0x767d30
        0x00767d20      2051           movea.l (a1), a0
        0x00767d22      b0c1           cmpa.w d1, a0
    < 0x00767d24      670a           beq.b 0x767d30
       0x00767d26      2f11           move.l (a1), -(a7)
       0x00767d28      4ebafe74       jsr MENUTYPECOM.set_word(pc)
   > 0x00767d2c      584f           addq.w 0x4, a7
  < 0x00767d2e      6042           bra.b 0x767d72
  > 0x00767d30      554f           subq.w 0x2, a7
       0x00767d32      3f390086e7a8   move.w 0x86e7a8, -(a7)
       0x00767d38      4e92           jsr (a2)                    ; fcn.00000009+0x2
       0x00767d3a      544f           addq.w 0x2, a7
       0x00767d3c      4a1f           tst.b (a7)+
   < 0x00767d3e      6710           beq.b 0x767d50
      0x00767d40      2f390086e6e8   move.l 0x86e6e8, -(a7)
      0x00767d46      49eeffe8       lea.l -0x18(a6), a4
      0x00767d4a      4ebafcca       jsr MENUTYPECOM.set_line(pc)
  < 0x00767d4e      60dc           bra.b 0x767d2c
    > 0x00767d50      26790086e6e4   movea.l 0x86e6e4, a3
    > 0x00767d56      b6c1           cmpa.w d1, a3
   < 0x00767d58      6718           beq.b 0x767d72
      0x00767d5a      2f0b           move.l a3, -(a7)
      0x00767d5c      49eeffe8       lea.l -0x18(a6), a4
      0x00767d60      4ebafcb4       jsr MENUTYPECOM.set_line(pc)
      0x00767d64      584f           addq.w 0x4, a7
      0x00767d66      b7ebfffc       cmpa.l -0x4(a3), a3
  < 0x00767d6a      6702           beq.b 0x767d6e
     0x00767d6c      4e4d           trap 0xd
  > 0x00767d6e      2653           movea.l (a3), a3
   < 0x00767d70      60e4           bra.b 0x767d56
  > 0x00767d72      1f3c0007       move.b 0x7, -(a7)
          0x00767d76      4ebac654       jsr MENUTYPECOM.update_type(pc)
          0x00767d7a      544f           addq.w 0x2, a7
       > 0x00767d7c      4cdf1f03       movem.l (a7)+, d0-d1/a0-a4
           0x00767d80      4e5e           unlk a6
           0x00767d82      4e75           rts
            ; CALL XREFS from MENUTYPECOM.hit_type_direct @ 0x767f6c, 0x767f9c, 0x767fcc, 0x767ffa
 98: MENUTYPECOM.change_sides ();
           0x00767d84      4e56ffe8       link.w a6, 0xffe8
           0x00767d88      bfd5           cmpa.l (a5), a7
       < 0x00767d8a      6206           bhi.b 0x767d92
          0x00767d8c      44fc0002       move.w 0x2, ccr
          0x00767d90      4e76           trapv
       > 0x00767d92      defc0014       adda.w 0x14, a7
           0x00767d96      48e7c010       movem.l d0-d1/a3, -(a7)
           0x00767d9a      26790086e6e4   movea.l 0x86e6e4, a3
           0x00767da0      302c0004       move.w 0x4(a4), d0
           0x00767da4      48c0           ext.l d0
           0x00767da6      e780           asl.l 0x3, d0
       > 0x00767da8      b6fc0001       cmpa.w 0x1, a3
      < 0x00767dac      6730           beq.b 0x767dde
         0x00767dae      b7ebfffc       cmpa.l -0x4(a3), a3
     < 0x00767db2      6702           beq.b 0x767db6
        0x00767db4      4e4d           trap 0xd
     > 0x00767db6      322b0010       move.w 0x10(a3), d1
         0x00767dba      48c1           ext.l d1
         0x00767dbc      4481           neg.l d1
         0x00767dbe      d280           add.l d0, d1
         0x00767dc0      0481ffff8000   subi.l 0xffff8000, d1
         0x00767dc6      0c810000ffff   cmpi.l 0xffff, d1
     < 0x00767dcc      6302           bls.b 0x767dd0
        0x00767dce      4e4f           trap 0xf
     > 0x00767dd0      0681ffff8000   addi.l 0xffff8000, d1
         0x00767dd6      37410010       move.w d1, 0x10(a3)
         0x00767dda      2653           movea.l (a3), a3
      < 0x00767ddc      60ca           bra.b 0x767da8
      > 0x00767dde      4cdf0803       movem.l (a7)+, d0-d1/a3
           0x00767de2      4e5e           unlk a6
           0x00767de4      4e75           rts
 272: MENUTYPECOM.change_write_di ();
           0x00767de6      4e56ffcc       link.w a6, 0xffcc
           0x00767dea      bfd5           cmpa.l (a5), a7
       < 0x00767dec      6206           bhi.b 0x767df4
          0x00767dee      44fc0002       move.w 0x2, ccr
          0x00767df2      4e76           trapv
       > 0x00767df4      defc0028       adda.w 0x28, a7
           0x00767df8      48e7e3c8       movem.l d0-d2/d6-d7/a0-a1/a4, -(a7)
           0x00767dfc      43f90086e6e4   lea.l 0x86e6e4, a1
           0x00767e02      243cffff8000   move.l 0xffff8000, d2
           0x00767e08      2851           movea.l (a1), a4
       > 0x00767e0a      b8fc0001       cmpa.w 0x1, a4
      < 0x00767e0e      670000de       beq.w 0x767eee
         0x00767e12      4a2e0008       tst.b 0x8(a6)
     < 0x00767e16      671e           beq.b 0x767e36
        0x00767e18      b9ecfffc       cmpa.l -0x4(a4), a4
    < 0x00767e1c      6702           beq.b 0x767e20
       0x00767e1e      4e4d           trap 0xd
    > 0x00767e20      2051           movea.l (a1), a0
        0x00767e22      b1e8fffc       cmpa.l -0x4(a0), a0
    < 0x00767e26      6702           beq.b 0x767e2a
       0x00767e28      4e4d           trap 0xd
    > 0x00767e2a      302c0012       move.w 0x12(a4), d0
        0x00767e2e      48c0           ext.l d0
        0x00767e30      32280012       move.w 0x12(a0), d1
    < 0x00767e34      601c           bra.b 0x767e52
    > 0x00767e36      2051           movea.l (a1), a0
        0x00767e38      b1e8fffc       cmpa.l -0x4(a0), a0
    < 0x00767e3c      6702           beq.b 0x767e40
       0x00767e3e      4e4d           trap 0xd
    > 0x00767e40      b9ecfffc       cmpa.l -0x4(a4), a4
    < 0x00767e44      6702           beq.b 0x767e48
       0x00767e46      4e4d           trap 0xd
    > 0x00767e48      30280012       move.w 0x12(a0), d0
        0x00767e4c      48c0           ext.l d0
        0x00767e4e      322c0012       move.w 0x12(a4), d1
    > 0x00767e52      48c1           ext.l d1
         0x00767e54      4481           neg.l d1
         0x00767e56      d280           add.l d0, d1
         0x00767e58      2c01           move.l d1, d6
         0x00767e5a      4a2e0008       tst.b 0x8(a6)
     < 0x00767e5e      671e           beq.b 0x767e7e
        0x00767e60      b9ecfffc       cmpa.l -0x4(a4), a4
    < 0x00767e64      6702           beq.b 0x767e68
       0x00767e66      4e4d           trap 0xd
    > 0x00767e68      2051           movea.l (a1), a0
        0x00767e6a      b1e8fffc       cmpa.l -0x4(a0), a0
    < 0x00767e6e      6702           beq.b 0x767e72
       0x00767e70      4e4d           trap 0xd
    > 0x00767e72      302c0010       move.w 0x10(a4), d0
        0x00767e76      48c0           ext.l d0
        0x00767e78      32280010       move.w 0x10(a0), d1
    < 0x00767e7c      601c           bra.b 0x767e9a
    > 0x00767e7e      2051           movea.l (a1), a0
        0x00767e80      b1e8fffc       cmpa.l -0x4(a0), a0
    < 0x00767e84      6702           beq.b 0x767e88
       0x00767e86      4e4d           trap 0xd
    > 0x00767e88      b9ecfffc       cmpa.l -0x4(a4), a4
    < 0x00767e8c      6702           beq.b 0x767e90
       0x00767e8e      4e4d           trap 0xd
    > 0x00767e90      30280010       move.w 0x10(a0), d0
        0x00767e94      48c0           ext.l d0
        0x00767e96      322c0010       move.w 0x10(a4), d1
    > 0x00767e9a      48c1           ext.l d1
         0x00767e9c      4481           neg.l d1
         0x00767e9e      d280           add.l d0, d1
         0x00767ea0      2e01           move.l d1, d7
         0x00767ea2      b9ecfffc       cmpa.l -0x4(a4), a4
     < 0x00767ea6      6702           beq.b 0x767eaa
        0x00767ea8      4e4d           trap 0xd
     > 0x00767eaa      2051           movea.l (a1), a0
         0x00767eac      b1e8fffc       cmpa.l -0x4(a0), a0
     < 0x00767eb0      6702           beq.b 0x767eb4
        0x00767eb2      4e4d           trap 0xd
     > 0x00767eb4      30280010       move.w 0x10(a0), d0
         0x00767eb8      48c0           ext.l d0
         0x00767eba      d086           add.l d6, d0
         0x00767ebc      9082           sub.l d2, d0
         0x00767ebe      0c800000ffff   cmpi.l 0xffff, d0
     < 0x00767ec4      6302           bls.b 0x767ec8
        0x00767ec6      4e4f           trap 0xf
     > 0x00767ec8      d082           add.l d2, d0
         0x00767eca      39400010       move.w d0, 0x10(a4)
         0x00767ece      30280012       move.w 0x12(a0), d0
         0x00767ed2      48c0           ext.l d0
         0x00767ed4      d087           add.l d7, d0
         0x00767ed6      9082           sub.l d2, d0
         0x00767ed8      0c800000ffff   cmpi.l 0xffff, d0
     < 0x00767ede      6302           bls.b 0x767ee2
        0x00767ee0      4e4f           trap 0xf
     > 0x00767ee2      d082           add.l d2, d0
         0x00767ee4      39400012       move.w d0, 0x12(a4)
         0x00767ee8      2854           movea.l (a4), a4
      < 0x00767eea      6000ff1e       bra.w 0x767e0a
      > 0x00767eee      4cdf13c7       movem.l (a7)+, d0-d2/d6-d7/a0-a1/a4
           0x00767ef2      4e5e           unlk a6
           0x00767ef4      4e75           rts
 286: MENUTYPECOM.hit_type_direct ();
           0x00767ef6      4e56ffc6       link.w a6, 0xffc6
           0x00767efa      bfd5           cmpa.l (a5), a7
       < 0x00767efc      6206           bhi.b 0x767f04
          0x00767efe      44fc0002       move.w 0x2, ccr
          0x00767f02      4e76           trapv
       > 0x00767f04      defc0032       adda.w 0x32, a7
           0x00767f08      48e7f0f8       movem.l d0-d3/a0-a4, -(a7)
           0x00767f0c      41f90086e7de   lea.l 0x86e7de, a0
           0x00767f12      43f90086e7df   lea.l 0x86e7df, a1
           0x00767f18      45eefff8       lea.l -0x8(a6), a2
           0x00767f1c      47fafec8       lea.l MENUTYPECOM.change_write_di(pc), a3
           0x00767f20      7401           moveq 0x1, d2
           0x00767f22      7602           moveq 0x2, d3
           0x00767f24      514f           subq.w 0x8, a7
           0x00767f26      4227           clr.b -(a7)
           0x00767f28      4eb9006336ea   jsr HANDCOM.get_area
           0x00767f2e      544f           addq.w 0x2, a7
           0x00767f30      249f           move.l (a7)+, (a2)
           0x00767f32      2d5ffffc       move.l (a7)+, -0x4(a6)
           0x00767f36      302e0008       move.w 0x8(a6), d0
           0x00767f3a      b042           cmp.w d2, d0
       < 0x00767f3c      660000ce       bne.w 0x76800c
          0x00767f40      302e000a       move.w 0xa(a6), d0
          0x00767f44      b0790086e7c4   cmp.w 0x86e7c4, d0
      < 0x00767f4a      662c           bne.b 0x767f78
         0x00767f4c      1210           move.b (a0), d1
         0x00767f4e      b203           cmp.b d3, d1
     < 0x00767f50      660c           bne.b 0x767f5e
        0x00767f52      4227           clr.b -(a7)
        0x00767f54      4a11           tst.b (a1)
    < 0x00767f56      6602           bne.b 0x767f5a
       0x00767f58      5217           addq.b 0x1, (a7)
    > 0x00767f5a      4e93           jsr (a3)                    ; fcn.0000000c
        0x00767f5c      544f           addq.w 0x2, a7
     > 0x00767f5e      1210           move.b (a0), d1
         0x00767f60      b202           cmp.b d2, d1
     < 0x00767f62      6706           beq.b 0x767f6a
        0x00767f64      1211           move.b (a1), d1
        0x00767f66      b202           cmp.b d2, d1
    < 0x00767f68      6606           bne.b 0x767f70
    > 0x00767f6a      284a           movea.l a2, a4
        0x00767f6c      4ebafe16       jsr MENUTYPECOM.change_sides(pc)
    > 0x00767f70      4210           clr.b (a0)
     > 0x00767f72      1283           move.b d3, (a1)
    < 0x00767f74      6000008c       bra.w 0x768002
    > 0x00767f78      b0790086e7c6   cmp.w 0x86e7c6, d0
    < 0x00767f7e      6624           bne.b 0x767fa4
       0x00767f80      1210           move.b (a0), d1
       0x00767f82      b203           cmp.b d3, d1
   < 0x00767f84      660c           bne.b 0x767f92
      0x00767f86      4227           clr.b -(a7)
      0x00767f88      4a11           tst.b (a1)
  < 0x00767f8a      6602           bne.b 0x767f8e
     0x00767f8c      5217           addq.b 0x1, (a7)
  > 0x00767f8e      4e93           jsr (a3)                    ; fcn.0000000c
      0x00767f90      544f           addq.w 0x2, a7
   > 0x00767f92      4a10           tst.b (a0)
   < 0x00767f94      6704           beq.b 0x767f9a
      0x00767f96      4a11           tst.b (a1)
  < 0x00767f98      6606           bne.b 0x767fa0
  > 0x00767f9a      284a           movea.l a2, a4
      0x00767f9c      4ebafde6       jsr MENUTYPECOM.change_sides(pc)
  > 0x00767fa0      1082           move.b d2, (a0)
    < 0x00767fa2      60ce           bra.b 0x767f72
     > 0x00767fa4      b0790086e7c8   cmp.w 0x86e7c8, d0
     < 0x00767faa      662a           bne.b 0x767fd6
        0x00767fac      1210           move.b (a0), d1
        0x00767fae      b203           cmp.b d3, d1
    < 0x00767fb0      670c           beq.b 0x767fbe
       0x00767fb2      4227           clr.b -(a7)
       0x00767fb4      4a01           tst.b d1
   < 0x00767fb6      6602           bne.b 0x767fba
      0x00767fb8      5217           addq.b 0x1, (a7)
   > 0x00767fba      4e93           jsr (a3)                    ; fcn.0000000c
       0x00767fbc      544f           addq.w 0x2, a7
    > 0x00767fbe      1210           move.b (a0), d1
        0x00767fc0      b202           cmp.b d2, d1
    < 0x00767fc2      6706           beq.b 0x767fca
       0x00767fc4      1211           move.b (a1), d1
       0x00767fc6      b202           cmp.b d2, d1
   < 0x00767fc8      6606           bne.b 0x767fd0
   > 0x00767fca      284a           movea.l a2, a4
       0x00767fcc      4ebafdb6       jsr MENUTYPECOM.change_sides(pc)
   > 0x00767fd0      1083           move.b d3, (a0)
        0x00767fd2      4211           clr.b (a1)
    < 0x00767fd4      602c           bra.b 0x768002
    > 0x00767fd6      b0790086e7ca   cmp.w 0x86e7ca, d0
    < 0x00767fdc      6624           bne.b 0x768002
       0x00767fde      1210           move.b (a0), d1
       0x00767fe0      b203           cmp.b d3, d1
   < 0x00767fe2      670c           beq.b 0x767ff0
      0x00767fe4      4227           clr.b -(a7)
      0x00767fe6      4a01           tst.b d1
  < 0x00767fe8      6602           bne.b 0x767fec
     0x00767fea      5217           addq.b 0x1, (a7)
  > 0x00767fec      4e93           jsr (a3)                    ; fcn.0000000c
      0x00767fee      544f           addq.w 0x2, a7
   > 0x00767ff0      4a10           tst.b (a0)
   < 0x00767ff2      6704           beq.b 0x767ff8
      0x00767ff4      4a11           tst.b (a1)
  < 0x00767ff6      6606           bne.b 0x767ffe
  > 0x00767ff8      284a           movea.l a2, a4
      0x00767ffa      4ebafd88       jsr MENUTYPECOM.change_sides(pc)
  > 0x00767ffe      1083           move.b d3, (a0)
       0x00768000      1282           move.b d2, (a1)
    > 0x00768002      1f3c0007       move.b 0x7, -(a7)
          0x00768006      4ebac3c4       jsr MENUTYPECOM.update_type(pc)
          0x0076800a      544f           addq.w 0x2, a7
       > 0x0076800c      4cdf1f0f       movem.l (a7)+, d0-d3/a0-a4
           0x00768010      4e5e           unlk a6
           0x00768012      4e75           rts
 50: MENUTYPECOM.hit_type_stick ();
           0x00768014      4e56fff6       link.w a6, 0xfff6
           0x00768018      bfd5           cmpa.l (a5), a7
       < 0x0076801a      6206           bhi.b 0x768022
          0x0076801c      44fc0002       move.w 0x2, ccr
          0x00768020      4e76           trapv
       > 0x00768022      defc000a       adda.w 0xa, a7
           0x00768026      48e78000       movem.l d0, -(a7)
           0x0076802a      302e0008       move.w 0x8(a6), d0
           0x0076802e      0c400001       cmpi.w 0x1, d0
       < 0x00768032      660a           bne.b 0x76803e
          0x00768034      1f3c000b       move.b 0xb, -(a7)
          0x00768038      4ebac392       jsr MENUTYPECOM.update_type(pc)
          0x0076803c      544f           addq.w 0x2, a7
       > 0x0076803e      4cdf0001       movem.l (a7)+, d0
           0x00768042      4e5e           unlk a6
           0x00768044      4e75           rts
 116: MENUTYPECOM.hit_type_style ();
           0x00768046      4e56ffe6       link.w a6, 0xffe6
           0x0076804a      bfd5           cmpa.l (a5), a7
       < 0x0076804c      6206           bhi.b 0x768054
          0x0076804e      44fc0002       move.w 0x2, ccr
          0x00768052      4e76           trapv
       > 0x00768054      defc001a       adda.w 0x1a, a7
           0x00768058      48e7e080       movem.l d0-d2/a0, -(a7)
           0x0076805c      41f90086e7a0   lea.l 0x86e7a0, a0
           0x00768062      7401           moveq 0x1, d2
           0x00768064      302e0008       move.w 0x8(a6), d0
           0x00768068      b042           cmp.w d2, d0
       < 0x0076806a      662a           bne.b 0x768096
          0x0076806c      554f           subq.w 0x2, a7
          0x0076806e      4eb9004755c2   jsr CONFIG.cfg_gender
          0x00768074      121f           move.b (a7)+, d1
          0x00768076      0c010003       cmpi.b 0x3, d1
      < 0x0076807a      6602           bne.b 0x76807e
     < 0x0076807c      600a           bra.b 0x768088
     > 0x0076807e      1f02           move.b d2, -(a7)
         0x00768080      4eb90048f2e6   jsr MENURIGHTCOM.change_right
         0x00768086      544f           addq.w 0x2, a7
     > 0x00768088      3f10           move.w (a0), -(a7)
          0x0076808a      4227           clr.b -(a7)
          0x0076808c      4eb900483776   jsr MENUCOM.swtch_box
          0x00768092      584f           addq.w 0x4, a7
      < 0x00768094      601c           bra.b 0x7680b2
      > 0x00768096      4a40           tst.w d0
      < 0x00768098      6618           bne.b 0x7680b2
         0x0076809a      3f10           move.w (a0), -(a7)
         0x0076809c      1f02           move.b d2, -(a7)
         0x0076809e      4eb900483776   jsr MENUCOM.swtch_box
         0x007680a4      544f           addq.w 0x2, a7
         0x007680a6      1ebc0002       move.b 0x2, (a7)
         0x007680aa      4eb90048f2e6   jsr MENURIGHTCOM.change_right
         0x007680b0      544f           addq.w 0x2, a7
      > 0x007680b2      4cdf0107       movem.l (a7)+, d0-d2/a0
           0x007680b6      4e5e           unlk a6
           0x007680b8      4e75           rts
 160: MENUTYPECOM.hit_line_char ();
           0x007680ba      4e56ffec       link.w a6, 0xffec
           0x007680be      bfd5           cmpa.l (a5), a7
       < 0x007680c0      6206           bhi.b 0x7680c8
          0x007680c2      44fc0002       move.w 0x2, ccr
          0x007680c6      4e76           trapv
       > 0x007680c8      defc0014       adda.w 0x14, a7
           0x007680cc      48e7c080       movem.l d0-d1/a0, -(a7)
           0x007680d0      302e0008       move.w 0x8(a6), d0
           0x007680d4      41fab39c       lea.l 0x763472(pc), a0
           0x007680d8      3200           move.w d0, d1
           0x007680da      e649           lsr.w 0x3, d1
           0x007680dc      0c410020       cmpi.w 0x20, d1
       < 0x007680e0      6d04           blt.b 0x7680e6
          0x007680e2      7200           moveq 0x0, d1
      < 0x007680e4      6004           bra.b 0x7680ea
      > 0x007680e6      01301000       btst.l d0, (a0, d1.w)
      < 0x007680ea      6766           beq.b 0x768152
          0x007680ec      554f           subq.w 0x2, a7
          0x007680ee      3f390086e7a6   move.w 0x86e7a6, -(a7)
          0x007680f4      4eb900480fc2   jsr MENUCOM.get_boxon
          0x007680fa      544f           addq.w 0x2, a7
          0x007680fc      4a1f           tst.b (a7)+
      < 0x007680fe      6614           bne.b 0x768114
         0x00768100      554f           subq.w 0x2, a7
         0x00768102      3f390086e7a4   move.w 0x86e7a4, -(a7)
         0x00768108      4eb900480fc2   jsr MENUCOM.get_boxon
         0x0076810e      544f           addq.w 0x2, a7
         0x00768110      4a1f           tst.b (a7)+
     < 0x00768112      6718           beq.b 0x76812c
     > 0x00768114      3f390086e7b8   move.w 0x86e7b8, -(a7)
         0x0076811a      4227           clr.b -(a7)
         0x0076811c      4eb900483776   jsr MENUCOM.swtch_box
         0x00768122      544f           addq.w 0x2, a7
         0x00768124      3eb90086e7ac   move.w 0x86e7ac, (a7)
     < 0x0076812a      6016           bra.b 0x768142
     > 0x0076812c      3f390086e7ba   move.w 0x86e7ba, -(a7)
         0x00768132      4227           clr.b -(a7)
         0x00768134      4eb900483776   jsr MENUCOM.swtch_box
         0x0076813a      544f           addq.w 0x2, a7
         0x0076813c      3eb90086e7aa   move.w 0x86e7aa, (a7)
      > 0x00768142      4eb9004836a4   jsr MENUCOM.push_box
          0x00768148      544f           addq.w 0x2, a7
          0x0076814a      4227           clr.b -(a7)
          0x0076814c      4ebad3ee       jsr MENUTYPECOM.update_type_box(pc)
          0x00768150      544f           addq.w 0x2, a7
       > 0x00768152      4cdf0103       movem.l (a7)+, d0-d1/a0
           0x00768156      4e5e           unlk a6
           0x00768158      4e75           rts
 156: MENUTYPECOM.hit_range ();
           0x0076815a      4e56ffda       link.w a6, 0xffda
           0x0076815e      bfd5           cmpa.l (a5), a7
       < 0x00768160      6206           bhi.b 0x768168
          0x00768162      44fc0002       move.w 0x2, ccr
          0x00768166      4e76           trapv
       > 0x00768168      defc0020       adda.w 0x20, a7
           0x0076816c      48e7e188       movem.l d0-d2/d7/a0/a4, -(a7)
           0x00768170      7201           moveq 0x1, d1
           0x00768172      7402           moveq 0x2, d2
           0x00768174      302e0008       move.w 0x8(a6), d0
           0x00768178      b041           cmp.w d1, d0
       < 0x0076817a      6672           bne.b 0x7681ee
          0x0076817c      302e000a       move.w 0xa(a6), d0
          0x00768180      b0790086e790   cmp.w 0x86e790, d0
      < 0x00768186      6604           bne.b 0x76818c
         0x00768188      7e00           moveq 0x0, d7
     < 0x0076818a      600e           bra.b 0x76819a
     > 0x0076818c      b0790086e792   cmp.w 0x86e792, d0
     < 0x00768192      6604           bne.b 0x768198
        0x00768194      7e01           moveq 0x1, d7
    < 0x00768196      6002           bra.b 0x76819a
    > 0x00768198      7e02           moveq 0x2, d7
    > 0x0076819a      554f           subq.w 0x2, a7
          0x0076819c      3f390086e7a8   move.w 0x86e7a8, -(a7)
          0x007681a2      4eb900480fc2   jsr MENUCOM.get_boxon
          0x007681a8      544f           addq.w 0x2, a7
          0x007681aa      4a1f           tst.b (a7)+
      < 0x007681ac      6718           beq.b 0x7681c6
         0x007681ae      20790086e6e8   movea.l 0x86e6e8, a0
         0x007681b4      b1e8fffc       cmpa.l -0x4(a0), a0
     < 0x007681b8      6702           beq.b 0x7681bc
        0x007681ba      4e4d           trap 0xd
     > 0x007681bc      4887           ext.w d7
         0x007681be      4f82           chk.w d2, d7
         0x007681c0      11470018       move.b d7, 0x18(a0)
     < 0x007681c4      601e           bra.b 0x7681e4
     > 0x007681c6      28790086e6e4   movea.l 0x86e6e4, a4
     > 0x007681cc      b8c1           cmpa.w d1, a4
    < 0x007681ce      6714           beq.b 0x7681e4
       0x007681d0      b9ecfffc       cmpa.l -0x4(a4), a4
   < 0x007681d4      6702           beq.b 0x7681d8
      0x007681d6      4e4d           trap 0xd
   > 0x007681d8      4887           ext.w d7
       0x007681da      4f82           chk.w d2, d7
       0x007681dc      19470018       move.b d7, 0x18(a4)
       0x007681e0      2854           movea.l (a4), a4
    < 0x007681e2      60e8           bra.b 0x7681cc
    > 0x007681e4      1f3c0006       move.b 0x6, -(a7)
          0x007681e8      4ebac1e2       jsr MENUTYPECOM.update_type(pc)
          0x007681ec      544f           addq.w 0x2, a7
       > 0x007681ee      4cdf1187       movem.l (a7)+, d0-d2/d7/a0/a4
           0x007681f2      4e5e           unlk a6
           0x007681f4      4e75           rts
            ; CALL XREFS from MENUTYPECOM.hit_flip_tumble @ 0x7684ec, 0x768538
 112: MENUTYPECOM.tumble_selectio ();
           0x007681f6      4e56ffdc       link.w a6, 0xffdc
           0x007681fa      bfd5           cmpa.l (a5), a7
       < 0x007681fc      6206           bhi.b 0x768204
          0x007681fe      44fc0002       move.w 0x2, ccr
          0x00768202      4e76           trapv
       > 0x00768204      defc0024       adda.w 0x24, a7
           0x00768208      48e7c0e0       movem.l d0-d1/a0-a2, -(a7)
           0x0076820c      45ee000c       lea.l 0xc(a6), a2
           0x00768210      7201           moveq 0x1, d1
       > 0x00768212      206e0008       movea.l 0x8(a6), a0
          0x00768216      b1e8fffc       cmpa.l -0x4(a0), a0
      < 0x0076821a      6702           beq.b 0x76821e
         0x0076821c      4e4d           trap 0xd
      > 0x0076821e      2252           movea.l (a2), a1
          0x00768220      b3e80004       cmpa.l 0x4(a0), a1
      < 0x00768224      6738           beq.b 0x76825e
         0x00768226      b2c1           cmpa.w d1, a1
     < 0x00768228      6734           beq.b 0x76825e
        0x0076822a      b3e9fffc       cmpa.l -0x4(a1), a1
    < 0x0076822e      6702           beq.b 0x768232
       0x00768230      4e4d           trap 0xd
    > 0x00768232      10290051       move.b 0x51(a1), d0
        0x00768236      4400           neg.b d0
        0x00768238      5200           addq.b 0x1, d0
        0x0076823a      4880           ext.w d0
        0x0076823c      4181           chk.w d1, d0
        0x0076823e      13400051       move.b d0, 0x51(a1)
        0x00768242      48690034       pea.l 0x34(a1)
        0x00768246      4eb900632826   jsr CACHECOM.remove_cache_re
        0x0076824c      584f           addq.w 0x4, a7
        0x0076824e      2052           movea.l (a2), a0
        0x00768250      b1e8fffc       cmpa.l -0x4(a0), a0
    < 0x00768254      6702           beq.b 0x768258
       0x00768256      4e4d           trap 0xd
    > 0x00768258      24a80004       move.l 0x4(a0), (a2)
     < 0x0076825c      60b4           bra.b 0x768212
     > 0x0076825e      4cdf0703       movem.l (a7)+, d0-d1/a0-a2
           0x00768262      4e5e           unlk a6
           0x00768264      4e75           rts
            ; CALL XREFS from MENUTYPECOM.hit_flip_tumble @ 0x76842c, 0x76847a
 274: MENUTYPECOM.flip_selection (int32_t arg_4h, int32_t arg_10h);
           ; arg int32_t arg_4h @ a6+0x4
           ; arg int32_t arg_10h @ a6+0x10
           0x00768266      4e56ffc8       link.w a6, 0xffc8
           0x0076826a      bfd5           cmpa.l (a5), a7
       < 0x0076826c      6206           bhi.b 0x768274
          0x0076826e      44fc0002       move.w 0x2, ccr
          0x00768272      4e76           trapv
       > 0x00768274      defc0030       adda.w 0x30, a7
           0x00768278      48e7c0f8       movem.l d0-d1/a0-a4, -(a7)
           0x0076827c      7201           moveq 0x1, d1
           0x0076827e      2d6e0010fff8   move.l 0x10(a6), -0x8(a6)
       > 0x00768284      206e000c       movea.l 0xc(a6), a0
          0x00768288      b1e8fffc       cmpa.l -0x4(a0), a0
      < 0x0076828c      6702           beq.b 0x768290
         0x0076828e      4e4d           trap 0xd
      > 0x00768290      226efff8       movea.l -0x8(a6), a1
          0x00768294      b3e80004       cmpa.l 0x4(a0), a1
      < 0x00768298      673c           beq.b 0x7682d6
         0x0076829a      b2c1           cmpa.w d1, a1
     < 0x0076829c      6738           beq.b 0x7682d6
        0x0076829e      b3e9fffc       cmpa.l -0x4(a1), a1
    < 0x007682a2      6702           beq.b 0x7682a6
       0x007682a4      4e4d           trap 0xd
    > 0x007682a6      10290050       move.b 0x50(a1), d0
        0x007682aa      4400           neg.b d0
        0x007682ac      5200           addq.b 0x1, d0
        0x007682ae      4880           ext.w d0
        0x007682b0      4181           chk.w d1, d0
        0x007682b2      13400050       move.b d0, 0x50(a1)
        0x007682b6      48690034       pea.l 0x34(a1)
        0x007682ba      4eb900632826   jsr CACHECOM.remove_cache_re
        0x007682c0      584f           addq.w 0x4, a7
        0x007682c2      246efff8       movea.l -0x8(a6), a2
        0x007682c6      b5eafffc       cmpa.l -0x4(a2), a2
    < 0x007682ca      6702           beq.b 0x7682ce
       0x007682cc      4e4d           trap 0xd
    > 0x007682ce      2d6a0004fff8   move.l 0x4(a2), -0x8(a6)
     < 0x007682d4      60ae           bra.b 0x768284
     > 0x007682d6      226e0010       movea.l 0x10(a6), a1
           0x007682da      b3e9fffc       cmpa.l -0x4(a1), a1
       < 0x007682de      6702           beq.b 0x7682e2
          0x007682e0      4e4d           trap 0xd
       > 0x007682e2      2451           movea.l (a1), a2
           0x007682e4      b4c1           cmpa.w d1, a2
       < 0x007682e6      6614           bne.b 0x7682fc
          0x007682e8      266e0008       movea.l 0x8(a6), a3
          0x007682ec      b7ebfffc       cmpa.l -0x4(a3), a3
      < 0x007682f0      6702           beq.b 0x7682f4
         0x007682f2      4e4d           trap 0xd
      > 0x007682f4      276e000c0008   move.l 0xc(a6), 0x8(a3)
      < 0x007682fa      600e           bra.b 0x76830a
      > 0x007682fc      b5eafffc       cmpa.l -0x4(a2), a2
      < 0x00768300      6702           beq.b 0x768304
         0x00768302      4e4d           trap 0xd
      > 0x00768304      256e000c0004   move.l 0xc(a6), 0x4(a2)
      > 0x0076830a      24680004       movea.l 0x4(a0), a2
           0x0076830e      b4c1           cmpa.w d1, a2
       < 0x00768310      6614           bne.b 0x768326
          0x00768312      266e0008       movea.l 0x8(a6), a3
          0x00768316      b7ebfffc       cmpa.l -0x4(a3), a3
      < 0x0076831a      6702           beq.b 0x76831e
         0x0076831c      4e4d           trap 0xd
      > 0x0076831e      276e0010000c   move.l 0x10(a6), 0xc(a3)
      < 0x00768324      600c           bra.b 0x768332
      > 0x00768326      b5eafffc       cmpa.l -0x4(a2), a2
      < 0x0076832a      6702           beq.b 0x76832e
         0x0076832c      4e4d           trap 0xd
      > 0x0076832e      24ae0010       move.l 0x10(a6), (a2)
      > 0x00768332      2d690004fff8   move.l 0x4(a1), -0x8(a6)
           0x00768338      2850           movea.l (a0), a4
           0x0076833a      236800040004   move.l 0x4(a0), 0x4(a1)
           0x00768340      2091           move.l (a1), (a0)
           0x00768342      22aefff8       move.l -0x8(a6), (a1)
           0x00768346      214c0004       move.l a4, 0x4(a0)
       > 0x0076834a      206efff8       movea.l -0x8(a6), a0
          0x0076834e      b1ee000c       cmpa.l 0xc(a6), a0
      < 0x00768352      671c           beq.b 0x768370
         0x00768354      b0c1           cmpa.w d1, a0
     < 0x00768356      6718           beq.b 0x768370
        0x00768358      b1e8fffc       cmpa.l -0x4(a0), a0
    < 0x0076835c      6702           beq.b 0x768360
       0x0076835e      4e4d           trap 0xd
    > 0x00768360      28680004       movea.l 0x4(a0), a4
        0x00768364      21500004       move.l (a0), 0x4(a0)
        0x00768368      208c           move.l a4, (a0)
        0x0076836a      2d50fff8       move.l (a0), -0x8(a6)
     < 0x0076836e      60da           bra.b 0x76834a
     > 0x00768370      4cdf1f03       movem.l (a7)+, d0-d1/a0-a4
           0x00768374      4e5e           unlk a6
           0x00768376      4e75           rts
 476: MENUTYPECOM.hit_flip_tumble ();
           0x00768378      4e56ffb6       link.w a6, 0xffb6
           0x0076837c      bfd5           cmpa.l (a5), a7
       < 0x0076837e      6206           bhi.b 0x768386
          0x00768380      44fc0002       move.w 0x2, ccr
          0x00768384      4e76           trapv
       > 0x00768386      defc003a       adda.w 0x3a, a7
           0x0076838a      48e7f0f8       movem.l d0-d3/a0-a4, -(a7)
           0x0076838e      43f90086e6d8   lea.l 0x86e6d8, a1
           0x00768394      45f900480fc2   lea.l MENUCOM.get_boxon, a2
           0x0076839a      47f90086e6e8   lea.l 0x86e6e8, a3
           0x007683a0      7401           moveq 0x1, d2
           0x007683a2      760c           moveq 0xc, d3
           0x007683a4      302e0008       move.w 0x8(a6), d0
           0x007683a8      41fab0e8       lea.l 0x763492(pc), a0
           0x007683ac      3200           move.w d0, d1
           0x007683ae      e649           lsr.w 0x3, d1
           0x007683b0      0c410020       cmpi.w 0x20, d1
       < 0x007683b4      6d04           blt.b 0x7683ba
          0x007683b6      7200           moveq 0x0, d1
      < 0x007683b8      6004           bra.b 0x7683be
      > 0x007683ba      01301000       btst.l d0, (a0, d1.w)
      < 0x007683be      6700018c       beq.w 0x76854c
          0x007683c2      302e000a       move.w 0xa(a6), d0
          0x007683c6      b0790086e7bc   cmp.w 0x86e7bc, d0
      < 0x007683cc      660000ba       bne.w 0x768488
         0x007683d0      554f           subq.w 0x2, a7
         0x007683d2      3f390086e7a6   move.w 0x86e7a6, -(a7)
         0x007683d8      4e92           jsr (a2)                    ; fcn.00000009+0x2
         0x007683da      544f           addq.w 0x2, a7
         0x007683dc      4a1f           tst.b (a7)+
     < 0x007683de      6728           beq.b 0x768408
        0x007683e0      2051           movea.l (a1), a0
        0x007683e2      b1e8fffc       cmpa.l -0x4(a0), a0
    < 0x007683e6      6702           beq.b 0x7683ea
       0x007683e8      4e4d           trap 0xd
    > 0x007683ea      12280050       move.b 0x50(a0), d1
        0x007683ee      4401           neg.b d1
        0x007683f0      5201           addq.b 0x1, d1
        0x007683f2      4881           ext.w d1
        0x007683f4      4382           chk.w d2, d1
        0x007683f6      11410050       move.b d1, 0x50(a0)
        0x007683fa      48680034       pea.l 0x34(a0)
        0x007683fe      4eb900632826   jsr CACHECOM.remove_cache_re
        0x00768404      584f           addq.w 0x4, a7
    < 0x00768406      607c           bra.b 0x768484
    > 0x00768408      554f           subq.w 0x2, a7
        0x0076840a      3f390086e7a8   move.w 0x86e7a8, -(a7)
        0x00768410      4e92           jsr (a2)                    ; fcn.00000009+0x2
        0x00768412      544f           addq.w 0x2, a7
        0x00768414      4a1f           tst.b (a7)+
    < 0x00768416      671c           beq.b 0x768434
       0x00768418      2053           movea.l (a3), a0
       0x0076841a      b1e8fffc       cmpa.l -0x4(a0), a0
   < 0x0076841e      6702           beq.b 0x768422
      0x00768420      4e4d           trap 0xd
   > 0x00768422      2f280008       move.l 0x8(a0), -(a7)
       0x00768426      2f28000c       move.l 0xc(a0), -(a7)
   > 0x0076842a      2f13           move.l (a3), -(a7)
      0x0076842c      4ebafe38       jsr MENUTYPECOM.flip_selection(pc)
      0x00768430      dec3           adda.w d3, a7
  < 0x00768432      6050           bra.b 0x768484
  > 0x00768434      554f           subq.w 0x2, a7
      0x00768436      3f390086e7a4   move.w 0x86e7a4, -(a7)
      0x0076843c      4e92           jsr (a2)                    ; fcn.00000009+0x2
      0x0076843e      544f           addq.w 0x2, a7
      0x00768440      4a1f           tst.b (a7)+
  < 0x00768442      671a           beq.b 0x76845e
     0x00768444      2f11           move.l (a1), -(a7)
     0x00768446      486efff0       pea.l -0x10(a6)
     0x0076844a      486efff4       pea.l -0xc(a6)
     0x0076844e      4ebacfc2       jsr MENUTYPECOM.select_word(pc)
     0x00768452      504f           addq.w 0x8, a7
     0x00768454      2eaefff0       move.l -0x10(a6), (a7)
     0x00768458      2f2efff4       move.l -0xc(a6), -(a7)
  < 0x0076845c      60cc           bra.b 0x76842a
   > 0x0076845e      28790086e6e4   movea.l 0x86e6e4, a4
   > 0x00768464      b8c2           cmpa.w d2, a4
  < 0x00768466      671c           beq.b 0x768484
     0x00768468      b9ecfffc       cmpa.l -0x4(a4), a4
 < 0x0076846c      6702           beq.b 0x768470
    0x0076846e      4e4d           trap 0xd
 > 0x00768470      2f2c0008       move.l 0x8(a4), -(a7)
     0x00768474      2f2c000c       move.l 0xc(a4), -(a7)
     0x00768478      2f0c           move.l a4, -(a7)
     0x0076847a      4ebafdea       jsr MENUTYPECOM.flip_selection(pc)
     0x0076847e      dec3           adda.w d3, a7
     0x00768480      2854           movea.l (a4), a4
  < 0x00768482      60e0           bra.b 0x768464
  < 0x00768484      600000bc       bra.w 0x768542
     > 0x00768488      b0790086e7be   cmp.w 0x86e7be, d0
     < 0x0076848e      660000bc       bne.w 0x76854c
        0x00768492      554f           subq.w 0x2, a7
        0x00768494      3f390086e7a6   move.w 0x86e7a6, -(a7)
        0x0076849a      4e92           jsr (a2)                    ; fcn.00000009+0x2
        0x0076849c      544f           addq.w 0x2, a7
        0x0076849e      4a1f           tst.b (a7)+
    < 0x007684a0      6728           beq.b 0x7684ca
       0x007684a2      2051           movea.l (a1), a0
       0x007684a4      b1e8fffc       cmpa.l -0x4(a0), a0
   < 0x007684a8      6702           beq.b 0x7684ac
      0x007684aa      4e4d           trap 0xd
   > 0x007684ac      12280051       move.b 0x51(a0), d1
       0x007684b0      4401           neg.b d1
       0x007684b2      5201           addq.b 0x1, d1
       0x007684b4      4881           ext.w d1
       0x007684b6      4382           chk.w d2, d1
       0x007684b8      11410051       move.b d1, 0x51(a0)
       0x007684bc      48680034       pea.l 0x34(a0)
       0x007684c0      4eb900632826   jsr CACHECOM.remove_cache_re
       0x007684c6      584f           addq.w 0x4, a7
   < 0x007684c8      6078           bra.b 0x768542
   > 0x007684ca      554f           subq.w 0x2, a7
       0x007684cc      3f390086e7a8   move.w 0x86e7a8, -(a7)
       0x007684d2      4e92           jsr (a2)                    ; fcn.00000009+0x2
       0x007684d4      544f           addq.w 0x2, a7
       0x007684d6      4a1f           tst.b (a7)+
   < 0x007684d8      671a           beq.b 0x7684f4
      0x007684da      2053           movea.l (a3), a0
      0x007684dc      b1e8fffc       cmpa.l -0x4(a0), a0
  < 0x007684e0      6702           beq.b 0x7684e4
     0x007684e2      4e4d           trap 0xd
  > 0x007684e4      2f280008       move.l 0x8(a0), -(a7)
      0x007684e8      2f28000c       move.l 0xc(a0), -(a7)
  > 0x007684ec      4ebafd08       jsr MENUTYPECOM.tumble_selectio(pc)
     0x007684f0      504f           addq.w 0x8, a7
 < 0x007684f2      604e           bra.b 0x768542
 > 0x007684f4      554f           subq.w 0x2, a7
     0x007684f6      3f390086e7a4   move.w 0x86e7a4, -(a7)
     0x007684fc      4e92           jsr (a2)                    ; fcn.00000009+0x2
     0x007684fe      544f           addq.w 0x2, a7
     0x00768500      4a1f           tst.b (a7)+
 < 0x00768502      671a           beq.b 0x76851e
    0x00768504      2f11           move.l (a1), -(a7)
    0x00768506      486efff0       pea.l -0x10(a6)
    0x0076850a      486efff4       pea.l -0xc(a6)
    0x0076850e      4ebacf02       jsr MENUTYPECOM.select_word(pc)
    0x00768512      504f           addq.w 0x8, a7
    0x00768514      2eaefff0       move.l -0x10(a6), (a7)
    0x00768518      2f2efff4       move.l -0xc(a6), -(a7)
 < 0x0076851c      60ce           bra.b 0x7684ec
  > 0x0076851e      28790086e6e4   movea.l 0x86e6e4, a4
  > 0x00768524      b8c2           cmpa.w d2, a4
 < 0x00768526      671a           beq.b 0x768542
    0x00768528      b9ecfffc       cmpa.l -0x4(a4), a4
 < 0x0076852c      6702           beq.b 0x768530
    0x0076852e      4e4d           trap 0xd
 > 0x00768530      2f2c0008       move.l 0x8(a4), -(a7)
    0x00768534      2f2c000c       move.l 0xc(a4), -(a7)
    0x00768538      4ebafcbc       jsr MENUTYPECOM.tumble_selectio(pc)
    0x0076853c      504f           addq.w 0x8, a7
    0x0076853e      2854           movea.l (a4), a4
 < 0x00768540      60e2           bra.b 0x768524
 > 0x00768542      1f3c0006       move.b 0x6, -(a7)
         0x00768546      4ebabe84       jsr MENUTYPECOM.update_type(pc)
         0x0076854a      544f           addq.w 0x2, a7
      > 0x0076854c      4cdf1f0f       movem.l (a7)+, d0-d3/a0-a4
           0x00768550      4e5e           unlk a6
           0x00768552      4e75           rts
 224: MENUTYPECOM.sort_horiz_line ();
           0x00768554      4e56ffc4       link.w a6, 0xffc4
           0x00768558      bfd5           cmpa.l (a5), a7
       < 0x0076855a      6206           bhi.b 0x768562
          0x0076855c      44fc0002       move.w 0x2, ccr
          0x00768560      4e76           trapv
       > 0x00768562      defc0032       adda.w 0x32, a7
           0x00768566      48e7c3f8       movem.l d0-d1/d6-d7/a0-a4, -(a7)
           0x0076856a      45f90086e6e4   lea.l 0x86e6e4, a2
           0x00768570      7201           moveq 0x1, d1
       > 0x00768572      7c00           moveq 0x0, d6
          0x00768574      2852           movea.l (a2), a4
      > 0x00768576      b8c1           cmpa.w d1, a4
     < 0x00768578      670000ac       beq.w 0x768626
        0x0076857c      b9ecfffc       cmpa.l -0x4(a4), a4
    < 0x00768580      6702           beq.b 0x768584
       0x00768582      4e4d           trap 0xd
    > 0x00768584      7e00           moveq 0x0, d7
        0x00768586      2054           movea.l (a4), a0
        0x00768588      b0c1           cmpa.w d1, a0
    < 0x0076858a      6750           beq.b 0x7685dc
       0x0076858c      4a390086e7df   tst.b 0x86e7df
   < 0x00768592      6624           bne.b 0x7685b8
      0x00768594      b1e8fffc       cmpa.l -0x4(a0), a0
  < 0x00768598      6702           beq.b 0x76859c
     0x0076859a      4e4d           trap 0xd
  > 0x0076859c      302c0012       move.w 0x12(a4), d0
      0x007685a0      b0680012       cmp.w 0x12(a0), d0
  < 0x007685a4      6e10           bgt.b 0x7685b6
     0x007685a6      b0680012       cmp.w 0x12(a0), d0
 < 0x007685aa      6630           bne.b 0x7685dc
    0x007685ac      302c0010       move.w 0x10(a4), d0
    0x007685b0      b0680010       cmp.w 0x10(a0), d0
 < 0x007685b4      6f26           ble.b 0x7685dc
 > 0x007685b6      6022           bra.b 0x7685da
  > 0x007685b8      b1e8fffc       cmpa.l -0x4(a0), a0
  < 0x007685bc      6702           beq.b 0x7685c0
     0x007685be      4e4d           trap 0xd
  > 0x007685c0      302c0012       move.w 0x12(a4), d0
      0x007685c4      b0680012       cmp.w 0x12(a0), d0
  < 0x007685c8      6e10           bgt.b 0x7685da
     0x007685ca      b0680012       cmp.w 0x12(a0), d0
 < 0x007685ce      660c           bne.b 0x7685dc
    0x007685d0      302c0010       move.w 0x10(a4), d0
    0x007685d4      b0680010       cmp.w 0x10(a0), d0
 < 0x007685d8      6c02           bge.b 0x7685dc
 > 0x007685da      7e01           moveq 0x1, d7
 > 0x007685dc      4a07           tst.b d7
    < 0x007685de      6740           beq.b 0x768620
       0x007685e0      7c01           moveq 0x1, d6
       0x007685e2      2648           movea.l a0, a3
       0x007685e4      b7ebfffc       cmpa.l -0x4(a3), a3
   < 0x007685e8      6702           beq.b 0x7685ec
      0x007685ea      4e4d           trap 0xd
   > 0x007685ec      2253           movea.l (a3), a1
       0x007685ee      b2c1           cmpa.w d1, a1
   < 0x007685f0      670c           beq.b 0x7685fe
      0x007685f2      b3e9fffc       cmpa.l -0x4(a1), a1
  < 0x007685f6      6702           beq.b 0x7685fa
     0x007685f8      4e4d           trap 0xd
  > 0x007685fa      234c0004       move.l a4, 0x4(a1)
   > 0x007685fe      2893           move.l (a3), (a4)
       0x00768600      226c0004       movea.l 0x4(a4), a1
       0x00768604      b2c1           cmpa.w d1, a1
   < 0x00768606      6604           bne.b 0x76860c
      0x00768608      248b           move.l a3, (a2)
  < 0x0076860a      600a           bra.b 0x768616
  > 0x0076860c      b3e9fffc       cmpa.l -0x4(a1), a1
  < 0x00768610      6702           beq.b 0x768614
     0x00768612      4e4d           trap 0xd
  > 0x00768614      228b           move.l a3, (a1)
  > 0x00768616      268c           move.l a4, (a3)
       0x00768618      27490004       move.l a1, 0x4(a3)
       0x0076861c      294b0004       move.l a3, 0x4(a4)
    > 0x00768620      2854           movea.l (a4), a4
     < 0x00768622      6000ff52       bra.w 0x768576
     > 0x00768626      4a06           tst.b d6
       < 0x00768628      6600ff48       bne.w 0x768572
           0x0076862c      4cdf1fc3       movem.l (a7)+, d0-d1/d6-d7/a0-a4
           0x00768630      4e5e           unlk a6
           0x00768632      4e75           rts
 224: MENUTYPECOM.sort_vert_lines ();
           0x00768634      4e56ffc4       link.w a6, 0xffc4
           0x00768638      bfd5           cmpa.l (a5), a7
       < 0x0076863a      6206           bhi.b 0x768642
          0x0076863c      44fc0002       move.w 0x2, ccr
          0x00768640      4e76           trapv
       > 0x00768642      defc0032       adda.w 0x32, a7
           0x00768646      48e7c3f8       movem.l d0-d1/d6-d7/a0-a4, -(a7)
           0x0076864a      45f90086e6e4   lea.l 0x86e6e4, a2
           0x00768650      7201           moveq 0x1, d1
       > 0x00768652      7c00           moveq 0x0, d6
          0x00768654      2852           movea.l (a2), a4
      > 0x00768656      b8c1           cmpa.w d1, a4
     < 0x00768658      670000ac       beq.w 0x768706
        0x0076865c      b9ecfffc       cmpa.l -0x4(a4), a4
    < 0x00768660      6702           beq.b 0x768664
       0x00768662      4e4d           trap 0xd
    > 0x00768664      7e00           moveq 0x0, d7
        0x00768666      2054           movea.l (a4), a0
        0x00768668      b0c1           cmpa.w d1, a0
    < 0x0076866a      6750           beq.b 0x7686bc
       0x0076866c      4a390086e7df   tst.b 0x86e7df
   < 0x00768672      6624           bne.b 0x768698
      0x00768674      b1e8fffc       cmpa.l -0x4(a0), a0
  < 0x00768678      6702           beq.b 0x76867c
     0x0076867a      4e4d           trap 0xd
  > 0x0076867c      302c0010       move.w 0x10(a4), d0
      0x00768680      b0680010       cmp.w 0x10(a0), d0
  < 0x00768684      6e10           bgt.b 0x768696
     0x00768686      b0680010       cmp.w 0x10(a0), d0
 < 0x0076868a      6630           bne.b 0x7686bc
    0x0076868c      302c0012       move.w 0x12(a4), d0
    0x00768690      b0680012       cmp.w 0x12(a0), d0
 < 0x00768694      6f26           ble.b 0x7686bc
 > 0x00768696      6022           bra.b 0x7686ba
  > 0x00768698      b1e8fffc       cmpa.l -0x4(a0), a0
  < 0x0076869c      6702           beq.b 0x7686a0
     0x0076869e      4e4d           trap 0xd
  > 0x007686a0      302c0010       move.w 0x10(a4), d0
      0x007686a4      b0680010       cmp.w 0x10(a0), d0
  < 0x007686a8      6d10           blt.b 0x7686ba
     0x007686aa      b0680010       cmp.w 0x10(a0), d0
 < 0x007686ae      660c           bne.b 0x7686bc
    0x007686b0      302c0012       move.w 0x12(a4), d0
    0x007686b4      b0680012       cmp.w 0x12(a0), d0
 < 0x007686b8      6f02           ble.b 0x7686bc
 > 0x007686ba      7e01           moveq 0x1, d7
 > 0x007686bc      4a07           tst.b d7
    < 0x007686be      6740           beq.b 0x768700
       0x007686c0      7c01           moveq 0x1, d6
       0x007686c2      2648           movea.l a0, a3
       0x007686c4      b7ebfffc       cmpa.l -0x4(a3), a3
   < 0x007686c8      6702           beq.b 0x7686cc
      0x007686ca      4e4d           trap 0xd
   > 0x007686cc      2253           movea.l (a3), a1
       0x007686ce      b2c1           cmpa.w d1, a1
   < 0x007686d0      670c           beq.b 0x7686de
      0x007686d2      b3e9fffc       cmpa.l -0x4(a1), a1
  < 0x007686d6      6702           beq.b 0x7686da
     0x007686d8      4e4d           trap 0xd
  > 0x007686da      234c0004       move.l a4, 0x4(a1)
   > 0x007686de      2893           move.l (a3), (a4)
       0x007686e0      226c0004       movea.l 0x4(a4), a1
       0x007686e4      b2c1           cmpa.w d1, a1
   < 0x007686e6      6604           bne.b 0x7686ec
      0x007686e8      248b           move.l a3, (a2)
  < 0x007686ea      600a           bra.b 0x7686f6
  > 0x007686ec      b3e9fffc       cmpa.l -0x4(a1), a1
  < 0x007686f0      6702           beq.b 0x7686f4
     0x007686f2      4e4d           trap 0xd
  > 0x007686f4      228b           move.l a3, (a1)
  > 0x007686f6      268c           move.l a4, (a3)
       0x007686f8      27490004       move.l a1, 0x4(a3)
       0x007686fc      294b0004       move.l a3, 0x4(a4)
    > 0x00768700      2854           movea.l (a4), a4
     < 0x00768702      6000ff52       bra.w 0x768656
     > 0x00768706      4a06           tst.b d6
       < 0x00768708      6600ff48       bne.w 0x768652
           0x0076870c      4cdf1fc3       movem.l (a7)+, d0-d1/d6-d7/a0-a4
           0x00768710      4e5e           unlk a6
           0x00768712      4e75           rts
            ; CALL XREF from MENUTYPECOM.upd_page_pos @ 0x7687b6
 110: MENUTYPECOM.upd_line_pos ();
           0x00768714      4e56ffec       link.w a6, 0xffec
           0x00768718      bfd5           cmpa.l (a5), a7
       < 0x0076871a      6206           bhi.b 0x768722
          0x0076871c      44fc0002       move.w 0x2, ccr
          0x00768720      4e76           trapv
       > 0x00768722      defc0014       adda.w 0x14, a7
           0x00768726      48e7c080       movem.l d0-d1/a0, -(a7)
           0x0076872a      223cffff8000   move.l 0xffff8000, d1
           0x00768730      206e0010       movea.l 0x10(a6), a0
           0x00768734      b1e8fffc       cmpa.l -0x4(a0), a0
       < 0x00768738      6702           beq.b 0x76873c
          0x0076873a      4e4d           trap 0xd
       > 0x0076873c      30280010       move.w 0x10(a0), d0
           0x00768740      48c0           ext.l d0
           0x00768742      d0ae000c       add.l 0xc(a6), d0
           0x00768746      9081           sub.l d1, d0
           0x00768748      0c800000ffff   cmpi.l 0xffff, d0
       < 0x0076874e      6302           bls.b 0x768752
          0x00768750      4e4f           trap 0xf
       > 0x00768752      d081           add.l d1, d0
           0x00768754      31400010       move.w d0, 0x10(a0)
           0x00768758      30280012       move.w 0x12(a0), d0
           0x0076875c      48c0           ext.l d0
           0x0076875e      d0ae0008       add.l 0x8(a6), d0
           0x00768762      9081           sub.l d1, d0
           0x00768764      0c800000ffff   cmpi.l 0xffff, d0
       < 0x0076876a      6302           bls.b 0x76876e
          0x0076876c      4e4f           trap 0xf
       > 0x0076876e      d081           add.l d1, d0
           0x00768770      31400012       move.w d0, 0x12(a0)
           0x00768774      117c00010023   move.b 0x1, 0x23(a0)
           0x0076877a      4cdf0103       movem.l (a7)+, d0-d1/a0
           0x0076877e      4e5e           unlk a6
           0x00768780      4e75           rts
 96: MENUTYPECOM.upd_page_pos ();
           0x00768782      4e56ffd8       link.w a6, 0xffd8
           0x00768786      bfd5           cmpa.l (a5), a7
       < 0x00768788      6206           bhi.b 0x768790
          0x0076878a      44fc0002       move.w 0x2, ccr
          0x0076878e      4e76           trapv
       > 0x00768790      defc0028       adda.w 0x28, a7
           0x00768794      48e780f0       movem.l d0/a0-a3, -(a7)
           0x00768798      43ec0008       lea.l 0x8(a4), a1
           0x0076879c      45ee0014       lea.l 0x14(a6), a2
           0x007687a0      47ee0010       lea.l 0x10(a6), a3
           0x007687a4      22ae0018       move.l 0x18(a6), (a1)
       > 0x007687a8      2051           movea.l (a1), a0
          0x007687aa      b0fc0001       cmpa.w 0x1, a0
      < 0x007687ae      672a           beq.b 0x7687da
         0x007687b0      2f08           move.l a0, -(a7)
         0x007687b2      2f12           move.l (a2), -(a7)
         0x007687b4      2f13           move.l (a3), -(a7)
         0x007687b6      4ebaff5c       jsr MENUTYPECOM.upd_line_pos(pc)
         0x007687ba      defc000c       adda.w 0xc, a7
         0x007687be      2012           move.l (a2), d0
         0x007687c0      d0ae000c       add.l 0xc(a6), d0
         0x007687c4      2480           move.l d0, (a2)
         0x007687c6      2013           move.l (a3), d0
         0x007687c8      d0ae0008       add.l 0x8(a6), d0
         0x007687cc      2680           move.l d0, (a3)
         0x007687ce      b1e8fffc       cmpa.l -0x4(a0), a0
     < 0x007687d2      6702           beq.b 0x7687d6
        0x007687d4      4e4d           trap 0xd
     > 0x007687d6      2290           move.l (a0), (a1)
      < 0x007687d8      60ce           bra.b 0x7687a8
      > 0x007687da      4cdf0f01       movem.l (a7)+, d0/a0-a3
           0x007687de      4e5e           unlk a6
           0x007687e0      4e75           rts
            ; CALL XREF from MENUTYPECOM.upd_page_size @ 0x768878
 106: MENUTYPECOM.upd_line_size ();
           0x007687e2      4e56ffe0       link.w a6, 0xffe0
           0x007687e6      bfd5           cmpa.l (a5), a7
       < 0x007687e8      6206           bhi.b 0x7687f0
          0x007687ea      44fc0002       move.w 0x2, ccr
          0x007687ee      4e76           trapv
       > 0x007687f0      defc001c       adda.w 0x1c, a7
           0x007687f4      48e79888       movem.l d0/d3-d4/a0/a4, -(a7)
           0x007687f8      7001           moveq 0x1, d0
           0x007687fa      206e000c       movea.l 0xc(a6), a0
           0x007687fe      b1e8fffc       cmpa.l -0x4(a0), a0
       < 0x00768802      6702           beq.b 0x768806
          0x00768804      4e4d           trap 0xd
       > 0x00768806      28680008       movea.l 0x8(a0), a4
       > 0x0076880a      b8c0           cmpa.w d0, a4
      < 0x0076880c      6720           beq.b 0x76882e
         0x0076880e      b9ecfffc       cmpa.l -0x4(a4), a4
     < 0x00768812      6702           beq.b 0x768816
        0x00768814      4e4d           trap 0xd
     > 0x00768816      282c0038       move.l 0x38(a4), d4
         0x0076881a      262e0008       move.l 0x8(a6), d3
         0x0076881e      4eb900407e92   jsr fcn.00407e92
         0x00768824      29440038       move.l d4, 0x38(a4)
         0x00768828      286c0004       movea.l 0x4(a4), a4
      < 0x0076882c      60dc           bra.b 0x76880a
      > 0x0076882e      2828001a       move.l 0x1a(a0), d4
           0x00768832      262e0008       move.l 0x8(a6), d3
           0x00768836      4eb900407e92   jsr fcn.00407e92
           0x0076883c      2144001a       move.l d4, 0x1a(a0)
           0x00768840      11400023       move.b d0, 0x23(a0)
           0x00768844      4cdf1119       movem.l (a7)+, d0/d3-d4/a0/a4
           0x00768848      4e5e           unlk a6
           0x0076884a      4e75           rts
 70: MENUTYPECOM.upd_page_size ();
           0x0076884c      4e56ffe8       link.w a6, 0xffe8
           0x00768850      bfd5           cmpa.l (a5), a7
       < 0x00768852      6206           bhi.b 0x76885a
          0x00768854      44fc0002       move.w 0x2, ccr
          0x00768858      4e76           trapv
       > 0x0076885a      defc0018       adda.w 0x18, a7
           0x0076885e      48e700c0       movem.l a0-a1, -(a7)
           0x00768862      43ec0008       lea.l 0x8(a4), a1
           0x00768866      22ae000c       move.l 0xc(a6), (a1)
       > 0x0076886a      2051           movea.l (a1), a0
          0x0076886c      b0fc0001       cmpa.w 0x1, a0
      < 0x00768870      6718           beq.b 0x76888a
         0x00768872      2f08           move.l a0, -(a7)
         0x00768874      2f2e0008       move.l 0x8(a6), -(a7)
         0x00768878      4ebaff68       jsr MENUTYPECOM.upd_line_size(pc)
         0x0076887c      504f           addq.w 0x8, a7
         0x0076887e      b1e8fffc       cmpa.l -0x4(a0), a0
     < 0x00768882      6702           beq.b 0x768886
        0x00768884      4e4d           trap 0xd
     > 0x00768886      2290           move.l (a0), (a1)
      < 0x00768888      60e0           bra.b 0x76886a
      > 0x0076888a      4cdf0300       movem.l (a7)+, a0-a1
           0x0076888e      4e5e           unlk a6
           0x00768890      4e75           rts
 278: MENUTYPECOM.upd_word_size ();
           0x00768892      4e56ffba       link.w a6, 0xffba
           0x00768896      bfd5           cmpa.l (a5), a7
       < 0x00768898      6206           bhi.b 0x7688a0
          0x0076889a      44fc0002       move.w 0x2, ccr
          0x0076889e      4e76           trapv
       > 0x007688a0      defc0040       adda.w 0x40, a7
           0x007688a4      48e7fff8       movem.l d0-d7/a0-a4, -(a7)
           0x007688a8      43f90086e7e0   lea.l 0x86e7e0, a1
           0x007688ae      45ee0008       lea.l 0x8(a6), a2
           0x007688b2      47f900407e92   lea.l fcn.00407e92, a3
           0x007688b8      7420           moveq 0x20, d2
           0x007688ba      7a01           moveq 0x1, d5
           0x007688bc      3c3c0404       move.w 0x404, d6
           0x007688c0      206e000c       movea.l 0xc(a6), a0
           0x007688c4      b1e8fffc       cmpa.l -0x4(a0), a0
       < 0x007688c8      6702           beq.b 0x7688cc
          0x007688ca      4e4d           trap 0xd
       > 0x007688cc      28680004       movea.l 0x4(a0), a4
           0x007688d0      28280038       move.l 0x38(a0), d4
           0x007688d4      2612           move.l (a2), d3
           0x007688d6      4e93           jsr (a3)                    ; fcn.0000000c
           0x007688d8      21440038       move.l d4, 0x38(a0)
           0x007688dc      30280010       move.w 0x10(a0), d0
           0x007688e0      2049           movea.l a1, a0
           0x007688e2      3200           move.w d0, d1
           0x007688e4      e649           lsr.w 0x3, d1
           0x007688e6      b242           cmp.w d2, d1
       < 0x007688e8      6d04           blt.b 0x7688ee
          0x007688ea      7200           moveq 0x0, d1
      < 0x007688ec      6004           bra.b 0x7688f2
      > 0x007688ee      01301000       btst.l d0, (a0, d1.w)
      < 0x007688f2      6706           beq.b 0x7688fa
          0x007688f4      b046           cmp.w d6, d0
      < 0x007688f6      66000096       bne.w 0x76898e
      > 0x007688fa      7e01           moveq 0x1, d7
      > 0x007688fc      4a07           tst.b d7
     < 0x007688fe      673e           beq.b 0x76893e
        0x00768900      b8c5           cmpa.w d5, a4
    < 0x00768902      673a           beq.b 0x76893e
       0x00768904      b9ecfffc       cmpa.l -0x4(a4), a4
   < 0x00768908      6702           beq.b 0x76890c
      0x0076890a      4e4d           trap 0xd
   > 0x0076890c      302c0010       move.w 0x10(a4), d0
       0x00768910      2049           movea.l a1, a0
       0x00768912      3200           move.w d0, d1
       0x00768914      e649           lsr.w 0x3, d1
       0x00768916      b242           cmp.w d2, d1
   < 0x00768918      6d04           blt.b 0x76891e
      0x0076891a      7200           moveq 0x0, d1
  < 0x0076891c      6004           bra.b 0x768922
  > 0x0076891e      01301000       btst.l d0, (a0, d1.w)
  < 0x00768922      6604           bne.b 0x768928
      0x00768924      b046           cmp.w d6, d0
  < 0x00768926      6604           bne.b 0x76892c
  > 0x00768928      7e00           moveq 0x0, d7
  < 0x0076892a      6010           bra.b 0x76893c
  > 0x0076892c      282c0038       move.l 0x38(a4), d4
      0x00768930      2612           move.l (a2), d3
      0x00768932      4e93           jsr (a3)                    ; fcn.0000000c
      0x00768934      29440038       move.l d4, 0x38(a4)
      0x00768938      286c0004       movea.l 0x4(a4), a4
   < 0x0076893c      60be           bra.b 0x7688fc
    > 0x0076893e      206e000c       movea.l 0xc(a6), a0
          0x00768942      b1e8fffc       cmpa.l -0x4(a0), a0
      < 0x00768946      6702           beq.b 0x76894a
         0x00768948      4e4d           trap 0xd
      > 0x0076894a      2850           movea.l (a0), a4
          0x0076894c      7e01           moveq 0x1, d7
      > 0x0076894e      4a07           tst.b d7
     < 0x00768950      673c           beq.b 0x76898e
        0x00768952      b8c5           cmpa.w d5, a4
    < 0x00768954      6738           beq.b 0x76898e
       0x00768956      b9ecfffc       cmpa.l -0x4(a4), a4
   < 0x0076895a      6702           beq.b 0x76895e
      0x0076895c      4e4d           trap 0xd
   > 0x0076895e      302c0010       move.w 0x10(a4), d0
       0x00768962      2049           movea.l a1, a0
       0x00768964      3200           move.w d0, d1
       0x00768966      e649           lsr.w 0x3, d1
       0x00768968      b242           cmp.w d2, d1
   < 0x0076896a      6d04           blt.b 0x768970
      0x0076896c      7200           moveq 0x0, d1
  < 0x0076896e      6004           bra.b 0x768974
  > 0x00768970      01301000       btst.l d0, (a0, d1.w)
  < 0x00768974      6604           bne.b 0x76897a
      0x00768976      b046           cmp.w d6, d0
  < 0x00768978      6604           bne.b 0x76897e
  > 0x0076897a      7e00           moveq 0x0, d7
  < 0x0076897c      600e           bra.b 0x76898c
  > 0x0076897e      282c0038       move.l 0x38(a4), d4
      0x00768982      2612           move.l (a2), d3
      0x00768984      4e93           jsr (a3)                    ; fcn.0000000c
      0x00768986      29440038       move.l d4, 0x38(a4)
      0x0076898a      2854           movea.l (a4), a4
   < 0x0076898c      60c0           bra.b 0x76894e
    > 0x0076898e      20790086e6e8   movea.l 0x86e6e8, a0
           0x00768994      b1e8fffc       cmpa.l -0x4(a0), a0
       < 0x00768998      6702           beq.b 0x76899c
          0x0076899a      4e4d           trap 0xd
       > 0x0076899c      11450023       move.b d5, 0x23(a0)
           0x007689a0      4cdf1fff       movem.l (a7)+, d0-d7/a0-a4
           0x007689a4      4e5e           unlk a6
           0x007689a6      4e75           rts
            ; CALL XREFS from MENUTYPECOM.upd_word_kern @ 0x768a2e, 0x768a90, 0x768ae4
            ; CALL XREF from MENUTYPECOM.upd_line_kern @ 0x768b54
 66: MENUTYPECOM.upd_char_kern ();
           0x007689a8      4e56fff0       link.w a6, 0xfff0
           0x007689ac      bfd5           cmpa.l (a5), a7
       < 0x007689ae      6206           bhi.b 0x7689b6
          0x007689b0      44fc0002       move.w 0x2, ccr
          0x007689b4      4e76           trapv
       > 0x007689b6      defc0010       adda.w 0x10, a7
           0x007689ba      48e78080       movem.l d0/a0, -(a7)
           0x007689be      206e000c       movea.l 0xc(a6), a0
           0x007689c2      b1e8fffc       cmpa.l -0x4(a0), a0
       < 0x007689c6      6702           beq.b 0x7689ca
          0x007689c8      4e4d           trap 0xd
       > 0x007689ca      20280048       move.l 0x48(a0), d0
           0x007689ce      d0ae0008       add.l 0x8(a6), d0
           0x007689d2      21400048       move.l d0, 0x48(a0)
           0x007689d6      20280044       move.l 0x44(a0), d0
           0x007689da      d0ae0008       add.l 0x8(a6), d0
           0x007689de      21400044       move.l d0, 0x44(a0)
           0x007689e2      4cdf0101       movem.l (a7)+, d0/a0
           0x007689e6      4e5e           unlk a6
           0x007689e8      4e75           rts
 286: MENUTYPECOM.upd_word_kern ();
           0x007689ea      4e56ffba       link.w a6, 0xffba
           0x007689ee      bfd5           cmpa.l (a5), a7
       < 0x007689f0      6206           bhi.b 0x7689f8
          0x007689f2      44fc0002       move.w 0x2, ccr
          0x007689f6      4e76           trapv
       > 0x007689f8      defc0040       adda.w 0x40, a7
           0x007689fc      48e7f9f8       movem.l d0-d4/d7/a0-a4, -(a7)
           0x00768a00      43f90086e7e0   lea.l 0x86e7e0, a1
           0x00768a06      45ee000c       lea.l 0xc(a6), a2
           0x00768a0a      47ee0008       lea.l 0x8(a6), a3
           0x00768a0e      7420           moveq 0x20, d2
           0x00768a10      7601           moveq 0x1, d3
           0x00768a12      383c0404       move.w 0x404, d4
           0x00768a16      2052           movea.l (a2), a0
           0x00768a18      b1e8fffc       cmpa.l -0x4(a0), a0
       < 0x00768a1c      6702           beq.b 0x768a20
          0x00768a1e      4e4d           trap 0xd
       > 0x00768a20      28680004       movea.l 0x4(a0), a4
           0x00768a24      4a28000e       tst.b 0xe(a0)
       < 0x00768a28      660a           bne.b 0x768a34
          0x00768a2a      2f12           move.l (a2), -(a7)
          0x00768a2c      2f13           move.l (a3), -(a7)
          0x00768a2e      4ebaff78       jsr MENUTYPECOM.upd_char_kern(pc)
          0x00768a32      504f           addq.w 0x8, a7
       > 0x00768a34      30280010       move.w 0x10(a0), d0
           0x00768a38      2049           movea.l a1, a0
           0x00768a3a      3200           move.w d0, d1
           0x00768a3c      e649           lsr.w 0x3, d1
           0x00768a3e      b242           cmp.w d2, d1
       < 0x00768a40      6d04           blt.b 0x768a46
          0x00768a42      7200           moveq 0x0, d1
      < 0x00768a44      6004           bra.b 0x768a4a
      > 0x00768a46      01301000       btst.l d0, (a0, d1.w)
      < 0x00768a4a      660000a2       bne.w 0x768aee
          0x00768a4e      b044           cmp.w d4, d0
      < 0x00768a50      6700009c       beq.w 0x768aee
         0x00768a54      7e01           moveq 0x1, d7
     > 0x00768a56      4a07           tst.b d7
    < 0x00768a58      6742           beq.b 0x768a9c
       0x00768a5a      b8c3           cmpa.w d3, a4
   < 0x00768a5c      673e           beq.b 0x768a9c
      0x00768a5e      b9ecfffc       cmpa.l -0x4(a4), a4
  < 0x00768a62      6702           beq.b 0x768a66
     0x00768a64      4e4d           trap 0xd
  > 0x00768a66      302c0010       move.w 0x10(a4), d0
      0x00768a6a      2049           movea.l a1, a0
      0x00768a6c      3200           move.w d0, d1
      0x00768a6e      e649           lsr.w 0x3, d1
      0x00768a70      b242           cmp.w d2, d1
  < 0x00768a72      6d04           blt.b 0x768a78
     0x00768a74      7200           moveq 0x0, d1
 < 0x00768a76      6004           bra.b 0x768a7c
 > 0x00768a78      01301000       btst.l d0, (a0, d1.w)
 < 0x00768a7c      6604           bne.b 0x768a82
     0x00768a7e      b044           cmp.w d4, d0
 < 0x00768a80      6604           bne.b 0x768a86
 > 0x00768a82      7e00           moveq 0x0, d7
 < 0x00768a84      6014           bra.b 0x768a9a
 > 0x00768a86      4a2c000e       tst.b 0xe(a4)
 < 0x00768a8a      660a           bne.b 0x768a96
    0x00768a8c      2f0c           move.l a4, -(a7)
    0x00768a8e      2f13           move.l (a3), -(a7)
    0x00768a90      4ebaff16       jsr MENUTYPECOM.upd_char_kern(pc)
    0x00768a94      504f           addq.w 0x8, a7
 > 0x00768a96      286c0004       movea.l 0x4(a4), a4
  < 0x00768a9a      60ba           bra.b 0x768a56
   > 0x00768a9c      2052           movea.l (a2), a0
         0x00768a9e      b1e8fffc       cmpa.l -0x4(a0), a0
     < 0x00768aa2      6702           beq.b 0x768aa6
        0x00768aa4      4e4d           trap 0xd
     > 0x00768aa6      2850           movea.l (a0), a4
         0x00768aa8      7e01           moveq 0x1, d7
     > 0x00768aaa      4a07           tst.b d7
    < 0x00768aac      6740           beq.b 0x768aee
       0x00768aae      b8c3           cmpa.w d3, a4
   < 0x00768ab0      673c           beq.b 0x768aee
      0x00768ab2      b9ecfffc       cmpa.l -0x4(a4), a4
  < 0x00768ab6      6702           beq.b 0x768aba
     0x00768ab8      4e4d           trap 0xd
  > 0x00768aba      302c0010       move.w 0x10(a4), d0
      0x00768abe      2049           movea.l a1, a0
      0x00768ac0      3200           move.w d0, d1
      0x00768ac2      e649           lsr.w 0x3, d1
      0x00768ac4      b242           cmp.w d2, d1
  < 0x00768ac6      6d04           blt.b 0x768acc
     0x00768ac8      7200           moveq 0x0, d1
 < 0x00768aca      6004           bra.b 0x768ad0
 > 0x00768acc      01301000       btst.l d0, (a0, d1.w)
 < 0x00768ad0      6604           bne.b 0x768ad6
     0x00768ad2      b044           cmp.w d4, d0
 < 0x00768ad4      6604           bne.b 0x768ada
 > 0x00768ad6      7e00           moveq 0x0, d7
 < 0x00768ad8      6012           bra.b 0x768aec
 > 0x00768ada      4a2c000e       tst.b 0xe(a4)
 < 0x00768ade      660a           bne.b 0x768aea
    0x00768ae0      2f0c           move.l a4, -(a7)
    0x00768ae2      2f13           move.l (a3), -(a7)
    0x00768ae4      4ebafec2       jsr MENUTYPECOM.upd_char_kern(pc)
    0x00768ae8      504f           addq.w 0x8, a7
 > 0x00768aea      2854           movea.l (a4), a4
  < 0x00768aec      60bc           bra.b 0x768aaa
   > 0x00768aee      20790086e6e8   movea.l 0x86e6e8, a0
           0x00768af4      b1e8fffc       cmpa.l -0x4(a0), a0
       < 0x00768af8      6702           beq.b 0x768afc
          0x00768afa      4e4d           trap 0xd
       > 0x00768afc      11430023       move.b d3, 0x23(a0)
           0x00768b00      4cdf1f9f       movem.l (a7)+, d0-d4/d7/a0-a4
           0x00768b04      4e5e           unlk a6
           0x00768b06      4e75           rts
            ; CALL XREF from MENUTYPECOM.upd_page_kern @ 0x768bc8
 148: MENUTYPECOM.upd_line_kern ();
           0x00768b08      4e56ffe0       link.w a6, 0xffe0
           0x00768b0c      bfd5           cmpa.l (a5), a7
       < 0x00768b0e      6206           bhi.b 0x768b16
          0x00768b10      44fc0002       move.w 0x2, ccr
          0x00768b14      4e76           trapv
       > 0x00768b16      defc001c       adda.w 0x1c, a7
           0x00768b1a      48e7c088       movem.l d0-d1/a0/a4, -(a7)
           0x00768b1e      7201           moveq 0x1, d1
           0x00768b20      206e000c       movea.l 0xc(a6), a0
           0x00768b24      b1e8fffc       cmpa.l -0x4(a0), a0
       < 0x00768b28      6702           beq.b 0x768b2c
          0x00768b2a      4e4d           trap 0xd
       > 0x00768b2c      20680008       movea.l 0x8(a0), a0
           0x00768b30      b1e8fffc       cmpa.l -0x4(a0), a0
       < 0x00768b34      6702           beq.b 0x768b38
          0x00768b36      4e4d           trap 0xd
       > 0x00768b38      28680004       movea.l 0x4(a0), a4
       > 0x00768b3c      b8c1           cmpa.w d1, a4
      < 0x00768b3e      6720           beq.b 0x768b60
         0x00768b40      b9ecfffc       cmpa.l -0x4(a4), a4
     < 0x00768b44      6702           beq.b 0x768b48
        0x00768b46      4e4d           trap 0xd
     > 0x00768b48      4a2c000e       tst.b 0xe(a4)
     < 0x00768b4c      660c           bne.b 0x768b5a
        0x00768b4e      2f0c           move.l a4, -(a7)
        0x00768b50      2f2e0008       move.l 0x8(a6), -(a7)
        0x00768b54      4ebafe52       jsr MENUTYPECOM.upd_char_kern(pc)
        0x00768b58      504f           addq.w 0x8, a7
     > 0x00768b5a      286c0004       movea.l 0x4(a4), a4
      < 0x00768b5e      60dc           bra.b 0x768b3c
      > 0x00768b60      206e000c       movea.l 0xc(a6), a0
           0x00768b64      b1e8fffc       cmpa.l -0x4(a0), a0
       < 0x00768b68      6702           beq.b 0x768b6c
          0x00768b6a      4e4d           trap 0xd
       > 0x00768b6c      3028001e       move.w 0x1e(a0), d0
           0x00768b70      48c0           ext.l d0
           0x00768b72      d0ae0008       add.l 0x8(a6), d0
           0x00768b76      0480ffff8000   subi.l 0xffff8000, d0
           0x00768b7c      0c800000ffff   cmpi.l 0xffff, d0
       < 0x00768b82      6302           bls.b 0x768b86
          0x00768b84      4e4f           trap 0xf
       > 0x00768b86      0680ffff8000   addi.l 0xffff8000, d0
           0x00768b8c      3140001e       move.w d0, 0x1e(a0)
           0x00768b90      11410023       move.b d1, 0x23(a0)
           0x00768b94      4cdf1103       movem.l (a7)+, d0-d1/a0/a4
           0x00768b98      4e5e           unlk a6
           0x00768b9a      4e75           rts
 70: MENUTYPECOM.upd_page_kern ();
           0x00768b9c      4e56ffe8       link.w a6, 0xffe8
           0x00768ba0      bfd5           cmpa.l (a5), a7
       < 0x00768ba2      6206           bhi.b 0x768baa
          0x00768ba4      44fc0002       move.w 0x2, ccr
          0x00768ba8      4e76           trapv
       > 0x00768baa      defc0018       adda.w 0x18, a7
           0x00768bae      48e700c0       movem.l a0-a1, -(a7)
           0x00768bb2      43ec0008       lea.l 0x8(a4), a1
           0x00768bb6      22ae000c       move.l 0xc(a6), (a1)
       > 0x00768bba      2051           movea.l (a1), a0
          0x00768bbc      b0fc0001       cmpa.w 0x1, a0
      < 0x00768bc0      6718           beq.b 0x768bda
         0x00768bc2      2f08           move.l a0, -(a7)
         0x00768bc4      2f2e0008       move.l 0x8(a6), -(a7)
         0x00768bc8      4ebaff3e       jsr MENUTYPECOM.upd_line_kern(pc)
         0x00768bcc      504f           addq.w 0x8, a7
         0x00768bce      b1e8fffc       cmpa.l -0x4(a0), a0
     < 0x00768bd2      6702           beq.b 0x768bd6
        0x00768bd4      4e4d           trap 0xd
     > 0x00768bd6      2290           move.l (a0), (a1)
      < 0x00768bd8      60e0           bra.b 0x768bba
      > 0x00768bda      4cdf0300       movem.l (a7)+, a0-a1
           0x00768bde      4e5e           unlk a6
           0x00768be0      4e75           rts
            ; CALL XREF from MENUTYPECOM.upd_line_space @ 0x768c60
 76: MENUTYPECOM.upd_char_space ();
           0x00768be2      4e56fff0       link.w a6, 0xfff0
           0x00768be6      bfd5           cmpa.l (a5), a7
       < 0x00768be8      6206           bhi.b 0x768bf0
          0x00768bea      44fc0002       move.w 0x2, ccr
          0x00768bee      4e76           trapv
       > 0x00768bf0      defc0010       adda.w 0x10, a7
           0x00768bf4      48e78080       movem.l d0/a0, -(a7)
           0x00768bf8      206e000c       movea.l 0xc(a6), a0
           0x00768bfc      b1e8fffc       cmpa.l -0x4(a0), a0
       < 0x00768c00      6702           beq.b 0x768c04
          0x00768c02      4e4d           trap 0xd
       > 0x00768c04      30280010       move.w 0x10(a0), d0
           0x00768c08      0c400020       cmpi.w 0x20, d0
       < 0x00768c0c      6618           bne.b 0x768c26
          0x00768c0e      20280048       move.l 0x48(a0), d0
          0x00768c12      d0ae0008       add.l 0x8(a6), d0
          0x00768c16      21400048       move.l d0, 0x48(a0)
          0x00768c1a      20280044       move.l 0x44(a0), d0
          0x00768c1e      d0ae0008       add.l 0x8(a6), d0
          0x00768c22      21400044       move.l d0, 0x44(a0)
       > 0x00768c26      4cdf0101       movem.l (a7)+, d0/a0
           0x00768c2a      4e5e           unlk a6
           0x00768c2c      4e75           rts
            ; CALL XREF from MENUTYPECOM.upd_page_space @ 0x768cdc
 130: MENUTYPECOM.upd_line_space ();
           0x00768c2e      4e56ffe0       link.w a6, 0xffe0
           0x00768c32      bfd5           cmpa.l (a5), a7
       < 0x00768c34      6206           bhi.b 0x768c3c
          0x00768c36      44fc0002       move.w 0x2, ccr
          0x00768c3a      4e76           trapv
       > 0x00768c3c      defc001c       adda.w 0x1c, a7
           0x00768c40      48e7c088       movem.l d0-d1/a0/a4, -(a7)
           0x00768c44      7201           moveq 0x1, d1
           0x00768c46      206e000c       movea.l 0xc(a6), a0
           0x00768c4a      b1e8fffc       cmpa.l -0x4(a0), a0
       < 0x00768c4e      6702           beq.b 0x768c52
          0x00768c50      4e4d           trap 0xd
       > 0x00768c52      28680008       movea.l 0x8(a0), a4
       > 0x00768c56      b8c1           cmpa.w d1, a4
      < 0x00768c58      671a           beq.b 0x768c74
         0x00768c5a      2f0c           move.l a4, -(a7)
         0x00768c5c      2f2e0008       move.l 0x8(a6), -(a7)
         0x00768c60      4ebaff80       jsr MENUTYPECOM.upd_char_space(pc)
         0x00768c64      504f           addq.w 0x8, a7
         0x00768c66      b9ecfffc       cmpa.l -0x4(a4), a4
     < 0x00768c6a      6702           beq.b 0x768c6e
        0x00768c6c      4e4d           trap 0xd
     > 0x00768c6e      286c0004       movea.l 0x4(a4), a4
      < 0x00768c72      60e2           bra.b 0x768c56
      > 0x00768c74      206e000c       movea.l 0xc(a6), a0
           0x00768c78      b1e8fffc       cmpa.l -0x4(a0), a0
       < 0x00768c7c      6702           beq.b 0x768c80
          0x00768c7e      4e4d           trap 0xd
       > 0x00768c80      30280020       move.w 0x20(a0), d0
           0x00768c84      48c0           ext.l d0
           0x00768c86      d0ae0008       add.l 0x8(a6), d0
           0x00768c8a      0480ffff8000   subi.l 0xffff8000, d0
           0x00768c90      0c800000ffff   cmpi.l 0xffff, d0
       < 0x00768c96      6302           bls.b 0x768c9a
          0x00768c98      4e4f           trap 0xf
       > 0x00768c9a      0680ffff8000   addi.l 0xffff8000, d0
           0x00768ca0      31400020       move.w d0, 0x20(a0)
           0x00768ca4      11410023       move.b d1, 0x23(a0)
           0x00768ca8      4cdf1103       movem.l (a7)+, d0-d1/a0/a4
           0x00768cac      4e5e           unlk a6
           0x00768cae      4e75           rts
 70: MENUTYPECOM.upd_page_space ();
           0x00768cb0      4e56ffe8       link.w a6, 0xffe8
           0x00768cb4      bfd5           cmpa.l (a5), a7
       < 0x00768cb6      6206           bhi.b 0x768cbe
          0x00768cb8      44fc0002       move.w 0x2, ccr
          0x00768cbc      4e76           trapv
       > 0x00768cbe      defc0018       adda.w 0x18, a7
           0x00768cc2      48e700c0       movem.l a0-a1, -(a7)
           0x00768cc6      43ec0008       lea.l 0x8(a4), a1
           0x00768cca      22ae000c       move.l 0xc(a6), (a1)
       > 0x00768cce      2051           movea.l (a1), a0
          0x00768cd0      b0fc0001       cmpa.w 0x1, a0
      < 0x00768cd4      6718           beq.b 0x768cee
         0x00768cd6      2f08           move.l a0, -(a7)
         0x00768cd8      2f2e0008       move.l 0x8(a6), -(a7)
         0x00768cdc      4ebaff50       jsr MENUTYPECOM.upd_line_space(pc)
         0x00768ce0      504f           addq.w 0x8, a7
         0x00768ce2      b1e8fffc       cmpa.l -0x4(a0), a0
     < 0x00768ce6      6702           beq.b 0x768cea
        0x00768ce8      4e4d           trap 0xd
     > 0x00768cea      2290           move.l (a0), (a1)
      < 0x00768cec      60e0           bra.b 0x768cce
      > 0x00768cee      4cdf0300       movem.l (a7)+, a0-a1
           0x00768cf2      4e5e           unlk a6
           0x00768cf4      4e75           rts
 268: MENUTYPECOM.upd_word_jump ();
           0x00768cf6      4e56ffc6       link.w a6, 0xffc6
           0x00768cfa      bfd5           cmpa.l (a5), a7
       < 0x00768cfc      6206           bhi.b 0x768d04
          0x00768cfe      44fc0002       move.w 0x2, ccr
          0x00768d02      4e76           trapv
       > 0x00768d04      defc0034       adda.w 0x34, a7
           0x00768d08      48e7f9e8       movem.l d0-d4/d7/a0-a2/a4, -(a7)
           0x00768d0c      43f90086e7e0   lea.l 0x86e7e0, a1
           0x00768d12      45ee0008       lea.l 0x8(a6), a2
           0x00768d16      7420           moveq 0x20, d2
           0x00768d18      7601           moveq 0x1, d3
           0x00768d1a      383c0404       move.w 0x404, d4
           0x00768d1e      206e000c       movea.l 0xc(a6), a0
           0x00768d22      b1e8fffc       cmpa.l -0x4(a0), a0
       < 0x00768d26      6702           beq.b 0x768d2a
          0x00768d28      4e4d           trap 0xd
       > 0x00768d2a      28680004       movea.l 0x4(a0), a4
           0x00768d2e      2028004c       move.l 0x4c(a0), d0
           0x00768d32      d092           add.l (a2), d0
           0x00768d34      2140004c       move.l d0, 0x4c(a0)
           0x00768d38      30280010       move.w 0x10(a0), d0
           0x00768d3c      2049           movea.l a1, a0
           0x00768d3e      3200           move.w d0, d1
           0x00768d40      e649           lsr.w 0x3, d1
           0x00768d42      b242           cmp.w d2, d1
       < 0x00768d44      6d04           blt.b 0x768d4a
          0x00768d46      7200           moveq 0x0, d1
      < 0x00768d48      6004           bra.b 0x768d4e
      > 0x00768d4a      01301000       btst.l d0, (a0, d1.w)
      < 0x00768d4e      66000098       bne.w 0x768de8
          0x00768d52      b044           cmp.w d4, d0
      < 0x00768d54      67000092       beq.w 0x768de8
         0x00768d58      7e01           moveq 0x1, d7
     > 0x00768d5a      4a07           tst.b d7
    < 0x00768d5c      673c           beq.b 0x768d9a
       0x00768d5e      b8c3           cmpa.w d3, a4
   < 0x00768d60      6738           beq.b 0x768d9a
      0x00768d62      b9ecfffc       cmpa.l -0x4(a4), a4
  < 0x00768d66      6702           beq.b 0x768d6a
     0x00768d68      4e4d           trap 0xd
  > 0x00768d6a      302c0010       move.w 0x10(a4), d0
      0x00768d6e      2049           movea.l a1, a0
      0x00768d70      3200           move.w d0, d1
      0x00768d72      e649           lsr.w 0x3, d1
      0x00768d74      b242           cmp.w d2, d1
  < 0x00768d76      6d04           blt.b 0x768d7c
     0x00768d78      7200           moveq 0x0, d1
 < 0x00768d7a      6004           bra.b 0x768d80
 > 0x00768d7c      01301000       btst.l d0, (a0, d1.w)
 < 0x00768d80      6604           bne.b 0x768d86
     0x00768d82      b044           cmp.w d4, d0
 < 0x00768d84      6604           bne.b 0x768d8a
 > 0x00768d86      7e00           moveq 0x0, d7
 < 0x00768d88      600e           bra.b 0x768d98
 > 0x00768d8a      202c004c       move.l 0x4c(a4), d0
     0x00768d8e      d092           add.l (a2), d0
     0x00768d90      2940004c       move.l d0, 0x4c(a4)
     0x00768d94      286c0004       movea.l 0x4(a4), a4
  < 0x00768d98      60c0           bra.b 0x768d5a
   > 0x00768d9a      206e000c       movea.l 0xc(a6), a0
         0x00768d9e      b1e8fffc       cmpa.l -0x4(a0), a0
     < 0x00768da2      6702           beq.b 0x768da6
        0x00768da4      4e4d           trap 0xd
     > 0x00768da6      2850           movea.l (a0), a4
         0x00768da8      7e01           moveq 0x1, d7
     > 0x00768daa      4a07           tst.b d7
    < 0x00768dac      673a           beq.b 0x768de8
       0x00768dae      b8c3           cmpa.w d3, a4
   < 0x00768db0      6736           beq.b 0x768de8
      0x00768db2      b9ecfffc       cmpa.l -0x4(a4), a4
  < 0x00768db6      6702           beq.b 0x768dba
     0x00768db8      4e4d           trap 0xd
  > 0x00768dba      302c0010       move.w 0x10(a4), d0
      0x00768dbe      2049           movea.l a1, a0
      0x00768dc0      3200           move.w d0, d1
      0x00768dc2      e649           lsr.w 0x3, d1
      0x00768dc4      b242           cmp.w d2, d1
  < 0x00768dc6      6d04           blt.b 0x768dcc
     0x00768dc8      7200           moveq 0x0, d1
 < 0x00768dca      6004           bra.b 0x768dd0
 > 0x00768dcc      01301000       btst.l d0, (a0, d1.w)
 < 0x00768dd0      6604           bne.b 0x768dd6
     0x00768dd2      b044           cmp.w d4, d0
 < 0x00768dd4      6604           bne.b 0x768dda
 > 0x00768dd6      7e00           moveq 0x0, d7
 < 0x00768dd8      600c           bra.b 0x768de6
 > 0x00768dda      202c004c       move.l 0x4c(a4), d0
     0x00768dde      d092           add.l (a2), d0
     0x00768de0      2940004c       move.l d0, 0x4c(a4)
     0x00768de4      2854           movea.l (a4), a4
  < 0x00768de6      60c2           bra.b 0x768daa
   > 0x00768de8      20790086e6e8   movea.l 0x86e6e8, a0
           0x00768dee      b1e8fffc       cmpa.l -0x4(a0), a0
       < 0x00768df2      6702           beq.b 0x768df6
          0x00768df4      4e4d           trap 0xd
       > 0x00768df6      11430023       move.b d3, 0x23(a0)
           0x00768dfa      4cdf179f       movem.l (a7)+, d0-d4/d7/a0-a2/a4
           0x00768dfe      4e5e           unlk a6
           0x00768e00      4e75           rts
 62: MENUTYPECOM.update_from_men ();
           0x00768e02      4e56ff88       link.w a6, 0xff88
           0x00768e06      bfd5           cmpa.l (a5), a7
       < 0x00768e08      6206           bhi.b 0x768e10
          0x00768e0a      44fc0002       move.w 0x2, ccr
          0x00768e0e      4e76           trapv
       > 0x00768e10      defc004c       adda.w 0x4c, a7
           0x00768e14      48e7fff8       movem.l d0-d7/a0-a4, -(a7)
           0x00768e18      43f90086e6e8   lea.l 0x86e6e8, a1
           0x00768e1e      45f80000       lea.l 0x0, a2
           0x00768e22      47f90086e680   lea.l 0x86e680, a3
           0x00768e28      74f8           moveq 0xf8, d2
           0x00768e2a      1013           move.b (a3), d0
           0x00768e2c      4880           ext.w d0
           0x00768e2e      0c400015       cmpi.w 0x15, d0
       < 0x00768e32      6200066a       bhi.w 0x76949e
          0x00768e36      d040           add.w d0, d0
          0x00768e38      303b0006       move.w 0x768e40(pc, d0.w), d0
          0x00768e3c      4efb0002       jmp 0x768e40(pc, d0.w)
           0x00768e40      065e002c       addi.w 0x2c, (a6)+
           0x00768e44      002c010e010e   ori.b 0xe, 0x10e(a4)
           0x00768e4a      01ba01ba       
           0x00768e4b      ba01           cmp.b d1, d5
           0x00768e4d      ba03           cmp.b d3, d5
           0x00768e4f      5403           addq.b 0x2, d3
           0x00768e51      5403           addq.b 0x2, d3
           0x00768e53      5403           addq.b 0x2, d3
           0x00768e55      5404           addq.b 0x2, d4
           0x00768e57      08040804       
           0x00768e58      04080408       
           0x00768e59      08040804       
           0x00768e5a      04080408       
           0x00768e5b      08040805       
           0x00768e5c      04080506       
           0x00768e5d      08050605       
           0x00768e5e      0506           btst.l d2, d6
           0x00768e60      0506           btst.l d2, d6
           0x00768e62      02680268058a   andi.w 0x268, 0x58a(a0)
           0x00768e68      058a0652       movep.w d2, 0x652(a2)
           0x00768e6c      594f           subq.w 0x4, a7
           0x00768e6e      3f390086e7ae   move.w 0x86e7ae, -(a7)
           0x00768e74      4eb90048d992   jsr MENU2COM.get_numeric_val
           0x00768e7a      544f           addq.w 0x2, a7
           0x00768e7c      2d57fff8       move.l (a7), -0x8(a6)
           0x00768e80      3f390086e7b0   move.w 0x86e7b0, -(a7)
           0x00768e86      4eb90048d992   jsr MENU2COM.get_numeric_val
           0x00768e8c      544f           addq.w 0x2, a7
           0x00768e8e      2d5ffffc       move.l (a7)+, -0x4(a6)
           0x00768e92      4a390086e686   tst.b 0x86e686
       < 0x00768e98      670a           beq.b 0x768ea4
          0x00768e9a      486efff8       pea.l -0x8(a6)
          0x00768e9e      4ebaaaf8       jsr MENUTYPECOM.unscale_point(pc)
          0x00768ea2      584f           addq.w 0x4, a7
       > 0x00768ea4      7808           moveq 0x8, d4
           0x00768ea6      4eb900408686   jsr fcn.00408686
           0x00768eac      2f04           move.l d4, -(a7)
           0x00768eae      262efff8       move.l -0x8(a6), d3
           0x00768eb2      4eb900407e92   jsr fcn.00407e92
           0x00768eb8      4eb900408224   jsr fcn.00408224
           0x00768ebe      30390086e6c4   move.w 0x86e6c4, d0
           0x00768ec4      48c0           ext.l d0
           0x00768ec6      d880           add.l d0, d4
           0x00768ec8      2051           movea.l (a1), a0
           0x00768eca      b1e8fffc       cmpa.l -0x4(a0), a0
       < 0x00768ece      6702           beq.b 0x768ed2
          0x00768ed0      4e4d           trap 0xd
       > 0x00768ed2      30280010       move.w 0x10(a0), d0
           0x00768ed6      48c0           ext.l d0
           0x00768ed8      4480           neg.l d0
           0x00768eda      d084           add.l d4, d0
           0x00768edc      2e00           move.l d0, d7
           0x00768ede      282efffc       move.l -0x4(a6), d4
           0x00768ee2      2617           move.l (a7), d3
           0x00768ee4      4eb900407e92   jsr fcn.00407e92
           0x00768eea      4eb900408224   jsr fcn.00408224
           0x00768ef0      30390086e6c6   move.w 0x86e6c6, d0
           0x00768ef6      48c0           ext.l d0
           0x00768ef8      4484           neg.l d4
           0x00768efa      d880           add.l d0, d4
           0x00768efc      584f           addq.w 0x4, a7
           0x00768efe      30280012       move.w 0x12(a0), d0
           0x00768f02      48c0           ext.l d0
           0x00768f04      4480           neg.l d0
           0x00768f06      d084           add.l d4, d0
           0x00768f08      2c00           move.l d0, d6
           0x00768f0a      4a2e0008       tst.b 0x8(a6)
       < 0x00768f0e      6704           beq.b 0x768f14
          0x00768f10      ce82           and.l d2, d7
          0x00768f12      cc82           and.l d2, d6
       > 0x00768f14      1013           move.b (a3), d0
           0x00768f16      0c000002       cmpi.b 0x2, d0
       < 0x00768f1a      6610           bne.b 0x768f2c
          0x00768f1c      2f11           move.l (a1), -(a7)
          0x00768f1e      2f07           move.l d7, -(a7)
          0x00768f20      2f06           move.l d6, -(a7)
          0x00768f22      4ebaf7f0       jsr MENUTYPECOM.upd_line_pos(pc)
          0x00768f26      defc000c       adda.w 0xc, a7
      < 0x00768f2a      601e           bra.b 0x768f4a
      > 0x00768f2c      2f390086e6e4   move.l 0x86e6e4, -(a7)
          0x00768f32      2f07           move.l d7, -(a7)
          0x00768f34      2f06           move.l d6, -(a7)
          0x00768f36      4852           pea.l (a2)
          0x00768f38      4852           pea.l (a2)
          0x00768f3a      49eeffd0       lea.l -0x30(a6), a4
          0x00768f3e      4ebaf842       jsr MENUTYPECOM.upd_page_pos(pc)
          0x00768f42      defc0014       adda.w 0x14, a7
          0x00768f46      286effd0       movea.l -0x30(a6), a4
      < 0x00768f4a      60000552       bra.w 0x76949e
          0x00768f4e      594f           subq.w 0x4, a7
          0x00768f50      3f390086e7ae   move.w 0x86e7ae, -(a7)
          0x00768f56      4eb90048d992   jsr MENU2COM.get_numeric_val
          0x00768f5c      544f           addq.w 0x2, a7
          0x00768f5e      2d5ffff8       move.l (a7)+, -0x8(a6)
          0x00768f62      7800           moveq 0x0, d4
          0x00768f64      4eb900408686   jsr fcn.00408686
          0x00768f6a      2d44fffc       move.l d4, -0x4(a6)
          0x00768f6e      4a390086e686   tst.b 0x86e686
      < 0x00768f74      670a           beq.b 0x768f80
         0x00768f76      486efff8       pea.l -0x8(a6)
         0x00768f7a      4ebaaa1c       jsr MENUTYPECOM.unscale_point(pc)
         0x00768f7e      584f           addq.w 0x4, a7
      > 0x00768f80      7808           moveq 0x8, d4
          0x00768f82      4eb900408686   jsr fcn.00408686
          0x00768f88      262efff8       move.l -0x8(a6), d3
          0x00768f8c      4eb900407e92   jsr fcn.00407e92
          0x00768f92      4eb900408224   jsr fcn.00408224
          0x00768f98      30390086e6c4   move.w 0x86e6c4, d0
          0x00768f9e      48c0           ext.l d0
          0x00768fa0      d880           add.l d0, d4
          0x00768fa2      2051           movea.l (a1), a0
          0x00768fa4      b1e8fffc       cmpa.l -0x4(a0), a0
      < 0x00768fa8      6702           beq.b 0x768fac
         0x00768faa      4e4d           trap 0xd
      > 0x00768fac      30280010       move.w 0x10(a0), d0
          0x00768fb0      48c0           ext.l d0
          0x00768fb2      4480           neg.l d0
          0x00768fb4      d084           add.l d4, d0
          0x00768fb6      2e00           move.l d0, d7
          0x00768fb8      4a2e0008       tst.b 0x8(a6)
      < 0x00768fbc      6702           beq.b 0x768fc0
         0x00768fbe      ce82           and.l d2, d7
      > 0x00768fc0      1013           move.b (a3), d0
          0x00768fc2      0c000004       cmpi.b 0x4, d0
      < 0x00768fc6      6610           bne.b 0x768fd8
         0x00768fc8      2f11           move.l (a1), -(a7)
         0x00768fca      2f07           move.l d7, -(a7)
         0x00768fcc      4852           pea.l (a2)
         0x00768fce      4ebaf744       jsr MENUTYPECOM.upd_line_pos(pc)
         0x00768fd2      defc000c       adda.w 0xc, a7
     < 0x00768fd6      601e           bra.b 0x768ff6
     > 0x00768fd8      2f390086e6e4   move.l 0x86e6e4, -(a7)
         0x00768fde      2f07           move.l d7, -(a7)
         0x00768fe0      4852           pea.l (a2)
         0x00768fe2      4852           pea.l (a2)
         0x00768fe4      4852           pea.l (a2)
         0x00768fe6      49eeffd0       lea.l -0x30(a6), a4
         0x00768fea      4ebaf796       jsr MENUTYPECOM.upd_page_pos(pc)
         0x00768fee      defc0014       adda.w 0x14, a7
         0x00768ff2      286effd0       movea.l -0x30(a6), a4
     < 0x00768ff6      600004a6       bra.w 0x76949e
         0x00768ffa      7800           moveq 0x0, d4
         0x00768ffc      4eb900408686   jsr fcn.00408686
         0x00769002      2d44fff8       move.l d4, -0x8(a6)
         0x00769006      594f           subq.w 0x4, a7
         0x00769008      3f390086e7b0   move.w 0x86e7b0, -(a7)
         0x0076900e      4eb90048d992   jsr MENU2COM.get_numeric_val
         0x00769014      544f           addq.w 0x2, a7
         0x00769016      2d5ffffc       move.l (a7)+, -0x4(a6)
         0x0076901a      4a390086e686   tst.b 0x86e686
     < 0x00769020      670a           beq.b 0x76902c
        0x00769022      486efff8       pea.l -0x8(a6)
        0x00769026      4ebaa970       jsr MENUTYPECOM.unscale_point(pc)
        0x0076902a      584f           addq.w 0x4, a7
     > 0x0076902c      7808           moveq 0x8, d4
         0x0076902e      4eb900408686   jsr fcn.00408686
         0x00769034      262efffc       move.l -0x4(a6), d3
         0x00769038      4eb900407e92   jsr fcn.00407e92
         0x0076903e      4eb900408224   jsr fcn.00408224
         0x00769044      30390086e6c6   move.w 0x86e6c6, d0
         0x0076904a      48c0           ext.l d0
         0x0076904c      4484           neg.l d4
         0x0076904e      d880           add.l d0, d4
         0x00769050      2051           movea.l (a1), a0
         0x00769052      b1e8fffc       cmpa.l -0x4(a0), a0
     < 0x00769056      6702           beq.b 0x76905a
        0x00769058      4e4d           trap 0xd
     > 0x0076905a      30280012       move.w 0x12(a0), d0
         0x0076905e      48c0           ext.l d0
         0x00769060      4480           neg.l d0
         0x00769062      d084           add.l d4, d0
         0x00769064      2c00           move.l d0, d6
         0x00769066      4a2e0008       tst.b 0x8(a6)
     < 0x0076906a      6702           beq.b 0x76906e
        0x0076906c      cc82           and.l d2, d6
     > 0x0076906e      1013           move.b (a3), d0
         0x00769070      0c000006       cmpi.b 0x6, d0
     < 0x00769074      6610           bne.b 0x769086
        0x00769076      2f11           move.l (a1), -(a7)
        0x00769078      4852           pea.l (a2)
        0x0076907a      2f06           move.l d6, -(a7)
        0x0076907c      4ebaf696       jsr MENUTYPECOM.upd_line_pos(pc)
        0x00769080      defc000c       adda.w 0xc, a7
    < 0x00769084      601e           bra.b 0x7690a4
    > 0x00769086      2f390086e6e4   move.l 0x86e6e4, -(a7)
        0x0076908c      4852           pea.l (a2)
        0x0076908e      2f06           move.l d6, -(a7)
        0x00769090      4852           pea.l (a2)
        0x00769092      4852           pea.l (a2)
        0x00769094      49eeffd0       lea.l -0x30(a6), a4
        0x00769098      4ebaf6e8       jsr MENUTYPECOM.upd_page_pos(pc)
        0x0076909c      defc0014       adda.w 0x14, a7
        0x007690a0      286effd0       movea.l -0x30(a6), a4
    < 0x007690a4      600003f8       bra.w 0x76949e
        0x007690a8      594f           subq.w 0x4, a7
        0x007690aa      3f390086e7b6   move.w 0x86e7b6, -(a7)
        0x007690b0      4eb90048d992   jsr MENU2COM.get_numeric_val
        0x007690b6      544f           addq.w 0x2, a7
        0x007690b8      7808           moveq 0x8, d4
        0x007690ba      4eb900408686   jsr fcn.00408686
        0x007690c0      2617           move.l (a7), d3
        0x007690c2      4eb900407e92   jsr fcn.00407e92
        0x007690c8      584f           addq.w 0x4, a7
        0x007690ca      26390086e682   move.l 0x86e682, d3
        0x007690d0      4eb900407b44   jsr fcn.00407b44
        0x007690d6      26390086e7d4   move.l 0x86e7d4, d3
        0x007690dc      4eb900407e92   jsr fcn.00407e92
        0x007690e2      4eb900408224   jsr fcn.00408224
        0x007690e8      2c04           move.l d4, d6
        0x007690ea      4a2e0008       tst.b 0x8(a6)
    < 0x007690ee      6702           beq.b 0x7690f2
       0x007690f0      cc82           and.l d2, d6
    > 0x007690f2      2806           move.l d6, d4
        0x007690f4      4eb900408686   jsr fcn.00408686
        0x007690fa      26390086e7d4   move.l 0x86e7d4, d3
        0x00769100      4eb900407ff8   jsr fcn.00407ff8
        0x00769106      26390086e682   move.l 0x86e682, d3
        0x0076910c      4eb900407ba8   jsr fcn.00407ba8
        0x00769112      23c40086e682   move.l d4, 0x86e682
        0x00769118      1013           move.b (a3), d0
        0x0076911a      0c000012       cmpi.b 0x12, d0
    < 0x0076911e      6620           bne.b 0x769140
       0x00769120      10390086e7de   move.b 0x86e7de, d0
       0x00769126      4880           ext.w d0
       0x00769128      013aa388       btst.l d0, 0x7634b2(pc)
   < 0x0076912c      670a           beq.b 0x769138
      0x0076912e      2f11           move.l (a1), -(a7)
      0x00769130      4852           pea.l (a2)
      0x00769132      2f06           move.l d6, -(a7)
  > 0x00769134      4852           pea.l (a2)
  < 0x00769136      6046           bra.b 0x76917e
  > 0x00769138      2f11           move.l (a1), -(a7)
      0x0076913a      2f06           move.l d6, -(a7)
      0x0076913c      4852           pea.l (a2)
  < 0x0076913e      60f4           bra.b 0x769134
    > 0x00769140      10390086e7de   move.b 0x86e7de, d0
        0x00769146      4880           ext.w d0
        0x00769148      013aa36a       btst.l d0, 0x7634b4(pc)
    < 0x0076914c      671a           beq.b 0x769168
       0x0076914e      20790086e6e4   movea.l 0x86e6e4, a0
       0x00769154      b1e8fffc       cmpa.l -0x4(a0), a0
   < 0x00769158      6702           beq.b 0x76915c
      0x0076915a      4e4d           trap 0xd
   > 0x0076915c      2f10           move.l (a0), -(a7)
       0x0076915e      4852           pea.l (a2)
       0x00769160      2f06           move.l d6, -(a7)
       0x00769162      4852           pea.l (a2)
       0x00769164      2f06           move.l d6, -(a7)
   < 0x00769166      6018           bra.b 0x769180
   > 0x00769168      20790086e6e4   movea.l 0x86e6e4, a0
       0x0076916e      b1e8fffc       cmpa.l -0x4(a0), a0
   < 0x00769172      6702           beq.b 0x769176
      0x00769174      4e4d           trap 0xd
   > 0x00769176      2f10           move.l (a0), -(a7)
       0x00769178      2f06           move.l d6, -(a7)
       0x0076917a      4852           pea.l (a2)
       0x0076917c      2f06           move.l d6, -(a7)
  > 0x0076917e      4852           pea.l (a2)
   > 0x00769180      49eeffd0       lea.l -0x30(a6), a4
        0x00769184      4ebaf5fc       jsr MENUTYPECOM.upd_page_pos(pc)
        0x00769188      defc0014       adda.w 0x14, a7
        0x0076918c      286effd0       movea.l -0x30(a6), a4
    < 0x00769190      6000030c       bra.w 0x76949e
       0x00769194      594f           subq.w 0x4, a7
       0x00769196      3f390086e7b2   move.w 0x86e7b2, -(a7)
       0x0076919c      4eb90048d992   jsr MENU2COM.get_numeric_val
       0x007691a2      544f           addq.w 0x2, a7
       0x007691a4      2c1f           move.l (a7)+, d6
       0x007691a6      1013           move.b (a3), d0
       0x007691a8      0c00000a       cmpi.b 0xa, d0
   < 0x007691ac      6718           beq.b 0x7691c6
      0x007691ae      2051           movea.l (a1), a0
      0x007691b0      b1e8fffc       cmpa.l -0x4(a0), a0
  < 0x007691b4      6702           beq.b 0x7691b8
     0x007691b6      4e4d           trap 0xd
  > 0x007691b8      2806           move.l d6, d4
      0x007691ba      2628001a       move.l 0x1a(a0), d3
      0x007691be      4eb900407ff8   jsr fcn.00407ff8
      0x007691c4      2a04           move.l d4, d5
   > 0x007691c6      0c00000a       cmpi.b 0xa, d0
   < 0x007691ca      6624           bne.b 0x7691f0
      0x007691cc      20790086e6d8   movea.l 0x86e6d8, a0
      0x007691d2      b1e8fffc       cmpa.l -0x4(a0), a0
  < 0x007691d6      6702           beq.b 0x7691da
     0x007691d8      4e4d           trap 0xd
  > 0x007691da      21460038       move.l d6, 0x38(a0)
      0x007691de      2051           movea.l (a1), a0
      0x007691e0      b1e8fffc       cmpa.l -0x4(a0), a0
  < 0x007691e4      6702           beq.b 0x7691e8
     0x007691e6      4e4d           trap 0xd
  > 0x007691e8      117c00010023   move.b 0x1, 0x23(a0)
  < 0x007691ee      6054           bra.b 0x769244
  > 0x007691f0      0c000009       cmpi.b 0x9, d0
  < 0x007691f4      6628           bne.b 0x76921e
     0x007691f6      2f390086e6d8   move.l 0x86e6d8, -(a7)
     0x007691fc      594f           subq.w 0x4, a7
     0x007691fe      2f390086e6d8   move.l 0x86e6d8, -(a7)
     0x00769204      4ebabcf2       jsr MENUTYPECOM.find_word_heigh(pc)
     0x00769208      584f           addq.w 0x4, a7
     0x0076920a      2617           move.l (a7), d3
     0x0076920c      2806           move.l d6, d4
     0x0076920e      4eb900407ff8   jsr fcn.00407ff8
     0x00769214      2e84           move.l d4, (a7)
     0x00769216      4ebaf67a       jsr MENUTYPECOM.upd_word_size(pc)
  > 0x0076921a      504f           addq.w 0x8, a7
  < 0x0076921c      6026           bra.b 0x769244
  > 0x0076921e      0c000008       cmpi.b 0x8, d0
  < 0x00769222      660a           bne.b 0x76922e
     0x00769224      2f11           move.l (a1), -(a7)
     0x00769226      2f05           move.l d5, -(a7)
     0x00769228      4ebaf5b8       jsr MENUTYPECOM.upd_line_size(pc)
  < 0x0076922c      60ec           bra.b 0x76921a
  > 0x0076922e      2f390086e6e4   move.l 0x86e6e4, -(a7)
      0x00769234      2f05           move.l d5, -(a7)
      0x00769236      49eeffd0       lea.l -0x30(a6), a4
      0x0076923a      4ebaf610       jsr MENUTYPECOM.upd_page_size(pc)
      0x0076923e      504f           addq.w 0x8, a7
      0x00769240      286effd0       movea.l -0x30(a6), a4
  < 0x00769244      60000258       bra.w 0x76949e
      0x00769248      7808           moveq 0x8, d4
      0x0076924a      4eb900408686   jsr fcn.00408686
      0x00769250      2f04           move.l d4, -(a7)
      0x00769252      594f           subq.w 0x4, a7
      0x00769254      3f390086e7b4   move.w 0x86e7b4, -(a7)
      0x0076925a      4eb90048d992   jsr MENU2COM.get_numeric_val
      0x00769260      544f           addq.w 0x2, a7
      0x00769262      261f           move.l (a7)+, d3
      0x00769264      4eb900407e92   jsr fcn.00407e92
      0x0076926a      2617           move.l (a7), d3
      0x0076926c      4eb900407e92   jsr fcn.00407e92
      0x00769272      584f           addq.w 0x4, a7
      0x00769274      26390086e7d0   move.l 0x86e7d0, d3
      0x0076927a      4eb900407e92   jsr fcn.00407e92
      0x00769280      4eb90040832a   jsr fcn.0040832a
      0x00769286      2c04           move.l d4, d6
      0x00769288      1013           move.b (a3), d0
      0x0076928a      0c00000e       cmpi.b 0xe, d0
  < 0x0076928e      6616           bne.b 0x7692a6
     0x00769290      20790086e6d8   movea.l 0x86e6d8, a0
     0x00769296      b1e8fffc       cmpa.l -0x4(a0), a0
  < 0x0076929a      6702           beq.b 0x76929e
     0x0076929c      4e4d           trap 0xd
  > 0x0076929e      2e06           move.l d6, d7
     0x007692a0      9ea80048       sub.l 0x48(a0), d7
  < 0x007692a4      603a           bra.b 0x7692e0
  > 0x007692a6      0c00000d       cmpi.b 0xd, d0
  < 0x007692aa      661e           bne.b 0x7692ca
     0x007692ac      594f           subq.w 0x4, a7
     0x007692ae      2f390086e6d8   move.l 0x86e6d8, -(a7)
     0x007692b4      4ebabd94       jsr MENUTYPECOM.find_word_kern(pc)
     0x007692b8      584f           addq.w 0x4, a7
     0x007692ba      281f           move.l (a7)+, d4
     0x007692bc      4eb900408224   jsr fcn.00408224
     0x007692c2      4484           neg.l d4
     0x007692c4      d886           add.l d6, d4
     0x007692c6      2e04           move.l d4, d7
  < 0x007692c8      6016           bra.b 0x7692e0
  > 0x007692ca      2051           movea.l (a1), a0
      0x007692cc      b1e8fffc       cmpa.l -0x4(a0), a0
  < 0x007692d0      6702           beq.b 0x7692d4
     0x007692d2      4e4d           trap 0xd
  > 0x007692d4      3228001e       move.w 0x1e(a0), d1
      0x007692d8      48c1           ext.l d1
      0x007692da      4481           neg.l d1
      0x007692dc      d286           add.l d6, d1
      0x007692de      2e01           move.l d1, d7
  > 0x007692e0      0c00000e       cmpi.b 0xe, d0
  < 0x007692e4      6620           bne.b 0x769306
     0x007692e6      2f390086e6d8   move.l 0x86e6d8, -(a7)
     0x007692ec      2f07           move.l d7, -(a7)
     0x007692ee      4ebaf6b8       jsr MENUTYPECOM.upd_char_kern(pc)
     0x007692f2      504f           addq.w 0x8, a7
     0x007692f4      2051           movea.l (a1), a0
     0x007692f6      b1e8fffc       cmpa.l -0x4(a0), a0
  < 0x007692fa      6702           beq.b 0x7692fe
     0x007692fc      4e4d           trap 0xd
  > 0x007692fe      117c00010023   move.b 0x1, 0x23(a0)
  < 0x00769304      603c           bra.b 0x769342
  > 0x00769306      0c00000d       cmpi.b 0xd, d0
  < 0x0076930a      6610           bne.b 0x76931c
     0x0076930c      2f390086e6d8   move.l 0x86e6d8, -(a7)
     0x00769312      2f07           move.l d7, -(a7)
     0x00769314      4ebaf6d4       jsr MENUTYPECOM.upd_word_kern(pc)
  > 0x00769318      504f           addq.w 0x8, a7
  < 0x0076931a      6026           bra.b 0x769342
  > 0x0076931c      0c00000c       cmpi.b 0xc, d0
  < 0x00769320      660a           bne.b 0x76932c
     0x00769322      2f11           move.l (a1), -(a7)
     0x00769324      2f07           move.l d7, -(a7)
     0x00769326      4ebaf7e0       jsr MENUTYPECOM.upd_line_kern(pc)
  < 0x0076932a      60ec           bra.b 0x769318
  > 0x0076932c      2f390086e6e4   move.l 0x86e6e4, -(a7)
      0x00769332      2f07           move.l d7, -(a7)
      0x00769334      49eeffd0       lea.l -0x30(a6), a4
      0x00769338      4ebaf862       jsr MENUTYPECOM.upd_page_kern(pc)
      0x0076933c      504f           addq.w 0x8, a7
      0x0076933e      286effd0       movea.l -0x30(a6), a4
  < 0x00769342      6000015a       bra.w 0x76949e
     0x00769346      7808           moveq 0x8, d4
     0x00769348      4eb900408686   jsr fcn.00408686
     0x0076934e      2f04           move.l d4, -(a7)
     0x00769350      594f           subq.w 0x4, a7
     0x00769352      3f390086e7b8   move.w 0x86e7b8, -(a7)
     0x00769358      4eb90048d992   jsr MENU2COM.get_numeric_val
     0x0076935e      544f           addq.w 0x2, a7
     0x00769360      261f           move.l (a7)+, d3
     0x00769362      4eb900407e92   jsr fcn.00407e92
     0x00769368      2617           move.l (a7), d3
     0x0076936a      4eb900407e92   jsr fcn.00407e92
     0x00769370      584f           addq.w 0x4, a7
     0x00769372      26390086e7d0   move.l 0x86e7d0, d3
     0x00769378      4eb900407e92   jsr fcn.00407e92
     0x0076937e      4eb90040832a   jsr fcn.0040832a
     0x00769384      2c04           move.l d4, d6
     0x00769386      2051           movea.l (a1), a0
     0x00769388      b1e8fffc       cmpa.l -0x4(a0), a0
  < 0x0076938c      6702           beq.b 0x769390
     0x0076938e      4e4d           trap 0xd
  > 0x00769390      30280020       move.w 0x20(a0), d0
     0x00769394      48c0           ext.l d0
     0x00769396      4480           neg.l d0
     0x00769398      d086           add.l d6, d0
     0x0076939a      2e00           move.l d0, d7
     0x0076939c      1013           move.b (a3), d0
     0x0076939e      0c000010       cmpi.b 0x10, d0
  < 0x007693a2      660c           bne.b 0x7693b0
     0x007693a4      2f11           move.l (a1), -(a7)
     0x007693a6      2f07           move.l d7, -(a7)
     0x007693a8      4ebaf884       jsr MENUTYPECOM.upd_line_space(pc)
     0x007693ac      504f           addq.w 0x8, a7
  < 0x007693ae      6016           bra.b 0x7693c6
  > 0x007693b0      2f390086e6e4   move.l 0x86e6e4, -(a7)
     0x007693b6      2f07           move.l d7, -(a7)
     0x007693b8      49eeffd0       lea.l -0x30(a6), a4
     0x007693bc      4ebaf8f2       jsr MENUTYPECOM.upd_page_space(pc)
     0x007693c0      504f           addq.w 0x8, a7
     0x007693c2      286effd0       movea.l -0x30(a6), a4
  < 0x007693c6      600000d6       bra.w 0x76949e
     0x007693ca      594f           subq.w 0x4, a7
     0x007693cc      3f390086e7ba   move.w 0x86e7ba, -(a7)
     0x007693d2      4eb90048d992   jsr MENU2COM.get_numeric_val
     0x007693d8      544f           addq.w 0x2, a7
     0x007693da      7808           moveq 0x8, d4
     0x007693dc      4eb900408686   jsr fcn.00408686
     0x007693e2      2f04           move.l d4, -(a7)
     0x007693e4      262f0004       move.l 0x4(a7), d3
     0x007693e8      4eb900407e92   jsr fcn.00407e92
     0x007693ee      2617           move.l (a7), d3
     0x007693f0      4eb900407e92   jsr fcn.00407e92
     0x007693f6      504f           addq.w 0x8, a7
     0x007693f8      26390086e7d4   move.l 0x86e7d4, d3
     0x007693fe      4eb900407e92   jsr fcn.00407e92
     0x00769404      2e04           move.l d4, d7
     0x00769406      487aa0ae       pea.l 0x7634b6(pc)
     0x0076940a      4878000b       pea.l 0xb
     0x0076940e      2f17           move.l (a7), -(a7)
     0x00769410      4eb9004047ea   jsr p_wts_o
     0x00769416      504f           addq.w 0x8, a7
     0x00769418      2e87           move.l d7, (a7)
     0x0076941a      4852           pea.l (a2)
     0x0076941c      48780004       pea.l 0x4
     0x00769420      4eb900439f72   jsr P17_FRDWRT.p_wtf2_o
     0x00769426      defc000c       adda.w 0xc, a7
     0x0076942a      4eb900404946   jsr p_wtln_o
     0x00769430      1013           move.b (a3), d0
     0x00769432      0c000013       cmpi.b 0x13, d0
  < 0x00769436      662e           bne.b 0x769466
     0x00769438      2f390086e6d8   move.l 0x86e6d8, -(a7)
     0x0076943e      594f           subq.w 0x4, a7
     0x00769440      2f390086e6d8   move.l 0x86e6d8, -(a7)
     0x00769446      4ebabd5e       jsr MENUTYPECOM.find_word_jump(pc)
     0x0076944a      584f           addq.w 0x4, a7
     0x0076944c      2617           move.l (a7), d3
     0x0076944e      2807           move.l d7, d4
     0x00769450      4eb900407b44   jsr fcn.00407b44
     0x00769456      4eb900408224   jsr fcn.00408224
     0x0076945c      2e84           move.l d4, (a7)
     0x0076945e      4ebaf896       jsr MENUTYPECOM.upd_word_jump(pc)
     0x00769462      504f           addq.w 0x8, a7
  < 0x00769464      601a           bra.b 0x769480
  > 0x00769466      20790086e6d8   movea.l 0x86e6d8, a0
     0x0076946c      b1e8fffc       cmpa.l -0x4(a0), a0
  < 0x00769470      6702           beq.b 0x769474
     0x00769472      4e4d           trap 0xd
  > 0x00769474      2807           move.l d7, d4
     0x00769476      4eb900408224   jsr fcn.00408224
     0x0076947c      2144004c       move.l d4, 0x4c(a0)
  > 0x00769480      2051           movea.l (a1), a0
     0x00769482      b1e8fffc       cmpa.l -0x4(a0), a0
  < 0x00769486      6702           beq.b 0x76948a
     0x00769488      4e4d           trap 0xd
  > 0x0076948a      117c00010023   move.b 0x1, 0x23(a0)
  < 0x00769490      600c           bra.b 0x76949e
     0x00769492      1f3c0001       move.b 0x1, -(a7)
     0x00769496      4eb9004b24f8   jsr MENUPASTECOM.update_style
     0x0076949c      544f           addq.w 0x2, a7
  > 0x0076949e      4cdf1fff       movem.l (a7)+, d0-d7/a0-a4
            0x007694a2      4e5e           unlk a6
            0x007694a4      4e75           rts
            ; CALL XREFS from MENUTYPECOM @ +0x68b6, +0x68d8
 78: MENUTYPECOM.adjust_box ();
           0x007694a6      4e56ffea       link.w a6, 0xffea
           0x007694aa      bfd5           cmpa.l (a5), a7
       < 0x007694ac      6206           bhi.b 0x7694b4
          0x007694ae      44fc0002       move.w 0x2, ccr
          0x007694b2      4e76           trapv
       > 0x007694b4      defc0016       adda.w 0x16, a7
           0x007694b8      48e71800       movem.l d3-d4, -(a7)
           0x007694bc      3f2e000c       move.w 0xc(a6), -(a7)
           0x007694c0      594f           subq.w 0x4, a7
           0x007694c2      3f2e000c       move.w 0xc(a6), -(a7)
           0x007694c6      4eb90048d992   jsr MENU2COM.get_numeric_val
           0x007694cc      544f           addq.w 0x2, a7
           0x007694ce      2817           move.l (a7), d4
           0x007694d0      262e0008       move.l 0x8(a6), d3
           0x007694d4      4eb900407ba8   jsr fcn.00407ba8
           0x007694da      2e84           move.l d4, (a7)
           0x007694dc      4227           clr.b -(a7)
           0x007694de      1f3c0001       move.b 0x1, -(a7)
           0x007694e2      4eb90048da84   jsr MENU2COM.set_numeric_val
           0x007694e8      defc000a       adda.w 0xa, a7
           0x007694ec      4cdf0018       movem.l (a7)+, d3-d4
           0x007694f0      4e5e           unlk a6
           0x007694f2      4e75           rts
 74: MENUTYPECOM.local_pen_adjus (int32_t arg_ah);
           ; arg int32_t arg_ah @ a6+0xa
           0x007694f4      4e56ff9a       link.w a6, 0xff9a
           0x007694f8      bfd5           cmpa.l (a5), a7
       < 0x007694fa      6206           bhi.b 0x769502
          0x007694fc      44fc0002       move.w 0x2, ccr
          0x00769500      4e76           trapv
       > 0x00769502      defc0046       adda.w 0x46, a7
           0x00769506      48e7fff0       movem.l d0-d7/a0-a3, -(a7)
           0x0076950a      45f900407ff8   lea.l fcn.00407ff8, a2
           0x00769510      243c3f800000   move.l 0x3f800000, d2
           0x00769516      3d6c000afff0   move.w 0xa(a4), -0x10(a6)
           0x0076951c      3d6c000afff2   move.w 0xa(a4), -0xe(a6)
           0x00769522      10390086e680   move.b 0x86e680, d0
           0x00769528      4880           ext.w d0
           0x0076952a      3200           move.w d0, d1
           0x0076952c      0c410015       cmpi.w 0x15, d1
       < 0x00769530      6200022c       bhi.w 0x76975e
          0x00769534      d241           add.w d1, d1
          0x00769536      323b1006       move.w 0x76953e(pc, d1.w), d1
          0x0076953a      4efb1002       jmp 0x76953e(pc, d1.w)
           0x0076953e      0220002c       andi.b 0x2c, -(a0)
           0x00769542      002c00540054   ori.b 0x54, 0x54(a4)
           0x00769548      006800680206   ori.w 0x68, 0x206(a0)
           0x0076954e      02060206       andi.b 0x6, d6
           0x00769552      02060080       andi.b 0x80, d6
           0x00769556      008000800080   ori.l 0x800080, d0
           0x0076955c      02160216       andi.b 0x16, (a6)
           0x00769560      01d4           bset.b d0, (a4)
           0x00769562      01d4           bset.b d0, (a4)
           0x00769564      01d0           bset.b d0, (a0)
           0x00769566      01d0           bset.b d0, (a0)
           0x00769568      02162802       andi.b 0x2, (a6)
           0x0076956c      263c41000000   move.l 0x41000000, d3
           0x00769572      4e92           jsr (a2)                    ; fcn.00000009+0x2
           0x00769574      2a04           move.l d4, d5
           0x00769576      0844001f       bchg.b 0x1f, d4
           0x0076957a      2d44ffec       move.l d4, -0x14(a6)
           0x0076957e      3d790086e7ae.  move.w 0x86e7ae, -0x10(a6)
           0x00769586      3d790086e7b0.  move.w 0x86e7b0, -0xe(a6)
       < 0x0076958e      600001ce       bra.w 0x76975e
          0x00769592      2802           move.l d2, d4
          0x00769594      263c41000000   move.l 0x41000000, d3
          0x0076959a      4e92           jsr (a2)                    ; fcn.00000009+0x2
          0x0076959c      2a04           move.l d4, d5
          0x0076959e      42aeffec       clr.l -0x14(a6)
      < 0x007695a2      600001ba       bra.w 0x76975e
     > 0x007695a6      7a00           moveq 0x0, d5
        0x007695a8      2802           move.l d2, d4
        0x007695aa      263c41000000   move.l 0x41000000, d3
        0x007695b0      4e92           jsr (a2)                    ; fcn.00000009+0x2
    > 0x007695b2      0844001f       bchg.b 0x1f, d4
       0x007695b6      2d44ffec       move.l d4, -0x14(a6)
   < 0x007695ba      600001a2       bra.w 0x76975e
      0x007695be      12390086e7de   move.b 0x86e7de, d1
      0x007695c4      0c010001       cmpi.b 0x1, d1
  < 0x007695c8      670c           beq.b 0x7695d6
     0x007695ca      12390086e7df   move.b 0x86e7df, d1
     0x007695d0      0c010001       cmpi.b 0x1, d1
  < 0x007695d4      6610           bne.b 0x7695e6
  > 0x007695d6      2802           move.l d2, d4
      0x007695d8      263c40c00000   move.l 0x40c00000, d3
      0x007695de      4e92           jsr (a2)                    ; fcn.00000009+0x2
      0x007695e0      0844001f       bchg.b 0x1f, d4
  < 0x007695e4      600a           bra.b 0x7695f0
  > 0x007695e6      2802           move.l d2, d4
     0x007695e8      263c40c00000   move.l 0x40c00000, d3
     0x007695ee      4e92           jsr (a2)                    ; fcn.00000009+0x2
  > 0x007695f0      2a04           move.l d4, d5
      0x007695f2      42aeffec       clr.l -0x14(a6)
      0x007695f6      7c01           moveq 0x1, d6
      0x007695f8      0c00000b       cmpi.b 0xb, d0
  < 0x007695fc      6670           bne.b 0x76966e
     0x007695fe      2d790086e6e4.  move.l 0x86e6e4, -0xc(a6)
  > 0x00769606      206efff4       movea.l -0xc(a6), a0
     0x0076960a      b0fc0001       cmpa.w 0x1, a0
  < 0x0076960e      670000ea       beq.w 0x7696fa
     0x00769612      7e00           moveq 0x0, d7
     0x00769614      b1e8fffc       cmpa.l -0x4(a0), a0
  < 0x00769618      6702           beq.b 0x76961c
     0x0076961a      4e4d           trap 0xd
  > 0x0076961c      26680008       movea.l 0x8(a0), a3
  > 0x00769620      b6fc0001       cmpa.w 0x1, a3
  < 0x00769624      672c           beq.b 0x769652
     0x00769626      48c7           ext.l d7
     0x00769628      2207           move.l d7, d1
     0x0076962a      5281           addq.l 0x1, d1
     0x0076962c      0481ffff8000   subi.l 0xffff8000, d1
     0x00769632      0c810000ffff   cmpi.l 0xffff, d1
  < 0x00769638      6302           bls.b 0x76963c
     0x0076963a      4e4f           trap 0xf
  > 0x0076963c      0681ffff8000   addi.l 0xffff8000, d1
     0x00769642      3e01           move.w d1, d7
     0x00769644      b7ebfffc       cmpa.l -0x4(a3), a3
  < 0x00769648      6702           beq.b 0x76964c
     0x0076964a      4e4d           trap 0xd
  > 0x0076964c      266b0004       movea.l 0x4(a3), a3
  < 0x00769650      60ce           bra.b 0x769620
  > 0x00769652      be46           cmp.w d6, d7
  < 0x00769654      6f02           ble.b 0x769658
     0x00769656      3c07           move.w d7, d6
  > 0x00769658      226efff4       movea.l -0xc(a6), a1
     0x0076965c      b3e9fffc       cmpa.l -0x4(a1), a1
  < 0x00769660      6702           beq.b 0x769664
     0x00769662      4e4d           trap 0xd
  > 0x00769664      2d51fff4       move.l (a1), -0xc(a6)
  < 0x00769668      609c           bra.b 0x769606
  < 0x0076966a      6000008e       bra.w 0x7696fa
  > 0x0076966e      0c00000c       cmpi.b 0xc, d0
  < 0x00769672      6646           bne.b 0x7696ba
     0x00769674      20790086e6e8   movea.l 0x86e6e8, a0
     0x0076967a      b1e8fffc       cmpa.l -0x4(a0), a0
  < 0x0076967e      6702           beq.b 0x769682
     0x00769680      4e4d           trap 0xd
  > 0x00769682      26680008       movea.l 0x8(a0), a3
  > 0x00769686      b6fc0001       cmpa.w 0x1, a3
  < 0x0076968a      676e           beq.b 0x7696fa
     0x0076968c      48c6           ext.l d6
     0x0076968e      2206           move.l d6, d1
     0x00769690      5281           addq.l 0x1, d1
     0x00769692      0481ffff8000   subi.l 0xffff8000, d1
     0x00769698      0c810000ffff   cmpi.l 0xffff, d1
  < 0x0076969e      6302           bls.b 0x7696a2
     0x007696a0      4e4f           trap 0xf
  > 0x007696a2      0681ffff8000   addi.l 0xffff8000, d1
     0x007696a8      3c01           move.w d1, d6
     0x007696aa      b7ebfffc       cmpa.l -0x4(a3), a3
  < 0x007696ae      6702           beq.b 0x7696b2
     0x007696b0      4e4d           trap 0xd
  > 0x007696b2      266b0004       movea.l 0x4(a3), a3
  < 0x007696b6      60ce           bra.b 0x769686
  < 0x007696b8      6040           bra.b 0x7696fa
  > 0x007696ba      0c00000d       cmpi.b 0xd, d0
  < 0x007696be      663a           bne.b 0x7696fa
     0x007696c0      554f           subq.w 0x2, a7
     0x007696c2      2f390086e6d8   move.l 0x86e6d8, -(a7)
     0x007696c8      4ebabc38       jsr MENUTYPECOM.word_length(pc)
     0x007696cc      584f           addq.w 0x4, a7
     0x007696ce      3c1f           move.w (a7)+, d6
     0x007696d0      487a9df0       pea.l 0x7634c2(pc)
     0x007696d4      4878000e       pea.l 0xe
     0x007696d8      2f17           move.l (a7), -(a7)
     0x007696da      4eb9004047ea   jsr p_wts_o
     0x007696e0      defc000c       adda.w 0xc, a7
     0x007696e4      48c6           ext.l d6
     0x007696e6      2f06           move.l d6, -(a7)
     0x007696e8      48780000       pea.l 0x0
     0x007696ec      4eb9004070e4   jsr p_wti_o
     0x007696f2      504f           addq.w 0x8, a7
     0x007696f4      4eb900404946   jsr p_wtln_o
  > 0x007696fa      48c6           ext.l d6
      0x007696fc      2806           move.l d6, d4
      0x007696fe      4eb900408686   jsr fcn.00408686
      0x00769704      2604           move.l d4, d3
      0x00769706      2805           move.l d5, d4
      0x00769708      4e92           jsr (a2)                    ; fcn.00000009+0x2
      0x0076970a      2a04           move.l d4, d5
  < 0x0076970c      6050           bra.b 0x76975e
  < 0x0076970e      6000fe96       bra.w 0x7695a6
      0x00769712      10390086e7de   move.b 0x86e7de, d0
      0x00769718      4880           ext.w d0
      0x0076971a      013a9db4       btst.l d0, 0x7634d0(pc)
  < 0x0076971e      6712           beq.b 0x769732
     0x00769720      7a00           moveq 0x0, d5
     0x00769722      2802           move.l d2, d4
     0x00769724      263c41000000   move.l 0x41000000, d3
     0x0076972a      4e92           jsr (a2)                    ; fcn.00000009+0x2
     0x0076972c      2d44ffec       move.l d4, -0x14(a6)
  < 0x00769730      6010           bra.b 0x769742
  > 0x00769732      2802           move.l d2, d4
      0x00769734      263c41000000   move.l 0x41000000, d3
      0x0076973a      4e92           jsr (a2)                    ; fcn.00000009+0x2
      0x0076973c      2a04           move.l d4, d5
      0x0076973e      42aeffec       clr.l -0x14(a6)
  < 0x00769742      601a           bra.b 0x76975e
     0x00769744      2802           move.l d2, d4
     0x00769746      263c42800000   move.l 0x42800000, d3
  > 0x0076974c      4e92           jsr (a2)                    ; fcn.00000009+0x2
     0x0076974e      2a04           move.l d4, d5
  < 0x00769750      6000fe60       bra.w 0x7695b2
      0x00769754      2802           move.l d2, d4
      0x00769756      263c41000000   move.l 0x41000000, d3
  < 0x0076975c      60ee           bra.b 0x76974c
  > 0x0076975e      4a390086e680   tst.b 0x86e680
        < 0x00769764      67000098       beq.w 0x7697fe
           0x00769768      2805           move.l d5, d4
           0x0076976a      26390086e7d0   move.l 0x86e7d0, d3
           0x00769770      4e92           jsr (a2)                    ; fcn.00000009+0x2
           0x00769772      2a04           move.l d4, d5
           0x00769774      282effec       move.l -0x14(a6), d4
           0x00769778      26390086e7d4   move.l 0x86e7d4, d3
           0x0076977e      4e92           jsr (a2)                    ; fcn.00000009+0x2
           0x00769780      2d44ffec       move.l d4, -0x14(a6)
           0x00769784      2f04           move.l d4, -(a7)
           0x00769786      20790086e67a   movea.l 0x86e67a, a0
           0x0076978c      b1e8fffc       cmpa.l -0x4(a0), a0
       < 0x00769790      6702           beq.b 0x769794
          0x00769792      4e4d           trap 0xd
       > 0x00769794      38280012       move.w 0x12(a0), d4
           0x00769798      48c4           ext.l d4
           0x0076979a      4eb900408686   jsr fcn.00408686
           0x007697a0      2605           move.l d5, d3
           0x007697a2      4eb900407e92   jsr fcn.00407e92
           0x007697a8      2d44ffe0       move.l d4, -0x20(a6)
           0x007697ac      38280014       move.w 0x14(a0), d4
           0x007697b0      48c4           ext.l d4
           0x007697b2      4eb900408686   jsr fcn.00408686
           0x007697b8      2617           move.l (a7), d3
           0x007697ba      4eb900407e92   jsr fcn.00407e92
           0x007697c0      2d44ffe4       move.l d4, -0x1c(a6)
           0x007697c4      584f           addq.w 0x4, a7
           0x007697c6      302efff0       move.w -0x10(a6), d0
           0x007697ca      b06efff2       cmp.w -0xe(a6), d0
       < 0x007697ce      6716           beq.b 0x7697e6
          0x007697d0      3f00           move.w d0, -(a7)
          0x007697d2      2f2effe0       move.l -0x20(a6), -(a7)
          0x007697d6      4ebafcce       jsr MENUTYPECOM.adjust_box(pc)
          0x007697da      584f           addq.w 0x4, a7
          0x007697dc      3eaefff2       move.w -0xe(a6), (a7)
          0x007697e0      2f2effe4       move.l -0x1c(a6), -(a7)
      < 0x007697e4      6012           bra.b 0x7697f8
      > 0x007697e6      3f00           move.w d0, -(a7)
          0x007697e8      282effe0       move.l -0x20(a6), d4
          0x007697ec      262effe4       move.l -0x1c(a6), d3
          0x007697f0      4eb900407ba8   jsr fcn.00407ba8
          0x007697f6      2f04           move.l d4, -(a7)
          ; CODE XREF from MENUTYPECOM @ +0x68c4
      > 0x007697f8      4ebafcac       jsr MENUTYPECOM.adjust_box(pc)
           0x007697fc      5c4f           addq.w 0x6, a7
        > 0x007697fe      4cdf0fff       movem.l (a7)+, d0-d7/a0-a3
            0x00769802      4e5e           unlk a6
            0x00769804      4e75           rts
 48: MENUTYPECOM.show_update ();
           0x00769806      4e56fff6       link.w a6, 0xfff6
           0x0076980a      bfd5           cmpa.l (a5), a7
       < 0x0076980c      6206           bhi.b 0x769814
          0x0076980e      44fc0002       move.w 0x2, ccr
          0x00769812      4e76           trapv
       > 0x00769814      defc000a       adda.w 0xa, a7
           0x00769818      48e78000       movem.l d0, -(a7)
           0x0076981c      10390086e680   move.b 0x86e680, d0
           0x00769822      4880           ext.w d0
           0x00769824      0c400015       cmpi.w 0x15, d0
       < 0x00769828      6302           bls.b 0x76982c
          0x0076982a      4e4e           trap 0xe
       > 0x0076982c      d040           add.w d0, d0
           0x0076982e      303b0006       move.w 0x769836(pc, d0.w), d0
           0x00769832      4efb0002       jmp 0x769836(pc, d0.w)
            0x00769836      0050002c       ori.w 0x2c, (a0)
            0x0076983a      002c002c002c   ori.b 0x2c, 0x2c(a4)
            0x00769840      002c002c002c   ori.b 0x2c, 0x2c(a4)
            0x00769846      002c002c002c   ori.b 0x2c, 0x2c(a4)
            0x0076984c      002c002c002c   ori.b 0x2c, 0x2c(a4)
            0x00769852      002c002c002c   ori.b 0x2c, 0x2c(a4)
            0x00769858      002c002c002c   ori.b 0x2c, 0x2c(a4)
            0x0076985e      002c004a1039   ori.b 0x4a, 0x1039(a4)
            0x00769864      0086e6fc0c00   ori.l 0xe6fc0c00, d6
            0x0076986a      00046606       ori.b 0x6, d4
            0x0076986e      1f3c0008       move.b 0x8, -(a7)
        < 0x00769872      6004           bra.b 0x769878
           0x00769874      1f3c0009       move.b 0x9, -(a7)
       > 0x00769878      4ebaab52       jsr MENUTYPECOM.update_type(pc)
           0x0076987c      544f           addq.w 0x2, a7
       < 0x0076987e      6006           bra.b 0x769886
          0x00769880      1f3c0006       move.b 0x6, -(a7)
       < 0x00769884      60f2           bra.b 0x769878
        > 0x00769886      4cdf0001       movem.l (a7)+, d0
            0x0076988a      4e5e           unlk a6
            0x0076988c      4e75           rts
 68: MENUTYPECOM.hit_type_num ();
           0x0076988e      4e56ffd0       link.w a6, 0xffd0
           0x00769892      bfd5           cmpa.l (a5), a7
       < 0x00769894      6206           bhi.b 0x76989c
          0x00769896      44fc0002       move.w 0x2, ccr
          0x0076989a      4e76           trapv
       > 0x0076989c      defc0030       adda.w 0x30, a7
           0x007698a0      48e7d8f8       movem.l d0-d1/d3-d4/a0-a4, -(a7)
           0x007698a4      41ee000a       lea.l 0xa(a6), a0
           0x007698a8      43f90086e682   lea.l 0x86e682, a1
           0x007698ae      45faf552       lea.l MENUTYPECOM.update_from_men(pc), a2
           0x007698b2      47f90086e7de   lea.l 0x86e7de, a3
           0x007698b8      7205           moveq 0x5, d1
           0x007698ba      302e0008       move.w 0x8(a6), d0
           0x007698be      5340           subq.w 0x1, d0
           0x007698c0      0c400010       cmpi.w 0x10, d0
       < 0x007698c4      62000168       bhi.w 0x769a2e
          0x007698c8      d040           add.w d0, d0
          0x007698ca      303b0006       move.w 0x7698d2(pc, d0.w), d0
          0x007698ce      4efb0002       jmp 0x7698d2(pc, d0.w)
           0x007698d2      002200ae       ori.b 0xae, -(a2)
           0x007698d6      015c           bchg.b d0, (a4)+
           0x007698d8      015c           bchg.b d0, (a4)+
           0x007698da      0158           bchg.b d0, (a0)+
           0x007698dc      015c           bchg.b d0, (a4)+
           0x007698de      015c           bchg.b d0, (a4)+
           0x007698e0      0046007e       ori.w 0x7e, d6
           0x007698e4      0096015c015c   ori.l 0x15c015c, (a6)
           0x007698ea      015c           bchg.b d0, (a4)+
           0x007698ec      015c           bchg.b d0, (a4)+
           0x007698ee      0046007e       ori.w 0x7e, d6
           0x007698f2      0096594f3f10   ori.l 0x594f3f10, (a6)
           0x007698f8      4eb90048d992   jsr MENU2COM.get_numeric_val
           0x007698fe      544f           addq.w 0x2, a7
           0x00769900      7808           moveq 0x8, d4
           0x00769902      4eb900408686   jsr fcn.00408686
           0x00769908      2617           move.l (a7), d3
           0x0076990a      4eb900407e92   jsr fcn.00407e92
           0x00769910      584f           addq.w 0x4, a7
           0x00769912      2284           move.l d4, (a1)
       < 0x00769914      60000118       bra.w 0x769a2e
          0x00769918      4a50           tst.w (a0)
      < 0x0076991a      6720           beq.b 0x76993c
         0x0076991c      594f           subq.w 0x4, a7
         0x0076991e      3f10           move.w (a0), -(a7)
         0x00769920      4eb90048d992   jsr MENU2COM.get_numeric_val
         0x00769926      544f           addq.w 0x2, a7
         0x00769928      7808           moveq 0x8, d4
         0x0076992a      4eb900408686   jsr fcn.00408686
         0x00769930      2617           move.l (a7), d3
         0x00769932      4eb900407e92   jsr fcn.00407e92
         0x00769938      584f           addq.w 0x4, a7
         0x0076993a      2284           move.l d4, (a1)
      > 0x0076993c      4227           clr.b -(a7)
          0x0076993e      284e           movea.l a6, a4
          0x00769940      4e92           jsr (a2)                    ; fcn.00000009+0x2
          0x00769942      1ebc000c       move.b 0xc, (a7)
      > 0x00769946      4ebaaa84       jsr MENUTYPECOM.update_type(pc)
     > 0x0076994a      544f           addq.w 0x2, a7
    < 0x0076994c      600000e0       bra.w 0x769a2e
       0x00769950      284e           movea.l a6, a4
       0x00769952      4ebafba0       jsr MENUTYPECOM.local_pen_adjus(pc)
   > 0x00769956      1f3c0001       move.b 0x1, -(a7)
      0x0076995a      284e           movea.l a6, a4
      0x0076995c      4e92           jsr (a2)                    ; fcn.00000009+0x2
      0x0076995e      544f           addq.w 0x2, a7
      0x00769960      4ebafea4       jsr MENUTYPECOM.show_update(pc)
  < 0x00769964      600000c8       bra.w 0x769a2e
     0x00769968      1013           move.b (a3), d0
     0x0076996a      4880           ext.w d0
     0x0076996c      013a9b7e       btst.l d0, 0x7634ec(pc)
  < 0x00769970      6706           beq.b 0x769978
     0x00769972      4ebaebe0       jsr MENUTYPECOM.sort_horiz_line(pc)
  < 0x00769976      6004           bra.b 0x76997c
  > 0x00769978      4ebaecba       jsr MENUTYPECOM.sort_vert_lines(pc)
  > 0x0076997c      1f01           move.b d1, -(a7)
  < 0x0076997e      60c6           bra.b 0x769946
      0x00769980      3f3c002d       move.w 0x2d, -(a7)
      0x00769984      4227           clr.b -(a7)
      0x00769986      4eb900483776   jsr MENUCOM.swtch_box
      0x0076998c      3eb90086e7a6   move.w 0x86e7a6, (a7)
      0x00769992      4eb900480fc2   jsr MENUCOM.get_boxon
      0x00769998      544f           addq.w 0x2, a7
      0x0076999a      4a1f           tst.b (a7)+
  < 0x0076999c      670a           beq.b 0x7699a8
     0x0076999e      554f           subq.w 0x2, a7
     0x007699a0      3f10           move.w (a0), -(a7)
     0x007699a2      1f3c0003       move.b 0x3, -(a7)
  < 0x007699a6      6040           bra.b 0x7699e8
  > 0x007699a8      554f           subq.w 0x2, a7
      0x007699aa      3f390086e7a4   move.w 0x86e7a4, -(a7)
      0x007699b0      4eb900480fc2   jsr MENUCOM.get_boxon
      0x007699b6      544f           addq.w 0x2, a7
      0x007699b8      4a1f           tst.b (a7)+
  < 0x007699ba      6708           beq.b 0x7699c4
     0x007699bc      554f           subq.w 0x2, a7
     0x007699be      3f10           move.w (a0), -(a7)
     0x007699c0      1f01           move.b d1, -(a7)
  < 0x007699c2      6024           bra.b 0x7699e8
  > 0x007699c4      554f           subq.w 0x2, a7
      0x007699c6      3f390086e7a8   move.w 0x86e7a8, -(a7)
      0x007699cc      4eb900480fc2   jsr MENUCOM.get_boxon
      0x007699d2      544f           addq.w 0x2, a7
      0x007699d4      4a1f           tst.b (a7)+
  < 0x007699d6      670a           beq.b 0x7699e2
     0x007699d8      554f           subq.w 0x2, a7
     0x007699da      3f10           move.w (a0), -(a7)
     0x007699dc      1f3c0004       move.b 0x4, -(a7)
  < 0x007699e0      6006           bra.b 0x7699e8
  > 0x007699e2      554f           subq.w 0x2, a7
      0x007699e4      3f10           move.w (a0), -(a7)
      0x007699e6      4227           clr.b -(a7)
  > 0x007699e8      4ebac14a       jsr MENUTYPECOM.select_type_upd(pc)
      0x007699ec      584f           addq.w 0x4, a7
      0x007699ee      101f           move.b (a7)+, d0
      0x007699f0      4880           ext.w d0
      0x007699f2      41bc0015       chk.w 0x15, d0
      0x007699f6      13c00086e680   move.b d0, 0x86e680
      0x007699fc      4227           clr.b -(a7)
      0x007699fe      284e           movea.l a6, a4
      0x00769a00      4e92           jsr (a2)                    ; fcn.00000009+0x2
      0x00769a02      544f           addq.w 0x2, a7
      0x00769a04      1013           move.b (a3), d0
      0x00769a06      4880           ext.w d0
      0x00769a08      013a9ae4       btst.l d0, 0x7634ee(pc)
  < 0x00769a0c      6706           beq.b 0x769a14
     0x00769a0e      4ebaeb44       jsr MENUTYPECOM.sort_horiz_line(pc)
  < 0x00769a12      6004           bra.b 0x769a18
  > 0x00769a14      4ebaec1e       jsr MENUTYPECOM.sort_vert_lines(pc)
  > 0x00769a18      1f3c0006       move.b 0x6, -(a7)
      0x00769a1c      4ebaa9ae       jsr MENUTYPECOM.update_type(pc)
      0x00769a20      4217           clr.b (a7)
      0x00769a22      4ebabb18       jsr MENUTYPECOM.update_type_box(pc)
  < 0x00769a26      6000ff22       bra.w 0x76994a
  < 0x00769a2a      6000ff2a       bra.w 0x769956
  > 0x00769a2e      4cdf1f1b       movem.l (a7)+, d0-d1/d3-d4/a0-a4
            0x00769a32      4e5e           unlk a6
            0x00769a34      4e75           rts
            ; CALL XREF from MENUTYPECOM.control_hit @ 0x76a26c
 88: MENUTYPECOM.do_box_onoff ();
           0x00769a36      4e56fff4       link.w a6, 0xfff4
           0x00769a3a      bfd5           cmpa.l (a5), a7
       < 0x00769a3c      6206           bhi.b 0x769a44
          0x00769a3e      44fc0002       move.w 0x2, ccr
          0x00769a42      4e76           trapv
       > 0x00769a44      defc000c       adda.w 0xc, a7
           0x00769a48      48e70080       movem.l a0, -(a7)
           0x00769a4c      41ee000a       lea.l 0xa(a6), a0
           0x00769a50      4a2e0008       tst.b 0x8(a6)
       < 0x00769a54      6710           beq.b 0x769a66
          0x00769a56      554f           subq.w 0x2, a7
          0x00769a58      3f10           move.w (a0), -(a7)
          0x00769a5a      4eb900480fc2   jsr MENUCOM.get_boxon
          0x00769a60      544f           addq.w 0x2, a7
          0x00769a62      4a1f           tst.b (a7)+
      < 0x00769a64      6716           beq.b 0x769a7c
      > 0x00769a66      4a2e0008       tst.b 0x8(a6)
      < 0x00769a6a      661a           bne.b 0x769a86
         0x00769a6c      554f           subq.w 0x2, a7
         0x00769a6e      3f10           move.w (a0), -(a7)
         0x00769a70      4eb900480fc2   jsr MENUCOM.get_boxon
         0x00769a76      544f           addq.w 0x2, a7
         0x00769a78      4a1f           tst.b (a7)+
     < 0x00769a7a      670a           beq.b 0x769a86
     > 0x00769a7c      3f10           move.w (a0), -(a7)
         0x00769a7e      4eb9004836a4   jsr MENUCOM.push_box
         0x00769a84      544f           addq.w 0x2, a7
     > 0x00769a86      4cdf0100       movem.l (a7)+, a0
           0x00769a8a      4e5e           unlk a6
           0x00769a8c      4e75           rts
            ; CALL XREF from MENUTYPECOM.control_hit @ 0x76a1ec
 124: MENUTYPECOM.do_type_pos ();
           0x00769a8e      4e56fff0       link.w a6, 0xfff0
           0x00769a92      bfd5           cmpa.l (a5), a7
       < 0x00769a94      6206           bhi.b 0x769a9c
          0x00769a96      44fc0002       move.w 0x2, ccr
          0x00769a9a      4e76           trapv
       > 0x00769a9c      defc0010       adda.w 0x10, a7
           0x00769aa0      48e700c0       movem.l a0-a1, -(a7)
           0x00769aa4      41f90086e7ae   lea.l 0x86e7ae, a0
           0x00769aaa      43f90086e7b0   lea.l 0x86e7b0, a1
           0x00769ab0      4a2e0008       tst.b 0x8(a6)
       < 0x00769ab4      6716           beq.b 0x769acc
          0x00769ab6      554f           subq.w 0x2, a7
          0x00769ab8      4eb900482154   jsr MENUCOM.get_crnt_numeri
          0x00769abe      4a5f           tst.w (a7)+
      < 0x00769ac0      6738           beq.b 0x769afa
         0x00769ac2      554f           subq.w 0x2, a7
         0x00769ac4      4eb900482154   jsr MENUCOM.get_crnt_numeri
     < 0x00769aca      6026           bra.b 0x769af2
     > 0x00769acc      554f           subq.w 0x2, a7
         0x00769ace      3f10           move.w (a0), -(a7)
         0x00769ad0      4eb900480fc2   jsr MENUCOM.get_boxon
         0x00769ad6      544f           addq.w 0x2, a7
         0x00769ad8      4a1f           tst.b (a7)+
     < 0x00769ada      6704           beq.b 0x769ae0
        0x00769adc      3f10           move.w (a0), -(a7)
    < 0x00769ade      6012           bra.b 0x769af2
    > 0x00769ae0      554f           subq.w 0x2, a7
        0x00769ae2      3f11           move.w (a1), -(a7)
        0x00769ae4      4eb900480fc2   jsr MENUCOM.get_boxon
        0x00769aea      544f           addq.w 0x2, a7
        0x00769aec      4a1f           tst.b (a7)+
    < 0x00769aee      670a           beq.b 0x769afa
       0x00769af0      3f11           move.w (a1), -(a7)
    > 0x00769af2      4eb9004836a4   jsr MENUCOM.push_box
         0x00769af8      544f           addq.w 0x2, a7
      > 0x00769afa      13ee00080086.  move.b 0x8(a6), 0x86e7d8.l
           0x00769b02      4cdf0300       movem.l (a7)+, a0-a1
           0x00769b06      4e5e           unlk a6
           0x00769b08      4e75           rts
 368: MENUTYPECOM.pick_type ();
           0x00769b0a      4e56ff9a       link.w a6, 0xff9a
           0x00769b0e      bfd5           cmpa.l (a5), a7
       < 0x00769b10      6206           bhi.b 0x769b18
          0x00769b12      44fc0002       move.w 0x2, ccr
          0x00769b16      4e76           trapv
       > 0x00769b18      defc004a       adda.w 0x4a, a7
           0x00769b1c      48e7fff8       movem.l d0-d7/a0-a4, -(a7)
           0x00769b20      206e0010       movea.l 0x10(a6), a0
           0x00769b24      2d50ffe8       move.l (a0), -0x18(a6)
           0x00769b28      226e000c       movea.l 0xc(a6), a1
           0x00769b2c      2d51fff0       move.l (a1), -0x10(a6)
           0x00769b30      20bc00000001   move.l 0x1, (a0)
           0x00769b36      22bc00000001   move.l 0x1, (a1)
           0x00769b3c      2d7c000f423f.  move.l 0xf423f, -0x8(a6)
           0x00769b44      26790086e6e4   movea.l 0x86e6e4, a3
       > 0x00769b4a      b6fc0001       cmpa.w 0x1, a3
      < 0x00769b4e      670000d0       beq.w 0x769c20
         0x00769b52      b7ebfffc       cmpa.l -0x4(a3), a3
     < 0x00769b56      6702           beq.b 0x769b5a
        0x00769b58      4e4d           trap 0xd
     > 0x00769b5a      302e0014       move.w 0x14(a6), d0
         0x00769b5e      48c0           ext.l d0
         0x00769b60      322b0014       move.w 0x14(a3), d1
         0x00769b64      48c1           ext.l d1
         0x00769b66      d280           add.l d0, d1
         0x00769b68      2801           move.l d1, d4
         0x00769b6a      7608           moveq 0x8, d3
         0x00769b6c      4eb900406b50   jsr fcn.00406b50
         0x00769b72      3e04           move.w d4, d7
         0x00769b74      302e0016       move.w 0x16(a6), d0
         0x00769b78      48c0           ext.l d0
         0x00769b7a      322b0016       move.w 0x16(a3), d1
         0x00769b7e      48c1           ext.l d1
         0x00769b80      d280           add.l d0, d1
         0x00769b82      2801           move.l d1, d4
         0x00769b84      7608           moveq 0x8, d3
         0x00769b86      4eb900406b50   jsr fcn.00406b50
         0x00769b8c      3c04           move.w d4, d6
         0x00769b8e      286b0008       movea.l 0x8(a3), a4
     > 0x00769b92      b8fc0001       cmpa.w 0x1, a4
    < 0x00769b96      67000082       beq.w 0x769c1a
       0x00769b9a      b9ecfffc       cmpa.l -0x4(a4), a4
   < 0x00769b9e      6702           beq.b 0x769ba2
      0x00769ba0      4e4d           trap 0xd
   > 0x00769ba2      be6c0070       cmp.w 0x70(a4), d7
   < 0x00769ba6      6f6a           ble.b 0x769c12
      0x00769ba8      302c0070       move.w 0x70(a4), d0
      0x00769bac      48c0           ext.l d0
      0x00769bae      322c0074       move.w 0x74(a4), d1
      0x00769bb2      48c1           ext.l d1
      0x00769bb4      2400           move.l d0, d2
      0x00769bb6      d481           add.l d1, d2
      0x00769bb8      48c7           ext.l d7
      0x00769bba      be82           cmp.l d2, d7
  < 0x00769bbc      6c54           bge.b 0x769c12
     0x00769bbe      bc6c0072       cmp.w 0x72(a4), d6
 < 0x00769bc2      6f4e           ble.b 0x769c12
    0x00769bc4      342c0072       move.w 0x72(a4), d2
    0x00769bc8      48c2           ext.l d2
    0x00769bca      362c0076       move.w 0x76(a4), d3
    0x00769bce      48c3           ext.l d3
    0x00769bd0      2802           move.l d2, d4
    0x00769bd2      d883           add.l d3, d4
    0x00769bd4      48c6           ext.l d6
    0x00769bd6      bc84           cmp.l d4, d6
 < 0x00769bd8      6c38           bge.b 0x769c12
    0x00769bda      2801           move.l d1, d4
    0x00769bdc      89fc0002       divs.w 0x2, d4
    0x00769be0      48c4           ext.l d4
    0x00769be2      d880           add.l d0, d4
    0x00769be4      9887           sub.l d7, d4
 < 0x00769be6      6a02           bpl.b 0x769bea
    0x00769be8      4484           neg.l d4
 > 0x00769bea      87fc0002       divs.w 0x2, d3
    0x00769bee      48c3           ext.l d3
    0x00769bf0      d682           add.l d2, d3
    0x00769bf2      9686           sub.l d6, d3
 < 0x00769bf4      6a02           bpl.b 0x769bf8
    0x00769bf6      4483           neg.l d3
 > 0x00769bf8      d684           add.l d4, d3
    0x00769bfa      2a03           move.l d3, d5
    0x00769bfc      baaefff8       cmp.l -0x8(a6), d5
 < 0x00769c00      6c10           bge.b 0x769c12
    0x00769c02      2d45fff8       move.l d5, -0x8(a6)
    0x00769c06      206e000c       movea.l 0xc(a6), a0
    0x00769c0a      208c           move.l a4, (a0)
    0x00769c0c      206e0010       movea.l 0x10(a6), a0
    0x00769c10      208b           move.l a3, (a0)
 > 0x00769c12      286c0004       movea.l 0x4(a4), a4
    < 0x00769c16      6000ff7a       bra.w 0x769b92
    > 0x00769c1a      2653           movea.l (a3), a3
      < 0x00769c1c      6000ff2c       bra.w 0x769b4a
      > 0x00769c20      206e0008       movea.l 0x8(a6), a0
           0x00769c24      4210           clr.b (a0)
           0x00769c26      226e000c       movea.l 0xc(a6), a1
           0x00769c2a      2451           movea.l (a1), a2
           0x00769c2c      b4fc0001       cmpa.w 0x1, a2
       < 0x00769c30      673c           beq.b 0x769c6e
          0x00769c32      b5eafffc       cmpa.l -0x4(a2), a2
      < 0x00769c36      6702           beq.b 0x769c3a
         0x00769c38      4e4d           trap 0xd
      > 0x00769c3a      226a0004       movea.l 0x4(a2), a1
          0x00769c3e      b2fc0001       cmpa.w 0x1, a1
      < 0x00769c42      6608           bne.b 0x769c4c
         0x00769c44      1d7c00020018   move.b 0x2, 0x18(a6)
     < 0x00769c4a      6006           bra.b 0x769c52
     > 0x00769c4c      1d7c00010018   move.b 0x1, 0x18(a6)
     > 0x00769c52      226e0010       movea.l 0x10(a6), a1
          0x00769c56      2251           movea.l (a1), a1
          0x00769c58      b3eeffe8       cmpa.l -0x18(a6), a1
      < 0x00769c5c      6704           beq.b 0x769c62
         0x00769c5e      10bc0001       move.b 0x1, (a0)
      > 0x00769c62      b5eefff0       cmpa.l -0x10(a6), a2
      < 0x00769c66      670a           beq.b 0x769c72
         0x00769c68      10bc0001       move.b 0x1, (a0)
     < 0x00769c6c      6004           bra.b 0x769c72
     > 0x00769c6e      422e0018       clr.b 0x18(a6)
     > 0x00769c72      4cdf1fff       movem.l (a7)+, d0-d7/a0-a4
           0x00769c76      4e5e           unlk a6
           0x00769c78      4e75           rts
            ; CALL XREF from MENUTYPECOM @ +0x8d72
 294: MENUTYPECOM.control_key ();
           0x00769c7a      4e56ffe8       link.w a6, 0xffe8
           0x00769c7e      bfd5           cmpa.l (a5), a7
       < 0x00769c80      6206           bhi.b 0x769c88
          0x00769c82      44fc0002       move.w 0x2, ccr
          0x00769c86      4e76           trapv
       > 0x00769c88      defc0014       adda.w 0x14, a7
           0x00769c8c      48e70380       movem.l d6-d7/a0, -(a7)
           0x00769c90      41f900480fc2   lea.l MENUCOM.get_boxon, a0
           0x00769c96      3c2e000a       move.w 0xa(a6), d6
           0x00769c9a      024607ff       andi.w 0x7ff, d6
           0x00769c9e      7e00           moveq 0x0, d7
           0x00769ca0      0c460203       cmpi.w 0x203, d6
       < 0x00769ca4      6602           bne.b 0x769ca8
      < 0x00769ca6      6036           bra.b 0x769cde
      > 0x00769ca8      0c460201       cmpi.w 0x201, d6
      < 0x00769cac      6602           bne.b 0x769cb0
     < 0x00769cae      602e           bra.b 0x769cde
     > 0x00769cb0      0c460204       cmpi.w 0x204, d6
     < 0x00769cb4      6602           bne.b 0x769cb8
    < 0x00769cb6      6026           bra.b 0x769cde
    > 0x00769cb8      0c460206       cmpi.w 0x206, d6
    < 0x00769cbc      6602           bne.b 0x769cc0
   < 0x00769cbe      601e           bra.b 0x769cde
   > 0x00769cc0      0c460208       cmpi.w 0x208, d6
   < 0x00769cc4      6602           bne.b 0x769cc8
  < 0x00769cc6      6016           bra.b 0x769cde
  > 0x00769cc8      0c460208       cmpi.w 0x208, d6
  < 0x00769ccc      6602           bne.b 0x769cd0
 < 0x00769cce      600e           bra.b 0x769cde
 > 0x00769cd0      0c460204       cmpi.w 0x204, d6
 < 0x00769cd4      6602           bne.b 0x769cd8
 < 0x00769cd6      6006           bra.b 0x769cde
 > 0x00769cd8      0c460407       cmpi.w 0x407, d6
 < 0x00769cdc      6602           bne.b 0x769ce0
 > 0x00769cde      7e01           moveq 0x1, d7
       > 0x00769ce0      4a07           tst.b d7
       < 0x00769ce2      660000b0       bne.w 0x769d94
          0x00769ce6      554f           subq.w 0x2, a7
          0x00769ce8      3f390086e7b2   move.w 0x86e7b2, -(a7)
          0x00769cee      4e90           jsr (a0)                    ; fcn.00000009
          0x00769cf0      544f           addq.w 0x2, a7
          0x00769cf2      4a1f           tst.b (a7)+
      < 0x00769cf4      6668           bne.b 0x769d5e
         0x00769cf6      554f           subq.w 0x2, a7
         0x00769cf8      3f390086e7b4   move.w 0x86e7b4, -(a7)
         0x00769cfe      4e90           jsr (a0)                    ; fcn.00000009
         0x00769d00      544f           addq.w 0x2, a7
         0x00769d02      4a1f           tst.b (a7)+
     < 0x00769d04      6658           bne.b 0x769d5e
        0x00769d06      554f           subq.w 0x2, a7
        0x00769d08      3f390086e7b6   move.w 0x86e7b6, -(a7)
        0x00769d0e      4e90           jsr (a0)                    ; fcn.00000009
        0x00769d10      544f           addq.w 0x2, a7
        0x00769d12      4a1f           tst.b (a7)+
    < 0x00769d14      6648           bne.b 0x769d5e
       0x00769d16      554f           subq.w 0x2, a7
       0x00769d18      3f390086e7b8   move.w 0x86e7b8, -(a7)
       0x00769d1e      4e90           jsr (a0)                    ; fcn.00000009
       0x00769d20      544f           addq.w 0x2, a7
       0x00769d22      4a1f           tst.b (a7)+
   < 0x00769d24      6638           bne.b 0x769d5e
      0x00769d26      4a390086e7d8   tst.b 0x86e7d8
  < 0x00769d2c      6630           bne.b 0x769d5e
     0x00769d2e      554f           subq.w 0x2, a7
     0x00769d30      3f390086e7ae   move.w 0x86e7ae, -(a7)
     0x00769d36      4e90           jsr (a0)                    ; fcn.00000009
     0x00769d38      544f           addq.w 0x2, a7
     0x00769d3a      4a1f           tst.b (a7)+
 < 0x00769d3c      6620           bne.b 0x769d5e
    0x00769d3e      554f           subq.w 0x2, a7
    0x00769d40      3f390086e7b0   move.w 0x86e7b0, -(a7)
    0x00769d46      4e90           jsr (a0)                    ; fcn.00000009
    0x00769d48      544f           addq.w 0x2, a7
    0x00769d4a      4a1f           tst.b (a7)+
 < 0x00769d4c      6610           bne.b 0x769d5e
    0x00769d4e      554f           subq.w 0x2, a7
    0x00769d50      3f390086e7ba   move.w 0x86e7ba, -(a7)
    0x00769d56      4e90           jsr (a0)                    ; fcn.00000009
    0x00769d58      544f           addq.w 0x2, a7
    0x00769d5a      4a1f           tst.b (a7)+
 < 0x00769d5c      6736           beq.b 0x769d94
 > 0x00769d5e      4a2e0008       tst.b 0x8(a6)
      < 0x00769d62      6710           beq.b 0x769d74
         0x00769d64      0c460418       cmpi.w 0x418, d6
     < 0x00769d68      6602           bne.b 0x769d6c
    < 0x00769d6a      6026           bra.b 0x769d92
    > 0x00769d6c      0c460414       cmpi.w 0x414, d6
    < 0x00769d70      6622           bne.b 0x769d94
   < 0x00769d72      601e           bra.b 0x769d92
   > 0x00769d74      0c46041a       cmpi.w 0x41a, d6
   < 0x00769d78      6602           bne.b 0x769d7c
  < 0x00769d7a      6016           bra.b 0x769d92
  > 0x00769d7c      0c460416       cmpi.w 0x416, d6
  < 0x00769d80      6602           bne.b 0x769d84
 < 0x00769d82      600e           bra.b 0x769d92
 > 0x00769d84      0c460418       cmpi.w 0x418, d6
 < 0x00769d88      6602           bne.b 0x769d8c
 < 0x00769d8a      6006           bra.b 0x769d92
 > 0x00769d8c      0c460414       cmpi.w 0x414, d6
 < 0x00769d90      6602           bne.b 0x769d94
 > 0x00769d92      7e01           moveq 0x1, d7
 > 0x00769d94      1d47000c       move.b d7, 0xc(a6)
           0x00769d98      4cdf01c0       movem.l (a7)+, d6-d7/a0
           0x00769d9c      4e5e           unlk a6
           0x00769d9e      4e75           rts
            ; CALL XREF from MENUTYPECOM.do_arrow @ 0x76a0be
 300: MENUTYPECOM.action_key ();
           0x00769da0      4e56ffc6       link.w a6, 0xffc6
           0x00769da4      bfd5           cmpa.l (a5), a7
       < 0x00769da6      6206           bhi.b 0x769dae
          0x00769da8      44fc0002       move.w 0x2, ccr
          0x00769dac      4e76           trapv
       > 0x00769dae      defc0036       adda.w 0x36, a7
           0x00769db2      48e7ffc0       movem.l d0-d7/a0-a1, -(a7)
           0x00769db6      43f90086e67a   lea.l 0x86e67a, a1
           0x00769dbc      243cffff8000   move.l 0xffff8000, d2
           0x00769dc2      2a3c0000ffff   move.l 0xffff, d5
           0x00769dc8      7c01           moveq 0x1, d6
           0x00769dca      302e0008       move.w 0x8(a6), d0
           0x00769dce      0c400414       cmpi.w 0x414, d0
       < 0x00769dd2      6706           beq.b 0x769dda
          0x00769dd4      0c400416       cmpi.w 0x416, d0
      < 0x00769dd8      664a           bne.b 0x769e24
      > 0x00769dda      594f           subq.w 0x4, a7
          0x00769ddc      4267           clr.w -(a7)
          0x00769dde      4eb90048d992   jsr MENU2COM.get_numeric_val
          0x00769de4      544f           addq.w 0x2, a7
          0x00769de6      281f           move.l (a7)+, d4
          0x00769de8      4eb90040832a   jsr fcn.0040832a
          0x00769dee      2e04           move.l d4, d7
          0x00769df0      be86           cmp.l d6, d7
      < 0x00769df2      6c02           bge.b 0x769df6
         0x00769df4      7e01           moveq 0x1, d7
      > 0x00769df6      2051           movea.l (a1), a0
          0x00769df8      b1e8fffc       cmpa.l -0x4(a0), a0
      < 0x00769dfc      6702           beq.b 0x769e00
         0x00769dfe      4e4d           trap 0xd
      > 0x00769e00      7805           moveq 0x5, d4
          0x00769e02      2607           move.l d7, d3
          0x00769e04      4eb900406a74   jsr fcn.00406a74
          0x00769e0a      9882           sub.l d2, d4
          0x00769e0c      b885           cmp.l d5, d4
      < 0x00769e0e      6302           bls.b 0x769e12
         0x00769e10      4e4f           trap 0xf
      > 0x00769e12      d882           add.l d2, d4
          0x00769e14      31440012       move.w d4, 0x12(a0)
          0x00769e18      4484           neg.l d4
          0x00769e1a      9882           sub.l d2, d4
          0x00769e1c      b885           cmp.l d5, d4
      < 0x00769e1e      6302           bls.b 0x769e22
         0x00769e20      4e4f           trap 0xf
     > 0x00769e22      6056           bra.b 0x769e7a
     > 0x00769e24      0c400418       cmpi.w 0x418, d0
      < 0x00769e28      6706           beq.b 0x769e30
         0x00769e2a      0c40041a       cmpi.w 0x41a, d0
     < 0x00769e2e      6650           bne.b 0x769e80
     > 0x00769e30      594f           subq.w 0x4, a7
         0x00769e32      4267           clr.w -(a7)
         0x00769e34      4eb90048d992   jsr MENU2COM.get_numeric_val
         0x00769e3a      544f           addq.w 0x2, a7
         0x00769e3c      281f           move.l (a7)+, d4
         0x00769e3e      4eb90040832a   jsr fcn.0040832a
         0x00769e44      2e04           move.l d4, d7
         0x00769e46      be86           cmp.l d6, d7
     < 0x00769e48      6c02           bge.b 0x769e4c
        0x00769e4a      7e01           moveq 0x1, d7
     > 0x00769e4c      2051           movea.l (a1), a0
         0x00769e4e      b1e8fffc       cmpa.l -0x4(a0), a0
     < 0x00769e52      6702           beq.b 0x769e56
        0x00769e54      4e4d           trap 0xd
     > 0x00769e56      7805           moveq 0x5, d4
         0x00769e58      2607           move.l d7, d3
         0x00769e5a      4eb900406a74   jsr fcn.00406a74
         0x00769e60      2204           move.l d4, d1
         0x00769e62      4481           neg.l d1
         0x00769e64      9282           sub.l d2, d1
         0x00769e66      b285           cmp.l d5, d1
     < 0x00769e68      6302           bls.b 0x769e6c
        0x00769e6a      4e4f           trap 0xf
     > 0x00769e6c      d282           add.l d2, d1
         0x00769e6e      31410012       move.w d1, 0x12(a0)
         0x00769e72      9882           sub.l d2, d4
         0x00769e74      b885           cmp.l d5, d4
     < 0x00769e76      6302           bls.b 0x769e7a
        0x00769e78      4e4f           trap 0xf
     > 0x00769e7a      d882           add.l d2, d4
          0x00769e7c      31440014       move.w d4, 0x14(a0)
      > 0x00769e80      554f           subq.w 0x2, a7
           0x00769e82      3f3c0407       move.w 0x407, -(a7)
           0x00769e86      4eb9004aaa00   jsr MENUKEYBDCOM.key_down
           0x00769e8c      544f           addq.w 0x2, a7
           0x00769e8e      4a1f           tst.b (a7)+
       < 0x00769e90      6732           beq.b 0x769ec4
          0x00769e92      2051           movea.l (a1), a0
          0x00769e94      b1e8fffc       cmpa.l -0x4(a0), a0
      < 0x00769e98      6702           beq.b 0x769e9c
         0x00769e9a      4e4d           trap 0xd
      > 0x00769e9c      700f           moveq 0xf, d0
          0x00769e9e      c1e80012       muls.w 0x12(a0), d0
          0x00769ea2      9082           sub.l d2, d0
          0x00769ea4      b085           cmp.l d5, d0
      < 0x00769ea6      6302           bls.b 0x769eaa
         0x00769ea8      4e4f           trap 0xf
      > 0x00769eaa      d082           add.l d2, d0
          0x00769eac      31400012       move.w d0, 0x12(a0)
          0x00769eb0      700f           moveq 0xf, d0
          0x00769eb2      c1e80014       muls.w 0x14(a0), d0
          0x00769eb6      9082           sub.l d2, d0
          0x00769eb8      b085           cmp.l d5, d0
      < 0x00769eba      6302           bls.b 0x769ebe
         0x00769ebc      4e4f           trap 0xf
      > 0x00769ebe      d082           add.l d2, d0
          0x00769ec0      31400014       move.w d0, 0x14(a0)
       > 0x00769ec4      4cdf03ff       movem.l (a7)+, d0-d7/a0-a1
           0x00769ec8      4e5e           unlk a6
           0x00769eca      4e75           rts
            ; CALL XREF from MENUTYPECOM.control_hit @ 0x76a1ae
 610: MENUTYPECOM.do_arrow ();
           ; var int32_t var_8h @ a7+0x8
           0x00769ecc      4e56febe       link.w a6, 0xfebe
           0x00769ed0      bfd5           cmpa.l (a5), a7
       < 0x00769ed2      6206           bhi.b 0x769eda
          0x00769ed4      44fc0002       move.w 0x2, ccr
          0x00769ed8      4e76           trapv
       > 0x00769eda      defc0140       adda.w 0x140, a7
           0x00769ede      48e7fff0       movem.l d0-d7/a0-a3, -(a7)
           0x00769ee2      41f90086e7b0   lea.l 0x86e7b0, a0
           0x00769ee8      43f90086e7ae   lea.l 0x86e7ae, a1
           0x00769eee      45f900480fc2   lea.l MENUCOM.get_boxon, a2
           0x00769ef4      47f90086e7d8   lea.l 0x86e7d8, a3
           0x00769efa      343c0414       move.w 0x414, d2
           0x00769efe      363c0418       move.w 0x418, d3
           0x00769f02      383c041a       move.w 0x41a, d4
           0x00769f06      3a3c0416       move.w 0x416, d5
           0x00769f0a      7c0a           moveq 0xa, d6
           0x00769f0c      9efc0100       suba.w 0x100, a7
           0x00769f10      3f2c0010       move.w 0x10(a4), -(a7)
           0x00769f14      4eb90047fe10   jsr MENUCOM.param_str
           0x00769f1a      544f           addq.w 0x2, a7
           0x00769f1c      487a95e5       pea.l 0x763503(pc)
           0x00769f20      48780009       pea.l 0x9
           0x00769f24      2f17           move.l (a7), -(a7)
           0x00769f26      4eb9004047ea   jsr p_wts_o
           0x00769f2c      defc000c       adda.w 0xc, a7
           0x00769f30      486f0001       pea.l 0x1(a7)
           0x00769f34      42a7           clr.l -(a7)
           0x00769f36      1f6f00080003   move.b 0x8(a7), 0x3(a7)
           0x00769f3c      2f17           move.l (a7), -(a7)
           0x00769f3e      4eb9004047ea   jsr p_wts_o
           0x00769f44      defc010c       adda.w 0x10c, a7
           0x00769f48      4eb900404946   jsr p_wtln_o
           0x00769f4e      4a13           tst.b (a3)
       < 0x00769f50      673c           beq.b 0x769f8e
          0x00769f52      554f           subq.w 0x2, a7
          0x00769f54      3f390086e7a6   move.w 0x86e7a6, -(a7)
          0x00769f5a      4e92           jsr (a2)                    ; fcn.00000009+0x2
          0x00769f5c      544f           addq.w 0x2, a7
          0x00769f5e      4a1f           tst.b (a7)+
      < 0x00769f60      672c           beq.b 0x769f8e
         0x00769f62      4a2c0006       tst.b 0x6(a4)
     < 0x00769f66      6726           beq.b 0x769f8e
        0x00769f68      302c0004       move.w 0x4(a4), d0
        0x00769f6c      b042           cmp.w d2, d0
    < 0x00769f6e      6706           beq.b 0x769f76
       0x00769f70      b043           cmp.w d3, d0
   < 0x00769f72      6600008a       bne.w 0x769ffe
   > 0x00769f76      554f           subq.w 0x2, a7
       0x00769f78      3f390086e7ba   move.w 0x86e7ba, -(a7)
       0x00769f7e      4e92           jsr (a2)                    ; fcn.00000009+0x2
       0x00769f80      544f           addq.w 0x2, a7
       0x00769f82      4a1f           tst.b (a7)+
   < 0x00769f84      6678           bne.b 0x769ffe
      0x00769f86      3f390086e7ba   move.w 0x86e7ba, -(a7)
  < 0x00769f8c      6068           bra.b 0x769ff6
  > 0x00769f8e      4a13           tst.b (a3)
    < 0x00769f90      676c           beq.b 0x769ffe
       0x00769f92      4a2c0006       tst.b 0x6(a4)
   < 0x00769f96      6766           beq.b 0x769ffe
      0x00769f98      302c0004       move.w 0x4(a4), d0
      0x00769f9c      b044           cmp.w d4, d0
  < 0x00769f9e      6704           beq.b 0x769fa4
     0x00769fa0      b045           cmp.w d5, d0
 < 0x00769fa2      6626           bne.b 0x769fca
 > 0x00769fa4      554f           subq.w 0x2, a7
     0x00769fa6      3f10           move.w (a0), -(a7)
     0x00769fa8      4e92           jsr (a2)                    ; fcn.00000009+0x2
     0x00769faa      544f           addq.w 0x2, a7
     0x00769fac      4a1f           tst.b (a7)+
 < 0x00769fae      670a           beq.b 0x769fba
    0x00769fb0      3f10           move.w (a0), -(a7)
    0x00769fb2      4eb9004836a4   jsr MENUCOM.push_box
    0x00769fb8      544f           addq.w 0x2, a7
 > 0x00769fba      554f           subq.w 0x2, a7
     0x00769fbc      3f11           move.w (a1), -(a7)
     0x00769fbe      4e92           jsr (a2)                    ; fcn.00000009+0x2
     0x00769fc0      544f           addq.w 0x2, a7
     0x00769fc2      4a1f           tst.b (a7)+
 < 0x00769fc4      6638           bne.b 0x769ffe
    0x00769fc6      3f11           move.w (a1), -(a7)
 < 0x00769fc8      602c           bra.b 0x769ff6
 > 0x00769fca      b042           cmp.w d2, d0
 < 0x00769fcc      6704           beq.b 0x769fd2
    0x00769fce      b043           cmp.w d3, d0
 < 0x00769fd0      662c           bne.b 0x769ffe
 > 0x00769fd2      554f           subq.w 0x2, a7
     0x00769fd4      3f11           move.w (a1), -(a7)
     0x00769fd6      4e92           jsr (a2)                    ; fcn.00000009+0x2
     0x00769fd8      544f           addq.w 0x2, a7
     0x00769fda      4a1f           tst.b (a7)+
 < 0x00769fdc      670a           beq.b 0x769fe8
    0x00769fde      3f11           move.w (a1), -(a7)
    0x00769fe0      4eb9004836a4   jsr MENUCOM.push_box
    0x00769fe6      544f           addq.w 0x2, a7
 > 0x00769fe8      554f           subq.w 0x2, a7
     0x00769fea      3f10           move.w (a0), -(a7)
     0x00769fec      4e92           jsr (a2)                    ; fcn.00000009+0x2
     0x00769fee      544f           addq.w 0x2, a7
     0x00769ff0      4a1f           tst.b (a7)+
 < 0x00769ff2      660a           bne.b 0x769ffe
    0x00769ff4      3f10           move.w (a0), -(a7)
 > 0x00769ff6      4eb9004836a4   jsr MENUCOM.push_box
     0x00769ffc      544f           addq.w 0x2, a7
 > 0x00769ffe      7e01           moveq 0x1, d7
           0x0076a000      4a13           tst.b (a3)
       < 0x0076a002      6736           beq.b 0x76a03a
          0x0076a004      4a2c0006       tst.b 0x6(a4)
      < 0x0076a008      6630           bne.b 0x76a03a
         0x0076a00a      302c0004       move.w 0x4(a4), d0
         0x0076a00e      b044           cmp.w d4, d0
     < 0x0076a010      6704           beq.b 0x76a016
        0x0076a012      b045           cmp.w d5, d0
    < 0x0076a014      660e           bne.b 0x76a024
    > 0x0076a016      554f           subq.w 0x2, a7
        0x0076a018      3f10           move.w (a0), -(a7)
        0x0076a01a      4e92           jsr (a2)                    ; fcn.00000009+0x2
        0x0076a01c      544f           addq.w 0x2, a7
        0x0076a01e      4a1f           tst.b (a7)+
    < 0x0076a020      6702           beq.b 0x76a024
   < 0x0076a022      6014           bra.b 0x76a038
   > 0x0076a024      b042           cmp.w d2, d0
    < 0x0076a026      6704           beq.b 0x76a02c
       0x0076a028      b043           cmp.w d3, d0
   < 0x0076a02a      660e           bne.b 0x76a03a
   > 0x0076a02c      554f           subq.w 0x2, a7
       0x0076a02e      3f11           move.w (a1), -(a7)
       0x0076a030      4e92           jsr (a2)                    ; fcn.00000009+0x2
       0x0076a032      544f           addq.w 0x2, a7
       0x0076a034      4a1f           tst.b (a7)+
   < 0x0076a036      6702           beq.b 0x76a03a
   > 0x0076a038      7e00           moveq 0x0, d7
    > 0x0076a03a      4a07           tst.b d7
       < 0x0076a03c      67000086       beq.w 0x76a0c4
          0x0076a040      554f           subq.w 0x2, a7
          0x0076a042      4eb90048f0ee   jsr MENURIGHTCOM.get_rh_mode
          0x0076a048      101f           move.b (a7)+, d0
          0x0076a04a      0c000001       cmpi.b 0x1, d0
      < 0x0076a04e      6674           bne.b 0x76a0c4
         0x0076a050      302c0010       move.w 0x10(a4), d0
         0x0076a054      02400800       andi.w 0x800, d0
         0x0076a058      322c0010       move.w 0x10(a4), d1
         0x0076a05c      02412000       andi.w 0x2000, d1
         0x0076a060      487a94ab       pea.l 0x76350d(pc)
         0x0076a064      48780008       pea.l 0x8
         0x0076a068      2f17           move.l (a7), -(a7)
         0x0076a06a      4eb9004047ea   jsr p_wts_o
         0x0076a070      dec6           adda.w d6, a7
         0x0076a072      4217           clr.b (a7)
         0x0076a074      4a40           tst.w d0
     < 0x0076a076      6702           beq.b 0x76a07a
        0x0076a078      5217           addq.b 0x1, (a7)
     > 0x0076a07a      48780005       pea.l 0x5
         0x0076a07e      4eb90040718c   jsr p_wtb_o
         0x0076a084      5c4f           addq.w 0x6, a7
         0x0076a086      487a948e       pea.l 0x763516(pc)
         0x0076a08a      4878000a       pea.l 0xa
         0x0076a08e      2f17           move.l (a7), -(a7)
         0x0076a090      4eb9004047ea   jsr p_wts_o
         0x0076a096      dec6           adda.w d6, a7
         0x0076a098      4217           clr.b (a7)
         0x0076a09a      4a41           tst.w d1
     < 0x0076a09c      6702           beq.b 0x76a0a0
        0x0076a09e      5217           addq.b 0x1, (a7)
     > 0x0076a0a0      48780005       pea.l 0x5
         0x0076a0a4      4eb90040718c   jsr p_wtb_o
         0x0076a0aa      5c4f           addq.w 0x6, a7
         0x0076a0ac      4eb900404946   jsr p_wtln_o
         0x0076a0b2      4a40           tst.w d0
     < 0x0076a0b4      6702           beq.b 0x76a0b8
    < 0x0076a0b6      600c           bra.b 0x76a0c4
    > 0x0076a0b8      4a41           tst.w d1
        0x0076a0ba      3f2c0004       move.w 0x4(a4), -(a7)
        0x0076a0be      4ebafce0       jsr MENUTYPECOM.action_key(pc)
        0x0076a0c2      544f           addq.w 0x2, a7
    > 0x0076a0c4      4a13           tst.b (a3)
       < 0x0076a0c6      675e           beq.b 0x76a126
          0x0076a0c8      4a2c0006       tst.b 0x6(a4)
      < 0x0076a0cc      6658           bne.b 0x76a126
         0x0076a0ce      302c0004       move.w 0x4(a4), d0
         0x0076a0d2      b044           cmp.w d4, d0
     < 0x0076a0d4      6704           beq.b 0x76a0da
        0x0076a0d6      b045           cmp.w d5, d0
    < 0x0076a0d8      6610           bne.b 0x76a0ea
    > 0x0076a0da      554f           subq.w 0x2, a7
        0x0076a0dc      3f11           move.w (a1), -(a7)
        0x0076a0de      4e92           jsr (a2)                    ; fcn.00000009+0x2
        0x0076a0e0      544f           addq.w 0x2, a7
        0x0076a0e2      4a1f           tst.b (a7)+
    < 0x0076a0e4      6740           beq.b 0x76a126
       0x0076a0e6      3f11           move.w (a1), -(a7)
   < 0x0076a0e8      6034           bra.b 0x76a11e
   > 0x0076a0ea      b042           cmp.w d2, d0
   < 0x0076a0ec      6704           beq.b 0x76a0f2
      0x0076a0ee      b043           cmp.w d3, d0
  < 0x0076a0f0      6634           bne.b 0x76a126
  > 0x0076a0f2      554f           subq.w 0x2, a7
      0x0076a0f4      3f10           move.w (a0), -(a7)
      0x0076a0f6      4e92           jsr (a2)                    ; fcn.00000009+0x2
      0x0076a0f8      544f           addq.w 0x2, a7
      0x0076a0fa      4a1f           tst.b (a7)+
  < 0x0076a0fc      670a           beq.b 0x76a108
     0x0076a0fe      3f10           move.w (a0), -(a7)
     0x0076a100      4eb9004836a4   jsr MENUCOM.push_box
     0x0076a106      544f           addq.w 0x2, a7
  > 0x0076a108      554f           subq.w 0x2, a7
      0x0076a10a      3f390086e7ba   move.w 0x86e7ba, -(a7)
      0x0076a110      4e92           jsr (a2)                    ; fcn.00000009+0x2
      0x0076a112      544f           addq.w 0x2, a7
      0x0076a114      4a1f           tst.b (a7)+
  < 0x0076a116      670e           beq.b 0x76a126
     0x0076a118      3f390086e7ba   move.w 0x86e7ba, -(a7)
  > 0x0076a11e      4eb9004836a4   jsr MENUCOM.push_box
      0x0076a124      544f           addq.w 0x2, a7
  > 0x0076a126      4cdf0fff       movem.l (a7)+, d0-d7/a0-a3
           0x0076a12a      4e5e           unlk a6
           0x0076a12c      4e75           rts
            ; CALL XREF from MENUTYPECOM @ +0x8d84
 332: MENUTYPECOM.control_hit ();
           ; var int32_t var_8h @ a7+0x8
           0x0076a12e      4e56fed8       link.w a6, 0xfed8
           0x0076a132      bfd5           cmpa.l (a5), a7
       < 0x0076a134      6206           bhi.b 0x76a13c
          0x0076a136      44fc0002       move.w 0x2, ccr
          0x0076a13a      4e76           trapv
       > 0x0076a13c      defc0124       adda.w 0x124, a7
           0x0076a140      48e780e8       movem.l d0/a0-a2/a4, -(a7)
           0x0076a144      41eefffc       lea.l -0x4(a6), a0
           0x0076a148      43eefffe       lea.l -0x2(a6), a1
           0x0076a14c      45ee0008       lea.l 0x8(a6), a2
           0x0076a150      9efc0100       suba.w 0x100, a7
           0x0076a154      3f12           move.w (a2), -(a7)
           0x0076a156      4eb90047fe10   jsr MENUCOM.param_str
           0x0076a15c      544f           addq.w 0x2, a7
           0x0076a15e      487a93c1       pea.l 0x763521(pc)
           0x0076a162      4878000c       pea.l 0xc
           0x0076a166      2f17           move.l (a7), -(a7)
           0x0076a168      4eb9004047ea   jsr p_wts_o
           0x0076a16e      defc000c       adda.w 0xc, a7
           0x0076a172      486f0001       pea.l 0x1(a7)
           0x0076a176      42a7           clr.l -(a7)
           0x0076a178      1f6f00080003   move.b 0x8(a7), 0x3(a7)
           0x0076a17e      2f17           move.l (a7), -(a7)
           0x0076a180      4eb9004047ea   jsr p_wts_o
           0x0076a186      defc010c       adda.w 0x10c, a7
           0x0076a18a      4eb900404946   jsr p_wtln_o
           0x0076a190      3092           move.w (a2), (a0)
           0x0076a192      025007ff       andi.w 0x7ff, (a0)
           0x0076a196      4211           clr.b (a1)
           0x0076a198      3012           move.w (a2), d0
           0x0076a19a      02400800       andi.w 0x800, d0
       < 0x0076a19e      6602           bne.b 0x76a1a2
          0x0076a1a0      5211           addq.b 0x1, (a1)
       > 0x0076a1a2      3010           move.w (a0), d0
           0x0076a1a4      0c40041a       cmpi.w 0x41a, d0
       < 0x0076a1a8      6610           bne.b 0x76a1ba
    > 0x0076a1aa      49eefff8       lea.l -0x8(a6), a4
       0x0076a1ae      4ebafd1c       jsr MENUTYPECOM.do_arrow(pc)
       0x0076a1b2      286efff8       movea.l -0x8(a6), a4
   < 0x0076a1b6      600000ba       bra.w 0x76a272
   > 0x0076a1ba      3010           move.w (a0), d0
       0x0076a1bc      0c400416       cmpi.w 0x416, d0
   < 0x0076a1c0      6602           bne.b 0x76a1c4
   < 0x0076a1c2      60e6           bra.b 0x76a1aa
    > 0x0076a1c4      0c400418       cmpi.w 0x418, d0
    < 0x0076a1c8      6602           bne.b 0x76a1cc
    < 0x0076a1ca      60de           bra.b 0x76a1aa
     > 0x0076a1cc      0c400414       cmpi.w 0x414, d0
     < 0x0076a1d0      6602           bne.b 0x76a1d4
     < 0x0076a1d2      60d6           bra.b 0x76a1aa
      > 0x0076a1d4      0c400203       cmpi.w 0x203, d0
      < 0x0076a1d8      660a           bne.b 0x76a1e4
         0x0076a1da      3f390086e7b2   move.w 0x86e7b2, -(a7)
     < 0x0076a1e0      60000088       bra.w 0x76a26a
     > 0x0076a1e4      0c400201       cmpi.w 0x201, d0
     < 0x0076a1e8      660a           bne.b 0x76a1f4
        0x0076a1ea      1f11           move.b (a1), -(a7)
        0x0076a1ec      4ebaf8a0       jsr MENUTYPECOM.do_type_pos(pc)
        0x0076a1f0      544f           addq.w 0x2, a7
    < 0x0076a1f2      607e           bra.b 0x76a272
    > 0x0076a1f4      0c400204       cmpi.w 0x204, d0
    < 0x0076a1f8      6608           bne.b 0x76a202
       0x0076a1fa      3f390086e7b4   move.w 0x86e7b4, -(a7)
   < 0x0076a200      6068           bra.b 0x76a26a
   > 0x0076a202      0c400206       cmpi.w 0x206, d0
   < 0x0076a206      6608           bne.b 0x76a210
      0x0076a208      3f390086e7b6   move.w 0x86e7b6, -(a7)
  < 0x0076a20e      605a           bra.b 0x76a26a
  > 0x0076a210      0c400515       cmpi.w 0x515, d0
  < 0x0076a214      6608           bne.b 0x76a21e
     0x0076a216      3f390086e790   move.w 0x86e790, -(a7)
 < 0x0076a21c      604c           bra.b 0x76a26a
 > 0x0076a21e      0c400516       cmpi.w 0x516, d0
 < 0x0076a222      6608           bne.b 0x76a22c
    0x0076a224      3f390086e794   move.w 0x86e794, -(a7)
 < 0x0076a22a      603e           bra.b 0x76a26a
 > 0x0076a22c      0c400517       cmpi.w 0x517, d0
 < 0x0076a230      6608           bne.b 0x76a23a
 > 0x0076a232      3f390086e792   move.w 0x86e792, -(a7)
 < 0x0076a238      6030           bra.b 0x76a26a
 > 0x0076a23a      0c400518       cmpi.w 0x518, d0
 < 0x0076a23e      6602           bne.b 0x76a242
 < 0x0076a240      60f0           bra.b 0x76a232
 > 0x0076a242      0c400208       cmpi.w 0x208, d0
 < 0x0076a246      6608           bne.b 0x76a250
    0x0076a248      3f390086e7b8   move.w 0x86e7b8, -(a7)
 < 0x0076a24e      601a           bra.b 0x76a26a
 > 0x0076a250      0c400204       cmpi.w 0x204, d0
 < 0x0076a254      6608           bne.b 0x76a25e
    0x0076a256      3f390086e7a8   move.w 0x86e7a8, -(a7)
 < 0x0076a25c      600c           bra.b 0x76a26a
 > 0x0076a25e      0c400208       cmpi.w 0x208, d0
 < 0x0076a262      660e           bne.b 0x76a272
    0x0076a264      3f390086e7a6   move.w 0x86e7a6, -(a7)
 > 0x0076a26a      1f11           move.b (a1), -(a7)
        0x0076a26c      4ebaf7c8       jsr MENUTYPECOM.do_box_onoff(pc)
        0x0076a270      584f           addq.w 0x4, a7
   > 0x0076a272      4cdf1701       movem.l (a7)+, d0/a0-a2/a4
           0x0076a276      4e5e           unlk a6
           0x0076a278      4e75           rts
 88: MENUTYPECOM.next_font_title ();
           0x0076a27a      4e56ffe0       link.w a6, 0xffe0
           0x0076a27e      bfd5           cmpa.l (a5), a7
       < 0x0076a280      6206           bhi.b 0x76a288
          0x0076a282      44fc0002       move.w 0x2, ccr
          0x0076a286      4e76           trapv
       > 0x0076a288      defc0020       adda.w 0x20, a7
           0x0076a28c      48e780e0       movem.l d0/a0-a2, -(a7)
           0x0076a290      45f90086e6cc   lea.l 0x86e6cc, a2
           0x0076a296      7001           moveq 0x1, d0
           0x0076a298      4a2e0008       tst.b 0x8(a6)
       < 0x0076a29c      6714           beq.b 0x76a2b2
          0x0076a29e      2052           movea.l (a2), a0
          0x0076a2a0      b1e8fffc       cmpa.l -0x4(a0), a0
      < 0x0076a2a4      6702           beq.b 0x76a2a8
         0x0076a2a6      4e4d           trap 0xd
      > 0x0076a2a8      22680004       movea.l 0x4(a0), a1
          0x0076a2ac      b2c0           cmpa.w d0, a1
      < 0x0076a2ae      671a           beq.b 0x76a2ca
     < 0x0076a2b0      6010           bra.b 0x76a2c2
     > 0x0076a2b2      2052           movea.l (a2), a0
         0x0076a2b4      b1e8fffc       cmpa.l -0x4(a0), a0
     < 0x0076a2b8      6702           beq.b 0x76a2bc
        0x0076a2ba      4e4d           trap 0xd
     > 0x0076a2bc      2250           movea.l (a0), a1
         0x0076a2be      b2c0           cmpa.w d0, a1
     < 0x0076a2c0      6708           beq.b 0x76a2ca
     > 0x0076a2c2      2f09           move.l a1, -(a7)
         0x0076a2c4      4ebaca34       jsr MENUTYPECOM.sel_font_title(pc)
         0x0076a2c8      584f           addq.w 0x4, a7
      > 0x0076a2ca      4cdf0701       movem.l (a7)+, d0/a0-a2
           0x0076a2ce      4e5e           unlk a6
           0x0076a2d0      4e75           rts
            ; CALL XREF from MENUTYPECOM.add_return @ 0x76a66a
            ; CALL XREF from MENUTYPECOM.delete_char @ 0x76aa3c
            ; CALL XREFS from MENUTYPECOM.delete_line @ 0x76ac2e, 0x76ac8a
 176: MENUTYPECOM.vert_move_lines ();
           0x0076a2d2      4e56ffca       link.w a6, 0xffca
           0x0076a2d6      bfd5           cmpa.l (a5), a7
       < 0x0076a2d8      6206           bhi.b 0x76a2e0
          0x0076a2da      44fc0002       move.w 0x2, ccr
          0x0076a2de      4e76           trapv
       > 0x0076a2e0      defc002e       adda.w 0x2e, a7
           0x0076a2e4      48e7f880       movem.l d0-d4/a0, -(a7)
           0x0076a2e8      243cffff8000   move.l 0xffff8000, d2
       > 0x0076a2ee      206e0008       movea.l 0x8(a6), a0
          0x0076a2f2      b0fc0001       cmpa.w 0x1, a0
      < 0x0076a2f6      67000082       beq.w 0x76a37a
         0x0076a2fa      b1e8fffc       cmpa.l -0x4(a0), a0
     < 0x0076a2fe      6702           beq.b 0x76a302
        0x0076a300      4e4d           trap 0xd
     > 0x0076a302      30280012       move.w 0x12(a0), d0
         0x0076a306      48c0           ext.l d0
         0x0076a308      d0ae000c       add.l 0xc(a6), d0
         0x0076a30c      9082           sub.l d2, d0
         0x0076a30e      0c800000ffff   cmpi.l 0xffff, d0
     < 0x0076a314      6302           bls.b 0x76a318
        0x0076a316      4e4f           trap 0xf
     > 0x0076a318      d082           add.l d2, d0
         0x0076a31a      31400012       move.w d0, 0x12(a0)
         0x0076a31e      554f           subq.w 0x2, a7
         0x0076a320      3f3c002f       move.w 0x2f, -(a7)
         0x0076a324      4eb900480fc2   jsr MENUCOM.get_boxon
         0x0076a32a      544f           addq.w 0x2, a7
         0x0076a32c      4a1f           tst.b (a7)+
     < 0x0076a32e      6742           beq.b 0x76a372
        0x0076a330      42aefff8       clr.l -0x8(a6)
        0x0076a334      48c0           ext.l d0
        0x0076a336      2200           move.l d0, d1
        0x0076a338      e181           asl.l 0x8, d1
        0x0076a33a      eb81           asl.l 0x5, d1
        0x0076a33c      2d41fffc       move.l d1, -0x4(a6)
        0x0076a340      4227           clr.b -(a7)
        0x0076a342      486efff8       pea.l -0x8(a6)
        0x0076a346      4227           clr.b -(a7)
        0x0076a348      4eb9004feeda   jsr MENUGRIDCOM.next_tab_pos
        0x0076a34e      504f           addq.w 0x8, a7
        0x0076a350      282efffc       move.l -0x4(a6), d4
        0x0076a354      263c00002000   move.l 0x2000, d3
        0x0076a35a      4eb900406b50   jsr fcn.00406b50
        0x0076a360      9882           sub.l d2, d4
        0x0076a362      0c840000ffff   cmpi.l 0xffff, d4
    < 0x0076a368      6302           bls.b 0x76a36c
       0x0076a36a      4e4f           trap 0xf
    > 0x0076a36c      d882           add.l d2, d4
        0x0076a36e      31440012       move.w d4, 0x12(a0)
     > 0x0076a372      2d500008       move.l (a0), 0x8(a6)
      < 0x0076a376      6000ff76       bra.w 0x76a2ee
      > 0x0076a37a      4cdf011f       movem.l (a7)+, d0-d4/a0
           0x0076a37e      4e5e           unlk a6
           0x0076a380      4e75           rts
            ; CALL XREF from MENUTYPECOM.add_return @ 0x76a718
            ; CALL XREF from MENUTYPECOM.delete_char @ 0x76aa22
            ; CALL XREFS from MENUTYPECOM.delete_line @ 0x76ac14, 0x76ac70
 178: MENUTYPECOM.horiz_move_line ();
           0x0076a382      4e56ffd0       link.w a6, 0xffd0
           0x0076a386      bfd5           cmpa.l (a5), a7
       < 0x0076a388      6206           bhi.b 0x76a390
          0x0076a38a      44fc0002       move.w 0x2, ccr
          0x0076a38e      4e76           trapv
       > 0x0076a390      defc0028       adda.w 0x28, a7
           0x0076a394      48e7d880       movem.l d0-d1/d3-d4/a0, -(a7)
           0x0076a398      223cffff8000   move.l 0xffff8000, d1
       > 0x0076a39e      206e0008       movea.l 0x8(a6), a0
          0x0076a3a2      b0fc0001       cmpa.w 0x1, a0
      < 0x0076a3a6      67000084       beq.w 0x76a42c
         0x0076a3aa      b1e8fffc       cmpa.l -0x4(a0), a0
     < 0x0076a3ae      6702           beq.b 0x76a3b2
        0x0076a3b0      4e4d           trap 0xd
     > 0x0076a3b2      30280010       move.w 0x10(a0), d0
         0x0076a3b6      48c0           ext.l d0
         0x0076a3b8      d0ae000c       add.l 0xc(a6), d0
         0x0076a3bc      9081           sub.l d1, d0
         0x0076a3be      0c800000ffff   cmpi.l 0xffff, d0
     < 0x0076a3c4      6302           bls.b 0x76a3c8
        0x0076a3c6      4e4f           trap 0xf
     > 0x0076a3c8      d081           add.l d1, d0
         0x0076a3ca      31400010       move.w d0, 0x10(a0)
         0x0076a3ce      554f           subq.w 0x2, a7
         0x0076a3d0      3f3c002f       move.w 0x2f, -(a7)
         0x0076a3d4      4eb900480fc2   jsr MENUCOM.get_boxon
         0x0076a3da      544f           addq.w 0x2, a7
         0x0076a3dc      4a1f           tst.b (a7)+
     < 0x0076a3de      6744           beq.b 0x76a424
        0x0076a3e0      42aefff8       clr.l -0x8(a6)
        0x0076a3e4      30280012       move.w 0x12(a0), d0
        0x0076a3e8      48c0           ext.l d0
        0x0076a3ea      e180           asl.l 0x8, d0
        0x0076a3ec      eb80           asl.l 0x5, d0
        0x0076a3ee      2d40fffc       move.l d0, -0x4(a6)
        0x0076a3f2      4227           clr.b -(a7)
        0x0076a3f4      486efff8       pea.l -0x8(a6)
        0x0076a3f8      4227           clr.b -(a7)
        0x0076a3fa      4eb9004feeda   jsr MENUGRIDCOM.next_tab_pos
        0x0076a400      504f           addq.w 0x8, a7
        0x0076a402      282efffc       move.l -0x4(a6), d4
        0x0076a406      263c00002000   move.l 0x2000, d3
        0x0076a40c      4eb900406b50   jsr fcn.00406b50
        0x0076a412      9881           sub.l d1, d4
        0x0076a414      0c840000ffff   cmpi.l 0xffff, d4
    < 0x0076a41a      6302           bls.b 0x76a41e
       0x0076a41c      4e4f           trap 0xf
    > 0x0076a41e      d881           add.l d1, d4
        0x0076a420      31440012       move.w d4, 0x12(a0)
     > 0x0076a424      2d500008       move.l (a0), 0x8(a6)
      < 0x0076a428      6000ff74       bra.w 0x76a39e
      > 0x0076a42c      4cdf011b       movem.l (a7)+, d0-d1/d3-d4/a0
           0x0076a430      4e5e           unlk a6
           0x0076a432      4e75           rts
            ; CALL XREF from MENUTYPECOM @ +0x82ba
 840: MENUTYPECOM.add_return ();
           ; var int32_t var_12h @ a6-0x12
           0x0076a434      4e56ff88       link.w a6, 0xff88
           0x0076a438      bfd5           cmpa.l (a5), a7
       < 0x0076a43a      6206           bhi.b 0x76a442
          0x0076a43c      44fc0002       move.w 0x2, ccr
          0x0076a440      4e76           trapv
       > 0x0076a442      defc005a       adda.w 0x5a, a7
           0x0076a446      48e7fdf8       movem.l d0-d5/d7/a0-a4, -(a7)
           0x0076a44a      7401           moveq 0x1, d2
           0x0076a44c      7a2f           moveq 0x2f, d5
           0x0076a44e      486effee       pea.l -0x12(a6)
           0x0076a452      4878002c       pea.l 0x2c
           0x0076a456      4eb900403a92   jsr p_New
           0x0076a45c      504f           addq.w 0x8, a7
           0x0076a45e      206effee       movea.l -0x12(a6), a0
           0x0076a462      b1e8fffc       cmpa.l -0x4(a0), a0
       < 0x0076a466      6702           beq.b 0x76a46a
          0x0076a468      4e4d           trap 0xd
       > 0x0076a46a      2f08           move.l a0, -(a7)
           0x0076a46c      22790086e6e8   movea.l 0x86e6e8, a1
           0x0076a472      b3e9fffc       cmpa.l -0x4(a1), a1
       < 0x0076a476      6702           beq.b 0x76a47a
          0x0076a478      4e4d           trap 0xd
       > 0x0076a47a      2f09           move.l a1, -(a7)
           0x0076a47c      2448           movea.l a0, a2
           0x0076a47e      702b           moveq 0x2b, d0
       > 0x0076a480      14d9           move.b (a1)+, (a2)+
       < 0x0076a482      51c8fffc       dbra d0, 0x76a480
           0x0076a486      21790086e6e8.  move.l 0x86e6e8, 0x4(a0)
           0x0076a48e      2257           movea.l (a7), a1
           0x0076a490      2091           move.l (a1), (a0)
           0x0076a492      42280022       clr.b 0x22(a0)
           0x0076a496      42280023       clr.b 0x23(a0)
           0x0076a49a      2450           movea.l (a0), a2
           0x0076a49c      b4c2           cmpa.w d2, a2
       < 0x0076a49e      670e           beq.b 0x76a4ae
          0x0076a4a0      b5eafffc       cmpa.l -0x4(a2), a2
      < 0x0076a4a4      6702           beq.b 0x76a4a8
         0x0076a4a6      4e4d           trap 0xd
      > 0x0076a4a8      256effee0004   move.l -0x12(a6), 0x4(a2)
       > 0x0076a4ae      22aeffee       move.l -0x12(a6), (a1)
           0x0076a4b2      554f           subq.w 0x2, a7
           0x0076a4b4      2f390086e6d0   move.l 0x86e6d0, -(a7)
           0x0076a4ba      3f3c000d       move.w 0xd, -(a7)
           0x0076a4be      2f28001a       move.l 0x1a(a0), -(a7)
           0x0076a4c2      3f280020       move.w 0x20(a0), -(a7)
           0x0076a4c6      4267           clr.w -(a7)
           0x0076a4c8      4267           clr.w -(a7)
           0x0076a4ca      4227           clr.b -(a7)
           0x0076a4cc      4227           clr.b -(a7)
           0x0076a4ce      2f390086e7da   move.l 0x86e7da, -(a7)
           0x0076a4d4      486effe2       pea.l -0x1e(a6)
           0x0076a4d8      4eb90076eba8   jsr TYPECOM.make_new_char
           0x0076a4de      defc001c       adda.w 0x1c, a7
           0x0076a4e2      4a1f           tst.b (a7)+
           0x0076a4e4      22790086e6e8   movea.l 0x86e6e8, a1
           0x0076a4ea      b3e9fffc       cmpa.l -0x4(a1), a1
       < 0x0076a4ee      6702           beq.b 0x76a4f2
          0x0076a4f0      4e4d           trap 0xd
       > 0x0076a4f2      24790086e6d8   movea.l 0x86e6d8, a2
           0x0076a4f8      b5e9000c       cmpa.l 0xc(a1), a2
       < 0x0076a4fc      6644           bne.b 0x76a542
          0x0076a4fe      246effe2       movea.l -0x1e(a6), a2
          0x0076a502      b5eafffc       cmpa.l -0x4(a2), a2
      < 0x0076a506      6702           beq.b 0x76a50a
         0x0076a508      4e4d           trap 0xd
      > 0x0076a50a      2482           move.l d2, (a2)
          0x0076a50c      25420004       move.l d2, 0x4(a2)
          0x0076a510      216effe20008   move.l -0x1e(a6), 0x8(a0)
          0x0076a516      21680008000c   move.l 0x8(a0), 0xc(a0)
          0x0076a51c      23e800080086.  move.l 0x8(a0), 0x86e6d8.l
          0x0076a524      2469000c       movea.l 0xc(a1), a2
          0x0076a528      b5eafffc       cmpa.l -0x4(a2), a2
      < 0x0076a52c      6702           beq.b 0x76a530
         0x0076a52e      4e4d           trap 0xd
      > 0x0076a530      2852           movea.l (a2), a4
          0x0076a532      2d790086e6e8.  move.l 0x86e6e8, -0xe(a6)
          0x0076a53a      3642           movea.w d2, a3
          0x0076a53c      2d42fff6       move.l d2, -0xa(a6)
      < 0x0076a540      607a           bra.b 0x76a5bc
      > 0x0076a542      214a0008       move.l a2, 0x8(a0)
          0x0076a546      2169000c000c   move.l 0xc(a1), 0xc(a0)
          0x0076a54c      206effe2       movea.l -0x1e(a6), a0
          0x0076a550      b1e8fffc       cmpa.l -0x4(a0), a0
      < 0x0076a554      6702           beq.b 0x76a558
         0x0076a556      4e4d           trap 0xd
      > 0x0076a558      21420004       move.l d2, 0x4(a0)
          0x0076a55c      b5eafffc       cmpa.l -0x4(a2), a2
      < 0x0076a560      6702           beq.b 0x76a564
         0x0076a562      4e4d           trap 0xd
      > 0x0076a564      2092           move.l (a2), (a0)
          0x0076a566      2052           movea.l (a2), a0
          0x0076a568      b0c2           cmpa.w d2, a0
      < 0x0076a56a      6608           bne.b 0x76a574
         0x0076a56c      236effe20008   move.l -0x1e(a6), 0x8(a1)
     < 0x0076a572      600e           bra.b 0x76a582
     > 0x0076a574      b1e8fffc       cmpa.l -0x4(a0), a0
     < 0x0076a578      6702           beq.b 0x76a57c
        0x0076a57a      4e4d           trap 0xd
     > 0x0076a57c      216effe20004   move.l -0x1e(a6), 0x4(a0)
     > 0x0076a582      236effe2000c   move.l -0x1e(a6), 0xc(a1)
          0x0076a588      20790086e6d8   movea.l 0x86e6d8, a0
          0x0076a58e      b1e8fffc       cmpa.l -0x4(a0), a0
      < 0x0076a592      6702           beq.b 0x76a596
         0x0076a594      4e4d           trap 0xd
      > 0x0076a596      2082           move.l d2, (a0)
          0x0076a598      2069000c       movea.l 0xc(a1), a0
          0x0076a59c      b1e8fffc       cmpa.l -0x4(a0), a0
      < 0x0076a5a0      6702           beq.b 0x76a5a4
         0x0076a5a2      4e4d           trap 0xd
      > 0x0076a5a4      2850           movea.l (a0), a4
          0x0076a5a6      2d790086e6e8.  move.l 0x86e6e8, -0xe(a6)
          0x0076a5ae      206f0004       movea.l 0x4(a7), a0
          0x0076a5b2      26680008       movea.l 0x8(a0), a3
          0x0076a5b6      2d6effeefff6   move.l -0x12(a6), -0xa(a6)
      > 0x0076a5bc      4a390086e7de   tst.b 0x86e7de
       < 0x0076a5c2      670c           beq.b 0x76a5d0
          0x0076a5c4      10390086e7de   move.b 0x86e7de, d0
          0x0076a5ca      b002           cmp.b d2, d0
      < 0x0076a5cc      660000a4       bne.w 0x76a672
      > 0x0076a5d0      24690004       movea.l 0x4(a1), a2
          0x0076a5d4      b4c2           cmpa.w d2, a2
      < 0x0076a5d6      673e           beq.b 0x76a616
         0x0076a5d8      554f           subq.w 0x2, a7
         0x0076a5da      3f05           move.w d5, -(a7)
         0x0076a5dc      4eb900480fc2   jsr MENUCOM.get_boxon
         0x0076a5e2      544f           addq.w 0x2, a7
         0x0076a5e4      4a1f           tst.b (a7)+
     < 0x0076a5e6      662e           bne.b 0x76a616
        0x0076a5e8      24790086e6e8   movea.l 0x86e6e8, a2
        0x0076a5ee      b5eafffc       cmpa.l -0x4(a2), a2
    < 0x0076a5f2      6702           beq.b 0x76a5f6
       0x0076a5f4      4e4d           trap 0xd
    > 0x0076a5f6      206a0004       movea.l 0x4(a2), a0
        0x0076a5fa      b1e8fffc       cmpa.l -0x4(a0), a0
    < 0x0076a5fe      6702           beq.b 0x76a602
       0x0076a600      4e4d           trap 0xd
    > 0x0076a602      302a0012       move.w 0x12(a2), d0
        0x0076a606      48c0           ext.l d0
        0x0076a608      32280012       move.w 0x12(a0), d1
        0x0076a60c      48c1           ext.l d1
        0x0076a60e      4481           neg.l d1
        0x0076a610      d280           add.l d0, d1
        0x0076a612      2e01           move.l d1, d7
    < 0x0076a614      604e           bra.b 0x76a664
    > 0x0076a616      24790086e6d0   movea.l 0x86e6d0, a2
         0x0076a61c      b5eafffc       cmpa.l -0x4(a2), a2
     < 0x0076a620      6702           beq.b 0x76a624
        0x0076a622      4e4d           trap 0xd
     > 0x0076a624      282a000c       move.l 0xc(a2), d4
         0x0076a628      4eb900408686   jsr fcn.00408686
         0x0076a62e      2604           move.l d4, d3
         0x0076a630      206f0004       movea.l 0x4(a7), a0
         0x0076a634      2828001a       move.l 0x1a(a0), d4
         0x0076a638      4eb900407ff8   jsr fcn.00407ff8
         0x0076a63e      2f04           move.l d4, -(a7)
         0x0076a640      282a0008       move.l 0x8(a2), d4
         0x0076a644      4eb900408686   jsr fcn.00408686
         0x0076a64a      2617           move.l (a7), d3
         0x0076a64c      4eb900407e92   jsr fcn.00407e92
         0x0076a652      584f           addq.w 0x4, a7
         0x0076a654      4eb900408224   jsr fcn.00408224
         0x0076a65a      7608           moveq 0x8, d3
         0x0076a65c      4eb900406a74   jsr fcn.00406a74
         0x0076a662      2e04           move.l d4, d7
    > 0x0076a664      2f07           move.l d7, -(a7)
          0x0076a666      2f2effee       move.l -0x12(a6), -(a7)
          0x0076a66a      4ebafc66       jsr MENUTYPECOM.vert_move_lines(pc)
      < 0x0076a66e      600000ac       bra.w 0x76a71c
      > 0x0076a672      24690004       movea.l 0x4(a1), a2
          0x0076a676      b4c2           cmpa.w d2, a2
      < 0x0076a678      673e           beq.b 0x76a6b8
         0x0076a67a      554f           subq.w 0x2, a7
         0x0076a67c      3f05           move.w d5, -(a7)
         0x0076a67e      4eb900480fc2   jsr MENUCOM.get_boxon
         0x0076a684      544f           addq.w 0x2, a7
         0x0076a686      4a1f           tst.b (a7)+
     < 0x0076a688      662e           bne.b 0x76a6b8
        0x0076a68a      24790086e6e8   movea.l 0x86e6e8, a2
        0x0076a690      b5eafffc       cmpa.l -0x4(a2), a2
    < 0x0076a694      6702           beq.b 0x76a698
       0x0076a696      4e4d           trap 0xd
    > 0x0076a698      206a0004       movea.l 0x4(a2), a0
        0x0076a69c      b1e8fffc       cmpa.l -0x4(a0), a0
    < 0x0076a6a0      6702           beq.b 0x76a6a4
       0x0076a6a2      4e4d           trap 0xd
    > 0x0076a6a4      302a0010       move.w 0x10(a2), d0
        0x0076a6a8      48c0           ext.l d0
        0x0076a6aa      32280010       move.w 0x10(a0), d1
        0x0076a6ae      48c1           ext.l d1
        0x0076a6b0      4481           neg.l d1
        0x0076a6b2      d280           add.l d0, d1
        0x0076a6b4      2e01           move.l d1, d7
    < 0x0076a6b6      605a           bra.b 0x76a712
    > 0x0076a6b8      24790086e6d0   movea.l 0x86e6d0, a2
         0x0076a6be      b5eafffc       cmpa.l -0x4(a2), a2
     < 0x0076a6c2      6702           beq.b 0x76a6c6
        0x0076a6c4      4e4d           trap 0xd
     > 0x0076a6c6      282a000c       move.l 0xc(a2), d4
         0x0076a6ca      4eb900408686   jsr fcn.00408686
         0x0076a6d0      2604           move.l d4, d3
         0x0076a6d2      206f0004       movea.l 0x4(a7), a0
         0x0076a6d6      2828001a       move.l 0x1a(a0), d4
         0x0076a6da      4eb900407ff8   jsr fcn.00407ff8
         0x0076a6e0      2f04           move.l d4, -(a7)
         0x0076a6e2      282a0008       move.l 0x8(a2), d4
         0x0076a6e6      4eb900408686   jsr fcn.00408686
         0x0076a6ec      2617           move.l (a7), d3
         0x0076a6ee      4eb900407e92   jsr fcn.00407e92
         0x0076a6f4      584f           addq.w 0x4, a7
         0x0076a6f6      4eb900408224   jsr fcn.00408224
         0x0076a6fc      7608           moveq 0x8, d3
         0x0076a6fe      4eb900406a74   jsr fcn.00406a74
         0x0076a704      2e04           move.l d4, d7
         0x0076a706      10390086e7df   move.b 0x86e7df, d0
         0x0076a70c      b002           cmp.b d2, d0
     < 0x0076a70e      6602           bne.b 0x76a712
        0x0076a710      4487           neg.l d7
    > 0x0076a712      2f07           move.l d7, -(a7)
          0x0076a714      2f2effee       move.l -0x12(a6), -(a7)
          0x0076a718      4ebafc68       jsr MENUTYPECOM.horiz_move_line(pc)
       > 0x0076a71c      504f           addq.w 0x8, a7
           0x0076a71e      23eeffee0086.  move.l -0x12(a6), 0x86e6e8.l
           0x0076a726      22790086e6d0   movea.l 0x86e6d0, a1
           0x0076a72c      b3e9fffc       cmpa.l -0x4(a1), a1
       < 0x0076a730      6702           beq.b 0x76a734
          0x0076a732      4e4d           trap 0xd
       > 0x0076a734      4a29051a       tst.b 0x51a(a1)
       < 0x0076a738      6718           beq.b 0x76a752
          0x0076a73a      2f0c           move.l a4, -(a7)
          0x0076a73c      2f2efff2       move.l -0xe(a6), -(a7)
          0x0076a740      4ebab67c       jsr MENUTYPECOM.non_latin_check(pc)
          0x0076a744      584f           addq.w 0x4, a7
          0x0076a746      2e8b           move.l a3, (a7)
          0x0076a748      2f2efff6       move.l -0xa(a6), -(a7)
          0x0076a74c      4ebab670       jsr MENUTYPECOM.non_latin_check(pc)
          0x0076a750      504f           addq.w 0x8, a7
       > 0x0076a752      5c4f           addq.w 0x6, a7
           0x0076a754      1ebc0006       move.b 0x6, (a7)
           0x0076a758      4eba9c72       jsr MENUTYPECOM.update_type(pc)
           0x0076a75c      544f           addq.w 0x2, a7
           0x0076a75e      20790086e6d8   movea.l 0x86e6d8, a0
           0x0076a764      b1e8fffc       cmpa.l -0x4(a0), a0
       < 0x0076a768      6702           beq.b 0x76a76c
          0x0076a76a      4e4d           trap 0xd
       > 0x0076a76c      23e800520086.  move.l 0x52(a0), 0x86e6f0.l
           0x0076a774      4cdf1fbf       movem.l (a7)+, d0-d5/d7/a0-a4
           0x0076a778      4e5e           unlk a6
           0x0076a77a      4e75           rts
            ; CALL XREFS from MENUTYPECOM.delete_char @ 0x76a988, 0x76aaac
 408: MENUTYPECOM.remove_char ();
           0x0076a77c      4e56ffb2       link.w a6, 0xffb2
           0x0076a780      bfd5           cmpa.l (a5), a7
       < 0x0076a782      6206           bhi.b 0x76a78a
          0x0076a784      44fc0002       move.w 0x2, ccr
          0x0076a788      4e76           trapv
       > 0x0076a78a      defc0046       adda.w 0x46, a7
           0x0076a78e      48e7c0f8       movem.l d0-d1/a0-a4, -(a7)
           0x0076a792      49eefffc       lea.l -0x4(a6), a4
           0x0076a796      7201           moveq 0x1, d1
           0x0076a798      20790086e6d0   movea.l 0x86e6d0, a0
           0x0076a79e      b1e8fffc       cmpa.l -0x4(a0), a0
       < 0x0076a7a2      6702           beq.b 0x76a7a6
          0x0076a7a4      4e4d           trap 0xd
       > 0x0076a7a6      4a28051a       tst.b 0x51a(a0)
       < 0x0076a7aa      660000fc       bne.w 0x76a8a8
          0x0076a7ae      206e000c       movea.l 0xc(a6), a0
          0x0076a7b2      b1e8fffc       cmpa.l -0x4(a0), a0
      < 0x0076a7b6      6702           beq.b 0x76a7ba
         0x0076a7b8      4e4d           trap 0xd
      > 0x0076a7ba      554f           subq.w 0x2, a7
          0x0076a7bc      30280010       move.w 0x10(a0), d0
          0x0076a7c0      48c0           ext.l d0
          0x0076a7c2      2f00           move.l d0, -(a7)
          0x0076a7c4      4eb9004a114e   jsr MENUKEYBDCOM.get_char_accent
          0x0076a7ca      584f           addq.w 0x4, a7
          0x0076a7cc      4a1f           tst.b (a7)+
      < 0x0076a7ce      670000d8       beq.w 0x76a8a8
         0x0076a7d2      2250           movea.l (a0), a1
         0x0076a7d4      b2c1           cmpa.w d1, a1
     < 0x0076a7d6      670000d0       beq.w 0x76a8a8
        0x0076a7da      2250           movea.l (a0), a1
        0x0076a7dc      b3e9fffc       cmpa.l -0x4(a1), a1
    < 0x0076a7e0      6702           beq.b 0x76a7e4
       0x0076a7e2      4e4d           trap 0xd
    > 0x0076a7e4      30290010       move.w 0x10(a1), d0
        0x0076a7e8      0c400089       cmpi.w 0x89, d0
    < 0x0076a7ec      660000ba       bne.w 0x76a8a8
       0x0076a7f0      554f           subq.w 0x2, a7
       0x0076a7f2      2f390086e6d0   move.l 0x86e6d0, -(a7)
       0x0076a7f8      3f3c0069       move.w 0x69, -(a7)
       0x0076a7fc      2f290038       move.l 0x38(a1), -(a7)
       0x0076a800      24790086e6e8   movea.l 0x86e6e8, a2
       0x0076a806      b5eafffc       cmpa.l -0x4(a2), a2
   < 0x0076a80a      6702           beq.b 0x76a80e
      0x0076a80c      4e4d           trap 0xd
   > 0x0076a80e      3f2a0020       move.w 0x20(a2), -(a7)
       0x0076a812      20290048       move.l 0x48(a1), d0
       0x0076a816      0480ffff8000   subi.l 0xffff8000, d0
       0x0076a81c      0c800000ffff   cmpi.l 0xffff, d0
   < 0x0076a822      6302           bls.b 0x76a826
      0x0076a824      4e4f           trap 0xf
   > 0x0076a826      0680ffff8000   addi.l 0xffff8000, d0
       0x0076a82c      3f00           move.w d0, -(a7)
       0x0076a82e      4267           clr.w -(a7)
       0x0076a830      1f290050       move.b 0x50(a1), -(a7)
       0x0076a834      1f290051       move.b 0x51(a1), -(a7)
       0x0076a838      2f390086e7da   move.l 0x86e7da, -(a7)
       0x0076a83e      4854           pea.l (a4)
       0x0076a840      4eb90076eba8   jsr TYPECOM.make_new_char
       0x0076a846      defc001c       adda.w 0x1c, a7
       0x0076a84a      4a1f           tst.b (a7)+
   < 0x0076a84c      675a           beq.b 0x76a8a8
      0x0076a84e      2d50fff8       move.l (a0), -0x8(a6)
      0x0076a852      246efff8       movea.l -0x8(a6), a2
      0x0076a856      b5eafffc       cmpa.l -0x4(a2), a2
  < 0x0076a85a      6702           beq.b 0x76a85e
     0x0076a85c      4e4d           trap 0xd
  > 0x0076a85e      2652           movea.l (a2), a3
      0x0076a860      b6c1           cmpa.w d1, a3
  < 0x0076a862      670e           beq.b 0x76a872
     0x0076a864      b7ebfffc       cmpa.l -0x4(a3), a3
 < 0x0076a868      6702           beq.b 0x76a86c
    0x0076a86a      4e4d           trap 0xd
 > 0x0076a86c      27540004       move.l (a4), 0x4(a3)
 < 0x0076a870      6012           bra.b 0x76a884
 > 0x0076a872      26790086e6e8   movea.l 0x86e6e8, a3
     0x0076a878      b7ebfffc       cmpa.l -0x4(a3), a3
 < 0x0076a87c      6702           beq.b 0x76a880
    0x0076a87e      4e4d           trap 0xd
 > 0x0076a880      27540008       move.l (a4), 0x8(a3)
 > 0x0076a884      2654           movea.l (a4), a3
      0x0076a886      b7ebfffc       cmpa.l -0x4(a3), a3
  < 0x0076a88a      6702           beq.b 0x76a88e
     0x0076a88c      4e4d           trap 0xd
  > 0x0076a88e      2692           move.l (a2), (a3)
      0x0076a890      2094           move.l (a4), (a0)
      0x0076a892      276e000c0004   move.l 0xc(a6), 0x4(a3)
      0x0076a898      486efff8       pea.l -0x8(a6)
      0x0076a89c      48780082       pea.l 0x82
      0x0076a8a0      4eb900403b98   jsr p_Dispos
      0x0076a8a6      504f           addq.w 0x8, a7
   > 0x0076a8a8      206e000c       movea.l 0xc(a6), a0
           0x0076a8ac      b1e8fffc       cmpa.l -0x4(a0), a0
       < 0x0076a8b0      6702           beq.b 0x76a8b4
          0x0076a8b2      4e4d           trap 0xd
       > 0x0076a8b4      22680004       movea.l 0x4(a0), a1
           0x0076a8b8      b2c1           cmpa.w d1, a1
       < 0x0076a8ba      6612           bne.b 0x76a8ce
          0x0076a8bc      246e0008       movea.l 0x8(a6), a2
          0x0076a8c0      b5eafffc       cmpa.l -0x4(a2), a2
      < 0x0076a8c4      6702           beq.b 0x76a8c8
         0x0076a8c6      4e4d           trap 0xd
      > 0x0076a8c8      2550000c       move.l (a0), 0xc(a2)
      < 0x0076a8cc      600a           bra.b 0x76a8d8
      > 0x0076a8ce      b3e9fffc       cmpa.l -0x4(a1), a1
      < 0x0076a8d2      6702           beq.b 0x76a8d6
         0x0076a8d4      4e4d           trap 0xd
      > 0x0076a8d6      2290           move.l (a0), (a1)
      > 0x0076a8d8      2250           movea.l (a0), a1
           0x0076a8da      b2c1           cmpa.w d1, a1
       < 0x0076a8dc      6614           bne.b 0x76a8f2
          0x0076a8de      246e0008       movea.l 0x8(a6), a2
          0x0076a8e2      b5eafffc       cmpa.l -0x4(a2), a2
      < 0x0076a8e6      6702           beq.b 0x76a8ea
         0x0076a8e8      4e4d           trap 0xd
      > 0x0076a8ea      256800040008   move.l 0x4(a0), 0x8(a2)
      < 0x0076a8f0      600e           bra.b 0x76a900
      > 0x0076a8f2      b3e9fffc       cmpa.l -0x4(a1), a1
      < 0x0076a8f6      6702           beq.b 0x76a8fa
         0x0076a8f8      4e4d           trap 0xd
      > 0x0076a8fa      236800040004   move.l 0x4(a0), 0x4(a1)
      > 0x0076a900      486e000c       pea.l 0xc(a6)
           0x0076a904      4eb90076ee76   jsr TYPECOM.dispose_type_ch
           0x0076a90a      584f           addq.w 0x4, a7
           0x0076a90c      4cdf1f03       movem.l (a7)+, d0-d1/a0-a4
           0x0076a910      4e5e           unlk a6
           0x0076a912      4e75           rts
 508: MENUTYPECOM.delete_char ();
           0x0076a914      4e56ffa8       link.w a6, 0xffa8
           0x0076a918      bfd5           cmpa.l (a5), a7
       < 0x0076a91a      6206           bhi.b 0x76a922
          0x0076a91c      44fc0002       move.w 0x2, ccr
          0x0076a920      4e76           trapv
       > 0x0076a922      defc0044       adda.w 0x44, a7
           0x0076a926      48e7e0f8       movem.l d0-d2/a0-a4, -(a7)
           0x0076a92a      7401           moveq 0x1, d2
           0x0076a92c      20790086e6d8   movea.l 0x86e6d8, a0
           0x0076a932      b1e8fffc       cmpa.l -0x4(a0), a0
       < 0x0076a936      6702           beq.b 0x76a93a
          0x0076a938      4e4d           trap 0xd
       > 0x0076a93a      2250           movea.l (a0), a1
           0x0076a93c      b2c2           cmpa.w d2, a1
       < 0x0076a93e      66000154       bne.w 0x76aa94
          0x0076a942      20790086e6e8   movea.l 0x86e6e8, a0
          0x0076a948      b1e8fffc       cmpa.l -0x4(a0), a0
      < 0x0076a94c      6702           beq.b 0x76a950
         0x0076a94e      4e4d           trap 0xd
      > 0x0076a950      24680004       movea.l 0x4(a0), a2
          0x0076a954      2f0a           move.l a2, -(a7)
          0x0076a956      b4c2           cmpa.w d2, a2
      < 0x0076a958      6606           bne.b 0x76a960
         0x0076a95a      584f           addq.w 0x4, a7
     < 0x0076a95c      60000184       bra.w 0x76aae2
     > 0x0076a960      b5eafffc       cmpa.l -0x4(a2), a2
     < 0x0076a964      6702           beq.b 0x76a968
        0x0076a966      4e4d           trap 0xd
     > 0x0076a968      226a000c       movea.l 0xc(a2), a1
         0x0076a96c      b3e9fffc       cmpa.l -0x4(a1), a1
     < 0x0076a970      6702           beq.b 0x76a974
        0x0076a972      4e4d           trap 0xd
     > 0x0076a974      2851           movea.l (a1), a4
         0x0076a976      2d4afff8       move.l a2, -0x8(a6)
         0x0076a97a      26680008       movea.l 0x8(a0), a3
         0x0076a97e      2d4afffc       move.l a2, -0x4(a6)
         0x0076a982      2f2a000c       move.l 0xc(a2), -(a7)
         0x0076a986      2f0a           move.l a2, -(a7)
         0x0076a988      4ebafdf2       jsr MENUTYPECOM.remove_char(pc)
         0x0076a98c      504f           addq.w 0x8, a7
         0x0076a98e      22680004       movea.l 0x4(a0), a1
         0x0076a992      b3e9fffc       cmpa.l -0x4(a1), a1
     < 0x0076a996      6702           beq.b 0x76a99a
        0x0076a998      4e4d           trap 0xd
     > 0x0076a99a      2f09           move.l a1, -(a7)
         0x0076a99c      2469000c       movea.l 0xc(a1), a2
         0x0076a9a0      2f0a           move.l a2, -(a7)
         0x0076a9a2      b4c2           cmpa.w d2, a2
     < 0x0076a9a4      670e           beq.b 0x76a9b4
        0x0076a9a6      b5eafffc       cmpa.l -0x4(a2), a2
    < 0x0076a9aa      6702           beq.b 0x76a9ae
       0x0076a9ac      4e4d           trap 0xd
    > 0x0076a9ae      256800080004   move.l 0x8(a0), 0x4(a2)
     > 0x0076a9b4      24680008       movea.l 0x8(a0), a2
         0x0076a9b8      b5eafffc       cmpa.l -0x4(a2), a2
     < 0x0076a9bc      6702           beq.b 0x76a9c0
        0x0076a9be      4e4d           trap 0xd
     > 0x0076a9c0      2f0a           move.l a2, -(a7)
         0x0076a9c2      246f0004       movea.l 0x4(a7), a2
         0x0076a9c6      225f           movea.l (a7)+, a1
         0x0076a9c8      228a           move.l a2, (a1)
         0x0076a9ca      584f           addq.w 0x4, a7
         0x0076a9cc      2257           movea.l (a7), a1
         0x0076a9ce      24690008       movea.l 0x8(a1), a2
         0x0076a9d2      b4c2           cmpa.w d2, a2
     < 0x0076a9d4      6606           bne.b 0x76a9dc
        0x0076a9d6      236800080008   move.l 0x8(a0), 0x8(a1)
     > 0x0076a9dc      2457           movea.l (a7), a2
         0x0076a9de      2568000c000c   move.l 0xc(a0), 0xc(a2)
         0x0076a9e4      2290           move.l (a0), (a1)
         0x0076a9e6      2450           movea.l (a0), a2
         0x0076a9e8      b4c2           cmpa.w d2, a2
     < 0x0076a9ea      670e           beq.b 0x76a9fa
        0x0076a9ec      b5eafffc       cmpa.l -0x4(a2), a2
    < 0x0076a9f0      6702           beq.b 0x76a9f4
       0x0076a9f2      4e4d           trap 0xd
    > 0x0076a9f4      256800040004   move.l 0x4(a0), 0x4(a2)
     > 0x0076a9fa      2d790086e6e8.  move.l 0x86e6e8, -0xc(a6)
         0x0076aa02      10390086e7de   move.b 0x86e7de, d0
         0x0076aa08      0c000002       cmpi.b 0x2, d0
     < 0x0076aa0c      661a           bne.b 0x76aa28
        0x0076aa0e      30290010       move.w 0x10(a1), d0
        0x0076aa12      48c0           ext.l d0
        0x0076aa14      32280010       move.w 0x10(a0), d1
        0x0076aa18      48c1           ext.l d1
        0x0076aa1a      4481           neg.l d1
        0x0076aa1c      d280           add.l d0, d1
        0x0076aa1e      2f01           move.l d1, -(a7)
        0x0076aa20      2f0a           move.l a2, -(a7)
        0x0076aa22      4ebaf95e       jsr MENUTYPECOM.horiz_move_line(pc)
    < 0x0076aa26      6018           bra.b 0x76aa40
    > 0x0076aa28      30290012       move.w 0x12(a1), d0
        0x0076aa2c      48c0           ext.l d0
        0x0076aa2e      32280012       move.w 0x12(a0), d1
        0x0076aa32      48c1           ext.l d1
        0x0076aa34      4481           neg.l d1
        0x0076aa36      d280           add.l d0, d1
        0x0076aa38      2f01           move.l d1, -(a7)
        0x0076aa3a      2f0a           move.l a2, -(a7)
        0x0076aa3c      4ebaf894       jsr MENUTYPECOM.vert_move_lines(pc)
    > 0x0076aa40      504f           addq.w 0x8, a7
         0x0076aa42      584f           addq.w 0x4, a7
         0x0076aa44      23e800040086.  move.l 0x4(a0), 0x86e6e8.l
         0x0076aa4c      486efff4       pea.l -0xc(a6)
         0x0076aa50      4878002c       pea.l 0x2c
         0x0076aa54      4eb900403b98   jsr p_Dispos
         0x0076aa5a      504f           addq.w 0x8, a7
         0x0076aa5c      22790086e6d0   movea.l 0x86e6d0, a1
         0x0076aa62      b3e9fffc       cmpa.l -0x4(a1), a1
     < 0x0076aa66      6702           beq.b 0x76aa6a
        0x0076aa68      4e4d           trap 0xd
     > 0x0076aa6a      4a29051a       tst.b 0x51a(a1)
     < 0x0076aa6e      6604           bne.b 0x76aa74
        0x0076aa70      584f           addq.w 0x4, a7
    < 0x0076aa72      606e           bra.b 0x76aae2
    > 0x0076aa74      2f0c           move.l a4, -(a7)
        0x0076aa76      226f0004       movea.l 0x4(a7), a1
        0x0076aa7a      2f09           move.l a1, -(a7)
        0x0076aa7c      4ebab340       jsr MENUTYPECOM.non_latin_check(pc)
        0x0076aa80      584f           addq.w 0x4, a7
        0x0076aa82      2e8b           move.l a3, (a7)
        0x0076aa84      226f0004       movea.l 0x4(a7), a1
        0x0076aa88      2f09           move.l a1, -(a7)
        0x0076aa8a      4ebab332       jsr MENUTYPECOM.non_latin_check(pc)
        0x0076aa8e      defc000c       adda.w 0xc, a7
    < 0x0076aa92      604e           bra.b 0x76aae2
    > 0x0076aa94      b3e9fffc       cmpa.l -0x4(a1), a1
    < 0x0076aa98      6702           beq.b 0x76aa9c
       0x0076aa9a      4e4d           trap 0xd
    > 0x0076aa9c      2851           movea.l (a1), a4
        0x0076aa9e      26790086e6d8   movea.l 0x86e6d8, a3
        0x0076aaa4      2f09           move.l a1, -(a7)
        0x0076aaa6      2f390086e6e8   move.l 0x86e6e8, -(a7)
        0x0076aaac      4ebafcce       jsr MENUTYPECOM.remove_char(pc)
        0x0076aab0      504f           addq.w 0x8, a7
        0x0076aab2      20790086e6d0   movea.l 0x86e6d0, a0
        0x0076aab8      b1e8fffc       cmpa.l -0x4(a0), a0
    < 0x0076aabc      6702           beq.b 0x76aac0
       0x0076aabe      4e4d           trap 0xd
    > 0x0076aac0      4a28051a       tst.b 0x51a(a0)
    < 0x0076aac4      671c           beq.b 0x76aae2
       0x0076aac6      2f0c           move.l a4, -(a7)
       0x0076aac8      2f390086e6e8   move.l 0x86e6e8, -(a7)
       0x0076aace      4ebab2ee       jsr MENUTYPECOM.non_latin_check(pc)
       0x0076aad2      584f           addq.w 0x4, a7
       0x0076aad4      2e8b           move.l a3, (a7)
       0x0076aad6      2f390086e6e8   move.l 0x86e6e8, -(a7)
       0x0076aadc      4ebab2e0       jsr MENUTYPECOM.non_latin_check(pc)
       0x0076aae0      504f           addq.w 0x8, a7
    > 0x0076aae2      4a2e0008       tst.b 0x8(a6)
       < 0x0076aae6      670a           beq.b 0x76aaf2
          0x0076aae8      1f3c0006       move.b 0x6, -(a7)
          0x0076aaec      4eba98de       jsr MENUTYPECOM.update_type(pc)
          0x0076aaf0      544f           addq.w 0x2, a7
       > 0x0076aaf2      20790086e6d8   movea.l 0x86e6d8, a0
           0x0076aaf8      b1e8fffc       cmpa.l -0x4(a0), a0
       < 0x0076aafc      6702           beq.b 0x76ab00
          0x0076aafe      4e4d           trap 0xd
       > 0x0076ab00      23e800520086.  move.l 0x52(a0), 0x86e6f0.l
           0x0076ab08      4cdf1f07       movem.l (a7)+, d0-d2/a0-a4
           0x0076ab0c      4e5e           unlk a6
           0x0076ab0e      4e75           rts
            ; CALL XREF from MENUTYPECOM.delete_line @ 0x76abba
 108: MENUTYPECOM.remove_cur_type ();
           0x0076ab10      4e56ffe0       link.w a6, 0xffe0
           0x0076ab14      bfd5           cmpa.l (a5), a7
       < 0x0076ab16      6206           bhi.b 0x76ab1e
          0x0076ab18      44fc0002       move.w 0x2, ccr
          0x0076ab1c      4e76           trapv
       > 0x0076ab1e      defc0018       adda.w 0x18, a7
           0x0076ab22      48e700c8       movem.l a0-a1/a4, -(a7)
           0x0076ab26      20790086e6e8   movea.l 0x86e6e8, a0
           0x0076ab2c      b1e8fffc       cmpa.l -0x4(a0), a0
       < 0x0076ab30      6702           beq.b 0x76ab34
          0x0076ab32      4e4d           trap 0xd
       > 0x0076ab34      28680008       movea.l 0x8(a0), a4
       > 0x0076ab38      b9e8000c       cmpa.l 0xc(a0), a4
      < 0x0076ab3c      671e           beq.b 0x76ab5c
         0x0076ab3e      2d4cfffc       move.l a4, -0x4(a6)
         0x0076ab42      b9ecfffc       cmpa.l -0x4(a4), a4
     < 0x0076ab46      6702           beq.b 0x76ab4a
        0x0076ab48      4e4d           trap 0xd
     > 0x0076ab4a      286c0004       movea.l 0x4(a4), a4
         0x0076ab4e      486efffc       pea.l -0x4(a6)
         0x0076ab52      4eb90076ee76   jsr TYPECOM.dispose_type_ch
         0x0076ab58      584f           addq.w 0x4, a7
      < 0x0076ab5a      60dc           bra.b 0x76ab38
      > 0x0076ab5c      2168000c0008   move.l 0xc(a0), 0x8(a0)
           0x0076ab62      22680008       movea.l 0x8(a0), a1
           0x0076ab66      b3e9fffc       cmpa.l -0x4(a1), a1
       < 0x0076ab6a      6702           beq.b 0x76ab6e
          0x0076ab6c      4e4d           trap 0xd
       > 0x0076ab6e      22bc00000001   move.l 0x1, (a1)
           0x0076ab74      4cdf1300       movem.l (a7)+, a0-a1/a4
           0x0076ab78      4e5e           unlk a6
           0x0076ab7a      4e75           rts
            ; CALL XREF from MENUTYPECOM @ +0x8274
 352: MENUTYPECOM.delete_line ();
           0x0076ab7c      4e56ffc0       link.w a6, 0xffc0
           0x0076ab80      bfd5           cmpa.l (a5), a7
       < 0x0076ab82      6206           bhi.b 0x76ab8a
          0x0076ab84      44fc0002       move.w 0x2, ccr
          0x0076ab88      4e76           trapv
       > 0x0076ab8a      defc003c       adda.w 0x3c, a7
           0x0076ab8e      48e7f0f8       movem.l d0-d3/a0-a4, -(a7)
           0x0076ab92      47f90086e6e8   lea.l 0x86e6e8, a3
           0x0076ab98      49f90086e7de   lea.l 0x86e7de, a4
           0x0076ab9e      7401           moveq 0x1, d2
           0x0076aba0      7602           moveq 0x2, d3
           0x0076aba2      2053           movea.l (a3), a0
           0x0076aba4      b1e8fffc       cmpa.l -0x4(a0), a0
       < 0x0076aba8      6702           beq.b 0x76abac
          0x0076abaa      4e4d           trap 0xd
       > 0x0076abac      22680004       movea.l 0x4(a0), a1
           0x0076abb0      b2c2           cmpa.w d2, a1
       < 0x0076abb2      660e           bne.b 0x76abc2
          0x0076abb4      2250           movea.l (a0), a1
          0x0076abb6      b2c2           cmpa.w d2, a1
      < 0x0076abb8      6608           bne.b 0x76abc2
     > 0x0076abba      4ebaff54       jsr MENUTYPECOM.remove_cur_type(pc)
    < 0x0076abbe      600000e2       bra.w 0x76aca2
    > 0x0076abc2      22680008       movea.l 0x8(a0), a1
         0x0076abc6      b3e8000c       cmpa.l 0xc(a0), a1
     < 0x0076abca      6702           beq.b 0x76abce
    < 0x0076abcc      60ec           bra.b 0x76abba
      > 0x0076abce      48680008       pea.l 0x8(a0)
          0x0076abd2      4eb90076ee76   jsr TYPECOM.dispose_type_ch
          0x0076abd8      584f           addq.w 0x4, a7
          0x0076abda      2d53fffc       move.l (a3), -0x4(a6)
          0x0076abde      22680004       movea.l 0x4(a0), a1
          0x0076abe2      b2c2           cmpa.w d2, a1
      < 0x0076abe4      6650           bne.b 0x76ac36
         0x0076abe6      23d00086e6e4   move.l (a0), 0x86e6e4
         0x0076abec      2450           movea.l (a0), a2
         0x0076abee      b5eafffc       cmpa.l -0x4(a2), a2
     < 0x0076abf2      6702           beq.b 0x76abf6
        0x0076abf4      4e4d           trap 0xd
     > 0x0076abf6      25490004       move.l a1, 0x4(a2)
         0x0076abfa      1014           move.b (a4), d0
         0x0076abfc      b003           cmp.b d3, d0
     < 0x0076abfe      661a           bne.b 0x76ac1a
        0x0076ac00      30280010       move.w 0x10(a0), d0
        0x0076ac04      48c0           ext.l d0
        0x0076ac06      322a0010       move.w 0x10(a2), d1
        0x0076ac0a      48c1           ext.l d1
        0x0076ac0c      4481           neg.l d1
        0x0076ac0e      d280           add.l d0, d1
        0x0076ac10      2f01           move.l d1, -(a7)
        0x0076ac12      2f10           move.l (a0), -(a7)
        0x0076ac14      4ebaf76c       jsr MENUTYPECOM.horiz_move_line(pc)
    < 0x0076ac18      6018           bra.b 0x76ac32
    > 0x0076ac1a      30280012       move.w 0x12(a0), d0
        0x0076ac1e      48c0           ext.l d0
        0x0076ac20      322a0012       move.w 0x12(a2), d1
        0x0076ac24      48c1           ext.l d1
        0x0076ac26      4481           neg.l d1
        0x0076ac28      d280           add.l d0, d1
        0x0076ac2a      2f01           move.l d1, -(a7)
        0x0076ac2c      2f10           move.l (a0), -(a7)
        0x0076ac2e      4ebaf6a2       jsr MENUTYPECOM.vert_move_lines(pc)
    > 0x0076ac32      504f           addq.w 0x8, a7
     < 0x0076ac34      605a           bra.b 0x76ac90
     > 0x0076ac36      b3e9fffc       cmpa.l -0x4(a1), a1
     < 0x0076ac3a      6702           beq.b 0x76ac3e
        0x0076ac3c      4e4d           trap 0xd
     > 0x0076ac3e      2290           move.l (a0), (a1)
         0x0076ac40      2450           movea.l (a0), a2
         0x0076ac42      b4c2           cmpa.w d2, a2
     < 0x0076ac44      6604           bne.b 0x76ac4a
        0x0076ac46      2689           move.l a1, (a3)
    < 0x0076ac48      6048           bra.b 0x76ac92
    > 0x0076ac4a      b5eafffc       cmpa.l -0x4(a2), a2
    < 0x0076ac4e      6702           beq.b 0x76ac52
       0x0076ac50      4e4d           trap 0xd
    > 0x0076ac52      25490004       move.l a1, 0x4(a2)
        0x0076ac56      1014           move.b (a4), d0
        0x0076ac58      b003           cmp.b d3, d0
    < 0x0076ac5a      661a           bne.b 0x76ac76
       0x0076ac5c      30290010       move.w 0x10(a1), d0
       0x0076ac60      48c0           ext.l d0
       0x0076ac62      32280010       move.w 0x10(a0), d1
       0x0076ac66      48c1           ext.l d1
       0x0076ac68      4481           neg.l d1
       0x0076ac6a      d280           add.l d0, d1
       0x0076ac6c      2f01           move.l d1, -(a7)
       0x0076ac6e      2f0a           move.l a2, -(a7)
       0x0076ac70      4ebaf710       jsr MENUTYPECOM.horiz_move_line(pc)
   < 0x0076ac74      6018           bra.b 0x76ac8e
   > 0x0076ac76      30290012       move.w 0x12(a1), d0
       0x0076ac7a      48c0           ext.l d0
       0x0076ac7c      32280012       move.w 0x12(a0), d1
       0x0076ac80      48c1           ext.l d1
       0x0076ac82      4481           neg.l d1
       0x0076ac84      d280           add.l d0, d1
       0x0076ac86      2f01           move.l d1, -(a7)
       0x0076ac88      2f0a           move.l a2, -(a7)
       0x0076ac8a      4ebaf646       jsr MENUTYPECOM.vert_move_lines(pc)
   > 0x0076ac8e      504f           addq.w 0x8, a7
    > 0x0076ac90      2690           move.l (a0), (a3)
    > 0x0076ac92      486efffc       pea.l -0x4(a6)
          0x0076ac96      4878002c       pea.l 0x2c
          0x0076ac9a      4eb900403b98   jsr p_Dispos
          0x0076aca0      504f           addq.w 0x8, a7
    > 0x0076aca2      2053           movea.l (a3), a0
           0x0076aca4      b1e8fffc       cmpa.l -0x4(a0), a0
       < 0x0076aca8      6702           beq.b 0x76acac
          0x0076acaa      4e4d           trap 0xd
       > 0x0076acac      23e800080086.  move.l 0x8(a0), 0x86e6d8.l
           0x0076acb4      1f3c0006       move.b 0x6, -(a7)
           0x0076acb8      4eba9712       jsr MENUTYPECOM.update_type(pc)
           0x0076acbc      544f           addq.w 0x2, a7
           0x0076acbe      20790086e6d8   movea.l 0x86e6d8, a0
           0x0076acc4      b1e8fffc       cmpa.l -0x4(a0), a0
       < 0x0076acc8      6702           beq.b 0x76accc
          0x0076acca      4e4d           trap 0xd
       > 0x0076accc      23e800520086.  move.l 0x52(a0), 0x86e6f0.l
           0x0076acd4      4cdf1f0f       movem.l (a7)+, d0-d3/a0-a4
           0x0076acd8      4e5e           unlk a6
           0x0076acda      4e75           rts
 102: MENUTYPECOM.find_nearest_ch ();
           0x0076acdc      4e56ffdc       link.w a6, 0xffdc
           0x0076ace0      bfd5           cmpa.l (a5), a7
       < 0x0076ace2      6206           bhi.b 0x76acea
          0x0076ace4      44fc0002       move.w 0x2, ccr
          0x0076ace8      4e76           trapv
       > 0x0076acea      defc0018       adda.w 0x18, a7
           0x0076acee      48e78388       movem.l d0/d6-d7/a0/a4, -(a7)
           0x0076acf2      2c3c7fff0000   move.l 0x7fff0000, d6
           0x0076acf8      20790086e6e8   movea.l 0x86e6e8, a0
           0x0076acfe      b1e8fffc       cmpa.l -0x4(a0), a0
       < 0x0076ad02      6702           beq.b 0x76ad06
          0x0076ad04      4e4d           trap 0xd
       > 0x0076ad06      28680008       movea.l 0x8(a0), a4
       > 0x0076ad0a      b8fc0001       cmpa.w 0x1, a4
      < 0x0076ad0e      672a           beq.b 0x76ad3a
         0x0076ad10      b9ecfffc       cmpa.l -0x4(a4), a4
     < 0x0076ad14      6702           beq.b 0x76ad18
        0x0076ad16      4e4d           trap 0xd
     > 0x0076ad18      20390086e6f0   move.l 0x86e6f0, d0
         0x0076ad1e      90ac0052       sub.l 0x52(a4), d0
     < 0x0076ad22      6a02           bpl.b 0x76ad26
        0x0076ad24      4480           neg.l d0
     > 0x0076ad26      2e00           move.l d0, d7
         0x0076ad28      be86           cmp.l d6, d7
     < 0x0076ad2a      6c08           bge.b 0x76ad34
        0x0076ad2c      2c07           move.l d7, d6
        0x0076ad2e      23cc0086e6d8   move.l a4, 0x86e6d8
     > 0x0076ad34      286c0004       movea.l 0x4(a4), a4
      < 0x0076ad38      60d0           bra.b 0x76ad0a
      > 0x0076ad3a      4cdf11c1       movem.l (a7)+, d0/d6-d7/a0/a4
           0x0076ad3e      4e5e           unlk a6
           0x0076ad40      4e75           rts
 408: MENUTYPECOM.type_end (int32_t arg_8eh, int32_t arg_92h);
           ; arg int32_t arg_8eh @ a6+0x8e
           ; arg int32_t arg_92h @ a6+0x92
           0x0076ad42      4e56ff3c       link.w a6, 0xff3c
           0x0076ad46      bfd5           cmpa.l (a5), a7
       < 0x0076ad48      6206           bhi.b 0x76ad50
          0x0076ad4a      44fc0002       move.w 0x2, ccr
          0x0076ad4e      4e76           trapv
       > 0x0076ad50      defc00aa       adda.w 0xaa, a7
           0x0076ad54      48e7fef8       movem.l d0-d6/a0-a4, -(a7)
           0x0076ad58      47eeffea       lea.l -0x16(a6), a3
           0x0076ad5c      49eeffe6       lea.l -0x1a(a6), a4
           0x0076ad60      7801           moveq 0x1, d4
           0x0076ad62      7a02           moveq 0x2, d5
           0x0076ad64      7c03           moveq 0x3, d6
           0x0076ad66      1f3c000a       move.b 0xa, -(a7)
           0x0076ad6a      4eba9660       jsr MENUTYPECOM.update_type(pc)
           0x0076ad6e      544f           addq.w 0x2, a7
           0x0076ad70      10390086e6fc   move.b 0x86e6fc, d0
           0x0076ad76      4880           ext.w d0
           0x0076ad78      41bc0004       chk.w 0x4, d0
           0x0076ad7c      c1fc001c       muls.w 0x1c, d0
           0x0076ad80      41f90086e67a   lea.l 0x86e67a, a0
           0x0076ad86      41f00000       lea.l (a0, d0.w), a0
           0x0076ad8a      4a280096       tst.b 0x96(a0)
       < 0x0076ad8e      67000142       beq.w 0x76aed2
          0x0076ad92      28a80098       move.l 0x98(a0), (a4)
          0x0076ad96      26a8009c       move.l 0x9c(a0), (a3)
          0x0076ad9a      2d68008effee   move.l 0x8e(a0), -0x12(a6)
          0x0076ada0      2d680092fff2   move.l 0x92(a0), -0xe(a6)
          0x0076ada6      4854           pea.l (a4)
          0x0076ada8      2f2efff2       move.l -0xe(a6), -(a7)
          0x0076adac      2f2effee       move.l -0x12(a6), -(a7)
          0x0076adb0      4eb9006335e8   jsr HANDCOM.crop_to_area
          0x0076adb6      defc000c       adda.w 0xc, a7
          0x0076adba      3013           move.w (a3), d0
          0x0076adbc      48c0           ext.l d0
          0x0076adbe      81c5           divs.w d5, d0
          0x0076adc0      3d40fff6       move.w d0, -0xa(a6)
          0x0076adc4      22790086e6e8   movea.l 0x86e6e8, a1
          0x0076adca      b3e9fffc       cmpa.l -0x4(a1), a1
      < 0x0076adce      6702           beq.b 0x76add2
         0x0076add0      4e4d           trap 0xd
      > 0x0076add2      30290012       move.w 0x12(a1), d0
          0x0076add6      48c0           ext.l d0
          0x0076add8      81fc0008       divs.w 0x8, d0
          0x0076addc      322efff0       move.w -0x10(a6), d1
          0x0076ade0      48c1           ext.l d1
          0x0076ade2      83c5           divs.w d5, d1
          0x0076ade4      48c0           ext.l d0
          0x0076ade6      342effe8       move.w -0x18(a6), d2
          0x0076adea      48c2           ext.l d2
          0x0076adec      2600           move.l d0, d3
          0x0076adee      9682           sub.l d2, d3
          0x0076adf0      48c1           ext.l d1
          0x0076adf2      b681           cmp.l d1, d3
      < 0x0076adf4      6f0a           ble.b 0x76ae00
         0x0076adf6      322effec       move.w -0x14(a6), d1
         0x0076adfa      48c1           ext.l d1
         0x0076adfc      83c5           divs.w d5, d1
     < 0x0076adfe      6020           bra.b 0x76ae20
     > 0x0076ae00      323c0080       move.w 0x80, d1
         0x0076ae04      d240           add.w d0, d1
         0x0076ae06      48c1           ext.l d1
         0x0076ae08      9282           sub.l d2, d1
         0x0076ae0a      0481ffff8000   subi.l 0xffff8000, d1
         0x0076ae10      0c810000ffff   cmpi.l 0xffff, d1
     < 0x0076ae16      6302           bls.b 0x76ae1a
        0x0076ae18      4e4f           trap 0xf
     > 0x0076ae1a      0681ffff8000   addi.l 0xffff8000, d1
     > 0x0076ae20      3d41fff8       move.w d1, -0x8(a6)
          0x0076ae24      4a53           tst.w (a3)
      < 0x0076ae26      6f0000aa       ble.w 0x76aed2
         0x0076ae2a      4a6effec       tst.w -0x14(a6)
     < 0x0076ae2e      6f0000a2       ble.w 0x76aed2
        0x0076ae32      554f           subq.w 0x2, a7
        0x0076ae34      1f06           move.b d6, -(a7)
        0x0076ae36      1f04           move.b d4, -(a7)
        0x0076ae38      2f13           move.l (a3), -(a7)
        0x0076ae3a      2f14           move.l (a4), -(a7)
        0x0076ae3c      2f2efff6       move.l -0xa(a6), -(a7)
        0x0076ae40      1f04           move.b d4, -(a7)
        0x0076ae42      4227           clr.b -(a7)
        0x0076ae44      9efc0052       suba.w 0x52, a7
        0x0076ae48      224f           movea.l a7, a1
        0x0076ae4a      45fa8705       lea.l 0x763551(pc), a2
        0x0076ae4e      700b           moveq 0xb, d0
    > 0x0076ae50      12da           move.b (a2)+, (a1)+
    < 0x0076ae52      51c8fffc       dbra d0, 0x76ae50
        0x0076ae56      486efffc       pea.l -0x4(a6)
        0x0076ae5a      4eb900672422   jsr PASTECOM.save_cutout
        0x0076ae60      defc006a       adda.w 0x6a, a7
        0x0076ae64      3d5ffffa       move.w (a7)+, -0x6(a6)
        0x0076ae68      302efffa       move.w -0x6(a6), d0
        0x0076ae6c      b07a86f0       cmp.w 0x76355e(pc), d0
    < 0x0076ae70      6624           bne.b 0x76ae96
       0x0076ae72      554f           subq.w 0x2, a7
       0x0076ae74      4eb9004755c2   jsr CONFIG.cfg_gender
       0x0076ae7a      101f           move.b (a7)+, d0
       0x0076ae7c      b006           cmp.b d6, d0
   < 0x0076ae7e      6602           bne.b 0x76ae82
  < 0x0076ae80      600a           bra.b 0x76ae8c
  > 0x0076ae82      1f04           move.b d4, -(a7)
      0x0076ae84      4eb90048f2e6   jsr MENURIGHTCOM.change_right
      0x0076ae8a      544f           addq.w 0x2, a7
  > 0x0076ae8c      1f04           move.b d4, -(a7)
       0x0076ae8e      4eb9004b2d9c   jsr MENUPASTECOM.change_pasteup
   < 0x0076ae94      603a           bra.b 0x76aed0
   > 0x0076ae96      594f           subq.w 0x4, a7
       0x0076ae98      1eba86c7       move.b 0x763561(pc), (a7)
       0x0076ae9c      1f7a86c40001   move.b 0x763562(pc), 0x1(a7)
       0x0076aea2      1f7a86bf0002   move.b 0x763563(pc), 0x2(a7)
       0x0076aea8      1f7a86ba0003   move.b 0x763564(pc), 0x3(a7)
       0x0076aeae      3f3c0082       move.w 0x82, -(a7)
       0x0076aeb2      486f0002       pea.l 0x2(a7)
       0x0076aeb6      48780001       pea.l 0x1
       0x0076aeba      48780004       pea.l 0x4
       0x0076aebe      4eb900483af8   jsr MENUCOM.box_error
       0x0076aec4      defc0010       adda.w 0x10, a7
       0x0076aec8      1ebc0006       move.b 0x6, (a7)
       0x0076aecc      4eba94fe       jsr MENUTYPECOM.update_type(pc)
   > 0x0076aed0      544f           addq.w 0x2, a7
     > 0x0076aed2      4cdf1f7f       movem.l (a7)+, d0-d6/a0-a4
           0x0076aed6      4e5e           unlk a6
           0x0076aed8      4e75           rts
 96: MENUTYPECOM.move_to_next_ch ();
           0x0076aeda      4e56ffd4       link.w a6, 0xffd4
           0x0076aede      bfd5           cmpa.l (a5), a7
       < 0x0076aee0      6206           bhi.b 0x76aee8
          0x0076aee2      44fc0002       move.w 0x2, ccr
          0x0076aee6      4e76           trapv
       > 0x0076aee8      defc002c       adda.w 0x2c, a7
           0x0076aeec      48e780f8       movem.l d0/a0-a4, -(a7)
           0x0076aef0      47f90086e6d8   lea.l 0x86e6d8, a3
           0x0076aef6      49f90086e6e8   lea.l 0x86e6e8, a4
           0x0076aefc      7001           moveq 0x1, d0
           0x0076aefe      2053           movea.l (a3), a0
           0x0076af00      b1e8fffc       cmpa.l -0x4(a0), a0
       < 0x0076af04      6702           beq.b 0x76af08
          0x0076af06      4e4d           trap 0xd
       > 0x0076af08      22680004       movea.l 0x4(a0), a1
           0x0076af0c      b2c0           cmpa.w d0, a1
       < 0x0076af0e      6620           bne.b 0x76af30
          0x0076af10      2054           movea.l (a4), a0
          0x0076af12      b1e8fffc       cmpa.l -0x4(a0), a0
      < 0x0076af16      6702           beq.b 0x76af1a
         0x0076af18      4e4d           trap 0xd
      > 0x0076af1a      2450           movea.l (a0), a2
          0x0076af1c      b4c0           cmpa.w d0, a2
      < 0x0076af1e      6712           beq.b 0x76af32
         0x0076af20      b5eafffc       cmpa.l -0x4(a2), a2
     < 0x0076af24      6702           beq.b 0x76af28
        0x0076af26      4e4d           trap 0xd
     > 0x0076af28      26aa0008       move.l 0x8(a2), (a3)
         0x0076af2c      288a           move.l a2, (a4)
     < 0x0076af2e      6002           bra.b 0x76af32
     > 0x0076af30      2689           move.l a1, (a3)
     > 0x0076af32      4cdf1f01       movem.l (a7)+, d0/a0-a4
           0x0076af36      4e5e           unlk a6
           0x0076af38      4e75           rts
 96: MENUTYPECOM.move_to_prev_ch ();
           0x0076af3a      4e56ffd4       link.w a6, 0xffd4
           0x0076af3e      bfd5           cmpa.l (a5), a7
       < 0x0076af40      6206           bhi.b 0x76af48
          0x0076af42      44fc0002       move.w 0x2, ccr
          0x0076af46      4e76           trapv
       > 0x0076af48      defc002c       adda.w 0x2c, a7
           0x0076af4c      48e780f8       movem.l d0/a0-a4, -(a7)
           0x0076af50      47f90086e6d8   lea.l 0x86e6d8, a3
           0x0076af56      49f90086e6e8   lea.l 0x86e6e8, a4
           0x0076af5c      7001           moveq 0x1, d0
           0x0076af5e      2053           movea.l (a3), a0
           0x0076af60      b1e8fffc       cmpa.l -0x4(a0), a0
       < 0x0076af64      6702           beq.b 0x76af68
          0x0076af66      4e4d           trap 0xd
       > 0x0076af68      2250           movea.l (a0), a1
           0x0076af6a      b2c0           cmpa.w d0, a1
       < 0x0076af6c      6622           bne.b 0x76af90
          0x0076af6e      2054           movea.l (a4), a0
          0x0076af70      b1e8fffc       cmpa.l -0x4(a0), a0
      < 0x0076af74      6702           beq.b 0x76af78
         0x0076af76      4e4d           trap 0xd
      > 0x0076af78      24680004       movea.l 0x4(a0), a2
          0x0076af7c      b4c0           cmpa.w d0, a2
      < 0x0076af7e      6712           beq.b 0x76af92
         0x0076af80      b5eafffc       cmpa.l -0x4(a2), a2
     < 0x0076af84      6702           beq.b 0x76af88
        0x0076af86      4e4d           trap 0xd
     > 0x0076af88      26aa000c       move.l 0xc(a2), (a3)
         0x0076af8c      288a           move.l a2, (a4)
     < 0x0076af8e      6002           bra.b 0x76af92
     > 0x0076af90      2689           move.l a1, (a3)
     > 0x0076af92      4cdf1f01       movem.l (a7)+, d0/a0-a4
           0x0076af96      4e5e           unlk a6
           0x0076af98      4e75           rts
 138: MENUTYPECOM.previous_char_v ();
           0x0076af9a      4e56ffdc       link.w a6, 0xffdc
           0x0076af9e      bfd5           cmpa.l (a5), a7
       < 0x0076afa0      6206           bhi.b 0x76afa8
          0x0076afa2      44fc0002       move.w 0x2, ccr
          0x0076afa6      4e76           trapv
       > 0x0076afa8      defc0024       adda.w 0x24, a7
           0x0076afac      48e7c0c0       movem.l d0-d1/a0-a1, -(a7)
           0x0076afb0      7201           moveq 0x1, d1
           0x0076afb2      20790086e6d8   movea.l 0x86e6d8, a0
           0x0076afb8      b1e8fffc       cmpa.l -0x4(a0), a0
       < 0x0076afbc      6702           beq.b 0x76afc0
          0x0076afbe      4e4d           trap 0xd
       > 0x0076afc0      2250           movea.l (a0), a1
           0x0076afc2      b2c1           cmpa.w d1, a1
       < 0x0076afc4      671a           beq.b 0x76afe0
          0x0076afc6      b3e9fffc       cmpa.l -0x4(a1), a1
      < 0x0076afca      6702           beq.b 0x76afce
         0x0076afcc      4e4d           trap 0xd
      > 0x0076afce      30290010       move.w 0x10(a1), d0
          0x0076afd2      0c40ffff       cmpi.w 0xffff, d0
      < 0x0076afd6      6302           bls.b 0x76afda
         0x0076afd8      4e4f           trap 0xf
     > 0x0076afda      3d400008       move.w d0, 0x8(a6)
     < 0x0076afde      603c           bra.b 0x76b01c
     > 0x0076afe0      20790086e6e8   movea.l 0x86e6e8, a0
         0x0076afe6      b1e8fffc       cmpa.l -0x4(a0), a0
     < 0x0076afea      6702           beq.b 0x76afee
        0x0076afec      4e4d           trap 0xd
     > 0x0076afee      22680004       movea.l 0x4(a0), a1
         0x0076aff2      b2c1           cmpa.w d1, a1
     < 0x0076aff4      6722           beq.b 0x76b018
        0x0076aff6      b3e9fffc       cmpa.l -0x4(a1), a1
    < 0x0076affa      6702           beq.b 0x76affe
       0x0076affc      4e4d           trap 0xd
    > 0x0076affe      2069000c       movea.l 0xc(a1), a0
        0x0076b002      b1e8fffc       cmpa.l -0x4(a0), a0
    < 0x0076b006      6702           beq.b 0x76b00a
       0x0076b008      4e4d           trap 0xd
    > 0x0076b00a      30280010       move.w 0x10(a0), d0
        0x0076b00e      0c40ffff       cmpi.w 0xffff, d0
    < 0x0076b012      6302           bls.b 0x76b016
       0x0076b014      4e4f           trap 0xf
    < 0x0076b016      60c2           bra.b 0x76afda
      > 0x0076b018      426e0008       clr.w 0x8(a6)
      > 0x0076b01c      4cdf0303       movem.l (a7)+, d0-d1/a0-a1
           0x0076b020      4e5e           unlk a6
           0x0076b022      4e75           rts
            ; CALL XREF from MENUTYPECOM @ +0x8db6
 82: MENUTYPECOM.do_type_char ();
           0x0076b024      4e56ffb4       link.w a6, 0xffb4
           0x0076b028      bfd5           cmpa.l (a5), a7
       < 0x0076b02a      6206           bhi.b 0x76b032
          0x0076b02c      44fc0002       move.w 0x2, ccr
          0x0076b030      4e76           trapv
       > 0x0076b032      defc0042       adda.w 0x42, a7
           0x0076b036      48e7fef8       movem.l d0-d6/a0-a4, -(a7)
           0x0076b03a      45f90086e6e8   lea.l 0x86e6e8, a2
           0x0076b040      47f90086e6d8   lea.l 0x86e6d8, a3
           0x0076b046      7601           moveq 0x1, d3
           0x0076b048      780e           moveq 0xe, d4
           0x0076b04a      7a20           moveq 0x20, d5
           0x0076b04c      7c06           moveq 0x6, d6
           0x0076b04e      302e0008       move.w 0x8(a6), d0
           0x0076b052      0c400504       cmpi.w 0x504, d0
       < 0x0076b056      6c36           bge.b 0x76b08e
          0x0076b058      0c400412       cmpi.w 0x412, d0
      < 0x0076b05c      6d78           blt.b 0x76b0d6
         0x0076b05e      3200           move.w d0, d1
         0x0076b060      04410412       subi.w 0x412, d1
         0x0076b064      0c41000b       cmpi.w 0xb, d1
     < 0x0076b068      620004ca       bhi.w 0x76b534
        0x0076b06c      d241           add.w d1, d1
        0x0076b06e      323b1006       move.w 0x76b076(pc, d1.w), d1
        0x0076b072      4efb1002       jmp 0x76b076(pc, d1.w)
         0x0076b076      007e0126       
         0x0076b077      7e01           moveq 0x1, d7
         0x0076b079      2601           move.l d1, d3
     < 0x0076b07b      6c04           bge.b 0x76b081
        0x0076b07d      be02           cmp.b d2, d7
        0x0076b07f      5404           addq.b 0x2, d4
     > 0x0076b081      be01           cmp.b d1, d7
         0x0076b083      c204           and.b d4, d1
         0x0076b085      be02           cmp.b d2, d7
         0x0076b087      1604           move.b d4, d3
         0x0076b089      be04           cmp.b d4, d7
         0x0076b08b      be00           cmp.b d0, d7
         0x0076b08d      860c4005       
      > 0x0076b08e      0c400515       cmpi.w 0x515, d0
      < 0x0076b092      6d2e           blt.b 0x76b0c2
         0x0076b094      3200           move.w d0, d1
         0x0076b096      04410515       subi.w 0x515, d1
         0x0076b09a      0c41000a       cmpi.w 0xa, d1
     < 0x0076b09e      62000494       bhi.w 0x76b534
        0x0076b0a2      d241           add.w d1, d1
        0x0076b0a4      323b1006       move.w 0x76b0ac(pc, d1.w), d1
        0x0076b0a8      4efb1002       jmp 0x76b0ac(pc, d1.w)
        0x0076b0ac      0378039c       bchg.b d1, 0x39c
        0x0076b0b0      041a0444       subi.b 0x44, (a2)+
        0x0076b0b4      04880488       
        0x0076b0b5      8804           or.b d4, d4
        0x0076b0b7      8802           or.b d2, d4
        0x0076b0b9      e802           asr.b 0x4, d2
        0x0076b0bb      5c03           addq.b 0x6, d3
        0x0076b0bd      c003           and.b d3, d0
        0x0076b0bf      e000           asr.b 0x8, d0
        0x0076b0c1      5c0c4005       
     > 0x0076b0c2      0c400504       cmpi.w 0x504, d0
     < 0x0076b0c6      670000cc       beq.w 0x76b194
        0x0076b0ca      0c400507       cmpi.w 0x507, d0
    < 0x0076b0ce      670000c4       beq.w 0x76b194
   < 0x0076b0d2      60000460       bra.w 0x76b534
   > 0x0076b0d6      0c400305       cmpi.w 0x305, d0
   < 0x0076b0da      6d0c           blt.b 0x76b0e8
      0x0076b0dc      0c400305       cmpi.w 0x305, d0
  < 0x0076b0e0      670000ba       beq.w 0x76b19c
  < 0x0076b0e4      6000044e       bra.w 0x76b534
  > 0x0076b0e8      0c40000d       cmpi.w 0xd, d0
  < 0x0076b0ec      670000ec       beq.w 0x76b1da
  < 0x0076b0f0      60000442       bra.w 0x76b534
     0x0076b0f4      4ebafc4c       jsr MENUTYPECOM.type_end(pc)
  < 0x0076b0f8      6000044a       bra.w 0x76b544
     0x0076b0fc      1f03           move.b d3, -(a7)
     0x0076b0fe      4ebaf814       jsr MENUTYPECOM.delete_char(pc)
     0x0076b102      544f           addq.w 0x2, a7
  < 0x0076b104      6000043e       bra.w 0x76b544
     0x0076b108      2852           movea.l (a2), a4
  > 0x0076b10a      4227           clr.b -(a7)
     0x0076b10c      4ebaf806       jsr MENUTYPECOM.delete_char(pc)
     0x0076b110      544f           addq.w 0x2, a7
     0x0076b112      2052           movea.l (a2), a0
     0x0076b114      b1e8fffc       cmpa.l -0x4(a0), a0
  < 0x0076b118      6702           beq.b 0x76b11c
     0x0076b11a      4e4d           trap 0xd
  > 0x0076b11c      554f           subq.w 0x2, a7
     0x0076b11e      4ebafe7a       jsr MENUTYPECOM.previous_char_v(pc)
     0x0076b122      321f           move.w (a7)+, d1
     0x0076b124      43fa8450       lea.l 0x763576(pc), a1
     0x0076b128      3401           move.w d1, d2
     0x0076b12a      e64a           lsr.w 0x3, d2
     0x0076b12c      b445           cmp.w d5, d2
  < 0x0076b12e      6d04           blt.b 0x76b134
     0x0076b130      7400           moveq 0x0, d2
  < 0x0076b132      6004           bra.b 0x76b138
  > 0x0076b134      03312000       btst.l d1, (a1, d2.w)
  < 0x0076b138      6614           bne.b 0x76b14e
     0x0076b13a      b9d2           cmpa.l (a2), a4
  < 0x0076b13c      6610           bne.b 0x76b14e
     0x0076b13e      22680004       movea.l 0x4(a0), a1
     0x0076b142      b2c3           cmpa.w d3, a1
  < 0x0076b144      66c4           bne.b 0x76b10a
     0x0076b146      2253           movea.l (a3), a1
     0x0076b148      b3e80008       cmpa.l 0x8(a0), a1
  < 0x0076b14c      66bc           bne.b 0x76b10a
  > 0x0076b14e      554f           subq.w 0x2, a7
     0x0076b150      4ebafe48       jsr MENUTYPECOM.previous_char_v(pc)
     0x0076b154      321f           move.w (a7)+, d1
     0x0076b156      41fa843e       lea.l 0x763596(pc), a0
     0x0076b15a      3401           move.w d1, d2
     0x0076b15c      e64a           lsr.w 0x3, d2
     0x0076b15e      b445           cmp.w d5, d2
  < 0x0076b160      6d04           blt.b 0x76b166
     0x0076b162      7400           moveq 0x0, d2
  < 0x0076b164      6004           bra.b 0x76b16a
  > 0x0076b166      03302000       btst.l d1, (a0, d2.w)
  < 0x0076b16a      670a           beq.b 0x76b176
     0x0076b16c      4227           clr.b -(a7)
     0x0076b16e      4ebaf7a4       jsr MENUTYPECOM.delete_char(pc)
     0x0076b172      544f           addq.w 0x2, a7
  < 0x0076b174      60d8           bra.b 0x76b14e
  > 0x0076b176      1f06           move.b d6, -(a7)
     0x0076b178      4eba9252       jsr MENUTYPECOM.update_type(pc)
     0x0076b17c      544f           addq.w 0x2, a7
     0x0076b17e      2053           movea.l (a3), a0
     0x0076b180      b1e8fffc       cmpa.l -0x4(a0), a0
  < 0x0076b184      6702           beq.b 0x76b188
     0x0076b186      4e4d           trap 0xd
     ; CODE XREF from MENUTYPECOM @ +0x82b8
  > 0x0076b188      23e800520086.  move.l 0x52(a0), 0x86e6f0.l
  < 0x0076b190      600003b2       bra.w 0x76b544
  > 0x0076b194      4ebaf9e6       jsr MENUTYPECOM.delete_line(pc)
   < 0x0076b198      600003aa       bra.w 0x76b544
  > 0x0076b19c      4227           clr.b -(a7)
       0x0076b19e      20790086e6e4   movea.l 0x86e6e4, a0
       0x0076b1a4      b1e8fffc       cmpa.l -0x4(a0), a0
   < 0x0076b1a8      6702           beq.b 0x76b1ac
      0x0076b1aa      4e4d           trap 0xd
   > 0x0076b1ac      20680008       movea.l 0x8(a0), a0
       0x0076b1b0      b1e8fffc       cmpa.l -0x4(a0), a0
   < 0x0076b1b4      6702           beq.b 0x76b1b8
      0x0076b1b6      4e4d           trap 0xd
   > 0x0076b1b8      20680004       movea.l 0x4(a0), a0
       0x0076b1bc      b0c3           cmpa.w d3, a0
   < 0x0076b1be      6602           bne.b 0x76b1c2
      0x0076b1c0      5217           addq.b 0x1, (a7)
   > 0x0076b1c2      4ebaa73e       jsr MENUTYPECOM.clear_type(pc)
       0x0076b1c6      1e86           move.b d6, (a7)
       0x0076b1c8      4eba9202       jsr MENUTYPECOM.update_type(pc)
       0x0076b1cc      544f           addq.w 0x2, a7
       0x0076b1ce      2053           movea.l (a3), a0
       0x0076b1d0      b1e8fffc       cmpa.l -0x4(a0), a0
   < 0x0076b1d4      6702           beq.b 0x76b1d8
      0x0076b1d6      4e4d           trap 0xd
  > 0x0076b1d8      60ae           bra.b 0x76b188
    > 0x0076b1da      4ebaf258       jsr MENUTYPECOM.add_return(pc)
    < 0x0076b1de      60000364       bra.w 0x76b544
       0x0076b1e2      4a2e000a       tst.b 0xa(a6)
   < 0x0076b1e6      662c           bne.b 0x76b214
      0x0076b1e8      554f           subq.w 0x2, a7
      0x0076b1ea      3f390086e79c   move.w 0x86e79c, -(a7)
      0x0076b1f0      4eb900480fc2   jsr MENUCOM.get_boxon
      0x0076b1f6      544f           addq.w 0x2, a7
      0x0076b1f8      4a1f           tst.b (a7)+
  < 0x0076b1fa      670a           beq.b 0x76b206
     0x0076b1fc      1f03           move.b d3, -(a7)
     0x0076b1fe      4eb9004a7b4e   jsr MENUKEYBDCOM.next_kbd_map_ti
  < 0x0076b204      602c           bra.b 0x76b232
  > 0x0076b206      1f03           move.b d3, -(a7)
      0x0076b208      4ebaf070       jsr MENUTYPECOM.next_font_title(pc)
      0x0076b20c      4217           clr.b (a7)
      0x0076b20e      4ebaa32c       jsr MENUTYPECOM.update_type_box(pc)
  < 0x0076b212      601e           bra.b 0x76b232
  > 0x0076b214      2052           movea.l (a2), a0
      0x0076b216      b1e8fffc       cmpa.l -0x4(a0), a0
  < 0x0076b21a      6702           beq.b 0x76b21e
     0x0076b21c      4e4d           trap 0xd
  > 0x0076b21e      22680004       movea.l 0x4(a0), a1
      0x0076b222      b2c3           cmpa.w d3, a1
  < 0x0076b224      670e           beq.b 0x76b234
     0x0076b226      2489           move.l a1, (a2)
     0x0076b228      4ebafab2       jsr MENUTYPECOM.find_nearest_ch(pc)
     0x0076b22c      1f04           move.b d4, -(a7)
     0x0076b22e      4eba919c       jsr MENUTYPECOM.update_type(pc)
  > 0x0076b232      544f           addq.w 0x2, a7
  > 0x0076b234      6000030e       bra.w 0x76b544
      0x0076b238      4a2e000a       tst.b 0xa(a6)
  < 0x0076b23c      662c           bne.b 0x76b26a
     0x0076b23e      554f           subq.w 0x2, a7
     0x0076b240      3f390086e79c   move.w 0x86e79c, -(a7)
     0x0076b246      4eb900480fc2   jsr MENUCOM.get_boxon
     0x0076b24c      544f           addq.w 0x2, a7
     0x0076b24e      4a1f           tst.b (a7)+
  < 0x0076b250      670a           beq.b 0x76b25c
     0x0076b252      4227           clr.b -(a7)
     0x0076b254      4eb9004a7b4e   jsr MENUKEYBDCOM.next_kbd_map_ti
  < 0x0076b25a      602a           bra.b 0x76b286
  > 0x0076b25c      4227           clr.b -(a7)
     0x0076b25e      4ebaf01a       jsr MENUTYPECOM.next_font_title(pc)
     0x0076b262      4217           clr.b (a7)
     0x0076b264      4ebaa2d6       jsr MENUTYPECOM.update_type_box(pc)
  < 0x0076b268      601c           bra.b 0x76b286
  > 0x0076b26a      2052           movea.l (a2), a0
      0x0076b26c      b1e8fffc       cmpa.l -0x4(a0), a0
  < 0x0076b270      6702           beq.b 0x76b274
     0x0076b272      4e4d           trap 0xd
  > 0x0076b274      2250           movea.l (a0), a1
      0x0076b276      b2c3           cmpa.w d3, a1
  < 0x0076b278      670e           beq.b 0x76b288
     0x0076b27a      2489           move.l a1, (a2)
     0x0076b27c      4ebafa5e       jsr MENUTYPECOM.find_nearest_ch(pc)
     0x0076b280      1f04           move.b d4, -(a7)
     0x0076b282      4eba9148       jsr MENUTYPECOM.update_type(pc)
  > 0x0076b286      544f           addq.w 0x2, a7
  > 0x0076b288      600002ba       bra.w 0x76b544
      0x0076b28c      4a390086e7de   tst.b 0x86e7de
  < 0x0076b292      6606           bne.b 0x76b29a
  > 0x0076b294      4ebafca4       jsr MENUTYPECOM.move_to_prev_ch(pc)
  < 0x0076b298      601a           bra.b 0x76b2b4
  > 0x0076b29a      12390086e7de   move.b 0x86e7de, d1
      0x0076b2a0      b203           cmp.b d3, d1
  < 0x0076b2a2      6602           bne.b 0x76b2a6
  < 0x0076b2a4      600a           bra.b 0x76b2b0
  > 0x0076b2a6      4a390086e7df   tst.b 0x86e7df
  < 0x0076b2ac      6602           bne.b 0x76b2b0
  < 0x0076b2ae      60e4           bra.b 0x76b294
  > 0x0076b2b0      4ebafc28       jsr MENUTYPECOM.move_to_next_ch(pc)
  > 0x0076b2b4      1f04           move.b d4, -(a7)
      0x0076b2b6      4eba9114       jsr MENUTYPECOM.update_type(pc)
      0x0076b2ba      544f           addq.w 0x2, a7
      0x0076b2bc      2053           movea.l (a3), a0
      0x0076b2be      b1e8fffc       cmpa.l -0x4(a0), a0
  < 0x0076b2c2      6702           beq.b 0x76b2c6
     0x0076b2c4      4e4d           trap 0xd
  > 0x0076b2c6      6000fec0       bra.w 0x76b188
      0x0076b2ca      4a390086e7de   tst.b 0x86e7de
  < 0x0076b2d0      6606           bne.b 0x76b2d8
  > 0x0076b2d2      4ebafc06       jsr MENUTYPECOM.move_to_next_ch(pc)
  < 0x0076b2d6      601a           bra.b 0x76b2f2
  > 0x0076b2d8      12390086e7de   move.b 0x86e7de, d1
      0x0076b2de      b203           cmp.b d3, d1
  < 0x0076b2e0      6602           bne.b 0x76b2e4
  < 0x0076b2e2      600a           bra.b 0x76b2ee
  > 0x0076b2e4      4a390086e7df   tst.b 0x86e7df
  < 0x0076b2ea      6602           bne.b 0x76b2ee
  < 0x0076b2ec      60e4           bra.b 0x76b2d2
  > 0x0076b2ee      4ebafc4a       jsr MENUTYPECOM.move_to_prev_ch(pc)
  > 0x0076b2f2      1f04           move.b d4, -(a7)
      0x0076b2f4      4eba90d6       jsr MENUTYPECOM.update_type(pc)
      0x0076b2f8      544f           addq.w 0x2, a7
      0x0076b2fa      2053           movea.l (a3), a0
      0x0076b2fc      b1e8fffc       cmpa.l -0x4(a0), a0
  < 0x0076b300      6702           beq.b 0x76b304
     0x0076b302      4e4d           trap 0xd
  > 0x0076b304      6000fe82       bra.w 0x76b188
      0x0076b308      2852           movea.l (a2), a4
  > 0x0076b30a      4ebafbce       jsr MENUTYPECOM.move_to_next_ch(pc)
     0x0076b30e      2052           movea.l (a2), a0
     0x0076b310      b1e8fffc       cmpa.l -0x4(a0), a0
  < 0x0076b314      6702           beq.b 0x76b318
     0x0076b316      4e4d           trap 0xd
  > 0x0076b318      2253           movea.l (a3), a1
     0x0076b31a      b3e9fffc       cmpa.l -0x4(a1), a1
  < 0x0076b31e      6702           beq.b 0x76b322
     0x0076b320      4e4d           trap 0xd
  > 0x0076b322      32290010       move.w 0x10(a1), d1
     0x0076b326      b245           cmp.w d5, d1
  < 0x0076b328      6712           beq.b 0x76b33c
     0x0076b32a      b9d2           cmpa.l (a2), a4
  < 0x0076b32c      660e           bne.b 0x76b33c
     0x0076b32e      2250           movea.l (a0), a1
     0x0076b330      b2c3           cmpa.w d3, a1
  < 0x0076b332      66d6           bne.b 0x76b30a
     0x0076b334      2253           movea.l (a3), a1
     0x0076b336      b3e8000c       cmpa.l 0xc(a0), a1
  < 0x0076b33a      66ce           bne.b 0x76b30a
  > 0x0076b33c      2052           movea.l (a2), a0
     0x0076b33e      b1e8fffc       cmpa.l -0x4(a0), a0
  < 0x0076b342      6702           beq.b 0x76b346
     0x0076b344      4e4d           trap 0xd
  > 0x0076b346      2253           movea.l (a3), a1
     0x0076b348      b3e9fffc       cmpa.l -0x4(a1), a1
  < 0x0076b34c      6702           beq.b 0x76b350
     0x0076b34e      4e4d           trap 0xd
  > 0x0076b350      32290010       move.w 0x10(a1), d1
     0x0076b354      43fa8260       lea.l 0x7635b6(pc), a1
     0x0076b358      3401           move.w d1, d2
     0x0076b35a      e64a           lsr.w 0x3, d2
     0x0076b35c      b445           cmp.w d5, d2
  < 0x0076b35e      6d04           blt.b 0x76b364
     0x0076b360      7400           moveq 0x0, d2
  < 0x0076b362      6004           bra.b 0x76b368
  > 0x0076b364      03312000       btst.l d1, (a1, d2.w)
  < 0x0076b368      6714           beq.b 0x76b37e
     0x0076b36a      2250           movea.l (a0), a1
     0x0076b36c      b2c3           cmpa.w d3, a1
  < 0x0076b36e      6608           bne.b 0x76b378
     0x0076b370      2253           movea.l (a3), a1
     0x0076b372      b3e8000c       cmpa.l 0xc(a0), a1
  < 0x0076b376      6706           beq.b 0x76b37e
  > 0x0076b378      4ebafb60       jsr MENUTYPECOM.move_to_next_ch(pc)
  < 0x0076b37c      60be           bra.b 0x76b33c
  > 0x0076b37e      1f04           move.b d4, -(a7)
      0x0076b380      4eba904a       jsr MENUTYPECOM.update_type(pc)
      0x0076b384      544f           addq.w 0x2, a7
      0x0076b386      2053           movea.l (a3), a0
      0x0076b388      b1e8fffc       cmpa.l -0x4(a0), a0
  < 0x0076b38c      6702           beq.b 0x76b390
     0x0076b38e      4e4d           trap 0xd
  > 0x0076b390      6000fdf6       bra.w 0x76b188
      0x0076b394      2852           movea.l (a2), a4
  > 0x0076b396      4ebafba2       jsr MENUTYPECOM.move_to_prev_ch(pc)
     0x0076b39a      2052           movea.l (a2), a0
     0x0076b39c      b1e8fffc       cmpa.l -0x4(a0), a0
  < 0x0076b3a0      6702           beq.b 0x76b3a4
     0x0076b3a2      4e4d           trap 0xd
  > 0x0076b3a4      2253           movea.l (a3), a1
     0x0076b3a6      b3e9fffc       cmpa.l -0x4(a1), a1
  < 0x0076b3aa      6702           beq.b 0x76b3ae
     0x0076b3ac      4e4d           trap 0xd
  > 0x0076b3ae      32290010       move.w 0x10(a1), d1
     0x0076b3b2      b245           cmp.w d5, d1
  < 0x0076b3b4      6714           beq.b 0x76b3ca
     0x0076b3b6      b9d2           cmpa.l (a2), a4
  < 0x0076b3b8      6610           bne.b 0x76b3ca
     0x0076b3ba      22680004       movea.l 0x4(a0), a1
     0x0076b3be      b2c3           cmpa.w d3, a1
  < 0x0076b3c0      66d4           bne.b 0x76b396
     0x0076b3c2      2253           movea.l (a3), a1
     0x0076b3c4      b3e80008       cmpa.l 0x8(a0), a1
  < 0x0076b3c8      66cc           bne.b 0x76b396
  > 0x0076b3ca      2052           movea.l (a2), a0
     0x0076b3cc      b1e8fffc       cmpa.l -0x4(a0), a0
  < 0x0076b3d0      6702           beq.b 0x76b3d4
     0x0076b3d2      4e4d           trap 0xd
  > 0x0076b3d4      2253           movea.l (a3), a1
     0x0076b3d6      b3e9fffc       cmpa.l -0x4(a1), a1
  < 0x0076b3da      6702           beq.b 0x76b3de
     0x0076b3dc      4e4d           trap 0xd
  > 0x0076b3de      32290010       move.w 0x10(a1), d1
     0x0076b3e2      43fa81f2       lea.l 0x7635d6(pc), a1
     0x0076b3e6      3401           move.w d1, d2
     0x0076b3e8      e64a           lsr.w 0x3, d2
     0x0076b3ea      b445           cmp.w d5, d2
  < 0x0076b3ec      6d04           blt.b 0x76b3f2
     0x0076b3ee      7400           moveq 0x0, d2
  < 0x0076b3f0      6004           bra.b 0x76b3f6
  > 0x0076b3f2      03312000       btst.l d1, (a1, d2.w)
  < 0x0076b3f6      6716           beq.b 0x76b40e
     0x0076b3f8      22680004       movea.l 0x4(a0), a1
     0x0076b3fc      b2c3           cmpa.w d3, a1
  < 0x0076b3fe      6608           bne.b 0x76b408
     0x0076b400      2253           movea.l (a3), a1
     0x0076b402      b3e80008       cmpa.l 0x8(a0), a1
  < 0x0076b406      6706           beq.b 0x76b40e
  > 0x0076b408      4ebafb30       jsr MENUTYPECOM.move_to_prev_ch(pc)
  < 0x0076b40c      60bc           bra.b 0x76b3ca
  > 0x0076b40e      1f04           move.b d4, -(a7)
      0x0076b410      4eba8fba       jsr MENUTYPECOM.update_type(pc)
      0x0076b414      544f           addq.w 0x2, a7
      0x0076b416      2053           movea.l (a3), a0
      0x0076b418      b1e8fffc       cmpa.l -0x4(a0), a0
  < 0x0076b41c      6702           beq.b 0x76b420
     0x0076b41e      4e4d           trap 0xd
  > 0x0076b420      6000fd66       bra.w 0x76b188
      0x0076b424      2052           movea.l (a2), a0
      0x0076b426      b1e8fffc       cmpa.l -0x4(a0), a0
  < 0x0076b42a      6702           beq.b 0x76b42e
     0x0076b42c      4e4d           trap 0xd
  > 0x0076b42e      26a80008       move.l 0x8(a0), (a3)
      0x0076b432      1f04           move.b d4, -(a7)
      0x0076b434      4eba8f96       jsr MENUTYPECOM.update_type(pc)
      0x0076b438      544f           addq.w 0x2, a7
      0x0076b43a      2053           movea.l (a3), a0
      0x0076b43c      b1e8fffc       cmpa.l -0x4(a0), a0
  < 0x0076b440      6702           beq.b 0x76b444
     0x0076b442      4e4d           trap 0xd
  > 0x0076b444      6000fd42       bra.w 0x76b188
      0x0076b448      2052           movea.l (a2), a0
      0x0076b44a      b1e8fffc       cmpa.l -0x4(a0), a0
  < 0x0076b44e      6702           beq.b 0x76b452
     0x0076b450      4e4d           trap 0xd
  > 0x0076b452      26a8000c       move.l 0xc(a0), (a3)
      0x0076b456      1f04           move.b d4, -(a7)
      0x0076b458      4eba8f72       jsr MENUTYPECOM.update_type(pc)
      0x0076b45c      544f           addq.w 0x2, a7
      0x0076b45e      2053           movea.l (a3), a0
      0x0076b460      b1e8fffc       cmpa.l -0x4(a0), a0
  < 0x0076b464      6702           beq.b 0x76b468
     0x0076b466      4e4d           trap 0xd
  > 0x0076b468      6000fd1e       bra.w 0x76b188
      0x0076b46c      24b90086e6e4   move.l 0x86e6e4, (a2)
      0x0076b472      4ebaf868       jsr MENUTYPECOM.find_nearest_ch(pc)
      0x0076b476      1f04           move.b d4, -(a7)
      0x0076b478      4eba8f52       jsr MENUTYPECOM.update_type(pc)
      0x0076b47c      544f           addq.w 0x2, a7
      0x0076b47e      2053           movea.l (a3), a0
      0x0076b480      b1e8fffc       cmpa.l -0x4(a0), a0
  < 0x0076b484      6702           beq.b 0x76b488
     0x0076b486      4e4d           trap 0xd
  > 0x0076b488      6000fcfe       bra.w 0x76b188
      0x0076b48c      24b90086e6e4   move.l 0x86e6e4, (a2)
      0x0076b492      2052           movea.l (a2), a0
      0x0076b494      b0c3           cmpa.w d3, a0
  < 0x0076b496      6714           beq.b 0x76b4ac
  > 0x0076b498      2052           movea.l (a2), a0
     0x0076b49a      b1e8fffc       cmpa.l -0x4(a0), a0
  < 0x0076b49e      6702           beq.b 0x76b4a2
     0x0076b4a0      4e4d           trap 0xd
  > 0x0076b4a2      2250           movea.l (a0), a1
     0x0076b4a4      b2c3           cmpa.w d3, a1
  < 0x0076b4a6      6704           beq.b 0x76b4ac
     0x0076b4a8      2489           move.l a1, (a2)
  < 0x0076b4aa      60ec           bra.b 0x76b498
  > 0x0076b4ac      4ebaf82e       jsr MENUTYPECOM.find_nearest_ch(pc)
      0x0076b4b0      1f04           move.b d4, -(a7)
      0x0076b4b2      4eba8f18       jsr MENUTYPECOM.update_type(pc)
      0x0076b4b6      544f           addq.w 0x2, a7
      0x0076b4b8      2053           movea.l (a3), a0
      0x0076b4ba      b1e8fffc       cmpa.l -0x4(a0), a0
  < 0x0076b4be      6702           beq.b 0x76b4c2
     0x0076b4c0      4e4d           trap 0xd
  > 0x0076b4c2      6000fcc4       bra.w 0x76b188
      0x0076b4c6      24b90086e6e4   move.l 0x86e6e4, (a2)
      0x0076b4cc      2052           movea.l (a2), a0
      0x0076b4ce      b1e8fffc       cmpa.l -0x4(a0), a0
  < 0x0076b4d2      6702           beq.b 0x76b4d6
     0x0076b4d4      4e4d           trap 0xd
  > 0x0076b4d6      26a80008       move.l 0x8(a0), (a3)
      0x0076b4da      1f04           move.b d4, -(a7)
      0x0076b4dc      4eba8eee       jsr MENUTYPECOM.update_type(pc)
      0x0076b4e0      544f           addq.w 0x2, a7
      0x0076b4e2      2053           movea.l (a3), a0
      0x0076b4e4      b1e8fffc       cmpa.l -0x4(a0), a0
  < 0x0076b4e8      6702           beq.b 0x76b4ec
     0x0076b4ea      4e4d           trap 0xd
  > 0x0076b4ec      6000fc9a       bra.w 0x76b188
      0x0076b4f0      24b90086e6e4   move.l 0x86e6e4, (a2)
      0x0076b4f6      2052           movea.l (a2), a0
      0x0076b4f8      b0c3           cmpa.w d3, a0
  < 0x0076b4fa      6714           beq.b 0x76b510
  > 0x0076b4fc      2052           movea.l (a2), a0
     0x0076b4fe      b1e8fffc       cmpa.l -0x4(a0), a0
  < 0x0076b502      6702           beq.b 0x76b506
     0x0076b504      4e4d           trap 0xd
  > 0x0076b506      2250           movea.l (a0), a1
     0x0076b508      b2c3           cmpa.w d3, a1
  < 0x0076b50a      6704           beq.b 0x76b510
     0x0076b50c      2489           move.l a1, (a2)
  < 0x0076b50e      60ec           bra.b 0x76b4fc
  > 0x0076b510      2052           movea.l (a2), a0
      0x0076b512      b1e8fffc       cmpa.l -0x4(a0), a0
  < 0x0076b516      6702           beq.b 0x76b51a
     0x0076b518      4e4d           trap 0xd
  > 0x0076b51a      26a8000c       move.l 0xc(a0), (a3)
      0x0076b51e      1f04           move.b d4, -(a7)
      0x0076b520      4eba8eaa       jsr MENUTYPECOM.update_type(pc)
      0x0076b524      544f           addq.w 0x2, a7
      0x0076b526      2053           movea.l (a3), a0
      0x0076b528      b1e8fffc       cmpa.l -0x4(a0), a0
  < 0x0076b52c      6702           beq.b 0x76b530
     0x0076b52e      4e4d           trap 0xd
  > 0x0076b530      6000fc56       bra.w 0x76b188
      ; CODE XREFS from MENUTYPECOM @ +0x81b2, +0x81c4, +0x81d0
  > 0x0076b534      3f00           move.w d0, -(a7)
         0x0076b536      1f03           move.b d3, -(a7)
         0x0076b538      4852           pea.l (a2)
         0x0076b53a      4853           pea.l (a3)
         0x0076b53c      4ebaad5e       jsr MENUTYPECOM.add_text_char(pc)
         0x0076b540      defc000c       adda.w 0xc, a7
         ; CODE XREFS from MENUTYPECOM @ +0x8270, +0x8278, +0x82be
  > 0x0076b544      4227           clr.b -(a7)
            0x0076b546      4eba9ff4       jsr MENUTYPECOM.update_type_box(pc)
            0x0076b54a      544f           addq.w 0x2, a7
            0x0076b54c      4cdf1f7f       movem.l (a7)+, d0-d6/a0-a4
            0x0076b550      4e5e           unlk a6
            0x0076b552      4e75           rts
 70: MENUTYPECOM.hit_cut_text ();
           0x0076b554      4e56ff90       link.w a6, 0xff90
           0x0076b558      bfd5           cmpa.l (a5), a7
       < 0x0076b55a      6206           bhi.b 0x76b562
          0x0076b55c      44fc0002       move.w 0x2, ccr
          0x0076b560      4e76           trapv
       > 0x0076b562      defc0052       adda.w 0x52, a7
           0x0076b566      48e7fff8       movem.l d0-d7/a0-a4, -(a7)
           0x0076b56a      47f900483776   lea.l MENUCOM.swtch_box, a3
           0x0076b570      7401           moveq 0x1, d2
           0x0076b572      7a03           moveq 0x3, d5
           0x0076b574      7c02           moveq 0x2, d6
           0x0076b576      20790086e67a   movea.l 0x86e67a, a0
           0x0076b57c      b1e8fffc       cmpa.l -0x4(a0), a0
       < 0x0076b580      6702           beq.b 0x76b584
          0x0076b582      4e4d           trap 0xd
       > 0x0076b584      302e0008       move.w 0x8(a6), d0
           0x0076b588      0c400027       cmpi.w 0x27, d0
       < 0x0076b58c      620006cc       bhi.w 0x76bc5a
          0x0076b590      d040           add.w d0, d0
          0x0076b592      303b0006       move.w 0x76b59a(pc, d0.w), d0
          0x0076b596      4efb0002       jmp 0x76b59a(pc, d0.w)
           0x0076b59a      0300           btst.l d1, d0
           0x0076b59c      00500368       ori.w 0x368, (a0)
           0x0076b5a0      06c0           invalid
           0x0076b5a2      06c0           invalid
           0x0076b5a4      06c0           invalid
           0x0076b5a6      06c0           invalid
           0x0076b5a8      06c0           invalid
           0x0076b5aa      0386           bclr.b d1, d6
           0x0076b5ac      049404d20612   subi.l 0x4d20612, (a4)
           0x0076b5b2      06120688       addi.b 0x88, (a2)
           0x0076b5b6      059e           bclr.b d2, (a6)+
           0x0076b5b8      0386           bclr.b d1, d6
           0x0076b5ba      049404d206c0   subi.l 0x4d206c0, (a4)
           0x0076b5c0      059e           bclr.b d2, (a6)+
           0x0076b5c2      06c0           invalid
           0x0076b5c4      06c0           invalid
           0x0076b5c6      069206c006c0   addi.l 0x6c006c0, (a2)
           0x0076b5cc      06c0           invalid
           0x0076b5ce      06c0           invalid
           0x0076b5d0      06c0           invalid
           0x0076b5d2      06c0           invalid
           0x0076b5d4      0520           btst.l d2, -(a0)
           0x0076b5d6      0300           btst.l d1, d0
           0x0076b5d8      06c0           invalid
           0x0076b5da      06c0           invalid
           0x0076b5dc      06c0           invalid
           0x0076b5de      06c0           invalid
           0x0076b5e0      06c0           invalid
           0x0076b5e2      06c0           invalid
           0x0076b5e4      06c0           invalid
           0x0076b5e6      055c           bchg.b d2, (a4)+
           0x0076b5e8      055c           bchg.b d2, (a4)+
           0x0076b5ea      22790086e6d0   movea.l 0x86e6d0, a1
           0x0076b5f0      b3e9fffc       cmpa.l -0x4(a1), a1
       < 0x0076b5f4      6702           beq.b 0x76b5f8
          0x0076b5f6      4e4d           trap 0xd
       > 0x0076b5f8      2251           movea.l (a1), a1
           0x0076b5fa      b2c2           cmpa.w d2, a1
       < 0x0076b5fc      663a           bne.b 0x76b638
          0x0076b5fe      594f           subq.w 0x4, a7
          0x0076b600      2f3a8026       move.l 0x763628(pc), -(a7)
          0x0076b604      3f7a80260004   move.w 0x76362c(pc), 0x4(a7)
          0x0076b60a      1f7a80220006   move.b 0x76362e(pc), 0x6(a7)
          0x0076b610      3f3c0082       move.w 0x82, -(a7)
          0x0076b614      486f0002       pea.l 0x2(a7)
          0x0076b618      48780001       pea.l 0x1
          0x0076b61c      48780007       pea.l 0x7
          0x0076b620      4eb900483af8   jsr MENUCOM.box_error
          0x0076b626      defc0014       adda.w 0x14, a7
          0x0076b62a      3ebc0082       move.w 0x82, (a7)
          0x0076b62e      4227           clr.b -(a7)
          0x0076b630      4e93           jsr (a3)                    ; fcn.0000000c
          0x0076b632      584f           addq.w 0x4, a7
      < 0x0076b634      60000260       bra.w 0x76b896
      > 0x0076b638      23f900763630.  move.l 0x763630, 0x86e7d0.l
          0x0076b642      23f900763634.  move.l 0x763634, 0x86e7d4.l
          0x0076b64c      4a390086e686   tst.b 0x86e686
      < 0x0076b652      67000092       beq.w 0x76b6e6
         0x0076b656      554f           subq.w 0x2, a7
         0x0076b658      3f3c0030       move.w 0x30, -(a7)
         0x0076b65c      4eb900480fc2   jsr MENUCOM.get_boxon
         0x0076b662      544f           addq.w 0x2, a7
         0x0076b664      4a1f           tst.b (a7)+
     < 0x0076b666      6612           bne.b 0x76b67a
        0x0076b668      554f           subq.w 0x2, a7
        0x0076b66a      3f3c002f       move.w 0x2f, -(a7)
        0x0076b66e      4eb900480fc2   jsr MENUCOM.get_boxon
        0x0076b674      544f           addq.w 0x2, a7
        0x0076b676      4a1f           tst.b (a7)+
    < 0x0076b678      6764           beq.b 0x76b6de
    > 0x0076b67a      514f           subq.w 0x8, a7
        0x0076b67c      2f390076363c   move.l 0x76363c, -(a7)
        0x0076b682      2f3900763638   move.l 0x763638, -(a7)
        0x0076b688      4eb90050055e   jsr MENUGRIDCOM.unscaled_pos
        0x0076b68e      504f           addq.w 0x8, a7
        0x0076b690      2d5ffff0       move.l (a7)+, -0x10(a6)
        0x0076b694      2d57fff4       move.l (a7), -0xc(a6)
        0x0076b698      594f           subq.w 0x4, a7
        0x0076b69a      2f3900763644   move.l 0x763644, -(a7)
        0x0076b6a0      2f3900763640   move.l 0x763640, -(a7)
        0x0076b6a6      4eb90050055e   jsr MENUGRIDCOM.unscaled_pos
        0x0076b6ac      504f           addq.w 0x8, a7
        0x0076b6ae      2d5ffff8       move.l (a7)+, -0x8(a6)
        0x0076b6b2      2d5ffffc       move.l (a7)+, -0x4(a6)
        0x0076b6b6      282efff8       move.l -0x8(a6), d4
        0x0076b6ba      262efff0       move.l -0x10(a6), d3
        0x0076b6be      4eb900407b44   jsr fcn.00407b44
        0x0076b6c4      23c40086e7d0   move.l d4, 0x86e7d0
        0x0076b6ca      282efffc       move.l -0x4(a6), d4
        0x0076b6ce      262efff4       move.l -0xc(a6), d3
        0x0076b6d2      4eb900407b44   jsr fcn.00407b44
        0x0076b6d8      23c40086e7d4   move.l d4, 0x86e7d4
    > 0x0076b6de      4227           clr.b -(a7)
         0x0076b6e0      4eba9e5a       jsr MENUTYPECOM.update_type_box(pc)
         0x0076b6e4      544f           addq.w 0x2, a7
      > 0x0076b6e6      3f3c0076       move.w 0x76, -(a7)
          0x0076b6ea      4227           clr.b -(a7)
          0x0076b6ec      4e93           jsr (a3)                    ; fcn.0000000c
          0x0076b6ee      544f           addq.w 0x2, a7
          0x0076b6f0      3eb90086e7a6   move.w 0x86e7a6, (a7)
          0x0076b6f6      4227           clr.b -(a7)
          0x0076b6f8      4e93           jsr (a3)                    ; fcn.0000000c
          0x0076b6fa      544f           addq.w 0x2, a7
          0x0076b6fc      3eb90086e7a8   move.w 0x86e7a8, (a7)
          0x0076b702      4227           clr.b -(a7)
          0x0076b704      4e93           jsr (a3)                    ; fcn.0000000c
          0x0076b706      544f           addq.w 0x2, a7
          0x0076b708      3eb90086e7ac   move.w 0x86e7ac, (a7)
          0x0076b70e      4227           clr.b -(a7)
          0x0076b710      4e93           jsr (a3)                    ; fcn.0000000c
          0x0076b712      544f           addq.w 0x2, a7
          0x0076b714      3eb90086e7aa   move.w 0x86e7aa, (a7)
          0x0076b71a      1f02           move.b d2, -(a7)
          0x0076b71c      4e93           jsr (a3)                    ; fcn.0000000c
          0x0076b71e      544f           addq.w 0x2, a7
          0x0076b720      3eb90086e7a0   move.w 0x86e7a0, (a7)
          0x0076b726      1f02           move.b d2, -(a7)
          0x0076b728      4e93           jsr (a3)                    ; fcn.0000000c
          0x0076b72a      544f           addq.w 0x2, a7
          0x0076b72c      4217           clr.b (a7)
          0x0076b72e      4eb9004b2d9c   jsr MENUPASTECOM.change_pasteup
          0x0076b734      3eb90086e79e   move.w 0x86e79e, (a7)
          0x0076b73a      1f02           move.b d2, -(a7)
          0x0076b73c      4e93           jsr (a3)                    ; fcn.0000000c
          0x0076b73e      544f           addq.w 0x2, a7
          0x0076b740      1e86           move.b d6, (a7)
          0x0076b742      4eb90048f2e6   jsr MENURIGHTCOM.change_right
          0x0076b748      3eb90086e79c   move.w 0x86e79c, (a7)
          0x0076b74e      554f           subq.w 0x2, a7
          0x0076b750      3f390086e79c   move.w 0x86e79c, -(a7)
          0x0076b756      4eb900480fc2   jsr MENUCOM.get_boxon
          0x0076b75c      544f           addq.w 0x2, a7
          0x0076b75e      1017           move.b (a7), d0
          0x0076b760      4880           ext.w d0
          0x0076b762      4182           chk.w d2, d0
          0x0076b764      1e80           move.b d0, (a7)
          0x0076b766      4e93           jsr (a3)                    ; fcn.0000000c
          0x0076b768      3eb90086e79c   move.w 0x86e79c, (a7)
          0x0076b76e      4eb900480fc2   jsr MENUCOM.get_boxon
          0x0076b774      544f           addq.w 0x2, a7
          0x0076b776      4a1f           tst.b (a7)+
      < 0x0076b778      670a           beq.b 0x76b784
         0x0076b77a      3f390086e79c   move.w 0x86e79c, -(a7)
         0x0076b780      3f02           move.w d2, -(a7)
     < 0x0076b782      6008           bra.b 0x76b78c
     > 0x0076b784      3f390086e79c   move.w 0x86e79c, -(a7)
         0x0076b78a      4267           clr.w -(a7)
     > 0x0076b78c      4eb9004a6a9e   jsr MENUKEYBDCOM.hit_pick_kbd_ma
          0x0076b792      584f           addq.w 0x4, a7
          0x0076b794      2f3900762f6a   move.l 0x762f6a, -(a7)
          0x0076b79a      3f3900762f68   move.w 0x762f68, -(a7)
          0x0076b7a0      4eb900520fa4   jsr BRUSHCOM.set_br_colour
          0x0076b7a6      584f           addq.w 0x4, a7
          0x0076b7a8      1e85           move.b d5, (a7)
          0x0076b7aa      2f390086e694   move.l 0x86e694, -(a7)
          0x0076b7b0      2f390086e690   move.l 0x86e690, -(a7)
          0x0076b7b6      4eb9005223fc   jsr BRUSHCOM.str_write_area
          0x0076b7bc      504f           addq.w 0x8, a7
          0x0076b7be      1e85           move.b d5, (a7)
          0x0076b7c0      1f02           move.b d2, -(a7)
          0x0076b7c2      2f390086e694   move.l 0x86e694, -(a7)
          0x0076b7c8      2f390086e690   move.l 0x86e690, -(a7)
          0x0076b7ce      4eb9005213b4   jsr BRUSHCOM.br_wipe
          0x0076b7d4      defc000a       adda.w 0xa, a7
          0x0076b7d8      1e85           move.b d5, (a7)
          0x0076b7da      2f390086e69c   move.l 0x86e69c, -(a7)
          0x0076b7e0      2f390086e698   move.l 0x86e698, -(a7)
          0x0076b7e6      4eb9005223fc   jsr BRUSHCOM.str_write_area
          0x0076b7ec      504f           addq.w 0x8, a7
          0x0076b7ee      1e85           move.b d5, (a7)
          0x0076b7f0      1f02           move.b d2, -(a7)
          0x0076b7f2      2f390086e69c   move.l 0x86e69c, -(a7)
          0x0076b7f8      2f390086e698   move.l 0x86e698, -(a7)
          0x0076b7fe      4eb9005213b4   jsr BRUSHCOM.br_wipe
          0x0076b804      defc000c       adda.w 0xc, a7
          0x0076b808      4eb90051f298   jsr BRUSHCOM.brush_wait
          0x0076b80e      1f05           move.b d5, -(a7)
          0x0076b810      2f390086e6a4   move.l 0x86e6a4, -(a7)
          0x0076b816      2f390086e6a0   move.l 0x86e6a0, -(a7)
          0x0076b81c      4eb900518a2a   jsr OUTCOM.set_video_crops
          0x0076b822      504f           addq.w 0x8, a7
          0x0076b824      1e85           move.b d5, (a7)
          0x0076b826      2f3900763648   move.l 0x763648, -(a7)
          0x0076b82c      4eb90051872e   jsr OUTCOM.set_scroll
          0x0076b832      5c4f           addq.w 0x6, a7
          0x0076b834      22790086e78a   movea.l 0x86e78a, a1
          0x0076b83a      b3e9fffc       cmpa.l -0x4(a1), a1
      < 0x0076b83e      6702           beq.b 0x76b842
         0x0076b840      4e4d           trap 0xd
      > 0x0076b842      5d4f           subq.w 0x6, a7
          0x0076b844      4eb900636d9e   jsr PALETCOM.br_colour
          0x0076b84a      43e902dc       lea.l 0x2dc(a1), a1
          0x0076b84e      244f           movea.l a7, a2
          0x0076b850      7005           moveq 0x5, d0
      > 0x0076b852      12da           move.b (a2)+, (a1)+
      < 0x0076b854      51c8fffc       dbra d0, 0x76b852
          0x0076b858      5c4f           addq.w 0x6, a7
          0x0076b85a      23c20086e6dc   move.l d2, 0x86e6dc
          0x0076b860      7e01           moveq 0x1, d7
      > 0x0076b862      4887           ext.w d7
         0x0076b864      701c           moveq 0x1c, d0
         0x0076b866      c1c7           muls.w d7, d0
         0x0076b868      43f90086e67a   lea.l 0x86e67a, a1
         0x0076b86e      43f10000       lea.l (a1, d0.w), a1
         0x0076b872      42290096       clr.b 0x96(a1)
         0x0076b876      5207           addq.b 0x1, d7
         0x0076b878      0c070004       cmpi.b 0x4, d7
      < 0x0076b87c      6fe4           ble.b 0x76b862
          0x0076b87e      1f3c0007       move.b 0x7, -(a7)
          0x0076b882      4eba8b48       jsr MENUTYPECOM.update_type(pc)
          0x0076b886      544f           addq.w 0x2, a7
          0x0076b888      48780001       pea.l 0x1
          0x0076b88c      4227           clr.b -(a7)
          0x0076b88e      4eb9004a8ca4   jsr MENUKEYBDCOM.set_cur_kbd_map
          0x0076b894      5c4f           addq.w 0x6, a7
      < 0x0076b896      60000444       bra.w 0x76bcdc
          0x0076b89a      3f390086e79e   move.w 0x86e79e, -(a7)
          0x0076b8a0      4227           clr.b -(a7)
          0x0076b8a2      4e93           jsr (a3)                    ; fcn.0000000c
          0x0076b8a4      544f           addq.w 0x2, a7
          0x0076b8a6      3eb90086e7a0   move.w 0x86e7a0, (a7)
          0x0076b8ac      4227           clr.b -(a7)
          0x0076b8ae      4e93           jsr (a3)                    ; fcn.0000000c
          0x0076b8b0      584f           addq.w 0x4, a7
          0x0076b8b2      48780001       pea.l 0x1
          0x0076b8b6      1f02           move.b d2, -(a7)
          0x0076b8b8      4eb9004a8ca4   jsr MENUKEYBDCOM.set_cur_kbd_map
          0x0076b8be      544f           addq.w 0x2, a7
          0x0076b8c0      3eb90086e79a   move.w 0x86e79a, (a7)
          0x0076b8c6      4eb900480fc2   jsr MENUCOM.get_boxon
          0x0076b8cc      544f           addq.w 0x2, a7
          0x0076b8ce      4a1f           tst.b (a7)+
      < 0x0076b8d0      670e           beq.b 0x76b8e0
         0x0076b8d2      3f390086e79a   move.w 0x86e79a, -(a7)
         0x0076b8d8      4eb9004836a4   jsr MENUCOM.push_box
         0x0076b8de      544f           addq.w 0x2, a7
      > 0x0076b8e0      4a6e0008       tst.w 0x8(a6)
      < 0x0076b8e4      6618           bne.b 0x76b8fe
         0x0076b8e6      1f390076364c   move.b 0x76364c, -(a7)
         0x0076b8ec      4eb90063278a   jsr CACHECOM.clear_cache
         0x0076b8f2      3ebc0082       move.w 0x82, (a7)
         0x0076b8f6      4eb9004836a4   jsr MENUCOM.push_box
     > 0x0076b8fc      544f           addq.w 0x2, a7
    > 0x0076b8fe      600003dc       bra.w 0x76bcdc
        0x0076b902      302e000a       move.w 0xa(a6), d0
        0x0076b906      0c40001f       cmpi.w 0x1f, d0
    < 0x0076b90a      660a           bne.b 0x76b916
       0x0076b90c      3f3c0083       move.w 0x83, -(a7)
       0x0076b910      4227           clr.b -(a7)
       0x0076b912      4e93           jsr (a3)                    ; fcn.0000000c
       0x0076b914      584f           addq.w 0x4, a7
    > 0x0076b916      1f3c0006       move.b 0x6, -(a7)
        0x0076b91a      4eba8ab0       jsr MENUTYPECOM.update_type(pc)
    < 0x0076b91e      60dc           bra.b 0x76b8fc
         0x0076b920      4a390086e67e   tst.b 0x86e67e
     < 0x0076b926      66000102       bne.w 0x76ba2a
        0x0076b92a      554f           subq.w 0x2, a7
        0x0076b92c      3f390086e79a   move.w 0x86e79a, -(a7)
        0x0076b932      4eb900480fc2   jsr MENUCOM.get_boxon
        0x0076b938      544f           addq.w 0x2, a7
        0x0076b93a      4a1f           tst.b (a7)+
    < 0x0076b93c      660000ec       bne.w 0x76ba2a
       0x0076b940      3f3c002d       move.w 0x2d, -(a7)
       0x0076b944      4227           clr.b -(a7)
       0x0076b946      4e93           jsr (a3)                    ; fcn.0000000c
       0x0076b948      584f           addq.w 0x4, a7
       0x0076b94a      13c20086e67e   move.b d2, 0x86e67e
       0x0076b950      4a390086e67f   tst.b 0x86e67f
   < 0x0076b956      6714           beq.b 0x76b96c
      0x0076b958      23f90086e6ec.  move.l 0x86e6ec, 0x86e6e8.l
      0x0076b962      23f90086e6e0.  move.l 0x86e6e0, 0x86e6d8.l
   > 0x0076b96c      554f           subq.w 0x2, a7
       0x0076b96e      3f390086e7a6   move.w 0x86e7a6, -(a7)
       0x0076b974      4eb900480fc2   jsr MENUCOM.get_boxon
       0x0076b97a      544f           addq.w 0x2, a7
       0x0076b97c      4a1f           tst.b (a7)+
   < 0x0076b97e      670c           beq.b 0x76b98c
      0x0076b980      594f           subq.w 0x4, a7
      0x0076b982      4eb900482154   jsr MENUCOM.get_crnt_numeri
      0x0076b988      1f05           move.b d5, -(a7)
  < 0x0076b98a      605a           bra.b 0x76b9e6
  > 0x0076b98c      554f           subq.w 0x2, a7
      0x0076b98e      3f390086e7a4   move.w 0x86e7a4, -(a7)
      0x0076b994      4eb900480fc2   jsr MENUCOM.get_boxon
      0x0076b99a      544f           addq.w 0x2, a7
      0x0076b99c      4a1f           tst.b (a7)+
  < 0x0076b99e      670e           beq.b 0x76b9ae
     0x0076b9a0      594f           subq.w 0x4, a7
     0x0076b9a2      4eb900482154   jsr MENUCOM.get_crnt_numeri
     0x0076b9a8      1f3c0005       move.b 0x5, -(a7)
  < 0x0076b9ac      6038           bra.b 0x76b9e6
  > 0x0076b9ae      554f           subq.w 0x2, a7
      0x0076b9b0      3f390086e7a8   move.w 0x86e7a8, -(a7)
      0x0076b9b6      4eb900480fc2   jsr MENUCOM.get_boxon
      0x0076b9bc      544f           addq.w 0x2, a7
      0x0076b9be      4a1f           tst.b (a7)+
  < 0x0076b9c0      670e           beq.b 0x76b9d0
     0x0076b9c2      594f           subq.w 0x4, a7
     0x0076b9c4      4eb900482154   jsr MENUCOM.get_crnt_numeri
     0x0076b9ca      1f3c0004       move.b 0x4, -(a7)
  < 0x0076b9ce      6016           bra.b 0x76b9e6
  > 0x0076b9d0      594f           subq.w 0x4, a7
      0x0076b9d2      4eb900482154   jsr MENUCOM.get_crnt_numeri
      0x0076b9d8      10390086e67f   move.b 0x86e67f, d0
      0x0076b9de      4880           ext.w d0
      0x0076b9e0      41bc0005       chk.w 0x5, d0
      0x0076b9e4      1f00           move.b d0, -(a7)
  > 0x0076b9e6      4ebaa14c       jsr MENUTYPECOM.select_type_upd(pc)
       0x0076b9ea      584f           addq.w 0x4, a7
       0x0076b9ec      101f           move.b (a7)+, d0
       0x0076b9ee      4880           ext.w d0
       0x0076b9f0      41bc0015       chk.w 0x15, d0
       0x0076b9f4      13c00086e680   move.b d0, 0x86e680
       0x0076b9fa      4227           clr.b -(a7)
       0x0076b9fc      10390086e680   move.b 0x86e680, d0
       0x0076ba02      4880           ext.w d0
       0x0076ba04      43f90076364e   lea.l 0x76364e, a1
       0x0076ba0a      3200           move.w d0, d1
       0x0076ba0c      e649           lsr.w 0x3, d1
       0x0076ba0e      01311000       btst.l d0, (a1, d1.w)
   < 0x0076ba12      6702           beq.b 0x76ba16
      0x0076ba14      5217           addq.b 0x1, (a7)
   > 0x0076ba16      4eba9b24       jsr MENUTYPECOM.update_type_box(pc)
       0x0076ba1a      4eb900482154   jsr MENUCOM.get_crnt_numeri
       0x0076ba20      3f2e0008       move.w 0x8(a6), -(a7)
       0x0076ba24      4ebade68       jsr MENUTYPECOM.hit_type_num(pc)
       0x0076ba28      584f           addq.w 0x4, a7
   > 0x0076ba2a      600002b0       bra.w 0x76bcdc
        0x0076ba2e      554f           subq.w 0x2, a7
        0x0076ba30      3f390086e79a   move.w 0x86e79a, -(a7)
        0x0076ba36      4eb900480fc2   jsr MENUCOM.get_boxon
        0x0076ba3c      544f           addq.w 0x2, a7
        0x0076ba3e      4a1f           tst.b (a7)+
    < 0x0076ba40      6708           beq.b 0x76ba4a
       0x0076ba42      4eb9004558e4   jsr CURSORCOM.cursor_off
   < 0x0076ba48      601e           bra.b 0x76ba68
   > 0x0076ba4a      4eb9004558e4   jsr CURSORCOM.cursor_off
       0x0076ba50      13c60086e67e   move.b d6, 0x86e67e
       0x0076ba56      554f           subq.w 0x2, a7
       0x0076ba58      4eb900482154   jsr MENUCOM.get_crnt_numeri
       0x0076ba5e      3f2e0008       move.w 0x8(a6), -(a7)
       0x0076ba62      4ebade2a       jsr MENUTYPECOM.hit_type_num(pc)
       0x0076ba66      584f           addq.w 0x4, a7
   < 0x0076ba68      60000272       bra.w 0x76bcdc
       0x0076ba6c      554f           subq.w 0x2, a7
       0x0076ba6e      3f390086e79a   move.w 0x86e79a, -(a7)
       0x0076ba74      4eb900480fc2   jsr MENUCOM.get_boxon
       0x0076ba7a      544f           addq.w 0x2, a7
       0x0076ba7c      4a1f           tst.b (a7)+
   < 0x0076ba7e      6636           bne.b 0x76bab6
      0x0076ba80      10390086e67e   move.b 0x86e67e, d0
      0x0076ba86      b006           cmp.b d6, d0
  < 0x0076ba88      6614           bne.b 0x76ba9e
     0x0076ba8a      554f           subq.w 0x2, a7
     0x0076ba8c      4eb900482154   jsr MENUCOM.get_crnt_numeri
     0x0076ba92      3f2e0008       move.w 0x8(a6), -(a7)
     0x0076ba96      4ebaddf6       jsr MENUTYPECOM.hit_type_num(pc)
     0x0076ba9a      584f           addq.w 0x4, a7
  < 0x0076ba9c      600a           bra.b 0x76baa8
  > 0x0076ba9e      1f3c000d       move.b 0xd, -(a7)
      0x0076baa2      4eba8928       jsr MENUTYPECOM.update_type(pc)
      0x0076baa6      544f           addq.w 0x2, a7
  > 0x0076baa8      42390086e67e   clr.b 0x86e67e
      0x0076baae      4227           clr.b -(a7)
      0x0076bab0      4eba9a8a       jsr MENUTYPECOM.update_type_box(pc)
      0x0076bab4      544f           addq.w 0x2, a7
  > 0x0076bab6      60000224       bra.w 0x76bcdc
      0x0076baba      422effee       clr.b -0x12(a6)
      0x0076babe      22790086e6ec   movea.l 0x86e6ec, a1
      0x0076bac4      b2c2           cmpa.w d2, a1
  < 0x0076bac6      660a           bne.b 0x76bad2
     0x0076bac8      22790086e6e0   movea.l 0x86e6e0, a1
     0x0076bace      b2c2           cmpa.w d2, a1
  < 0x0076bad0      6704           beq.b 0x76bad6
  > 0x0076bad2      522effee       addq.b 0x1, -0x12(a6)
  > 0x0076bad6      23c20086e6ec   move.l d2, 0x86e6ec
      0x0076badc      23c20086e6e0   move.l d2, 0x86e6e0
      0x0076bae2      4a2effee       tst.b -0x12(a6)
  < 0x0076bae6      670a           beq.b 0x76baf2
     0x0076bae8      1f3c000e       move.b 0xe, -(a7)
     0x0076baec      4eba88de       jsr MENUTYPECOM.update_type(pc)
     0x0076baf0      544f           addq.w 0x2, a7
  > 0x0076baf2      600001e8       bra.w 0x76bcdc
      0x0076baf6      554f           subq.w 0x2, a7
      0x0076baf8      3f390086e79a   move.w 0x86e79a, -(a7)
      0x0076bafe      4eb900480fc2   jsr MENUCOM.get_boxon
      0x0076bb04      544f           addq.w 0x2, a7
      0x0076bb06      4a1f           tst.b (a7)+
  < 0x0076bb08      6708           beq.b 0x76bb12
     0x0076bb0a      4eb9004558e4   jsr CURSORCOM.cursor_off
  < 0x0076bb10      6022           bra.b 0x76bb34
  > 0x0076bb12      4eb9004558e4   jsr CURSORCOM.cursor_off
      0x0076bb18      42390086e67f   clr.b 0x86e67f
      0x0076bb1e      23c20086e6ec   move.l d2, 0x86e6ec
      0x0076bb24      23c20086e6e0   move.l d2, 0x86e6e0
      0x0076bb2a      1f3c000e       move.b 0xe, -(a7)
      0x0076bb2e      4eba889c       jsr MENUTYPECOM.update_type(pc)
      0x0076bb32      544f           addq.w 0x2, a7
  < 0x0076bb34      600001a6       bra.w 0x76bcdc
     0x0076bb38      3f3c002d       move.w 0x2d, -(a7)
     0x0076bb3c      4227           clr.b -(a7)
     0x0076bb3e      4e93           jsr (a3)                    ; fcn.0000000c
     0x0076bb40      584f           addq.w 0x4, a7
     0x0076bb42      4eb90047b9c8   jsr CNTLCOM.update_cursor
     0x0076bb48      5d4f           subq.w 0x6, a7
     0x0076bb4a      1e90           move.b (a0), (a7)
     0x0076bb4c      1f6800010001   move.b 0x1(a0), 0x1(a7)
     0x0076bb52      1f6800020002   move.b 0x2(a0), 0x2(a7)
     0x0076bb58      1f6800030003   move.b 0x3(a0), 0x3(a7)
     0x0076bb5e      48790086e6ec   pea.l 0x86e6ec
     0x0076bb64      48790086e6e0   pea.l 0x86e6e0
     0x0076bb6a      486effee       pea.l -0x12(a6)
     0x0076bb6e      4ebadf9a       jsr MENUTYPECOM.pick_type(pc)
     0x0076bb72      defc0010       adda.w 0x10, a7
     0x0076bb76      101f           move.b (a7)+, d0
     0x0076bb78      4880           ext.w d0
     0x0076bb7a      41bc0005       chk.w 0x5, d0
     0x0076bb7e      13c00086e67f   move.b d0, 0x86e67f
     0x0076bb84      4a2effee       tst.b -0x12(a6)
  < 0x0076bb88      671e           beq.b 0x76bba8
     0x0076bb8a      554f           subq.w 0x2, a7
     0x0076bb8c      3f390086e79a   move.w 0x86e79a, -(a7)
     0x0076bb92      4eb900480fc2   jsr MENUCOM.get_boxon
     0x0076bb98      544f           addq.w 0x2, a7
     0x0076bb9a      4a1f           tst.b (a7)+
  < 0x0076bb9c      660a           bne.b 0x76bba8
     0x0076bb9e      1f3c000e       move.b 0xe, -(a7)
     0x0076bba2      4eba8828       jsr MENUTYPECOM.update_type(pc)
     0x0076bba6      544f           addq.w 0x2, a7
  > 0x0076bba8      60000132       bra.w 0x76bcdc
     0x0076bbac      5d4f           subq.w 0x6, a7
     0x0076bbae      4eb900636d9e   jsr PALETCOM.br_colour
     0x0076bbb4      2d5fffe8       move.l (a7)+, -0x18(a6)
     0x0076bbb8      3d57ffec       move.w (a7), -0x14(a6)
     0x0076bbbc      22790086e78a   movea.l 0x86e78a, a1
     0x0076bbc2      b3e9fffc       cmpa.l -0x4(a1), a1
  < 0x0076bbc6      6702           beq.b 0x76bbca
     0x0076bbc8      4e4d           trap 0xd
  > 0x0076bbca      5d4f           subq.w 0x6, a7
     0x0076bbcc      244f           movea.l a7, a2
     0x0076bbce      43e902dc       lea.l 0x2dc(a1), a1
     0x0076bbd2      7005           moveq 0x5, d0
  > 0x0076bbd4      14d9           move.b (a1)+, (a2)+
  < 0x0076bbd6      51c8fffc       dbra d0, 0x76bbd4
     0x0076bbda      2f2effea       move.l -0x16(a6), -(a7)
     0x0076bbde      3f2effe8       move.w -0x18(a6), -(a7)
     0x0076bbe2      4eb90063c2c0   jsr COLOURCOM.same_colour
     0x0076bbe8      defc000c       adda.w 0xc, a7
     0x0076bbec      4a1f           tst.b (a7)+
  < 0x0076bbee      6628           bne.b 0x76bc18
     0x0076bbf0      1f3c0006       move.b 0x6, -(a7)
     0x0076bbf4      4eba87d6       jsr MENUTYPECOM.update_type(pc)
     0x0076bbf8      544f           addq.w 0x2, a7
     0x0076bbfa      22790086e78a   movea.l 0x86e78a, a1
     0x0076bc00      b3e9fffc       cmpa.l -0x4(a1), a1
  < 0x0076bc04      6702           beq.b 0x76bc08
     0x0076bc06      4e4d           trap 0xd
  > 0x0076bc08      43e902dc       lea.l 0x2dc(a1), a1
     0x0076bc0c      45eeffe8       lea.l -0x18(a6), a2
     0x0076bc10      7005           moveq 0x5, d0
  > 0x0076bc12      12da           move.b (a2)+, (a1)+
  < 0x0076bc14      51c8fffc       dbra d0, 0x76bc12
  > 0x0076bc18      4eb9004ff1b6   jsr MENUGRIDCOM.redraw_grid_ove
  < 0x0076bc1e      600000bc       bra.w 0x76bcdc
     0x0076bc22      4eb9004ff1b6   jsr MENUGRIDCOM.redraw_grid_ove
  < 0x0076bc28      600000b2       bra.w 0x76bcdc
     0x0076bc2c      302e000a       move.w 0xa(a6), d0
     0x0076bc30      0c40fff1       cmpi.w 0xfff1, d0
  < 0x0076bc34      6620           bne.b 0x76bc56
     0x0076bc36      554f           subq.w 0x2, a7
     0x0076bc38      4eb90047d586   jsr CNTLCOM.get_swipe_state
     0x0076bc3e      101f           move.b (a7)+, d0
     0x0076bc40      4880           ext.w d0
     0x0076bc42      013900763652   btst.l d0, 0x763652
  < 0x0076bc48      670c           beq.b 0x76bc56
     0x0076bc4a      3f3c001b       move.w 0x1b, -(a7)
     0x0076bc4e      4eb9004836a4   jsr MENUCOM.push_box
     0x0076bc54      544f           addq.w 0x2, a7
  > 0x0076bc56      60000084       bra.w 0x76bcdc
  > 0x0076bc5a      302e0008       move.w 0x8(a6), d0
      0x0076bc5e      02401000       andi.w 0x1000, d0
      0x0076bc62      0c401000       cmpi.w 0x1000, d0
  < 0x0076bc66      6674           bne.b 0x76bcdc
     0x0076bc68      554f           subq.w 0x2, a7
     0x0076bc6a      3f390086e79a   move.w 0x86e79a, -(a7)
     0x0076bc70      4eb900480fc2   jsr MENUCOM.get_boxon
     0x0076bc76      544f           addq.w 0x2, a7
     0x0076bc78      4a1f           tst.b (a7)+
  < 0x0076bc7a      6660           bne.b 0x76bcdc
     0x0076bc7c      554f           subq.w 0x2, a7
     0x0076bc7e      3f2e0008       move.w 0x8(a6), -(a7)
     0x0076bc82      4227           clr.b -(a7)
     0x0076bc84      554f           subq.w 0x2, a7
     0x0076bc86      4eb90047d586   jsr CNTLCOM.get_swipe_state
     0x0076bc8c      4a1f           tst.b (a7)+
  < 0x0076bc8e      6602           bne.b 0x76bc92
     0x0076bc90      5217           addq.b 0x1, (a7)
  > 0x0076bc92      4ebadfe6       jsr MENUTYPECOM.control_key(pc)
     0x0076bc96      584f           addq.w 0x4, a7
     0x0076bc98      4a1f           tst.b (a7)+
  < 0x0076bc9a      6710           beq.b 0x76bcac
     0x0076bc9c      3f2e0008       move.w 0x8(a6), -(a7)
     0x0076bca0      49eeffe2       lea.l -0x1e(a6), a4
     0x0076bca4      4ebae488       jsr MENUTYPECOM.control_hit(pc)
     0x0076bca8      544f           addq.w 0x2, a7
  < 0x0076bcaa      6030           bra.b 0x76bcdc
  > 0x0076bcac      302e0008       move.w 0x8(a6), d0
     0x0076bcb0      02400800       andi.w 0x800, d0
  < 0x0076bcb4      6626           bne.b 0x76bcdc
     0x0076bcb6      3f3c002d       move.w 0x2d, -(a7)
     0x0076bcba      4227           clr.b -(a7)
     0x0076bcbc      4e93           jsr (a3)                    ; fcn.0000000c
     0x0076bcbe      544f           addq.w 0x2, a7
     0x0076bcc0      4217           clr.b (a7)
     0x0076bcc2      302e000a       move.w 0xa(a6), d0
     0x0076bcc6      0c40fff7       cmpi.w 0xfff7, d0
  < 0x0076bcca      6602           bne.b 0x76bcce
     0x0076bccc      5217           addq.b 0x1, (a7)
  > 0x0076bcce      3f2e0008       move.w 0x8(a6), -(a7)
     0x0076bcd2      02570fff       andi.w 0xfff, (a7)
     0x0076bcd6      4ebaf34c       jsr MENUTYPECOM.do_type_char(pc)
     0x0076bcda      584f           addq.w 0x4, a7
     ; CODE XREF from MENUTYPECOM @ +0x8d8a
  > 0x0076bcdc      4cdf1fff       movem.l (a7)+, d0-d7/a0-a4
            0x0076bce0      4e5e           unlk a6
            0x0076bce2      4e75           rts
            ; CALL XREF from MENUTYPECOM.menutype_init @ 0x76c2fe
 758: MENUTYPECOM.init_update_val ();
           0x0076bce4      4e56ffbe       link.w a6, 0xffbe
           0x0076bce8      bfd5           cmpa.l (a5), a7
       < 0x0076bcea      6206           bhi.b 0x76bcf2
          0x0076bcec      44fc0002       move.w 0x2, ccr
          0x0076bcf0      4e76           trapv
       > 0x0076bcf2      defc003e       adda.w 0x3e, a7
           0x0076bcf6      48e7fef8       movem.l d0-d6/a0-a4, -(a7)
           0x0076bcfa      45f90086e698   lea.l 0x86e698, a2
           0x0076bd00      47f90086e69c   lea.l 0x86e69c, a3
           0x0076bd06      49f90086e69a   lea.l 0x86e69a, a4
           0x0076bd0c      263cffff8000   move.l 0xffff8000, d3
           0x0076bd12      283c0000ffff   move.l 0xffff, d4
           0x0076bd18      7a02           moveq 0x2, d5
           0x0076bd1a      3c3c0100       move.w 0x100, d6
           0x0076bd1e      594f           subq.w 0x4, a7
           0x0076bd20      4eb9006338d8   jsr HANDCOM.get_areas_ptr
           0x0076bd26      2d5ffffc       move.l (a7)+, -0x4(a6)
           0x0076bd2a      33c60086e76e   move.w d6, 0x86e76e
           0x0076bd30      23f90086e688.  move.l 0x86e688, 0x86e778.l
           0x0076bd3a      23f90086e68c.  move.l 0x86e68c, 0x86e77c.l
           0x0076bd44      23f90086e6b8.  move.l 0x86e6b8, 0x86e770.l
           0x0076bd4e      30390086e770   move.w 0x86e770, d0
           0x0076bd54      48c0           ext.l d0
           0x0076bd56      e780           asl.l 0x3, d0
           0x0076bd58      9083           sub.l d3, d0
           0x0076bd5a      b084           cmp.l d4, d0
       < 0x0076bd5c      6302           bls.b 0x76bd60
          0x0076bd5e      4e4f           trap 0xf
       > 0x0076bd60      d083           add.l d3, d0
           0x0076bd62      33c00086e774   move.w d0, 0x86e774
           0x0076bd68      30390086e772   move.w 0x86e772, d0
           0x0076bd6e      48c0           ext.l d0
           0x0076bd70      e780           asl.l 0x3, d0
           0x0076bd72      9083           sub.l d3, d0
           0x0076bd74      b084           cmp.l d4, d0
       < 0x0076bd76      6302           bls.b 0x76bd7a
          0x0076bd78      4e4f           trap 0xf
       > 0x0076bd7a      d083           add.l d3, d0
           0x0076bd7c      33c00086e776   move.w d0, 0x86e776
           0x0076bd82      42390086e780   clr.b 0x86e780
           0x0076bd88      23f900763654.  move.l 0x763654, 0x86e782.l
           0x0076bd92      23f900763658.  move.l 0x763658, 0x86e786.l
           0x0076bd9c      33c60086e752   move.w d6, 0x86e752
           0x0076bda2      23d20086e75c   move.l (a2), 0x86e75c
           0x0076bda8      23d30086e760   move.l (a3), 0x86e760
           0x0076bdae      33d20086e754   move.w (a2), 0x86e754
           0x0076bdb4      33d40086e756   move.w (a4), 0x86e756
           0x0076bdba      30390086e754   move.w 0x86e754, d0
           0x0076bdc0      48c0           ext.l d0
           0x0076bdc2      e780           asl.l 0x3, d0
           0x0076bdc4      9083           sub.l d3, d0
           0x0076bdc6      b084           cmp.l d4, d0
       < 0x0076bdc8      6302           bls.b 0x76bdcc
          0x0076bdca      4e4f           trap 0xf
       > 0x0076bdcc      d083           add.l d3, d0
           0x0076bdce      33c00086e758   move.w d0, 0x86e758
           0x0076bdd4      30390086e756   move.w 0x86e756, d0
           0x0076bdda      48c0           ext.l d0
           0x0076bddc      e780           asl.l 0x3, d0
           0x0076bdde      9083           sub.l d3, d0
           0x0076bde0      b084           cmp.l d4, d0
       < 0x0076bde2      6302           bls.b 0x76bde6
          0x0076bde4      4e4f           trap 0xf
       > 0x0076bde6      d083           add.l d3, d0
           0x0076bde8      33c00086e75a   move.w d0, 0x86e75a
           0x0076bdee      42390086e764   clr.b 0x86e764
           0x0076bdf4      23f90076365c.  move.l 0x76365c, 0x86e766.l
           0x0076bdfe      23f900763660.  move.l 0x763660, 0x86e76a.l
           0x0076be08      33fc00800086.  move.w 0x80, 0x86e71a.l
           0x0076be10      23d20086e724   move.l (a2), 0x86e724
           0x0076be16      23d30086e728   move.l (a3), 0x86e728
           0x0076be1c      3013           move.w (a3), d0
           0x0076be1e      48c0           ext.l d0
           0x0076be20      81c5           divs.w d5, d0
           0x0076be22      33c00086e728   move.w d0, 0x86e728
           0x0076be28      30390086e69e   move.w 0x86e69e, d0
           0x0076be2e      48c0           ext.l d0
           0x0076be30      81c5           divs.w d5, d0
           0x0076be32      33c00086e72a   move.w d0, 0x86e72a
           0x0076be38      3012           move.w (a2), d0
           0x0076be3a      48c0           ext.l d0
           0x0076be3c      5380           subq.l 0x1, d0
           0x0076be3e      9083           sub.l d3, d0
           0x0076be40      b084           cmp.l d4, d0
       < 0x0076be42      6302           bls.b 0x76be46
          0x0076be44      4e4f           trap 0xf
       > 0x0076be46      d083           add.l d3, d0
           0x0076be48      33c00086e71c   move.w d0, 0x86e71c
           0x0076be4e      33d40086e71e   move.w (a4), 0x86e71e
           0x0076be54      30390086e71c   move.w 0x86e71c, d0
           0x0076be5a      48c0           ext.l d0
           0x0076be5c      e780           asl.l 0x3, d0
           0x0076be5e      5580           subq.l 0x2, d0
           0x0076be60      9083           sub.l d3, d0
           0x0076be62      b084           cmp.l d4, d0
       < 0x0076be64      6302           bls.b 0x76be68
          0x0076be66      4e4f           trap 0xf
       > 0x0076be68      d083           add.l d3, d0
           0x0076be6a      33c00086e720   move.w d0, 0x86e720
           0x0076be70      30390086e71e   move.w 0x86e71e, d0
           0x0076be76      48c0           ext.l d0
           0x0076be78      e780           asl.l 0x3, d0
           0x0076be7a      5580           subq.l 0x2, d0
           0x0076be7c      9083           sub.l d3, d0
           0x0076be7e      b084           cmp.l d4, d0
       < 0x0076be80      6302           bls.b 0x76be84
          0x0076be82      4e4f           trap 0xf
       > 0x0076be84      d083           add.l d3, d0
           0x0076be86      33c00086e722   move.w d0, 0x86e722
           0x0076be8c      42390086e72c   clr.b 0x86e72c
           0x0076be92      23f900763664.  move.l 0x763664, 0x86e72e.l
           0x0076be9c      23f900763668.  move.l 0x763668, 0x86e732.l
           0x0076bea6      33fc00800086.  move.w 0x80, 0x86e736.l
           0x0076beae      33d20086e740   move.w (a2), 0x86e740
           0x0076beb4      30390086e69e   move.w 0x86e69e, d0
           0x0076beba      48c0           ext.l d0
           0x0076bebc      81c5           divs.w d5, d0
           0x0076bebe      3214           move.w (a4), d1
           0x0076bec0      48c1           ext.l d1
           0x0076bec2      48c0           ext.l d0
           0x0076bec4      d280           add.l d0, d1
           0x0076bec6      9283           sub.l d3, d1
           0x0076bec8      b284           cmp.l d4, d1
       < 0x0076beca      6302           bls.b 0x76bece
          0x0076becc      4e4f           trap 0xf
       > 0x0076bece      d283           add.l d3, d1
           0x0076bed0      33c10086e742   move.w d1, 0x86e742
           0x0076bed6      3413           move.w (a3), d2
           0x0076bed8      48c2           ext.l d2
           0x0076beda      85c5           divs.w d5, d2
           0x0076bedc      33c20086e744   move.w d2, 0x86e744
           0x0076bee2      33c00086e746   move.w d0, 0x86e746
           0x0076bee8      3012           move.w (a2), d0
           0x0076beea      48c0           ext.l d0
           0x0076beec      5380           subq.l 0x1, d0
           0x0076beee      9083           sub.l d3, d0
           0x0076bef0      b084           cmp.l d4, d0
       < 0x0076bef2      6302           bls.b 0x76bef6
          0x0076bef4      4e4f           trap 0xf
       > 0x0076bef6      d083           add.l d3, d0
           0x0076bef8      33c00086e738   move.w d0, 0x86e738
           0x0076befe      33c10086e73a   move.w d1, 0x86e73a
           0x0076bf04      30390086e738   move.w 0x86e738, d0
           0x0076bf0a      48c0           ext.l d0
           0x0076bf0c      e780           asl.l 0x3, d0
           0x0076bf0e      5580           subq.l 0x2, d0
           0x0076bf10      9083           sub.l d3, d0
           0x0076bf12      b084           cmp.l d4, d0
       < 0x0076bf14      6302           bls.b 0x76bf18
          0x0076bf16      4e4f           trap 0xf
       > 0x0076bf18      d083           add.l d3, d0
           0x0076bf1a      33c00086e73c   move.w d0, 0x86e73c
           0x0076bf20      30390086e73a   move.w 0x86e73a, d0
           0x0076bf26      48c0           ext.l d0
           0x0076bf28      e780           asl.l 0x3, d0
           0x0076bf2a      5580           subq.l 0x2, d0
           0x0076bf2c      9083           sub.l d3, d0
           0x0076bf2e      b084           cmp.l d4, d0
       < 0x0076bf30      6302           bls.b 0x76bf34
          0x0076bf32      4e4f           trap 0xf
       > 0x0076bf34      d083           add.l d3, d0
           0x0076bf36      33c00086e73e   move.w d0, 0x86e73e
           0x0076bf3c      42390086e748   clr.b 0x86e748
           0x0076bf42      23f90076366c.  move.l 0x76366c, 0x86e74a.l
           0x0076bf4c      23f900763670.  move.l 0x763670, 0x86e74e.l
           0x0076bf56      33c60086e6fe   move.w d6, 0x86e6fe
           0x0076bf5c      206efffc       movea.l -0x4(a6), a0
           0x0076bf60      b1e8fffc       cmpa.l -0x4(a0), a0
       < 0x0076bf64      6702           beq.b 0x76bf68
          0x0076bf66      4e4d           trap 0xd
       > 0x0076bf68      43f90086e708   lea.l 0x86e708, a1
           0x0076bf6e      41e80068       lea.l 0x68(a0), a0
           0x0076bf72      7007           moveq 0x7, d0
       > 0x0076bf74      12d8           move.b (a0)+, (a1)+
       < 0x0076bf76      51c8fffc       dbra d0, 0x76bf74
           0x0076bf7a      23f90086e6b8.  move.l 0x86e6b8, 0x86e700.l
           0x0076bf84      30390086e700   move.w 0x86e700, d0
           0x0076bf8a      48c0           ext.l d0
           0x0076bf8c      e780           asl.l 0x3, d0
           0x0076bf8e      9083           sub.l d3, d0
           0x0076bf90      b084           cmp.l d4, d0
       < 0x0076bf92      6302           bls.b 0x76bf96
          0x0076bf94      4e4f           trap 0xf
       > 0x0076bf96      d083           add.l d3, d0
           0x0076bf98      33c00086e704   move.w d0, 0x86e704
           0x0076bf9e      30390086e702   move.w 0x86e702, d0
           0x0076bfa4      48c0           ext.l d0
           0x0076bfa6      e780           asl.l 0x3, d0
           0x0076bfa8      9083           sub.l d3, d0
           0x0076bfaa      b084           cmp.l d4, d0
       < 0x0076bfac      6302           bls.b 0x76bfb0
          0x0076bfae      4e4f           trap 0xf
       > 0x0076bfb0      d083           add.l d3, d0
           0x0076bfb2      33c00086e706   move.w d0, 0x86e706
           0x0076bfb8      42390086e710   clr.b 0x86e710
           0x0076bfbe      23f900763674.  move.l 0x763674, 0x86e712.l
           0x0076bfc8      23f900763678.  move.l 0x763678, 0x86e716.l
           0x0076bfd2      4cdf1f7f       movem.l (a7)+, d0-d6/a0-a4
           0x0076bfd6      4e5e           unlk a6
           0x0076bfd8      4e75           rts
 364: MENUTYPECOM.load_fonts ();
           0x0076bfda      4e56fbba       link.w a6, 0xfbba
           0x0076bfde      bfd5           cmpa.l (a5), a7
       < 0x0076bfe0      6206           bhi.b 0x76bfe8
          0x0076bfe2      44fc0002       move.w 0x2, ccr
          0x0076bfe6      4e76           trapv
       > 0x0076bfe8      defc022c       adda.w 0x22c, a7
           0x0076bfec      48e7e0f8       movem.l d0-d2/a0-a4, -(a7)
           0x0076bff0      45eefdfc       lea.l -0x204(a6), a2
           0x0076bff4      47f9004047ea   lea.l p_wts_o, a3
           0x0076bffa      49eefdee       lea.l -0x212(a6), a4
           0x0076bffe      720c           moveq 0xc, d1
           0x0076c000      343c0100       move.w 0x100, d2
       > 0x0076c004      554f           subq.w 0x2, a7
          0x0076c006      486efde6       pea.l -0x21a(a6)
          0x0076c00a      486efdea       pea.l -0x216(a6)
          0x0076c00e      4eb900494bc8   jsr TAGFILE.load_tag
          0x0076c014      504f           addq.w 0x8, a7
          0x0076c016      4a1f           tst.b (a7)+
      < 0x0076c018      67000124       beq.w 0x76c13e
         0x0076c01c      202efde6       move.l -0x21a(a6), d0
         0x0076c020      0c8000000050   cmpi.l 0x50, d0
     < 0x0076c026      6704           beq.b 0x76c02c
    < 0x0076c028      60000110       bra.w 0x76c13a
    > 0x0076c02c      9efc000a       suba.w 0xa, a7
        0x0076c030      4eb900494e08   jsr TAGFILE.load_fid
        0x0076c036      289f           move.l (a7)+, (a4)
        0x0076c038      2d5ffdf2       move.l (a7)+, -0x20e(a6)
        0x0076c03c      3d5ffdf6       move.w (a7)+, -0x20a(a6)
        0x0076c040      24bcffff0001   move.l 0xffff0001, (a2)
        0x0076c046      554f           subq.w 0x2, a7
        0x0076c048      2f2efdf4       move.l -0x20c(a6), -(a7)
        0x0076c04c      2f2efdf0       move.l -0x210(a6), -(a7)
        0x0076c050      3f14           move.w (a4), -(a7)
        0x0076c052      4227           clr.b -(a7)
        0x0076c054      4852           pea.l (a2)
        0x0076c056      4eb9006082de   jsr F10_FILELIST.f_get_header
        0x0076c05c      defc0010       adda.w 0x10, a7
        0x0076c060      4a1f           tst.b (a7)+
    < 0x0076c062      670000cc       beq.w 0x76c130
       0x0076c066      9ec2           suba.w d2, a7
       0x0076c068      3f3c0014       move.w 0x14, -(a7)
       0x0076c06c      2f12           move.l (a2), -(a7)
       0x0076c06e      4eb9005eed64   jsr f_get_string
       0x0076c074      5c4f           addq.w 0x6, a7
       0x0076c076      41eefe00       lea.l -0x200(a6), a0
       0x0076c07a      703f           moveq 0x3f, d0
   > 0x0076c07c      20df           move.l (a7)+, (a0)+
   < 0x0076c07e      51c8fffc       dbra d0, 0x76c07c
       0x0076c082      9ec2           suba.w d2, a7
       0x0076c084      3f3c0015       move.w 0x15, -(a7)
       0x0076c088      2f12           move.l (a2), -(a7)
       0x0076c08a      4eb9005eed64   jsr f_get_string
       0x0076c090      5c4f           addq.w 0x6, a7
       0x0076c092      41eeff00       lea.l -0x100(a6), a0
       0x0076c096      703f           moveq 0x3f, d0
   > 0x0076c098      20df           move.l (a7)+, (a0)+
   < 0x0076c09a      51c8fffc       dbra d0, 0x76c098
       0x0076c09e      48790076367d   pea.l 0x76367d
       0x0076c0a4      4878000f       pea.l 0xf
       0x0076c0a8      2f17           move.l (a7), -(a7)
       0x0076c0aa      4e93           jsr (a3)                    ; fcn.0000000c
       0x0076c0ac      dec1           adda.w d1, a7
       0x0076c0ae      486efe01       pea.l -0x1ff(a6)
       0x0076c0b2      42a7           clr.l -(a7)
       0x0076c0b4      1f6efe000003   move.b -0x200(a6), 0x3(a7)
       0x0076c0ba      2f17           move.l (a7), -(a7)
       0x0076c0bc      4e93           jsr (a3)                    ; fcn.0000000c
       0x0076c0be      dec1           adda.w d1, a7
       0x0076c0c0      48790076368d   pea.l 0x76368d
       0x0076c0c6      48780003       pea.l 0x3
       0x0076c0ca      2f17           move.l (a7), -(a7)
       0x0076c0cc      4e93           jsr (a3)                    ; fcn.0000000c
       0x0076c0ce      dec1           adda.w d1, a7
       0x0076c0d0      486eff01       pea.l -0xff(a6)
       0x0076c0d4      42a7           clr.l -(a7)
       0x0076c0d6      1f6eff000003   move.b -0x100(a6), 0x3(a7)
       0x0076c0dc      2f17           move.l (a7), -(a7)
       0x0076c0de      4e93           jsr (a3)                    ; fcn.0000000c
       0x0076c0e0      dec1           adda.w d1, a7
       0x0076c0e2      4eb900404946   jsr p_wtln_o
       0x0076c0e8      2f2efdf4       move.l -0x20c(a6), -(a7)
       0x0076c0ec      2f2efdf0       move.l -0x210(a6), -(a7)
       0x0076c0f0      3f14           move.w (a4), -(a7)
       0x0076c0f2      486efdf8       pea.l -0x208(a6)
       0x0076c0f6      4eb90059866e   jsr K0_DISKMGR.k_gen_file
       0x0076c0fc      5c4f           addq.w 0x6, a7
       0x0076c0fe      2eaefdf8       move.l -0x208(a6), (a7)
       0x0076c102      9ec2           suba.w d2, a7
       0x0076c104      204f           movea.l a7, a0
       0x0076c106      43eefe00       lea.l -0x200(a6), a1
       0x0076c10a      703f           moveq 0x3f, d0
   > 0x0076c10c      20d9           move.l (a1)+, (a0)+
   < 0x0076c10e      51c8fffc       dbra d0, 0x76c10c
       0x0076c112      9ec2           suba.w d2, a7
       0x0076c114      204f           movea.l a7, a0
       0x0076c116      43eeff00       lea.l -0x100(a6), a1
       0x0076c11a      703f           moveq 0x3f, d0
   > 0x0076c11c      20d9           move.l (a1)+, (a0)+
   < 0x0076c11e      51c8fffc       dbra d0, 0x76c11c
       0x0076c122      4ebaad56       jsr MENUTYPECOM.add_font(pc)
       0x0076c126      defc0204       adda.w 0x204, a7
       0x0076c12a      4ebaabce       jsr MENUTYPECOM.sel_font_title(pc)
       0x0076c12e      584f           addq.w 0x4, a7
    > 0x0076c130      4852           pea.l (a2)
        0x0076c132      4eb90060500e   jsr F9_FILERDWRT.f_free_block
        0x0076c138      584f           addq.w 0x4, a7
    < 0x0076c13a      6000fec8       bra.w 0x76c004
      > 0x0076c13e      4cdf1f07       movem.l (a7)+, d0-d2/a0-a4
           0x0076c142      4e5e           unlk a6
           0x0076c144      4e75           rts
            ; CALL XREF from MENUPASTECOM.men_pasteup_box @ 0x4b702c
 4680: MENUTYPECOM.menutype_init ();
           ; var int32_t var_ah @ a7+0xa
           0x0076c146      4e56fe8c       link.w a6, 0xfe8c
           0x0076c14a      bfd5           cmpa.l (a5), a7
       < 0x0076c14c      6206           bhi.b 0x76c154
          0x0076c14e      44fc0002       move.w 0x2, ccr
          0x0076c152      4e76           trapv
       > 0x0076c154      defc014c       adda.w 0x14c, a7
           0x0076c158      48e7fff8       movem.l d0-d7/a0-a4, -(a7)
           0x0076c15c      45f9006336ea   lea.l HANDCOM.get_area, a2
           0x0076c162      47f90086e68c   lea.l 0x86e68c, a3
           0x0076c168      7401           moveq 0x1, d2
           0x0076c16a      7a02           moveq 0x2, d5
           0x0076c16c      4eb9007700c0   jsr TYPECOM.type_init
           0x0076c172      23c20086e6c8   move.l d2, 0x86e6c8
           0x0076c178      23c20086e6cc   move.l d2, 0x86e6cc
           0x0076c17e      42390086e7de   clr.b 0x86e7de
           0x0076c184      13c50086e7df   move.b d5, 0x86e7df
           0x0076c18a      554f           subq.w 0x2, a7
           0x0076c18c      4eb900523c3e   jsr BRUSHCOM.b_16_4m_main_st
           0x0076c192      101f           move.b (a7)+, d0
           0x0076c194      4880           ext.w d0
           0x0076c196      4182           chk.w d2, d0
           0x0076c198      13c00086e687   move.b d0, 0x86e687
           0x0076c19e      554f           subq.w 0x2, a7
           0x0076c1a0      486effe0       pea.l -0x20(a6)
           0x0076c1a4      4eb900475c00   jsr CONFIG.cfg_size_x4
           0x0076c1aa      584f           addq.w 0x4, a7
           0x0076c1ac      101f           move.b (a7)+, d0
           0x0076c1ae      4880           ext.w d0
           0x0076c1b0      4182           chk.w d2, d0
           0x0076c1b2      13c00086e686   move.b d0, 0x86e686
           0x0076c1b8      23f900763690.  move.l 0x763690, 0x86e7d0.l
           0x0076c1c2      23f900763694.  move.l 0x763694, 0x86e7d4.l
           0x0076c1cc      42790086e7cc   clr.w 0x86e7cc
           0x0076c1d2      594f           subq.w 0x4, a7
           0x0076c1d4      4eb90047b70e   jsr CNTLCOM.get_pen_info_pt
           0x0076c1da      23df0086e67a   move.l (a7)+, 0x86e67a
           0x0076c1e0      42390086e67e   clr.b 0x86e67e
           0x0076c1e6      42390086e67f   clr.b 0x86e67f
           0x0076c1ec      42390086e7d8   clr.b 0x86e7d8
           0x0076c1f2      514f           subq.w 0x8, a7
           0x0076c1f4      1f3c000a       move.b 0xa, -(a7)
           0x0076c1f8      4e92           jsr (a2)                    ; fcn.00000009+0x2
           0x0076c1fa      544f           addq.w 0x2, a7
           0x0076c1fc      23df0086e6a0   move.l (a7)+, 0x86e6a0
           0x0076c202      23d70086e6a4   move.l (a7), 0x86e6a4
           0x0076c208      594f           subq.w 0x4, a7
           0x0076c20a      4227           clr.b -(a7)
           0x0076c20c      4e92           jsr (a2)                    ; fcn.00000009+0x2
           0x0076c20e      544f           addq.w 0x2, a7
           0x0076c210      23df0086e688   move.l (a7)+, 0x86e688
           0x0076c216      2697           move.l (a7), (a3)
           0x0076c218      4227           clr.b -(a7)
           0x0076c21a      4eb9006338f6   jsr HANDCOM.get_point
           0x0076c220      544f           addq.w 0x2, a7
           0x0076c222      23df0086e6b8   move.l (a7)+, 0x86e6b8
           0x0076c228      3013           move.w (a3), d0
           0x0076c22a      48c0           ext.l d0
           0x0076c22c      e580           asl.l 0x2, d0
           0x0076c22e      0480ffff8000   subi.l 0xffff8000, d0
           0x0076c234      0c800000ffff   cmpi.l 0xffff, d0
       < 0x0076c23a      6302           bls.b 0x76c23e
          0x0076c23c      4e4f           trap 0xf
       > 0x0076c23e      0680ffff8000   addi.l 0xffff8000, d0
           0x0076c244      33c00086e6c4   move.w d0, 0x86e6c4
           0x0076c24a      30390086e68e   move.w 0x86e68e, d0
           0x0076c250      48c0           ext.l d0
           0x0076c252      e580           asl.l 0x2, d0
           0x0076c254      0480ffff8000   subi.l 0xffff8000, d0
           0x0076c25a      0c800000ffff   cmpi.l 0xffff, d0
       < 0x0076c260      6302           bls.b 0x76c264
          0x0076c262      4e4f           trap 0xf
       > 0x0076c264      0680ffff8000   addi.l 0xffff8000, d0
           0x0076c26a      33c00086e6c6   move.w d0, 0x86e6c6
           0x0076c270      514f           subq.w 0x8, a7
           0x0076c272      1f02           move.b d2, -(a7)
           0x0076c274      4e92           jsr (a2)                    ; fcn.00000009+0x2
           0x0076c276      544f           addq.w 0x2, a7
           0x0076c278      23df0086e6b0   move.l (a7)+, 0x86e6b0
           0x0076c27e      23d70086e6b4   move.l (a7), 0x86e6b4
           0x0076c284      1f02           move.b d2, -(a7)
           0x0076c286      4eb9006338f6   jsr HANDCOM.get_point
           0x0076c28c      544f           addq.w 0x2, a7
           0x0076c28e      23d70086e6c0   move.l (a7), 0x86e6c0
           0x0076c294      594f           subq.w 0x4, a7
           0x0076c296      1f3c0004       move.b 0x4, -(a7)
           0x0076c29a      4e92           jsr (a2)                    ; fcn.00000009+0x2
           0x0076c29c      544f           addq.w 0x2, a7
           0x0076c29e      23df0086e690   move.l (a7)+, 0x86e690
           0x0076c2a4      23d70086e694   move.l (a7), 0x86e694
           0x0076c2aa      594f           subq.w 0x4, a7
           0x0076c2ac      1f3c0005       move.b 0x5, -(a7)
           0x0076c2b0      4e92           jsr (a2)                    ; fcn.00000009+0x2
           0x0076c2b2      544f           addq.w 0x2, a7
           0x0076c2b4      23df0086e698   move.l (a7)+, 0x86e698
           0x0076c2ba      23d70086e69c   move.l (a7), 0x86e69c
           0x0076c2c0      1f3c0005       move.b 0x5, -(a7)
           0x0076c2c4      4eb9006338f6   jsr HANDCOM.get_point
           0x0076c2ca      544f           addq.w 0x2, a7
           0x0076c2cc      23d70086e6bc   move.l (a7), 0x86e6bc
           0x0076c2d2      594f           subq.w 0x4, a7
           0x0076c2d4      1f3c0007       move.b 0x7, -(a7)
           0x0076c2d8      4e92           jsr (a2)                    ; fcn.00000009+0x2
           0x0076c2da      544f           addq.w 0x2, a7
           0x0076c2dc      23df0086e6a8   move.l (a7)+, 0x86e6a8
           0x0076c2e2      23d70086e6ac   move.l (a7), 0x86e6ac
           0x0076c2e8      4eb9006338d8   jsr HANDCOM.get_areas_ptr
           0x0076c2ee      2d57ffe2       move.l (a7), -0x1e(a6)
           0x0076c2f2      4eb900633ec8   jsr HANDCOM.get_asp_ratio
           0x0076c2f8      23df0086e7da   move.l (a7)+, 0x86e7da
           0x0076c2fe      4ebaf9e4       jsr MENUTYPECOM.init_update_val(pc)
           0x0076c302      486effe8       pea.l -0x18(a6)
           0x0076c306      4eb900486a4e   jsr MENUCOM.get_menu_grid
           0x0076c30c      1eb9007636b9   move.b 0x7636b9, (a7)
           0x0076c312      1f79007636ba.  move.b 0x7636ba, 0x1(a7)
           0x0076c31a      1f79007636bb.  move.b 0x7636bb, 0x2(a7)
           0x0076c322      1f79007636bc.  move.b 0x7636bc, 0x3(a7)
           0x0076c32a      3f3c0082       move.w 0x82, -(a7)
           0x0076c32e      3f3c000c       move.w 0xc, -(a7)
           0x0076c332      3f3c0003       move.w 0x3, -(a7)
           0x0076c336      3f3c0005       move.w 0x5, -(a7)
           0x0076c33a      3f02           move.w d2, -(a7)
           0x0076c33c      1f05           move.b d5, -(a7)
           0x0076c33e      4227           clr.b -(a7)
           0x0076c340      3f2e000a       move.w 0xa(a6), -(a7)
           0x0076c344      4267           clr.w -(a7)
           0x0076c346      2f3900763698   move.l 0x763698, -(a7)
           0x0076c34c      486f0016       pea.l 0x16(a7)
           0x0076c350      48780001       pea.l 0x1
           0x0076c354      48780004       pea.l 0x4
           0x0076c358      486d0010       pea.l 0x10(a5)
           0x0076c35c      487af1f6       pea.l MENUTYPECOM.hit_cut_text(pc)
           0x0076c360      4eb900487686   jsr MENUCOM.def_box
           0x0076c366      defc002c       adda.w 0x2c, a7
           0x0076c36a      4eb900475a1c   jsr CONFIG.cfg_domino_io
           0x0076c370      4a1f           tst.b (a7)+
       < 0x0076c372      670c           beq.b 0x76c380
          0x0076c374      3f3c0082       move.w 0x82, -(a7)
          0x0076c378      4eb900482304   jsr MENUCOM.hide_box
          0x0076c37e      544f           addq.w 0x2, a7
       > 0x0076c380      3f3c0082       move.w 0x82, -(a7)
           0x0076c384      4227           clr.b -(a7)
           0x0076c386      4eb900483972   jsr MENUCOM.set_enable_box
           0x0076c38c      544f           addq.w 0x2, a7
           0x0076c38e      3eb9007636be   move.w 0x7636be, (a7)
           0x0076c394      48790086e79e   pea.l 0x86e79e
           0x0076c39a      4267           clr.w -(a7)
           0x0076c39c      4267           clr.w -(a7)
           0x0076c39e      4267           clr.w -(a7)
           0x0076c3a0      4267           clr.w -(a7)
           0x0076c3a2      1f3c000d       move.b 0xd, -(a7)
           0x0076c3a6      4227           clr.b -(a7)
           0x0076c3a8      3f3c0082       move.w 0x82, -(a7)
           0x0076c3ac      4267           clr.w -(a7)
           0x0076c3ae      2f3900763698   move.l 0x763698, -(a7)
           0x0076c3b4      486f0018       pea.l 0x18(a7)
           0x0076c3b8      48780001       pea.l 0x1
           0x0076c3bc      48780002       pea.l 0x2
           0x0076c3c0      486d0010       pea.l 0x10(a5)
           0x0076c3c4      487900481fee   pea.l MENUCOM.hit_nothing
           0x0076c3ca      4eb900487aa6   jsr MENUCOM.new_box
           0x0076c3d0      defc002c       adda.w 0x2c, a7
           0x0076c3d4      3eb90086e79e   move.w 0x86e79e, (a7)
           0x0076c3da      3f2e0008       move.w 0x8(a6), -(a7)
           0x0076c3de      4eb900486f94   jsr MENUCOM.add_slave
           0x0076c3e4      554f           subq.w 0x2, a7
           0x0076c3e6      204f           movea.l a7, a0
           0x0076c3e8      43f9007636c1   lea.l 0x7636c1, a1
           0x0076c3ee      7004           moveq 0x4, d0
       > 0x0076c3f0      10d9           move.b (a1)+, (a0)+
       < 0x0076c3f2      51c8fffc       dbra d0, 0x76c3f0
           0x0076c3f6      3f3c0076       move.w 0x76, -(a7)
           0x0076c3fa      3f3c0007       move.w 0x7, -(a7)
           0x0076c3fe      3f3c0003       move.w 0x3, -(a7)
           0x0076c402      3f3c0005       move.w 0x5, -(a7)
           0x0076c406      3f02           move.w d2, -(a7)
           0x0076c408      1f05           move.b d5, -(a7)
           0x0076c40a      1f02           move.b d2, -(a7)
           0x0076c40c      3f390086e79e   move.w 0x86e79e, -(a7)
           0x0076c412      4267           clr.w -(a7)
           0x0076c414      2f3900763698   move.l 0x763698, -(a7)
           0x0076c41a      486f0016       pea.l 0x16(a7)
           0x0076c41e      48780001       pea.l 0x1
           0x0076c422      48780005       pea.l 0x5
           0x0076c426      486d0010       pea.l 0x10(a5)
           0x0076c42a      487abc1a       pea.l MENUTYPECOM.hit_type_style(pc)
           0x0076c42e      4eb900487686   jsr MENUCOM.def_box
           0x0076c434      defc002a       adda.w 0x2a, a7
           0x0076c438      204f           movea.l a7, a0
           0x0076c43a      43f9007636c7   lea.l 0x7636c7, a1
           0x0076c440      7004           moveq 0x4, d0
       > 0x0076c442      10d9           move.b (a1)+, (a0)+
       < 0x0076c444      51c8fffc       dbra d0, 0x76c442
           0x0076c448      48790086e78e   pea.l 0x86e78e
           0x0076c44e      3f3c0007       move.w 0x7, -(a7)
           0x0076c452      3f3c0004       move.w 0x4, -(a7)
           0x0076c456      3f3c0005       move.w 0x5, -(a7)
           0x0076c45a      3f02           move.w d2, -(a7)
           0x0076c45c      1f3c0005       move.b 0x5, -(a7)
           0x0076c460      4227           clr.b -(a7)
           0x0076c462      3f390086e79e   move.w 0x86e79e, -(a7)
           0x0076c468      4267           clr.w -(a7)
           0x0076c46a      2f3900763698   move.l 0x763698, -(a7)
           0x0076c470      486f0018       pea.l 0x18(a7)
           0x0076c474      48780001       pea.l 0x1
           0x0076c478      48780005       pea.l 0x5
           0x0076c47c      486d0010       pea.l 0x10(a5)
           0x0076c480      487abb92       pea.l MENUTYPECOM.hit_type_stick(pc)
           0x0076c484      4eb900487aa6   jsr MENUCOM.new_box
           0x0076c48a      defc0030       adda.w 0x30, a7
           0x0076c48e      3eb90086e78e   move.w 0x86e78e, (a7)
           0x0076c494      1f02           move.b d2, -(a7)
           0x0076c496      1f02           move.b d2, -(a7)
           0x0076c498      4eb900486936   jsr MENUCOM.set_menu_flag
           0x0076c49e      204f           movea.l a7, a0
           0x0076c4a0      43f9007636cd   lea.l 0x7636cd, a1
           0x0076c4a6      7004           moveq 0x4, d0
       > 0x0076c4a8      10d9           move.b (a1)+, (a0)+
       < 0x0076c4aa      51c8fffc       dbra d0, 0x76c4a8
           0x0076c4ae      48790086e7a0   pea.l 0x86e7a0
           0x0076c4b4      4267           clr.w -(a7)
           0x0076c4b6      4267           clr.w -(a7)
           0x0076c4b8      4267           clr.w -(a7)
           0x0076c4ba      4267           clr.w -(a7)
           0x0076c4bc      1f05           move.b d5, -(a7)
           0x0076c4be      4227           clr.b -(a7)
           0x0076c4c0      3f390086e79e   move.w 0x86e79e, -(a7)
           0x0076c4c6      3f2e0008       move.w 0x8(a6), -(a7)
           0x0076c4ca      2f3900763698   move.l 0x763698, -(a7)
           0x0076c4d0      486f0018       pea.l 0x18(a7)
           0x0076c4d4      48780001       pea.l 0x1
           0x0076c4d8      48780005       pea.l 0x5
           0x0076c4dc      486d0010       pea.l 0x10(a5)
           0x0076c4e0      487900481fee   pea.l MENUCOM.hit_nothing
           0x0076c4e6      4eb900487aa6   jsr MENUCOM.new_box
           0x0076c4ec      defc002c       adda.w 0x2c, a7
           0x0076c4f0      204f           movea.l a7, a0
           0x0076c4f2      43f9007636d3   lea.l 0x7636d3, a1
           0x0076c4f8      7005           moveq 0x5, d0
       > 0x0076c4fa      10d9           move.b (a1)+, (a0)+
       < 0x0076c4fc      51c8fffc       dbra d0, 0x76c4fa
           0x0076c500      48790086e7c0   pea.l 0x86e7c0
           0x0076c506      3f3c000c       move.w 0xc, -(a7)
           0x0076c50a      3f3c0006       move.w 0x6, -(a7)
           0x0076c50e      3f3c0005       move.w 0x5, -(a7)
           0x0076c512      3f02           move.w d2, -(a7)
           0x0076c514      1f05           move.b d5, -(a7)
           0x0076c516      4227           clr.b -(a7)
           0x0076c518      3f390086e7a0   move.w 0x86e7a0, -(a7)
           0x0076c51e      4267           clr.w -(a7)
           0x0076c520      2f3900763698   move.l 0x763698, -(a7)
           0x0076c526      486f0018       pea.l 0x18(a7)
           0x0076c52a      48780001       pea.l 0x1
           0x0076c52e      48780006       pea.l 0x6
           0x0076c532      486d0010       pea.l 0x10(a5)
           0x0076c536      487900481fee   pea.l MENUCOM.hit_nothing
           0x0076c53c      4eb900487aa6   jsr MENUCOM.new_box
           0x0076c542      defc0024       adda.w 0x24, a7
           0x0076c546      2eb9007636da   move.l 0x7636da, (a7)
           0x0076c54c      2f79007636de.  move.l 0x7636de, 0x4(a7)
           0x0076c554      2f79007636e2.  move.l 0x7636e2, 0x8(a7)
           0x0076c55c      1f79007636e6.  move.b 0x7636e6, 0xc(a7)
           0x0076c564      48790086e7c2   pea.l 0x86e7c2
           0x0076c56a      4267           clr.w -(a7)
           0x0076c56c      4267           clr.w -(a7)
           0x0076c56e      4267           clr.w -(a7)
           0x0076c570      4267           clr.w -(a7)
           0x0076c572      1f3c000d       move.b 0xd, -(a7)
           0x0076c576      4227           clr.b -(a7)
           0x0076c578      3f390086e7a0   move.w 0x86e7a0, -(a7)
           0x0076c57e      3f390086e7c0   move.w 0x86e7c0, -(a7)
           0x0076c584      2f3900763698   move.l 0x763698, -(a7)
           0x0076c58a      486f0018       pea.l 0x18(a7)
           0x0076c58e      48780001       pea.l 0x1
           0x0076c592      4878000d       pea.l 0xd
           0x0076c596      486d0010       pea.l 0x10(a5)
           0x0076c59a      487900481fee   pea.l MENUCOM.hit_nothing
           0x0076c5a0      4eb900487aa6   jsr MENUCOM.new_box
           0x0076c5a6      defc0038       adda.w 0x38, a7
           0x0076c5aa      3eb9007636e8   move.w 0x7636e8, (a7)
           0x0076c5b0      48790086e7ae   pea.l 0x86e7ae
           0x0076c5b6      3f3c0011       move.w 0x11, -(a7)
           0x0076c5ba      3f02           move.w d2, -(a7)
           0x0076c5bc      3f3c0005       move.w 0x5, -(a7)
           0x0076c5c0      3f02           move.w d2, -(a7)
           0x0076c5c2      1f3c0008       move.b 0x8, -(a7)
           0x0076c5c6      1f05           move.b d5, -(a7)
           0x0076c5c8      3f390086e7c0   move.w 0x86e7c0, -(a7)
           0x0076c5ce      4267           clr.w -(a7)
           0x0076c5d0      2f3900763698   move.l 0x763698, -(a7)
           0x0076c5d6      486f0018       pea.l 0x18(a7)
           0x0076c5da      48780001       pea.l 0x1
           0x0076c5de      48780002       pea.l 0x2
           0x0076c5e2      486d0010       pea.l 0x10(a5)
           0x0076c5e6      487ad2a6       pea.l MENUTYPECOM.hit_type_num(pc)
           0x0076c5ea      4eb900487aa6   jsr MENUCOM.new_box
           0x0076c5f0      defc002e       adda.w 0x2e, a7
           0x0076c5f4      7800           moveq 0x0, d4
           0x0076c5f6      4eb900408686   jsr fcn.00408686
           0x0076c5fc      2f04           move.l d4, -(a7)
           0x0076c5fe      283cfffff448   move.l 0xfffff448, d4
           0x0076c604      4eb900408686   jsr fcn.00408686
           0x0076c60a      2f04           move.l d4, -(a7)
           0x0076c60c      283c00000bb8   move.l 0xbb8, d4
           0x0076c612      4eb900408686   jsr fcn.00408686
           0x0076c618      3f390086e7ae   move.w 0x86e7ae, -(a7)
           0x0076c61e      202f0006       move.l 0x6(a7), d0
           0x0076c622      2f00           move.l d0, -(a7)
           0x0076c624      202f0006       move.l 0x6(a7), d0
           0x0076c628      2f00           move.l d0, -(a7)
           0x0076c62a      2f04           move.l d4, -(a7)
           0x0076c62c      3f3cfffc       move.w 0xfffc, -(a7)
           0x0076c630      3f05           move.w d5, -(a7)
           0x0076c632      4eb90048d4ae   jsr MENU2COM.make_numeric_bo
           0x0076c638      defc0010       adda.w 0x10, a7
           0x0076c63c      1eb9007636eb   move.b 0x7636eb, (a7)
           0x0076c642      1f79007636ec.  move.b 0x7636ec, 0x1(a7)
           0x0076c64a      48790086e7b0   pea.l 0x86e7b0
           0x0076c650      3f3c0011       move.w 0x11, -(a7)
           0x0076c654      3f05           move.w d5, -(a7)
           0x0076c656      3f3c0005       move.w 0x5, -(a7)
           0x0076c65a      3f02           move.w d2, -(a7)
           0x0076c65c      1f3c0008       move.b 0x8, -(a7)
           0x0076c660      1f05           move.b d5, -(a7)
           0x0076c662      3f390086e7c0   move.w 0x86e7c0, -(a7)
           0x0076c668      3f390086e7ae   move.w 0x86e7ae, -(a7)
           0x0076c66e      2f3900763698   move.l 0x763698, -(a7)
           0x0076c674      486f0018       pea.l 0x18(a7)
           0x0076c678      48780001       pea.l 0x1
           0x0076c67c      48780002       pea.l 0x2
           0x0076c680      486d0010       pea.l 0x10(a5)
           0x0076c684      487ad208       pea.l MENUTYPECOM.hit_type_num(pc)
           0x0076c688      4eb900487aa6   jsr MENUCOM.new_box
           0x0076c68e      defc002c       adda.w 0x2c, a7
           0x0076c692      3eb90086e7b0   move.w 0x86e7b0, (a7)
           0x0076c698      202f0006       move.l 0x6(a7), d0
           0x0076c69c      2f00           move.l d0, -(a7)
           0x0076c69e      202f0006       move.l 0x6(a7), d0
           0x0076c6a2      2f00           move.l d0, -(a7)
           0x0076c6a4      2f04           move.l d4, -(a7)
           0x0076c6a6      3f3cfffc       move.w 0xfffc, -(a7)
           0x0076c6aa      3f05           move.w d5, -(a7)
           0x0076c6ac      4eb90048d4ae   jsr MENU2COM.make_numeric_bo
           0x0076c6b2      defc0016       adda.w 0x16, a7
           0x0076c6b6      302effe8       move.w -0x18(a6), d0
           0x0076c6ba      c1fc0004       muls.w 0x4, d0
           0x0076c6be      2800           move.l d0, d4
           0x0076c6c0      7603           moveq 0x3, d3
           0x0076c6c2      4eb900406b50   jsr fcn.00406b50
           0x0076c6c8      5384           subq.l 0x1, d4
           0x0076c6ca      0484ffff8000   subi.l 0xffff8000, d4
           0x0076c6d0      0c840000ffff   cmpi.l 0xffff, d4
       < 0x0076c6d6      6302           bls.b 0x76c6da
          0x0076c6d8      4e4f           trap 0xf
       > 0x0076c6da      0684ffff8000   addi.l 0xffff8000, d4
           0x0076c6e0      3e04           move.w d4, d7
           0x0076c6e2      302effe8       move.w -0x18(a6), d0
           0x0076c6e6      c1fc0011       muls.w 0x11, d0
           0x0076c6ea      0480ffff8000   subi.l 0xffff8000, d0
           0x0076c6f0      0c800000ffff   cmpi.l 0xffff, d0
       < 0x0076c6f6      6302           bls.b 0x76c6fa
          0x0076c6f8      4e4f           trap 0xf
       > 0x0076c6fa      0680ffff8000   addi.l 0xffff8000, d0
           0x0076c700      3c00           move.w d0, d6
           0x0076c702      3f39007636ee   move.w 0x7636ee, -(a7)
           0x0076c708      48790086e790   pea.l 0x86e790
           0x0076c70e      3f06           move.w d6, -(a7)
           0x0076c710      3f3c0003       move.w 0x3, -(a7)
           0x0076c714      3f07           move.w d7, -(a7)
           0x0076c716      3f02           move.w d2, -(a7)
           0x0076c718      1f02           move.b d2, -(a7)
           0x0076c71a      4227           clr.b -(a7)
           0x0076c71c      3f390086e7c2   move.w 0x86e7c2, -(a7)
           0x0076c722      4267           clr.w -(a7)
           0x0076c724      2f3900763698   move.l 0x763698, -(a7)
           0x0076c72a      486f0018       pea.l 0x18(a7)
           0x0076c72e      48780001       pea.l 0x1
           0x0076c732      48780002       pea.l 0x2
           0x0076c736      486d0010       pea.l 0x10(a5)
           0x0076c73a      487aba1e       pea.l MENUTYPECOM.hit_range(pc)
           0x0076c73e      4eb900487aa6   jsr MENUCOM.new_box
           0x0076c744      defc002c       adda.w 0x2c, a7
           0x0076c748      3eb90086e790   move.w 0x86e790, (a7)
           0x0076c74e      4eb900481d90   jsr MENUCOM.swtch_on_box
           0x0076c754      1eb9007636f1   move.b 0x7636f1, (a7)
           0x0076c75a      1f79007636f2.  move.b 0x7636f2, 0x1(a7)
           0x0076c762      48790086e792   pea.l 0x86e792
           0x0076c768      48c6           ext.l d6
           0x0076c76a      48c7           ext.l d7
           0x0076c76c      2006           move.l d6, d0
           0x0076c76e      d087           add.l d7, d0
           0x0076c770      322efff0       move.w -0x10(a6), d1
           0x0076c774      48c1           ext.l d1
           0x0076c776      d280           add.l d0, d1
           0x0076c778      0481ffff8000   subi.l 0xffff8000, d1
           0x0076c77e      0c810000ffff   cmpi.l 0xffff, d1
       < 0x0076c784      6302           bls.b 0x76c788
          0x0076c786      4e4f           trap 0xf
       > 0x0076c788      0681ffff8000   addi.l 0xffff8000, d1
           0x0076c78e      3f01           move.w d1, -(a7)
           0x0076c790      3f3c0003       move.w 0x3, -(a7)
           0x0076c794      3f07           move.w d7, -(a7)
           0x0076c796      3f02           move.w d2, -(a7)
           0x0076c798      1f02           move.b d2, -(a7)
           0x0076c79a      4227           clr.b -(a7)
           0x0076c79c      3f390086e7c2   move.w 0x86e7c2, -(a7)
           0x0076c7a2      3f390086e790   move.w 0x86e790, -(a7)
           0x0076c7a8      2f3900763698   move.l 0x763698, -(a7)
           0x0076c7ae      486f0018       pea.l 0x18(a7)
           0x0076c7b2      48780001       pea.l 0x1
           0x0076c7b6      48780002       pea.l 0x2
           0x0076c7ba      486d0010       pea.l 0x10(a5)
           0x0076c7be      487ab99a       pea.l MENUTYPECOM.hit_range(pc)
           0x0076c7c2      4eb900487aa6   jsr MENUCOM.new_box
           0x0076c7c8      defc002e       adda.w 0x2e, a7
           0x0076c7cc      48c7           ext.l d7
           0x0076c7ce      302efff0       move.w -0x10(a6), d0
           0x0076c7d2      48c0           ext.l d0
           0x0076c7d4      2207           move.l d7, d1
           0x0076c7d6      d280           add.l d0, d1
           0x0076c7d8      7802           moveq 0x2, d4
           0x0076c7da      2601           move.l d1, d3
           0x0076c7dc      4eb900406a74   jsr fcn.00406a74
           0x0076c7e2      3f39007636f4   move.w 0x7636f4, -(a7)
           0x0076c7e8      48790086e794   pea.l 0x86e794
           0x0076c7ee      48c6           ext.l d6
           0x0076c7f0      d886           add.l d6, d4
           0x0076c7f2      0484ffff8000   subi.l 0xffff8000, d4
           0x0076c7f8      0c840000ffff   cmpi.l 0xffff, d4
       < 0x0076c7fe      6302           bls.b 0x76c802
          0x0076c800      4e4f           trap 0xf
       > 0x0076c802      0684ffff8000   addi.l 0xffff8000, d4
           0x0076c808      3f04           move.w d4, -(a7)
           0x0076c80a      3f3c0003       move.w 0x3, -(a7)
           0x0076c80e      2207           move.l d7, d1
           0x0076c810      5581           subq.l 0x2, d1
           0x0076c812      0481ffff8000   subi.l 0xffff8000, d1
           0x0076c818      0c810000ffff   cmpi.l 0xffff, d1
       < 0x0076c81e      6302           bls.b 0x76c822
          0x0076c820      4e4f           trap 0xf
       > 0x0076c822      0681ffff8000   addi.l 0xffff8000, d1
           0x0076c828      3f01           move.w d1, -(a7)
           0x0076c82a      3f02           move.w d2, -(a7)
           0x0076c82c      1f02           move.b d2, -(a7)
           0x0076c82e      4227           clr.b -(a7)
           0x0076c830      3f390086e7c2   move.w 0x86e7c2, -(a7)
           0x0076c836      3f390086e792   move.w 0x86e792, -(a7)
           0x0076c83c      2f3900763698   move.l 0x763698, -(a7)
           0x0076c842      486f0018       pea.l 0x18(a7)
           0x0076c846      48780001       pea.l 0x1
           0x0076c84a      48780002       pea.l 0x2
           0x0076c84e      486d0010       pea.l 0x10(a5)
           0x0076c852      487ab906       pea.l MENUTYPECOM.hit_range(pc)
           0x0076c856      4eb900487aa6   jsr MENUCOM.new_box
           0x0076c85c      defc002e       adda.w 0x2e, a7
           0x0076c860      322effe8       move.w -0x18(a6), d1
           0x0076c864      c3fc000c       muls.w 0xc, d1
           0x0076c868      0481ffff8000   subi.l 0xffff8000, d1
           0x0076c86e      0c810000ffff   cmpi.l 0xffff, d1
       < 0x0076c874      6302           bls.b 0x76c878
          0x0076c876      4e4f           trap 0xf
       > 0x0076c878      0681ffff8000   addi.l 0xffff8000, d1
           0x0076c87e      3c01           move.w d1, d6
           0x0076c880      322effe8       move.w -0x18(a6), d1
           0x0076c884      c3fc0005       muls.w 0x5, d1
           0x0076c888      2801           move.l d1, d4
           0x0076c88a      7602           moveq 0x2, d3
           0x0076c88c      4eb900406b50   jsr fcn.00406b50
           0x0076c892      5584           subq.l 0x2, d4
           0x0076c894      0484ffff8000   subi.l 0xffff8000, d4
           0x0076c89a      0c840000ffff   cmpi.l 0xffff, d4
       < 0x0076c8a0      6302           bls.b 0x76c8a4
          0x0076c8a2      4e4f           trap 0xf
       > 0x0076c8a4      0684ffff8000   addi.l 0xffff8000, d4
           0x0076c8aa      3e04           move.w d4, d7
           0x0076c8ac      5d4f           subq.w 0x6, a7
           0x0076c8ae      204f           movea.l a7, a0
           0x0076c8b0      43f9007636f7   lea.l 0x7636f7, a1
           0x0076c8b6      7205           moveq 0x5, d1
       > 0x0076c8b8      10d9           move.b (a1)+, (a0)+
       < 0x0076c8ba      51c9fffc       dbra d1, 0x76c8b8
           0x0076c8be      48790086e7a2   pea.l 0x86e7a2
           0x0076c8c4      3f06           move.w d6, -(a7)
           0x0076c8c6      3f3c0004       move.w 0x4, -(a7)
           0x0076c8ca      3f07           move.w d7, -(a7)
           0x0076c8cc      3f02           move.w d2, -(a7)
           0x0076c8ce      1f02           move.b d2, -(a7)
           0x0076c8d0      4227           clr.b -(a7)
           0x0076c8d2      3f390086e7a0   move.w 0x86e7a0, -(a7)
           0x0076c8d8      4267           clr.w -(a7)
           0x0076c8da      2f3900763698   move.l 0x763698, -(a7)
           0x0076c8e0      486f0018       pea.l 0x18(a7)
           0x0076c8e4      48780001       pea.l 0x1
           0x0076c8e8      48780006       pea.l 0x6
           0x0076c8ec      486d0010       pea.l 0x10(a5)
           0x0076c8f0      487ab7c8       pea.l MENUTYPECOM.hit_line_char(pc)
           0x0076c8f4      4eb900487aa6   jsr MENUCOM.new_box
           0x0076c8fa      defc0030       adda.w 0x30, a7
           0x0076c8fe      3eb90086e7a2   move.w 0x86e7a2, (a7)
           0x0076c904      4eb900481d90   jsr MENUCOM.swtch_on_box
           0x0076c90a      544f           addq.w 0x2, a7
           0x0076c90c      48c6           ext.l d6
           0x0076c90e      48c7           ext.l d7
           0x0076c910      2206           move.l d6, d1
           0x0076c912      d287           add.l d7, d1
           0x0076c914      d081           add.l d1, d0
           0x0076c916      0480ffff8000   subi.l 0xffff8000, d0
           0x0076c91c      0c800000ffff   cmpi.l 0xffff, d0
       < 0x0076c922      6302           bls.b 0x76c926
          0x0076c924      4e4f           trap 0xf
       > 0x0076c926      0680ffff8000   addi.l 0xffff8000, d0
           0x0076c92c      2f39007636fe   move.l 0x7636fe, -(a7)
           0x0076c932      48790086e7a8   pea.l 0x86e7a8
           0x0076c938      3f00           move.w d0, -(a7)
           0x0076c93a      3f3c0004       move.w 0x4, -(a7)
           0x0076c93e      3f07           move.w d7, -(a7)
           0x0076c940      3f02           move.w d2, -(a7)
           0x0076c942      1f02           move.b d2, -(a7)
           0x0076c944      4227           clr.b -(a7)
           0x0076c946      3f390086e7a0   move.w 0x86e7a0, -(a7)
           0x0076c94c      3f390086e7a2   move.w 0x86e7a2, -(a7)
           0x0076c952      2f3900763698   move.l 0x763698, -(a7)
           0x0076c958      486f0018       pea.l 0x18(a7)
           0x0076c95c      48780001       pea.l 0x1
           0x0076c960      48780004       pea.l 0x4
           0x0076c964      486d0010       pea.l 0x10(a5)
           0x0076c968      487ab750       pea.l MENUTYPECOM.hit_line_char(pc)
           0x0076c96c      4eb900487aa6   jsr MENUCOM.new_box
           0x0076c972      defc0028       adda.w 0x28, a7
           0x0076c976      204f           movea.l a7, a0
           0x0076c978      43f900763703   lea.l 0x763703, a1
           0x0076c97e      7207           moveq 0x7, d1
       > 0x0076c980      10d9           move.b (a1)+, (a0)+
       < 0x0076c982      51c9fffc       dbra d1, 0x76c980
           0x0076c986      48790086e7a4   pea.l 0x86e7a4
           0x0076c98c      3f06           move.w d6, -(a7)
           0x0076c98e      3f3c0005       move.w 0x5, -(a7)
           0x0076c992      3f07           move.w d7, -(a7)
           0x0076c994      3f02           move.w d2, -(a7)
           0x0076c996      1f02           move.b d2, -(a7)
           0x0076c998      4227           clr.b -(a7)
           0x0076c99a      3f390086e7a0   move.w 0x86e7a0, -(a7)
           0x0076c9a0      3f390086e7a2   move.w 0x86e7a2, -(a7)
           0x0076c9a6      2f3900763698   move.l 0x763698, -(a7)
           0x0076c9ac      486f0018       pea.l 0x18(a7)
           0x0076c9b0      48780001       pea.l 0x1
           0x0076c9b4      48780008       pea.l 0x8
           0x0076c9b8      486d0010       pea.l 0x10(a5)
           0x0076c9bc      487ab6fc       pea.l MENUTYPECOM.hit_line_char(pc)
           0x0076c9c0      4eb900487aa6   jsr MENUCOM.new_box
           0x0076c9c6      defc0030       adda.w 0x30, a7
           0x0076c9ca      2eb90076370c   move.l 0x76370c, (a7)
           0x0076c9d0      48790086e7a6   pea.l 0x86e7a6
           0x0076c9d6      3f00           move.w d0, -(a7)
           0x0076c9d8      3f3c0005       move.w 0x5, -(a7)
           0x0076c9dc      3f07           move.w d7, -(a7)
           0x0076c9de      3f02           move.w d2, -(a7)
           0x0076c9e0      1f02           move.b d2, -(a7)
           0x0076c9e2      4227           clr.b -(a7)
           0x0076c9e4      3f390086e7a0   move.w 0x86e7a0, -(a7)
           0x0076c9ea      3f390086e7a8   move.w 0x86e7a8, -(a7)
           0x0076c9f0      2f3900763698   move.l 0x763698, -(a7)
           0x0076c9f6      486f0018       pea.l 0x18(a7)
           0x0076c9fa      48780001       pea.l 0x1
           0x0076c9fe      48780004       pea.l 0x4
           0x0076ca02      486d0010       pea.l 0x10(a5)
           0x0076ca06      487ab6b2       pea.l MENUTYPECOM.hit_line_char(pc)
           0x0076ca0a      4eb900487aa6   jsr MENUCOM.new_box
           0x0076ca10      defc002a       adda.w 0x2a, a7
           0x0076ca14      204f           movea.l a7, a0
           0x0076ca16      43f900763711   lea.l 0x763711, a1
           0x0076ca1c      7004           moveq 0x4, d0
       > 0x0076ca1e      10d9           move.b (a1)+, (a0)+
       < 0x0076ca20      51c8fffc       dbra d0, 0x76ca1e
           0x0076ca24      48790086e7ac   pea.l 0x86e7ac
           0x0076ca2a      4267           clr.w -(a7)
           0x0076ca2c      4267           clr.w -(a7)
           0x0076ca2e      4267           clr.w -(a7)
           0x0076ca30      4267           clr.w -(a7)
           0x0076ca32      1f02           move.b d2, -(a7)
           0x0076ca34      4227           clr.b -(a7)
           0x0076ca36      3f390086e7c0   move.w 0x86e7c0, -(a7)
           0x0076ca3c      4267           clr.w -(a7)
           0x0076ca3e      2f3900763698   move.l 0x763698, -(a7)
           0x0076ca44      486f0018       pea.l 0x18(a7)
           0x0076ca48      48780001       pea.l 0x1
           0x0076ca4c      48780005       pea.l 0x5
           0x0076ca50      486d0010       pea.l 0x10(a5)
           0x0076ca54      487900481fee   pea.l MENUCOM.hit_nothing
           0x0076ca5a      4eb900487aa6   jsr MENUCOM.new_box
           0x0076ca60      defc0030       adda.w 0x30, a7
           0x0076ca64      3eb90086e7a2   move.w 0x86e7a2, (a7)
           0x0076ca6a      1f02           move.b d2, -(a7)
           0x0076ca6c      4eb900483776   jsr MENUCOM.swtch_box
           0x0076ca72      554f           subq.w 0x2, a7
           0x0076ca74      204f           movea.l a7, a0
           0x0076ca76      43f900763717   lea.l 0x763717, a1
           0x0076ca7c      7004           moveq 0x4, d0
       > 0x0076ca7e      10d9           move.b (a1)+, (a0)+
       < 0x0076ca80      51c8fffc       dbra d0, 0x76ca7e
           0x0076ca84      48790086e7aa   pea.l 0x86e7aa
           0x0076ca8a      4267           clr.w -(a7)
           0x0076ca8c      4267           clr.w -(a7)
           0x0076ca8e      4267           clr.w -(a7)
           0x0076ca90      4267           clr.w -(a7)
           0x0076ca92      1f02           move.b d2, -(a7)
           0x0076ca94      4227           clr.b -(a7)
           0x0076ca96      3f390086e7c0   move.w 0x86e7c0, -(a7)
           0x0076ca9c      3f390086e7ac   move.w 0x86e7ac, -(a7)
           0x0076caa2      2f3900763698   move.l 0x763698, -(a7)
           0x0076caa8      486f0018       pea.l 0x18(a7)
           0x0076caac      48780001       pea.l 0x1
           0x0076cab0      48780005       pea.l 0x5
           0x0076cab4      486d0010       pea.l 0x10(a5)
           0x0076cab8      487900481fee   pea.l MENUCOM.hit_nothing
           0x0076cabe      4eb900487aa6   jsr MENUCOM.new_box
           0x0076cac4      defc002c       adda.w 0x2c, a7
           0x0076cac8      204f           movea.l a7, a0
           0x0076caca      43f90076371d   lea.l 0x76371d, a1
           0x0076cad0      7004           moveq 0x4, d0
       > 0x0076cad2      10d9           move.b (a1)+, (a0)+
       < 0x0076cad4      51c8fffc       dbra d0, 0x76cad2
           0x0076cad8      48790086e7b2   pea.l 0x86e7b2
           0x0076cade      3f3c0011       move.w 0x11, -(a7)
           0x0076cae2      3f3c0003       move.w 0x3, -(a7)
           0x0076cae6      3f3c0005       move.w 0x5, -(a7)
           0x0076caea      3f02           move.w d2, -(a7)
           0x0076caec      1f3c0008       move.b 0x8, -(a7)
           0x0076caf0      1f05           move.b d5, -(a7)
           0x0076caf2      3f390086e7c0   move.w 0x86e7c0, -(a7)
           0x0076caf8      3f390086e7b0   move.w 0x86e7b0, -(a7)
           0x0076cafe      2f3900763698   move.l 0x763698, -(a7)
           0x0076cb04      486f0018       pea.l 0x18(a7)
           0x0076cb08      48780001       pea.l 0x1
           0x0076cb0c      48780005       pea.l 0x5
           0x0076cb10      486d0010       pea.l 0x10(a5)
           0x0076cb14      487acd78       pea.l MENUTYPECOM.hit_type_num(pc)
           0x0076cb18      4eb900487aa6   jsr MENUCOM.new_box
           0x0076cb1e      defc0030       adda.w 0x30, a7
           0x0076cb22      3eb90086e7b2   move.w 0x86e7b2, (a7)
           0x0076cb28      7832           moveq 0x32, d4
           0x0076cb2a      4eb900408686   jsr fcn.00408686
           0x0076cb30      2f04           move.l d4, -(a7)
           0x0076cb32      7801           moveq 0x1, d4
           0x0076cb34      4eb900408686   jsr fcn.00408686
           0x0076cb3a      2f04           move.l d4, -(a7)
           0x0076cb3c      283c00000258   move.l 0x258, d4
           0x0076cb42      4eb900408686   jsr fcn.00408686
           0x0076cb48      2f04           move.l d4, -(a7)
           0x0076cb4a      3f3cfffe       move.w 0xfffe, -(a7)
           0x0076cb4e      3f05           move.w d5, -(a7)
           0x0076cb50      4eb90048d4ae   jsr MENU2COM.make_numeric_bo
           0x0076cb56      504f           addq.w 0x8, a7
           0x0076cb58      204f           movea.l a7, a0
           0x0076cb5a      43f900763723   lea.l 0x763723, a1
           0x0076cb60      7008           moveq 0x8, d0
       > 0x0076cb62      10d9           move.b (a1)+, (a0)+
       < 0x0076cb64      51c8fffc       dbra d0, 0x76cb62
           0x0076cb68      48790086e7b4   pea.l 0x86e7b4
           0x0076cb6e      3f3c0011       move.w 0x11, -(a7)
           0x0076cb72      3f3c0004       move.w 0x4, -(a7)
           0x0076cb76      3f3c0005       move.w 0x5, -(a7)
           0x0076cb7a      3f02           move.w d2, -(a7)
           0x0076cb7c      1f3c0008       move.b 0x8, -(a7)
           0x0076cb80      1f05           move.b d5, -(a7)
           0x0076cb82      3f390086e7c0   move.w 0x86e7c0, -(a7)
           0x0076cb88      3f390086e7b2   move.w 0x86e7b2, -(a7)
           0x0076cb8e      2f3900763698   move.l 0x763698, -(a7)
           0x0076cb94      486f0018       pea.l 0x18(a7)
           0x0076cb98      48780001       pea.l 0x1
           0x0076cb9c      48780009       pea.l 0x9
           0x0076cba0      486d0010       pea.l 0x10(a5)
           0x0076cba4      487acce8       pea.l MENUTYPECOM.hit_type_num(pc)
           0x0076cba8      4eb900487aa6   jsr MENUCOM.new_box
           0x0076cbae      defc0034       adda.w 0x34, a7
           0x0076cbb2      3eb90086e7b4   move.w 0x86e7b4, (a7)
           0x0076cbb8      202f0002       move.l 0x2(a7), d0
           0x0076cbbc      2f00           move.l d0, -(a7)
           0x0076cbbe      283cfffffed4   move.l 0xfffffed4, d4
           0x0076cbc4      4eb900408686   jsr fcn.00408686
           0x0076cbca      2f04           move.l d4, -(a7)
           0x0076cbcc      283c0000012c   move.l 0x12c, d4
           0x0076cbd2      4eb900408686   jsr fcn.00408686
           0x0076cbd8      2f04           move.l d4, -(a7)
           0x0076cbda      3f3cfffe       move.w 0xfffe, -(a7)
           0x0076cbde      3f05           move.w d5, -(a7)
           0x0076cbe0      4eb90048d4ae   jsr MENU2COM.make_numeric_bo
           0x0076cbe6      defc000c       adda.w 0xc, a7
           0x0076cbea      204f           movea.l a7, a0
           0x0076cbec      43f90076372d   lea.l 0x76372d, a1
           0x0076cbf2      7004           moveq 0x4, d0
       > 0x0076cbf4      10d9           move.b (a1)+, (a0)+
       < 0x0076cbf6      51c8fffc       dbra d0, 0x76cbf4
           0x0076cbfa      48790086e7b6   pea.l 0x86e7b6
           0x0076cc00      3f3c0011       move.w 0x11, -(a7)
           0x0076cc04      3f3c0005       move.w 0x5, -(a7)
           0x0076cc08      3f3c0005       move.w 0x5, -(a7)
           0x0076cc0c      3f02           move.w d2, -(a7)
           0x0076cc0e      1f3c0008       move.b 0x8, -(a7)
           0x0076cc12      1f05           move.b d5, -(a7)
           0x0076cc14      3f390086e7aa   move.w 0x86e7aa, -(a7)
           0x0076cc1a      3f390086e7b4   move.w 0x86e7b4, -(a7)
           0x0076cc20      2f3900763698   move.l 0x763698, -(a7)
           0x0076cc26      486f0018       pea.l 0x18(a7)
           0x0076cc2a      48780001       pea.l 0x1
           0x0076cc2e      48780005       pea.l 0x5
           0x0076cc32      486d0010       pea.l 0x10(a5)
           0x0076cc36      487acc56       pea.l MENUTYPECOM.hit_type_num(pc)
           0x0076cc3a      4eb900487aa6   jsr MENUCOM.new_box
           0x0076cc40      defc0032       adda.w 0x32, a7
           0x0076cc44      283cfffffc19   move.l 0xfffffc19, d4
           0x0076cc4a      4eb900408686   jsr fcn.00408686
           0x0076cc50      2f04           move.l d4, -(a7)
           0x0076cc52      283c000003e7   move.l 0x3e7, d4
           0x0076cc58      4eb900408686   jsr fcn.00408686
           0x0076cc5e      2f04           move.l d4, -(a7)
           0x0076cc60      3f390086e7b6   move.w 0x86e7b6, -(a7)
           0x0076cc66      202f000a       move.l 0xa(a7), d0
           0x0076cc6a      2f00           move.l d0, -(a7)
           0x0076cc6c      202f000a       move.l 0xa(a7), d0
           0x0076cc70      2f00           move.l d0, -(a7)
           0x0076cc72      2f04           move.l d4, -(a7)
           0x0076cc74      3f3cfffe       move.w 0xfffe, -(a7)
           0x0076cc78      3f05           move.w d5, -(a7)
           0x0076cc7a      4eb90048d4ae   jsr MENU2COM.make_numeric_bo
           0x0076cc80      5c4f           addq.w 0x6, a7
           0x0076cc82      204f           movea.l a7, a0
           0x0076cc84      43f900763733   lea.l 0x763733, a1
           0x0076cc8a      700a           moveq 0xa, d0
       > 0x0076cc8c      10d9           move.b (a1)+, (a0)+
       < 0x0076cc8e      51c8fffc       dbra d0, 0x76cc8c
           0x0076cc92      48790086e7b8   pea.l 0x86e7b8
           0x0076cc98      3f3c0011       move.w 0x11, -(a7)
           0x0076cc9c      3f3c0006       move.w 0x6, -(a7)
           0x0076cca0      3f3c0005       move.w 0x5, -(a7)
           0x0076cca4      3f02           move.w d2, -(a7)
           0x0076cca6      1f3c0008       move.b 0x8, -(a7)
           0x0076ccaa      1f05           move.b d5, -(a7)
           0x0076ccac      3f390086e7aa   move.w 0x86e7aa, -(a7)
           0x0076ccb2      3f390086e7b6   move.w 0x86e7b6, -(a7)
           0x0076ccb8      2f3900763698   move.l 0x763698, -(a7)
           0x0076ccbe      486f0018       pea.l 0x18(a7)
           0x0076ccc2      48780001       pea.l 0x1
           0x0076ccc6      4878000b       pea.l 0xb
           0x0076ccca      486d0010       pea.l 0x10(a5)
           0x0076ccce      487acbbe       pea.l MENUTYPECOM.hit_type_num(pc)
           0x0076ccd2      4eb900487aa6   jsr MENUCOM.new_box
           0x0076ccd8      defc0036       adda.w 0x36, a7
           0x0076ccdc      3eb90086e7b8   move.w 0x86e7b8, (a7)
           0x0076cce2      202f000a       move.l 0xa(a7), d0
           0x0076cce6      2f00           move.l d0, -(a7)
           0x0076cce8      283cfffffe0c   move.l 0xfffffe0c, d4
           0x0076ccee      4eb900408686   jsr fcn.00408686
           0x0076ccf4      2f04           move.l d4, -(a7)
           0x0076ccf6      283c000001f4   move.l 0x1f4, d4
           0x0076ccfc      4eb900408686   jsr fcn.00408686
           0x0076cd02      2f04           move.l d4, -(a7)
           0x0076cd04      3f3cfffe       move.w 0xfffe, -(a7)
           0x0076cd08      4267           clr.w -(a7)
           0x0076cd0a      4eb90048d4ae   jsr MENU2COM.make_numeric_bo
           0x0076cd10      defc000c       adda.w 0xc, a7
           0x0076cd14      204f           movea.l a7, a0
           0x0076cd16      43f90076373f   lea.l 0x76373f, a1
           0x0076cd1c      7004           moveq 0x4, d0
       > 0x0076cd1e      10d9           move.b (a1)+, (a0)+
       < 0x0076cd20      51c8fffc       dbra d0, 0x76cd1e
           0x0076cd24      48790086e7ba   pea.l 0x86e7ba
           0x0076cd2a      3f3c0011       move.w 0x11, -(a7)
           0x0076cd2e      3f3c0005       move.w 0x5, -(a7)
           0x0076cd32      3f3c0005       move.w 0x5, -(a7)
           0x0076cd36      3f02           move.w d2, -(a7)
           0x0076cd38      1f3c0008       move.b 0x8, -(a7)
           0x0076cd3c      1f05           move.b d5, -(a7)
           0x0076cd3e      3f390086e7ac   move.w 0x86e7ac, -(a7)
           0x0076cd44      3f390086e7b8   move.w 0x86e7b8, -(a7)
           0x0076cd4a      2f3900763698   move.l 0x763698, -(a7)
           0x0076cd50      486f0018       pea.l 0x18(a7)
           0x0076cd54      48780001       pea.l 0x1
           0x0076cd58      48780005       pea.l 0x5
           0x0076cd5c      486d0010       pea.l 0x10(a5)
           0x0076cd60      487acb2c       pea.l MENUTYPECOM.hit_type_num(pc)
           0x0076cd64      4eb900487aa6   jsr MENUCOM.new_box
           0x0076cd6a      defc0030       adda.w 0x30, a7
           0x0076cd6e      3eb90086e7ba   move.w 0x86e7ba, (a7)
           0x0076cd74      202f000a       move.l 0xa(a7), d0
           0x0076cd78      2f00           move.l d0, -(a7)
           0x0076cd7a      202f000a       move.l 0xa(a7), d0
           0x0076cd7e      2f00           move.l d0, -(a7)
           0x0076cd80      202f000a       move.l 0xa(a7), d0
           0x0076cd84      2f00           move.l d0, -(a7)
           0x0076cd86      3f3cfffe       move.w 0xfffe, -(a7)
           0x0076cd8a      3f05           move.w d5, -(a7)
           0x0076cd8c      4eb90048d4ae   jsr MENU2COM.make_numeric_bo
           0x0076cd92      defc0018       adda.w 0x18, a7
           0x0076cd96      204f           movea.l a7, a0
           0x0076cd98      43f900763745   lea.l 0x763745, a1
           0x0076cd9e      7004           moveq 0x4, d0
       > 0x0076cda0      10d9           move.b (a1)+, (a0)+
       < 0x0076cda2      51c8fffc       dbra d0, 0x76cda0
           0x0076cda6      48790086e7bc   pea.l 0x86e7bc
           0x0076cdac      3f3c0011       move.w 0x11, -(a7)
           0x0076cdb0      3f02           move.w d2, -(a7)
           0x0076cdb2      3f3c0004       move.w 0x4, -(a7)
           0x0076cdb6      3f02           move.w d2, -(a7)
           0x0076cdb8      1f05           move.b d5, -(a7)
           0x0076cdba      4227           clr.b -(a7)
           0x0076cdbc      3f390086e7c2   move.w 0x86e7c2, -(a7)
           0x0076cdc2      4267           clr.w -(a7)
           0x0076cdc4      2f3900763698   move.l 0x763698, -(a7)
           0x0076cdca      486f0018       pea.l 0x18(a7)
           0x0076cdce      48780001       pea.l 0x1
           0x0076cdd2      48780005       pea.l 0x5
           0x0076cdd6      486d0010       pea.l 0x10(a5)
           0x0076cdda      487ab59c       pea.l MENUTYPECOM.hit_flip_tumble(pc)
           0x0076cdde      4eb900487aa6   jsr MENUCOM.new_box
           0x0076cde4      defc0028       adda.w 0x28, a7
           0x0076cde8      204f           movea.l a7, a0
           0x0076cdea      43f90076374b   lea.l 0x76374b, a1
           0x0076cdf0      7008           moveq 0x8, d0
       > 0x0076cdf2      10d9           move.b (a1)+, (a0)+
       < 0x0076cdf4      51c8fffc       dbra d0, 0x76cdf2
           0x0076cdf8      48790086e7be   pea.l 0x86e7be
           0x0076cdfe      3f3c0011       move.w 0x11, -(a7)
           0x0076ce02      3f05           move.w d5, -(a7)
           0x0076ce04      3f3c0004       move.w 0x4, -(a7)
           0x0076ce08      3f02           move.w d2, -(a7)
           0x0076ce0a      1f05           move.b d5, -(a7)
           0x0076ce0c      4227           clr.b -(a7)
           0x0076ce0e      3f390086e7c2   move.w 0x86e7c2, -(a7)
           0x0076ce14      4267           clr.w -(a7)
           0x0076ce16      2f3900763698   move.l 0x763698, -(a7)
           0x0076ce1c      486f0018       pea.l 0x18(a7)
           0x0076ce20      48780001       pea.l 0x1
           0x0076ce24      48780009       pea.l 0x9
           0x0076ce28      486d0010       pea.l 0x10(a5)
           0x0076ce2c      487ab54a       pea.l MENUTYPECOM.hit_flip_tumble(pc)
           0x0076ce30      4eb900487aa6   jsr MENUCOM.new_box
           0x0076ce36      defc0030       adda.w 0x30, a7
           0x0076ce3a      204f           movea.l a7, a0
           0x0076ce3c      43f900763755   lea.l 0x763755, a1
           0x0076ce42      7005           moveq 0x5, d0
       > 0x0076ce44      10d9           move.b (a1)+, (a0)+
       < 0x0076ce46      51c8fffc       dbra d0, 0x76ce44
           0x0076ce4a      48790086e798   pea.l 0x86e798
           0x0076ce50      3f3c0016       move.w 0x16, -(a7)
           0x0076ce54      3f05           move.w d5, -(a7)
           0x0076ce56      3f05           move.w d5, -(a7)
           0x0076ce58      3f02           move.w d2, -(a7)
           0x0076ce5a      1f3c0005       move.b 0x5, -(a7)
           0x0076ce5e      4227           clr.b -(a7)
           0x0076ce60      3f390086e7a0   move.w 0x86e7a0, -(a7)
           0x0076ce66      4267           clr.w -(a7)
           0x0076ce68      2f3900763698   move.l 0x763698, -(a7)
           0x0076ce6e      486f0018       pea.l 0x18(a7)
           0x0076ce72      48780001       pea.l 0x1
           0x0076ce76      48780006       pea.l 0x6
           0x0076ce7a      486d0010       pea.l 0x10(a5)
           0x0076ce7e      487aaa1e       pea.l MENUTYPECOM.hit_lose_font(pc)
           0x0076ce82      4eb900487aa6   jsr MENUCOM.new_box
           0x0076ce88      defc002e       adda.w 0x2e, a7
           0x0076ce8c      3eb90076375c   move.w 0x76375c, (a7)
           0x0076ce92      1f790076375e.  move.b 0x76375e, 0x2(a7)
           0x0076ce9a      48790086e796   pea.l 0x86e796
           0x0076cea0      3f3c0016       move.w 0x16, -(a7)
           0x0076cea4      3f02           move.w d2, -(a7)
           0x0076cea6      3f05           move.w d5, -(a7)
           0x0076cea8      3f02           move.w d2, -(a7)
           0x0076ceaa      1f3c0005       move.b 0x5, -(a7)
           0x0076ceae      4227           clr.b -(a7)
           0x0076ceb0      3f390086e7a0   move.w 0x86e7a0, -(a7)
           0x0076ceb6      4267           clr.w -(a7)
           0x0076ceb8      2f3900763698   move.l 0x763698, -(a7)
           0x0076cebe      486f0018       pea.l 0x18(a7)
           0x0076cec2      48780001       pea.l 0x1
           0x0076cec6      48780003       pea.l 0x3
           0x0076ceca      486d0010       pea.l 0x10(a5)
           0x0076cece      487aadec       pea.l MENUTYPECOM.hit_set_font(pc)
           0x0076ced2      4eb900487aa6   jsr MENUCOM.new_box
           0x0076ced8      defc002a       adda.w 0x2a, a7
           0x0076cedc      2eb900763760   move.l 0x763760, (a7)
           0x0076cee2      1f7900763764.  move.b 0x763764, 0x4(a7)
           0x0076ceea      48790086e79c   pea.l 0x86e79c
           0x0076cef0      3f3c0016       move.w 0x16, -(a7)
           0x0076cef4      3f3c0003       move.w 0x3, -(a7)
           0x0076cef8      3f05           move.w d5, -(a7)
           0x0076cefa      3f02           move.w d2, -(a7)
           0x0076cefc      1f05           move.b d5, -(a7)
           0x0076cefe      4227           clr.b -(a7)
           0x0076cf00      3f390086e7a0   move.w 0x86e7a0, -(a7)
           0x0076cf06      4267           clr.w -(a7)
           0x0076cf08      2f3900763698   move.l 0x763698, -(a7)
           0x0076cf0e      486f0018       pea.l 0x18(a7)
           0x0076cf12      48780001       pea.l 0x1
           0x0076cf16      48780005       pea.l 0x5
           0x0076cf1a      486d0010       pea.l 0x10(a5)
           0x0076cf1e      4879004a6a9e   pea.l MENUKEYBDCOM.hit_pick_kbd_ma
           0x0076cf24      4eb900487aa6   jsr MENUCOM.new_box
           0x0076cf2a      defc002a       adda.w 0x2a, a7
           0x0076cf2e      2eb900763766   move.l 0x763766, (a7)
           0x0076cf34      3f790076376a.  move.w 0x76376a, 0x4(a7)
           0x0076cf3c      1f790076376c.  move.b 0x76376c, 0x6(a7)
           0x0076cf44      48790086e79a   pea.l 0x86e79a
           0x0076cf4a      3f3c0007       move.w 0x7, -(a7)
           0x0076cf4e      3f3c0006       move.w 0x6, -(a7)
           0x0076cf52      3f3c0005       move.w 0x5, -(a7)
           0x0076cf56      3f02           move.w d2, -(a7)
           0x0076cf58      1f05           move.b d5, -(a7)
           0x0076cf5a      4227           clr.b -(a7)
           0x0076cf5c      3f3c0082       move.w 0x82, -(a7)
           0x0076cf60      3f390086e79e   move.w 0x86e79e, -(a7)
           0x0076cf66      2f3900763698   move.l 0x763698, -(a7)
           0x0076cf6c      486f0018       pea.l 0x18(a7)
           0x0076cf70      48780001       pea.l 0x1
           0x0076cf74      48780007       pea.l 0x7
           0x0076cf78      486d0010       pea.l 0x10(a5)
           0x0076cf7c      4879004a68ba   pea.l MENUKEYBDCOM.hit_set_kbd_map
           0x0076cf82      4eb900487aa6   jsr MENUCOM.new_box
           0x0076cf88      defc0032       adda.w 0x32, a7
           0x0076cf8c      3eb90086e79a   move.w 0x86e79a, (a7)
           0x0076cf92      4eb9004a8d1a   jsr MENUKEYBDCOM.init_kbd_mappin
           0x0076cf98      554f           subq.w 0x2, a7
           0x0076cf9a      7001           moveq 0x1, d0
           0x0076cf9c      41ef0001       lea.l 0x1(a7), a0
           0x0076cfa0      43f90076376e   lea.l 0x76376e, a1
       > 0x0076cfa6      10d9           move.b (a1)+, (a0)+
       < 0x0076cfa8      51c8fffc       dbra d0, 0x76cfa6
           0x0076cfac      1e85           move.b d5, (a7)
           0x0076cfae      5217           addq.b 0x1, (a7)
           0x0076cfb0      7000           moveq 0x0, d0
           0x0076cfb2      43f900763771   lea.l 0x763771, a1
       > 0x0076cfb8      10d9           move.b (a1)+, (a0)+
       < 0x0076cfba      51c8fffc       dbra d0, 0x76cfb8
           0x0076cfbe      5d4f           subq.w 0x6, a7
           0x0076cfc0      4240           clr.w d0
           0x0076cfc2      102f0006       move.b 0x6(a7), d0
           0x0076cfc6      3200           move.w d0, d1
           0x0076cfc8      41ef0001       lea.l 0x1(a7), a0
           0x0076cfcc      5301           subq.b 0x1, d1
       < 0x0076cfce      650a           bcs.b 0x76cfda
          0x0076cfd0      43ef0007       lea.l 0x7(a7), a1
      > 0x0076cfd4      10d9           move.b (a1)+, (a0)+
      < 0x0076cfd6      51c9fffc       dbra d1, 0x76cfd4
       > 0x0076cfda      1e80           move.b d0, (a7)
           0x0076cfdc      5217           addq.b 0x1, (a7)
           0x0076cfde      7200           moveq 0x0, d1
           0x0076cfe0      43f900763773   lea.l 0x763773, a1
       > 0x0076cfe6      10d9           move.b (a1)+, (a0)+
       < 0x0076cfe8      51c9fffc       dbra d1, 0x76cfe6
           0x0076cfec      5d4f           subq.w 0x6, a7
           0x0076cfee      4240           clr.w d0
           0x0076cff0      102f0006       move.b 0x6(a7), d0
           0x0076cff4      3200           move.w d0, d1
           0x0076cff6      41ef0001       lea.l 0x1(a7), a0
           0x0076cffa      5301           subq.b 0x1, d1
       < 0x0076cffc      650a           bcs.b 0x76d008
          0x0076cffe      43ef0007       lea.l 0x7(a7), a1
      > 0x0076d002      10d9           move.b (a1)+, (a0)+
      < 0x0076d004      51c9fffc       dbra d1, 0x76d002
       > 0x0076d008      1e80           move.b d0, (a7)
           0x0076d00a      5217           addq.b 0x1, (a7)
           0x0076d00c      7200           moveq 0x0, d1
           0x0076d00e      43f900763775   lea.l 0x763775, a1
       > 0x0076d014      10d9           move.b (a1)+, (a0)+
       < 0x0076d016      51c9fffc       dbra d1, 0x76d014
           0x0076d01a      554f           subq.w 0x2, a7
           0x0076d01c      2f2f0002       move.l 0x2(a7), -(a7)
           0x0076d020      3f6f000a0004   move.w 0xa(a7), 0x4(a7)
           0x0076d026      48790086e7c4   pea.l 0x86e7c4
           0x0076d02c      3f3c0011       move.w 0x11, -(a7)
           0x0076d030      3f3c0004       move.w 0x4, -(a7)
           0x0076d034      3f05           move.w d5, -(a7)
           0x0076d036      3f02           move.w d2, -(a7)
           0x0076d038      1f02           move.b d2, -(a7)
           0x0076d03a      4227           clr.b -(a7)
           0x0076d03c      3f390086e7c2   move.w 0x86e7c2, -(a7)
           0x0076d042      4267           clr.w -(a7)
           0x0076d044      2f3900763698   move.l 0x763698, -(a7)
           0x0076d04a      486f0018       pea.l 0x18(a7)
           0x0076d04e      48780000       pea.l 0x0
           0x0076d052      48780006       pea.l 0x6
           0x0076d056      486d0010       pea.l 0x10(a5)
           0x0076d05a      487aae9a       pea.l MENUTYPECOM.hit_type_direct(pc)
           0x0076d05e      4eb900487aa6   jsr MENUCOM.new_box
           0x0076d064      defc0040       adda.w 0x40, a7
           0x0076d068      3eb90086e7c4   move.w 0x86e7c4, (a7)
           0x0076d06e      1f02           move.b d2, -(a7)
           0x0076d070      4eb900483776   jsr MENUCOM.swtch_box
           0x0076d076      7001           moveq 0x1, d0
           0x0076d078      41ef0001       lea.l 0x1(a7), a0
           0x0076d07c      43f900763777   lea.l 0x763777, a1
       > 0x0076d082      10d9           move.b (a1)+, (a0)+
       < 0x0076d084      51c8fffc       dbra d0, 0x76d082
           0x0076d088      1e85           move.b d5, (a7)
           0x0076d08a      5217           addq.b 0x1, (a7)
           0x0076d08c      7000           moveq 0x0, d0
           0x0076d08e      43f90076377a   lea.l 0x76377a, a1
       > 0x0076d094      10d9           move.b (a1)+, (a0)+
       < 0x0076d096      51c8fffc       dbra d0, 0x76d094
           0x0076d09a      5d4f           subq.w 0x6, a7
           0x0076d09c      4240           clr.w d0
           0x0076d09e      102f0006       move.b 0x6(a7), d0
           0x0076d0a2      3200           move.w d0, d1
           0x0076d0a4      41ef0001       lea.l 0x1(a7), a0
           0x0076d0a8      5301           subq.b 0x1, d1
       < 0x0076d0aa      650a           bcs.b 0x76d0b6
          0x0076d0ac      43ef0007       lea.l 0x7(a7), a1
      > 0x0076d0b0      10d9           move.b (a1)+, (a0)+
      < 0x0076d0b2      51c9fffc       dbra d1, 0x76d0b0
       > 0x0076d0b6      1e80           move.b d0, (a7)
           0x0076d0b8      5217           addq.b 0x1, (a7)
           0x0076d0ba      7200           moveq 0x0, d1
           0x0076d0bc      43f90076377c   lea.l 0x76377c, a1
       > 0x0076d0c2      10d9           move.b (a1)+, (a0)+
       < 0x0076d0c4      51c9fffc       dbra d1, 0x76d0c2
           0x0076d0c8      5d4f           subq.w 0x6, a7
           0x0076d0ca      4240           clr.w d0
           0x0076d0cc      102f0006       move.b 0x6(a7), d0
           0x0076d0d0      3200           move.w d0, d1
           0x0076d0d2      41ef0001       lea.l 0x1(a7), a0
           0x0076d0d6      5301           subq.b 0x1, d1
       < 0x0076d0d8      650a           bcs.b 0x76d0e4
          0x0076d0da      43ef0007       lea.l 0x7(a7), a1
      > 0x0076d0de      10d9           move.b (a1)+, (a0)+
      < 0x0076d0e0      51c9fffc       dbra d1, 0x76d0de
       > 0x0076d0e4      1e80           move.b d0, (a7)
           0x0076d0e6      5217           addq.b 0x1, (a7)
           0x0076d0e8      7200           moveq 0x0, d1
           0x0076d0ea      43f90076377e   lea.l 0x76377e, a1
       > 0x0076d0f0      10d9           move.b (a1)+, (a0)+
       < 0x0076d0f2      51c9fffc       dbra d1, 0x76d0f0
           0x0076d0f6      554f           subq.w 0x2, a7
           0x0076d0f8      2f2f0002       move.l 0x2(a7), -(a7)
           0x0076d0fc      3f6f000a0004   move.w 0xa(a7), 0x4(a7)
           0x0076d102      48790086e7c6   pea.l 0x86e7c6
           0x0076d108      3f3c0013       move.w 0x13, -(a7)
           0x0076d10c      3f3c0004       move.w 0x4, -(a7)
           0x0076d110      3f05           move.w d5, -(a7)
           0x0076d112      3f02           move.w d2, -(a7)
           0x0076d114      1f02           move.b d2, -(a7)
           0x0076d116      4227           clr.b -(a7)
           0x0076d118      3f390086e7c2   move.w 0x86e7c2, -(a7)
           0x0076d11e      3f390086e7c4   move.w 0x86e7c4, -(a7)
           0x0076d124      2f3900763698   move.l 0x763698, -(a7)
           0x0076d12a      486f0018       pea.l 0x18(a7)
           0x0076d12e      48780000       pea.l 0x0
           0x0076d132      48780006       pea.l 0x6
           0x0076d136      486d0010       pea.l 0x10(a5)
           0x0076d13a      487aadba       pea.l MENUTYPECOM.hit_type_direct(pc)
           0x0076d13e      4eb900487aa6   jsr MENUCOM.new_box
           0x0076d144      defc003e       adda.w 0x3e, a7
           0x0076d148      4217           clr.b (a7)
           0x0076d14a      4eb900474c44   jsr CONFIG.cfg_pb_options
           0x0076d150      544f           addq.w 0x2, a7
           0x0076d152      4a1f           tst.b (a7)+
       < 0x0076d154      6714           beq.b 0x76d16a
          0x0076d156      554f           subq.w 0x2, a7
          0x0076d158      1f3c0004       move.b 0x4, -(a7)
          0x0076d15c      4eb900474c44   jsr CONFIG.cfg_pb_options
          0x0076d162      544f           addq.w 0x2, a7
          0x0076d164      4a1f           tst.b (a7)+
      < 0x0076d166      6642           bne.b 0x76d1aa
     < 0x0076d168      6034           bra.b 0x76d19e
     > 0x0076d16a      554f           subq.w 0x2, a7
         0x0076d16c      4227           clr.b -(a7)
         0x0076d16e      4eb900474c8e   jsr CONFIG.cfg_pbx_options
         0x0076d174      544f           addq.w 0x2, a7
         0x0076d176      4a1f           tst.b (a7)+
     < 0x0076d178      6714           beq.b 0x76d18e
        0x0076d17a      554f           subq.w 0x2, a7
        0x0076d17c      1f3c0004       move.b 0x4, -(a7)
        0x0076d180      4eb900474c8e   jsr CONFIG.cfg_pbx_options
        0x0076d186      544f           addq.w 0x2, a7
        0x0076d188      4a1f           tst.b (a7)+
    < 0x0076d18a      661e           bne.b 0x76d1aa
   < 0x0076d18c      6010           bra.b 0x76d19e
   > 0x0076d18e      554f           subq.w 0x2, a7
       0x0076d190      4eb9004755c2   jsr CONFIG.cfg_gender
       0x0076d196      101f           move.b (a7)+, d0
       0x0076d198      0c00000b       cmpi.b 0xb, d0
   < 0x0076d19c      670c           beq.b 0x76d1aa
   > 0x0076d19e      3f3c0076       move.w 0x76, -(a7)
        0x0076d1a2      4eb900482304   jsr MENUCOM.hide_box
        0x0076d1a8      544f           addq.w 0x2, a7
    > 0x0076d1aa      3f390086e7c0   move.w 0x86e7c0, -(a7)
           0x0076d1b0      4eb9004836a4   jsr MENUCOM.push_box
           0x0076d1b6      544f           addq.w 0x2, a7
           0x0076d1b8      48790086e6d0   pea.l 0x86e6d0
           0x0076d1be      4878051b       pea.l 0x51b
           0x0076d1c2      4eb900403a92   jsr p_New
           0x0076d1c8      504f           addq.w 0x8, a7
           0x0076d1ca      7e00           moveq 0x0, d7
       > 0x0076d1cc      0c87000000ff   cmpi.l 0xff, d7
      < 0x0076d1d2      6302           bls.b 0x76d1d6
         0x0076d1d4      4e4f           trap 0xf
      > 0x0076d1d6      20790086e6d0   movea.l 0x86e6d0, a0
          0x0076d1dc      b1e8fffc       cmpa.l -0x4(a0), a0
      < 0x0076d1e0      6702           beq.b 0x76d1e4
         0x0076d1e2      4e4d           trap 0xd
      > 0x0076d1e4      42307816       clr.b 0x16(a0, d7.l)
          0x0076d1e8      5287           addq.l 0x1, d7
          0x0076d1ea      0c87000000ff   cmpi.l 0xff, d7
       < 0x0076d1f0      6fda           ble.b 0x76d1cc
           0x0076d1f2      7e00           moveq 0x0, d7
       > 0x0076d1f4      0c87000000ff   cmpi.l 0xff, d7
      < 0x0076d1fa      6302           bls.b 0x76d1fe
         0x0076d1fc      4e4f           trap 0xf
      > 0x0076d1fe      2007           move.l d7, d0
          0x0076d200      e580           asl.l 0x2, d0
          0x0076d202      20790086e6d0   movea.l 0x86e6d0, a0
          0x0076d208      b1e8fffc       cmpa.l -0x4(a0), a0
      < 0x0076d20c      6702           beq.b 0x76d210
         0x0076d20e      4e4d           trap 0xd
      > 0x0076d210      41f00800       lea.l (a0, d0.l), a0
          0x0076d214      21420116       move.l d2, 0x116(a0)
          0x0076d218      5287           addq.l 0x1, d7
          0x0076d21a      0c87000000ff   cmpi.l 0xff, d7
       < 0x0076d220      6fd2           ble.b 0x76d1f4
           0x0076d222      20790086e6d0   movea.l 0x86e6d0, a0
           0x0076d228      b1e8fffc       cmpa.l -0x4(a0), a0
       < 0x0076d22c      6702           beq.b 0x76d230
          0x0076d22e      4e4d           trap 0xd
       > 0x0076d230      2082           move.l d2, (a0)
           0x0076d232      48780001       pea.l 0x1
           0x0076d236      215f0012       move.l (a7)+, 0x12(a0)
           0x0076d23a      21420516       move.l d2, 0x516(a0)
           0x0076d23e      4228051a       clr.b 0x51a(a0)
           0x0076d242      48790086e6d4   pea.l 0x86e6d4
           0x0076d248      4878051b       pea.l 0x51b
           0x0076d24c      4eb900403a92   jsr p_New
           0x0076d252      504f           addq.w 0x8, a7
           0x0076d254      7e00           moveq 0x0, d7
       > 0x0076d256      0c87000000ff   cmpi.l 0xff, d7
      < 0x0076d25c      6302           bls.b 0x76d260
         0x0076d25e      4e4f           trap 0xf
      > 0x0076d260      20790086e6d4   movea.l 0x86e6d4, a0
          0x0076d266      b1e8fffc       cmpa.l -0x4(a0), a0
      < 0x0076d26a      6702           beq.b 0x76d26e
         0x0076d26c      4e4d           trap 0xd
      > 0x0076d26e      42307816       clr.b 0x16(a0, d7.l)
          0x0076d272      5287           addq.l 0x1, d7
          0x0076d274      0c87000000ff   cmpi.l 0xff, d7
       < 0x0076d27a      6fda           ble.b 0x76d256
           0x0076d27c      7e00           moveq 0x0, d7
       > 0x0076d27e      0c87000000ff   cmpi.l 0xff, d7
      < 0x0076d284      6302           bls.b 0x76d288
         0x0076d286      4e4f           trap 0xf
      > 0x0076d288      2007           move.l d7, d0
          0x0076d28a      e580           asl.l 0x2, d0
          0x0076d28c      20790086e6d4   movea.l 0x86e6d4, a0
          0x0076d292      b1e8fffc       cmpa.l -0x4(a0), a0
      < 0x0076d296      6702           beq.b 0x76d29a
         0x0076d298      4e4d           trap 0xd
      > 0x0076d29a      41f00800       lea.l (a0, d0.l), a0
          0x0076d29e      21420116       move.l d2, 0x116(a0)
          0x0076d2a2      5287           addq.l 0x1, d7
          0x0076d2a4      0c87000000ff   cmpi.l 0xff, d7
       < 0x0076d2aa      6fd2           ble.b 0x76d27e
           0x0076d2ac      20790086e6d4   movea.l 0x86e6d4, a0
           0x0076d2b2      b1e8fffc       cmpa.l -0x4(a0), a0
       < 0x0076d2b6      6702           beq.b 0x76d2ba
          0x0076d2b8      4e4d           trap 0xd
       > 0x0076d2ba      2082           move.l d2, (a0)
           0x0076d2bc      48780001       pea.l 0x1
           0x0076d2c0      215f0012       move.l (a7)+, 0x12(a0)
           0x0076d2c4      21420516       move.l d2, 0x516(a0)
           0x0076d2c8      48790086e78a   pea.l 0x86e78a
           0x0076d2ce      48780720       pea.l 0x720
           0x0076d2d2      4eb900403a92   jsr p_New
           0x0076d2d8      504f           addq.w 0x8, a7
           0x0076d2da      23c20086e6e4   move.l d2, 0x86e6e4
           0x0076d2e0      23c20086e6e8   move.l d2, 0x86e6e8
           0x0076d2e6      23c20086e6d8   move.l d2, 0x86e6d8
           0x0076d2ec      23c20086e6ec   move.l d2, 0x86e6ec
           0x0076d2f2      23c20086e6e0   move.l d2, 0x86e6e0
           0x0076d2f8      13fc00040086.  move.b 0x4, 0x86e6fc.l
           0x0076d300      486d0010       pea.l 0x10(a5)
           0x0076d304      4879007637b8   pea.l MENUTYPECOM.type_purge
           0x0076d30a      4eb900403e52   jsr p_purge_proc
           0x0076d310      504f           addq.w 0x8, a7
           0x0076d312      42790086e7ce   clr.w 0x86e7ce
           0x0076d318      41f90086e7e0   lea.l 0x86e7e0, a0
           0x0076d31e      43f900763792   lea.l 0x763792, a1
           0x0076d324      7007           moveq 0x7, d0
       > 0x0076d326      20d9           move.l (a1)+, (a0)+
       < 0x0076d328      51c8fffc       dbra d0, 0x76d326
           0x0076d32c      9efc000a       suba.w 0xa, a7
           0x0076d330      3f3c0458       move.w 0x458, -(a7)
           0x0076d334      9efc00fc       suba.w 0xfc, a7
           0x0076d338      2f39007637b2   move.l 0x7637b2, -(a7)
           0x0076d33e      3f79007637b6.  move.w 0x7637b6, 0x4(a7)
           0x0076d346      486effd8       pea.l -0x28(a6)
           0x0076d34a      487aec8e       pea.l MENUTYPECOM.load_fonts(pc)
           0x0076d34e      4eb900494864   jsr TAGFILE.load_tagfile
           0x0076d354      defc010a       adda.w 0x10a, a7
           0x0076d358      23df0086e800   move.l (a7)+, 0x86e800
           0x0076d35e      23df0086e804   move.l (a7)+, 0x86e804
           0x0076d364      33df0086e808   move.w (a7)+, 0x86e808
           0x0076d36a      20790086e6d0   movea.l 0x86e6d0, a0
           0x0076d370      b1e8fffc       cmpa.l -0x4(a0), a0
       < 0x0076d374      6702           beq.b 0x76d378
          0x0076d376      4e4d           trap 0xd
       > 0x0076d378      2050           movea.l (a0), a0
           0x0076d37a      b0c2           cmpa.w d2, a0
       < 0x0076d37c      6708           beq.b 0x76d386
          0x0076d37e      1f02           move.b d2, -(a7)
          0x0076d380      4eba8580       jsr MENUTYPECOM.clear_type(pc)
          0x0076d384      544f           addq.w 0x2, a7
       > 0x0076d386      4cdf1fff       movem.l (a7)+, d0-d7/a0-a4
           0x0076d38a      4e5e           unlk a6
