            ;-- MENUCOM:
            0x0047e75c      .byte 0x00
            0x0047e75d      .byte 0x88
            0x0047e75e      .byte 0x00
            0x0047e75f      .byte 0x46
            0x0047e760      .byte 0x00
            0x0047e761      .byte 0xd2
            0x0047e762      .byte 0x00
            0x0047e763      .byte 0x51
            0x0047e764      .byte 0x00
            0x0047e765      .byte 0x80
            0x0047e766      .byte 0x00
            0x0047e767      .byte 0x80
            0x0047e768      .byte 0x00
            0x0047e769      .byte 0x3c
            0x0047e76a      .byte 0x00
            0x0047e76b      .byte 0x80
            0x0047e76c      .byte 0x00
            0x0047e76d      .byte 0x80
            0x0047e76e      .byte 0x00
            0x0047e76f      .byte 0x32
            0x0047e770      .byte 0x00
            0x0047e771      .byte 0x80
            0x0047e772      .byte 0x00
            0x0047e773      .byte 0x80
            0x0047e774      .byte 0x00
            0x0047e775      .byte 0x10
            0x0047e776      .byte 0x00
            0x0047e777      .byte 0x80
            0x0047e778      .byte 0x00
            0x0047e779      .byte 0x80
            0x0047e77a      .byte 0x00
            0x0047e77b      .byte 0xa7
            0x0047e77c      .byte 0x00
            0x0047e77d      .byte 0x72
            0x0047e77e      .byte 0x00
            0x0047e77f      .byte 0x9e
            0x0047e780      .byte 0x00
            0x0047e781      .byte 0xbf
            0x0047e782      .byte 0x00
            0x0047e783      .byte 0x80
            0x0047e784      .byte 0x00
            0x0047e785      .byte 0x80
            0x0047e786      .byte 0x00
            0x0047e787      .byte 0xa0
            0x0047e788      .byte 0x00
            0x0047e789      .byte 0x96
            0x0047e78a      .byte 0x00
            0x0047e78b      .byte 0x74
            0x0047e78c      .byte 0x00
            0x0047e78d      .byte 0x23
            0x0047e78e      .byte 0x00
            0x0047e78f      .byte 0xf0
            0x0047e790      .byte 0x00
            0x0047e791      .byte 0x6e
            0x0047e792      .byte 0x00
            0x0047e793      .byte 0x8c
            0x0047e794      .byte 0x00
            0x0047e795      .byte 0x6e
            0x0047e796      .byte 0x00
            0x0047e797      .byte 0x6e
            0x0047e798      .byte 0x00
            0x0047e799      .byte 0xc4
            0x0047e79a      .byte 0x00
            0x0047e79b      .byte 0x31
            0x0047e79c      .byte 0x00
            0x0047e79d      .byte 0x8c
            0x0047e79e      .byte 0x00
            0x0047e79f      .byte 0xa8
            0x0047e7a0      .byte 0x00
            0x0047e7a1      .byte 0x28
            0x0047e7a2      .byte 0x00
            0x0047e7a3      .byte 0xb1
            0x0047e7a4      .byte 0x00
            0x0047e7a5      .byte 0x00
            0x0047e7a6      .byte 0x00
            0x0047e7a7      .byte 0x80
            0x0047e7a8      .byte 0x00
            0x0047e7a9      .byte 0x80
            0x0047e7aa      .byte 0x00
            0x0047e7ab      .byte 0xff
            0x0047e7ac      .byte 0x00
            0x0047e7ad      .byte 0x80
            0x0047e7ae      .byte 0x00
            0x0047e7af      .byte 0x80
            0x0047e7b0      .byte 0x00
            0x0047e7b1      .byte 0xcc
            0x0047e7b2      .byte 0x00
            0x0047e7b3      .byte 0x80
            0x0047e7b4      .byte 0x00
            0x0047e7b5      .byte 0x80
            0x0047e7b6      .byte 0x00
            0x0047e7b7      .byte 0xad
            0x0047e7b8      .byte 0x00
            0x0047e7b9      .byte 0x80
            0x0047e7ba      .byte 0x00
            0x0047e7bb      .byte 0x80
            0x0047e7bc      .byte 0x00
            0x0047e7bd      .byte 0xeb
            0x0047e7be      .byte 0x00
            0x0047e7bf      .byte 0x80
            0x0047e7c0      .byte 0x00
            0x0047e7c1      .byte 0x80
            0x0047e7c2      .byte 0x00
            0x0047e7c3      .byte 0x10
            0x0047e7c4      .byte 0x00
            0x0047e7c5      .byte 0x80
            0x0047e7c6      .byte 0x00
            0x0047e7c7      .byte 0x80
            0x0047e7c8      .byte 0x00
            0x0047e7c9      .byte 0x80
            0x0047e7ca      .byte 0x00
            0x0047e7cb      .byte 0x80
            0x0047e7cc      .byte 0x00
            0x0047e7cd      .byte 0x80
            0x0047e7ce      .byte 0x00
            0x0047e7cf      .byte 0x51
            0x0047e7d0      .byte 0x00
            0x0047e7d1      .byte 0x5a
            0x0047e7d2      .byte 0x00
            0x0047e7d3      .byte 0xf0
            0x0047e7d4      .byte 0x00
            0x0047e7d5      .byte 0xd2
            0x0047e7d6      .byte 0x00
            0x0047e7d7      .byte 0x10
            0x0047e7d8      .byte 0x00
            0x0047e7d9      .byte 0x92
            0x0047e7da      .byte 0x00
            0x0047e7db      .byte 0x29
            0x0047e7dc      .byte 0x00
            0x0047e7dd      .byte 0xf0
            0x0047e7de      .byte 0x00
            0x0047e7df      .byte 0x6e
            0x0047e7e0      .byte 0x00
            0x0047e7e1      .byte 0x91
            0x0047e7e2      .byte 0x00
            0x0047e7e3      .byte 0x36
            0x0047e7e4      .byte 0x00
            0x0047e7e5      .byte 0x22
            0x0047e7e6      .byte 0x00
            0x0047e7e7      .byte 0xa2
            0x0047e7e8      .byte 0x00
            0x0047e7e9      .byte 0x2c
            0x0047e7ea      .byte 0x00
            0x0047e7eb      .byte 0x8e
            0x0047e7ec      .byte 0x00
            0x0047e7ed      .byte 0x83
            0x0047e7ee      .byte 0x00
            0x0047e7ef      .byte 0x9c
            0x0047e7f0      .byte 0x00
            0x0047e7f1      .byte 0x2c
            0x0047e7f2      .byte 0x00
            0x0047e7f3      .byte 0x70
            0x0047e7f4      .byte 0x00
            0x0047e7f5      .byte 0x48
            0x0047e7f6      .byte 0x00
            0x0047e7f7      .byte 0x3a
            0x0047e7f8      .byte 0x00
            0x0047e7f9      .byte 0x54
            0x0047e7fa      .byte 0x00
            0x0047e7fb      .byte 0xb8
            0x0047e7fc      .byte 0x00
            0x0047e7fd      .byte 0xc6
            0x0047e7fe      .byte 0x00
            0x0047e7ff      .byte 0x41
            0x0047e800      .byte 0x00
            0x0047e801      .byte 0x64
            0x0047e802      .byte 0x00
            0x0047e803      .byte 0xd4
            0x0047e804      .byte 0x00
            0x0047e805      .byte 0x23
            0x0047e806      .byte 0x00
            0x0047e807      .byte 0xd4
            0x0047e808      .byte 0x00
            0x0047e809      .byte 0x72
            0x0047e80a      .byte 0x00
            0x0047e80b      .byte 0xd2
            0x0047e80c      .byte 0x00
            0x0047e80d      .byte 0x10
            0x0047e80e      .byte 0x00
            0x0047e80f      .byte 0x92
            0x0047e810      .byte 0x00
            0x0047e811      .byte 0xaa
            0x0047e812      .byte 0x00
            0x0047e813      .byte 0xa6
            0x0047e814      .byte 0x00
            0x0047e815      .byte 0x10
            0x0047e816      .byte 0x00
            0x0047e817      .byte 0x91
            0x0047e818      .byte 0x00
            0x0047e819      .byte 0x36
            0x0047e81a      .byte 0x00
            0x0047e81b      .byte 0x22
            0x0047e81c      .byte 0x00
            0x0047e81d      .byte 0x6a
            0x0047e81e      .byte 0x00
            0x0047e81f      .byte 0xca
            0x0047e820      .byte 0x00
            0x0047e821      .byte 0xde
            0x0047e822      .byte 0x00
            0x0047e823      .byte 0x51
            0x0047e824      .byte 0x00
            0x0047e825      .byte 0x5a
            0x0047e826      .byte 0x00
            0x0047e827      .byte 0xf0
            0x0047e828      .byte 0x00
            0x0047e829      .byte 0x29
            0x0047e82a      .byte 0x00
            0x0047e82b      .byte 0xf0
            0x0047e82c      .byte 0x00
            0x0047e82d      .byte 0x6e
            0x0047e82e      .byte 0x00
            0x0047e82f      .byte 0x10
            0x0047e830      .byte 0x00
            0x0047e831      .byte 0x14
            0x0047e832      .byte 0x00
            0x0047e833      .byte 0x00
            0x0047e834      .byte 0xff
            0x0047e835      .byte 0xf0
            0x0047e836      .byte 0x00
            0x0047e837      .byte 0x02
            0x0047e838      .byte 0x00
            0x0047e839      .byte 0x02
            0x0047e83a      .byte 0x00
            0x0047e83b      .byte 0x2b
            0x0047e83c      .byte 0x00
            0x0047e83d      .byte 0x1e
            0x0047e83e      .byte 0x00
            0x0047e83f      .byte 0x08
            0x0047e840      .byte 0x00
            0x0047e841      .byte 0x92
            0x0047e842      .byte 0x0d
            0x0047e843     .string "param_ascii: " ; len=13
            0x0047e850      .byte 0x01
            0x0047e851      .byte 0x3c
            0x0047e852      .byte 0x01
            0x0047e853      .byte 0x3e
            0x0047e854      .byte 0x0a
            0x0047e855     .string ", released" ; len=10
            0x0047e85f      .byte 0x0a
            0x0047e860     .string ", repeated" ; len=10
            0x0047e86a      .byte 0x0a
            0x0047e86b     .string "param_off$" ; len=10
            0x0047e875      .byte 0x10
            0x0047e876     .string "param_force_off$" ; len=16
            0x0047e886      .byte 0x11
            0x0047e887     .string "param_really_off$" ; len=17
            0x0047e898      .byte 0x09
            0x0047e899     .string "param_on$" ; len=9
            0x0047e8a2      .byte 0x0d
            0x0047e8a3     .string "param_update$" ; len=13
            0x0047e8b0      .byte 0x0e
            0x0047e8b1     .string "param_draw_on$" ; len=14
            0x0047e8bf      .byte 0x0e
            0x0047e8c0     .string "param_erasing$" ; len=14
            0x0047e8ce      .byte 0x0e
            0x0047e8cf     .string "param_drawing$" ; len=14
            0x0047e8dd      .byte 0x0d
            0x0047e8de     .string "param_erased$" ; len=13
            0x0047e8eb      .byte 0x10
            0x0047e8ec     .string "param_obscuring$" ; len=16
            0x0047e8fc      .byte 0x0c
            0x0047e8fd     .string "param_erase$" ; len=12
            0x0047e909      .byte 0x0c
            0x0047e90a     .string "param_rehit$" ; len=12
            0x0047e916      .byte 0x0f
            0x0047e917     .string "param_changing$" ; len=15
            0x0047e926      .byte 0x11
            0x0047e927     .string "param_pad_change$" ; len=17
            0x0047e938      .byte 0x13
            0x0047e939     .string "param_pen_push_done" ; len=19
            0x0047e94c      .byte 0x13
            0x0047e94d     .string "param_num_box_type$" ; len=19
            0x0047e960      .byte 0x12
            0x0047e961     .string "param_box_pressed$" ; len=18
            0x0047e973      .byte 0x10
            0x0047e974     .string "param_box_moved$" ; len=16
            0x0047e984      .byte 0x13
            0x0047e985     .string "param_box_released$" ; len=19
            0x0047e998      .byte 0x19
            0x0047e999     .string "param_menu_bkgnd_pressed$" ; len=25
            0x0047e9b2      .byte 0x19
            0x0047e9b3     .string "param_menu_pic_proximity$" ; len=25
            0x0047e9cc      .byte 0x17
            0x0047e9cd     .string "param_menu_pic_pressed$" ; len=23
            0x0047e9e4      .byte 0x15
            0x0047e9e5     .string "param_menu_pic_moved$" ; len=21
            0x0047e9fa      .byte 0x18
            0x0047e9fb     .string "param_menu_pic_released$" ; len=24
            0x0047ea13      .byte 0x16
            0x0047ea14     .string "param_menu_pic_lifted$" ; len=22
            0x0047ea2a      .byte 0x17
            0x0047ea2b     .string "param_menu_pic_lifting$" ; len=23
            0x0047ea42      .byte 0x17
            0x0047ea43     .string "param_menu_not_pressed$" ; len=23
            0x0047ea5a      .byte 0x16
            0x0047ea5b     .string "param_box_not_pressed$" ; len=22
            0x0047ea71      .byte 0x14
            0x0047ea72     .string "param_pic_swiped_on$" ; len=20
            0x0047ea86      .byte 0x15
            0x0047ea87     .string "param_menu_swiped_on$" ; len=21
            0x0047ea9c      .byte 0x16
            0x0047ea9d     .string "param_palet_swiped_on$" ; len=22
            0x0047eab3      .byte 0x16
            0x0047eab4     .string "param_menu_swiped_off$" ; len=22
            0x0047eaca      .byte 0x17
            0x0047eacb     .string "param_menu_horiz_swipe$" ; len=23
            0x0047eae2      .byte 0x17
            0x0047eae3     .string "param_palet_swiped_off$" ; len=23
            0x0047eafa      .byte 0x17
            0x0047eafb     .string "param_swiped_proximity$" ; len=23
            0x0047eb12      .byte 0x15
            0x0047eb13     .string "param_swiped_pressed$" ; len=21
            0x0047eb28      .byte 0x13
            0x0047eb29     .string "param_swiped_moved$" ; len=19
            0x0047eb3c      .byte 0x16
            0x0047eb3d     .string "param_swiped_released$" ; len=22
            0x0047eb53      .byte 0x14
            0x0047eb54     .string "param_swiped_lifted$" ; len=20
            0x0047eb68      .byte 0x15
            0x0047eb69     .string "param_swiped_lifting$" ; len=21
            0x0047eb7e      .byte 0x15
            0x0047eb7f     .string "param_pic_swiped_off$" ; len=21
            0x0047eb94      .byte 0x0f
            0x0047eb95     .string "param_pen_wait$" ; len=15
            0x0047eba4      .byte 0x0d
            0x0047eba5     .string "param_key_on$" ; len=13
            0x0047ebb2      .byte 0x13
            0x0047ebb3     .string "param_key_still_on$" ; len=19
            0x0047ebc6      .byte 0x0e
            0x0047ebc7     .string "param_key_off$" ; len=14
            0x0047ebd5      .byte 0x0e
            0x0047ebd6     .string "param_buy_pic$" ; len=14
            0x0047ebe4      .byte 0x0f
            0x0047ebe5     .string "param_sell_pic$" ; len=15
            0x0047ebf4      .byte 0x0f
            0x0047ebf5     .string "param_prev_pic$" ; len=15
            0x0047ec04      .byte 0x0c
            0x0047ec05     .string "param_abort$" ; len=12
            0x0047ec11      .byte 0x0b
            0x0047ec12     .string "param_init$" ; len=11
            0x0047ec1d      .byte 0x10
            0x0047ec1e     .string "param_confirmed$" ; len=16
            0x0047ec2e      .byte 0x15
            0x0047ec2f     .string "param_follow_pressed$" ; len=21
            0x0047ec44      .byte 0x14
            0x0047ec45     .string "param_follow_inprox$" ; len=20
            0x0047ec59      .byte 0x14
            0x0047ec5a     .string "param_follow_lifted$" ; len=20
            0x0047ec6e      .byte 0x17
            0x0047ec6f     .string "param_follow_swiped_up$" ; len=23
            0x0047ec86      .byte 0x19
            0x0047ec87     .string "param_follow_swiped_down$" ; len=25
            0x0047eca0      .byte 0x19
            0x0047eca1     .string "param_follow_swiped_left$" ; len=25
            0x0047ecba      .byte 0x1a
            0x0047ecbb     .string "param_follow_swiped_right$" ; len=26
            0x0047ecd5      .byte 0x18
            0x0047ecd6     .string "param_out_group_box_hit$" ; len=24
            0x0047ecee      .byte 0x1d
            0x0047ecef     .string "param_out_group_menu_pic_hit$" ; len=29
            0x0047ed0c      .byte 0x0d
            0x0047ed0d     .string " param value " ; len=13
            0x0047ed1a      .byte 0x07
            0x0047ed1b     .string "passive" ; len=7
            0x0047ed22      .byte 0x07
            0x0047ed23     .string "1 only " ; len=7
            0x0047ed2a      .byte 0x07
            0x0047ed2b     .string "max 1  " ; len=7
            0x0047ed32      .byte 0x07
            0x0047ed33     .string "min 1  " ; len=7
            0x0047ed3a      .byte 0x07
            0x0047ed3b     .string "toggle " ; len=7
            0x0047ed42      .byte 0x07
            0x0047ed43     .string "instant" ; len=7
            0x0047ed4a      .byte 0x07
            0x0047ed4b     .string "numeric" ; len=7
            0x0047ed52      .byte 0x07
            0x0047ed53     .string "nafter " ; len=7
            0x0047ed5a      .byte 0x07
            0x0047ed5b     .string "arrow  " ; len=7
            0x0047ed62      .byte 0x07
            0x0047ed63     .string "altmenu" ; len=7
            0x0047ed6a      .byte 0x07
            0x0047ed6b     .string "bias 1 " ; len=7
            0x0047ed72      .byte 0x07
            0x0047ed73     .string "colour " ; len=7
            0x0047ed7a      .byte 0x07
            0x0047ed7b     .string "graphic" ; len=7
            0x0047ed82      .byte 0x07
            0x0047ed83     .string "date   " ; len=7
            0x0047ed8a      .byte 0x07
            0x0047ed8b     .string "d max 1" ; len=7
            0x0047ed92      .byte 0x07
            0x0047ed93     .string "options" ; len=7
            0x0047ed9a      .byte 0x01
            0x0047ed9b      .byte 0x28
            0x0047ed9c      .byte 0x02
            0x0047ed9d      .byte 0x29
            0x0047ed9e      .byte 0x5b
            0x0047ed9f      .byte 0x00
            0x0047eda0      .byte 0x00
            0x0047eda1      .byte 0x00
            0x0047eda2      .byte 0x00
            0x0047eda3      .byte 0x00
            0x0047eda4      .byte 0x00
            0x0047eda5      .byte 0x00
            0x0047eda6      .byte 0x00
            0x0047eda7      .byte 0x50
            0x0047eda8      .byte 0x00
            0x0047eda9      .byte 0x00
            0x0047edaa      .byte 0x00
            0x0047edab      .byte 0x00
            0x0047edac      .byte 0x00
            0x0047edad      .byte 0x00
            0x0047edae      .byte 0x00
            0x0047edaf      .byte 0x00
            0x0047edb0      .byte 0x00
            0x0047edb1      .byte 0x00
            0x0047edb2      .byte 0x00
            0x0047edb3      .byte 0x00
            0x0047edb4      .byte 0x00
            0x0047edb5      .byte 0x00
            0x0047edb6      .byte 0x00
            0x0047edb7      .byte 0x00
            0x0047edb8      .byte 0x00
            0x0047edb9      .byte 0x00
            0x0047edba      .byte 0x00
            0x0047edbb      .byte 0x00
            0x0047edbc      .byte 0x00
            0x0047edbd      .byte 0x00
            0x0047edbe      .byte 0x00
            0x0047edbf      .byte 0x00
            0x0047edc0      .byte 0x01
            0x0047edc1      .byte 0x5d
            0x0047edc2      .byte 0x01
            0x0047edc3      .byte 0x5b
            0x0047edc4      .byte 0x03
            0x0047edc5      .byte 0x2e
            0x0047edc6      .byte 0x2e
            0x0047edc7      .byte 0x2e
            0x0047edc8      .byte 0x01
            0x0047edc9      .byte 0x5d
            0x0047edca      .byte 0x05
            0x0047edcb     .string " box:" ; len=5
            0x0047edd0      .byte 0x03
            0x0047edd1      .byte 0x20
            0x0047edd2      .byte 0x2d
            0x0047edd3      .byte 0x20
            0x0047edd4      .byte 0x0c
            0x0047edd5     .string " --- no_box$" ; len=12
            0x0047ede1      .byte 0x0f
            0x0047ede2     .string " --- joy_north$" ; len=15
            0x0047edf1      .byte 0x13
            0x0047edf2     .string " --- joy_northeast$" ; len=19
            0x0047ee05      .byte 0x0e
            0x0047ee06     .string " --- joy_east$" ; len=14
            0x0047ee14      .byte 0x13
            0x0047ee15     .string " --- joy_southeast$" ; len=19
            0x0047ee28      .byte 0x0f
            0x0047ee29     .string " --- joy_south$" ; len=15
            0x0047ee38      .byte 0x13
            0x0047ee39     .string " --- joy_southwest$" ; len=19
            0x0047ee4c      .byte 0x0e
            0x0047ee4d     .string " --- joy_west$" ; len=14
            0x0047ee5b      .byte 0x13
            0x0047ee5c     .string " --- joy_northwest$" ; len=19
            0x0047ee6f      .byte 0x14
            0x0047ee70     .string " --- keyboard_ascii$" ; len=20
            0x0047ee84      .byte 0x14
            0x0047ee85     .string " --- rat_not_single$" ; len=20
            0x0047ee99      .byte 0x0b
            0x0047ee9a     .string " --- rat_1$" ; len=11
            0x0047eea5      .byte 0x0b
            0x0047eea6     .string " --- rat_2$" ; len=11
            0x0047eeb1      .byte 0x0b
            0x0047eeb2     .string " --- rat_3$" ; len=11
            0x0047eebd      .byte 0x0b
            0x0047eebe     .string " --- rat_4$" ; len=11
            0x0047eec9      .byte 0x11
            0x0047eeca     .string " --- Below range." ; len=17
            0x0047eedb      .byte 0x11
            0x0047eedc     .string " --- Above range." ; len=17
            0x0047eeed      .byte 0x0c
            0x0047eeee     .string " --- NIL box" ; len=12
            0x0047eefa      .byte 0x0f
            0x0047eefb      .byte 0x00
            0x0047eefc      .byte 0x00
            0x0047eefd      .byte 0x00
            0x0047eefe      .byte 0x00
            0x0047eeff      .byte 0x00
            0x0047ef00      .byte 0x00
            0x0047ef01      .byte 0x00
            0x0047ef02      .byte 0x00
            0x0047ef03      .byte 0x00
            0x0047ef04      .byte 0x00
            0x0047ef05      .byte 0x00
            0x0047ef06      .byte 0x00
            0x0047ef07      .byte 0x00
            0x0047ef08      .byte 0x00
            0x0047ef09      .byte 0x00
            0x0047ef0a      .byte 0x00
            0x0047ef0b      .byte 0x00
            0x0047ef0c      .byte 0x00
            0x0047ef0d      .byte 0x00
            0x0047ef0e      .byte 0x00
            0x0047ef0f      .byte 0x00
            0x0047ef10      .byte 0x00
            0x0047ef11      .byte 0x00
            0x0047ef12      .byte 0x00
            0x0047ef13      .byte 0x00
            0x0047ef14      .byte 0x00
            0x0047ef15      .byte 0x00
            0x0047ef16      .byte 0x00
            0x0047ef17      .byte 0x00
            0x0047ef18      .byte 0x00
            0x0047ef19      .byte 0x00
            0x0047ef1a      .byte 0x00
            0x0047ef1b      .byte 0x00
            0x0047ef1c      .byte 0x00
            0x0047ef1d      .byte 0x00
            0x0047ef1e      .byte 0x15
            0x0047ef1f     .string " *   Hidden   *      " ; len=21
            0x0047ef34      .byte 0x05
            0x0047ef35     .string " on  " ; len=5
            0x0047ef3a      .byte 0x05
            0x0047ef3b     .string " off " ; len=5
            0x0047ef40      .byte 0x05
            0x0047ef41     .string " enbl" ; len=5
            0x0047ef46      .byte 0x05
            0x0047ef47     .string " disb" ; len=5
            0x0047ef4c      .byte 0x05
            0x0047ef4d     .string " post" ; len=5
            0x0047ef52      .byte 0x05
            0x0047ef53     .string " upst" ; len=5
            0x0047ef58      .byte 0x06
            0x0047ef59     .string " norm " ; len=6
            0x0047ef5f      .byte 0x06
            0x0047ef60     .string " dummy" ; len=6
            0x0047ef66      .byte 0x05
            0x0047ef67     .string " mon " ; len=5
            0x0047ef6c      .byte 0x0a
            0x0047ef6d     .string " fullpage " ; len=10
            0x0047ef77      .byte 0x07
            0x0047ef78     .string " graph " ; len=7
            0x0047ef7f      .byte 0x05
            0x0047ef80     .string " alt " ; len=5
            0x0047ef85      .byte 0x03
            0x0047ef86      .byte 0x20
            0x0047ef87      .byte 0x2d
            0x0047ef88      .byte 0x20
            0x0047ef89      .byte 0x03
            0x0047ef8a      .byte 0x20
            0x0047ef8b      .byte 0x2d
            0x0047ef8c      .byte 0x20
            0x0047ef8d      .byte 0x02
            0x0047ef8e      .byte 0x20
            0x0047ef8f      .byte 0x27
            0x0047ef90      .byte 0x02
            0x0047ef91     .string " <" ; len=2
            0x0047ef93      .byte 0x21
            0x0047ef94     .string "MENUCOM soft assert failure. box " ; len=33
            0x0047efb5      .byte 0x00
            0x0047efb6      .byte 0x0e
            0x0047efb7      .byte 0x00
            0x0047efb8      .byte 0x00
            0x0047efb9      .byte 0x00
            0x0047efba      .byte 0x0e
            0x0047efbb      .byte 0x00
            0x0047efbc      .byte 0x00
            0x0047efbd      .byte 0x00
            0x0047efbe      .byte 0x0b
            0x0047efbf     .string " on top of " ; len=11
            0x0047efca      .byte 0x0d
            0x0047efcb      .byte 0x00
            0x0047efcc      .byte 0x00
            0x0047efcd      .byte 0x00
            0x0047efce      .byte 0x0d
            0x0047efcf      .byte 0x00
            0x0047efd0      .byte 0x00
            0x0047efd1      .byte 0x00
            0x0047efd2      .byte 0x0c
            0x0047efd3      .byte 0x00
            0x0047efd4      .byte 0x00
            0x0047efd5      .byte 0x00
            0x0047efd6      .byte 0x0c
            0x0047efd7      .byte 0x00
            0x0047efd8      .byte 0x00
            0x0047efd9      .byte 0x00
            0x0047efda      .byte 0x07
            0x0047efdb     .string "to box " ; len=7
            0x0047efe2      .byte 0x0e
            0x0047efe3     .string " undefined/NIL" ; len=14
            0x0047eff1      .byte 0x0d
            0x0047eff2     .string "box action - " ; len=13
            0x0047efff      .byte 0x04
            0x0047f000      .byte 0x20
            0x0047f001      .byte 0x74
            0x0047f002      .byte 0x6f
            0x0047f003      .byte 0x3a
            0x0047f004      .byte 0x06
            0x0047f005     .string " from:" ; len=6
            0x0047f00b      .byte 0x00
            0x0047f00c      .byte 0x0e
            0x0047f00d      .byte 0x02
            0x0047f00e      .byte 0x00
            0x0047f00f      .byte 0x00
            0x0047f010      .byte 0x0e
            0x0047f011      .byte 0x02
            0x0047f012      .byte 0x00
            0x0047f013      .byte 0x00
            0x0047f014      .byte 0x0e
            0x0047f015      .byte 0x00
            0x0047f016      .byte 0x00
            0x0047f017      .byte 0x00
            0x0047f018      .byte 0x0e
            0x0047f019      .byte 0x00
            0x0047f01a      .byte 0x00
            0x0047f01b      .byte 0x00
            0x0047f01c      .byte 0x09
            0x0047f01d     .string "draw     " ; len=9
            0x0047f026      .byte 0x00
            0x0047f027      .byte 0x10
            0x0047f028      .byte 0x00
            0x0047f029      .byte 0x00
            0x0047f02a      .byte 0x09
            0x0047f02b     .string "post     " ; len=9
            0x0047f034      .byte 0x08
            0x0047f035      .byte 0x00
            0x0047f036      .byte 0x00
            0x0047f037      .byte 0x00
            0x0047f038      .byte 0x0e
            0x0047f039      .byte 0x00
            0x0047f03a      .byte 0x00
            0x0047f03b      .byte 0x00
            0x0047f03c      .byte 0x0e
            0x0047f03d      .byte 0x00
            0x0047f03e      .byte 0x00
            0x0047f03f      .byte 0x00
            0x0047f040      .byte 0x06
            0x0047f041      .byte 0x00
            0x0047f042      .byte 0x00
            0x0047f043      .byte 0x00
            0x0047f044      .byte 0x06
            0x0047f045      .byte 0x00
            0x0047f046      .byte 0x00
            0x0047f047      .byte 0x00
            0x0047f048      .byte 0x09
            0x0047f049     .string "erase    " ; len=9
            0x0047f052      .byte 0x00
            0x0047f053      .byte 0x10
            0x0047f054      .byte 0x00
            0x0047f055      .byte 0x00
            0x0047f056      .byte 0x09
            0x0047f057     .string "unpost   " ; len=9
            0x0047f060      .byte 0x0c
            0x0047f061      .byte 0x00
            0x0047f062      .byte 0x00
            0x0047f063      .byte 0x00
            0x0047f064      .byte 0x0c
            0x0047f065      .byte 0x00
            0x0047f066      .byte 0x00
            0x0047f067      .byte 0x00
            0x0047f068      .byte 0x08
            0x0047f069      .byte 0x00
            0x0047f06a      .byte 0x00
            0x0047f06b      .byte 0x00
            0x0047f06c      .byte 0x00
            0x0047f06d      .byte 0x07
            0x0047f06e      .byte 0x02
            0x0047f06f      .byte 0x00
            0x0047f070      .byte 0x09
            0x0047f071     .string "swtch on " ; len=9
            0x0047f07a      .byte 0x01
            0x0047f07b      .byte 0x00
            0x0047f07c      .byte 0x00
            0x0047f07d      .byte 0x00
            0x0047f07e      .byte 0x09
            0x0047f07f     .string "swtch off" ; len=9
            0x0047f088      .byte 0x01
            0x0047f089      .byte 0x00
            0x0047f08a      .byte 0x00
            0x0047f08b      .byte 0x00
            0x0047f08c      .byte 0x09
            0x0047f08d     .string "crnt pad " ; len=9
            0x0047f096      .byte 0x00
            0x0047f097      .byte 0x03
            0x0047f098      .byte 0x00
            0x0047f099      .byte 0x00
            0x0047f09a      .byte 0x00
            0x0047f09b      .byte 0x04
            0x0047f09c      .byte 0x00
            0x0047f09d      .byte 0x00
            0x0047f09e      .byte 0x0d
            0x0047f09f     .string "!!!! pad box " ; len=13
            0x0047f0ac      .byte 0x0a
            0x0047f0ad     .string ", not pad " ; len=10
            0x0047f0b7      .byte 0x00
            0x0047f0b8      .byte 0x00
            0x0047f0b9      .byte 0x07
            0x0047f0ba      .byte 0x00
            0x0047f0bb      .byte 0x00
            0x0047f0bc      .byte 0x1f
            0x0047f0bd     .string "get_crnt_numeric_box returning " ; len=31
            0x0047f0dc      .byte 0x1c
            0x0047f0dd     .string "get_crnt_date_box returning " ; len=28
            0x0047f0f9      .byte 0x1d
            0x0047f0fa     .string "get_crnt_keybd_box returning " ; len=29
            0x0047f117      .byte 0x1d
            0x0047f118     .string "get_crnt_right_box returning " ; len=29
            0x0047f135      .byte 0x00
            0x0047f136      .byte 0x0c
            0x0047f137      .byte 0x00
            0x0047f138      .byte 0x00
            0x0047f139      .byte 0x00
            0x0047f13a      .byte 0x0c
            0x0047f13b      .byte 0x00
            0x0047f13c      .byte 0x00
            0x0047f13d      .byte 0x00
            0x0047f13e      .byte 0x0f
            0x0047f13f      .byte 0x00
            0x0047f140      .byte 0x00
            0x0047f141      .byte 0x00
            0x0047f142      .byte 0x0c
            0x0047f143      .byte 0x00
            0x0047f144      .byte 0x00
            0x0047f145      .byte 0x00
            0x0047f146      .byte 0x0c
            0x0047f147      .byte 0x00
            0x0047f148      .byte 0x00
            0x0047f149      .byte 0x00
            0x0047f14a      .byte 0x0d
            0x0047f14b     .string "num text now " ; len=13
            0x0047f158      .byte 0x01
            0x0047f159      .byte 0x00
            0x0047f15a      .byte 0x00
            0x0047f15b      .byte 0x00
            0x0047f15c      .byte 0x06
            0x0047f15d      .byte 0x20
            0x0047f15e      .byte 0x00
            0x0047f15f      .byte 0x00
            0x0047f160      .byte 0x1d
            0x0047f161     .string "??? Does this ever happen ???" ; len=29
            0x0047f17e      .byte 0x09
            0x0047f17f     .string "crnt num " ; len=9
            0x0047f188      .byte 0x09
            0x0047f189     .string "interlock" ; len=9
            0x0047f192      .byte 0x0c
            0x0047f193      .byte 0x00
            0x0047f194      .byte 0x00
            0x0047f195      .byte 0x00
            0x0047f196      .byte 0x0c
            0x0047f197      .byte 0x00
            0x0047f198      .byte 0x00
            0x0047f199      .byte 0x00
            0x0047f19a      .byte 0x08
            0x0047f19b      .byte 0x00
            0x0047f19c      .byte 0x00
            0x0047f19d      .byte 0x00
            0x0047f19e      .byte 0x08
            0x0047f19f      .byte 0x00
            0x0047f1a0      .byte 0x00
            0x0047f1a1      .byte 0x00
            0x0047f1a2      .byte 0x02
            0x0047f1a3      .byte 0x20
            0x0047f1a4      .byte 0x00
            0x0047f1a5      .byte 0x00
            0x0047f1a6      .byte 0x01
            0x0047f1a7      .byte 0x00
            0x0047f1a8      .byte 0x00
            0x0047f1a9      .byte 0x00
            0x0047f1aa      .byte 0x06
            0x0047f1ab      .byte 0x20
            0x0047f1ac      .byte 0x00
            0x0047f1ad      .byte 0x00
            0x0047f1ae      .byte 0x01
            0x0047f1af      .byte 0x00
            0x0047f1b0      .byte 0x00
            0x0047f1b1      .byte 0x00
            0x0047f1b2      .byte 0x06
            0x0047f1b3      .byte 0x20
            0x0047f1b4      .byte 0x00
            0x0047f1b5      .byte 0x00
            0x0047f1b6      .byte 0x01
            0x0047f1b7      .byte 0x00
            0x0047f1b8      .byte 0x00
            0x0047f1b9      .byte 0x00
            0x0047f1ba      .byte 0x17
            0x0047f1bb     .string "swtch off numeric etc. " ; len=23
            0x0047f1d2      .byte 0x16
            0x0047f1d3     .string "swtch on numeric etc. " ; len=22
            0x0047f1e9      .byte 0x00
            0x0047f1ea      .byte 0x01
            0x0047f1eb      .byte 0x00
            0x0047f1ec      .byte 0x00
            0x0047f1ed      .byte 0x00
            0x0047f1ee      .byte 0x01
            0x0047f1ef      .byte 0x00
            0x0047f1f0      .byte 0x00
            0x0047f1f1      .byte 0x00
            0x0047f1f2      .byte 0x16
            0x0047f1f3      .byte 0x20
            0x0047f1f4      .byte 0x00
            0x0047f1f5      .byte 0x00
            0x0047f1f6      .byte 0x16
            0x0047f1f7      .byte 0x20
            0x0047f1f8      .byte 0x00
            0x0047f1f9      .byte 0x00
            0x0047f1fa      .byte 0x09
            0x0047f1fb     .string "push     " ; len=9
            0x0047f204      .byte 0x09
            0x0047f205     .string "swtch    " ; len=9
            0x0047f20e      .byte 0x24
            0x0047f20f     .string "MENUCOM - swtch_box on undefined box" ; len=36
            0x0047f233      .byte 0x09
            0x0047f234     .string "enable   " ; len=9
            0x0047f23d      .byte 0x00
            0x0047f23e      .byte 0x04
            0x0047f23f      .byte 0x00
            0x0047f240      .byte 0x00
            0x0047f241      .byte 0x00
            0x0047f242      .byte 0x09
            0x0047f243     .string "disable  " ; len=9
            0x0047f24c      .byte 0x04
            0x0047f24d      .byte 0x00
            0x0047f24e      .byte 0x00
            0x0047f24f      .byte 0x00
            0x0047f250      .byte 0x80
            0x0047f251      .byte 0x40
            0x0047f252      .byte 0x00
            0x0047f253      .byte 0x00
            0x0047f254      .byte 0x00
            0x0047f255      .byte 0x40
            0x0047f256      .byte 0x00
            0x0047f257      .byte 0x00
            0x0047f258      .byte 0x09
            0x0047f259     .string "error    " ; len=9
            0x0047f262      .byte 0x0e
            0x0047f263      .byte 0x00
            0x0047f264      .byte 0x00
            0x0047f265      .byte 0x00
            0x0047f266      .byte 0x0e
            0x0047f267      .byte 0x00
            0x0047f268      .byte 0x00
            0x0047f269      .byte 0x00
            0x0047f26a     .string "/macro recording stopped due to operation error./macro replaying stopped due to operation error." ; len=96
            0x0047f2ca      .byte 0x0b
            0x0047f2cb     .string "set_boxtext" ; len=11
            0x0047f2d6      .byte 0x00
            0x0047f2d7      .byte 0x07
            0x0047f2d8      .byte 0x02
            0x0047f2d9      .byte 0x00
            0x0047f2da      .byte 0x00
            0x0047f2db      .byte 0x0e
            0x0047f2dc     .string "set_box_area. " ; len=14
            0x0047f2ea      .byte 0x09
            0x0047f2eb     .string "old area " ; len=9
            0x0047f2f4      .byte 0x0b
            0x0047f2f5     .string ", new area " ; len=11
            0x0047f300      .byte 0x0c
            0x0047f301      .byte 0x00
            0x0047f302      .byte 0x00
            0x0047f303      .byte 0x00
            0x0047f304      .byte 0x0c
            0x0047f305      .byte 0x00
            0x0047f306      .byte 0x00
            0x0047f307      .byte 0x00
            0x0047f308      .byte 0x0c
            0x0047f309      .byte 0x00
            0x0047f30a      .byte 0x00
            0x0047f30b      .byte 0x00
            0x0047f30c      .byte 0x0c
            0x0047f30d      .byte 0x00
            0x0047f30e      .byte 0x00
            0x0047f30f      .byte 0x00
            0x0047f310      .byte 0x00
            0x0047f311      .byte 0x01
            0x0047f312      .byte 0x24
            0x0047f313      .byte 0x01
            0x0047f314      .byte 0x24
            0x0047f315      .byte 0x05
            0x0047f316     .string "text " ; len=5
            0x0047f31b      .byte 0x12
            0x0047f31c     .string "get_macro_box_text" ; len=18
            0x0047f32e      .byte 0x00
            0x0047f32f      .byte 0x00
            0x0047f330      .byte 0x00
            0x0047f331      .byte 0x07
            0x0047f332      .byte 0x02
            0x0047f333      .byte 0x00
            0x0047f334      .byte 0x00
            0x0047f335      .byte 0x01
            0x0047f336      .byte 0x24
            0x0047f337      .byte 0x19
            0x0047f338     .string "Error. No $ after number." ; len=25
            0x0047f351      .byte 0x06
            0x0047f352     .string "Error " ; len=6
            0x0047f358      .byte 0x13
            0x0047f359     .string " converting number." ; len=19
            0x0047f36c      .byte 0x0a
            0x0047f36d     .string "match_str " ; len=10
            0x0047f377      .byte 0x0a
            0x0047f378     .string ", box_str " ; len=10
            0x0047f382      .byte 0x00
            0x0047f383      .byte 0x00
            0x0047f384      .byte 0x00
            0x0047f385      .byte 0x00
            0x0047f386      .byte 0x01
            0x0047f387      .byte 0x00
            0x0047f388      .byte 0x00
            0x0047f389      .byte 0x00
            0x0047f38a      .byte 0x00
            0x0047f38b      .byte 0x00
            0x0047f38c      .byte 0x00
            0x0047f38d      .byte 0x00
            0x0047f38e      .byte 0x00
            0x0047f38f      .byte 0x00
            0x0047f390      .byte 0x00
            0x0047f391      .byte 0x00
            0x0047f392      .byte 0x00
            0x0047f393      .byte 0x00
            0x0047f394      .byte 0x00
            0x0047f395      .byte 0x00
            0x0047f396      .byte 0x00
            0x0047f397      .byte 0x00
            0x0047f398      .byte 0x00
            0x0047f399      .byte 0x00
            0x0047f39a      .byte 0x00
            0x0047f39b      .byte 0x00
            0x0047f39c      .byte 0x00
            0x0047f39d      .byte 0x00
            0x0047f39e      .byte 0x00
            0x0047f39f      .byte 0x00
            0x0047f3a0      .byte 0x00
            0x0047f3a1      .byte 0x00
            0x0047f3a2      .byte 0x00
            0x0047f3a3      .byte 0x00
            0x0047f3a4      .byte 0x00
            0x0047f3a5      .byte 0x00
            0x0047f3a6      .byte 0x00
            0x0047f3a7      .byte 0x00
            0x0047f3a8      .byte 0x00
            0x0047f3a9      .byte 0x50
            0x0047f3aa      .byte 0x00
            0x0047f3ab      .byte 0x00
            0x0047f3ac      .byte 0x00
            0x0047f3ad      .byte 0x00
            0x0047f3ae      .byte 0x00
            0x0047f3af      .byte 0x00
            0x0047f3b0      .byte 0x00
            0x0047f3b1      .byte 0x00
            0x0047f3b2      .byte 0x00
            0x0047f3b3      .byte 0x00
            0x0047f3b4      .byte 0x00
            0x0047f3b5      .byte 0x00
            0x0047f3b6      .byte 0x00
            0x0047f3b7      .byte 0x00
            0x0047f3b8      .byte 0x00
            0x0047f3b9      .byte 0x00
            0x0047f3ba      .byte 0x00
            0x0047f3bb      .byte 0x00
            0x0047f3bc      .byte 0x00
            0x0047f3bd      .byte 0x00
            0x0047f3be      .byte 0x00
            0x0047f3bf      .byte 0x00
            0x0047f3c0      .byte 0x00
            0x0047f3c1      .byte 0x00
            0x0047f3c2      .byte 0x00
            0x0047f3c3      .byte 0x00
            0x0047f3c4      .byte 0x00
            0x0047f3c5      .byte 0x00
            0x0047f3c6      .byte 0x00
            0x0047f3c7      .byte 0x00
            0x0047f3c8      .byte 0x00
            0x0047f3c9      .byte 0x00
            0x0047f3ca      .byte 0x00
            0x0047f3cb      .byte 0x00
            0x0047f3cc      .byte 0x00
            0x0047f3cd      .byte 0x00
            0x0047f3ce      .byte 0xfe
            0x0047f3cf      .byte 0xff
            0x0047f3d0      .byte 0xff
            0x0047f3d1      .byte 0x07
            0x0047f3d2      .byte 0x00
            0x0047f3d3      .byte 0x00
            0x0047f3d4      .byte 0x00
            0x0047f3d5      .byte 0x00
            0x0047f3d6      .byte 0x00
            0x0047f3d7      .byte 0x00
            0x0047f3d8      .byte 0x00
            0x0047f3d9      .byte 0x00
            0x0047f3da      .byte 0x00
            0x0047f3db      .byte 0x00
            0x0047f3dc      .byte 0x00
            0x0047f3dd      .byte 0x00
            0x0047f3de      .byte 0x00
            0x0047f3df      .byte 0x00
            0x0047f3e0      .byte 0x00
            0x0047f3e1      .byte 0x00
            0x0047f3e2      .byte 0x00
            0x0047f3e3      .byte 0x00
            0x0047f3e4      .byte 0x00
            0x0047f3e5      .byte 0x00
            0x0047f3e6      .byte 0x00
            0x0047f3e7      .byte 0x00
            0x0047f3e8      .byte 0x00
            0x0047f3e9      .byte 0x00
            0x0047f3ea      .byte 0x00
            0x0047f3eb      .byte 0x00
            0x0047f3ec      .byte 0x00
            0x0047f3ed      .byte 0x00
            0x0047f3ee      .byte 0xfe
            0x0047f3ef      .byte 0xff
            0x0047f3f0      .byte 0xff
            0x0047f3f1      .byte 0x07
            0x0047f3f2      .byte 0x00
            0x0047f3f3      .byte 0x00
            0x0047f3f4      .byte 0x00
            0x0047f3f5      .byte 0x00
            0x0047f3f6      .byte 0x00
            0x0047f3f7      .byte 0x00
            0x0047f3f8      .byte 0x00
            0x0047f3f9      .byte 0x00
            0x0047f3fa      .byte 0x00
            0x0047f3fb      .byte 0x00
            0x0047f3fc      .byte 0x00
            0x0047f3fd      .byte 0x00
            0x0047f3fe      .byte 0x00
            0x0047f3ff      .byte 0x00
            0x0047f400      .byte 0x00
            0x0047f401      .byte 0x00
            0x0047f402      .byte 0x0f
            0x0047f403     .string "compare match [" ; len=15
            0x0047f412      .byte 0x02
            0x0047f413      .byte 0x5d
            0x0047f414      .byte 0x20
            0x0047f415      .byte 0x07
            0x0047f416     .string ", box [" ; len=7
            0x0047f41d      .byte 0x02
            0x0047f41e      .byte 0x5d
            0x0047f41f      .byte 0x20
            0x0047f420      .byte 0x14
            0x0047f421     .string "Finished at box pnt " ; len=20
            0x0047f435      .byte 0x0c
            0x0047f436     .string ", match pnt " ; len=12
            0x0047f442      .byte 0x08
            0x0047f443     .string ", match " ; len=8
            0x0047f44b      .byte 0x00
            0x0047f44c      .byte 0x00
            0x0047f44d      .byte 0x00
            0x0047f44e      .byte 0x00
            0x0047f44f      .byte 0x00
            0x0047f450      .byte 0x01
            0x0047f451      .byte 0x00
            0x0047f452      .byte 0x00
            0x0047f453      .byte 0x50
            0x0047f454      .byte 0x00
            0x0047f455      .byte 0x00
            0x0047f456      .byte 0x00
            0x0047f457      .byte 0x00
            0x0047f458      .byte 0x00
            0x0047f459      .byte 0x00
            0x0047f45a      .byte 0x00
            0x0047f45b      .byte 0x00
            0x0047f45c      .byte 0x00
            0x0047f45d      .byte 0x00
            0x0047f45e      .byte 0x00
            0x0047f45f      .byte 0x00
            0x0047f460      .byte 0x00
            0x0047f461      .byte 0x00
            0x0047f462      .byte 0x00
            0x0047f463      .byte 0x00
            0x0047f464      .byte 0x00
            0x0047f465      .byte 0x00
            0x0047f466      .byte 0x00
            0x0047f467      .byte 0x00
            0x0047f468      .byte 0x00
            0x0047f469      .byte 0x00
            0x0047f46a      .byte 0x00
            0x0047f46b      .byte 0x00
            0x0047f46c      .byte 0x00
            0x0047f46d      .byte 0x0d
            0x0047f46e     .string "match compare" ; len=13
            0x0047f47b      .byte 0x00
            0x0047f47c      .byte 0x0e
            0x0047f47d      .byte 0x00
            0x0047f47e      .byte 0x00
            0x0047f47f      .byte 0x00
            0x0047f480      .byte 0x0e
            0x0047f481      .byte 0x00
            0x0047f482      .byte 0x00
            0x0047f483      .byte 0x00
            0x0047f484      .byte 0x09
            0x0047f485     .string "boxtext <" ; len=9
            0x0047f48e      .byte 0x0e
            0x0047f48f     .string ">, match str <" ; len=14
            0x0047f49d      .byte 0x09
            0x0047f49e     .string ">, match " ; len=9
            0x0047f4a7      .byte 0x05
            0x0047f4a8     .string "Found" ; len=5
            0x0047f4ad      .byte 0x0e
            0x0047f4ae     .string "Ambiguous box " ; len=14
            0x0047f4bc      .byte 0x09
            0x0047f4bd     .string " and box " ; len=9
            0x0047f4c6      .byte 0x13
            0x0047f4c7     .string "Inter lock Nil box " ; len=19
            0x0047f4da      .byte 0x11
            0x0047f4db     .string ", while swapping " ; len=17
            0x0047f4ec      .byte 0x06
            0x0047f4ed     .string " with " ; len=6
            0x0047f4f3      .byte 0x00
            0x0047f4f4      .byte 0x0e
            0x0047f4f5      .byte 0x37
            0x0047f4f6      .byte 0x06
            0x0047f4f7      .byte 0x00
            0x0047f4f8      .byte 0x1b
            0x0047f4f9     .string "? illegal interlock on box " ; len=27
            0x0047f514      .byte 0x0a
            0x0047f515     .string "match_str " ; len=10
            0x0047f51f      .byte 0x08
            0x0047f520     .string "box_str " ; len=8
            0x0047f528      .byte 0x00
            0x0047f529      .byte 0x00
            0x0047f52a      .byte 0x00
            0x0047f52b      .byte 0x00
            0x0047f52c      .byte 0x00
            0x0047f52d      .byte 0x00
            0x0047f52e      .byte 0x00
            0x0047f52f      .byte 0x50
            0x0047f530      .byte 0x00
            0x0047f531      .byte 0x00
            0x0047f532      .byte 0x00
            0x0047f533      .byte 0x00
            0x0047f534      .byte 0x00
            0x0047f535      .byte 0x00
            0x0047f536      .byte 0x00
            0x0047f537      .byte 0x00
            0x0047f538      .byte 0x00
            0x0047f539      .byte 0x00
            0x0047f53a      .byte 0x00
            0x0047f53b      .byte 0x00
            0x0047f53c      .byte 0x00
            0x0047f53d      .byte 0x00
            0x0047f53e      .byte 0x00
            0x0047f53f      .byte 0x00
            0x0047f540      .byte 0x00
            0x0047f541      .byte 0x00
            0x0047f542      .byte 0x00
            0x0047f543      .byte 0x00
            0x0047f544      .byte 0x00
            0x0047f545      .byte 0x00
            0x0047f546      .byte 0x00
            0x0047f547      .byte 0x00
            0x0047f548      .byte 0x00
            0x0047f549      .byte 0x00
            0x0047f54a      .byte 0x00
            0x0047f54b      .byte 0x00
            0x0047f54c      .byte 0x00
            0x0047f54d      .byte 0x00
            0x0047f54e      .byte 0x00
            0x0047f54f      .byte 0x00
            0x0047f550      .byte 0x00
            0x0047f551      .byte 0x00
            0x0047f552      .byte 0x00
            0x0047f553      .byte 0x00
            0x0047f554      .byte 0xfe
            0x0047f555      .byte 0xff
            0x0047f556      .byte 0xff
            0x0047f557      .byte 0x07
            0x0047f558      .byte 0x00
            0x0047f559      .byte 0x00
            0x0047f55a      .byte 0x00
            0x0047f55b      .byte 0x00
            0x0047f55c      .byte 0x00
            0x0047f55d      .byte 0x00
            0x0047f55e      .byte 0x00
            0x0047f55f      .byte 0x00
            0x0047f560      .byte 0x00
            0x0047f561      .byte 0x00
            0x0047f562      .byte 0x00
            0x0047f563      .byte 0x00
            0x0047f564      .byte 0x00
            0x0047f565      .byte 0x00
            0x0047f566      .byte 0x00
            0x0047f567      .byte 0x00
            0x0047f568      .byte 0x00
            0x0047f569      .byte 0x00
            0x0047f56a      .byte 0x00
            0x0047f56b      .byte 0x00
            0x0047f56c      .byte 0x00
            0x0047f56d      .byte 0x00
            0x0047f56e      .byte 0x00
            0x0047f56f      .byte 0x00
            0x0047f570      .byte 0x00
            0x0047f571      .byte 0x00
            0x0047f572      .byte 0x00
            0x0047f573      .byte 0x00
            0x0047f574      .byte 0xfe
            0x0047f575      .byte 0xff
            0x0047f576      .byte 0xff
            0x0047f577      .byte 0x07
            0x0047f578      .byte 0x00
            0x0047f579      .byte 0x00
            0x0047f57a      .byte 0x00
            0x0047f57b      .byte 0x00
            0x0047f57c      .byte 0x00
            0x0047f57d      .byte 0x00
            0x0047f57e      .byte 0x00
            0x0047f57f      .byte 0x00
            0x0047f580      .byte 0x00
            0x0047f581      .byte 0x00
            0x0047f582      .byte 0x00
            0x0047f583      .byte 0x00
            0x0047f584      .byte 0x00
            0x0047f585      .byte 0x00
            0x0047f586      .byte 0x00
            0x0047f587      .byte 0x00
            0x0047f588      .byte 0x0f
            0x0047f589     .string "compare match [" ; len=15
            0x0047f598      .byte 0x02
            0x0047f599      .byte 0x5d
            0x0047f59a      .byte 0x20
            0x0047f59b      .byte 0x07
            0x0047f59c     .string ", box [" ; len=7
            0x0047f5a3      .byte 0x02
            0x0047f5a4      .byte 0x5d
            0x0047f5a5      .byte 0x20
            0x0047f5a6      .byte 0x00
            0x0047f5a7      .byte 0x00
            0x0047f5a8      .byte 0x00
            0x0047f5a9      .byte 0x00
            0x0047f5aa      .byte 0x01
            0x0047f5ab      .byte 0x00
            0x0047f5ac      .byte 0x00
            0x0047f5ad      .byte 0x50
            0x0047f5ae      .byte 0x00
            0x0047f5af      .byte 0x00
            0x0047f5b0      .byte 0x00
            0x0047f5b1      .byte 0x00
            0x0047f5b2      .byte 0x00
            0x0047f5b3      .byte 0x00
            0x0047f5b4      .byte 0x00
            0x0047f5b5      .byte 0x00
            0x0047f5b6      .byte 0x00
            0x0047f5b7      .byte 0x00
            0x0047f5b8      .byte 0x00
            0x0047f5b9      .byte 0x00
            0x0047f5ba      .byte 0x00
            0x0047f5bb      .byte 0x00
            0x0047f5bc      .byte 0x00
            0x0047f5bd      .byte 0x00
            0x0047f5be      .byte 0x00
            0x0047f5bf      .byte 0x00
            0x0047f5c0      .byte 0x00
            0x0047f5c1      .byte 0x00
            0x0047f5c2      .byte 0x00
            0x0047f5c3      .byte 0x00
            0x0047f5c4      .byte 0x00
            0x0047f5c5      .byte 0x00
            0x0047f5c6      .byte 0x0d
            0x0047f5c7     .string "match compare" ; len=13
            0x0047f5d4      .byte 0x06
            0x0047f5d5     .string "match " ; len=6
            0x0047f5db      .byte 0x00
            0x0047f5dc      .byte 0x0e
            0x0047f5dd      .byte 0x00
            0x0047f5de      .byte 0x00
            0x0047f5df      .byte 0x00
            0x0047f5e0      .byte 0x0e
            0x0047f5e1      .byte 0x00
            0x0047f5e2      .byte 0x00
            0x0047f5e3      .byte 0x00
            0x0047f5e4     .string "+Can only twin with toggle boxes. Elder box -Can only twin with toggle boxes. Younger box " ; len=90
            0x0047f63e      .byte 0x0e
            0x0047f63f     .string "? cannot twin " ; len=14
            0x0047f64d      .byte 0x06
            0x0047f64e     .string " with " ; len=6
            0x0047f654      .byte 0x19
            0x0047f655     .string " as already twinned with " ; len=25
            0x0047f66e      .byte 0x11
            0x0047f66f     .string "? replacing twin " ; len=17
            0x0047f680      .byte 0x04
            0x0047f681      .byte 0x20
            0x0047f682      .byte 0x6f
            0x0047f683      .byte 0x66
            0x0047f684      .byte 0x20
            0x0047f685      .byte 0x06
            0x0047f686     .string " with " ; len=6
            0x0047f68c      .byte 0x0d
            0x0047f68d     .string "illegal twin " ; len=13
            0x0047f69a      .byte 0x06
            0x0047f69b     .string " with " ; len=6
            0x0047f6a1      .byte 0x00
            0x0047f6a2      .byte 0x16
            0x0047f6a3      .byte 0x20
            0x0047f6a4      .byte 0x08
            0x0047f6a5      .byte 0x00
            0x0047f6a6     .string "DCan only make siblings of toggle/options/interlock boxes. Elder box " ; len=69
            0x0047f6eb      .byte 0x00
            0x0047f6ec      .byte 0x16
            0x0047f6ed      .byte 0x20
            0x0047f6ee      .byte 0x08
            0x0047f6ef      .byte 0x00
            0x0047f6f0     .string "FCan only make siblings of toggle/options/interlock boxes. Younger box " ; len=71
            0x0047f737      .byte 0x19
            0x0047f738     .string "? cannot make sibling of " ; len=25
            0x0047f751      .byte 0x06
            0x0047f752     .string " with " ; len=6
            0x0047f758      .byte 0x19
            0x0047f759     .string " as already sibling with " ; len=25
            0x0047f772      .byte 0x0e
            0x0047f773      .byte 0x00
            0x0047f774      .byte 0x00
            0x0047f775      .byte 0x00
            0x0047f776      .byte 0x0e
            0x0047f777      .byte 0x00
            0x0047f778      .byte 0x00
            0x0047f779      .byte 0x00
            0x0047f77a     .string ",MENUCOM.set_menu_flag - box box_num illegal &MENUCOM.set_menu_flag - box undefined " ; len=84
            0x0047f7ce      .byte 0x0e
            0x0047f7cf      .byte 0x00
            0x0047f7d0      .byte 0x00
            0x0047f7d1      .byte 0x00
            0x0047f7d2      .byte 0x0e
            0x0047f7d3      .byte 0x00
            0x0047f7d4      .byte 0x00
            0x0047f7d5      .byte 0x00
            0x0047f7d6      .byte 0x12
            0x0047f7d7     .string "? Can't add slave " ; len=18
            0x0047f7e9      .byte 0x18
            0x0047f7ea     .string " to uninitialised master" ; len=24
            0x0047f802      .byte 0x2a
            0x0047f803     .string "? Can't add uninitialised slave to master " ; len=42
            0x0047f82d      .byte 0x16
            0x0047f82e     .string "? Can't add Nil slave " ; len=22
            0x0047f844      .byte 0x0f
            0x0047f845     .string " to master box " ; len=15
            0x0047f854      .byte 0x12
            0x0047f855     .string "? Can't add slave " ; len=18
            0x0047f867      .byte 0x13
            0x0047f868     .string " to Nil master box " ; len=19
            0x0047f87b      .byte 0x13
            0x0047f87c     .string "? Can't add member " ; len=19
            0x0047f88f      .byte 0x1f
            0x0047f890     .string " to uninitialised group master " ; len=31
            0x0047f8af      .byte 0x21
            0x0047f8b0     .string "? Can't add uninitialised member " ; len=33
            0x0047f8d1      .byte 0x11
            0x0047f8d2     .string " to group master " ; len=17
            0x0047f8e3      .byte 0x17
            0x0047f8e4     .string "? Can't add Nil member " ; len=23
            0x0047f8fb      .byte 0x15
            0x0047f8fc     .string " to group master box " ; len=21
            0x0047f911      .byte 0x13
            0x0047f912     .string "? Can't add member " ; len=19
            0x0047f925      .byte 0x19
            0x0047f926     .string " to Nil group master box " ; len=25
            0x0047f93f      .byte 0x26
            0x0047f940     .string "MENUCOM.def_box - box box_num illegal " ; len=38
            0x0047f966      .byte 0x26
            0x0047f967     .string "MENUCOM.def_box - box already defined " ; len=38
            0x0047f98d      .byte 0x00
            0x0047f98e      .byte 0x04
            0x0047f98f      .byte 0x00
            0x0047f990      .byte 0x00
            0x0047f991      .byte 0x00
            0x0047f992      .byte 0x01
            0x0047f993      .byte 0x00
            0x0047f994      .byte 0x00
            0x0047f995      .byte 0x00
            0x0047f996      .byte 0x80
            0x0047f997      .byte 0x00
            0x0047f998      .byte 0x00
            0x0047f999      .byte 0x00
            0x0047f99a      .byte 0x02
            0x0047f99b      .byte 0x00
            0x0047f99c      .byte 0x00
            0x0047f99d      .byte 0x00
            0x0047f99e      .byte 0x20
            0x0047f99f      .byte 0x00
            0x0047f9a0      .byte 0x00
            0x0047f9a1      .byte 0x00
            0x0047f9a2      .byte 0x10
            0x0047f9a3      .byte 0x00
            0x0047f9a4      .byte 0x00
            0x0047f9a5      .byte 0x00
            0x0047f9a6      .byte 0x00
            0x0047f9a7      .byte 0x7c
            0x0047f9a8      .byte 0x00
            0x0047f9a9      .byte 0x00
            0x0047f9aa      .byte 0x04
            0x0047f9ab      .byte 0x42
            0x0047f9ac      .byte 0x6f
            0x0047f9ad      .byte 0x78
            0x0047f9ae      .byte 0x20
            0x0047f9af      .byte 0x19
            0x0047f9b0     .string " requested text too long " ; len=25
            0x0047f9c9      .byte 0x27
            0x0047f9ca     .string "MENUCOM.new_box - all boxes allocated, " ; len=39
            0x0047f9f1      .byte 0x44
            0x0047f9f2     .string "ON|OFf|All|None|List|Match|Interlock|Parent|Family|Subtable|Viewable" ; len=68
            0x0047fa36      .byte 0x00
            0x0047fa37      .byte 0x05
            0x0047fa38     .string "found" ; len=5
            0x0047fa3d      .byte 0x0a
            0x0047fa3e     .string ", on-view " ; len=10
            0x0047fa48      .byte 0x10
            0x0047fa49     .string "No matches found" ; len=16
            0x0047fa59      .byte 0x13
            0x0047fa5a     .string "box_text_find found" ; len=19
            0x0047fa6d      .byte 0x00
            0x0047fa6e      .byte 0x00
            0x0047fa6f      .byte 0x05
            0x0047fa70     .string "child" ; len=5
            0x0047fa75      .byte 0x06
            0x0047fa76     .string "parent" ; len=6
            0x0047fa7c      .byte 0x05
            0x0047fa7d     .string "child" ; len=5
            0x0047fa82      .byte 0x06
            0x0047fa83     .string "parent" ; len=6
            0x0047fa89      .byte 0x06
            0x0047fa8a     .string "parent" ; len=6
            0x0047fa90      .byte 0x05
            0x0047fa91     .string "child" ; len=5
            0x0047fa96      .byte 0x10
            0x0047fa97     .string "Normal|Alternate" ; len=16
            0x0047faa7      .byte 0x19
            0x0047faa8     .string "Viewable Normal|Alternate" ; len=25
            0x0047fac1      .byte 0x07
            0x0047fac2     .string "visible" ; len=7
            0x0047fac9      .byte 0x0f
            0x0047faca     .string " visible boxes." ; len=15
            0x0047fad9      .byte 0x44
            0x0047fada     .string "ON|OFf|All|None|List|Match|Interlock|Parent|Family|Subtable|Viewable" ; len=68
            0x0047fb1e      .byte 0x11
            0x0047fb1f     .string "<numbers|boxtext>" ; len=17
            0x0047fb30      .byte 0x00
            0x0047fb31      .byte 0x00
            0x0047fb32      .byte 0x07
            0x0047fb33     .string "no text" ; len=7
            0x0047fb3a      .byte 0x06
            0x0047fb3b     .string "parent" ; len=6
            0x0047fb41      .byte 0x00
            0x0047fb42      .byte 0x08
            0x0047fb43     .string "no text " ; len=8
            0x0047fb4b      .byte 0x08
            0x0047fb4c     .string "box text" ; len=8
            0x0047fb54      .byte 0x08
            0x0047fb55     .string "same as " ; len=8
            0x0047fb5d      .byte 0x31
            0x0047fb5e     .string "Subtable|Fullsubtable|Allsubtable|ALLFullsubtable" ; len=49
            0x0047fb8f      .byte 0x3a
            0x0047fb90     .string "Subtable|Fullsubtable|Allsubtable|ALLFullsubtable <number>" ; len=58
            0x0047fbca      .byte 0x14
            0x0047fbcb     .string " subtables checked, " ; len=20
            0x0047fbdf      .byte 0x08
            0x0047fbe0     .string " faults." ; len=8
            0x0047fbe8      .byte 0x10
            0x0047fbe9     .string " boxes checked, " ; len=16
            0x0047fbf9      .byte 0x08
            0x0047fbfa     .string " faults." ; len=8
            0x0047fc02      .byte 0x10
            0x0047fc03     .string " boxes checked, " ; len=16
            0x0047fc13      .byte 0x08
            0x0047fc14     .string " faults." ; len=8
            0x0047fc1c      .byte 0x0b
            0x0047fc1d     .string "SHort|LOng|" ; len=11
            0x0047fc28      .byte 0x17
            0x0047fc29     .string "Expect NAme SHort|LOng." ; len=23
            0x0047fc40      .byte 0x0e
            0x0047fc41     .string "Long names is " ; len=14
            0x0047fc4f      .byte 0x09
            0x0047fc50     .string "changing " ; len=9
            0x0047fc59      .byte 0x07
            0x0047fc5a     .string "to text" ; len=7
            0x0047fc61      .byte 0x06
            0x0047fc62     .string "found " ; len=6
            0x0047fc68      .byte 0x06
            0x0047fc69     .string "Found " ; len=6
            0x0047fc6f      .byte 0x0a
            0x0047fc70     .string ", on_view " ; len=10
            0x0047fc7a      .byte 0x10
            0x0047fc7b     .string "No matches found" ; len=16
            0x0047fc8b      .byte 0x09
            0x0047fc8c     .string "Ambiguous" ; len=9
            0x0047fc95      .byte 0x05
            0x0047fc96     .string "Push " ; len=5
            0x0047fc9b      .byte 0x05
            0x0047fc9c     .string "Push " ; len=5
            0x0047fca1      .byte 0x00
            0x0047fca2      .byte 0x00
            0x0047fca3      .byte 0x00
            0x0047fca4      .byte 0x00
            0x0047fca5      .byte 0x00
            0x0047fca6      .byte 0x00
            0x0047fca7      .byte 0x00
            0x0047fca8      .byte 0x00
            0x0047fca9      .byte 0x00
            0x0047fcaa      .byte 0xfe
            0x0047fcab      .byte 0xff
            0x0047fcac      .byte 0xff
            0x0047fcad      .byte 0x07
            0x0047fcae      .byte 0xfe
            0x0047fcaf      .byte 0xff
            0x0047fcb0      .byte 0xff
            0x0047fcb1      .byte 0x07
            0x0047fcb2      .byte 0x00
            0x0047fcb3      .byte 0x00
            0x0047fcb4      .byte 0x00
            0x0047fcb5      .byte 0x00
            0x0047fcb6      .byte 0x00
            0x0047fcb7      .byte 0x00
            0x0047fcb8      .byte 0x00
            0x0047fcb9      .byte 0x00
            0x0047fcba      .byte 0x00
            0x0047fcbb      .byte 0x00
            0x0047fcbc      .byte 0x00
            0x0047fcbd      .byte 0x00
            0x0047fcbe      .byte 0x00
            0x0047fcbf      .byte 0x00
            0x0047fcc0      .byte 0x00
            0x0047fcc1      .byte 0x00
            0x0047fcc2      .byte 0x10
            0x0047fcc3     .string "                " ; len=16
            0x0047fcd3      .byte 0x00
            0x0047fcd4      .byte 0x00
            0x0047fcd5      .byte 0x00
            0x0047fcd6      .byte 0x00
            0x0047fcd7      .byte 0x00
            0x0047fcd8      .byte 0x00
            0x0047fcd9      .byte 0x00
            0x0047fcda      .byte 0x00
            0x0047fcdb      .byte 0x50
            0x0047fcdc      .byte 0x00
            0x0047fcdd      .byte 0x00
            0x0047fcde      .byte 0x00
            0x0047fcdf      .byte 0x00
            0x0047fce0      .byte 0x00
            0x0047fce1      .byte 0x00
            0x0047fce2      .byte 0x00
            0x0047fce3      .byte 0x00
            0x0047fce4      .byte 0x00
            0x0047fce5      .byte 0x00
            0x0047fce6      .byte 0x00
            0x0047fce7      .byte 0x00
            0x0047fce8      .byte 0x00
            0x0047fce9      .byte 0x00
            0x0047fcea      .byte 0x00
            0x0047fceb      .byte 0x00
            0x0047fcec      .byte 0x00
            0x0047fced      .byte 0x00
            0x0047fcee      .byte 0x00
            0x0047fcef      .byte 0x00
            0x0047fcf0      .byte 0x00
            0x0047fcf1      .byte 0x00
            0x0047fcf2      .byte 0x00
            0x0047fcf3      .byte 0x00
            0x0047fcf4      .byte 0x01
            0x0047fcf5      .byte 0x22
            0x0047fcf6      .byte 0x10
            0x0047fcf7     .string "                " ; len=16
            0x0047fd07      .byte 0x01
            0x0047fd08      .byte 0x22
            0x0047fd09      .byte 0x00
            0x0047fd0a      .byte 0x00
            0x0047fd0b      .byte 0x00
            0x0047fd0c      .byte 0x07
            0x0047fd0d     .string " Path: " ; len=7
            0x0047fd14      .byte 0x07
            0x0047fd15     .string " Path: " ; len=7
            0x0047fd1c      .byte 0x00
            0x0047fd1d      .byte 0x00
            0x0047fd1e      .byte 0x00
            0x0047fd1f      .byte 0x00
            0x0047fd20      .byte 0x00
            0x0047fd21      .byte 0x00
            0x0047fd22      .byte 0x00
            0x0047fd23      .byte 0x00
            0x0047fd24      .byte 0xff
            0x0047fd25      .byte 0x03
            0x0047fd26      .byte 0x00
            0x0047fd27      .byte 0x00
            0x0047fd28      .byte 0x00
            0x0047fd29      .byte 0x00
            0x0047fd2a      .byte 0x00
            0x0047fd2b      .byte 0x00
            0x0047fd2c      .byte 0x00
            0x0047fd2d      .byte 0x00
            0x0047fd2e      .byte 0x00
            0x0047fd2f      .byte 0x00
            0x0047fd30      .byte 0x00
            0x0047fd31      .byte 0x00
            0x0047fd32      .byte 0x00
            0x0047fd33      .byte 0x00
            0x0047fd34      .byte 0x00
            0x0047fd35      .byte 0x00
            0x0047fd36      .byte 0x00
            0x0047fd37      .byte 0x00
            0x0047fd38      .byte 0x00
            0x0047fd39      .byte 0x00
            0x0047fd3a      .byte 0x00
            0x0047fd3b      .byte 0x00
            0x0047fd3c      .byte 0x00
            0x0047fd3d      .byte 0x00
            0x0047fd3e      .byte 0x00
            0x0047fd3f      .byte 0x00
            0x0047fd40      .byte 0x00
            0x0047fd41      .byte 0x00
            0x0047fd42      .byte 0x00
            0x0047fd43      .byte 0x00
            0x0047fd44      .byte 0x00
            0x0047fd45      .byte 0x00
            0x0047fd46      .byte 0x00
            0x0047fd47      .byte 0x50
            0x0047fd48      .byte 0x00
            0x0047fd49      .byte 0x00
            0x0047fd4a      .byte 0x00
            0x0047fd4b      .byte 0x00
            0x0047fd4c      .byte 0x00
            0x0047fd4d      .byte 0x00
            0x0047fd4e      .byte 0x00
            0x0047fd4f      .byte 0x00
            0x0047fd50      .byte 0x00
            0x0047fd51      .byte 0x00
            0x0047fd52      .byte 0x00
            0x0047fd53      .byte 0x00
            0x0047fd54      .byte 0x00
            0x0047fd55      .byte 0x00
            0x0047fd56      .byte 0x00
            0x0047fd57      .byte 0x00
            0x0047fd58      .byte 0x00
            0x0047fd59      .byte 0x00
            0x0047fd5a      .byte 0x00
            0x0047fd5b      .byte 0x00
            0x0047fd5c      .byte 0x00
            0x0047fd5d      .byte 0x00
            0x0047fd5e      .byte 0x00
            0x0047fd5f      .byte 0x00
            0x0047fd60      .byte 0x0a
            0x0047fd61     .string "DICTIONARY" ; len=10
            0x0047fd6b      .byte 0x00
            0x0047fd6c      .byte 0x17
            0x0047fd6d     .string "Dictionary not loaded: " ; len=23
            0x0047fd84      .byte 0x14
            0x0047fd85     .string "Box number missing <" ; len=20
            0x0047fd99      .byte 0x15
            0x0047fd9a     .string "Already defined for <" ; len=21
            0x0047fdaf      .byte 0x16
            0x0047fdb0     .string "Old text match error <" ; len=22
            0x0047fdc6      .byte 0x04
            0x0047fdc7      .byte 0x6d
            0x0047fdc8      .byte 0x45
            0x0047fdc9      .byte 0x6e
            0x0047fdca      .byte 0x75
            0x0047fdcb      .byte 0x04
            0x0047fdcc      .byte 0x6d
            0x0047fdcd      .byte 0x42
            0x0047fdce      .byte 0x4f
            0x0047fdcf      .byte 0x78
            0x0047fdd0      .byte 0x07
            0x0047fdd1     .string "BOXlist" ; len=7
            0x0047fdd8      .byte 0x03
            0x0047fdd9      .byte 0x48
            0x0047fdda      .byte 0x49
            0x0047fddb      .byte 0x74
            0x0047fddc      .byte 0x04
            0x0047fddd      .byte 0x4e
            0x0047fdde      .byte 0x48
            0x0047fddf      .byte 0x69
            0x0047fde0      .byte 0x74
            0x0047fde1      .byte 0x05
            0x0047fde2     .string "cHeck" ; len=5
            0x0047fde7      .byte 0x04
            0x0047fde8      .byte 0x4e
            0x0047fde9      .byte 0x41
            0x0047fdea      .byte 0x6d
            0x0047fdeb      .byte 0x65
            0x0047fdec      .byte 0x07
            0x0047fded     .string "MACNAme" ; len=7
            0x0047fdf4      .byte 0x06
            0x0047fdf5     .string "*menus" ; len=6
            0x0047fdfb      .byte 0x14
            0x0047fdfc      .byte 0x6d
            0x0047fdfd      .byte 0x65
            0x0047fdfe      .byte 0x6e
            0x0047fdff      .byte 0x75
            0x0047fe00      .byte 0x5f
            0x0047fe01      .byte 0x64
            0x0047fe02      .byte 0x65
            0x0047fe03      .byte 0x66
            0x0047fe04      .byte 0x5f
            0x0047fe05      .byte 0x62
            0x0047fe06      .byte 0x6f
            0x0047fe07      .byte 0x78
            0x0047fe08      .byte 0x65
            0x0047fe09      .byte 0x73
            0x0047fe0a      .byte 0x20
            0x0047fe0b      .byte 0x74
            0x0047fe0c      .byte 0x6f
            0x0047fe0d      .byte 0x6f
            0x0047fe0e      .byte 0x6b
            0x0047fe0f      .byte 0x20
            ; CALL XREF from MENUCOM.box_action @ 0x481312
            ; CALL XREF from MENUTYPECOM.do_arrow @ 0x769f14
            ; CALL XREF from MENUTYPECOM.control_hit @ 0x76a156
            ; CALL XREF from PANEL_TRANSIT.hit_box @ 0x79a008
 444: MENUCOM.param_str ();
           0x0047fe10      4e56fdbc       link.w a6, 0xfdbc
           0x0047fe14      bfd5           cmpa.l (a5), a7
       < 0x0047fe16      6206           bhi.b 0x47fe1e
          0x0047fe18      44fc0002       move.w 0x2, ccr
          0x0047fe1c      4e76           trapv
       > 0x0047fe1e      defc0042       adda.w 0x42, a7
           0x0047fe22      48e7fdf8       movem.l d0-d5/d7/a0-a4, -(a7)
           0x0047fe26      45eefdfe       lea.l -0x202(a6), a2
           0x0047fe2a      47eefe02       lea.l -0x1fe(a6), a3
           0x0047fe2e      49eefe06       lea.l -0x1fa(a6), a4
           0x0047fe32      363c00ff       move.w 0xff, d3
           0x0047fe36      780d           moveq 0xd, d4
           0x0047fe38      7a0e           moveq 0xe, d5
           0x0047fe3a      302e0008       move.w 0x8(a6), d0
           0x0047fe3e      02401000       andi.w 0x1000, d0
           0x0047fe42      0c401000       cmpi.w 0x1000, d0
       < 0x0047fe46      6600016e       bne.w 0x47ffb6
          0x0047fe4a      3e2e0008       move.w 0x8(a6), d7
          0x0047fe4e      024707ff       andi.w 0x7ff, d7
          0x0047fe52      48c7           ext.l d7
          0x0047fe54      2f07           move.l d7, -(a7)
          0x0047fe56      4878ffff       pea.l 0xffff
          0x0047fe5a      486efefe       pea.l -0x102(a6)
          0x0047fe5e      3f03           move.w d3, -(a7)
          0x0047fe60      4eb900406e56   jsr p_strI1
          0x0047fe66      dec5           adda.w d5, a7
          0x0047fe68      700c           moveq 0xc, d0
          0x0047fe6a      41eefdff       lea.l -0x201(a6), a0
          0x0047fe6e      43fae9d3       lea.l 0x47e843(pc), a1
      > 0x0047fe72      10d9           move.b (a1)+, (a0)+
      < 0x0047fe74      51c8fffc       dbra d0, 0x47fe72
          0x0047fe78      4240           clr.w d0
          0x0047fe7a      102efefe       move.b -0x102(a6), d0
          0x0047fe7e      d004           add.b d4, d0
      < 0x0047fe80      6406           bcc.b 0x47fe88
         0x0047fe82      4eb900406c8a   jsr p_strovr
      > 0x0047fe88      4240           clr.w d0
          0x0047fe8a      102efefe       move.b -0x102(a6), d0
          0x0047fe8e      3203           move.w d3, d1
          0x0047fe90      9244           sub.w d4, d1
          0x0047fe92      b041           cmp.w d1, d0
      < 0x0047fe94      6302           bls.b 0x47fe98
         0x0047fe96      3001           move.w d1, d0
      > 0x0047fe98      1484           move.b d4, (a2)
          0x0047fe9a      d112           add.b d0, (a2)
          0x0047fe9c      5300           subq.b 0x1, d0
      < 0x0047fe9e      650a           bcs.b 0x47feaa
         0x0047fea0      43eefeff       lea.l -0x101(a6), a1
     > 0x0047fea4      10d9           move.b (a1)+, (a0)+
     < 0x0047fea6      51c8fffc       dbra d0, 0x47fea4
      > 0x0047feaa      0c470020       cmpi.w 0x20, d7
      < 0x0047feae      6d000090       blt.w 0x47ff40
         0x0047feb2      0c47007e       cmpi.w 0x7e, d7
     < 0x0047feb6      6e000088       bgt.w 0x47ff40
        0x0047feba      4240           clr.w d0
        0x0047febc      1012           move.b (a2), d0
        0x0047febe      41eefdff       lea.l -0x201(a6), a0
        0x0047fec2      d0c0           adda.w d0, a0
        0x0047fec4      7201           moveq 0x1, d1
        0x0047fec6      3403           move.w d3, d2
        0x0047fec8      9440           sub.w d0, d2
        0x0047feca      b242           cmp.w d2, d1
    < 0x0047fecc      6302           bls.b 0x47fed0
       0x0047fece      3202           move.w d2, d1
    > 0x0047fed0      d312           add.b d1, (a2)
        0x0047fed2      43fae97d       lea.l 0x47e851(pc), a1
    > 0x0047fed6      10d9           move.b (a1)+, (a0)+
    < 0x0047fed8      51c9fffc       dbra d1, 0x47fed6
        0x0047fedc      554f           subq.w 0x2, a7
        0x0047fede      1ebc0001       move.b 0x1, (a7)
        0x0047fee2      1f470001       move.b d7, 0x1(a7)
        0x0047fee6      4240           clr.w d0
        0x0047fee8      1012           move.b (a2), d0
        0x0047feea      41eefdff       lea.l -0x201(a6), a0
        0x0047feee      d0c0           adda.w d0, a0
        0x0047fef0      4241           clr.w d1
        0x0047fef2      1217           move.b (a7), d1
        0x0047fef4      d200           add.b d0, d1
    < 0x0047fef6      6406           bcc.b 0x47fefe
       0x0047fef8      4eb900406c8a   jsr p_strovr
    > 0x0047fefe      4241           clr.w d1
        0x0047ff00      1217           move.b (a7), d1
        0x0047ff02      3403           move.w d3, d2
        0x0047ff04      9440           sub.w d0, d2
        0x0047ff06      b242           cmp.w d2, d1
    < 0x0047ff08      6302           bls.b 0x47ff0c
       0x0047ff0a      3202           move.w d2, d1
    > 0x0047ff0c      d312           add.b d1, (a2)
        0x0047ff0e      5301           subq.b 0x1, d1
    < 0x0047ff10      650a           bcs.b 0x47ff1c
       0x0047ff12      43ef0001       lea.l 0x1(a7), a1
   > 0x0047ff16      10d9           move.b (a1)+, (a0)+
   < 0x0047ff18      51c9fffc       dbra d1, 0x47ff16
    > 0x0047ff1c      544f           addq.w 0x2, a7
        0x0047ff1e      4240           clr.w d0
        0x0047ff20      1012           move.b (a2), d0
        0x0047ff22      41eefdff       lea.l -0x201(a6), a0
        0x0047ff26      d0c0           adda.w d0, a0
        0x0047ff28      7201           moveq 0x1, d1
        0x0047ff2a      3403           move.w d3, d2
        0x0047ff2c      9440           sub.w d0, d2
        0x0047ff2e      b242           cmp.w d2, d1
    < 0x0047ff30      6302           bls.b 0x47ff34
       0x0047ff32      3202           move.w d2, d1
    > 0x0047ff34      d312           add.b d1, (a2)
        0x0047ff36      43fae91b       lea.l 0x47e853(pc), a1
    > 0x0047ff3a      10d9           move.b (a1)+, (a0)+
    < 0x0047ff3c      51c9fffc       dbra d1, 0x47ff3a
     > 0x0047ff40      302e0008       move.w 0x8(a6), d0
          0x0047ff44      02400800       andi.w 0x800, d0
      < 0x0047ff48      672e           beq.b 0x47ff78
         0x0047ff4a      4240           clr.w d0
         0x0047ff4c      1012           move.b (a2), d0
         0x0047ff4e      41eefdff       lea.l -0x201(a6), a0
         0x0047ff52      d0c0           adda.w d0, a0
         0x0047ff54      720a           moveq 0xa, d1
         0x0047ff56      d200           add.b d0, d1
     < 0x0047ff58      6406           bcc.b 0x47ff60
        0x0047ff5a      4eb900406c8a   jsr p_strovr
     > 0x0047ff60      720a           moveq 0xa, d1
         0x0047ff62      3403           move.w d3, d2
         0x0047ff64      9440           sub.w d0, d2
         0x0047ff66      b242           cmp.w d2, d1
     < 0x0047ff68      6302           bls.b 0x47ff6c
        0x0047ff6a      3202           move.w d2, d1
     > 0x0047ff6c      d312           add.b d1, (a2)
         0x0047ff6e      43fae8e5       lea.l 0x47e855(pc), a1
     > 0x0047ff72      10d9           move.b (a1)+, (a0)+
     < 0x0047ff74      51c9fffc       dbra d1, 0x47ff72
      > 0x0047ff78      302e0008       move.w 0x8(a6), d0
          0x0047ff7c      02402000       andi.w 0x2000, d0
      < 0x0047ff80      670005ba       beq.w loc.0048053c
         0x0047ff84      4240           clr.w d0
         0x0047ff86      1012           move.b (a2), d0
         0x0047ff88      41eefdff       lea.l -0x201(a6), a0
         0x0047ff8c      d0c0           adda.w d0, a0
         0x0047ff8e      720a           moveq 0xa, d1
         0x0047ff90      d200           add.b d0, d1
     < 0x0047ff92      6406           bcc.b 0x47ff9a
        0x0047ff94      4eb900406c8a   jsr p_strovr
     > 0x0047ff9a      720a           moveq 0xa, d1
         0x0047ff9c      3403           move.w d3, d2
         0x0047ff9e      9440           sub.w d0, d2
         0x0047ffa0      b242           cmp.w d2, d1
     < 0x0047ffa2      6302           bls.b 0x47ffa6
        0x0047ffa4      3202           move.w d2, d1
     > 0x0047ffa6      d312           add.b d1, (a2)
         0x0047ffa8      43fae8b6       lea.l 0x47e860(pc), a1
     > 0x0047ffac      10d9           move.b (a1)+, (a0)+
     < 0x0047ffae      51c9fffc       dbra d1, 0x47ffac
     < 0x0047ffb2      60000588       bra.w loc.0048053c
     > 0x0047ffb6      302e0008       move.w 0x8(a6), d0
         0x0047ffba      0c40003b       cmpi.w 0x3b, d0
     < 0x0047ffbe      62000520       bhi.w 0x4804e0
        0x0047ffc2      d040           add.w d0, d0
        0x0047ffc4      303b0006       move.w 0x47ffcc(pc, d0.w), d0
        0x0047ffc8      4efb0002       jmp 0x47ffcc(pc, d0.w)
         0x0047ffcc      007800bc00cc   ori.w 0xbc, 0xcc.w
         0x0047ffd2      00e20166       
         0x0047ffd3      e201           asr.b 0x1, d1
     < 0x0047ffd5      6601           bne.b 0x47ffd8
        0x0047ffd7      7801           moveq 0x1, d4
         0x0047ffd9      ce02           and.b d2, d7
         0x0047ffdb      02023802       andi.b 0x2, d2
         0x0047ffdf      4a02           tst.b d2
         0x0047ffe1      5a02           addq.b 0x5, d2
         0x0047ffe3      ba02           cmp.b d2, d5
         0x0047ffe5      cc02           and.b d2, d6
         0x0047ffe7      de03           add.b d3, d7
         0x0047ffe9      2403           move.l d3, d2
         0x0047ffeb      3603           move.w d3, d3
         0x0047ffed      4803           nbcd.b d3
         0x0047ffef      5a03           addq.b 0x5, d3
     < 0x0047fff1      6c02           bge.b 0x47fff5
        0x0047fff3      2802           move.l d2, d4
    > 0x0047fff5      6e01           bgt.b 0x47fff8
        0x0047fff7      f003b803       fmove.l fpcr, d3
         0x0047fffb      ce03           and.b d3, d7
         0x0047fffd      e003           asr.b 0x8, d3
         0x0047ffff      fc040e04       fsqrt fp3, fp4
         0x00480003      2403           move.l d3, d2
         0x00480005      9002           sub.b d2, d0
         0x00480007      9200           sub.b d0, d1
         0x00480009      8e04           or.b d4, d7
         0x0048000b      3a01           move.w d1, d5
         0x0048000d      aa02           invalid
         0x0048000f      1403           move.b d3, d2
         0x00480011      a201           invalid
         0x00480013      bc02           cmp.b d2, d6
         0x00480015      ee03           asr.b 0x7, d3
         0x00480017      00028003       ori.b 0x3, d2
         0x0048001b      7e04           moveq 0x4, d7
         0x0048001d      5003           addq.b 0x8, d3
         0x0048001f      1200           move.b d0, d1
         0x00480021      fe015002       fsinh.w d1, fp0
         0x00480025      a404           invalid
         0x00480027      7404           moveq 0x4, d2
         0x00480029      8604           or.b d4, d3
         0x0048002b      9804           sub.b d4, d4
         0x0048002d      aa04           invalid
         0x0048002f      bc04           cmp.b d4, d6
         0x00480031      ce04           and.b d4, d7
         0x00480033      e001           asr.b 0x8, d1
         0x00480035      1001           move.b d1, d0
         0x00480037      2c01           move.l d1, d6
         0x00480039      3e04           move.w d4, d7
         0x0048003b      f2050204       fsqrt fp0, fp4
     < 0x0048003f      6201           bhi.b 0x480042
        0x00480041      8e00           or.b d0, d7
         0x00480043      a024           invalid
         0x00480045      bae82426       cmpa.w 0x2426(a0), a5
         0x00480049      bae82438       cmpa.w 0x2438(a0), a5
         0x0048004d      bae8241d       cmpa.w 0x241d(a0), a5
         0x00480051      7ae8           moveq 0xe8, d5
         0x00480053      22fe0860       
         0x00480054      fe086000       fmove.l fp0, a0
         0x00480058      04e4204a       
         0x00480059      e420           asr.b d2, d0
         0x0048005b      4a43           tst.w d3
         0x0048005d      fae817701010   fbf.l 0x17b8106f
         0x00480063      d951           add.w d4, (a1)
         0x00480065      c8fffc60       
         0x00480066      fffc           invalid
     < 0x00480068      600004d2       bra.w loc.0048053c
        0x0048006c      24bae818       move.l 0x47e886(pc), (a2)
        0x00480070      26bae818       move.l 0x47e88a(pc), (a3)
        0x00480074      28bae818       move.l 0x47e88e(pc), (a4)
        0x00480078      2d7ae818fe0a   move.l 0x47e892(pc), -0x1f6(a6)
        0x0048007e      3d7ae816fe0e   move.w 0x47e896(pc), -0x1f2(a6)
    < 0x00480084      600004b6       bra.w loc.0048053c
       0x00480088      24bae80e       move.l 0x47e898(pc), (a2)
       0x0048008c      26bae80e       move.l 0x47e89c(pc), (a3)
       0x00480090      38bae80e       move.w 0x47e8a0(pc), (a4)
   < 0x00480094      600004a6       bra.w loc.0048053c
      0x00480098      24bae808       move.l 0x47e8a2(pc), (a2)
      0x0048009c      26bae808       move.l 0x47e8a6(pc), (a3)
      0x004800a0      28bae808       move.l 0x47e8aa(pc), (a4)
      0x004800a4      3d7ae808fe0a   move.w 0x47e8ae(pc), -0x1f6(a6)
  < 0x004800aa      60000490       bra.w loc.0048053c
     0x004800ae      24bae800       move.l 0x47e8b0(pc), (a2)
     0x004800b2      26bae800       move.l 0x47e8b4(pc), (a3)
     0x004800b6      28bae800       move.l 0x47e8b8(pc), (a4)
     0x004800ba      3d7ae800fe0a   move.w 0x47e8bc(pc), -0x1f6(a6)
     0x004800c0      1d7ae7fcfe0c   move.b 0x47e8be(pc), -0x1f4(a6)
  < 0x004800c6      60000474       bra.w loc.0048053c
     0x004800ca      204a           movea.l a2, a0
     0x004800cc      43fae7f1       lea.l 0x47e8bf(pc), a1
     0x004800d0      700e           moveq 0xe, d0
  > 0x004800d2      10d9           move.b (a1)+, (a0)+
  < 0x004800d4      51c8fffc       dbra d0, 0x4800d2
  < 0x004800d8      60000462       bra.w loc.0048053c
     0x004800dc      24bae7f0       move.l 0x47e8ce(pc), (a2)
     0x004800e0      26bae7f0       move.l 0x47e8d2(pc), (a3)
     0x004800e4      28bae7f0       move.l 0x47e8d6(pc), (a4)
     0x004800e8      3d7ae7f0fe0a   move.w 0x47e8da(pc), -0x1f6(a6)
     0x004800ee      1d7ae7ecfe0c   move.b 0x47e8dc(pc), -0x1f4(a6)
  < 0x004800f4      60000446       bra.w loc.0048053c
     0x004800f8      204a           movea.l a2, a0
     0x004800fa      43fae7e1       lea.l 0x47e8dd(pc), a1
     0x004800fe      700d           moveq 0xd, d0
  > 0x00480100      10d9           move.b (a1)+, (a0)+
  < 0x00480102      51c8fffc       dbra d0, 0x480100
  < 0x00480106      60000434       bra.w loc.0048053c
     0x0048010a      204a           movea.l a2, a0
     0x0048010c      43fae7dd       lea.l 0x47e8eb(pc), a1
     0x00480110      7010           moveq 0x10, d0
  > 0x00480112      10d9           move.b (a1)+, (a0)+
  < 0x00480114      51c8fffc       dbra d0, 0x480112
  < 0x00480118      60000422       bra.w loc.0048053c
     0x0048011c      24bae7de       move.l 0x47e8fc(pc), (a2)
     0x00480120      26bae7de       move.l 0x47e900(pc), (a3)
     0x00480124      28bae7de       move.l 0x47e904(pc), (a4)
     0x00480128      1d7ae7defe0a   move.b 0x47e908(pc), -0x1f6(a6)
  < 0x0048012e      6000040c       bra.w loc.0048053c
     0x00480132      204a           movea.l a2, a0
     0x00480134      43fae7d3       lea.l 0x47e909(pc), a1
     0x00480138      700c           moveq 0xc, d0
  > 0x0048013a      10d9           move.b (a1)+, (a0)+
  < 0x0048013c      51c8fffc       dbra d0, 0x48013a
  < 0x00480140      600003fa       bra.w loc.0048053c
     0x00480144      24bae7d0       move.l 0x47e916(pc), (a2)
     0x00480148      26bae7d0       move.l 0x47e91a(pc), (a3)
     0x0048014c      28bae7d0       move.l 0x47e91e(pc), (a4)
     0x00480150      2d7ae7d0fe0a   move.l 0x47e922(pc), -0x1f6(a6)
  < 0x00480156      600003e4       bra.w loc.0048053c
     0x0048015a      24bae7ca       move.l 0x47e926(pc), (a2)
     0x0048015e      26bae7ca       move.l 0x47e92a(pc), (a3)
     0x00480162      28bae7ca       move.l 0x47e92e(pc), (a4)
     0x00480166      2d7ae7cafe0a   move.l 0x47e932(pc), -0x1f6(a6)
     0x0048016c      3d7ae7c8fe0e   move.w 0x47e936(pc), -0x1f2(a6)
  < 0x00480172      600003c8       bra.w loc.0048053c
     0x00480176      204a           movea.l a2, a0
     0x00480178      43fae7be       lea.l 0x47e938(pc), a1
     0x0048017c      7004           moveq 0x4, d0
  > 0x0048017e      20d9           move.l (a1)+, (a0)+
  < 0x00480180      51c8fffc       dbra d0, 0x48017e
  < 0x00480184      600003b6       bra.w loc.0048053c
     0x00480188      204a           movea.l a2, a0
     0x0048018a      43fae7c0       lea.l 0x47e94c(pc), a1
     0x0048018e      7004           moveq 0x4, d0
  > 0x00480190      20d9           move.l (a1)+, (a0)+
  < 0x00480192      51c8fffc       dbra d0, 0x480190
  < 0x00480196      600003a4       bra.w loc.0048053c
     0x0048019a      24bae7c4       move.l 0x47e960(pc), (a2)
     0x0048019e      26bae7c4       move.l 0x47e964(pc), (a3)
     0x004801a2      28bae7c4       move.l 0x47e968(pc), (a4)
     0x004801a6      2d7ae7c4fe0a   move.l 0x47e96c(pc), -0x1f6(a6)
     0x004801ac      3d7ae7c2fe0e   move.w 0x47e970(pc), -0x1f2(a6)
     0x004801b2      1d7ae7befe10   move.b 0x47e972(pc), -0x1f0(a6)
  < 0x004801b8      60000382       bra.w loc.0048053c
     0x004801bc      204a           movea.l a2, a0
     0x004801be      43fae7b3       lea.l 0x47e973(pc), a1
     0x004801c2      7010           moveq 0x10, d0
  > 0x004801c4      10d9           move.b (a1)+, (a0)+
  < 0x004801c6      51c8fffc       dbra d0, 0x4801c4
  < 0x004801ca      60000370       bra.w loc.0048053c
     0x004801ce      204a           movea.l a2, a0
     0x004801d0      43fae7b2       lea.l 0x47e984(pc), a1
     0x004801d4      7004           moveq 0x4, d0
  > 0x004801d6      20d9           move.l (a1)+, (a0)+
  < 0x004801d8      51c8fffc       dbra d0, 0x4801d6
  < 0x004801dc      6000035e       bra.w loc.0048053c
     0x004801e0      204a           movea.l a2, a0
     0x004801e2      43fae7b4       lea.l 0x47e998(pc), a1
     0x004801e6      7005           moveq 0x5, d0
  > 0x004801e8      20d9           move.l (a1)+, (a0)+
  < 0x004801ea      51c8fffc       dbra d0, 0x4801e8
  > 0x004801ee      30d9           move.w (a1)+, (a0)+
  < 0x004801f0      6000034a       bra.w loc.0048053c
     0x004801f4      204a           movea.l a2, a0
     0x004801f6      43fae7ba       lea.l 0x47e9b2(pc), a1
     0x004801fa      7005           moveq 0x5, d0
  > 0x004801fc      20d9           move.l (a1)+, (a0)+
  < 0x004801fe      51c8fffc       dbra d0, 0x4801fc
  < 0x00480202      60ea           bra.b 0x4801ee
     0x00480204      204a           movea.l a2, a0
     0x00480206      43fae7c4       lea.l 0x47e9cc(pc), a1
     0x0048020a      7005           moveq 0x5, d0
  > 0x0048020c      20d9           move.l (a1)+, (a0)+
  < 0x0048020e      51c8fffc       dbra d0, 0x48020c
  < 0x00480212      60000328       bra.w loc.0048053c
     0x00480216      204a           movea.l a2, a0
     0x00480218      43fae7ca       lea.l 0x47e9e4(pc), a1
     0x0048021c      7004           moveq 0x4, d0
  > 0x0048021e      20d9           move.l (a1)+, (a0)+
  < 0x00480220      51c8fffc       dbra d0, 0x48021e
  < 0x00480224      60c8           bra.b 0x4801ee
     0x00480226      204a           movea.l a2, a0
     0x00480228      43fae7d0       lea.l 0x47e9fa(pc), a1
     0x0048022c      7005           moveq 0x5, d0
  > 0x0048022e      20d9           move.l (a1)+, (a0)+
  < 0x00480230      51c8fffc       dbra d0, 0x48022e
  > 0x00480234      10d9           move.b (a1)+, (a0)+
  < 0x00480236      60000304       bra.w loc.0048053c
     0x0048023a      204a           movea.l a2, a0
     0x0048023c      43fae7d5       lea.l 0x47ea13(pc), a1
     0x00480240      7016           moveq 0x16, d0
  > 0x00480242      10d9           move.b (a1)+, (a0)+
  < 0x00480244      51c8fffc       dbra d0, 0x480242
  < 0x00480248      600002f2       bra.w loc.0048053c
     0x0048024c      204a           movea.l a2, a0
     0x0048024e      43fae7da       lea.l 0x47ea2a(pc), a1
     0x00480252      7005           moveq 0x5, d0
  > 0x00480254      20d9           move.l (a1)+, (a0)+
  < 0x00480256      51c8fffc       dbra d0, 0x480254
  < 0x0048025a      600002e0       bra.w loc.0048053c
     0x0048025e      204a           movea.l a2, a0
     0x00480260      43fae7e0       lea.l 0x47ea42(pc), a1
     0x00480264      7005           moveq 0x5, d0
  > 0x00480266      20d9           move.l (a1)+, (a0)+
  < 0x00480268      51c8fffc       dbra d0, 0x480266
  < 0x0048026c      600002ce       bra.w loc.0048053c
     0x00480270      204a           movea.l a2, a0
     0x00480272      43fae7e6       lea.l 0x47ea5a(pc), a1
     0x00480276      7004           moveq 0x4, d0
  > 0x00480278      20d9           move.l (a1)+, (a0)+
  < 0x0048027a      51c8fffc       dbra d0, 0x480278
  > 0x0048027e      30d9           move.w (a1)+, (a0)+
     0x00480280      10d9           move.b (a1)+, (a0)+
  < 0x00480282      600002b8       bra.w loc.0048053c
     0x00480286      204a           movea.l a2, a0
     0x00480288      43fae7e7       lea.l 0x47ea71(pc), a1
     0x0048028c      7014           moveq 0x14, d0
  > 0x0048028e      10d9           move.b (a1)+, (a0)+
  < 0x00480290      51c8fffc       dbra d0, 0x48028e
  < 0x00480294      600002a6       bra.w loc.0048053c
     0x00480298      204a           movea.l a2, a0
     0x0048029a      43fae7ea       lea.l 0x47ea86(pc), a1
     0x0048029e      7004           moveq 0x4, d0
  > 0x004802a0      20d9           move.l (a1)+, (a0)+
  < 0x004802a2      51c8fffc       dbra d0, 0x4802a0
  < 0x004802a6      6000ff46       bra.w 0x4801ee
     0x004802aa      204a           movea.l a2, a0
     0x004802ac      43fae7ee       lea.l 0x47ea9c(pc), a1
     0x004802b0      7004           moveq 0x4, d0
  > 0x004802b2      20d9           move.l (a1)+, (a0)+
  < 0x004802b4      51c8fffc       dbra d0, 0x4802b2
  < 0x004802b8      60c4           bra.b 0x48027e
     0x004802ba      204a           movea.l a2, a0
     0x004802bc      43fae7f5       lea.l 0x47eab3(pc), a1
     0x004802c0      7016           moveq 0x16, d0
  > 0x004802c2      10d9           move.b (a1)+, (a0)+
  < 0x004802c4      51c8fffc       dbra d0, 0x4802c2
  < 0x004802c8      60000272       bra.w loc.0048053c
     0x004802cc      204a           movea.l a2, a0
     0x004802ce      43fae7fa       lea.l 0x47eaca(pc), a1
     0x004802d2      7005           moveq 0x5, d0
  > 0x004802d4      20d9           move.l (a1)+, (a0)+
  < 0x004802d6      51c8fffc       dbra d0, 0x4802d4
  < 0x004802da      60000260       bra.w loc.0048053c
     0x004802de      204a           movea.l a2, a0
     0x004802e0      43fae800       lea.l 0x47eae2(pc), a1
     0x004802e4      7005           moveq 0x5, d0
  > 0x004802e6      20d9           move.l (a1)+, (a0)+
  < 0x004802e8      51c8fffc       dbra d0, 0x4802e6
  < 0x004802ec      6000024e       bra.w loc.0048053c
     0x004802f0      204a           movea.l a2, a0
     0x004802f2      43fae806       lea.l 0x47eafa(pc), a1
     0x004802f6      7005           moveq 0x5, d0
  > 0x004802f8      20d9           move.l (a1)+, (a0)+
  < 0x004802fa      51c8fffc       dbra d0, 0x4802f8
  < 0x004802fe      6000023c       bra.w loc.0048053c
     0x00480302      204a           movea.l a2, a0
     0x00480304      43fae80c       lea.l 0x47eb12(pc), a1
     0x00480308      7004           moveq 0x4, d0
  > 0x0048030a      20d9           move.l (a1)+, (a0)+
  < 0x0048030c      51c8fffc       dbra d0, 0x48030a
  < 0x00480310      6000fedc       bra.w 0x4801ee
     0x00480314      204a           movea.l a2, a0
     0x00480316      43fae810       lea.l 0x47eb28(pc), a1
     0x0048031a      7004           moveq 0x4, d0
  > 0x0048031c      20d9           move.l (a1)+, (a0)+
  < 0x0048031e      51c8fffc       dbra d0, 0x48031c
  < 0x00480322      60000218       bra.w loc.0048053c
     0x00480326      204a           movea.l a2, a0
     0x00480328      43fae812       lea.l 0x47eb3c(pc), a1
     0x0048032c      7004           moveq 0x4, d0
  > 0x0048032e      20d9           move.l (a1)+, (a0)+
  < 0x00480330      51c8fffc       dbra d0, 0x48032e
  < 0x00480334      6000ff48       bra.w 0x48027e
     0x00480338      204a           movea.l a2, a0
     0x0048033a      43fae817       lea.l 0x47eb53(pc), a1
     0x0048033e      7014           moveq 0x14, d0
  > 0x00480340      10d9           move.b (a1)+, (a0)+
  < 0x00480342      51c8fffc       dbra d0, 0x480340
  < 0x00480346      600001f4       bra.w loc.0048053c
     0x0048034a      204a           movea.l a2, a0
     0x0048034c      43fae81a       lea.l 0x47eb68(pc), a1
     0x00480350      7004           moveq 0x4, d0
  > 0x00480352      20d9           move.l (a1)+, (a0)+
  < 0x00480354      51c8fffc       dbra d0, 0x480352
  < 0x00480358      6000fe94       bra.w 0x4801ee
     0x0048035c      204a           movea.l a2, a0
     0x0048035e      43fae81e       lea.l 0x47eb7e(pc), a1
     0x00480362      7004           moveq 0x4, d0
  > 0x00480364      20d9           move.l (a1)+, (a0)+
  < 0x00480366      51c8fffc       dbra d0, 0x480364
  < 0x0048036a      6000fe82       bra.w 0x4801ee
     0x0048036e      24bae824       move.l 0x47eb94(pc), (a2)
     0x00480372      26bae824       move.l 0x47eb98(pc), (a3)
     0x00480376      28bae824       move.l 0x47eb9c(pc), (a4)
     0x0048037a      2d7ae824fe0a   move.l 0x47eba0(pc), -0x1f6(a6)
  < 0x00480380      600001ba       bra.w loc.0048053c
     0x00480384      24bae81e       move.l 0x47eba4(pc), (a2)
     0x00480388      26bae81e       move.l 0x47eba8(pc), (a3)
     0x0048038c      28bae81e       move.l 0x47ebac(pc), (a4)
     0x00480390      3d7ae81efe0a   move.w 0x47ebb0(pc), -0x1f6(a6)
  < 0x00480396      600001a4       bra.w loc.0048053c
     0x0048039a      204a           movea.l a2, a0
     0x0048039c      43fae814       lea.l 0x47ebb2(pc), a1
     0x004803a0      7004           moveq 0x4, d0
  > 0x004803a2      20d9           move.l (a1)+, (a0)+
  < 0x004803a4      51c8fffc       dbra d0, 0x4803a2
  < 0x004803a8      60000192       bra.w loc.0048053c
     0x004803ac      24bae818       move.l 0x47ebc6(pc), (a2)
     0x004803b0      26bae818       move.l 0x47ebca(pc), (a3)
     0x004803b4      28bae818       move.l 0x47ebce(pc), (a4)
     0x004803b8      3d7ae818fe0a   move.w 0x47ebd2(pc), -0x1f6(a6)
     0x004803be      1d7ae814fe0c   move.b 0x47ebd4(pc), -0x1f4(a6)
  < 0x004803c4      60000176       bra.w loc.0048053c
     0x004803c8      204a           movea.l a2, a0
     0x004803ca      43fae809       lea.l 0x47ebd5(pc), a1
     0x004803ce      700e           moveq 0xe, d0
  > 0x004803d0      10d9           move.b (a1)+, (a0)+
  < 0x004803d2      51c8fffc       dbra d0, 0x4803d0
  < 0x004803d6      60000164       bra.w loc.0048053c
     0x004803da      24bae808       move.l 0x47ebe4(pc), (a2)
     0x004803de      26bae808       move.l 0x47ebe8(pc), (a3)
     0x004803e2      28bae808       move.l 0x47ebec(pc), (a4)
     0x004803e6      2d7ae808fe0a   move.l 0x47ebf0(pc), -0x1f6(a6)
  < 0x004803ec      6000014e       bra.w loc.0048053c
     0x004803f0      24bae802       move.l 0x47ebf4(pc), (a2)
     0x004803f4      26bae802       move.l 0x47ebf8(pc), (a3)
     0x004803f8      28bae802       move.l 0x47ebfc(pc), (a4)
     0x004803fc      2d7ae802fe0a   move.l 0x47ec00(pc), -0x1f6(a6)
  < 0x00480402      60000138       bra.w loc.0048053c
     0x00480406      24bae7fc       move.l 0x47ec04(pc), (a2)
     0x0048040a      26bae7fc       move.l 0x47ec08(pc), (a3)
     0x0048040e      28bae7fc       move.l 0x47ec0c(pc), (a4)
     0x00480412      1d7ae7fcfe0a   move.b 0x47ec10(pc), -0x1f6(a6)
  < 0x00480418      60000122       bra.w loc.0048053c
     0x0048041c      204a           movea.l a2, a0
     0x0048041e      43fae7f1       lea.l 0x47ec11(pc), a1
     0x00480422      700b           moveq 0xb, d0
  > 0x00480424      10d9           move.b (a1)+, (a0)+
  < 0x00480426      51c8fffc       dbra d0, 0x480424
  < 0x0048042a      60000110       bra.w loc.0048053c
     0x0048042e      204a           movea.l a2, a0
     0x00480430      43fae7eb       lea.l 0x47ec1d(pc), a1
     0x00480434      7010           moveq 0x10, d0
  > 0x00480436      10d9           move.b (a1)+, (a0)+
  < 0x00480438      51c8fffc       dbra d0, 0x480436
  < 0x0048043c      600000fe       bra.w loc.0048053c
     0x00480440      204a           movea.l a2, a0
     0x00480442      43fae7ea       lea.l 0x47ec2e(pc), a1
     0x00480446      7004           moveq 0x4, d0
  > 0x00480448      20d9           move.l (a1)+, (a0)+
  < 0x0048044a      51c8fffc       dbra d0, 0x480448
  < 0x0048044e      6000fd9e       bra.w 0x4801ee
     0x00480452      204a           movea.l a2, a0
     0x00480454      43fae7ee       lea.l 0x47ec44(pc), a1
     0x00480458      7004           moveq 0x4, d0
  > 0x0048045a      20d9           move.l (a1)+, (a0)+
  < 0x0048045c      51c8fffc       dbra d0, 0x48045a
  < 0x00480460      6000fdd2       bra.w 0x480234
     0x00480464      204a           movea.l a2, a0
     0x00480466      43fae7f1       lea.l 0x47ec59(pc), a1
     0x0048046a      7014           moveq 0x14, d0
  > 0x0048046c      10d9           move.b (a1)+, (a0)+
  < 0x0048046e      51c8fffc       dbra d0, 0x48046c
  < 0x00480472      600000c8       bra.w loc.0048053c
     0x00480476      204a           movea.l a2, a0
     0x00480478      43fae7f4       lea.l 0x47ec6e(pc), a1
     0x0048047c      7005           moveq 0x5, d0
  > 0x0048047e      20d9           move.l (a1)+, (a0)+
  < 0x00480480      51c8fffc       dbra d0, 0x48047e
  < 0x00480484      600000b6       bra.w loc.0048053c
     0x00480488      204a           movea.l a2, a0
     0x0048048a      43fae7fa       lea.l 0x47ec86(pc), a1
     0x0048048e      7005           moveq 0x5, d0
  > 0x00480490      20d9           move.l (a1)+, (a0)+
  < 0x00480492      51c8fffc       dbra d0, 0x480490
  < 0x00480496      6000fd56       bra.w 0x4801ee
     0x0048049a      204a           movea.l a2, a0
     0x0048049c      43fae802       lea.l 0x47eca0(pc), a1
     0x004804a0      7005           moveq 0x5, d0
  > 0x004804a2      20d9           move.l (a1)+, (a0)+
  < 0x004804a4      51c8fffc       dbra d0, 0x4804a2
  < 0x004804a8      6000fd44       bra.w 0x4801ee
     0x004804ac      204a           movea.l a2, a0
     0x004804ae      43fae80a       lea.l 0x47ecba(pc), a1
     0x004804b2      7005           moveq 0x5, d0
  > 0x004804b4      20d9           move.l (a1)+, (a0)+
  < 0x004804b6      51c8fffc       dbra d0, 0x4804b4
  < 0x004804ba      6000fdc2       bra.w 0x48027e
     0x004804be      204a           movea.l a2, a0
     0x004804c0      43fae813       lea.l 0x47ecd5(pc), a1
     0x004804c4      7018           moveq 0x18, d0
  > 0x004804c6      10d9           move.b (a1)+, (a0)+
  < 0x004804c8      51c8fffc       dbra d0, 0x4804c6
  < 0x004804cc      606e           bra.b loc.0048053c
     0x004804ce      204a           movea.l a2, a0
     0x004804d0      43fae81c       lea.l 0x47ecee(pc), a1
     0x004804d4      7006           moveq 0x6, d0
  > 0x004804d6      20d9           move.l (a1)+, (a0)+
  < 0x004804d8      51c8fffc       dbra d0, 0x4804d6
  < 0x004804dc      6000fd10       bra.w 0x4801ee
  > 0x004804e0      302e0008       move.w 0x8(a6), d0
      0x004804e4      48c0           ext.l d0
      0x004804e6      2f00           move.l d0, -(a7)
      0x004804e8      48780000       pea.l 0x0
      0x004804ec      486efefe       pea.l -0x102(a6)
      0x004804f0      3f03           move.w d3, -(a7)
      0x004804f2      4eb900406e56   jsr p_strI1
      0x004804f8      dec5           adda.w d5, a7
      0x004804fa      700c           moveq 0xc, d0
      0x004804fc      41eefdff       lea.l -0x201(a6), a0
      0x00480500      43fae80b       lea.l 0x47ed0d(pc), a1
  > 0x00480504      10d9           move.b (a1)+, (a0)+
  < 0x00480506      51c8fffc       dbra d0, 0x480504
      0x0048050a      4240           clr.w d0
      0x0048050c      102efefe       move.b -0x102(a6), d0
      0x00480510      d004           add.b d4, d0
  < 0x00480512      6406           bcc.b 0x48051a
     0x00480514      4eb900406c8a   jsr p_strovr
  > 0x0048051a      4240           clr.w d0
      0x0048051c      102efefe       move.b -0x102(a6), d0
      0x00480520      3203           move.w d3, d1
      0x00480522      9244           sub.w d4, d1
      0x00480524      b041           cmp.w d1, d0
  < 0x00480526      6302           bls.b 0x48052a
     0x00480528      3001           move.w d1, d0
  > 0x0048052a      1484           move.b d4, (a2)
      0x0048052c      d112           add.b d0, (a2)
      0x0048052e      5300           subq.b 0x1, d0
  < 0x00480530      650a           bcs.b loc.0048053c
     0x00480532      43eefeff       lea.l -0x101(a6), a1
  > 0x00480536      10d9           move.b (a1)+, (a0)+
  < 0x00480538      51c8fffc       dbra d0, 0x480536
     ; CODE XREF from MENUCOM.param_str @ 0x47ffb2
 22: loc.0048053c ();
 > 0x0048053c      41ee000a       lea.l 0xa(a6), a0
           0x00480540      224a           movea.l a2, a1
           0x00480542      703f           moveq 0x3f, d0
       > 0x00480544      20d9           move.l (a1)+, (a0)+
       < 0x00480546      51c8fffc       dbra d0, 0x480544
           0x0048054a      4cdf1fbf       movem.l (a7)+, d0-d5/d7/a0-a4
           0x0048054e      4e5e           unlk a6
           0x00480550      4e75           rts
            ; CALL XREF from MENUCOM.show_box @ 0x480b32
            ; CALL XREF from MENUCOM.swtch_off_box @ 0x481f56
            ; CALL XREF from MENU2COM.make_numeric_bo @ 0x48d512
            ; CALL XREF from MENU2COM.make_date_box @ 0x48dcbc
            ; CALL XREF from MENU2COM.make_picnum_box @ 0x48df9e
 54: MENUCOM.box_type_str ();
           0x00480552      4e56fff0       link.w a6, 0xfff0
           0x00480556      bfd5           cmpa.l (a5), a7
       < 0x00480558      6206           bhi.b 0x480560
          0x0048055a      44fc0002       move.w 0x2, ccr
          0x0048055e      4e76           trapv
       > 0x00480560      defc0010       adda.w 0x10, a7
           0x00480564      48e780c0       movem.l d0/a0-a1, -(a7)
           0x00480568      41ee000a       lea.l 0xa(a6), a0
           0x0048056c      43ee000e       lea.l 0xe(a6), a1
           0x00480570      102e0008       move.b 0x8(a6), d0
           0x00480574      4880           ext.w d0
           0x00480576      0c400013       cmpi.w 0x13, d0
       < 0x0048057a      6302           bls.b 0x48057e
          0x0048057c      4e4e           trap 0xe
       > 0x0048057e      d040           add.w d0, d0
           0x00480580      303b0006       move.w 0x480588(pc, d0.w), d0
           0x00480584      4efb0002       jmp 0x480588(pc, d0.w)
            0x00480588      002800340040   ori.b 0x34, 0x40(a0)
            0x0048058e      004c0056       
            0x0048058f      4c005600       
            0x00480590      00560060       ori.w 0x60, (a6)
            0x00480594      fff4           invalid
            0x00480596      fff4           invalid
            0x00480598      006a0074007e   ori.w 0x74, 0x7e(a2)
            0x0048059e      fff4           invalid
            0x004805a0      00880092       
            0x004805a1      8800           or.b d0, d4
            0x004805a3      9200           sub.b d0, d1
            0x004805a5      9cfff400       
            0x004805a6      fff4           invalid
            0x004805a8      00a600b000ba   ori.l 0xb000ba, -(a6)
            0x004805ae      00c420ba       
            0x004805af      c420           and.b -(a0), d2
            0x004805b1      bae7           cmpa.w -(a7), a5
        < 0x004805b3      6822           bvc.b 0x4805d7
           0x004805b5      bae7           cmpa.w -(a7), a5
       < 0x004805b7      6860           bvc.b 0x480619
          0x004805b9      00009a20       ori.b 0x20, d0
          0x004805bd      bae7           cmpa.w -(a7), a5
      < 0x004805bf      6422           bcc.b 0x4805e3
         0x004805c1      bae7           cmpa.w -(a7), a5
     < 0x004805c3      6460           bcc.b 0x480625
        0x004805c5      00008e20       ori.b 0x20, d0
        0x004805c9      bae7           cmpa.w -(a7), a5
    < 0x004805cb      6022           bra.b 0x4805ef
       0x004805cd      bae7           cmpa.w -(a7), a5
   < 0x004805cf      6060           bra.b 0x480631
      0x004805d1      00008220       ori.b 0x20, d0
      0x004805d5      bae7           cmpa.w -(a7), a5
   > 0x004805d7      5c22           addq.b 0x6, -(a2)
       0x004805d9      bae7           cmpa.w -(a7), a5
       0x004805db      5c60           addq.w 0x6, -(a0)
       0x004805dd      7620           moveq 0x20, d3
       0x004805df      bae7           cmpa.w -(a7), a5
       0x004805e1      5a22           addq.b 0x5, -(a2)
   > 0x004805e3      bae7           cmpa.w -(a7), a5
        0x004805e5      5a60           addq.w 0x5, -(a0)
    < 0x004805e7      6c20           bge.b 0x480609
       0x004805e9      bae7           cmpa.w -(a7), a5
       0x004805eb      5822           addq.b 0x4, -(a2)
       0x004805ed      bae7           cmpa.w -(a7), a5
   > 0x004805ef      5860           addq.w 0x4, -(a0)
    < 0x004805f1      6220           bhi.b 0x480613
       0x004805f3      bae7           cmpa.w -(a7), a5
       0x004805f5      5622           addq.b 0x3, -(a2)
       0x004805f7      bae7           cmpa.w -(a7), a5
       0x004805f9      5660           addq.w 0x3, -(a0)
       0x004805fb      5820           addq.b 0x4, -(a0)
       0x004805fd      bae7           cmpa.w -(a7), a5
       0x004805ff      5422           addq.b 0x2, -(a2)
       0x00480601      bae7           cmpa.w -(a7), a5
       0x00480603      5460           addq.w 0x2, -(a0)
       0x00480605      4e20bae7       
       0x00480606      20bae752       move.l 0x47ed5a(pc), (a0)
        0x0048060a      22bae752       move.l 0x47ed5e(pc), (a1)
    < 0x0048060e      6044           bra.b 0x480654
       0x00480610      20bae750       move.l 0x47ed62(pc), (a0)
        0x00480614      22bae750       move.l 0x47ed66(pc), (a1)
    < 0x00480618      603a           bra.b 0x480654
        0x0048061a      20bae74e       move.l 0x47ed6a(pc), (a0)
        0x0048061e      22bae74e       move.l 0x47ed6e(pc), (a1)
    < 0x00480622      6030           bra.b 0x480654
       0x00480624      20bae74c       move.l 0x47ed72(pc), (a0)
        0x00480628      22bae74c       move.l 0x47ed76(pc), (a1)
    < 0x0048062c      6026           bra.b 0x480654
       0x0048062e      20bae74a       move.l 0x47ed7a(pc), (a0)
        0x00480632      22bae74a       move.l 0x47ed7e(pc), (a1)
    < 0x00480636      601c           bra.b 0x480654
       0x00480638      20bae748       move.l 0x47ed82(pc), (a0)
       0x0048063c      22bae748       move.l 0x47ed86(pc), (a1)
   < 0x00480640      6012           bra.b 0x480654
      0x00480642      20bae746       move.l 0x47ed8a(pc), (a0)
      0x00480646      22bae746       move.l 0x47ed8e(pc), (a1)
  < 0x0048064a      6008           bra.b 0x480654
     0x0048064c      20bae744       move.l 0x47ed92(pc), (a0)
     0x00480650      22bae744       move.l 0x47ed96(pc), (a1)
  > 0x00480654      4cdf0301       movem.l (a7)+, d0/a0-a1
            0x00480658      4e5e           unlk a6
            0x0048065a      4e75           rts
            ; XREFS: CALL 0x00480b94  CALL 0x00480be0  CALL 0x004826fa  
            ; XREFS: CALL 0x00484784  CALL 0x00484c02  CALL 0x00484c16  
 630: MENUCOM.my_visible_str ();
           0x0048065c      4e56fd5c       link.w a6, 0xfd5c
           0x00480660      bfd5           cmpa.l (a5), a7
       < 0x00480662      6206           bhi.b 0x48066a
          0x00480664      44fc0002       move.w 0x2, ccr
          0x00480668      4e76           trapv
       > 0x0048066a      defc0056       adda.w 0x56, a7
           0x0048066e      48e7fff8       movem.l d0-d7/a0-a4, -(a7)
           0x00480672      47eefdb2       lea.l -0x24e(a6), a3
           0x00480676      49eefdb3       lea.l -0x24d(a6), a4
           0x0048067a      3a3c00ff       move.w 0xff, d5
           0x0048067e      7c01           moveq 0x1, d6
           0x00480680      2f2e000a       move.l 0xa(a6), -(a7)
           0x00480684      48780000       pea.l 0x0
           0x00480688      486efeb2       pea.l -0x14e(a6)
           0x0048068c      3f05           move.w d5, -(a7)
           0x0048068e      4eb900406e56   jsr p_strI1
           0x00480694      defc000e       adda.w 0xe, a7
           0x00480698      4a2e0008       tst.b 0x8(a6)
       < 0x0048069c      676e           beq.b 0x48070c
          0x0048069e      7000           moveq 0x0, d0
          0x004806a0      204c           movea.l a4, a0
          0x004806a2      43fae6f7       lea.l 0x47ed9b(pc), a1
      > 0x004806a6      10d9           move.b (a1)+, (a0)+
      < 0x004806a8      51c8fffc       dbra d0, 0x4806a6
          0x004806ac      4240           clr.w d0
          0x004806ae      102efeb2       move.b -0x14e(a6), d0
          0x004806b2      5200           addq.b 0x1, d0
      < 0x004806b4      6406           bcc.b 0x4806bc
         0x004806b6      4eb900406c8a   jsr p_strovr
      > 0x004806bc      4240           clr.w d0
          0x004806be      102efeb2       move.b -0x14e(a6), d0
          0x004806c2      3205           move.w d5, d1
          0x004806c4      5341           subq.w 0x1, d1
          0x004806c6      b041           cmp.w d1, d0
      < 0x004806c8      6302           bls.b 0x4806cc
         0x004806ca      3001           move.w d1, d0
      > 0x004806cc      1686           move.b d6, (a3)
          0x004806ce      d113           add.b d0, (a3)
          0x004806d0      5300           subq.b 0x1, d0
      < 0x004806d2      650a           bcs.b 0x4806de
         0x004806d4      43eefeb3       lea.l -0x14d(a6), a1
     > 0x004806d8      10d9           move.b (a1)+, (a0)+
     < 0x004806da      51c8fffc       dbra d0, 0x4806d8
      > 0x004806de      4240           clr.w d0
          0x004806e0      1013           move.b (a3), d0
          0x004806e2      204c           movea.l a4, a0
          0x004806e4      d0c0           adda.w d0, a0
          0x004806e6      7202           moveq 0x2, d1
          0x004806e8      d200           add.b d0, d1
      < 0x004806ea      6406           bcc.b 0x4806f2
         0x004806ec      4eb900406c8a   jsr p_strovr
      > 0x004806f2      7202           moveq 0x2, d1
          0x004806f4      3405           move.w d5, d2
          0x004806f6      9440           sub.w d0, d2
          0x004806f8      b242           cmp.w d2, d1
      < 0x004806fa      6302           bls.b 0x4806fe
         0x004806fc      3202           move.w d2, d1
      > 0x004806fe      d313           add.b d1, (a3)
          0x00480700      43fae69b       lea.l 0x47ed9d(pc), a1
      > 0x00480704      10d9           move.b (a1)+, (a0)+
      < 0x00480706      51c9fffc       dbra d1, 0x480704
      < 0x0048070a      6004           bra.b 0x480710
      > 0x0048070c      16bae691       move.b 0x47ed9f(pc), (a3)
      > 0x00480710      554f           subq.w 0x2, a7
           0x00480712      486effb6       pea.l -0x4a(a6)
           0x00480716      4eb900404434   jsr fcn.00404434
           0x0048071c      584f           addq.w 0x4, a7
           0x0048071e      4a1f           tst.b (a7)+
       < 0x00480720      67000174       beq.w 0x480896
          0x00480724      206e0016       movea.l 0x16(a6), a0
          0x00480728      2f2e000a       move.l 0xa(a6), -(a7)
          0x0048072c      7e01           moveq 0x1, d7
      > 0x0048072e      be97           cmp.l (a7), d7
     < 0x00480730      6e000162       bgt.w 0x480894
        0x00480734      2007           move.l d7, d0
        0x00480736      b0ae000e       cmp.l 0xe(a6), d0
    < 0x0048073a      6e06           bgt.b 0x480742
       0x0048073c      90ae0012       sub.l 0x12(a6), d0
   < 0x00480740      6c02           bge.b 0x480744
   > 0x00480742      4e4f           trap 0xf
   > 0x00480744      4281           clr.l d1
        0x00480746      12300800       move.b (a0, d0.l), d1
        0x0048074a      2f01           move.l d1, -(a7)
        0x0048074c      48780000       pea.l 0x0
        0x00480750      486efeb2       pea.l -0x14e(a6)
        0x00480754      3f05           move.w d5, -(a7)
        0x00480756      4eb900406e56   jsr p_strI1
        0x0048075c      defc000e       adda.w 0xe, a7
        0x00480760      4a2e0008       tst.b 0x8(a6)
    < 0x00480764      6620           bne.b 0x480786
       0x00480766      4281           clr.l d1
       0x00480768      12300800       move.b (a0, d0.l), d1
       0x0048076c      43fae632       lea.l 0x47eda0(pc), a1
       0x00480770      3401           move.w d1, d2
       0x00480772      e64a           lsr.w 0x3, d2
       0x00480774      03312000       btst.l d1, (a1, d2.w)
   < 0x00480778      670c           beq.b 0x480786
      0x0048077a      222e000a       move.l 0xa(a6), d1
      0x0048077e      b286           cmp.l d6, d1
  < 0x00480780      6f04           ble.b 0x480786
 < 0x00480782      600000ca       bra.w 0x48084e
 > 0x00480786      12300800       move.b (a0, d0.l), d1
       0x0048078a      0c010020       cmpi.b 0x20, d1
   < 0x0048078e      6506           bcs.b 0x480796
      0x00480790      0c01007f       cmpi.b 0x7f, d1
  < 0x00480794      657a           bcs.b 0x480810
  > 0x00480796      4242           clr.w d2
      0x00480798      1413           move.b (a3), d2
      0x0048079a      224c           movea.l a4, a1
      0x0048079c      d2c2           adda.w d2, a1
      0x0048079e      7601           moveq 0x1, d3
      0x004807a0      3805           move.w d5, d4
      0x004807a2      9842           sub.w d2, d4
      0x004807a4      b644           cmp.w d4, d3
  < 0x004807a6      6302           bls.b 0x4807aa
     0x004807a8      3604           move.w d4, d3
  > 0x004807aa      d713           add.b d3, (a3)
      0x004807ac      45fae613       lea.l 0x47edc1(pc), a2
  > 0x004807b0      12da           move.b (a2)+, (a1)+
  < 0x004807b2      51cbfffc       dbra d3, 0x4807b0
      0x004807b6      4242           clr.w d2
      0x004807b8      1413           move.b (a3), d2
      0x004807ba      224c           movea.l a4, a1
      0x004807bc      d2c2           adda.w d2, a1
      0x004807be      4243           clr.w d3
      0x004807c0      162efeb2       move.b -0x14e(a6), d3
      0x004807c4      d602           add.b d2, d3
  < 0x004807c6      6406           bcc.b 0x4807ce
     0x004807c8      4eb900406c8a   jsr p_strovr
  > 0x004807ce      4243           clr.w d3
      0x004807d0      162efeb2       move.b -0x14e(a6), d3
      0x004807d4      3805           move.w d5, d4
      0x004807d6      9842           sub.w d2, d4
      0x004807d8      b644           cmp.w d4, d3
  < 0x004807da      6302           bls.b 0x4807de
     0x004807dc      3604           move.w d4, d3
  > 0x004807de      d713           add.b d3, (a3)
      0x004807e0      5303           subq.b 0x1, d3
  < 0x004807e2      650a           bcs.b 0x4807ee
     0x004807e4      45eefeb3       lea.l -0x14d(a6), a2
 > 0x004807e8      12da           move.b (a2)+, (a1)+
 < 0x004807ea      51cbfffc       dbra d3, 0x4807e8
  > 0x004807ee      4242           clr.w d2
      0x004807f0      1413           move.b (a3), d2
      0x004807f2      224c           movea.l a4, a1
      0x004807f4      d2c2           adda.w d2, a1
      0x004807f6      7601           moveq 0x1, d3
      0x004807f8      3805           move.w d5, d4
      0x004807fa      9842           sub.w d2, d4
      0x004807fc      b644           cmp.w d4, d3
  < 0x004807fe      6302           bls.b 0x480802
     0x00480800      3604           move.w d4, d3
  > 0x00480802      d713           add.b d3, (a3)
      0x00480804      45fae5bd       lea.l 0x47edc3(pc), a2
  > 0x00480808      12da           move.b (a2)+, (a1)+
  < 0x0048080a      51cbfffc       dbra d3, 0x480808
  < 0x0048080e      603e           bra.b 0x48084e
  > 0x00480810      554f           subq.w 0x2, a7
      0x00480812      1e86           move.b d6, (a7)
      0x00480814      1f410001       move.b d1, 0x1(a7)
      0x00480818      4242           clr.w d2
      0x0048081a      1413           move.b (a3), d2
      0x0048081c      224c           movea.l a4, a1
      0x0048081e      d2c2           adda.w d2, a1
      0x00480820      4243           clr.w d3
      0x00480822      1617           move.b (a7), d3
      0x00480824      d602           add.b d2, d3
  < 0x00480826      6406           bcc.b 0x48082e
     0x00480828      4eb900406c8a   jsr p_strovr
  > 0x0048082e      4243           clr.w d3
      0x00480830      1617           move.b (a7), d3
      0x00480832      3805           move.w d5, d4
      0x00480834      9842           sub.w d2, d4
      0x00480836      b644           cmp.w d4, d3
  < 0x00480838      6302           bls.b 0x48083c
     0x0048083a      3604           move.w d4, d3
  > 0x0048083c      d713           add.b d3, (a3)
      0x0048083e      5303           subq.b 0x1, d3
  < 0x00480840      650a           bcs.b 0x48084c
     0x00480842      45ef0001       lea.l 0x1(a7), a2
 > 0x00480846      12da           move.b (a2)+, (a1)+
 < 0x00480848      51cbfffc       dbra d3, 0x480846
  > 0x0048084c      544f           addq.w 0x2, a7
 > 0x0048084e      1013           move.b (a3), d0
        0x00480850      0c000064       cmpi.b 0x64, d0
    < 0x00480854      6338           bls.b 0x48088e
       0x00480856      4240           clr.w d0
       0x00480858      1013           move.b (a3), d0
       0x0048085a      224c           movea.l a4, a1
       0x0048085c      d2c0           adda.w d0, a1
       0x0048085e      7203           moveq 0x3, d1
       0x00480860      d200           add.b d0, d1
   < 0x00480862      6406           bcc.b 0x48086a
      0x00480864      4eb900406c8a   jsr p_strovr
   > 0x0048086a      7203           moveq 0x3, d1
       0x0048086c      3405           move.w d5, d2
       0x0048086e      9440           sub.w d0, d2
       0x00480870      b242           cmp.w d2, d1
   < 0x00480872      6302           bls.b 0x480876
      0x00480874      3202           move.w d2, d1
   > 0x00480876      d313           add.b d1, (a3)
       0x00480878      45fae54b       lea.l 0x47edc5(pc), a2
   > 0x0048087c      12da           move.b (a2)+, (a1)+
   < 0x0048087e      51c9fffc       dbra d1, 0x48087c
       0x00480882      486effb6       pea.l -0x4a(a6)
       0x00480886      4eb900404468   jsr fcn.00404468
       0x0048088c      584f           addq.w 0x4, a7
    > 0x0048088e      5287           addq.l 0x1, d7
     < 0x00480890      6800fe9c       bvc.w 0x48072e
     > 0x00480894      584f           addq.w 0x4, a7
       > 0x00480896      4a2e0008       tst.b 0x8(a6)
       < 0x0048089a      6720           beq.b 0x4808bc
          0x0048089c      4240           clr.w d0
          0x0048089e      1013           move.b (a3), d0
          0x004808a0      204c           movea.l a4, a0
          0x004808a2      d0c0           adda.w d0, a0
          0x004808a4      7201           moveq 0x1, d1
          0x004808a6      3405           move.w d5, d2
          0x004808a8      9440           sub.w d0, d2
          0x004808aa      b242           cmp.w d2, d1
      < 0x004808ac      6302           bls.b 0x4808b0
         0x004808ae      3202           move.w d2, d1
      > 0x004808b0      d313           add.b d1, (a3)
          0x004808b2      43fae515       lea.l 0x47edc9(pc), a1
      > 0x004808b6      10d9           move.b (a1)+, (a0)+
      < 0x004808b8      51c9fffc       dbra d1, 0x4808b6
       > 0x004808bc      41ee001a       lea.l 0x1a(a6), a0
           0x004808c0      224b           movea.l a3, a1
           0x004808c2      703f           moveq 0x3f, d0
       > 0x004808c4      20d9           move.l (a1)+, (a0)+
       < 0x004808c6      51c8fffc       dbra d0, 0x4808c4
           0x004808ca      4cdf1fff       movem.l (a7)+, d0-d7/a0-a4
           0x004808ce      4e5e           unlk a6
           0x004808d0      4e75           rts
            ; XREFS(37)
 976: MENUCOM.show_box ();
           ; var int32_t var_8h @ a7+0x8
           ; var int32_t var_ch @ a7+0xc
           0x004808d2      4e56fea8       link.w a6, 0xfea8
           0x004808d6      bfd5           cmpa.l (a5), a7
       < 0x004808d8      6206           bhi.b 0x4808e0
          0x004808da      44fc0002       move.w 0x2, ccr
          0x004808de      4e76           trapv
       > 0x004808e0      defc0154       adda.w 0x154, a7
           0x004808e4      48e7f0f8       movem.l d0-d3/a0-a4, -(a7)
           0x004808e8      45f9004047ea   lea.l p_wts_o, a2
           0x004808ee      47f80005       lea.l 0x5, a3
           0x004808f2      49ee000a       lea.l 0xa(a6), a4
           0x004808f6      740c           moveq 0xc, d2
           0x004808f8      7601           moveq 0x1, d3
           0x004808fa      486e000d       pea.l 0xd(a6)
           0x004808fe      42a7           clr.l -(a7)
           0x00480900      1f6e000c0003   move.b 0xc(a6), 0x3(a7)
           0x00480906      2f17           move.l (a7), -(a7)
           0x00480908      4e92           jsr (a2)                    ; fcn.00000009+0x2
           0x0048090a      dec2           adda.w d2, a7
           0x0048090c      487ae4bd       pea.l 0x47edcb(pc)
           0x00480910      4853           pea.l (a3)
           0x00480912      2f17           move.l (a7), -(a7)
           0x00480914      4e92           jsr (a2)                    ; fcn.00000009+0x2
           0x00480916      dec2           adda.w d2, a7
           0x00480918      3014           move.w (a4), d0
           0x0048091a      48c0           ext.l d0
           0x0048091c      2f00           move.l d0, -(a7)
           0x0048091e      48780004       pea.l 0x4
           0x00480922      4eb9004070e4   jsr p_wti_o
           0x00480928      504f           addq.w 0x8, a7
           0x0048092a      487ae4a5       pea.l 0x47edd1(pc)
           0x0048092e      48780003       pea.l 0x3
           0x00480932      2f17           move.l (a7), -(a7)
           0x00480934      4e92           jsr (a2)                    ; fcn.00000009+0x2
           0x00480936      dec2           adda.w d2, a7
           0x00480938      4a54           tst.w (a4)
       < 0x0048093a      6612           bne.b 0x48094e
          0x0048093c      487ae497       pea.l 0x47edd5(pc)
          0x00480940      4878000c       pea.l 0xc
          0x00480944      2f17           move.l (a7), -(a7)
     > 0x00480946      4e92           jsr (a2)                    ; fcn.00000009+0x2
        0x00480948      dec2           adda.w d2, a7
    < 0x0048094a      60000342       bra.w 0x480c8e
    > 0x0048094e      3014           move.w (a4), d0
        0x00480950      0c40ffff       cmpi.w 0xffff, d0
    < 0x00480954      660c           bne.b 0x480962
       0x00480956      487ae48a       pea.l 0x47ede2(pc)
   > 0x0048095a      4878000f       pea.l 0xf
 > 0x0048095e      2f17           move.l (a7), -(a7)
 < 0x00480960      60e4           bra.b 0x480946
  > 0x00480962      0c40fffe       cmpi.w 0xfffe, d0
  < 0x00480966      660a           bne.b 0x480972
     0x00480968      487ae488       pea.l 0x47edf2(pc)
 > 0x0048096c      48780013       pea.l 0x13
 < 0x00480970      60ec           bra.b 0x48095e
 > 0x00480972      0c40fffd       cmpi.w 0xfffd, d0
 < 0x00480976      660a           bne.b 0x480982
    0x00480978      487ae48c       pea.l 0x47ee06(pc)
 > 0x0048097c      4878000e       pea.l 0xe
 < 0x00480980      60dc           bra.b 0x48095e
 > 0x00480982      0c40fffc       cmpi.w 0xfffc, d0
 < 0x00480986      6606           bne.b 0x48098e
    0x00480988      487ae48b       pea.l 0x47ee15(pc)
 < 0x0048098c      60de           bra.b 0x48096c
 > 0x0048098e      0c40fffb       cmpi.w 0xfffb, d0
 < 0x00480992      6606           bne.b 0x48099a
    0x00480994      487ae493       pea.l 0x47ee29(pc)
 < 0x00480998      60c0           bra.b 0x48095a
  > 0x0048099a      0c40fffa       cmpi.w 0xfffa, d0
  < 0x0048099e      6606           bne.b 0x4809a6
     0x004809a0      487ae497       pea.l 0x47ee39(pc)
 < 0x004809a4      60c6           bra.b 0x48096c
  > 0x004809a6      0c40fff9       cmpi.w 0xfff9, d0
  < 0x004809aa      6606           bne.b 0x4809b2
     0x004809ac      487ae49f       pea.l 0x47ee4d(pc)
 < 0x004809b0      60ca           bra.b 0x48097c
  > 0x004809b2      0c40fff8       cmpi.w 0xfff8, d0
  < 0x004809b6      6606           bne.b 0x4809be
     0x004809b8      487ae4a2       pea.l 0x47ee5c(pc)
  < 0x004809bc      60ae           bra.b 0x48096c
   > 0x004809be      0c40fff7       cmpi.w 0xfff7, d0
   < 0x004809c2      660a           bne.b 0x4809ce
      0x004809c4      487ae4aa       pea.l 0x47ee70(pc)
  > 0x004809c8      48780014       pea.l 0x14
 < 0x004809cc      6090           bra.b 0x48095e
  > 0x004809ce      0c40fff6       cmpi.w 0xfff6, d0
  < 0x004809d2      6606           bne.b 0x4809da
     0x004809d4      487ae4af       pea.l 0x47ee85(pc)
  < 0x004809d8      60ee           bra.b 0x4809c8
   > 0x004809da      0c40fff5       cmpi.w 0xfff5, d0
   < 0x004809de      660c           bne.b 0x4809ec
      0x004809e0      487ae4b8       pea.l 0x47ee9a(pc)
 > 0x004809e4      4878000b       pea.l 0xb
 < 0x004809e8      6000ff74       bra.w 0x48095e
  > 0x004809ec      0c40fff4       cmpi.w 0xfff4, d0
  < 0x004809f0      6606           bne.b 0x4809f8
     0x004809f2      487ae4b2       pea.l 0x47eea6(pc)
 < 0x004809f6      60ec           bra.b 0x4809e4
  > 0x004809f8      0c40fff3       cmpi.w 0xfff3, d0
  < 0x004809fc      6606           bne.b 0x480a04
     0x004809fe      487ae4b2       pea.l 0x47eeb2(pc)
  < 0x00480a02      60e0           bra.b 0x4809e4
   > 0x00480a04      0c40fff2       cmpi.w 0xfff2, d0
   < 0x00480a08      6606           bne.b 0x480a10
      0x00480a0a      487ae4b2       pea.l 0x47eebe(pc)
   < 0x00480a0e      60d4           bra.b 0x4809e4
    > 0x00480a10      4a40           tst.w d0
    < 0x00480a12      6c0c           bge.b 0x480a20
       0x00480a14      487ae4b4       pea.l 0x47eeca(pc)
   > 0x00480a18      48780011       pea.l 0x11
  < 0x00480a1c      6000ff40       bra.w 0x48095e
    > 0x00480a20      b079008143a2   cmp.w 0x8143a2, d0
    < 0x00480a26      6f06           ble.b 0x480a2e
       0x00480a28      487ae4b2       pea.l 0x47eedc(pc)
    < 0x00480a2c      60ea           bra.b 0x480a18
     > 0x00480a2e      41bc1068       chk.w 0x1068, d0
         0x00480a32      48c0           ext.l d0
         0x00480a34      2200           move.l d0, d1
         0x00480a36      e581           asl.l 0x2, d1
         0x00480a38      41f9008101fe   lea.l 0x8101fe, a0
         0x00480a3e      22701800       movea.l (a0, d1.l), a1
         0x00480a42      b2c3           cmpa.w d3, a1
     < 0x00480a44      660e           bne.b 0x480a54
        0x00480a46      487ae4a6       pea.l 0x47eeee(pc)
        0x00480a4a      4878000c       pea.l 0xc
        0x00480a4e      2f17           move.l (a7), -(a7)
     < 0x00480a50      6000fef4       bra.w 0x480946
      > 0x00480a54      b3e9fffc       cmpa.l -0x4(a1), a1
      < 0x00480a58      6702           beq.b 0x480a5c
         0x00480a5a      4e4d           trap 0xd
      > 0x00480a5c      2211           move.l (a1), d1
          0x00480a5e      02810f000000   andi.l 0xf000000, d1
          0x00480a64      b2bae498       cmp.l 0x47eefe(pc), d1
      < 0x00480a68      660c           bne.b 0x480a76
         0x00480a6a      487ae4b3       pea.l 0x47ef1f(pc)
         0x00480a6e      48780015       pea.l 0x15
     < 0x00480a72      600000a8       bra.w 0x480b1c
     > 0x00480a76      08110000       btst.b 0x0, (a1)
     < 0x00480a7a      6706           beq.b 0x480a82
        0x00480a7c      487ae4b7       pea.l 0x47ef35(pc)
    < 0x00480a80      6004           bra.b 0x480a86
    > 0x00480a82      487ae4b7       pea.l 0x47ef3b(pc)
    > 0x00480a86      4853           pea.l (a3)
         0x00480a88      2f17           move.l (a7), -(a7)
         0x00480a8a      4e92           jsr (a2)                    ; fcn.00000009+0x2
         0x00480a8c      dec2           adda.w d2, a7
         0x00480a8e      08110002       btst.b 0x2, (a1)
     < 0x00480a92      6706           beq.b 0x480a9a
        0x00480a94      487ae4ab       pea.l 0x47ef41(pc)
    < 0x00480a98      6004           bra.b 0x480a9e
    > 0x00480a9a      487ae4ab       pea.l 0x47ef47(pc)
    > 0x00480a9e      4853           pea.l (a3)
         0x00480aa0      2f17           move.l (a7), -(a7)
         0x00480aa2      4e92           jsr (a2)                    ; fcn.00000009+0x2
         0x00480aa4      dec2           adda.w d2, a7
         0x00480aa6      08110003       btst.b 0x3, (a1)
     < 0x00480aaa      6706           beq.b 0x480ab2
        0x00480aac      487ae49f       pea.l 0x47ef4d(pc)
    < 0x00480ab0      6004           bra.b 0x480ab6
    > 0x00480ab2      487ae49f       pea.l 0x47ef53(pc)
    > 0x00480ab6      4853           pea.l (a3)
         0x00480ab8      2f17           move.l (a7), -(a7)
         0x00480aba      4e92           jsr (a2)                    ; fcn.00000009+0x2
         0x00480abc      dec2           adda.w d2, a7
         0x00480abe      0711           btst.l d3, (a1)
     < 0x00480ac0      6706           beq.b 0x480ac8
        0x00480ac2      487ae495       pea.l 0x47ef59(pc)
    < 0x00480ac6      6004           bra.b 0x480acc
    > 0x00480ac8      487ae496       pea.l 0x47ef60(pc)
    > 0x00480acc      48780006       pea.l 0x6
         0x00480ad0      2f17           move.l (a7), -(a7)
         0x00480ad2      4e92           jsr (a2)                    ; fcn.00000009+0x2
         0x00480ad4      dec2           adda.w d2, a7
         0x00480ad6      08110005       btst.b 0x5, (a1)
     < 0x00480ada      670c           beq.b 0x480ae8
        0x00480adc      487ae489       pea.l 0x47ef67(pc)
        0x00480ae0      4853           pea.l (a3)
        0x00480ae2      2f17           move.l (a7), -(a7)
        0x00480ae4      4e92           jsr (a2)                    ; fcn.00000009+0x2
        0x00480ae6      dec2           adda.w d2, a7
     > 0x00480ae8      08110004       btst.b 0x4, (a1)
     < 0x00480aec      670e           beq.b 0x480afc
        0x00480aee      487ae47d       pea.l 0x47ef6d(pc)
        0x00480af2      4878000a       pea.l 0xa
        0x00480af6      2f17           move.l (a7), -(a7)
        0x00480af8      4e92           jsr (a2)                    ; fcn.00000009+0x2
        0x00480afa      dec2           adda.w d2, a7
     > 0x00480afc      08110006       btst.b 0x6, (a1)
     < 0x00480b00      670e           beq.b 0x480b10
        0x00480b02      487ae474       pea.l 0x47ef78(pc)
        0x00480b06      48780007       pea.l 0x7
        0x00480b0a      2f17           move.l (a7), -(a7)
        0x00480b0c      4e92           jsr (a2)                    ; fcn.00000009+0x2
        0x00480b0e      dec2           adda.w d2, a7
     > 0x00480b10      08110007       btst.b 0x7, (a1)
     < 0x00480b14      670c           beq.b 0x480b22
        0x00480b16      487ae468       pea.l 0x47ef80(pc)
        0x00480b1a      4853           pea.l (a3)
     > 0x00480b1c      2f17           move.l (a7), -(a7)
         0x00480b1e      4e92           jsr (a2)                    ; fcn.00000009+0x2
         0x00480b20      dec2           adda.w d2, a7
      > 0x00480b22      9efc0100       suba.w 0x100, a7
          0x00480b26      12290004       move.b 0x4(a1), d1
          0x00480b2a      4881           ext.w d1
          0x00480b2c      43bc0013       chk.w 0x13, d1
          0x00480b30      1f01           move.b d1, -(a7)
          0x00480b32      4ebafa1e       jsr MENUCOM.box_type_str(pc)
          0x00480b36      544f           addq.w 0x2, a7
          0x00480b38      487ae44c       pea.l 0x47ef86(pc)
          0x00480b3c      48780003       pea.l 0x3
          0x00480b40      2f17           move.l (a7), -(a7)
          0x00480b42      4e92           jsr (a2)                    ; fcn.00000009+0x2
          0x00480b44      dec2           adda.w d2, a7
          0x00480b46      486f0001       pea.l 0x1(a7)
          0x00480b4a      42a7           clr.l -(a7)
          0x00480b4c      1f6f00080003   move.b 0x8(a7), 0x3(a7)
          0x00480b52      2f17           move.l (a7), -(a7)
          0x00480b54      4e92           jsr (a2)                    ; fcn.00000009+0x2
          0x00480b56      defc010c       adda.w 0x10c, a7
          0x00480b5a      487ae42e       pea.l 0x47ef8a(pc)
          0x00480b5e      48780003       pea.l 0x3
          0x00480b62      2f17           move.l (a7), -(a7)
          0x00480b64      4e92           jsr (a2)                    ; fcn.00000009+0x2
          0x00480b66      dec2           adda.w d2, a7
          0x00480b68      20690042       movea.l 0x42(a1), a0
          0x00480b6c      b1e8fffc       cmpa.l -0x4(a0), a0
      < 0x00480b70      6702           beq.b 0x480b74
         0x00480b72      4e4d           trap 0xd
      > 0x00480b74      9efc0100       suba.w 0x100, a7
          0x00480b78      4850           pea.l (a0)
          0x00480b7a      48780000       pea.l 0x0
          0x00480b7e      48780040       pea.l 0x40
          0x00480b82      4281           clr.l d1
          0x00480b84      1210           move.b (a0), d1
          0x00480b86      2f01           move.l d1, -(a7)
          0x00480b88      123900818548   move.b 0x818548, d1
          0x00480b8e      4881           ext.w d1
          0x00480b90      4383           chk.w d3, d1
          0x00480b92      1f01           move.b d1, -(a7)
          0x00480b94      4ebafac6       jsr MENUCOM.my_visible_str(pc)
          0x00480b98      defc0012       adda.w 0x12, a7
          0x00480b9c      486f0001       pea.l 0x1(a7)
          0x00480ba0      42a7           clr.l -(a7)
          0x00480ba2      1f6f00080003   move.b 0x8(a7), 0x3(a7)
          0x00480ba8      2f17           move.l (a7), -(a7)
          0x00480baa      4e92           jsr (a2)                    ; fcn.00000009+0x2
          0x00480bac      defc010c       adda.w 0x10c, a7
          0x00480bb0      2069003a       movea.l 0x3a(a1), a0
          0x00480bb4      b0c3           cmpa.w d3, a0
      < 0x00480bb6      6764           beq.b 0x480c1c
         0x00480bb8      b1e8fffc       cmpa.l -0x4(a0), a0
     < 0x00480bbc      6702           beq.b 0x480bc0
        0x00480bbe      4e4d           trap 0xd
     > 0x00480bc0      9efc0100       suba.w 0x100, a7
         0x00480bc4      4850           pea.l (a0)
         0x00480bc6      48780000       pea.l 0x0
         0x00480bca      48780040       pea.l 0x40
         0x00480bce      4281           clr.l d1
         0x00480bd0      1210           move.b (a0), d1
         0x00480bd2      2f01           move.l d1, -(a7)
         0x00480bd4      123900818548   move.b 0x818548, d1
         0x00480bda      4881           ext.w d1
         0x00480bdc      4383           chk.w d3, d1
         0x00480bde      1f01           move.b d1, -(a7)
         0x00480be0      4ebafa7a       jsr MENUCOM.my_visible_str(pc)
         0x00480be4      defc0010       adda.w 0x10, a7
         0x00480be8      1ebc0028       move.b 0x28, (a7)
         0x00480bec      48780001       pea.l 0x1
         0x00480bf0      4eb9004048b4   jsr p_wtc_o
         0x00480bf6      5c4f           addq.w 0x6, a7
         0x00480bf8      486f0001       pea.l 0x1(a7)
         0x00480bfc      42a7           clr.l -(a7)
         0x00480bfe      1f6f00080003   move.b 0x8(a7), 0x3(a7)
         0x00480c04      2f17           move.l (a7), -(a7)
         0x00480c06      4e92           jsr (a2)                    ; fcn.00000009+0x2
         0x00480c08      defc010a       adda.w 0x10a, a7
         0x00480c0c      1ebc0029       move.b 0x29, (a7)
         0x00480c10      48780001       pea.l 0x1
         0x00480c14      4eb9004048b4   jsr p_wtc_o
         0x00480c1a      5c4f           addq.w 0x6, a7
      > 0x00480c1c      4a690018       tst.w 0x18(a1)
      < 0x00480c20      6f6c           ble.b 0x480c8e
         0x00480c22      32290018       move.w 0x18(a1), d1
         0x00480c26      0c410020       cmpi.w 0x20, d1
     < 0x00480c2a      6d30           blt.b 0x480c5c
        0x00480c2c      32290018       move.w 0x18(a1), d1
        0x00480c30      0c41007f       cmpi.w 0x7f, d1
    < 0x00480c34      6e26           bgt.b 0x480c5c
       0x00480c36      487ae356       pea.l 0x47ef8e(pc)
       0x00480c3a      48780002       pea.l 0x2
       0x00480c3e      2f17           move.l (a7), -(a7)
       0x00480c40      4e92           jsr (a2)                    ; fcn.00000009+0x2
       0x00480c42      defc000a       adda.w 0xa, a7
       0x00480c46      1ea90019       move.b 0x19(a1), (a7)
       0x00480c4a      48780001       pea.l 0x1
       0x00480c4e      4eb9004048b4   jsr p_wtc_o
       0x00480c54      584f           addq.w 0x4, a7
       0x00480c56      1ebc0027       move.b 0x27, (a7)
   < 0x00480c5a      6026           bra.b 0x480c82
   > 0x00480c5c      487ae333       pea.l 0x47ef91(pc)
        0x00480c60      48780002       pea.l 0x2
        0x00480c64      2f17           move.l (a7), -(a7)
        0x00480c66      4e92           jsr (a2)                    ; fcn.00000009+0x2
        0x00480c68      dec2           adda.w d2, a7
        0x00480c6a      32290018       move.w 0x18(a1), d1
        0x00480c6e      48c1           ext.l d1
        0x00480c70      2f01           move.l d1, -(a7)
        0x00480c72      48780001       pea.l 0x1
        0x00480c76      4eb9004070e4   jsr p_wti_o
        0x00480c7c      5c4f           addq.w 0x6, a7
        0x00480c7e      1ebc003e       move.b 0x3e, (a7)
   > 0x00480c82      48780001       pea.l 0x1
         0x00480c86      4eb9004048b4   jsr p_wtc_o
         0x00480c8c      5c4f           addq.w 0x6, a7
    > 0x00480c8e      4a2e0008       tst.b 0x8(a6)
       < 0x00480c92      6706           beq.b 0x480c9a
          0x00480c94      4eb900404946   jsr p_wtln_o
       > 0x00480c9a      4cdf1f0f       movem.l (a7)+, d0-d3/a0-a4
           0x00480c9e      4e5e           unlk a6
           0x00480ca0      4e75           rts
            ; XREFS: CALL 0x004812fa  CALL 0x004814b0  CALL 0x004818de  
            ; XREFS: CALL 0x00481a50  CALL 0x00481bd4  CALL 0x00481cc8  
            ; XREFS: CALL 0x00481dc2  CALL 0x00481e6c  
 82: MENUCOM.soft_assert ();
           0x00480ca2      4e56ffec       link.w a6, 0xffec
           0x00480ca6      bfd5           cmpa.l (a5), a7
       < 0x00480ca8      6206           bhi.b 0x480cb0
          0x00480caa      44fc0002       move.w 0x2, ccr
          0x00480cae      4e76           trapv
       > 0x00480cb0      defc0014       adda.w 0x14, a7
           0x00480cb4      48e78000       movem.l d0, -(a7)
           0x00480cb8      487ae2da       pea.l 0x47ef94(pc)
           0x00480cbc      48780021       pea.l 0x21
           0x00480cc0      2f17           move.l (a7), -(a7)
           0x00480cc2      4eb9004047ea   jsr p_wts_o
           0x00480cc8      defc000c       adda.w 0xc, a7
           0x00480ccc      302e0008       move.w 0x8(a6), d0
           0x00480cd0      48c0           ext.l d0
           0x00480cd2      2f00           move.l d0, -(a7)
           0x00480cd4      48780000       pea.l 0x0
           0x00480cd8      4eb9004070e4   jsr p_wti_o
           0x00480cde      504f           addq.w 0x8, a7
           0x00480ce0      4eb900404946   jsr p_wtln_o
           0x00480ce6      4eb900401620   jsr p_walkback
           0x00480cec      4cdf0001       movem.l (a7)+, d0
           0x00480cf0      4e5e           unlk a6
           0x00480cf2      4e75           rts
            ; CALL XREFS from CNTLCOM.menu_palette_sw @ 0x47cc4e, 0x47cd14
 294: MENUCOM.box_located ();
           0x00480cf4      4e56ffb6       link.w a6, 0xffb6
           0x00480cf8      bfd5           cmpa.l (a5), a7
       < 0x00480cfa      6206           bhi.b 0x480d02
          0x00480cfc      44fc0002       move.w 0x2, ccr
          0x00480d00      4e76           trapv
       > 0x00480d02      defc0040       adda.w 0x40, a7
           0x00480d06      48e7f3f0       movem.l d0-d3/d6-d7/a0-a3, -(a7)
           0x00480d0a      45ee000c       lea.l 0xc(a6), a2
           0x00480d0e      47eefffc       lea.l -0x4(a6), a3
           0x00480d12      7401           moveq 0x1, d2
           0x00480d14      7602           moveq 0x2, d3
           0x00480d16      4a39008190e9   tst.b 0x8190e9
       < 0x00480d1c      6726           beq.b 0x480d44
          0x00480d1e      3012           move.w (a2), d0
          0x00480d20      48c0           ext.l d0
          0x00480d22      81c3           divs.w d3, d0
          0x00480d24      3480           move.w d0, (a2)
          0x00480d26      1239008190ea   move.b 0x8190ea, d1
          0x00480d2c      b202           cmp.b d2, d1
      < 0x00480d2e      6608           bne.b 0x480d38
         0x00480d30      48c0           ext.l d0
         0x00480d32      2200           move.l d0, d1
         0x00480d34      5881           addq.l 0x4, d1
         0x00480d36      3481           move.w d1, (a2)
      > 0x00480d38      302e000e       move.w 0xe(a6), d0
          0x00480d3c      48c0           ext.l d0
          0x00480d3e      81c3           divs.w d3, d0
          0x00480d40      3d40000e       move.w d0, 0xe(a6)
       > 0x00480d44      7e00           moveq 0x0, d7
           0x00480d46      7c00           moveq 0x0, d6
           0x00480d48      422e0010       clr.b 0x10(a6)
           0x00480d4c      1039008190e8   move.b 0x8190e8, d0
           0x00480d52      4880           ext.w d0
           0x00480d54      e540           asl.w 0x2, d0
           0x00480d56      41f9008101fe   lea.l 0x8101fe, a0
           0x00480d5c      41f00000       lea.l (a0, d0.w), a0
           0x00480d60      d1fc00008ef6   adda.l 0x8ef6, a0
           0x00480d66      2690           move.l (a0), (a3)
       > 0x00480d68      2053           movea.l (a3), a0
          0x00480d6a      b0c2           cmpa.w d2, a0
      < 0x00480d6c      670000a4       beq.w 0x480e12
         0x00480d70      203c0e000000   move.l 0xe000000, d0
         0x00480d76      c090           and.l (a0), d0
         0x00480d78      b0bae240       cmp.l 0x47efba(pc), d0
     < 0x00480d7c      6600008a       bne.w 0x480e08
        0x00480d80      554f           subq.w 0x2, a7
        0x00480d82      2f12           move.l (a2), -(a7)
        0x00480d84      4227           clr.b -(a7)
        0x00480d86      08100004       btst.b 0x4, (a0)
    < 0x00480d8a      6702           beq.b 0x480d8e
       0x00480d8c      5217           addq.b 0x1, (a7)
    > 0x00480d8e      48680006       pea.l 0x6(a0)
        0x00480d92      4eb90047bb88   jsr CNTLCOM.inside_box
        0x00480d98      defc000a       adda.w 0xa, a7
        0x00480d9c      4a1f           tst.b (a7)+
    < 0x00480d9e      6768           beq.b 0x480e08
       0x00480da0      5287           addq.l 0x1, d7
       0x00480da2      be82           cmp.l d2, d7
   < 0x00480da4      661a           bne.b 0x480dc0
      0x00480da6      7c00           moveq 0x0, d6
      0x00480da8      0828000e0001   btst.b 0xe, 0x1(a0)
  < 0x00480dae      6702           beq.b 0x480db2
     0x00480db0      5206           addq.b 0x1, d6
  > 0x00480db2      1d420010       move.b d2, 0x10(a6)
      0x00480db6      226e0008       movea.l 0x8(a6), a1
      0x00480dba      32a80016       move.w 0x16(a0), (a1)
  < 0x00480dbe      6048           bra.b 0x480e08
  > 0x00480dc0      4a06           tst.b d6
  < 0x00480dc2      6644           bne.b 0x480e08
     0x00480dc4      226e0008       movea.l 0x8(a6), a1
     0x00480dc8      3011           move.w (a1), d0
     0x00480dca      48c0           ext.l d0
     0x00480dcc      2f00           move.l d0, -(a7)
     0x00480dce      48780000       pea.l 0x0
     0x00480dd2      4eb9004070e4   jsr p_wti_o
     0x00480dd8      504f           addq.w 0x8, a7
     0x00480dda      487ae1e3       pea.l 0x47efbf(pc)
     0x00480dde      4878000b       pea.l 0xb
     0x00480de2      2f17           move.l (a7), -(a7)
     0x00480de4      4eb9004047ea   jsr p_wts_o
     0x00480dea      defc000c       adda.w 0xc, a7
     0x00480dee      30280016       move.w 0x16(a0), d0
     0x00480df2      48c0           ext.l d0
     0x00480df4      2f00           move.l d0, -(a7)
     0x00480df6      48780000       pea.l 0x0
     0x00480dfa      4eb9004070e4   jsr p_wti_o
     0x00480e00      504f           addq.w 0x8, a7
     0x00480e02      4eb900404946   jsr p_wtln_o
  > 0x00480e08      2253           movea.l (a3), a1
         0x00480e0a      26a90026       move.l 0x26(a1), (a3)
      < 0x00480e0e      6000ff58       bra.w 0x480d68
      > 0x00480e12      4cdf0fcf       movem.l (a7)+, d0-d3/d6-d7/a0-a3
           0x00480e16      4e5e           unlk a6
           0x00480e18      4e75           rts
            ; CALL XREF from MENUCOM.post_box @ 0x481918
            ; CALL XREF from MENUCOM.enable_box @ 0x4838c4
 224: MENUCOM.box_locatable ();
           0x00480e1a      4e56ffcc       link.w a6, 0xffcc
           0x00480e1e      bfd5           cmpa.l (a5), a7
       < 0x00480e20      6206           bhi.b 0x480e28
          0x00480e22      44fc0002       move.w 0x2, ccr
          0x00480e26      4e76           trapv
       > 0x00480e28      defc002c       adda.w 0x2c, a7
           0x00480e2c      48e7f8d8       movem.l d0-d4/a0-a1/a3-a4, -(a7)
           0x00480e30      43f9008101fe   lea.l 0x8101fe, a1
           0x00480e36      7207           moveq 0x7, d1
           0x00480e38      7401           moveq 0x1, d2
           0x00480e3a      760e           moveq 0xe, d3
           0x00480e3c      283c00008ef6   move.l 0x8ef6, d4
           0x00480e42      302e0008       move.w 0x8(a6), d0
           0x00480e46      48c0           ext.l d0
           0x00480e48      e580           asl.l 0x2, d0
           0x00480e4a      2049           movea.l a1, a0
           0x00480e4c      26700800       movea.l (a0, d0.l), a3
           0x00480e50      7000           moveq 0x0, d0
           0x00480e52      0313           btst.l d1, (a3)
       < 0x00480e54      6702           beq.b 0x480e58
          0x00480e56      5200           addq.b 0x1, d0
       > 0x00480e58      4880           ext.w d0
           0x00480e5a      e540           asl.w 0x2, d0
           0x00480e5c      2049           movea.l a1, a0
           0x00480e5e      41f00000       lea.l (a0, d0.w), a0
           0x00480e62      d1c4           adda.l d4, a0
           0x00480e64      2050           movea.l (a0), a0
           0x00480e66      b0c2           cmpa.w d2, a0
       < 0x00480e68      6618           bne.b 0x480e82
          0x00480e6a      7000           moveq 0x0, d0
          0x00480e6c      0313           btst.l d1, (a3)
      < 0x00480e6e      6702           beq.b 0x480e72
         0x00480e70      5200           addq.b 0x1, d0
    > 0x00480e72      4880           ext.w d0
        0x00480e74      e540           asl.w 0x2, d0
        0x00480e76      2049           movea.l a1, a0
        0x00480e78      41f00000       lea.l (a0, d0.w), a0
        0x00480e7c      d1c4           adda.l d4, a0
        0x00480e7e      208b           move.l a3, (a0)
    < 0x00480e80      6070           bra.b 0x480ef2
    > 0x00480e82      7000           moveq 0x0, d0
        0x00480e84      0313           btst.l d1, (a3)
    < 0x00480e86      6702           beq.b 0x480e8a
       0x00480e88      5200           addq.b 0x1, d0
    > 0x00480e8a      4880           ext.w d0
        0x00480e8c      e540           asl.w 0x2, d0
        0x00480e8e      2049           movea.l a1, a0
        0x00480e90      41f00000       lea.l (a0, d0.w), a0
        0x00480e94      d1c4           adda.l d4, a0
        0x00480e96      2850           movea.l (a0), a4
        0x00480e98      072b0001       btst.l d3, 0x1(a3)
    < 0x00480e9c      6716           beq.b 0x480eb4
       0x00480e9e      274c0026       move.l a4, 0x26(a3)
       0x00480ea2      2742002a       move.l d2, 0x2a(a3)
       0x00480ea6      294b002a       move.l a3, 0x2a(a4)
       0x00480eaa      7000           moveq 0x0, d0
       0x00480eac      0313           btst.l d1, (a3)
   < 0x00480eae      6702           beq.b 0x480eb2
      0x00480eb0      5200           addq.b 0x1, d0
   < 0x00480eb2      60be           bra.b 0x480e72
     > 0x00480eb4      072c0001       btst.l d3, 0x1(a4)
     < 0x00480eb8      6616           bne.b 0x480ed0
        0x00480eba      274c0026       move.l a4, 0x26(a3)
        0x00480ebe      2742002a       move.l d2, 0x2a(a3)
        0x00480ec2      294b002a       move.l a3, 0x2a(a4)
        0x00480ec6      7000           moveq 0x0, d0
        0x00480ec8      0313           btst.l d1, (a3)
    < 0x00480eca      6702           beq.b 0x480ece
       0x00480ecc      5200           addq.b 0x1, d0
    < 0x00480ece      60a2           bra.b 0x480e72
     > 0x00480ed0      072c0001       btst.l d3, 0x1(a4)
     < 0x00480ed4      6706           beq.b 0x480edc
        0x00480ed6      286c0026       movea.l 0x26(a4), a4
     < 0x00480eda      60f4           bra.b 0x480ed0
      > 0x00480edc      274c0026       move.l a4, 0x26(a3)
          0x00480ee0      276c002a002a   move.l 0x2a(a4), 0x2a(a3)
          0x00480ee6      206c002a       movea.l 0x2a(a4), a0
          0x00480eea      214b0026       move.l a3, 0x26(a0)
          0x00480eee      294b002a       move.l a3, 0x2a(a4)
      > 0x00480ef2      4cdf1b1f       movem.l (a7)+, d0-d4/a0-a1/a3-a4
           0x00480ef6      4e5e           unlk a6
           0x00480ef8      4e75           rts
            ; CALL XREF from MENUCOM.unpost_box @ 0x481c12
            ; CALL XREF from MENUCOM.hide_box @ 0x482350
            ; CALL XREF from MENUCOM.disable_box @ 0x48395e
 120: MENUCOM.box_not_locatab ();
           0x00480efa      4e56ffd8       link.w a6, 0xffd8
           0x00480efe      bfd5           cmpa.l (a5), a7
       < 0x00480f00      6206           bhi.b 0x480f08
          0x00480f02      44fc0002       move.w 0x2, ccr
          0x00480f06      4e76           trapv
       > 0x00480f08      defc0024       adda.w 0x24, a7
           0x00480f0c      48e7c0e8       movem.l d0-d1/a0-a2/a4, -(a7)
           0x00480f10      45f9008101fe   lea.l 0x8101fe, a2
           0x00480f16      7201           moveq 0x1, d1
           0x00480f18      302e0008       move.w 0x8(a6), d0
           0x00480f1c      48c0           ext.l d0
           0x00480f1e      e580           asl.l 0x2, d0
           0x00480f20      204a           movea.l a2, a0
           0x00480f22      28700800       movea.l (a0, d0.l), a4
           0x00480f26      206c002a       movea.l 0x2a(a4), a0
           0x00480f2a      b0c1           cmpa.w d1, a0
       < 0x00480f2c      6620           bne.b 0x480f4e
          0x00480f2e      7000           moveq 0x0, d0
          0x00480f30      08140007       btst.b 0x7, (a4)
      < 0x00480f34      6702           beq.b 0x480f38
         0x00480f36      5200           addq.b 0x1, d0
      > 0x00480f38      4880           ext.w d0
          0x00480f3a      e540           asl.w 0x2, d0
          0x00480f3c      224a           movea.l a2, a1
          0x00480f3e      43f10000       lea.l (a1, d0.w), a1
          0x00480f42      d3fc00008ef6   adda.l 0x8ef6, a1
          0x00480f48      22ac0026       move.l 0x26(a4), (a1)
      < 0x00480f4c      6006           bra.b 0x480f54
      > 0x00480f4e      216c00260026   move.l 0x26(a4), 0x26(a0)
      > 0x00480f54      206c0026       movea.l 0x26(a4), a0
           0x00480f58      b0c1           cmpa.w d1, a0
       < 0x00480f5a      6706           beq.b 0x480f62
          0x00480f5c      216c002a002a   move.l 0x2a(a4), 0x2a(a0)
       > 0x00480f62      2941002a       move.l d1, 0x2a(a4)
           0x00480f66      29410026       move.l d1, 0x26(a4)
           0x00480f6a      4cdf1703       movem.l (a7)+, d0-d1/a0-a2/a4
           0x00480f6e      4e5e           unlk a6
           0x00480f70      4e75           rts
            ; XREFS(41)
 80: MENUCOM.active_box ();
           0x00480f72      4e56ffe0       link.w a6, 0xffe0
           0x00480f76      bfd5           cmpa.l (a5), a7
       < 0x00480f78      6206           bhi.b 0x480f80
          0x00480f7a      44fc0002       move.w 0x2, ccr
          0x00480f7e      4e76           trapv
       > 0x00480f80      defc0020       adda.w 0x20, a7
           0x00480f84      48e780e0       movem.l d0/a0-a2, -(a7)
           0x00480f88      45ee000a       lea.l 0xa(a6), a2
           0x00480f8c      302e0008       move.w 0x8(a6), d0
           0x00480f90      48c0           ext.l d0
           0x00480f92      e580           asl.l 0x2, d0
           0x00480f94      41f9008101fe   lea.l 0x8101fe, a0
           0x00480f9a      22700800       movea.l (a0, d0.l), a1
           0x00480f9e      b2fc0001       cmpa.w 0x1, a1
       < 0x00480fa2      6604           bne.b 0x480fa8
          0x00480fa4      4212           clr.b (a2)
      < 0x00480fa6      6012           bra.b 0x480fba
      > 0x00480fa8      4212           clr.b (a2)
          0x00480faa      2011           move.l (a1), d0
          0x00480fac      02800d000000   andi.l 0xd000000, d0
          0x00480fb2      b0bae01a       cmp.l 0x47efce(pc), d0
      < 0x00480fb6      6602           bne.b 0x480fba
         0x00480fb8      5212           addq.b 0x1, (a2)
      > 0x00480fba      4cdf0701       movem.l (a7)+, d0/a0-a2
           0x00480fbe      4e5e           unlk a6
           0x00480fc0      4e75           rts
            ; XREFS(719)
 72: MENUCOM.get_boxon ();
           0x00480fc2      4e56ffe0       link.w a6, 0xffe0
           0x00480fc6      bfd5           cmpa.l (a5), a7
       < 0x00480fc8      6206           bhi.b 0x480fd0
          0x00480fca      44fc0002       move.w 0x2, ccr
          0x00480fce      4e76           trapv
       > 0x00480fd0      defc0020       adda.w 0x20, a7
           0x00480fd4      48e780e0       movem.l d0/a0-a2, -(a7)
           0x00480fd8      45ee000a       lea.l 0xa(a6), a2
           0x00480fdc      302e0008       move.w 0x8(a6), d0
           0x00480fe0      48c0           ext.l d0
           0x00480fe2      e580           asl.l 0x2, d0
           0x00480fe4      41f9008101fe   lea.l 0x8101fe, a0
           0x00480fea      22700800       movea.l (a0, d0.l), a1
           0x00480fee      b2fc0001       cmpa.w 0x1, a1
       < 0x00480ff2      6604           bne.b 0x480ff8
          0x00480ff4      4212           clr.b (a2)
      < 0x00480ff6      600a           bra.b 0x481002
      > 0x00480ff8      4212           clr.b (a2)
          0x00480ffa      08110000       btst.b 0x0, (a1)
      < 0x00480ffe      6702           beq.b 0x481002
         0x00481000      5212           addq.b 0x1, (a2)
      > 0x00481002      4cdf0701       movem.l (a7)+, d0/a0-a2
           0x00481006      4e5e           unlk a6
           0x00481008      4e75           rts
            ; CALL XREF from MENUPAINTCOM.hit_rgb_boxes @ 0x4b0612
            ; CALL XREF from MENUCRLCOM.update_view_bar @ 0x7193c6
            ; CALL XREF from MENULIBFNDCOM.hit_numpad_in_l @ 0x758b02
            ; CALL XREF from MENULIBFNDCOM.found_pressed_m @ 0x759ed2
 72: MENUCOM.box_enabled ();
           0x0048100a      4e56ffe0       link.w a6, 0xffe0
           0x0048100e      bfd5           cmpa.l (a5), a7
       < 0x00481010      6206           bhi.b 0x481018
          0x00481012      44fc0002       move.w 0x2, ccr
          0x00481016      4e76           trapv
       > 0x00481018      defc0020       adda.w 0x20, a7
           0x0048101c      48e780e0       movem.l d0/a0-a2, -(a7)
           0x00481020      45ee000a       lea.l 0xa(a6), a2
           0x00481024      302e0008       move.w 0x8(a6), d0
           0x00481028      48c0           ext.l d0
           0x0048102a      e580           asl.l 0x2, d0
           0x0048102c      41f9008101fe   lea.l 0x8101fe, a0
           0x00481032      22700800       movea.l (a0, d0.l), a1
           0x00481036      b2fc0001       cmpa.w 0x1, a1
       < 0x0048103a      6604           bne.b 0x481040
          0x0048103c      4212           clr.b (a2)
      < 0x0048103e      600a           bra.b 0x48104a
      > 0x00481040      4212           clr.b (a2)
          0x00481042      08110002       btst.b 0x2, (a1)
      < 0x00481046      6702           beq.b 0x48104a
         0x00481048      5212           addq.b 0x1, (a2)
      > 0x0048104a      4cdf0701       movem.l (a7)+, d0/a0-a2
           0x0048104e      4e5e           unlk a6
           0x00481050      4e75           rts
            ; CALL XREF from MENUKEYBDCOM.draw_keypad @ 0x4a28c6
            ; CALL XREF from MENULIBCOM @ +0x6390
 80: MENUCOM.box_on_view ();
           0x00481052      4e56ffdc       link.w a6, 0xffdc
           0x00481056      bfd5           cmpa.l (a5), a7
       < 0x00481058      6206           bhi.b 0x481060
          0x0048105a      44fc0002       move.w 0x2, ccr
          0x0048105e      4e76           trapv
       > 0x00481060      defc0024       adda.w 0x24, a7
           0x00481064      48e780e0       movem.l d0/a0-a2, -(a7)
           0x00481068      45ee000a       lea.l 0xa(a6), a2
           0x0048106c      302e0008       move.w 0x8(a6), d0
           0x00481070      48c0           ext.l d0
           0x00481072      e580           asl.l 0x2, d0
           0x00481074      41f9008101fe   lea.l 0x8101fe, a0
           0x0048107a      22700800       movea.l (a0, d0.l), a1
           0x0048107e      b2fc0001       cmpa.w 0x1, a1
       < 0x00481082      6604           bne.b 0x481088
          0x00481084      4212           clr.b (a2)
      < 0x00481086      6012           bra.b 0x48109a
      > 0x00481088      4212           clr.b (a2)
          0x0048108a      203c0c000000   move.l 0xc000000, d0
          0x00481090      c091           and.l (a1), d0
          0x00481092      b0badf42       cmp.l 0x47efd6(pc), d0
      < 0x00481096      6602           bne.b 0x48109a
         0x00481098      5212           addq.b 0x1, (a2)
      > 0x0048109a      4cdf0701       movem.l (a7)+, d0/a0-a2
           0x0048109e      4e5e           unlk a6
           0x004810a0      4e75           rts
            ; CALL XREF from MENUKEYBDCOM.draw_title_box @ 0x4a48c6
            ; CALL XREF from MENUKEYBDCOM.hit_font_select @ 0x4a65dc
            ; CALL XREF from MENUKEYBDCOM.hit_font_group_ @ 0x4a6bcc
            ; CALL XREF from MENUKEYBDCOM.hit_char_view_b @ 0x4a76a0
            ; CALL XREF from MENUDISKSCOM.draw_used_box @ 0x4e4e92
 172: MENUCOM.box_draw_data (int32_t arg_45h);
           ; var int32_t var_43h @ a7+0x43
           ; var int32_t arg_44h @ a7+0x44
           ; arg int32_t arg_45h @ a7+0x45
           0x004810a2      4e56ffbc       link.w a6, 0xffbc
           0x004810a6      bfd5           cmpa.l (a5), a7
       < 0x004810a8      6206           bhi.b 0x4810b0
          0x004810aa      44fc0002       move.w 0x2, ccr
          0x004810ae      4e76           trapv
       > 0x004810b0      defc0044       adda.w 0x44, a7
           0x004810b4      48e7e0f8       movem.l d0-d2/a0-a4, -(a7)
           0x004810b8      7401           moveq 0x1, d2
           0x004810ba      302e0014       move.w 0x14(a6), d0
           0x004810be      48c0           ext.l d0
           0x004810c0      e580           asl.l 0x2, d0
           0x004810c2      41f9008101fe   lea.l 0x8101fe, a0
           0x004810c8      22700800       movea.l (a0, d0.l), a1
           0x004810cc      08110000       btst.b 0x0, (a1)
       < 0x004810d0      6712           beq.b 0x4810e4
          0x004810d2      246e000c       movea.l 0xc(a6), a2
          0x004810d6      47fad6a2       lea.l 0x47e77a(pc), a3
          0x004810da      7205           moveq 0x5, d1
      > 0x004810dc      14db           move.b (a3)+, (a2)+
      < 0x004810de      51c9fffc       dbra d1, 0x4810dc
      < 0x004810e2      6010           bra.b 0x4810f4
      > 0x004810e4      246e000c       movea.l 0xc(a6), a2
          0x004810e8      47e9000e       lea.l 0xe(a1), a3
          0x004810ec      7205           moveq 0x5, d1
      > 0x004810ee      14db           move.b (a3)+, (a2)+
      < 0x004810f0      51c9fffc       dbra d1, 0x4810ee
      > 0x004810f4      246e0010       movea.l 0x10(a6), a2
           0x004810f8      47e90006       lea.l 0x6(a1), a3
           0x004810fc      7207           moveq 0x7, d1
       > 0x004810fe      14db           move.b (a3)+, (a2)+
       < 0x00481100      51c9fffc       dbra d1, 0x4810fe
           0x00481104      24690036       movea.l 0x36(a1), a2
           0x00481108      b4c2           cmpa.w d2, a2
       < 0x0048110a      6632           bne.b 0x48113e
          0x0048110c      47f00800       lea.l (a0, d0.l), a3
          0x00481110      286b41a6       movea.l 0x41a6(a3), a4
          0x00481114      b8c2           cmpa.w d2, a4
      < 0x00481116      6708           beq.b 0x481120
         0x00481118      266e0008       movea.l 0x8(a6), a3
         0x0048111c      2f0c           move.l a4, -(a7)
     < 0x0048111e      6024           bra.b 0x481144
     > 0x00481120      266e0008       movea.l 0x8(a6), a3
         0x00481124      594f           subq.w 0x4, a7
         0x00481126      1ea90042       move.b 0x42(a1), (a7)
         0x0048112a      1f6900430001   move.b 0x43(a1), 0x1(a7)
         0x00481130      1f6900440002   move.b 0x44(a1), 0x2(a7)
         0x00481136      1f6900450003   move.b 0x45(a1), 0x3(a7)
     < 0x0048113c      6006           bra.b 0x481144
     > 0x0048113e      266e0008       movea.l 0x8(a6), a3
         0x00481142      2f0a           move.l a2, -(a7)
     > 0x00481144      269f           move.l (a7)+, (a3)
           0x00481146      4cdf1f07       movem.l (a7)+, d0-d2/a0-a4
           0x0048114a      4e5e           unlk a6
           0x0048114c      4e75           rts
            ; XREFS: CALL 0x004920fe  CALL 0x004a4898  CALL 0x007192a6  
            ; XREFS: CALL 0x007193b0  CALL 0x00721332  CALL 0x00726964  
            ; XREFS: CALL 0x0079a2a2  
 72: MENUCOM.get_box_posted ();
           0x0048114e      4e56ffe0       link.w a6, 0xffe0
           0x00481152      bfd5           cmpa.l (a5), a7
       < 0x00481154      6206           bhi.b 0x48115c
          0x00481156      44fc0002       move.w 0x2, ccr
          0x0048115a      4e76           trapv
       > 0x0048115c      defc0020       adda.w 0x20, a7
           0x00481160      48e780e0       movem.l d0/a0-a2, -(a7)
           0x00481164      45ee000a       lea.l 0xa(a6), a2
           0x00481168      302e0008       move.w 0x8(a6), d0
           0x0048116c      48c0           ext.l d0
           0x0048116e      e580           asl.l 0x2, d0
           0x00481170      41f9008101fe   lea.l 0x8101fe, a0
           0x00481176      22700800       movea.l (a0, d0.l), a1
           0x0048117a      b2fc0001       cmpa.w 0x1, a1
       < 0x0048117e      6604           bne.b 0x481184
          0x00481180      4212           clr.b (a2)
      < 0x00481182      600a           bra.b 0x48118e
      > 0x00481184      4212           clr.b (a2)
          0x00481186      08110003       btst.b 0x3, (a1)
      < 0x0048118a      6702           beq.b 0x48118e
         0x0048118c      5212           addq.b 0x1, (a2)
      > 0x0048118e      4cdf0701       movem.l (a7)+, d0/a0-a2
           0x00481192      4e5e           unlk a6
           0x00481194      4e75           rts
            ; XREFS(29)
 64: MENUCOM.get_boxcol ();
           0x00481196      4e56fff0       link.w a6, 0xfff0
           0x0048119a      bfd5           cmpa.l (a5), a7
       < 0x0048119c      6206           bhi.b 0x4811a4
          0x0048119e      44fc0002       move.w 0x2, ccr
          0x004811a2      4e76           trapv
       > 0x004811a4      defc0010       adda.w 0x10, a7
           0x004811a8      48e780c0       movem.l d0/a0-a1, -(a7)
           0x004811ac      302e0008       move.w 0x8(a6), d0
           0x004811b0      48c0           ext.l d0
           0x004811b2      e580           asl.l 0x2, d0
           0x004811b4      41f9008101fe   lea.l 0x8101fe, a0
           0x004811ba      20700800       movea.l (a0, d0.l), a0
           0x004811be      43ee000a       lea.l 0xa(a6), a1
           0x004811c2      41e8000e       lea.l 0xe(a0), a0
           0x004811c6      7005           moveq 0x5, d0
       > 0x004811c8      12d8           move.b (a0)+, (a1)+
       < 0x004811ca      51c8fffc       dbra d0, 0x4811c8
           0x004811ce      4cdf0301       movem.l (a7)+, d0/a0-a1
           0x004811d2      4e5e           unlk a6
           0x004811d4      4e75           rts
            ; XREFS(31)
 64: MENUCOM.get_boxarea ();
           0x004811d6      4e56fff0       link.w a6, 0xfff0
           0x004811da      bfd5           cmpa.l (a5), a7
       < 0x004811dc      6206           bhi.b 0x4811e4
          0x004811de      44fc0002       move.w 0x2, ccr
          0x004811e2      4e76           trapv
       > 0x004811e4      defc0010       adda.w 0x10, a7
           0x004811e8      48e780c0       movem.l d0/a0-a1, -(a7)
           0x004811ec      302e0008       move.w 0x8(a6), d0
           0x004811f0      48c0           ext.l d0
           0x004811f2      e580           asl.l 0x2, d0
           0x004811f4      41f9008101fe   lea.l 0x8101fe, a0
           0x004811fa      20700800       movea.l (a0, d0.l), a0
           0x004811fe      43ee000a       lea.l 0xa(a6), a1
           0x00481202      41e80006       lea.l 0x6(a0), a0
           0x00481206      7007           moveq 0x7, d0
       > 0x00481208      12d8           move.b (a0)+, (a1)+
       < 0x0048120a      51c8fffc       dbra d0, 0x481208
           0x0048120e      4cdf0301       movem.l (a7)+, d0/a0-a1
           0x00481212      4e5e           unlk a6
           0x00481214      4e75           rts
            ; XREFS: CALL 0x0048b39e  CALL 0x0048c3c8  CALL 0x0048c43e  
            ; XREFS: CALL 0x0048c6d4  CALL 0x0048c786  CALL 0x0048cf0c  
            ; XREFS: CALL 0x0048d4e0  CALL 0x0048d500  CALL 0x0048dbec  
            ; XREFS: CALL 0x0048dc8a  CALL 0x0048dcaa  CALL 0x0079a0ac  
 54: MENUCOM.get_boxtype (int32_t arg_4h);
           ; arg int32_t arg_4h @ a6+0x4
           0x00481216      4e56fff4       link.w a6, 0xfff4
           0x0048121a      bfd5           cmpa.l (a5), a7
       < 0x0048121c      6206           bhi.b 0x481224
          0x0048121e      44fc0002       move.w 0x2, ccr
          0x00481222      4e76           trapv
       > 0x00481224      defc000c       adda.w 0xc, a7
           0x00481228      48e78080       movem.l d0/a0, -(a7)
           0x0048122c      302e0008       move.w 0x8(a6), d0
           0x00481230      48c0           ext.l d0
           0x00481232      e580           asl.l 0x2, d0
           0x00481234      41f9008101fe   lea.l 0x8101fe, a0
           0x0048123a      20700800       movea.l (a0, d0.l), a0
           0x0048123e      1d680004000a   move.b 0x4(a0), 0xa(a6)
           0x00481244      4cdf0101       movem.l (a7)+, d0/a0
           0x00481248      4e5e           unlk a6
           0x0048124a      4e75           rts
            ; XREFS: CALL 0x004ad714  CALL 0x004fa37c  CALL 0x004fa3c0  
            ; XREFS: CALL 0x004fb426  CALL 0x007192bc  CALL 0x007193dc  
            ; XREFS: CALL 0x00721344  CALL 0x0072697a  CALL 0x0073f628  
            ; XREFS: CALL 0x00744cd8  CALL 0x0074a49e  
 64: MENUCOM.box_info ();
           0x0048124c      4e56fff0       link.w a6, 0xfff0
           0x00481250      bfd5           cmpa.l (a5), a7
       < 0x00481252      6206           bhi.b 0x48125a
          0x00481254      44fc0002       move.w 0x2, ccr
          0x00481258      4e76           trapv
       > 0x0048125a      defc0010       adda.w 0x10, a7
           0x0048125e      48e780c0       movem.l d0/a0-a1, -(a7)
           0x00481262      206e0008       movea.l 0x8(a6), a0
           0x00481266      302e000c       move.w 0xc(a6), d0
           0x0048126a      48c0           ext.l d0
           0x0048126c      e580           asl.l 0x2, d0
           0x0048126e      43f9008101fe   lea.l 0x8101fe, a1
           0x00481274      22710800       movea.l (a1, d0.l), a1
           0x00481278      43e90006       lea.l 0x6(a1), a1
           0x0048127c      7007           moveq 0x7, d0
       > 0x0048127e      10d9           move.b (a1)+, (a0)+
       < 0x00481280      51c8fffc       dbra d0, 0x48127e
           0x00481284      4cdf0301       movem.l (a7)+, d0/a0-a1
           0x00481288      4e5e           unlk a6
           0x0048128a      4e75           rts
            ; XREFS(96)
 258: MENUCOM.box_action ();
           ; var int32_t var_8h @ a7+0x8
           0x0048128c      4e56febc       link.w a6, 0xfebc
           0x00481290      bfd5           cmpa.l (a5), a7
       < 0x00481292      6206           bhi.b 0x48129a
          0x00481294      44fc0002       move.w 0x2, ccr
          0x00481298      4e76           trapv
       > 0x0048129a      defc0144       adda.w 0x144, a7
           0x0048129e      48e7e0f8       movem.l d0-d2/a0-a4, -(a7)
           0x004812a2      45f9004047ea   lea.l p_wts_o, a2
           0x004812a8      47f80000       lea.l 0x0, a3
           0x004812ac      49f9004070e4   lea.l p_wti_o, a4
           0x004812b2      740c           moveq 0xc, d2
           0x004812b4      302e000c       move.w 0xc(a6), d0
           0x004812b8      48c0           ext.l d0
           0x004812ba      2200           move.l d0, d1
           0x004812bc      e581           asl.l 0x2, d1
           0x004812be      41f9008101fe   lea.l 0x8101fe, a0
           0x004812c4      22701800       movea.l (a0, d1.l), a1
           0x004812c8      b2fc0001       cmpa.w 0x1, a1
       < 0x004812cc      6636           bne.b 0x481304
          0x004812ce      487add0b       pea.l 0x47efdb(pc)
          0x004812d2      48780007       pea.l 0x7
          0x004812d6      2f17           move.l (a7), -(a7)
          0x004812d8      4e92           jsr (a2)                    ; fcn.00000009+0x2
          0x004812da      504f           addq.w 0x8, a7
          0x004812dc      2e80           move.l d0, (a7)
          0x004812de      4853           pea.l (a3)
          0x004812e0      4e94           jsr (a4)                    ; fcn.0000000d
          0x004812e2      504f           addq.w 0x8, a7
          0x004812e4      487adcfd       pea.l 0x47efe3(pc)
          0x004812e8      4878000e       pea.l 0xe
          0x004812ec      2f17           move.l (a7), -(a7)
          0x004812ee      4e92           jsr (a2)                    ; fcn.00000009+0x2
          0x004812f0      dec2           adda.w d2, a7
          0x004812f2      4eb900404946   jsr p_wtln_o
          0x004812f8      3f00           move.w d0, -(a7)
          0x004812fa      4ebaf9a6       jsr MENUCOM.soft_assert(pc)
          0x004812fe      544f           addq.w 0x2, a7
      < 0x00481300      60000084       bra.w 0x481386
      > 0x00481304      08110005       btst.b 0x5, (a1)
      < 0x00481308      6768           beq.b 0x481372
         0x0048130a      9efc0100       suba.w 0x100, a7
         0x0048130e      3f2e0008       move.w 0x8(a6), -(a7)
         0x00481312      4ebaeafc       jsr MENUCOM.param_str(pc)
         0x00481316      544f           addq.w 0x2, a7
         0x00481318      487adcd8       pea.l 0x47eff2(pc)
         0x0048131c      4878000d       pea.l 0xd
         0x00481320      2f17           move.l (a7), -(a7)
         0x00481322      4e92           jsr (a2)                    ; fcn.00000009+0x2
         0x00481324      dec2           adda.w d2, a7
         0x00481326      486f0001       pea.l 0x1(a7)
         0x0048132a      42a7           clr.l -(a7)
         0x0048132c      1f6f00080003   move.b 0x8(a7), 0x3(a7)
         0x00481332      2f17           move.l (a7), -(a7)
         0x00481334      4e92           jsr (a2)                    ; fcn.00000009+0x2
         0x00481336      defc010c       adda.w 0x10c, a7
         0x0048133a      487adcc4       pea.l 0x47f000(pc)
         0x0048133e      48780004       pea.l 0x4
         0x00481342      2f17           move.l (a7), -(a7)
         0x00481344      4e92           jsr (a2)                    ; fcn.00000009+0x2
         0x00481346      504f           addq.w 0x8, a7
         0x00481348      2e80           move.l d0, (a7)
         0x0048134a      4853           pea.l (a3)
         0x0048134c      4e94           jsr (a4)                    ; fcn.0000000d
         0x0048134e      504f           addq.w 0x8, a7
         0x00481350      487adcb3       pea.l 0x47f005(pc)
         0x00481354      48780006       pea.l 0x6
         0x00481358      2f17           move.l (a7), -(a7)
         0x0048135a      4e92           jsr (a2)                    ; fcn.00000009+0x2
         0x0048135c      dec2           adda.w d2, a7
         0x0048135e      322e000a       move.w 0xa(a6), d1
         0x00481362      48c1           ext.l d1
         0x00481364      2f01           move.l d1, -(a7)
         0x00481366      4853           pea.l (a3)
         0x00481368      4e94           jsr (a4)                    ; fcn.0000000d
         0x0048136a      504f           addq.w 0x8, a7
         0x0048136c      4eb900404946   jsr p_wtln_o
      > 0x00481372      2f290032       move.l 0x32(a1), -(a7)
          0x00481376      3f2e000a       move.w 0xa(a6), -(a7)
          0x0048137a      3f2e0008       move.w 0x8(a6), -(a7)
          0x0048137e      4eb90047e700   jsr fcn.0047e700
          0x00481384      504f           addq.w 0x8, a7
      > 0x00481386      4cdf1f07       movem.l (a7)+, d0-d2/a0-a4
           0x0048138a      4e5e           unlk a6
           0x0048138c      4e75           rts
            ; CALL XREF from MENUCOM.draw_box @ 0x48151e
 228: MENUCOM.kick_obscured_b ();
           0x0048138e      4e56ffb4       link.w a6, 0xffb4
           0x00481392      bfd5           cmpa.l (a5), a7
       < 0x00481394      6206           bhi.b 0x48139c
          0x00481396      44fc0002       move.w 0x2, ccr
          0x0048139a      4e76           trapv
       > 0x0048139c      defc0040       adda.w 0x40, a7
           0x004813a0      48e7fcd0       movem.l d0-d5/a0-a1/a3, -(a7)
           0x004813a4      43f9008101fe   lea.l 0x8101fe, a1
           0x004813aa      514f           subq.w 0x8, a7
           0x004813ac      3f2e0008       move.w 0x8(a6), -(a7)
           0x004813b0      4ebafe24       jsr MENUCOM.get_boxarea(pc)
           0x004813b4      544f           addq.w 0x2, a7
           0x004813b6      2d5ffff4       move.l (a7)+, -0xc(a6)
           0x004813ba      2d5ffff8       move.l (a7)+, -0x8(a6)
           0x004813be      7000           moveq 0x0, d0
           0x004813c0      322c0022       move.w 0x22(a4), d1
           0x004813c4      48c1           ext.l d1
           0x004813c6      e581           asl.l 0x2, d1
           0x004813c8      2049           movea.l a1, a0
           0x004813ca      20701800       movea.l (a0, d1.l), a0
           0x004813ce      08100007       btst.b 0x7, (a0)
       < 0x004813d2      6702           beq.b 0x4813d6
          0x004813d4      5200           addq.b 0x1, d0
       > 0x004813d6      4880           ext.w d0
           0x004813d8      e540           asl.w 0x2, d0
           0x004813da      2049           movea.l a1, a0
           0x004813dc      41f00000       lea.l (a0, d0.w), a0
           0x004813e0      d1fc00008ef6   adda.l 0x8ef6, a0
           0x004813e6      2650           movea.l (a0), a3
           0x004813e8      302efff4       move.w -0xc(a6), d0
           0x004813ec      48c0           ext.l d0
           0x004813ee      2200           move.l d0, d1
           0x004813f0      5581           subq.l 0x2, d1
       > 0x004813f2      b6fc0001       cmpa.w 0x1, a3
      < 0x004813f6      6772           beq.b 0x48146a
         0x004813f8      243c0e020000   move.l 0xe020000, d2
         0x004813fe      c493           and.l (a3), d2
         0x00481400      b4badc0e       cmp.l 0x47f010(pc), d2
     < 0x00481404      665e           bne.b 0x481464
        0x00481406      342b0006       move.w 0x6(a3), d2
        0x0048140a      48c2           ext.l d2
        0x0048140c      362b000a       move.w 0xa(a3), d3
        0x00481410      48c3           ext.l d3
        0x00481412      d682           add.l d2, d3
        0x00481414      b283           cmp.l d3, d1
    < 0x00481416      6c4c           bge.b 0x481464
       0x00481418      362efff8       move.w -0x8(a6), d3
       0x0048141c      48c3           ext.l d3
       0x0048141e      d680           add.l d0, d3
       0x00481420      5483           addq.l 0x2, d3
       0x00481422      b682           cmp.l d2, d3
   < 0x00481424      6f3e           ble.b 0x481464
      0x00481426      362efff6       move.w -0xa(a6), d3
      0x0048142a      48c3           ext.l d3
      0x0048142c      382b000c       move.w 0xc(a3), d4
      0x00481430      48c4           ext.l d4
      0x00481432      d883           add.l d3, d4
      0x00481434      2a03           move.l d3, d5
      0x00481436      5585           subq.l 0x2, d5
      0x00481438      ba84           cmp.l d4, d5
  < 0x0048143a      6c28           bge.b 0x481464
     0x0048143c      382efffa       move.w -0x6(a6), d4
     0x00481440      48c4           ext.l d4
     0x00481442      d883           add.l d3, d4
     0x00481444      5484           addq.l 0x2, d4
     0x00481446      3a2b0008       move.w 0x8(a3), d5
     0x0048144a      48c5           ext.l d5
     0x0048144c      b885           cmp.l d5, d4
 < 0x0048144e      6f14           ble.b 0x481464
    0x00481450      2f2b0032       move.l 0x32(a3), -(a7)
    0x00481454      3f2e0008       move.w 0x8(a6), -(a7)
    0x00481458      3f3c0036       move.w 0x36, -(a7)
    0x0048145c      4eb90047e700   jsr fcn.0047e700
    0x00481462      504f           addq.w 0x8, a7
 > 0x00481464      266b0026       movea.l 0x26(a3), a3
      < 0x00481468      6088           bra.b 0x4813f2
      > 0x0048146a      4cdf0b3f       movem.l (a7)+, d0-d5/a0-a1/a3
           0x0048146e      4e5e           unlk a6
           0x00481470      4e75           rts
            ; XREFS(57)
 1082: MENUCOM.draw_box (int32_t arg_6h, int32_t arg_ah);
           ; var int32_t var_2e2eh @ a6-0x2e2e
           ; var int32_t var_2e2ch @ a6-0x2e2c
           ; arg int32_t arg_6h @ a6+0x6
           ; arg int32_t arg_ah @ a6+0xa
           ; var int32_t var_43h @ a7+0x43
           ; var int32_t var_44h @ a7+0x44
           ; var int32_t var_45h @ a7+0x45
           0x00481472      4e56fe96       link.w a6, 0xfe96
           0x00481476      bfd5           cmpa.l (a5), a7
       < 0x00481478      6206           bhi.b 0x481480
          0x0048147a      44fc0002       move.w 0x2, ccr
          0x0048147e      4e76           trapv
       > 0x00481480      defc0150       adda.w 0x150, a7
           0x00481484      48e7fff8       movem.l d0-d7/a0-a4, -(a7)
           0x00481488      7607           moveq 0x7, d3
           0x0048148a      7801           moveq 0x1, d4
           0x0048148c      7a03           moveq 0x3, d5
           0x0048148e      2c3c00008eee   move.l 0x8eee, d6
           0x00481494      7e16           moveq 0x16, d7
           0x00481496      302e0008       move.w 0x8(a6), d0
           0x0048149a      48c0           ext.l d0
           0x0048149c      2200           move.l d0, d1
           0x0048149e      e581           asl.l 0x2, d1
           0x004814a0      41f9008101fe   lea.l 0x8101fe, a0
           0x004814a6      22701800       movea.l (a0, d1.l), a1
           0x004814aa      b2c4           cmpa.w d4, a1
       < 0x004814ac      660c           bne.b 0x4814ba
          0x004814ae      3f00           move.w d0, -(a7)
          0x004814b0      4ebaf7f0       jsr MENUCOM.soft_assert(pc)
          0x004814b4      544f           addq.w 0x2, a7
      < 0x004814b6      600003ec       bra.w 0x4818a4
      > 0x004814ba      2f09           move.l a1, -(a7)
          0x004814bc      223c0e000000   move.l 0xe000000, d1
          0x004814c2      c291           and.l (a1), d1
          0x004814c4      b2badb52       cmp.l 0x47f018(pc), d1
      < 0x004814c8      6706           beq.b 0x4814d0
         0x004814ca      584f           addq.w 0x4, a7
     < 0x004814cc      600003d6       bra.w 0x4818a4
     > 0x004814d0      08110005       btst.b 0x5, (a1)
     < 0x004814d4      6720           beq.b 0x4814f6
        0x004814d6      9efc00fc       suba.w 0xfc, a7
        0x004814da      2f3adb40       move.l 0x47f01c(pc), -(a7)
        0x004814de      2f7adb400004   move.l 0x47f020(pc), 0x4(a7)
        0x004814e4      3f7adb3e0008   move.w 0x47f024(pc), 0x8(a7)
        0x004814ea      3f00           move.w d0, -(a7)
        0x004814ec      1f04           move.b d4, -(a7)
        0x004814ee      4ebaf3e2       jsr MENUCOM.show_box(pc)
        0x004814f2      defc0104       adda.w 0x104, a7
     > 0x004814f6      082900090001   btst.b 0x9, 0x1(a1)
     < 0x004814fc      6712           beq.b 0x481510
        0x004814fe      2f290032       move.l 0x32(a1), -(a7)
        0x00481502      3f00           move.w d0, -(a7)
        0x00481504      3f3c0034       move.w 0x34, -(a7)
        0x00481508      4eb90047e700   jsr fcn.0047e700
        0x0048150e      504f           addq.w 0x8, a7
     > 0x00481510      0829000e0001   btst.b 0xe, 0x1(a1)
     < 0x00481516      670c           beq.b 0x481524
        0x00481518      3f00           move.w d0, -(a7)
        0x0048151a      49eeffe6       lea.l -0x1a(a6), a4
        0x0048151e      4ebafe6e       jsr MENUCOM.kick_obscured_b(pc)
        0x00481522      544f           addq.w 0x2, a7
     > 0x00481524      009100100000   ori.l 0x100000, (a1)
         0x0048152a      0829000e0001   btst.b 0xe, 0x1(a1)
     < 0x00481530      6734           beq.b 0x481566
        0x00481532      0711           btst.l d3, (a1)
    < 0x00481534      6630           bne.b 0x481566
       0x00481536      32290006       move.w 0x6(a1), d1
       0x0048153a      48c1           ext.l d1
       0x0048153c      5581           subq.l 0x2, d1
       0x0048153e      3d41fff0       move.w d1, -0x10(a6)
       0x00481542      3229000a       move.w 0xa(a1), d1
       0x00481546      48c1           ext.l d1
       0x00481548      5881           addq.l 0x4, d1
       0x0048154a      3d41fff4       move.w d1, -0xc(a6)
       0x0048154e      32290008       move.w 0x8(a1), d1
       0x00481552      48c1           ext.l d1
       0x00481554      5581           subq.l 0x2, d1
       0x00481556      3d41fff2       move.w d1, -0xe(a6)
       0x0048155a      3229000c       move.w 0xc(a1), d1
       0x0048155e      48c1           ext.l d1
       0x00481560      5881           addq.l 0x4, d1
       0x00481562      3d41fff6       move.w d1, -0xa(a6)
    > 0x00481566      12290004       move.b 0x4(a1), d1
         0x0048156a      0c010010       cmpi.b 0x10, d1
     < 0x0048156e      6706           beq.b 0x481576
        0x00481570      08110006       btst.b 0x6, (a1)
    < 0x00481574      6716           beq.b 0x48158c
    > 0x00481576      2f290032       move.l 0x32(a1), -(a7)
        0x0048157a      3f2e0008       move.w 0x8(a6), -(a7)
        0x0048157e      3f05           move.w d5, -(a7)
        0x00481580      4eb90047e700   jsr fcn.0047e700
        0x00481586      504f           addq.w 0x8, a7
    < 0x00481588      60000162       bra.w 0x4816ec
    > 0x0048158c      322e0008       move.w 0x8(a6), d1
        0x00481590      48c1           ext.l d1
        0x00481592      e581           asl.l 0x2, d1
        0x00481594      41f9008101fe   lea.l 0x8101fe, a0
        0x0048159a      24701800       movea.l (a0, d1.l), a2
        0x0048159e      08120000       btst.b 0x0, (a2)
    < 0x004815a2      670e           beq.b 0x4815b2
       0x004815a4      2d7ad1d4ffea   move.l 0x47e77a(pc), -0x16(a6)
       0x004815aa      3d7ad1d2ffee   move.w 0x47e77e(pc), -0x12(a6)
   < 0x004815b0      6010           bra.b 0x4815c2
   > 0x004815b2      45eeffea       lea.l -0x16(a6), a2
       0x004815b6      47e9000e       lea.l 0xe(a1), a3
       0x004815ba      7405           moveq 0x5, d2
   > 0x004815bc      14db           move.b (a3)+, (a2)+
   < 0x004815be      51cafffc       dbra d2, 0x4815bc
   > 0x004815c2      0829000e0001   btst.b 0xe, 0x1(a1)
    < 0x004815c8      6740           beq.b 0x48160a
       0x004815ca      0711           btst.l d3, (a1)
   < 0x004815cc      663c           bne.b 0x48160a
      0x004815ce      1f05           move.b d5, -(a7)
      0x004815d0      4227           clr.b -(a7)
      0x004815d2      4eb900522512   jsr BRUSHCOM.br_write_prot
      0x004815d8      2ebad1cc       move.l 0x47e7a6(pc), (a7)
      0x004815dc      3f3ad1c6       move.w 0x47e7a4(pc), -(a7)
      0x004815e0      4eb900520fa4   jsr BRUSHCOM.set_br_colour
      0x004815e6      584f           addq.w 0x4, a7
      0x004815e8      1e85           move.b d5, (a7)
      0x004815ea      1f04           move.b d4, -(a7)
      0x004815ec      2f2efff4       move.l -0xc(a6), -(a7)
      0x004815f0      2f2efff0       move.l -0x10(a6), -(a7)
      0x004815f4      4eb9005213b4   jsr BRUSHCOM.br_wipe
      0x004815fa      defc000a       adda.w 0xa, a7
      0x004815fe      1e85           move.b d5, (a7)
      0x00481600      1f04           move.b d4, -(a7)
      0x00481602      4eb900522512   jsr BRUSHCOM.br_write_prot
      0x00481608      584f           addq.w 0x4, a7
   > 0x0048160a      24690036       movea.l 0x36(a1), a2
        0x0048160e      b4c4           cmpa.w d4, a2
    < 0x00481610      6600009a       bne.w 0x4816ac
       0x00481614      47f01800       lea.l (a0, d1.l), a3
       0x00481618      206b41a6       movea.l 0x41a6(a3), a0
       0x0048161c      b0c4           cmpa.w d4, a0
   < 0x0048161e      673c           beq.b 0x48165c
      0x00481620      48780000       pea.l 0x0
      0x00481624      0711           btst.l d3, (a1)
  < 0x00481626      6702           beq.b 0x48162a
     0x00481628      5297           addq.l 0x1, (a7)
  > 0x0048162a      342f0002       move.w 0x2(a7), d2
      0x0048162e      e542           asl.w 0x2, d2
      0x00481630      47f9008101fe   lea.l 0x8101fe, a3
      0x00481636      47f32000       lea.l (a3, d2.w), a3
      0x0048163a      d7c6           adda.l d6, a3
      0x0048163c      2e93           move.l (a3), (a7)
      0x0048163e      514f           subq.w 0x8, a7
      0x00481640      264f           movea.l a7, a3
      0x00481642      43e90006       lea.l 0x6(a1), a1
      0x00481646      7407           moveq 0x7, d2
  > 0x00481648      16d9           move.b (a1)+, (a3)+
  < 0x0048164a      51cafffc       dbra d2, 0x481648
      0x0048164e      2f2effec       move.l -0x14(a6), -(a7)
      0x00481652      3f2effea       move.w -0x16(a6), -(a7)
      0x00481656      2f08           move.l a0, -(a7)
  < 0x00481658      6000008a       bra.w 0x4816e4
  > 0x0048165c      48780000       pea.l 0x0
      0x00481660      0711           btst.l d3, (a1)
  < 0x00481662      6702           beq.b 0x481666
     0x00481664      5297           addq.l 0x1, (a7)
  > 0x00481666      342f0002       move.w 0x2(a7), d2
      0x0048166a      e542           asl.w 0x2, d2
      0x0048166c      41f9008101fe   lea.l 0x8101fe, a0
      0x00481672      41f02000       lea.l (a0, d2.w), a0
      0x00481676      d1c6           adda.l d6, a0
      0x00481678      2e90           move.l (a0), (a7)
      0x0048167a      514f           subq.w 0x8, a7
      0x0048167c      204f           movea.l a7, a0
      0x0048167e      47e90006       lea.l 0x6(a1), a3
      0x00481682      7407           moveq 0x7, d2
  > 0x00481684      10db           move.b (a3)+, (a0)+
  < 0x00481686      51cafffc       dbra d2, 0x481684
      0x0048168a      2f2effec       move.l -0x14(a6), -(a7)
      0x0048168e      3f2effea       move.w -0x16(a6), -(a7)
      0x00481692      594f           subq.w 0x4, a7
      0x00481694      1ea90042       move.b 0x42(a1), (a7)
      0x00481698      1f6900430001   move.b 0x43(a1), 0x1(a7)
      0x0048169e      1f6900440002   move.b 0x44(a1), 0x2(a7)
      0x004816a4      1f6900450003   move.b 0x45(a1), 0x3(a7)
  < 0x004816aa      6038           bra.b 0x4816e4
  > 0x004816ac      48780000       pea.l 0x0
      0x004816b0      0711           btst.l d3, (a1)
  < 0x004816b2      6702           beq.b 0x4816b6
     0x004816b4      5297           addq.l 0x1, (a7)
  > 0x004816b6      322f0002       move.w 0x2(a7), d1
      0x004816ba      e541           asl.w 0x2, d1
      0x004816bc      41f9008101fe   lea.l 0x8101fe, a0
      0x004816c2      41f01000       lea.l (a0, d1.w), a0
      0x004816c6      d1c6           adda.l d6, a0
      0x004816c8      2e90           move.l (a0), (a7)
      0x004816ca      514f           subq.w 0x8, a7
      0x004816cc      204f           movea.l a7, a0
      0x004816ce      47e90006       lea.l 0x6(a1), a3
      0x004816d2      7207           moveq 0x7, d1
  > 0x004816d4      10db           move.b (a3)+, (a0)+
  < 0x004816d6      51c9fffc       dbra d1, 0x4816d4
      0x004816da      2f2effec       move.l -0x14(a6), -(a7)
      0x004816de      3f2effea       move.w -0x16(a6), -(a7)
      0x004816e2      2f0a           move.l a2, -(a7)
  > 0x004816e4      4eb90047e72e   jsr fcn.0047e72e
        0x004816ea      dec7           adda.w d7, a7
     > 0x004816ec      2057           movea.l (a7), a0
         0x004816ee      0828000e0001   btst.b 0xe, 0x1(a0)
     < 0x004816f4      6606           bne.b 0x4816fc
        0x004816f6      584f           addq.w 0x4, a7
    < 0x004816f8      600001aa       bra.w 0x4818a4
    > 0x004816fc      2457           movea.l (a7), a2
        0x004816fe      3d6a0006fff8   move.w 0x6(a2), -0x8(a6)
        0x00481704      3d6a000afffc   move.w 0xa(a2), -0x4(a6)
        0x0048170a      322a0008       move.w 0x8(a2), d1
        0x0048170e      48c1           ext.l d1
        0x00481710      5581           subq.l 0x2, d1
        0x00481712      3d41fffa       move.w d1, -0x6(a6)
        0x00481716      3d7c0002fffe   move.w 0x2, -0x2(a6)
        0x0048171c      48780000       pea.l 0x0
        0x00481720      0710           btst.l d3, (a0)
    < 0x00481722      6702           beq.b 0x481726
       0x00481724      5297           addq.l 0x1, (a7)
    > 0x00481726      322f0002       move.w 0x2(a7), d1
        0x0048172a      e541           asl.w 0x2, d1
        0x0048172c      47f9008101fe   lea.l 0x8101fe, a3
        0x00481732      47f31000       lea.l (a3, d1.w), a3
        0x00481736      d7c6           adda.l d6, a3
        0x00481738      2e93           move.l (a3), (a7)
        0x0048173a      2f2efffc       move.l -0x4(a6), -(a7)
        0x0048173e      2f2efff8       move.l -0x8(a6), -(a7)
        0x00481742      2f3ad026       move.l 0x47e76a(pc), -(a7)
        0x00481746      3f3ad020       move.w 0x47e768(pc), -(a7)
        0x0048174a      48780000       pea.l 0x0
        0x0048174e      4eb90047e72e   jsr fcn.0047e72e
        0x00481754      dec7           adda.w d7, a7
        0x00481756      322a0008       move.w 0x8(a2), d1
        0x0048175a      48c1           ext.l d1
        0x0048175c      342a000c       move.w 0xc(a2), d2
        0x00481760      48c2           ext.l d2
        0x00481762      d481           add.l d1, d2
        0x00481764      3d42fffa       move.w d2, -0x6(a6)
        0x00481768      48780000       pea.l 0x0
        0x0048176c      266f0004       movea.l 0x4(a7), a3
        0x00481770      0713           btst.l d3, (a3)
    < 0x00481772      6702           beq.b 0x481776
       0x00481774      5297           addq.l 0x1, (a7)
    > 0x00481776      322f0002       move.w 0x2(a7), d1
        0x0048177a      e541           asl.w 0x2, d1
        0x0048177c      47f9008101fe   lea.l 0x8101fe, a3
        0x00481782      47f31000       lea.l (a3, d1.w), a3
        0x00481786      d7c6           adda.l d6, a3
        0x00481788      2e93           move.l (a3), (a7)
        0x0048178a      2f2efffc       move.l -0x4(a6), -(a7)
        0x0048178e      2f2efff8       move.l -0x8(a6), -(a7)
        0x00481792      2f3acfd6       move.l 0x47e76a(pc), -(a7)
        0x00481796      3f3acfd0       move.w 0x47e768(pc), -(a7)
        0x0048179a      48780000       pea.l 0x0
        0x0048179e      4eb90047e72e   jsr fcn.0047e72e
        0x004817a4      dec7           adda.w d7, a7
        0x004817a6      322a0006       move.w 0x6(a2), d1
        0x004817aa      48c1           ext.l d1
        0x004817ac      5581           subq.l 0x2, d1
        0x004817ae      3d41fff8       move.w d1, -0x8(a6)
        0x004817b2      322a0008       move.w 0x8(a2), d1
        0x004817b6      48c1           ext.l d1
        0x004817b8      5581           subq.l 0x2, d1
        0x004817ba      3d41fffa       move.w d1, -0x6(a6)
        0x004817be      3d7c0002fffc   move.w 0x2, -0x4(a6)
        0x004817c4      322a000c       move.w 0xc(a2), d1
        0x004817c8      48c1           ext.l d1
        0x004817ca      5881           addq.l 0x4, d1
        0x004817cc      3d41fffe       move.w d1, -0x2(a6)
        0x004817d0      48780000       pea.l 0x0
        0x004817d4      266f0004       movea.l 0x4(a7), a3
        0x004817d8      0713           btst.l d3, (a3)
    < 0x004817da      6702           beq.b 0x4817de
       0x004817dc      5297           addq.l 0x1, (a7)
    > 0x004817de      322f0002       move.w 0x2(a7), d1
        0x004817e2      e541           asl.w 0x2, d1
        0x004817e4      47f9008101fe   lea.l 0x8101fe, a3
        0x004817ea      47f31000       lea.l (a3, d1.w), a3
        0x004817ee      d7c6           adda.l d6, a3
        0x004817f0      2e93           move.l (a3), (a7)
        0x004817f2      2f2efffc       move.l -0x4(a6), -(a7)
        0x004817f6      2f2efff8       move.l -0x8(a6), -(a7)
        0x004817fa      2f3acf6e       move.l 0x47e76a(pc), -(a7)
        0x004817fe      3f3acf68       move.w 0x47e768(pc), -(a7)
        0x00481802      48780000       pea.l 0x0
        0x00481806      4eb90047e72e   jsr fcn.0047e72e
        0x0048180c      dec7           adda.w d7, a7
        0x0048180e      322a0006       move.w 0x6(a2), d1
        0x00481812      48c1           ext.l d1
        0x00481814      342a000a       move.w 0xa(a2), d2
        0x00481818      48c2           ext.l d2
        0x0048181a      d481           add.l d1, d2
        0x0048181c      3d42fff8       move.w d2, -0x8(a6)
        0x00481820      48780000       pea.l 0x0
        0x00481824      246f0004       movea.l 0x4(a7), a2
        0x00481828      0712           btst.l d3, (a2)
    < 0x0048182a      6702           beq.b 0x48182e
       0x0048182c      5297           addq.l 0x1, (a7)
    > 0x0048182e      322f0002       move.w 0x2(a7), d1
        0x00481832      e541           asl.w 0x2, d1
        0x00481834      45f9008101fe   lea.l 0x8101fe, a2
        0x0048183a      45f21000       lea.l (a2, d1.w), a2
        0x0048183e      d5c6           adda.l d6, a2
        0x00481840      2e92           move.l (a2), (a7)
        0x00481842      2f2efffc       move.l -0x4(a6), -(a7)
        0x00481846      2f2efff8       move.l -0x8(a6), -(a7)
        0x0048184a      2f3acf1e       move.l 0x47e76a(pc), -(a7)
        0x0048184e      3f3acf18       move.w 0x47e768(pc), -(a7)
        0x00481852      48780000       pea.l 0x0
        0x00481856      4eb90047e72e   jsr fcn.0047e72e
        0x0048185c      dec7           adda.w d7, a7
        0x0048185e      2457           movea.l (a7), a2
        0x00481860      0712           btst.l d3, (a2)
    < 0x00481862      6704           beq.b 0x481868
       0x00481864      584f           addq.w 0x4, a7
   < 0x00481866      603c           bra.b 0x4818a4
   > 0x00481868      1f05           move.b d5, -(a7)
       0x0048186a      4227           clr.b -(a7)
       0x0048186c      4eb900522512   jsr BRUSHCOM.br_write_prot
       0x00481872      2ebacf38       move.l 0x47e7ac(pc), (a7)
       0x00481876      3f3acf32       move.w 0x47e7aa(pc), -(a7)
       0x0048187a      4eb900520fa4   jsr BRUSHCOM.set_br_colour
       0x00481880      584f           addq.w 0x4, a7
       0x00481882      1e85           move.b d5, (a7)
       0x00481884      1f04           move.b d4, -(a7)
       0x00481886      2f2efff4       move.l -0xc(a6), -(a7)
       0x0048188a      2f2efff0       move.l -0x10(a6), -(a7)
       0x0048188e      4eb9005213b4   jsr BRUSHCOM.br_wipe
       0x00481894      defc000a       adda.w 0xa, a7
       0x00481898      1e85           move.b d5, (a7)
       0x0048189a      1f04           move.b d4, -(a7)
       0x0048189c      4eb900522512   jsr BRUSHCOM.br_write_prot
       0x004818a2      504f           addq.w 0x8, a7
   > 0x004818a4      4cdf1fff       movem.l (a7)+, d0-d7/a0-a4
           0x004818a8      4e5e           unlk a6
           0x004818aa      4e75           rts
            ; CALL XREF from MENUCOM.swtch_on_box @ 0x481e0e
            ; CALL XREF from MENUCOM.menu_init @ 0x489d84
            ; CALL XREF from MENUSYSCOM.start_verify @ 0x4e9492
            ; CALL XREF from MENUSYSCOM.hit_system_conf @ 0x4e9f28
            ; CALL XREF from MAVIS_PAINT.cleanup_system @ 0x6d2912
 152: MENUCOM.post_box ();
           0x004818ac      4e56fed0       link.w a6, 0xfed0
           0x004818b0      bfd5           cmpa.l (a5), a7
       < 0x004818b2      6206           bhi.b 0x4818ba
          0x004818b4      44fc0002       move.w 0x2, ccr
          0x004818b8      4e76           trapv
       > 0x004818ba      defc0130       adda.w 0x130, a7
           0x004818be      48e7e0c0       movem.l d0-d2/a0-a1, -(a7)
           0x004818c2      7401           moveq 0x1, d2
           0x004818c4      302e0008       move.w 0x8(a6), d0
           0x004818c8      48c0           ext.l d0
           0x004818ca      2200           move.l d0, d1
           0x004818cc      e581           asl.l 0x2, d1
           0x004818ce      41f9008101fe   lea.l 0x8101fe, a0
           0x004818d4      22701800       movea.l (a0, d1.l), a1
           0x004818d8      b2c2           cmpa.w d2, a1
       < 0x004818da      6608           bne.b 0x4818e4
          0x004818dc      3f00           move.w d0, -(a7)
          0x004818de      4ebaf3c2       jsr MENUCOM.soft_assert(pc)
      < 0x004818e2      6056           bra.b 0x48193a
      > 0x004818e4      08110005       btst.b 0x5, (a1)
      < 0x004818e8      6720           beq.b 0x48190a
         0x004818ea      9efc00fc       suba.w 0xfc, a7
         0x004818ee      2f3ad73a       move.l 0x47f02a(pc), -(a7)
         0x004818f2      2f7ad73a0004   move.l 0x47f02e(pc), 0x4(a7)
         0x004818f8      3f7ad7380008   move.w 0x47f032(pc), 0x8(a7)
         0x004818fe      3f00           move.w d0, -(a7)
         0x00481900      1f02           move.b d2, -(a7)
         0x00481902      4ebaefce       jsr MENUCOM.show_box(pc)
         0x00481906      defc0104       adda.w 0x104, a7
      > 0x0048190a      08110002       btst.b 0x2, (a1)
      < 0x0048190e      670e           beq.b 0x48191e
         0x00481910      08110003       btst.b 0x3, (a1)
     < 0x00481914      6608           bne.b 0x48191e
        0x00481916      3f00           move.w d0, -(a7)
        0x00481918      4ebaf500       jsr MENUCOM.box_locatable(pc)
        0x0048191c      544f           addq.w 0x2, a7
     > 0x0048191e      009108000000   ori.l 0x8000000, (a1)
          0x00481924      08110000       btst.b 0x0, (a1)
      < 0x00481928      670a           beq.b 0x481934
         0x0048192a      3f00           move.w d0, -(a7)
         0x0048192c      4eb900481d90   jsr MENUCOM.swtch_on_box
     < 0x00481932      6006           bra.b 0x48193a
     > 0x00481934      3f00           move.w d0, -(a7)
         0x00481936      4ebafb3a       jsr MENUCOM.draw_box(pc)
     > 0x0048193a      544f           addq.w 0x2, a7
           0x0048193c      4cdf0307       movem.l (a7)+, d0-d2/a0-a1
           0x00481940      4e5e           unlk a6
           0x00481942      4e75           rts
            ; CALL XREF from MENUCOM.erase_box @ 0x481b8e
 206: MENUCOM.redraw_obscured ();
           0x00481944      4e56ffc4       link.w a6, 0xffc4
           0x00481948      bfd5           cmpa.l (a5), a7
       < 0x0048194a      6206           bhi.b 0x481952
          0x0048194c      44fc0002       move.w 0x2, ccr
          0x00481950      4e76           trapv
       > 0x00481952      defc0038       adda.w 0x38, a7
           0x00481956      48e7fcd0       movem.l d0-d5/a0-a1/a3, -(a7)
           0x0048195a      43f9008101fe   lea.l 0x8101fe, a1
           0x00481960      7000           moveq 0x0, d0
           0x00481962      322c0010       move.w 0x10(a4), d1
           0x00481966      48c1           ext.l d1
           0x00481968      e581           asl.l 0x2, d1
           0x0048196a      2049           movea.l a1, a0
           0x0048196c      20701800       movea.l (a0, d1.l), a0
           0x00481970      08100007       btst.b 0x7, (a0)
       < 0x00481974      6702           beq.b 0x481978
          0x00481976      5200           addq.b 0x1, d0
       > 0x00481978      4880           ext.w d0
           0x0048197a      e540           asl.w 0x2, d0
           0x0048197c      2049           movea.l a1, a0
           0x0048197e      41f00000       lea.l (a0, d0.w), a0
           0x00481982      d1fc00008ef6   adda.l 0x8ef6, a0
           0x00481988      2650           movea.l (a0), a3
       > 0x0048198a      b6fc0001       cmpa.w 0x1, a3
      < 0x0048198e      677a           beq.b 0x481a0a
         0x00481990      203c0e000000   move.l 0xe000000, d0
         0x00481996      c093           and.l (a3), d0
         0x00481998      b0bad6a2       cmp.l 0x47f03c(pc), d0
     < 0x0048199c      6666           bne.b 0x481a04
        0x0048199e      302b0016       move.w 0x16(a3), d0
        0x004819a2      b06c0010       cmp.w 0x10(a4), d0
    < 0x004819a6      675c           beq.b 0x481a04
       0x004819a8      322b0006       move.w 0x6(a3), d1
       0x004819ac      48c1           ext.l d1
       0x004819ae      342b000a       move.w 0xa(a3), d2
       0x004819b2      48c2           ext.l d2
       0x004819b4      d481           add.l d1, d2
       0x004819b6      362e0008       move.w 0x8(a6), d3
       0x004819ba      48c3           ext.l d3
       0x004819bc      2803           move.l d3, d4
       0x004819be      5584           subq.l 0x2, d4
       0x004819c0      b882           cmp.l d2, d4
   < 0x004819c2      6c40           bge.b 0x481a04
      0x004819c4      342e000c       move.w 0xc(a6), d2
      0x004819c8      48c2           ext.l d2
      0x004819ca      d483           add.l d3, d2
      0x004819cc      5482           addq.l 0x2, d2
      0x004819ce      b481           cmp.l d1, d2
  < 0x004819d0      6f32           ble.b 0x481a04
     0x004819d2      342e000a       move.w 0xa(a6), d2
     0x004819d6      48c2           ext.l d2
     0x004819d8      382b000c       move.w 0xc(a3), d4
     0x004819dc      48c4           ext.l d4
     0x004819de      d882           add.l d2, d4
     0x004819e0      2a02           move.l d2, d5
     0x004819e2      5585           subq.l 0x2, d5
     0x004819e4      ba84           cmp.l d4, d5
 < 0x004819e6      6c1c           bge.b 0x481a04
    0x004819e8      382e000e       move.w 0xe(a6), d4
    0x004819ec      48c4           ext.l d4
    0x004819ee      d882           add.l d2, d4
    0x004819f0      5484           addq.l 0x2, d4
    0x004819f2      3a2b0008       move.w 0x8(a3), d5
    0x004819f6      48c5           ext.l d5
    0x004819f8      b885           cmp.l d5, d4
 < 0x004819fa      6f08           ble.b 0x481a04
    0x004819fc      3f00           move.w d0, -(a7)
    0x004819fe      4ebafa72       jsr MENUCOM.draw_box(pc)
    0x00481a02      544f           addq.w 0x2, a7
 > 0x00481a04      266b0026       movea.l 0x26(a3), a3
      < 0x00481a08      6080           bra.b 0x48198a
      > 0x00481a0a      4cdf0b3f       movem.l (a7)+, d0-d5/a0-a1/a3
           0x00481a0e      4e5e           unlk a6
           0x00481a10      4e75           rts
            ; CALL XREF from MENUCOM.unpost_box @ 0x481c2e
            ; CALL XREF from MENUCOM.disable_box @ 0x483958
            ; CALL XREF from MENUCOM.set_box_area @ 0x4842c8
            ; CALL XREFS from MENUMAILCOM.hit_list @ 0x4f49a8, 0x4f4af8
 394: MENUCOM.erase_box ();
           0x00481a12      4e56feb4       link.w a6, 0xfeb4
           0x00481a16      bfd5           cmpa.l (a5), a7
       < 0x00481a18      6206           bhi.b 0x481a20
          0x00481a1a      44fc0002       move.w 0x2, ccr
          0x00481a1e      4e76           trapv
       > 0x00481a20      defc0144       adda.w 0x144, a7
           0x00481a24      48e7f8f8       movem.l d0-d4/a0-a4, -(a7)
           0x00481a28      45eefff8       lea.l -0x8(a6), a2
           0x00481a2c      47eefffc       lea.l -0x4(a6), a3
           0x00481a30      7401           moveq 0x1, d2
           0x00481a32      7603           moveq 0x3, d3
           0x00481a34      780e           moveq 0xe, d4
           0x00481a36      302e0008       move.w 0x8(a6), d0
           0x00481a3a      48c0           ext.l d0
           0x00481a3c      2200           move.l d0, d1
           0x00481a3e      e581           asl.l 0x2, d1
           0x00481a40      41f9008101fe   lea.l 0x8101fe, a0
           0x00481a46      22701800       movea.l (a0, d1.l), a1
           0x00481a4a      b2c2           cmpa.w d2, a1
       < 0x00481a4c      660c           bne.b 0x481a5a
          0x00481a4e      3f00           move.w d0, -(a7)
          0x00481a50      4ebaf250       jsr MENUCOM.soft_assert(pc)
          0x00481a54      544f           addq.w 0x2, a7
      < 0x00481a56      6000013c       bra.w 0x481b94
      > 0x00481a5a      223c06000000   move.l 0x6000000, d1
          0x00481a60      c291           and.l (a1), d1
          0x00481a62      b2bad5e0       cmp.l 0x47f044(pc), d1
      < 0x00481a66      6600012c       bne.w 0x481b94
         0x00481a6a      08110005       btst.b 0x5, (a1)
     < 0x00481a6e      6720           beq.b 0x481a90
        0x00481a70      9efc00fc       suba.w 0xfc, a7
        0x00481a74      2f3ad5d2       move.l 0x47f048(pc), -(a7)
        0x00481a78      2f7ad5d20004   move.l 0x47f04c(pc), 0x4(a7)
        0x00481a7e      3f7ad5d00008   move.w 0x47f050(pc), 0x8(a7)
        0x00481a84      3f00           move.w d0, -(a7)
        0x00481a86      1f02           move.b d2, -(a7)
        0x00481a88      4ebaee48       jsr MENUCOM.show_box(pc)
        0x00481a8c      defc0104       adda.w 0x104, a7
     > 0x00481a90      12290004       move.b 0x4(a1), d1
         0x00481a94      0c010010       cmpi.b 0x10, d1
     < 0x00481a98      6706           beq.b 0x481aa0
        0x00481a9a      08110006       btst.b 0x6, (a1)
    < 0x00481a9e      6712           beq.b 0x481ab2
    > 0x00481aa0      2f290032       move.l 0x32(a1), -(a7)
        0x00481aa4      3f00           move.w d0, -(a7)
        0x00481aa6      3f3c002a       move.w 0x2a, -(a7)
        0x00481aaa      4eb90047e700   jsr fcn.0047e700
        0x00481ab0      504f           addq.w 0x8, a7
    > 0x00481ab2      32290006       move.w 0x6(a1), d1
         0x00481ab6      48c1           ext.l d1
         0x00481ab8      5581           subq.l 0x2, d1
         0x00481aba      3481           move.w d1, (a2)
         0x00481abc      32290008       move.w 0x8(a1), d1
         0x00481ac0      48c1           ext.l d1
         0x00481ac2      5581           subq.l 0x2, d1
         0x00481ac4      3d41fffa       move.w d1, -0x6(a6)
         0x00481ac8      3229000a       move.w 0xa(a1), d1
         0x00481acc      48c1           ext.l d1
         0x00481ace      5881           addq.l 0x4, d1
         0x00481ad0      3681           move.w d1, (a3)
         0x00481ad2      3229000c       move.w 0xc(a1), d1
         0x00481ad6      48c1           ext.l d1
         0x00481ad8      5881           addq.l 0x4, d1
         0x00481ada      3d41fffe       move.w d1, -0x2(a6)
         0x00481ade      09290001       btst.l d4, 0x1(a1)
     < 0x00481ae2      6740           beq.b 0x481b24
        0x00481ae4      1f03           move.b d3, -(a7)
        0x00481ae6      4227           clr.b -(a7)
        0x00481ae8      4eb900522512   jsr BRUSHCOM.br_write_prot
        0x00481aee      544f           addq.w 0x2, a7
        0x00481af0      4257           clr.w (a7)
        0x00481af2      2f3acc76       move.l 0x47e76a(pc), -(a7)
        0x00481af6      3f3acc70       move.w 0x47e768(pc), -(a7)
        0x00481afa      4eb900520fe8   jsr BRUSHCOM.set_br_key_colo
        0x00481b00      5c4f           addq.w 0x6, a7
        0x00481b02      1e83           move.b d3, (a7)
        0x00481b04      1f3c0004       move.b 0x4, -(a7)
        0x00481b08      2f13           move.l (a3), -(a7)
        0x00481b0a      2f12           move.l (a2), -(a7)
        0x00481b0c      4eb9005213b4   jsr BRUSHCOM.br_wipe
        0x00481b12      defc000a       adda.w 0xa, a7
        0x00481b16      1e83           move.b d3, (a7)
        0x00481b18      1f02           move.b d2, -(a7)
        0x00481b1a      4eb900522512   jsr BRUSHCOM.br_write_prot
        0x00481b20      584f           addq.w 0x4, a7
    < 0x00481b22      603e           bra.b 0x481b62
    > 0x00481b24      48780000       pea.l 0x0
        0x00481b28      08110007       btst.b 0x7, (a1)
    < 0x00481b2c      6702           beq.b 0x481b30
       0x00481b2e      5297           addq.l 0x1, (a7)
    > 0x00481b30      322f0002       move.w 0x2(a7), d1
        0x00481b34      e541           asl.w 0x2, d1
        0x00481b36      41f9008101fe   lea.l 0x8101fe, a0
        0x00481b3c      41f01000       lea.l (a0, d1.w), a0
        0x00481b40      d1fc00008eee   adda.l 0x8eee, a0
        0x00481b46      2e90           move.l (a0), (a7)
        0x00481b48      2f13           move.l (a3), -(a7)
        0x00481b4a      2f12           move.l (a2), -(a7)
        0x00481b4c      2f3acc1c       move.l 0x47e76a(pc), -(a7)
        0x00481b50      3f3acc16       move.w 0x47e768(pc), -(a7)
        0x00481b54      48780000       pea.l 0x0
        0x00481b58      4eb90047e72e   jsr fcn.0047e72e
        0x00481b5e      defc0016       adda.w 0x16, a7
    > 0x00481b62      082900090001   btst.b 0x9, 0x1(a1)
     < 0x00481b68      6712           beq.b 0x481b7c
        0x00481b6a      2f290032       move.l 0x32(a1), -(a7)
        0x00481b6e      3f00           move.w d0, -(a7)
        0x00481b70      3f3c0035       move.w 0x35, -(a7)
        0x00481b74      4eb90047e700   jsr fcn.0047e700
        0x00481b7a      504f           addq.w 0x8, a7
     > 0x00481b7c      0291ffefffff   andi.l 0xffefffff, (a1)
         0x00481b82      09290001       btst.l d4, 0x1(a1)
     < 0x00481b86      670c           beq.b 0x481b94
        0x00481b88      2f13           move.l (a3), -(a7)
        0x00481b8a      2f12           move.l (a2), -(a7)
        0x00481b8c      284a           movea.l a2, a4
        0x00481b8e      4ebafdb4       jsr MENUCOM.redraw_obscured(pc)
        0x00481b92      504f           addq.w 0x8, a7
     > 0x00481b94      4cdf1f1f       movem.l (a7)+, d0-d4/a0-a4
           0x00481b98      4e5e           unlk a6
           0x00481b9a      4e75           rts
            ; CALL XREF from MENUCOM.unpost_box @ 0x481c46
            ; CALL XREF from MENUCOM.swtch_off_box @ 0x481ea6
 242: MENUCOM.unpost_box ();
           0x00481b9c      4e56feb2       link.w a6, 0xfeb2
           0x00481ba0      bfd5           cmpa.l (a5), a7
       < 0x00481ba2      6206           bhi.b 0x481baa
          0x00481ba4      44fc0002       move.w 0x2, ccr
          0x00481ba8      4e76           trapv
       > 0x00481baa      defc0144       adda.w 0x144, a7
           0x00481bae      48e7f8f8       movem.l d0-d4/a0-a4, -(a7)
           0x00481bb2      47f9008190ca   lea.l 0x8190ca, a3
           0x00481bb8      7801           moveq 0x1, d4
           0x00481bba      302e0008       move.w 0x8(a6), d0
           0x00481bbe      48c0           ext.l d0
           0x00481bc0      2200           move.l d0, d1
           0x00481bc2      e581           asl.l 0x2, d1
           0x00481bc4      41f9008101fe   lea.l 0x8101fe, a0
           0x00481bca      22701800       movea.l (a0, d1.l), a1
           0x00481bce      b2c4           cmpa.w d4, a1
       < 0x00481bd0      660a           bne.b 0x481bdc
          0x00481bd2      3f00           move.w d0, -(a7)
          0x00481bd4      4ebaf0cc       jsr MENUCOM.soft_assert(pc)
      < 0x00481bd8      600000aa       bra.w 0x481c84
      > 0x00481bdc      08110005       btst.b 0x5, (a1)
      < 0x00481be0      6720           beq.b 0x481c02
         0x00481be2      9efc00fc       suba.w 0xfc, a7
         0x00481be6      2f3ad46e       move.l 0x47f056(pc), -(a7)
         0x00481bea      2f7ad46e0004   move.l 0x47f05a(pc), 0x4(a7)
         0x00481bf0      3f7ad46c0008   move.w 0x47f05e(pc), 0x8(a7)
         0x00481bf6      3f00           move.w d0, -(a7)
         0x00481bf8      1f04           move.b d4, -(a7)
         0x00481bfa      4ebaecd6       jsr MENUCOM.show_box(pc)
         0x00481bfe      defc0104       adda.w 0x104, a7
      > 0x00481c02      2411           move.l (a1), d2
          0x00481c04      02820c000000   andi.l 0xc000000, d2
          0x00481c0a      b4bad458       cmp.l 0x47f064(pc), d2
      < 0x00481c0e      6608           bne.b 0x481c18
         0x00481c10      3f00           move.w d0, -(a7)
         0x00481c12      4ebaf2e6       jsr MENUCOM.box_not_locatab(pc)
         0x00481c16      544f           addq.w 0x2, a7
      > 0x00481c18      0291f7ffffff   andi.l 0xf7ffffff, (a1)
          0x00481c1e      7400           moveq 0x0, d2
          0x00481c20      08110000       btst.b 0x0, (a1)
      < 0x00481c24      6702           beq.b 0x481c28
         0x00481c26      5202           addq.b 0x1, d2
      > 0x00481c28      1d42fffe       move.b d2, -0x2(a6)
          0x00481c2c      3f00           move.w d0, -(a7)
          0x00481c2e      4ebafde2       jsr MENUCOM.erase_box(pc)
          0x00481c32      544f           addq.w 0x2, a7
          0x00481c34      4a02           tst.b d2
      < 0x00481c36      674e           beq.b 0x481c86
         0x00481c38      24701800       movea.l (a0, d1.l), a2
         0x00481c3c      286a001e       movea.l 0x1e(a2), a4
     > 0x00481c40      b8c4           cmpa.w d4, a4
    < 0x00481c42      670e           beq.b 0x481c52
       0x00481c44      3f14           move.w (a4), -(a7)
       0x00481c46      4ebaff54       jsr MENUCOM.unpost_box(pc)
       0x00481c4a      544f           addq.w 0x2, a7
       0x00481c4c      286c0004       movea.l 0x4(a4), a4
    < 0x00481c50      60ee           bra.b 0x481c40
    > 0x00481c52      342e0008       move.w 0x8(a6), d2
         0x00481c56      b453           cmp.w (a3), d2
     < 0x00481c58      662c           bne.b 0x481c86
        0x00481c5a      14290004       move.b 0x4(a1), d2
        0x00481c5e      4882           ext.w d2
        0x00481c60      45fad40a       lea.l 0x47f06c(pc), a2
        0x00481c64      3602           move.w d2, d3
        0x00481c66      e64b           lsr.w 0x3, d3
        0x00481c68      05323000       btst.l d2, (a2, d3.w)
    < 0x00481c6c      670e           beq.b 0x481c7c
       0x00481c6e      1f02           move.b d2, -(a7)
       0x00481c70      4227           clr.b -(a7)
       0x00481c72      4227           clr.b -(a7)
       0x00481c74      4eb90048d3ce   jsr MENU2COM.clear_num_date
       0x00481c7a      5c4f           addq.w 0x6, a7
    > 0x00481c7c      3f13           move.w (a3), -(a7)
        0x00481c7e      4eb900481e2c   jsr MENUCOM.swtch_off_box
     > 0x00481c84      544f           addq.w 0x2, a7
     > 0x00481c86      4cdf1f1f       movem.l (a7)+, d0-d4/a0-a4
           0x00481c8a      4e5e           unlk a6
           0x00481c8c      4e75           rts
            ; XREFS(156)
 258: MENUCOM.add_text_all (int32_t arg_8h);
           ; arg int32_t arg_8h @ a6+0x8
           0x00481c8e      4e56ff98       link.w a6, 0xff98
           0x00481c92      bfd5           cmpa.l (a5), a7
       < 0x00481c94      6206           bhi.b 0x481c9c
          0x00481c96      44fc0002       move.w 0x2, ccr
          0x00481c9a      4e76           trapv
       > 0x00481c9c      defc005c       adda.w 0x5c, a7
           0x00481ca0      48e7f7f8       movem.l d0-d3/d5-d7/a0-a4, -(a7)
           0x00481ca4      47ee000a       lea.l 0xa(a6), a3
           0x00481ca8      49eefff6       lea.l -0xa(a6), a4
           0x00481cac      7601           moveq 0x1, d3
           0x00481cae      302e0010       move.w 0x10(a6), d0
           0x00481cb2      48c0           ext.l d0
           0x00481cb4      2200           move.l d0, d1
           0x00481cb6      e581           asl.l 0x2, d1
           0x00481cb8      41f9008101fe   lea.l 0x8101fe, a0
           0x00481cbe      22701800       movea.l (a0, d1.l), a1
           0x00481cc2      b2c3           cmpa.w d3, a1
       < 0x00481cc4      660a           bne.b 0x481cd0
          0x00481cc6      3f00           move.w d0, -(a7)
          0x00481cc8      4ebaefd8       jsr MENUCOM.soft_assert(pc)
      < 0x00481ccc      600000b8       bra.w 0x481d86
      > 0x00481cd0      20690036       movea.l 0x36(a1), a0
          0x00481cd4      b0c3           cmpa.w d3, a0
      < 0x00481cd6      6616           bne.b 0x481cee
         0x00481cd8      48690036       pea.l 0x36(a1)
         0x00481cdc      48780041       pea.l 0x41
         0x00481ce0      4eb900403a92   jsr p_New
         0x00481ce6      504f           addq.w 0x8, a7
         0x00481ce8      4254           clr.w (a4)
         0x00481cea      7c00           moveq 0x0, d6
     < 0x00481cec      600c           bra.b 0x481cfa
     > 0x00481cee      7c01           moveq 0x1, d6
         0x00481cf0      1010           move.b (a0), d0
         0x00481cf2      0280000000ff   andi.l 0xff, d0
         0x00481cf8      3880           move.w d0, (a4)
     > 0x00481cfa      4a53           tst.w (a3)
      < 0x00481cfc      661a           bne.b 0x481d18
         0x00481cfe      3d43fffc       move.w d3, -0x4(a6)
         0x00481d02      3013           move.w (a3), d0
         0x00481d04      48c0           ext.l d0
         0x00481d06      4480           neg.l d0
         0x00481d08      206e000c       movea.l 0xc(a6), a0
         0x00481d0c      4281           clr.l d1
         0x00481d0e      12300800       move.b (a0, d0.l), d1
         0x00481d12      3d41fffe       move.w d1, -0x2(a6)
     < 0x00481d16      600a           bra.b 0x481d22
     > 0x00481d18      3d53fffc       move.w (a3), -0x4(a6)
         0x00481d1c      3d6e0008fffe   move.w 0x8(a6), -0x2(a6)
     > 0x00481d22      7e00           moveq 0x0, d7
          0x00481d24      206e000c       movea.l 0xc(a6), a0
          0x00481d28      3a2efffc       move.w -0x4(a6), d5
      > 0x00481d2c      ba6efffe       cmp.w -0x2(a6), d5
     < 0x00481d30      6e36           bgt.b 0x481d68
        0x00481d32      0c470040       cmpi.w 0x40, d7
    < 0x00481d36      6c2c           bge.b 0x481d64
       0x00481d38      48c7           ext.l d7
       0x00481d3a      5287           addq.l 0x1, d7
       0x00481d3c      7000           moveq 0x0, d0
       0x00481d3e      24690036       movea.l 0x36(a1), a2
       0x00481d42      48c5           ext.l d5
       0x00481d44      3213           move.w (a3), d1
       0x00481d46      48c1           ext.l d1
       0x00481d48      4481           neg.l d1
       0x00481d4a      d285           add.l d5, d1
       0x00481d4c      4a06           tst.b d6
   < 0x00481d4e      670c           beq.b 0x481d5c
      0x00481d50      14327000       move.b (a2, d7.w), d2
      0x00481d54      b4301800       cmp.b (a0, d1.l), d2
  < 0x00481d58      6602           bne.b 0x481d5c
     0x00481d5a      5200           addq.b 0x1, d0
  > 0x00481d5c      1c00           move.b d0, d6
       0x00481d5e      15b018007000   move.b (a0, d1.l), (a2, d7.w)
    > 0x00481d64      5245           addq.w 0x1, d5
     < 0x00481d66      68c4           bvc.b 0x481d2c
     > 0x00481d68      20690036       movea.l 0x36(a1), a0
          0x00481d6c      1087           move.b d7, (a0)
          0x00481d6e      7000           moveq 0x0, d0
          0x00481d70      4a06           tst.b d6
      < 0x00481d72      6706           beq.b 0x481d7a
         0x00481d74      be54           cmp.w (a4), d7
     < 0x00481d76      6602           bne.b 0x481d7a
        0x00481d78      5200           addq.b 0x1, d0
     > 0x00481d7a      1c00           move.b d0, d6
      < 0x00481d7c      660a           bne.b 0x481d88
         0x00481d7e      3f2e0010       move.w 0x10(a6), -(a7)
         0x00481d82      4ebaf6ee       jsr MENUCOM.draw_box(pc)
      > 0x00481d86      544f           addq.w 0x2, a7
       > 0x00481d88      4cdf1fef       movem.l (a7)+, d0-d3/d5-d7/a0-a4
           0x00481d8c      4e5e           unlk a6
           0x00481d8e      4e75           rts
            ; XREFS(61)
 156: MENUCOM.swtch_on_box ();
           0x00481d90      4e56fec4       link.w a6, 0xfec4
           0x00481d94      bfd5           cmpa.l (a5), a7
       < 0x00481d96      6206           bhi.b 0x481d9e
          0x00481d98      44fc0002       move.w 0x2, ccr
          0x00481d9c      4e76           trapv
       > 0x00481d9e      defc0138       adda.w 0x138, a7
           0x00481da2      48e7e0e8       movem.l d0-d2/a0-a2/a4, -(a7)
           0x00481da6      7401           moveq 0x1, d2
           0x00481da8      302e0008       move.w 0x8(a6), d0
           0x00481dac      48c0           ext.l d0
           0x00481dae      2200           move.l d0, d1
           0x00481db0      e581           asl.l 0x2, d1
           0x00481db2      41f9008101fe   lea.l 0x8101fe, a0
           0x00481db8      22701800       movea.l (a0, d1.l), a1
           0x00481dbc      b2c2           cmpa.w d2, a1
       < 0x00481dbe      6608           bne.b 0x481dc8
          0x00481dc0      3f00           move.w d0, -(a7)
          0x00481dc2      4ebaeede       jsr MENUCOM.soft_assert(pc)
      < 0x00481dc6      605a           bra.b 0x481e22
      > 0x00481dc8      08110005       btst.b 0x5, (a1)
      < 0x00481dcc      6720           beq.b 0x481dee
         0x00481dce      9efc00fc       suba.w 0xfc, a7
         0x00481dd2      2f3ad29c       move.l 0x47f070(pc), -(a7)
         0x00481dd6      2f7ad29c0004   move.l 0x47f074(pc), 0x4(a7)
         0x00481ddc      3f7ad29a0008   move.w 0x47f078(pc), 0x8(a7)
         0x00481de2      3f00           move.w d0, -(a7)
         0x00481de4      1f02           move.b d2, -(a7)
         0x00481de6      4ebaeaea       jsr MENUCOM.show_box(pc)
         0x00481dea      defc0104       adda.w 0x104, a7
      > 0x00481dee      009101000000   ori.l 0x1000000, (a1)
          0x00481df4      08110002       btst.b 0x2, (a1)
      < 0x00481df8      672a           beq.b 0x481e24
         0x00481dfa      08110003       btst.b 0x3, (a1)
     < 0x00481dfe      6724           beq.b 0x481e24
        0x00481e00      24701800       movea.l (a0, d1.l), a2
        0x00481e04      286a001e       movea.l 0x1e(a2), a4
    > 0x00481e08      b8c2           cmpa.w d2, a4
   < 0x00481e0a      670e           beq.b 0x481e1a
      0x00481e0c      3f14           move.w (a4), -(a7)
      0x00481e0e      4ebafa9c       jsr MENUCOM.post_box(pc)
      0x00481e12      544f           addq.w 0x2, a7
      0x00481e14      286c0004       movea.l 0x4(a4), a4
   < 0x00481e18      60ee           bra.b 0x481e08
   > 0x00481e1a      3f2e0008       move.w 0x8(a6), -(a7)
        0x00481e1e      4ebaf652       jsr MENUCOM.draw_box(pc)
     > 0x00481e22      544f           addq.w 0x2, a7
     > 0x00481e24      4cdf1707       movem.l (a7)+, d0-d2/a0-a2/a4
           0x00481e28      4e5e           unlk a6
           0x00481e2a      4e75           rts
            ; XREFS(58)
 450: MENUCOM.swtch_off_box ();
           ; var int32_t var_8h @ a7+0x8
           0x00481e2c      4e56fea0       link.w a6, 0xfea0
           0x00481e30      bfd5           cmpa.l (a5), a7
       < 0x00481e32      6206           bhi.b 0x481e3a
          0x00481e34      44fc0002       move.w 0x2, ccr
          0x00481e38      4e76           trapv
       > 0x00481e3a      defc015c       adda.w 0x15c, a7
           0x00481e3e      48e7fff8       movem.l d0-d7/a0-a4, -(a7)
           0x00481e42      45f9008190ca   lea.l 0x8190ca, a2
           0x00481e48      47f9008101fe   lea.l 0x8101fe, a3
           0x00481e4e      7801           moveq 0x1, d4
           0x00481e50      7a03           moveq 0x3, d5
           0x00481e52      7c05           moveq 0x5, d6
           0x00481e54      7e0c           moveq 0xc, d7
           0x00481e56      302e0008       move.w 0x8(a6), d0
           0x00481e5a      48c0           ext.l d0
           0x00481e5c      2200           move.l d0, d1
           0x00481e5e      e581           asl.l 0x2, d1
           0x00481e60      204b           movea.l a3, a0
           0x00481e62      22701800       movea.l (a0, d1.l), a1
           0x00481e66      b2c4           cmpa.w d4, a1
       < 0x00481e68      660a           bne.b 0x481e74
          0x00481e6a      3f00           move.w d0, -(a7)
          0x00481e6c      4ebaee34       jsr MENUCOM.soft_assert(pc)
      < 0x00481e70      60000172       bra.w 0x481fe4
      > 0x00481e74      0d11           btst.l d6, (a1)
      < 0x00481e76      6720           beq.b 0x481e98
         0x00481e78      9efc00fc       suba.w 0xfc, a7
         0x00481e7c      2f3ad200       move.l 0x47f07e(pc), -(a7)
         0x00481e80      2f7ad2000004   move.l 0x47f082(pc), 0x4(a7)
         0x00481e86      3f7ad1fe0008   move.w 0x47f086(pc), 0x8(a7)
         0x00481e8c      3f00           move.w d0, -(a7)
         0x00481e8e      1f04           move.b d4, -(a7)
         0x00481e90      4ebaea40       jsr MENUCOM.show_box(pc)
         0x00481e94      defc0104       adda.w 0x104, a7
      > 0x00481e98      0b11           btst.l d5, (a1)
      < 0x00481e9a      6716           beq.b 0x481eb2
         0x00481e9c      2869001e       movea.l 0x1e(a1), a4
     > 0x00481ea0      b8c4           cmpa.w d4, a4
    < 0x00481ea2      670e           beq.b 0x481eb2
       0x00481ea4      3f14           move.w (a4), -(a7)
       0x00481ea6      4ebafcf4       jsr MENUCOM.unpost_box(pc)
       0x00481eaa      544f           addq.w 0x2, a7
       0x00481eac      286c0004       movea.l 0x4(a4), a4
    < 0x00481eb0      60ee           bra.b 0x481ea0
    > 0x00481eb2      0291feffffff   andi.l 0xfeffffff, (a1)
          0x00481eb8      322e0008       move.w 0x8(a6), d1
          0x00481ebc      b252           cmp.w (a2), d1
      < 0x00481ebe      66000118       bne.w 0x481fd8
         0x00481ec2      0d11           btst.l d6, (a1)
     < 0x00481ec4      6720           beq.b 0x481ee6
        0x00481ec6      9efc00fc       suba.w 0xfc, a7
        0x00481eca      2f3ad1c0       move.l 0x47f08c(pc), -(a7)
        0x00481ece      2f7ad1c00004   move.l 0x47f090(pc), 0x4(a7)
        0x00481ed4      3f7ad1be0008   move.w 0x47f094(pc), 0x8(a7)
        0x00481eda      3f12           move.w (a2), -(a7)
        0x00481edc      1f04           move.b d4, -(a7)
        0x00481ede      4ebae9f2       jsr MENUCOM.show_box(pc)
        0x00481ee2      defc0104       adda.w 0x104, a7
     > 0x00481ee6      3412           move.w (a2), d2
         0x00481ee8      48c2           ext.l d2
         0x00481eea      e582           asl.l 0x2, d2
         0x00481eec      204b           movea.l a3, a0
         0x00481eee      20702800       movea.l (a0, d2.l), a0
         0x00481ef2      2f280032       move.l 0x32(a0), -(a7)
         0x00481ef6      3f12           move.w (a2), -(a7)
         0x00481ef8      4267           clr.w -(a7)
         0x00481efa      4eb90047e700   jsr fcn.0047e700
         0x00481f00      504f           addq.w 0x8, a7
         0x00481f02      14290004       move.b 0x4(a1), d2
         0x00481f06      4882           ext.w d2
         0x00481f08      41fad18c       lea.l 0x47f096(pc), a0
         0x00481f0c      3602           move.w d2, d3
         0x00481f0e      e64b           lsr.w 0x3, d3
         0x00481f10      05303000       btst.l d2, (a0, d3.w)
     < 0x00481f14      6710           beq.b 0x481f26
        0x00481f16      4227           clr.b -(a7)
  > 0x00481f18      4227           clr.b -(a7)
     0x00481f1a      4eb90048f5e6   jsr MENURIGHTCOM.alter_right
     0x00481f20      584f           addq.w 0x4, a7
 < 0x00481f22      6000008a       bra.w 0x481fae
 > 0x00481f26      41fad172       lea.l 0x47f09a(pc), a0
     0x00481f2a      3602           move.w d2, d3
     0x00481f2c      e64b           lsr.w 0x3, d3
     0x00481f2e      05303000       btst.l d2, (a0, d3.w)
 < 0x00481f32      6704           beq.b 0x481f38
    0x00481f34      1f05           move.b d5, -(a7)
 < 0x00481f36      60e0           bra.b 0x481f18
  > 0x00481f38      0c020011       cmpi.b 0x11, d2
  < 0x00481f3c      6606           bne.b 0x481f44
     0x00481f3e      1f3c0002       move.b 0x2, -(a7)
  < 0x00481f42      60d4           bra.b 0x481f18
   > 0x00481f44      082900100002   btst.b 0x10, 0x2(a1)
   < 0x00481f4a      6704           beq.b 0x481f50
      0x00481f4c      1f04           move.b d4, -(a7)
   < 0x00481f4e      60c8           bra.b 0x481f18
    > 0x00481f50      9efc0100       suba.w 0x100, a7
        0x00481f54      1f02           move.b d2, -(a7)
        0x00481f56      4ebae5fa       jsr MENUCOM.box_type_str(pc)
        0x00481f5a      544f           addq.w 0x2, a7
        0x00481f5c      487ad141       pea.l 0x47f09f(pc)
        0x00481f60      4878000d       pea.l 0xd
        0x00481f64      2f17           move.l (a7), -(a7)
        0x00481f66      4eb9004047ea   jsr p_wts_o
        0x00481f6c      dec7           adda.w d7, a7
        0x00481f6e      48c1           ext.l d1
        0x00481f70      2f01           move.l d1, -(a7)
        0x00481f72      48780000       pea.l 0x0
        0x00481f76      4eb9004070e4   jsr p_wti_o
        0x00481f7c      504f           addq.w 0x8, a7
        0x00481f7e      487ad12d       pea.l 0x47f0ad(pc)
        0x00481f82      4878000a       pea.l 0xa
        0x00481f86      2f17           move.l (a7), -(a7)
        0x00481f88      4eb9004047ea   jsr p_wts_o
        0x00481f8e      dec7           adda.w d7, a7
        0x00481f90      486f0001       pea.l 0x1(a7)
        0x00481f94      42a7           clr.l -(a7)
        0x00481f96      1f6f00080003   move.b 0x8(a7), 0x3(a7)
        0x00481f9c      2f17           move.l (a7), -(a7)
        0x00481f9e      4eb9004047ea   jsr p_wts_o
        0x00481fa4      defc010c       adda.w 0x10c, a7
        0x00481fa8      4eb900404946   jsr p_wtln_o
 > 0x00481fae      3412           move.w (a2), d2
         0x00481fb0      48c2           ext.l d2
         0x00481fb2      e582           asl.l 0x2, d2
         0x00481fb4      204b           movea.l a3, a0
         0x00481fb6      20702800       movea.l (a0, d2.l), a0
         0x00481fba      2f280032       move.l 0x32(a0), -(a7)
         0x00481fbe      3f12           move.w (a2), -(a7)
         0x00481fc0      3f3c003b       move.w 0x3b, -(a7)
         0x00481fc4      4eb90047e700   jsr fcn.0047e700
         0x00481fca      504f           addq.w 0x8, a7
         0x00481fcc      4252           clr.w (a2)
         0x00481fce      1f04           move.b d4, -(a7)
         0x00481fd0      4eb900482022   jsr MENUCOM.swtch_options_b
         0x00481fd6      544f           addq.w 0x2, a7
      > 0x00481fd8      0b11           btst.l d5, (a1)
      < 0x00481fda      670a           beq.b 0x481fe6
         0x00481fdc      3f2e0008       move.w 0x8(a6), -(a7)
         0x00481fe0      4ebaf490       jsr MENUCOM.draw_box(pc)
      > 0x00481fe4      544f           addq.w 0x2, a7
       > 0x00481fe6      4cdf1fff       movem.l (a7)+, d0-d7/a0-a4
           0x00481fea      4e5e           unlk a6
           0x00481fec      4e75           rts
 22: MENUCOM.hit_nothing ();
           0x00481fee      4e56fffc       link.w a6, 0xfffc
           0x00481ff2      bfd5           cmpa.l (a5), a7
       < 0x00481ff4      6206           bhi.b 0x481ffc
          0x00481ff6      44fc0002       move.w 0x2, ccr
          0x00481ffa      4e76           trapv
       > 0x00481ffc      defc0004       adda.w 0x4, a7
           0x00482000      4e5e           unlk a6
           0x00482002      4e75           rts
 30: MENUCOM.cur_options_box ();
           0x00482004      4e56fffc       link.w a6, 0xfffc
           0x00482008      bfd5           cmpa.l (a5), a7
       < 0x0048200a      6206           bhi.b 0x482012
          0x0048200c      44fc0002       move.w 0x2, ccr
          0x00482010      4e76           trapv
       > 0x00482012      defc0004       adda.w 0x4, a7
           0x00482016      3d79008190c8.  move.w 0x8190c8, 0x8(a6)
           0x0048201e      4e5e           unlk a6
           0x00482020      4e75           rts
            ; CALL XREF from MENUCOM.swtch_off_box @ 0x481fd0
            ; CALL XREFS from MENU2COM.numeric_char_ac @ 0x48c406, 0x48c8ea
 98: MENUCOM.swtch_options_b ();
           0x00482022      4e56ffe4       link.w a6, 0xffe4
           0x00482026      bfd5           cmpa.l (a5), a7
       < 0x00482028      6206           bhi.b 0x482030
          0x0048202a      44fc0002       move.w 0x2, ccr
          0x0048202e      4e76           trapv
       > 0x00482030      defc001c       adda.w 0x1c, a7
           0x00482034      48e7c0c0       movem.l d0-d1/a0-a1, -(a7)
           0x00482038      43f9008190c8   lea.l 0x8190c8, a1
           0x0048203e      4a51           tst.w (a1)
       < 0x00482040      673a           beq.b 0x48207c
          0x00482042      7000           moveq 0x0, d0
          0x00482044      3211           move.w (a1), d1
          0x00482046      43bc1068       chk.w 0x1068, d1
          0x0048204a      48c1           ext.l d1
          0x0048204c      e581           asl.l 0x2, d1
          0x0048204e      41f9008101fe   lea.l 0x8101fe, a0
          0x00482054      20701800       movea.l (a0, d1.l), a0
          0x00482058      b1e8fffc       cmpa.l -0x4(a0), a0
      < 0x0048205c      6702           beq.b 0x482060
         0x0048205e      4e4d           trap 0xd
      > 0x00482060      08100000       btst.b 0x0, (a0)
      < 0x00482064      6702           beq.b 0x482068
         0x00482066      5200           addq.b 0x1, d0
      > 0x00482068      b02e0008       cmp.b 0x8(a6), d0
      < 0x0048206c      670e           beq.b 0x48207c
         0x0048206e      3f11           move.w (a1), -(a7)
         0x00482070      1f3c0001       move.b 0x1, -(a7)
         0x00482074      4eb900482c42   jsr MENUCOM.do_box_interloc
         0x0048207a      584f           addq.w 0x4, a7
      > 0x0048207c      4cdf0303       movem.l (a7)+, d0-d1/a0-a1
           0x00482080      4e5e           unlk a6
           0x00482082      4e75           rts
            ; XREFS(21)
 82: MENUCOM.get_n_d_ptr (int32_t arg_22h);
           ; arg int32_t arg_22h @ a6+0x22
           0x00482084      4e56ffe0       link.w a6, 0xffe0
           0x00482088      bfd5           cmpa.l (a5), a7
       < 0x0048208a      6206           bhi.b 0x482092
          0x0048208c      44fc0002       move.w 0x2, ccr
          0x00482090      4e76           trapv
       > 0x00482092      defc0020       adda.w 0x20, a7
           0x00482096      48e780c0       movem.l d0/a0-a1, -(a7)
           0x0048209a      302e0008       move.w 0x8(a6), d0
           0x0048209e      41bc1068       chk.w 0x1068, d0
           0x004820a2      48c0           ext.l d0
           0x004820a4      e580           asl.l 0x2, d0
           0x004820a6      41f9008101fe   lea.l 0x8101fe, a0
           0x004820ac      22700800       movea.l (a0, d0.l), a1
           0x004820b0      b2fc0001       cmpa.w 0x1, a1
       < 0x004820b4      660a           bne.b 0x4820c0
          0x004820b6      48780001       pea.l 0x1
          0x004820ba      2d5f000a       move.l (a7)+, 0xa(a6)
      < 0x004820be      600e           bra.b 0x4820ce
      > 0x004820c0      b3e9fffc       cmpa.l -0x4(a1), a1
      < 0x004820c4      6702           beq.b 0x4820c8
         0x004820c6      4e4d           trap 0xd
      > 0x004820c8      2d690022000a   move.l 0x22(a1), 0xa(a6)
      > 0x004820ce      4cdf0301       movem.l (a7)+, d0/a0-a1
           0x004820d2      4e5e           unlk a6
           0x004820d4      4e75           rts
            ; CALL XREF from MENU2COM.make_numeric_bo @ 0x48d5b0
            ; CALL XREF from MENU2COM.make_date_box @ 0x48dd70
            ; CALL XREF from MENU2COM.make_timecode_b @ 0x48de72
            ; CALL XREF from MENU2COM.make_picnum_box @ 0x48e046
 66: MENUCOM.set_n_d_ptr ();
           0x004820d6      4e56fff4       link.w a6, 0xfff4
           0x004820da      bfd5           cmpa.l (a5), a7
       < 0x004820dc      6206           bhi.b 0x4820e4
          0x004820de      44fc0002       move.w 0x2, ccr
          0x004820e2      4e76           trapv
       > 0x004820e4      defc000c       adda.w 0xc, a7
           0x004820e8      48e78080       movem.l d0/a0, -(a7)
           0x004820ec      302e000c       move.w 0xc(a6), d0
           0x004820f0      41bc1068       chk.w 0x1068, d0
           0x004820f4      48c0           ext.l d0
           0x004820f6      e580           asl.l 0x2, d0
           0x004820f8      41f9008101fe   lea.l 0x8101fe, a0
           0x004820fe      20700800       movea.l (a0, d0.l), a0
           0x00482102      b1e8fffc       cmpa.l -0x4(a0), a0
       < 0x00482106      6702           beq.b 0x48210a
          0x00482108      4e4d           trap 0xd
       > 0x0048210a      216e00080022   move.l 0x8(a6), 0x22(a0)
           0x00482110      4cdf0101       movem.l (a7)+, d0/a0
           0x00482114      4e5e           unlk a6
           0x00482116      4e75           rts
            ; CALL XREF from MENU2COM.set_value @ 0x48bee0
            ; CALL XREF from MENU2COM.num_pad_as_time @ 0x48bf30
            ; CALL XREFS from MENU2COM.numeric_joy_act @ 0x48cf06, 0x48cf20
 30: MENUCOM.get_n_d_box ();
           0x00482118      4e56fffc       link.w a6, 0xfffc
           0x0048211c      bfd5           cmpa.l (a5), a7
       < 0x0048211e      6206           bhi.b 0x482126
          0x00482120      44fc0002       move.w 0x2, ccr
          0x00482124      4e76           trapv
       > 0x00482126      defc0004       adda.w 0x4, a7
           0x0048212a      3d79008190ca.  move.w 0x8190ca, 0x8(a6)
           0x00482132      4e5e           unlk a6
           0x00482134      4e75           rts
 30: MENUCOM.set_n_d_box ();
           0x00482136      4e56fffc       link.w a6, 0xfffc
           0x0048213a      bfd5           cmpa.l (a5), a7
       < 0x0048213c      6206           bhi.b 0x482144
          0x0048213e      44fc0002       move.w 0x2, ccr
          0x00482142      4e76           trapv
       > 0x00482144      defc0004       adda.w 0x4, a7
           0x00482148      33ee00080081.  move.w 0x8(a6), 0x8190ca.l
           0x00482150      4e5e           unlk a6
           0x00482152      4e75           rts
            ; XREFS: CALL 0x004b2f6c  CALL 0x004b301a  CALL 0x004ba9be  
            ; XREFS: CALL 0x004dd4aa  CALL 0x004f3f20  CALL 0x004f3f2c  
            ; XREFS: CALL 0x00512a3e  CALL 0x007419fe  CALL 0x0074bfcc  
            ; XREFS: CALL 0x00758a74  CALL 0x00759eba  CALL 0x00759f1c  
            ; XREFS: CALL 0x00769ab8  CALL 0x00769ac4  
 126: MENUCOM.get_crnt_numeri ();
           0x00482154      4e56ffe4       link.w a6, 0xffe4
           0x00482158      bfd5           cmpa.l (a5), a7
       < 0x0048215a      6206           bhi.b 0x482162
          0x0048215c      44fc0002       move.w 0x2, ccr
          0x00482160      4e76           trapv
       > 0x00482162      defc0018       adda.w 0x18, a7
           0x00482166      48e7c1c0       movem.l d0-d1/d7/a0-a1, -(a7)
           0x0048216a      43f9008190ca   lea.l 0x8190ca, a1
           0x00482170      4a51           tst.w (a1)
       < 0x00482172      6602           bne.b 0x482176
      < 0x00482174      6038           bra.b 0x4821ae
      > 0x00482176      3011           move.w (a1), d0
          0x00482178      41bc1068       chk.w 0x1068, d0
          0x0048217c      48c0           ext.l d0
          0x0048217e      e580           asl.l 0x2, d0
          0x00482180      41f9008101fe   lea.l 0x8101fe, a0
          0x00482186      20700800       movea.l (a0, d0.l), a0
          0x0048218a      b1e8fffc       cmpa.l -0x4(a0), a0
      < 0x0048218e      6702           beq.b 0x482192
         0x00482190      4e4d           trap 0xd
      > 0x00482192      10280004       move.b 0x4(a0), d0
          0x00482196      4880           ext.w d0
          0x00482198      41facf1e       lea.l 0x47f0b8(pc), a0
          0x0048219c      3200           move.w d0, d1
          0x0048219e      e649           lsr.w 0x3, d1
          0x004821a0      01301000       btst.l d0, (a0, d1.w)
      < 0x004821a4      6708           beq.b 0x4821ae
         0x004821a6      3011           move.w (a1), d0
         0x004821a8      48c0           ext.l d0
         0x004821aa      2e00           move.l d0, d7
     < 0x004821ac      6002           bra.b 0x4821b0
     > 0x004821ae      7e00           moveq 0x0, d7
     > 0x004821b0      0487ffff8000   subi.l 0xffff8000, d7
           0x004821b6      0c870000ffff   cmpi.l 0xffff, d7
       < 0x004821bc      6302           bls.b 0x4821c0
          0x004821be      4e4f           trap 0xf
       > 0x004821c0      0687ffff8000   addi.l 0xffff8000, d7
           0x004821c6      3d470008       move.w d7, 0x8(a6)
           0x004821ca      4cdf0383       movem.l (a7)+, d0-d1/d7/a0-a1
           0x004821ce      4e5e           unlk a6
           0x004821d0      4e75           rts
 116: MENUCOM.get_crnt_date_b ();
           0x004821d2      4e56ffe8       link.w a6, 0xffe8
           0x004821d6      bfd5           cmpa.l (a5), a7
       < 0x004821d8      6206           bhi.b 0x4821e0
          0x004821da      44fc0002       move.w 0x2, ccr
          0x004821de      4e76           trapv
       > 0x004821e0      defc0014       adda.w 0x14, a7
           0x004821e4      48e781c0       movem.l d0/d7/a0-a1, -(a7)
           0x004821e8      43f9008190ca   lea.l 0x8190ca, a1
           0x004821ee      4a51           tst.w (a1)
       < 0x004821f0      6602           bne.b 0x4821f4
      < 0x004821f2      602e           bra.b 0x482222
      > 0x004821f4      3011           move.w (a1), d0
          0x004821f6      41bc1068       chk.w 0x1068, d0
          0x004821fa      48c0           ext.l d0
          0x004821fc      e580           asl.l 0x2, d0
          0x004821fe      41f9008101fe   lea.l 0x8101fe, a0
          0x00482204      20700800       movea.l (a0, d0.l), a0
          0x00482208      b1e8fffc       cmpa.l -0x4(a0), a0
      < 0x0048220c      6702           beq.b 0x482210
         0x0048220e      4e4d           trap 0xd
      > 0x00482210      10280004       move.b 0x4(a0), d0
          0x00482214      0c000011       cmpi.b 0x11, d0
      < 0x00482218      6608           bne.b 0x482222
         0x0048221a      3011           move.w (a1), d0
         0x0048221c      48c0           ext.l d0
         0x0048221e      2e00           move.l d0, d7
     < 0x00482220      6002           bra.b 0x482224
     > 0x00482222      7e00           moveq 0x0, d7
     > 0x00482224      0487ffff8000   subi.l 0xffff8000, d7
           0x0048222a      0c870000ffff   cmpi.l 0xffff, d7
       < 0x00482230      6302           bls.b 0x482234
          0x00482232      4e4f           trap 0xf
       > 0x00482234      0687ffff8000   addi.l 0xffff8000, d7
           0x0048223a      3d470008       move.w d7, 0x8(a6)
           0x0048223e      4cdf0381       movem.l (a7)+, d0/d7/a0-a1
           0x00482242      4e5e           unlk a6
           0x00482244      4e75           rts
 114: MENUCOM.get_crnt_keybd_ ();
           0x00482246      4e56ffe8       link.w a6, 0xffe8
           0x0048224a      bfd5           cmpa.l (a5), a7
       < 0x0048224c      6206           bhi.b 0x482254
          0x0048224e      44fc0002       move.w 0x2, ccr
          0x00482252      4e76           trapv
       > 0x00482254      defc0014       adda.w 0x14, a7
           0x00482258      48e781c0       movem.l d0/d7/a0-a1, -(a7)
           0x0048225c      43f9008190ca   lea.l 0x8190ca, a1
           0x00482262      4a51           tst.w (a1)
       < 0x00482264      6602           bne.b 0x482268
      < 0x00482266      602c           bra.b 0x482294
      > 0x00482268      3011           move.w (a1), d0
          0x0048226a      41bc1068       chk.w 0x1068, d0
          0x0048226e      48c0           ext.l d0
          0x00482270      e580           asl.l 0x2, d0
          0x00482272      41f9008101fe   lea.l 0x8101fe, a0
          0x00482278      20700800       movea.l (a0, d0.l), a0
          0x0048227c      b1e8fffc       cmpa.l -0x4(a0), a0
      < 0x00482280      6702           beq.b 0x482284
         0x00482282      4e4d           trap 0xd
      > 0x00482284      082800100002   btst.b 0x10, 0x2(a0)
      < 0x0048228a      6708           beq.b 0x482294
         0x0048228c      3011           move.w (a1), d0
         0x0048228e      48c0           ext.l d0
         0x00482290      2e00           move.l d0, d7
     < 0x00482292      6002           bra.b 0x482296
     > 0x00482294      7e00           moveq 0x0, d7
     > 0x00482296      0487ffff8000   subi.l 0xffff8000, d7
           0x0048229c      0c870000ffff   cmpi.l 0xffff, d7
       < 0x004822a2      6302           bls.b 0x4822a6
          0x004822a4      4e4f           trap 0xf
       > 0x004822a6      0687ffff8000   addi.l 0xffff8000, d7
           0x004822ac      3d470008       move.w d7, 0x8(a6)
           0x004822b0      4cdf0381       movem.l (a7)+, d0/d7/a0-a1
           0x004822b4      4e5e           unlk a6
           0x004822b6      4e75           rts
 76: MENUCOM.get_crnt_right_ ();
           0x004822b8      4e56ffec       link.w a6, 0xffec
           0x004822bc      bfd5           cmpa.l (a5), a7
       < 0x004822be      6206           bhi.b 0x4822c6
          0x004822c0      44fc0002       move.w 0x2, ccr
          0x004822c4      4e76           trapv
       > 0x004822c6      defc0010       adda.w 0x10, a7
           0x004822ca      48e78180       movem.l d0/d7/a0, -(a7)
           0x004822ce      41f9008190ca   lea.l 0x8190ca, a0
           0x004822d4      4a50           tst.w (a0)
       < 0x004822d6      6604           bne.b 0x4822dc
          0x004822d8      7e00           moveq 0x0, d7
      < 0x004822da      6006           bra.b 0x4822e2
      > 0x004822dc      3010           move.w (a0), d0
          0x004822de      48c0           ext.l d0
          0x004822e0      2e00           move.l d0, d7
      > 0x004822e2      0487ffff8000   subi.l 0xffff8000, d7
           0x004822e8      0c870000ffff   cmpi.l 0xffff, d7
       < 0x004822ee      6302           bls.b 0x4822f2
          0x004822f0      4e4f           trap 0xf
       > 0x004822f2      0687ffff8000   addi.l 0xffff8000, d7
           0x004822f8      3d470008       move.w d7, 0x8(a6)
           0x004822fc      4cdf0181       movem.l (a7)+, d0/d7/a0
           0x00482300      4e5e           unlk a6
           0x00482302      4e75           rts
            ; XREFS(158)
 96: MENUCOM.hide_box ();
           0x00482304      4e56ffde       link.w a6, 0xffde
           0x00482308      bfd5           cmpa.l (a5), a7
       < 0x0048230a      6206           bhi.b 0x482312
          0x0048230c      44fc0002       move.w 0x2, ccr
          0x00482310      4e76           trapv
       > 0x00482312      defc0022       adda.w 0x22, a7
           0x00482316      48e780c0       movem.l d0/a0-a1, -(a7)
           0x0048231a      302e0008       move.w 0x8(a6), d0
           0x0048231e      41bc1068       chk.w 0x1068, d0
           0x00482322      48c0           ext.l d0
           0x00482324      e580           asl.l 0x2, d0
           0x00482326      41f9008101fe   lea.l 0x8101fe, a0
           0x0048232c      22700800       movea.l (a0, d0.l), a1
           0x00482330      b2fc0001       cmpa.w 0x1, a1
       < 0x00482334      6726           beq.b 0x48235c
          0x00482336      b3e9fffc       cmpa.l -0x4(a1), a1
      < 0x0048233a      6702           beq.b 0x48233e
         0x0048233c      4e4d           trap 0xd
      > 0x0048233e      2011           move.l (a1), d0
          0x00482340      02800c000000   andi.l 0xc000000, d0
          0x00482346      b0bacdf2       cmp.l 0x47f13a(pc), d0
      < 0x0048234a      660a           bne.b 0x482356
         0x0048234c      3f2e0008       move.w 0x8(a6), -(a7)
         0x00482350      4ebaeba8       jsr MENUCOM.box_not_locatab(pc)
         0x00482354      544f           addq.w 0x2, a7
      > 0x00482356      0291f0ffffff   andi.l 0xf0ffffff, (a1)
       > 0x0048235c      4cdf0301       movem.l (a7)+, d0/a0-a1
           0x00482360      4e5e           unlk a6
           0x00482362      4e75           rts
            ; CALL XREFS from MENUCOM.step_box @ 0x48240a, 0x48244a
 114: MENUCOM.adj_box ();
           0x00482364      4e56ffe4       link.w a6, 0xffe4
           0x00482368      bfd5           cmpa.l (a5), a7
       < 0x0048236a      6206           bhi.b 0x482372
          0x0048236c      44fc0002       move.w 0x2, ccr
          0x00482370      4e76           trapv
       > 0x00482372      defc001a       adda.w 0x1a, a7
           0x00482376      48e781c0       movem.l d0/d7/a0-a1, -(a7)
           0x0048237a      43f9008101fe   lea.l 0x8101fe, a1
           0x00482380      302e000a       move.w 0xa(a6), d0
           0x00482384      41bc1068       chk.w 0x1068, d0
           0x00482388      48c0           ext.l d0
           0x0048238a      e580           asl.l 0x2, d0
           0x0048238c      2049           movea.l a1, a0
           0x0048238e      20700800       movea.l (a0, d0.l), a0
           0x00482392      b1e8fffc       cmpa.l -0x4(a0), a0
       < 0x00482396      6702           beq.b 0x48239a
          0x00482398      4e4d           trap 0xd
       > 0x0048239a      3e280014       move.w 0x14(a0), d7
           0x0048239e      4a2e0008       tst.b 0x8(a6)
       < 0x004823a2      6626           bne.b 0x4823ca
      > 0x004823a4      4fbc1068       chk.w 0x1068, d7
         0x004823a8      48c7           ext.l d7
         0x004823aa      2007           move.l d7, d0
         0x004823ac      e580           asl.l 0x2, d0
         0x004823ae      2049           movea.l a1, a0
         0x004823b0      20700800       movea.l (a0, d0.l), a0
         0x004823b4      b1e8fffc       cmpa.l -0x4(a0), a0
     < 0x004823b8      6702           beq.b 0x4823bc
        0x004823ba      4e4d           trap 0xd
     > 0x004823bc      30280014       move.w 0x14(a0), d0
         0x004823c0      b06e000a       cmp.w 0xa(a6), d0
     < 0x004823c4      6704           beq.b 0x4823ca
        0x004823c6      3e00           move.w d0, d7
     < 0x004823c8      60da           bra.b 0x4823a4
     > 0x004823ca      3d47000c       move.w d7, 0xc(a6)
           0x004823ce      4cdf0381       movem.l (a7)+, d0/d7/a0-a1
           0x004823d2      4e5e           unlk a6
           0x004823d4      4e75           rts
            ; CALL XREF from MENU2COM.date_char_actio @ 0x48b8a4
            ; CALL XREF from MENU2COM.numeric_char_ac @ 0x48c190
 166: MENUCOM.step_box ();
           0x004823d6      4e56ffde       link.w a6, 0xffde
           0x004823da      bfd5           cmpa.l (a5), a7
       < 0x004823dc      6206           bhi.b 0x4823e4
          0x004823de      44fc0002       move.w 0x2, ccr
          0x004823e2      4e76           trapv
       > 0x004823e4      defc0022       adda.w 0x22, a7
           0x004823e8      48e780f0       movem.l d0/a0-a3, -(a7)
           0x004823ec      45f9008190ca   lea.l 0x8190ca, a2
           0x004823f2      47f9008101fe   lea.l 0x8101fe, a3
           0x004823f8      4a2e0008       tst.b 0x8(a6)
       < 0x004823fc      6740           beq.b 0x48243e
          0x004823fe      206e000c       movea.l 0xc(a6), a0
      > 0x00482402      554f           subq.w 0x2, a7
         0x00482404      3f10           move.w (a0), -(a7)
         0x00482406      1f2e000a       move.b 0xa(a6), -(a7)
         0x0048240a      4ebaff58       jsr MENUCOM.adj_box(pc)
         0x0048240e      584f           addq.w 0x4, a7
         0x00482410      309f           move.w (a7)+, (a0)
         0x00482412      3010           move.w (a0), d0
         0x00482414      b052           cmp.w (a2), d0
     < 0x00482416      675c           beq.b 0x482474
        0x00482418      41bc1068       chk.w 0x1068, d0
        0x0048241c      48c0           ext.l d0
        0x0048241e      e580           asl.l 0x2, d0
        0x00482420      224b           movea.l a3, a1
        0x00482422      22710800       movea.l (a1, d0.l), a1
        0x00482426      b3e9fffc       cmpa.l -0x4(a1), a1
    < 0x0048242a      6702           beq.b 0x48242e
       0x0048242c      4e4d           trap 0xd
    > 0x0048242e      2011           move.l (a1), d0
        0x00482430      02800c000000   andi.l 0xc000000, d0
        0x00482436      b0bacd0e       cmp.l 0x47f146(pc), d0
     < 0x0048243a      66c6           bne.b 0x482402
     < 0x0048243c      6036           bra.b 0x482474
     > 0x0048243e      206e000c       movea.l 0xc(a6), a0
     > 0x00482442      554f           subq.w 0x2, a7
        0x00482444      3f10           move.w (a0), -(a7)
        0x00482446      1f2e000a       move.b 0xa(a6), -(a7)
        0x0048244a      4ebaff18       jsr MENUCOM.adj_box(pc)
        0x0048244e      584f           addq.w 0x4, a7
        0x00482450      309f           move.w (a7)+, (a0)
        0x00482452      3010           move.w (a0), d0
        0x00482454      b052           cmp.w (a2), d0
    < 0x00482456      671c           beq.b 0x482474
       0x00482458      41bc1068       chk.w 0x1068, d0
       0x0048245c      48c0           ext.l d0
       0x0048245e      e580           asl.l 0x2, d0
       0x00482460      224b           movea.l a3, a1
       0x00482462      22710800       movea.l (a1, d0.l), a1
       0x00482466      b3e9fffc       cmpa.l -0x4(a1), a1
   < 0x0048246a      6702           beq.b 0x48246e
      0x0048246c      4e4d           trap 0xd
   > 0x0048246e      08110003       btst.b 0x3, (a1)
    < 0x00482472      67ce           beq.b 0x482442
    > 0x00482474      4cdf0f01       movem.l (a7)+, d0/a0-a3
           0x00482478      4e5e           unlk a6
           0x0048247a      4e75           rts
            ; XREFS(36)
 100: MENUCOM.clear_box ();
           0x0048247c      4e56ffe4       link.w a6, 0xffe4
           0x00482480      bfd5           cmpa.l (a5), a7
       < 0x00482482      6206           bhi.b 0x48248a
          0x00482484      44fc0002       move.w 0x2, ccr
          0x00482488      4e76           trapv
       > 0x0048248a      defc001c       adda.w 0x1c, a7
           0x0048248e      48e780c0       movem.l d0/a0-a1, -(a7)
           0x00482492      302e0008       move.w 0x8(a6), d0
           0x00482496      41bc1068       chk.w 0x1068, d0
           0x0048249a      48c0           ext.l d0
           0x0048249c      e580           asl.l 0x2, d0
           0x0048249e      41f9008101fe   lea.l 0x8101fe, a0
           0x004824a4      20700800       movea.l (a0, d0.l), a0
           0x004824a8      b1e8fffc       cmpa.l -0x4(a0), a0
       < 0x004824ac      6702           beq.b 0x4824b0
          0x004824ae      4e4d           trap 0xd
       > 0x004824b0      22680036       movea.l 0x36(a0), a1
           0x004824b4      b2fc0001       cmpa.w 0x1, a1
       < 0x004824b8      6610           bne.b 0x4824ca
          0x004824ba      48680036       pea.l 0x36(a0)
          0x004824be      48780041       pea.l 0x41
          0x004824c2      4eb900403a92   jsr p_New
          0x004824c8      504f           addq.w 0x8, a7
       > 0x004824ca      22680036       movea.l 0x36(a0), a1
           0x004824ce      b3e9fffc       cmpa.l -0x4(a1), a1
       < 0x004824d2      6702           beq.b 0x4824d6
          0x004824d4      4e4d           trap 0xd
       > 0x004824d6      4211           clr.b (a1)
           0x004824d8      4cdf0301       movem.l (a7)+, d0/a0-a1
           0x004824dc      4e5e           unlk a6
           0x004824de      4e75           rts
            ; XREFS: CALL 0x0048af22  CALL 0x0048af80  CALL 0x0048afea  
            ; XREFS: CALL 0x0048b064  CALL 0x0048d20e  CALL 0x00709526  
 128: MENUCOM.add_char ();
           0x004824e0      4e56ffde       link.w a6, 0xffde
           0x004824e4      bfd5           cmpa.l (a5), a7
       < 0x004824e6      6206           bhi.b 0x4824ee
          0x004824e8      44fc0002       move.w 0x2, ccr
          0x004824ec      4e76           trapv
       > 0x004824ee      defc0020       adda.w 0x20, a7
           0x004824f2      48e7c1c0       movem.l d0-d1/d7/a0-a1, -(a7)
           0x004824f6      7240           moveq 0x40, d1
           0x004824f8      302e000a       move.w 0xa(a6), d0
           0x004824fc      41bc1068       chk.w 0x1068, d0
           0x00482500      48c0           ext.l d0
           0x00482502      e580           asl.l 0x2, d0
           0x00482504      41f9008101fe   lea.l 0x8101fe, a0
           0x0048250a      20700800       movea.l (a0, d0.l), a0
           0x0048250e      b1e8fffc       cmpa.l -0x4(a0), a0
       < 0x00482512      6702           beq.b 0x482516
          0x00482514      4e4d           trap 0xd
       > 0x00482516      22680036       movea.l 0x36(a0), a1
           0x0048251a      b3e9fffc       cmpa.l -0x4(a1), a1
       < 0x0048251e      6702           beq.b 0x482522
          0x00482520      4e4d           trap 0xd
       > 0x00482522      4280           clr.l d0
           0x00482524      1011           move.b (a1), d0
           0x00482526      3e00           move.w d0, d7
           0x00482528      be41           cmp.w d1, d7
       < 0x0048252a      6c26           bge.b 0x482552
          0x0048252c      48c7           ext.l d7
          0x0048252e      2007           move.l d7, d0
          0x00482530      5280           addq.l 0x1, d0
          0x00482532      0480ffff8000   subi.l 0xffff8000, d0
          0x00482538      0c800000ffff   cmpi.l 0xffff, d0
      < 0x0048253e      6302           bls.b 0x482542
         0x00482540      4e4f           trap 0xf
      > 0x00482542      0680ffff8000   addi.l 0xffff8000, d0
          0x00482548      3e00           move.w d0, d7
          0x0048254a      4f81           chk.w d1, d7
          0x0048254c      13ae00087000   move.b 0x8(a6), (a1, d7.w)
       > 0x00482552      4fbc00ff       chk.w 0xff, d7
           0x00482556      1287           move.b d7, (a1)
           0x00482558      4cdf0383       movem.l (a7)+, d0-d1/d7/a0-a1
           0x0048255c      4e5e           unlk a6
           0x0048255e      4e75           rts
            ; XREFS(37)
 232: MENUCOM.add_text ();
           0x00482560      4e56ffc0       link.w a6, 0xffc0
           0x00482564      bfd5           cmpa.l (a5), a7
       < 0x00482566      6206           bhi.b 0x48256e
          0x00482568      44fc0002       move.w 0x2, ccr
          0x0048256c      4e76           trapv
       > 0x0048256e      defc0038       adda.w 0x38, a7
           0x00482572      48e7e7f8       movem.l d0-d2/d5-d7/a0-a4, -(a7)
           0x00482576      47ee000a       lea.l 0xa(a6), a3
           0x0048257a      49ee0008       lea.l 0x8(a6), a4
           0x0048257e      7440           moveq 0x40, d2
           0x00482580      302e0010       move.w 0x10(a6), d0
           0x00482584      41bc1068       chk.w 0x1068, d0
           0x00482588      48c0           ext.l d0
           0x0048258a      e580           asl.l 0x2, d0
           0x0048258c      41f9008101fe   lea.l 0x8101fe, a0
           0x00482592      20700800       movea.l (a0, d0.l), a0
           0x00482596      b1e8fffc       cmpa.l -0x4(a0), a0
       < 0x0048259a      6702           beq.b 0x48259e
          0x0048259c      4e4d           trap 0xd
       > 0x0048259e      22680036       movea.l 0x36(a0), a1
           0x004825a2      b3e9fffc       cmpa.l -0x4(a1), a1
       < 0x004825a6      6702           beq.b 0x4825aa
          0x004825a8      4e4d           trap 0xd
       > 0x004825aa      4280           clr.l d0
           0x004825ac      1011           move.b (a1), d0
           0x004825ae      3e00           move.w d0, d7
           0x004825b0      4a53           tst.w (a3)
       < 0x004825b2      6622           bne.b 0x4825d6
          0x004825b4      7a01           moveq 0x1, d5
          0x004825b6      7000           moveq 0x0, d0
          0x004825b8      b054           cmp.w (a4), d0
      < 0x004825ba      6e04           bgt.b 0x4825c0
         0x004825bc      9053           sub.w (a3), d0
     < 0x004825be      6c02           bge.b 0x4825c2
     > 0x004825c0      4e4f           trap 0xf
     > 0x004825c2      226e000c       movea.l 0xc(a6), a1
          0x004825c6      12310000       move.b (a1, d0.w), d1
          0x004825ca      0281000000ff   andi.l 0xff, d1
          0x004825d0      3d41fffe       move.w d1, -0x2(a6)
      < 0x004825d4      6006           bra.b 0x4825dc
      > 0x004825d6      3a13           move.w (a3), d5
          0x004825d8      3d54fffe       move.w (a4), -0x2(a6)
      > 0x004825dc      226e000c       movea.l 0xc(a6), a1
           0x004825e0      3c05           move.w d5, d6
       > 0x004825e2      bc6efffe       cmp.w -0x2(a6), d6
      < 0x004825e6      6e46           bgt.b 0x48262e
         0x004825e8      be42           cmp.w d2, d7
     < 0x004825ea      6c3e           bge.b 0x48262a
        0x004825ec      48c7           ext.l d7
        0x004825ee      2007           move.l d7, d0
        0x004825f0      5280           addq.l 0x1, d0
        0x004825f2      0480ffff8000   subi.l 0xffff8000, d0
        0x004825f8      0c800000ffff   cmpi.l 0xffff, d0
    < 0x004825fe      6302           bls.b 0x482602
       0x00482600      4e4f           trap 0xf
    > 0x00482602      0680ffff8000   addi.l 0xffff8000, d0
        0x00482608      3e00           move.w d0, d7
        0x0048260a      4f82           chk.w d2, d7
        0x0048260c      24680036       movea.l 0x36(a0), a2
        0x00482610      b5eafffc       cmpa.l -0x4(a2), a2
    < 0x00482614      6702           beq.b 0x482618
       0x00482616      4e4d           trap 0xd
    > 0x00482618      3006           move.w d6, d0
        0x0048261a      b054           cmp.w (a4), d0
    < 0x0048261c      6e04           bgt.b 0x482622
       0x0048261e      9053           sub.w (a3), d0
   < 0x00482620      6c02           bge.b 0x482624
   > 0x00482622      4e4f           trap 0xf
   > 0x00482624      15b100007000   move.b (a1, d0.w), (a2, d7.w)
     > 0x0048262a      5246           addq.w 0x1, d6
      < 0x0048262c      68b4           bvc.b 0x4825e2
      > 0x0048262e      22680036       movea.l 0x36(a0), a1
           0x00482632      b3e9fffc       cmpa.l -0x4(a1), a1
       < 0x00482636      6702           beq.b 0x48263a
          0x00482638      4e4d           trap 0xd
       > 0x0048263a      4fbc00ff       chk.w 0xff, d7
           0x0048263e      1287           move.b d7, (a1)
           0x00482640      4cdf1fe7       movem.l (a7)+, d0-d2/d5-d7/a0-a4
           0x00482644      4e5e           unlk a6
           0x00482646      4e75           rts
            ; XREFS: CALL 0x0048d310  CALL 0x004b037e  CALL 0x004b0550  
            ; XREFS: CALL 0x004b09da  CALL 0x004baaa0  CALL 0x004e6c5c  
            ; XREFS: CALL 0x004e6cd8  CALL 0x004e7176  CALL 0x004eb494  
            ; XREFS: CALL 0x00503794  CALL 0x0070969a  CALL 0x00709fdc  
            ; XREFS: CALL 0x0071af48  CALL 0x0072437e  CALL 0x00730422  
            ; XREFS: CALL 0x00734350  CALL 0x00751fde  CALL 0x007520e4  
            ; XREFS: CALL 0x0075212a  
 244: MENUCOM.add_numeric ();
           ; var int32_t var_8h @ a7+0x8
           0x00482648      4e56fdca       link.w a6, 0xfdca
           0x0048264c      bfd5           cmpa.l (a5), a7
       < 0x0048264e      6206           bhi.b 0x482656
          0x00482650      44fc0002       move.w 0x2, ccr
          0x00482654      4e76           trapv
       > 0x00482656      defc0136       adda.w 0x136, a7
           0x0048265a      48e7e0e0       movem.l d0-d2/a0-a2, -(a7)
           0x0048265e      323c0100       move.w 0x100, d1
           0x00482662      7405           moveq 0x5, d2
           0x00482664      302e0010       move.w 0x10(a6), d0
           0x00482668      41bc1068       chk.w 0x1068, d0
           0x0048266c      48c0           ext.l d0
           0x0048266e      e580           asl.l 0x2, d0
           0x00482670      41f9008101fe   lea.l 0x8101fe, a0
           0x00482676      20700800       movea.l (a0, d0.l), a0
           0x0048267a      b1e8fffc       cmpa.l -0x4(a0), a0
       < 0x0048267e      6702           beq.b 0x482682
          0x00482680      4e4d           trap 0xd
       > 0x00482682      9ec1           suba.w d1, a7
           0x00482684      2f2e000c       move.l 0xc(a6), -(a7)
           0x00482688      3f2e000a       move.w 0xa(a6), -(a7)
           0x0048268c      3f2e0008       move.w 0x8(a6), -(a7)
           0x00482690      4227           clr.b -(a7)
           0x00482692      0510           btst.l d2, (a0)
       < 0x00482694      6702           beq.b 0x482698
          0x00482696      5217           addq.b 0x1, (a7)
       > 0x00482698      4eb90048a6ac   jsr MENU2COM.box_numeric_str
           0x0048269e      defc000a       adda.w 0xa, a7
           0x004826a2      43eeff00       lea.l -0x100(a6), a1
           0x004826a6      703f           moveq 0x3f, d0
       > 0x004826a8      22df           move.l (a7)+, (a1)+
       < 0x004826aa      51c8fffc       dbra d0, 0x4826a8
           0x004826ae      9ec1           suba.w d1, a7
           0x004826b0      224f           movea.l a7, a1
           0x004826b2      45eeff00       lea.l -0x100(a6), a2
           0x004826b6      703f           moveq 0x3f, d0
       > 0x004826b8      22da           move.l (a2)+, (a1)+
       < 0x004826ba      51c8fffc       dbra d0, 0x4826b8
           0x004826be      3f2e0010       move.w 0x10(a6), -(a7)
           0x004826c2      486f0002       pea.l 0x2(a7)
           0x004826c6      4267           clr.w -(a7)
           0x004826c8      3f3c00ff       move.w 0xff, -(a7)
           0x004826cc      4ebafe92       jsr MENUCOM.add_text(pc)
           0x004826d0      defc010a       adda.w 0x10a, a7
           0x004826d4      0510           btst.l d2, (a0)
       < 0x004826d6      675c           beq.b 0x482734
          0x004826d8      22680036       movea.l 0x36(a0), a1
          0x004826dc      b3e9fffc       cmpa.l -0x4(a1), a1
      < 0x004826e0      6702           beq.b 0x4826e4
         0x004826e2      4e4d           trap 0xd
      > 0x004826e4      9ec1           suba.w d1, a7
          0x004826e6      4851           pea.l (a1)
          0x004826e8      48780000       pea.l 0x0
          0x004826ec      48780040       pea.l 0x40
          0x004826f0      4280           clr.l d0
          0x004826f2      1011           move.b (a1), d0
          0x004826f4      2f00           move.l d0, -(a7)
          0x004826f6      1f3c0001       move.b 0x1, -(a7)
          0x004826fa      4ebadf60       jsr MENUCOM.my_visible_str(pc)
          0x004826fe      defc0012       adda.w 0x12, a7
          0x00482702      487aca47       pea.l 0x47f14b(pc)
          0x00482706      4878000d       pea.l 0xd
          0x0048270a      2f17           move.l (a7), -(a7)
          0x0048270c      4eb9004047ea   jsr p_wts_o
          0x00482712      defc000c       adda.w 0xc, a7
          0x00482716      486f0001       pea.l 0x1(a7)
          0x0048271a      42a7           clr.l -(a7)
          0x0048271c      1f6f00080003   move.b 0x8(a7), 0x3(a7)
          0x00482722      2f17           move.l (a7), -(a7)
          0x00482724      4eb9004047ea   jsr p_wts_o
          0x0048272a      defc010c       adda.w 0x10c, a7
          0x0048272e      4eb900404946   jsr p_wtln_o
       > 0x00482734      4cdf0707       movem.l (a7)+, d0-d2/a0-a2
           0x00482738      4e5e           unlk a6
           0x0048273a      4e75           rts
            ; CALL XREFS from CNTLCOM.do_confirm_push @ 0x47c2fc, 0x47c34a, 0x47c382, 0x47c3d2
 382: MENUCOM.replace_text ();
           0x0048273c      4e56ffc0       link.w a6, 0xffc0
           0x00482740      bfd5           cmpa.l (a5), a7
       < 0x00482742      6206           bhi.b 0x48274a
          0x00482744      44fc0002       move.w 0x2, ccr
          0x00482748      4e76           trapv
       > 0x0048274a      defc003c       adda.w 0x3c, a7
           0x0048274e      48e7e1f8       movem.l d0-d2/d7/a0-a4, -(a7)
           0x00482752      49ee000c       lea.l 0xc(a6), a4
           0x00482756      7240           moveq 0x40, d1
           0x00482758      243c000000ff   move.l 0xff, d2
           0x0048275e      302e010c       move.w 0x10c(a6), d0
           0x00482762      41bc1068       chk.w 0x1068, d0
           0x00482766      48c0           ext.l d0
           0x00482768      e580           asl.l 0x2, d0
           0x0048276a      41f9008101fe   lea.l 0x8101fe, a0
           0x00482770      20700800       movea.l (a0, d0.l), a0
           0x00482774      b1e8fffc       cmpa.l -0x4(a0), a0
       < 0x00482778      6702           beq.b 0x48277c
          0x0048277a      4e4d           trap 0xd
       > 0x0048277c      22680036       movea.l 0x36(a0), a1
           0x00482780      b2fc0001       cmpa.w 0x1, a1
       < 0x00482784      660000ae       bne.w 0x482834
          0x00482788      246e0008       movea.l 0x8(a6), a2
          0x0048278c      26680042       movea.l 0x42(a0), a3
          0x00482790      b7ebfffc       cmpa.l -0x4(a3), a3
      < 0x00482794      6702           beq.b 0x482798
         0x00482796      4e4d           trap 0xd
      > 0x00482798      4280           clr.l d0
          0x0048279a      1013           move.b (a3), d0
          0x0048279c      2f00           move.l d0, -(a7)
          0x0048279e      7e00           moveq 0x0, d7
      > 0x004827a0      be97           cmp.l (a7), d7
     < 0x004827a2      6e22           bgt.b 0x4827c6
        0x004827a4      be82           cmp.l d2, d7
    < 0x004827a6      6302           bls.b 0x4827aa
       0x004827a8      4e4f           trap 0xf
    > 0x004827aa      be81           cmp.l d1, d7
    < 0x004827ac      6302           bls.b 0x4827b0
       0x004827ae      4e4f           trap 0xf
    > 0x004827b0      26680042       movea.l 0x42(a0), a3
        0x004827b4      b7ebfffc       cmpa.l -0x4(a3), a3
    < 0x004827b8      6702           beq.b 0x4827bc
       0x004827ba      4e4d           trap 0xd
    > 0x004827bc      15b378007800   move.b (a3, d7.l), (a2, d7.l)
        0x004827c2      5287           addq.l 0x1, d7
     < 0x004827c4      68da           bvc.b 0x4827a0
     > 0x004827c6      584f           addq.w 0x4, a7
          0x004827c8      1014           move.b (a4), d0
          0x004827ca      b001           cmp.b d1, d0
      < 0x004827cc      6302           bls.b 0x4827d0
         0x004827ce      1881           move.b d1, (a4)
      > 0x004827d0      48680042       pea.l 0x42(a0)
          0x004827d4      24680042       movea.l 0x42(a0), a2
          0x004827d8      b5eafffc       cmpa.l -0x4(a2), a2
      < 0x004827dc      6702           beq.b 0x4827e0
         0x004827de      4e4d           trap 0xd
      > 0x004827e0      4280           clr.l d0
          0x004827e2      1012           move.b (a2), d0
          0x004827e4      5280           addq.l 0x1, d0
          0x004827e6      2f00           move.l d0, -(a7)
          0x004827e8      4eb900403b98   jsr p_Dispos
          0x004827ee      504f           addq.w 0x8, a7
          0x004827f0      48680042       pea.l 0x42(a0)
          0x004827f4      4280           clr.l d0
          0x004827f6      1014           move.b (a4), d0
          0x004827f8      5280           addq.l 0x1, d0
          0x004827fa      2f00           move.l d0, -(a7)
          0x004827fc      4eb900403a92   jsr p_New
          0x00482802      504f           addq.w 0x8, a7
          0x00482804      4280           clr.l d0
          0x00482806      1014           move.b (a4), d0
          0x00482808      2f00           move.l d0, -(a7)
          0x0048280a      7e00           moveq 0x0, d7
      > 0x0048280c      be97           cmp.l (a7), d7
     < 0x0048280e      6e22           bgt.b 0x482832
        0x00482810      be81           cmp.l d1, d7
    < 0x00482812      6302           bls.b 0x482816
       0x00482814      4e4f           trap 0xf
    > 0x00482816      24680042       movea.l 0x42(a0), a2
        0x0048281a      b5eafffc       cmpa.l -0x4(a2), a2
    < 0x0048281e      6702           beq.b 0x482822
       0x00482820      4e4d           trap 0xd
    > 0x00482822      be82           cmp.l d2, d7
    < 0x00482824      6302           bls.b 0x482828
       0x00482826      4e4f           trap 0xf
    > 0x00482828      15b6780c7800   move.b 0xc(a6, d7.l), (a2, d7.l)
        0x0048282e      5287           addq.l 0x1, d7
     < 0x00482830      68da           bvc.b 0x48280c
     < 0x00482832      6072           bra.b 0x4828a6
      > 0x00482834      246e0008       movea.l 0x8(a6), a2
          0x00482838      b3e9fffc       cmpa.l -0x4(a1), a1
      < 0x0048283c      6702           beq.b 0x482840
         0x0048283e      4e4d           trap 0xd
      > 0x00482840      4280           clr.l d0
          0x00482842      1011           move.b (a1), d0
          0x00482844      2f00           move.l d0, -(a7)
          0x00482846      7e00           moveq 0x0, d7
      > 0x00482848      be97           cmp.l (a7), d7
     < 0x0048284a      6e22           bgt.b 0x48286e
        0x0048284c      be82           cmp.l d2, d7
    < 0x0048284e      6302           bls.b 0x482852
       0x00482850      4e4f           trap 0xf
    > 0x00482852      be81           cmp.l d1, d7
    < 0x00482854      6302           bls.b 0x482858
       0x00482856      4e4f           trap 0xf
    > 0x00482858      26680036       movea.l 0x36(a0), a3
        0x0048285c      b7ebfffc       cmpa.l -0x4(a3), a3
    < 0x00482860      6702           beq.b 0x482864
       0x00482862      4e4d           trap 0xd
    > 0x00482864      15b378007800   move.b (a3, d7.l), (a2, d7.l)
        0x0048286a      5287           addq.l 0x1, d7
     < 0x0048286c      68da           bvc.b 0x482848
     > 0x0048286e      584f           addq.w 0x4, a7
          0x00482870      1014           move.b (a4), d0
          0x00482872      b001           cmp.b d1, d0
      < 0x00482874      6302           bls.b 0x482878
         0x00482876      1881           move.b d1, (a4)
      > 0x00482878      4280           clr.l d0
          0x0048287a      1014           move.b (a4), d0
          0x0048287c      2f00           move.l d0, -(a7)
          0x0048287e      7e00           moveq 0x0, d7
      > 0x00482880      be97           cmp.l (a7), d7
     < 0x00482882      6e22           bgt.b 0x4828a6
        0x00482884      be81           cmp.l d1, d7
    < 0x00482886      6302           bls.b 0x48288a
       0x00482888      4e4f           trap 0xf
    > 0x0048288a      24680036       movea.l 0x36(a0), a2
        0x0048288e      b5eafffc       cmpa.l -0x4(a2), a2
    < 0x00482892      6702           beq.b 0x482896
       0x00482894      4e4d           trap 0xd
    > 0x00482896      be82           cmp.l d2, d7
    < 0x00482898      6302           bls.b 0x48289c
       0x0048289a      4e4f           trap 0xf
    > 0x0048289c      15b6780c7800   move.b 0xc(a6, d7.l), (a2, d7.l)
        0x004828a2      5287           addq.l 0x1, d7
     < 0x004828a4      68da           bvc.b 0x482880
     > 0x004828a6      584f           addq.w 0x4, a7
           0x004828a8      3f2e010c       move.w 0x10c(a6), -(a7)
           0x004828ac      4ebaebc4       jsr MENUCOM.draw_box(pc)
           0x004828b0      544f           addq.w 0x2, a7
           0x004828b2      4cdf1f87       movem.l (a7)+, d0-d2/d7/a0-a4
           0x004828b6      4e5e           unlk a6
           0x004828b8      4e75           rts
            ; CALL XREF from MENUCOM.swtch_off_inter @ 0x482a6e
 198: MENUCOM.do_twin_sibling ();
           0x004828ba      4e56ffc4       link.w a6, 0xffc4
           0x004828be      bfd5           cmpa.l (a5), a7
       < 0x004828c0      6206           bhi.b 0x4828c8
          0x004828c2      44fc0002       move.w 0x2, ccr
          0x004828c6      4e76           trapv
       > 0x004828c8      defc003a       adda.w 0x3a, a7
           0x004828cc      48e7e1f8       movem.l d0-d2/d7/a0-a4, -(a7)
           0x004828d0      47f9008101fe   lea.l 0x8101fe, a3
           0x004828d6      49ee0008       lea.l 0x8(a6), a4
           0x004828da      323c1068       move.w 0x1068, d1
           0x004828de      7400           moveq 0x0, d2
           0x004828e0      3014           move.w (a4), d0
           0x004828e2      4181           chk.w d1, d0
           0x004828e4      48c0           ext.l d0
           0x004828e6      e580           asl.l 0x2, d0
           0x004828e8      204b           movea.l a3, a0
           0x004828ea      20700800       movea.l (a0, d0.l), a0
           0x004828ee      b1e8fffc       cmpa.l -0x4(a0), a0
       < 0x004828f2      6702           beq.b 0x4828f6
          0x004828f4      4e4d           trap 0xd
       > 0x004828f6      3e28001c       move.w 0x1c(a0), d7
           0x004828fa      3028001c       move.w 0x1c(a0), d0
           0x004828fe      b054           cmp.w (a4), d0
       < 0x00482900      6742           beq.b 0x482944
      > 0x00482902      be54           cmp.w (a4), d7
     < 0x00482904      6774           beq.b 0x48297a
        0x00482906      4f81           chk.w d1, d7
        0x00482908      48c7           ext.l d7
        0x0048290a      2007           move.l d7, d0
        0x0048290c      e580           asl.l 0x2, d0
        0x0048290e      224b           movea.l a3, a1
        0x00482910      24710800       movea.l (a1, d0.l), a2
        0x00482914      b5eafffc       cmpa.l -0x4(a2), a2
    < 0x00482918      6702           beq.b 0x48291c
       0x0048291a      4e4d           trap 0xd
    > 0x0048291c      0512           btst.l d2, (a2)
    < 0x0048291e      6708           beq.b 0x482928
       0x00482920      3f07           move.w d7, -(a7)
       0x00482922      4ebaf508       jsr MENUCOM.swtch_off_box(pc)
   < 0x00482926      6006           bra.b 0x48292e
   > 0x00482928      3f07           move.w d7, -(a7)
       0x0048292a      4ebaf464       jsr MENUCOM.swtch_on_box(pc)
   > 0x0048292e      544f           addq.w 0x2, a7
        0x00482930      22710800       movea.l (a1, d0.l), a1
        0x00482934      b3e9fffc       cmpa.l -0x4(a1), a1
    < 0x00482938      6702           beq.b 0x48293c
       0x0048293a      4e4d           trap 0xd
    > 0x0048293c      3e29001c       move.w 0x1c(a1), d7
     < 0x00482940      60c0           bra.b 0x482902
      < 0x00482942      6036           bra.b 0x48297a              ; MENUCOM.do_twin_sibling+0xc0
     > 0x00482944      4a68001a       tst.w 0x1a(a0)
     < 0x00482948      6730           beq.b 0x48297a
        0x0048294a      3028001a       move.w 0x1a(a0), d0
        0x0048294e      4181           chk.w d1, d0
        0x00482950      48c0           ext.l d0
        0x00482952      e580           asl.l 0x2, d0
        0x00482954      224b           movea.l a3, a1
        0x00482956      22710800       movea.l (a1, d0.l), a1
        0x0048295a      b3e9fffc       cmpa.l -0x4(a1), a1
    < 0x0048295e      6702           beq.b 0x482962
       0x00482960      4e4d           trap 0xd
    > 0x00482962      0511           btst.l d2, (a1)
    < 0x00482964      670a           beq.b 0x482970
       0x00482966      3f28001a       move.w 0x1a(a0), -(a7)
       0x0048296a      4ebaf4c0       jsr MENUCOM.swtch_off_box(pc)
   < 0x0048296e      6008           bra.b 0x482978
   > 0x00482970      3f28001a       move.w 0x1a(a0), -(a7)
       0x00482974      4ebaf41a       jsr MENUCOM.swtch_on_box(pc)
   > 0x00482978      544f           addq.w 0x2, a7
     > 0x0048297a      4cdf1f87       movem.l (a7)+, d0-d2/d7/a0-a4
           0x0048297e      4e5e           unlk a6
           0x00482980      4e75           rts
 330: MENUCOM.swtch_off_inter ();
           0x00482982      4e56ffba       link.w a6, 0xffba
           0x00482986      bfd5           cmpa.l (a5), a7
       < 0x00482988      6206           bhi.b 0x482990
          0x0048298a      44fc0002       move.w 0x2, ccr
          0x0048298e      4e76           trapv
       > 0x00482990      defc0044       adda.w 0x44, a7
           0x00482994      48e7fdf0       movem.l d0-d5/d7/a0-a3, -(a7)
           0x00482998      47f9008101fe   lea.l 0x8101fe, a3
           0x0048299e      363c1068       move.w 0x1068, d3
           0x004829a2      7800           moveq 0x0, d4
           0x004829a4      7a12           moveq 0x12, d5
           0x004829a6      302e0008       move.w 0x8(a6), d0
           0x004829aa      4183           chk.w d3, d0
           0x004829ac      48c0           ext.l d0
           0x004829ae      e580           asl.l 0x2, d0
           0x004829b0      204b           movea.l a3, a0
           0x004829b2      20700800       movea.l (a0, d0.l), a0
           0x004829b6      b1e8fffc       cmpa.l -0x4(a0), a0
       < 0x004829ba      6702           beq.b 0x4829be
          0x004829bc      4e4d           trap 0xd
      > 0x004829be      3e280014       move.w 0x14(a0), d7
          0x004829c2      be6e0008       cmp.w 0x8(a6), d7
      < 0x004829c6      670000fc       beq.w 0x482ac4
         0x004829ca      4f83           chk.w d3, d7
         0x004829cc      48c7           ext.l d7
         0x004829ce      2007           move.l d7, d0
         0x004829d0      e580           asl.l 0x2, d0
         0x004829d2      204b           movea.l a3, a0
         0x004829d4      22700800       movea.l (a0, d0.l), a1
         0x004829d8      b3e9fffc       cmpa.l -0x4(a1), a1
     < 0x004829dc      6702           beq.b 0x4829e0
        0x004829de      4e4d           trap 0xd
     > 0x004829e0      0911           btst.l d4, (a1)
     < 0x004829e2      67000090       beq.w 0x482a74
        0x004829e6      0291feffffff   andi.l 0xfeffffff, (a1)
        0x004829ec      4a2c011e       tst.b 0x11e(a4)
    < 0x004829f0      671e           beq.b 0x482a10
       0x004829f2      24700800       movea.l (a0, d0.l), a2
       0x004829f6      b5eafffc       cmpa.l -0x4(a2), a2
   < 0x004829fa      6702           beq.b 0x4829fe
      0x004829fc      4e4d           trap 0xd
   > 0x004829fe      2f2a0032       move.l 0x32(a2), -(a7)
       0x00482a02      3f07           move.w d7, -(a7)
       0x00482a04      3f3c001e       move.w 0x1e, -(a7)
       0x00482a08      4eb90047e700   jsr fcn.0047e700
       0x00482a0e      504f           addq.w 0x8, a7
    > 0x00482a10      24700800       movea.l (a0, d0.l), a2
        0x00482a14      b5eafffc       cmpa.l -0x4(a2), a2
    < 0x00482a18      6702           beq.b 0x482a1c
       0x00482a1a      4e4d           trap 0xd
    > 0x00482a1c      0912           btst.l d4, (a2)
    < 0x00482a1e      6654           bne.b 0x482a74
       0x00482a20      3f07           move.w d7, -(a7)
       0x00482a22      4ebaf408       jsr MENUCOM.swtch_off_box(pc)
       0x00482a26      544f           addq.w 0x2, a7
       0x00482a28      4a2c011e       tst.b 0x11e(a4)
   < 0x00482a2c      671e           beq.b 0x482a4c
      0x00482a2e      24700800       movea.l (a0, d0.l), a2
      0x00482a32      b5eafffc       cmpa.l -0x4(a2), a2
  < 0x00482a36      6702           beq.b 0x482a3a
     0x00482a38      4e4d           trap 0xd
  > 0x00482a3a      2f2a0032       move.l 0x32(a2), -(a7)
      0x00482a3e      3f07           move.w d7, -(a7)
      0x00482a40      3f3c003b       move.w 0x3b, -(a7)
      0x00482a44      4eb90047e700   jsr fcn.0047e700
      0x00482a4a      504f           addq.w 0x8, a7
   > 0x00482a4c      24700800       movea.l (a0, d0.l), a2
       0x00482a50      b5eafffc       cmpa.l -0x4(a2), a2
   < 0x00482a54      6702           beq.b 0x482a58
      0x00482a56      4e4d           trap 0xd
   > 0x00482a58      122a0004       move.b 0x4(a2), d1
       0x00482a5c      4881           ext.w d1
       0x00482a5e      45fac6fc       lea.l 0x47f15c(pc), a2
       0x00482a62      3401           move.w d1, d2
       0x00482a64      e64a           lsr.w 0x3, d2
       0x00482a66      03322000       btst.l d1, (a2, d2.w)
   < 0x00482a6a      6708           beq.b 0x482a74
      0x00482a6c      3f07           move.w d7, -(a7)
      0x00482a6e      4ebafe4a       jsr MENUCOM.do_twin_sibling(pc)
      0x00482a72      544f           addq.w 0x2, a7
   > 0x00482a74      322e0008       move.w 0x8(a6), d1
         0x00482a78      4383           chk.w d3, d1
         0x00482a7a      48c1           ext.l d1
         0x00482a7c      e581           asl.l 0x2, d1
         0x00482a7e      224b           movea.l a3, a1
         0x00482a80      22711800       movea.l (a1, d1.l), a1
         0x00482a84      b3e9fffc       cmpa.l -0x4(a1), a1
     < 0x00482a88      6702           beq.b 0x482a8c
        0x00482a8a      4e4d           trap 0xd
     > 0x00482a8c      12290004       move.b 0x4(a1), d1
         0x00482a90      b205           cmp.b d5, d1
     < 0x00482a92      6620           bne.b 0x482ab4
        0x00482a94      22700800       movea.l (a0, d0.l), a1
        0x00482a98      b3e9fffc       cmpa.l -0x4(a1), a1
    < 0x00482a9c      6702           beq.b 0x482aa0
       0x00482a9e      4e4d           trap 0xd
    > 0x00482aa0      12290004       move.b 0x4(a1), d1
        0x00482aa4      b205           cmp.b d5, d1
    < 0x00482aa6      660c           bne.b 0x482ab4
       0x00482aa8      3f07           move.w d7, -(a7)
       0x00482aaa      4227           clr.b -(a7)
       0x00482aac      4eb900483972   jsr MENUCOM.set_enable_box
       0x00482ab2      584f           addq.w 0x4, a7
    > 0x00482ab4      20700800       movea.l (a0, d0.l), a0
         0x00482ab8      b1e8fffc       cmpa.l -0x4(a0), a0
     < 0x00482abc      6702           beq.b 0x482ac0
        0x00482abe      4e4d           trap 0xd
     < 0x00482ac0      6000fefc       bra.w 0x4829be
       > 0x00482ac4      4cdf0fbf       movem.l (a7)+, d0-d5/d7/a0-a3
           0x00482ac8      4e5e           unlk a6
           0x00482aca      4e75           rts
 152: MENUCOM.pad_box_off ();
           0x00482acc      4e56ffda       link.w a6, 0xffda
           0x00482ad0      bfd5           cmpa.l (a5), a7
       < 0x00482ad2      6206           bhi.b 0x482ada
          0x00482ad4      44fc0002       move.w 0x2, ccr
          0x00482ad8      4e76           trapv
       > 0x00482ada      defc0026       adda.w 0x26, a7
           0x00482ade      48e7c0e0       movem.l d0-d1/a0-a2, -(a7)
           0x00482ae2      43f9008190ca   lea.l 0x8190ca, a1
           0x00482ae8      45ee0008       lea.l 0x8(a6), a2
           0x00482aec      4a51           tst.w (a1)
       < 0x00482aee      676c           beq.b 0x482b5c
          0x00482af0      3011           move.w (a1), d0
          0x00482af2      b052           cmp.w (a2), d0
      < 0x00482af4      675e           beq.b 0x482b54
         0x00482af6      487ac669       pea.l 0x47f161(pc)
         0x00482afa      4878001d       pea.l 0x1d
         0x00482afe      2f17           move.l (a7), -(a7)
         0x00482b00      4eb9004047ea   jsr p_wts_o
         0x00482b06      defc000c       adda.w 0xc, a7
         0x00482b0a      4eb900404946   jsr p_wtln_o
         0x00482b10      4227           clr.b -(a7)
         0x00482b12      4eb90040452a   jsr p_Assert
         0x00482b18      3e91           move.w (a1), (a7)
         0x00482b1a      4ebaf310       jsr MENUCOM.swtch_off_box(pc)
         0x00482b1e      544f           addq.w 0x2, a7
         0x00482b20      4a2c011e       tst.b 0x11e(a4)
     < 0x00482b24      6736           beq.b 0x482b5c
        0x00482b26      3212           move.w (a2), d1
        0x00482b28      43bc1068       chk.w 0x1068, d1
        0x00482b2c      48c1           ext.l d1
        0x00482b2e      e581           asl.l 0x2, d1
        0x00482b30      41f9008101fe   lea.l 0x8101fe, a0
        0x00482b36      20701800       movea.l (a0, d1.l), a0
        0x00482b3a      b1e8fffc       cmpa.l -0x4(a0), a0
    < 0x00482b3e      6702           beq.b 0x482b42
       0x00482b40      4e4d           trap 0xd
    > 0x00482b42      2f280032       move.l 0x32(a0), -(a7)
        0x00482b46      3f12           move.w (a2), -(a7)
        0x00482b48      4267           clr.w -(a7)
        0x00482b4a      4eb90047e700   jsr fcn.0047e700
        0x00482b50      504f           addq.w 0x8, a7
    < 0x00482b52      6008           bra.b 0x482b5c
    > 0x00482b54      3f00           move.w d0, -(a7)
        0x00482b56      4ebaf2d4       jsr MENUCOM.swtch_off_box(pc)
        0x00482b5a      544f           addq.w 0x2, a7
    > 0x00482b5c      4cdf0703       movem.l (a7)+, d0-d1/a0-a2
           0x00482b60      4e5e           unlk a6
           0x00482b62      4e75           rts
 222: MENUCOM.new_pad_box ();
           0x00482b64      4e56fee0       link.w a6, 0xfee0
           0x00482b68      bfd5           cmpa.l (a5), a7
       < 0x00482b6a      6206           bhi.b 0x482b72
          0x00482b6c      44fc0002       move.w 0x2, ccr
          0x00482b70      4e76           trapv
       > 0x00482b72      defc0120       adda.w 0x120, a7
           0x00482b76      48e7e0e0       movem.l d0-d2/a0-a2, -(a7)
           0x00482b7a      43f9008190ca   lea.l 0x8190ca, a1
           0x00482b80      45f9008101fe   lea.l 0x8101fe, a2
           0x00482b86      343c1068       move.w 0x1068, d2
           0x00482b8a      4a51           tst.w (a1)
       < 0x00482b8c      670000ac       beq.w 0x482c3a
          0x00482b90      302e0008       move.w 0x8(a6), d0
          0x00482b94      4182           chk.w d2, d0
          0x00482b96      48c0           ext.l d0
          0x00482b98      e580           asl.l 0x2, d0
          0x00482b9a      204a           movea.l a2, a0
          0x00482b9c      20700800       movea.l (a0, d0.l), a0
          0x00482ba0      b1e8fffc       cmpa.l -0x4(a0), a0
      < 0x00482ba4      6702           beq.b 0x482ba8
         0x00482ba6      4e4d           trap 0xd
      > 0x00482ba8      08100005       btst.b 0x5, (a0)
      < 0x00482bac      6722           beq.b 0x482bd0
         0x00482bae      9efc00fc       suba.w 0xfc, a7
         0x00482bb2      2f3ac5ca       move.l 0x47f17e(pc), -(a7)
         0x00482bb6      2f7ac5ca0004   move.l 0x47f182(pc), 0x4(a7)
         0x00482bbc      3f7ac5c80008   move.w 0x47f186(pc), 0x8(a7)
         0x00482bc2      3f11           move.w (a1), -(a7)
         0x00482bc4      1f3c0001       move.b 0x1, -(a7)
         0x00482bc8      4ebadd08       jsr MENUCOM.show_box(pc)
         0x00482bcc      defc0104       adda.w 0x104, a7
      > 0x00482bd0      4a2c011e       tst.b 0x11e(a4)
      < 0x00482bd4      6726           beq.b 0x482bfc
         0x00482bd6      3011           move.w (a1), d0
         0x00482bd8      4182           chk.w d2, d0
         0x00482bda      48c0           ext.l d0
         0x00482bdc      e580           asl.l 0x2, d0
         0x00482bde      204a           movea.l a2, a0
         0x00482be0      20700800       movea.l (a0, d0.l), a0
         0x00482be4      b1e8fffc       cmpa.l -0x4(a0), a0
     < 0x00482be8      6702           beq.b 0x482bec
        0x00482bea      4e4d           trap 0xd
     > 0x00482bec      2f280032       move.l 0x32(a0), -(a7)
         0x00482bf0      3f11           move.w (a1), -(a7)
         0x00482bf2      4267           clr.w -(a7)
         0x00482bf4      4eb90047e700   jsr fcn.0047e700
         0x00482bfa      504f           addq.w 0x8, a7
      > 0x00482bfc      3011           move.w (a1), d0
          0x00482bfe      39400004       move.w d0, 0x4(a4)
          0x00482c02      4251           clr.w (a1)
          0x00482c04      3f00           move.w d0, -(a7)
          0x00482c06      4ebaf224       jsr MENUCOM.swtch_off_box(pc)
          0x00482c0a      544f           addq.w 0x2, a7
          0x00482c0c      4a2c011e       tst.b 0x11e(a4)
      < 0x00482c10      6728           beq.b 0x482c3a
         0x00482c12      4182           chk.w d2, d0
         0x00482c14      48c0           ext.l d0
         0x00482c16      2200           move.l d0, d1
         0x00482c18      e581           asl.l 0x2, d1
         0x00482c1a      204a           movea.l a2, a0
         0x00482c1c      20701800       movea.l (a0, d1.l), a0
         0x00482c20      b1e8fffc       cmpa.l -0x4(a0), a0
     < 0x00482c24      6702           beq.b 0x482c28
        0x00482c26      4e4d           trap 0xd
     > 0x00482c28      2f280032       move.l 0x32(a0), -(a7)
         0x00482c2c      3f00           move.w d0, -(a7)
         0x00482c2e      3f3c003b       move.w 0x3b, -(a7)
         0x00482c32      4eb90047e700   jsr fcn.0047e700
         0x00482c38      504f           addq.w 0x8, a7
      > 0x00482c3a      4cdf0707       movem.l (a7)+, d0-d2/a0-a2
           0x00482c3e      4e5e           unlk a6
           0x00482c40      4e75           rts
            ; CALL XREF from MENUCOM.swtch_options_b @ 0x482074
            ; CALL XREF from MENUCOM.push_box @ 0x483768
            ; CALL XREF from MENUCOM.swtch_box @ 0x48380c
 132: MENUCOM.do_box_interloc ();
           0x00482c42      4e56fda2       link.w a6, 0xfda2
           0x00482c46      bfd5           cmpa.l (a5), a7
       < 0x00482c48      6206           bhi.b 0x482c50
          0x00482c4a      44fc0002       move.w 0x2, ccr
          0x00482c4e      4e76           trapv
       > 0x00482c50      defc0148       adda.w 0x148, a7
           0x00482c54      48e7fff8       movem.l d0-d7/a0-a4, -(a7)
           0x00482c58      7801           moveq 0x1, d4
           0x00482c5a      7a00           moveq 0x0, d5
           0x00482c5c      302e000a       move.w 0xa(a6), d0
           0x00482c60      41bc1068       chk.w 0x1068, d0
           0x00482c64      48c0           ext.l d0
           0x00482c66      e580           asl.l 0x2, d0
           0x00482c68      41f9008101fe   lea.l 0x8101fe, a0
           0x00482c6e      22700800       movea.l (a0, d0.l), a1
           0x00482c72      b3e9fffc       cmpa.l -0x4(a1), a1
       < 0x00482c76      6702           beq.b 0x482c7a
          0x00482c78      4e4d           trap 0xd
       > 0x00482c7a      08110005       btst.b 0x5, (a1)
       < 0x00482c7e      6722           beq.b 0x482ca2
          0x00482c80      9efc00fc       suba.w 0xfc, a7
          0x00482c84      2f3ac502       move.l 0x47f188(pc), -(a7)
          0x00482c88      2f7ac5020004   move.l 0x47f18c(pc), 0x4(a7)
          0x00482c8e      3f7ac5000008   move.w 0x47f190(pc), 0x8(a7)
          0x00482c94      3f2e000a       move.w 0xa(a6), -(a7)
          0x00482c98      1f04           move.b d4, -(a7)
          0x00482c9a      4ebadc36       jsr MENUCOM.show_box(pc)
          0x00482c9e      defc0104       adda.w 0x104, a7
       > 0x00482ca2      0829000d0001   btst.b 0xd, 0x1(a1)
       < 0x00482ca8      66000910       bne.w 0x4835ba
          0x00482cac      12290004       move.b 0x4(a1), d1
          0x00482cb0      4881           ext.w d1
          0x00482cb2      3401           move.w d1, d2
          0x00482cb4      0c420013       cmpi.w 0x13, d2
      < 0x00482cb8      6302           bls.b 0x482cbc
         0x00482cba      4e4e           trap 0xe
      > 0x00482cbc      d442           add.w d2, d2
          0x00482cbe      343b2006       move.w 0x482cc6(pc, d2.w), d2
          0x00482cc2      4efb2002       jmp 0x482cc6(pc, d2.w)
           0x00482cc6      08b00306       
           0x00482cc7      b003           cmp.b d3, d0
           0x00482cc9      06030601       addi.b 0x1, d3
           0x00482ccd      d007           add.b d7, d0
           0x00482ccf      b006           cmp.b d6, d0
           0x00482cd1      eefff4ff       
           0x00482cd2      fff4           invalid
           0x00482cd4      fff4           invalid
           0x00482cd6      05a0           bclr.b d2, -(a0)
           0x00482cd8      05a0           bclr.b d2, -(a0)
           0x00482cda      05a0           bclr.b d2, -(a0)
           0x00482cdc      fff4           invalid
           0x00482cde      002803060872   ori.b 0x6, 0x872(a0)
           0x00482ce4      fff4           invalid
           0x00482ce6      08da05a0       
           0x00482ce7      da05           add.b d5, d5
           0x00482ce9      a003           invalid
           0x00482ceb      06071c3e       addi.b 0x3e, d7
           0x00482cef      2900           move.l d0, -(a4)
           0x00482cf1      143c074f       move.b 0x4f, d2
          0x00482cf5      bc10           cmp.b (a0), d6
      < 0x00482cf7      6848           bvc.b 0x482d41
         0x00482cf9      c724           and.b d3, -(a4)
         0x00482cfb      07e5           bset.b d3, -(a5)
         0x00482cfd      8245           or.w d5, d1
         0x00482cff      f900           invalid
         0x00482d01      8101           sbcd.b d1, d0
         0x00482d03      fe247228       fsub.w -(a4), fp4
         0x00482d07      00b5eafffc67.  ori.l 0xeafffc67, 0x4e(a5, d0.w)
         0x00482d0f      4d3e2a00       
         0x00482d10      3e2a0014       move.w 0x14(a2), d7
         0x00482d14      be6e000a       cmp.w 0xa(a6), d7
      < 0x00482d18      66d8           bne.b 0x482cf2
          0x00482d1a      4dbc1068       chk.w 0x1068, d6
          0x00482d1e      48c6           ext.l d6
          0x00482d20      2406           move.l d6, d2
          0x00482d22      e582           asl.l 0x2, d2
          0x00482d24      45f9008101fe   lea.l 0x8101fe, a2
          0x00482d2a      24722800       movea.l (a2, d2.l), a2
          0x00482d2e      b5eafffc       cmpa.l -0x4(a2), a2
      < 0x00482d32      6702           beq.b 0x482d36
         0x00482d34      4e4d           trap 0xd
      > 0x00482d36      266a001e       movea.l 0x1e(a2), a3
      > 0x00482d3a      b6c4           cmpa.w d4, a3
     < 0x00482d3c      6716           beq.b 0x482d54
        0x00482d3e      b7ebfffc       cmpa.l -0x4(a3), a3
     < 0x00482d42      6702           beq.b 0x482d46
        0x00482d44      4e4d           trap 0xd
     > 0x00482d46      3f13           move.w (a3), -(a7)
         0x00482d48      4ebaee52       jsr MENUCOM.unpost_box(pc)
         0x00482d4c      544f           addq.w 0x2, a7
         0x00482d4e      266b0004       movea.l 0x4(a3), a3
      < 0x00482d52      60e6           bra.b 0x482d3a
     > 0x00482d54      4a2e0008       tst.b 0x8(a6)
       < 0x00482d58      672e           beq.b 0x482d88
          0x00482d5a      4dbc1068       chk.w 0x1068, d6
          0x00482d5e      48c6           ext.l d6
          0x00482d60      2406           move.l d6, d2
          0x00482d62      e582           asl.l 0x2, d2
          0x00482d64      45f9008101fe   lea.l 0x8101fe, a2
          0x00482d6a      24722800       movea.l (a2, d2.l), a2
          0x00482d6e      b5eafffc       cmpa.l -0x4(a2), a2
      < 0x00482d72      6702           beq.b 0x482d76
         0x00482d74      4e4d           trap 0xd
      > 0x00482d76      2f2a0032       move.l 0x32(a2), -(a7)
          0x00482d7a      3f06           move.w d6, -(a7)
          0x00482d7c      3f3c001e       move.w 0x1e, -(a7)
          0x00482d80      4eb90047e700   jsr fcn.0047e700
          0x00482d86      504f           addq.w 0x8, a7
       > 0x00482d88      4a2e0008       tst.b 0x8(a6)
       < 0x00482d8c      6712           beq.b 0x482da0
          0x00482d8e      2f290032       move.l 0x32(a1), -(a7)
          0x00482d92      3f2e000a       move.w 0xa(a6), -(a7)
          0x00482d96      3f04           move.w d4, -(a7)
          0x00482d98      4eb90047e700   jsr fcn.0047e700
          0x00482d9e      504f           addq.w 0x8, a7
       > 0x00482da0      342e000a       move.w 0xa(a6), d2
           0x00482da4      45bc1068       chk.w 0x1068, d2
           0x00482da8      48c2           ext.l d2
           0x00482daa      e582           asl.l 0x2, d2
           0x00482dac      45f9008101fe   lea.l 0x8101fe, a2
           0x00482db2      24722800       movea.l (a2, d2.l), a2
           0x00482db6      b5eafffc       cmpa.l -0x4(a2), a2
       < 0x00482dba      6702           beq.b 0x482dbe
          0x00482dbc      4e4d           trap 0xd
       > 0x00482dbe      266a001e       movea.l 0x1e(a2), a3
       > 0x00482dc2      b6c4           cmpa.w d4, a3
      < 0x00482dc4      6716           beq.b 0x482ddc
         0x00482dc6      b7ebfffc       cmpa.l -0x4(a3), a3
     < 0x00482dca      6702           beq.b 0x482dce
        0x00482dcc      4e4d           trap 0xd
     > 0x00482dce      3f13           move.w (a3), -(a7)
         0x00482dd0      4ebaeada       jsr MENUCOM.post_box(pc)
         0x00482dd4      544f           addq.w 0x2, a7
         0x00482dd6      266b0004       movea.l 0x4(a3), a3
      < 0x00482dda      60e6           bra.b 0x482dc2
      > 0x00482ddc      2411           move.l (a1), d2
           0x00482dde      02820c000000   andi.l 0xc000000, d2
           0x00482de4      b4bac3b0       cmp.l 0x47f196(pc), d2
       < 0x00482de8      660a           bne.b 0x482df4
          0x00482dea      3f2e000a       move.w 0xa(a6), -(a7)
          0x00482dee      4ebae10a       jsr MENUCOM.box_not_locatab(pc)
          0x00482df2      544f           addq.w 0x2, a7
       > 0x00482df4      0291f7ffffff   andi.l 0xf7ffffff, (a1)
           0x00482dfa      34290014       move.w 0x14(a1), d2
           0x00482dfe      45bc1068       chk.w 0x1068, d2
           0x00482e02      48c2           ext.l d2
           0x00482e04      e582           asl.l 0x2, d2
           0x00482e06      45f9008101fe   lea.l 0x8101fe, a2
           0x00482e0c      24722800       movea.l (a2, d2.l), a2
           0x00482e10      b5eafffc       cmpa.l -0x4(a2), a2
       < 0x00482e14      6702           beq.b 0x482e18
          0x00482e16      4e4d           trap 0xd
       > 0x00482e18      08120002       btst.b 0x2, (a2)
       < 0x00482e1c      670a           beq.b 0x482e28
          0x00482e1e      3f290014       move.w 0x14(a1), -(a7)
          0x00482e22      4ebadff6       jsr MENUCOM.box_locatable(pc)
          0x00482e26      544f           addq.w 0x2, a7
       > 0x00482e28      34290014       move.w 0x14(a1), d2
           0x00482e2c      45bc1068       chk.w 0x1068, d2
           0x00482e30      48c2           ext.l d2
           0x00482e32      e582           asl.l 0x2, d2
           0x00482e34      45f9008101fe   lea.l 0x8101fe, a2
           0x00482e3a      24722800       movea.l (a2, d2.l), a2
           0x00482e3e      b5eafffc       cmpa.l -0x4(a2), a2
       < 0x00482e42      6702           beq.b 0x482e46
          0x00482e44      4e4d           trap 0xd
       > 0x00482e46      009208000000   ori.l 0x8000000, (a2)
           0x00482e4c      3f290014       move.w 0x14(a1), -(a7)
           0x00482e50      4ebae620       jsr MENUCOM.draw_box(pc)
           0x00482e54      544f           addq.w 0x2, a7
           0x00482e56      4a2e0008       tst.b 0x8(a6)
       < 0x00482e5a      6736           beq.b 0x482e92
          0x00482e5c      0b11           btst.l d5, (a1)
      < 0x00482e5e      670c           beq.b 0x482e6c
         0x00482e60      2f290032       move.l 0x32(a1), -(a7)
         0x00482e64      3f2e000a       move.w 0xa(a6), -(a7)
         0x00482e68      3f04           move.w d4, -(a7)
     < 0x00482e6a      601e           bra.b 0x482e8a
     > 0x00482e6c      2f290032       move.l 0x32(a1), -(a7)
         0x00482e70      3f2e000a       move.w 0xa(a6), -(a7)
         0x00482e74      4267           clr.w -(a7)
         0x00482e76      4eb90047e700   jsr fcn.0047e700
         0x00482e7c      584f           addq.w 0x4, a7
         0x00482e7e      2ea90032       move.l 0x32(a1), (a7)
         0x00482e82      3f2e000a       move.w 0xa(a6), -(a7)
         0x00482e86      3f3c003b       move.w 0x3b, -(a7)
     > 0x00482e8a      4eb90047e700   jsr fcn.0047e700
          0x00482e90      504f           addq.w 0x8, a7
      > 0x00482e92      60000726       bra.w 0x4835ba
          0x00482e96      0b11           btst.l d5, (a1)
      < 0x00482e98      6700010c       beq.w 0x482fa6
         0x00482e9c      4a2e0008       tst.b 0x8(a6)
     < 0x00482ea0      6712           beq.b 0x482eb4
        0x00482ea2      2f290032       move.l 0x32(a1), -(a7)
        0x00482ea6      3f2e000a       move.w 0xa(a6), -(a7)
        0x00482eaa      4267           clr.w -(a7)
        0x00482eac      4eb90047e700   jsr fcn.0047e700
        0x00482eb2      504f           addq.w 0x8, a7
     > 0x00482eb4      3f2e000a       move.w 0xa(a6), -(a7)
         0x00482eb8      4ebaef72       jsr MENUCOM.swtch_off_box(pc)
         0x00482ebc      544f           addq.w 0x2, a7
         0x00482ebe      4a2e0008       tst.b 0x8(a6)
     < 0x00482ec2      6714           beq.b 0x482ed8
        0x00482ec4      2f290032       move.l 0x32(a1), -(a7)
        0x00482ec8      3f2e000a       move.w 0xa(a6), -(a7)
        0x00482ecc      3f3c003b       move.w 0x3b, -(a7)
        0x00482ed0      4eb90047e700   jsr fcn.0047e700
        0x00482ed6      504f           addq.w 0x8, a7
     > 0x00482ed8      3e290014       move.w 0x14(a1), d7
     > 0x00482edc      4fbc1068       chk.w 0x1068, d7
        0x00482ee0      48c7           ext.l d7
        0x00482ee2      2407           move.l d7, d2
        0x00482ee4      e582           asl.l 0x2, d2
        0x00482ee6      45f9008101fe   lea.l 0x8101fe, a2
        0x00482eec      24722800       movea.l (a2, d2.l), a2
        0x00482ef0      b5eafffc       cmpa.l -0x4(a2), a2
    < 0x00482ef4      6702           beq.b 0x482ef8
       0x00482ef6      4e4d           trap 0xd
    > 0x00482ef8      3e2a0014       move.w 0x14(a2), d7
        0x00482efc      4fbc1068       chk.w 0x1068, d7
        0x00482f00      48c7           ext.l d7
        0x00482f02      2407           move.l d7, d2
        0x00482f04      e582           asl.l 0x2, d2
        0x00482f06      45f9008101fe   lea.l 0x8101fe, a2
        0x00482f0c      24722800       movea.l (a2, d2.l), a2
        0x00482f10      b5eafffc       cmpa.l -0x4(a2), a2
    < 0x00482f14      6702           beq.b 0x482f18
       0x00482f16      4e4d           trap 0xd
    > 0x00482f18      0b12           btst.l d5, (a2)
    < 0x00482f1a      6606           bne.b 0x482f22
       0x00482f1c      be6e000a       cmp.w 0xa(a6), d7
    < 0x00482f20      66ba           bne.b 0x482edc
    > 0x00482f22      0b12           btst.l d5, (a2)
     < 0x00482f24      660000a2       bne.w 0x482fc8
        0x00482f28      3e2e000a       move.w 0xa(a6), d7
        0x00482f2c      2f08           move.l a0, -(a7)
    > 0x00482f2e      2057           movea.l (a7), a0
       0x00482f30      4fbc1068       chk.w 0x1068, d7
       0x00482f34      48c7           ext.l d7
       0x00482f36      2407           move.l d7, d2
       0x00482f38      e582           asl.l 0x2, d2
       0x00482f3a      45f9008101fe   lea.l 0x8101fe, a2
       0x00482f40      24722800       movea.l (a2, d2.l), a2
       0x00482f44      b5eafffc       cmpa.l -0x4(a2), a2
   < 0x00482f48      6702           beq.b 0x482f4c
      0x00482f4a      4e4d           trap 0xd
   > 0x00482f4c      3e2a0014       move.w 0x14(a2), d7
       0x00482f50      4fbc1068       chk.w 0x1068, d7
       0x00482f54      48c7           ext.l d7
       0x00482f56      2407           move.l d7, d2
       0x00482f58      e582           asl.l 0x2, d2
       0x00482f5a      45f9008101fe   lea.l 0x8101fe, a2
       0x00482f60      20722800       movea.l (a2, d2.l), a0
       0x00482f64      b1e8fffc       cmpa.l -0x4(a0), a0
   < 0x00482f68      6702           beq.b 0x482f6c
      0x00482f6a      4e4d           trap 0xd
   > 0x00482f6c      0828000d0001   btst.b 0xd, 0x1(a0)
    < 0x00482f72      66ba           bne.b 0x482f2e
        0x00482f74      3f07           move.w d7, -(a7)
        0x00482f76      4ebaee18       jsr MENUCOM.swtch_on_box(pc)
        0x00482f7a      544f           addq.w 0x2, a7
        0x00482f7c      4a2e0008       tst.b 0x8(a6)
    < 0x00482f80      6604           bne.b 0x482f86
       0x00482f82      584f           addq.w 0x4, a7
   < 0x00482f84      6042           bra.b 0x482fc8
   > 0x00482f86      20722800       movea.l (a2, d2.l), a0
       0x00482f8a      b1e8fffc       cmpa.l -0x4(a0), a0
   < 0x00482f8e      6702           beq.b 0x482f92
      0x00482f90      4e4d           trap 0xd
   > 0x00482f92      2f280032       move.l 0x32(a0), -(a7)
       0x00482f96      3f07           move.w d7, -(a7)
       0x00482f98      3f04           move.w d4, -(a7)
       0x00482f9a      4eb90047e700   jsr fcn.0047e700
       0x00482fa0      defc000c       adda.w 0xc, a7
   < 0x00482fa4      6022           bra.b 0x482fc8
   > 0x00482fa6      3f2e000a       move.w 0xa(a6), -(a7)
       0x00482faa      4ebaede4       jsr MENUCOM.swtch_on_box(pc)
       0x00482fae      544f           addq.w 0x2, a7
       0x00482fb0      4a2e0008       tst.b 0x8(a6)
   < 0x00482fb4      6712           beq.b 0x482fc8
      0x00482fb6      2f290032       move.l 0x32(a1), -(a7)
      0x00482fba      3f2e000a       move.w 0xa(a6), -(a7)
      0x00482fbe      3f04           move.w d4, -(a7)
      0x00482fc0      4eb90047e700   jsr fcn.0047e700
      0x00482fc6      504f           addq.w 0x8, a7
  > 0x00482fc8      600005f0       bra.w 0x4835ba
         0x00482fcc      0b11           btst.l d5, (a1)
     < 0x00482fce      670001d4       beq.w 0x4831a4
        0x00482fd2      45fac1ce       lea.l 0x47f1a2(pc), a2
        0x00482fd6      3401           move.w d1, d2
        0x00482fd8      e64a           lsr.w 0x3, d2
        0x00482fda      03322000       btst.l d1, (a2, d2.w)
    < 0x00482fde      672c           beq.b 0x48300c
       0x00482fe0      4a2e0008       tst.b 0x8(a6)
   < 0x00482fe4      6700027c       beq.w 0x483262
      0x00482fe8      24700800       movea.l (a0, d0.l), a2
      0x00482fec      b5eafffc       cmpa.l -0x4(a2), a2
  < 0x00482ff0      6702           beq.b 0x482ff4
     0x00482ff2      4e4d           trap 0xd
  > 0x00482ff4      2f2a0032       move.l 0x32(a2), -(a7)
      0x00482ff8      3f2e000a       move.w 0xa(a6), -(a7)
      0x00482ffc      3f3c0004       move.w 0x4, -(a7)
      0x00483000      4eb90047e700   jsr fcn.0047e700
      0x00483006      504f           addq.w 0x8, a7
  < 0x00483008      60000258       bra.w 0x483262
  > 0x0048300c      0291feffffff   andi.l 0xfeffffff, (a1)
      0x00483012      3f2e000a       move.w 0xa(a6), -(a7)
      0x00483016      4ebae45a       jsr MENUCOM.draw_box(pc)
      0x0048301a      544f           addq.w 0x2, a7
      0x0048301c      4a2e0008       tst.b 0x8(a6)
  < 0x00483020      671e           beq.b 0x483040
     0x00483022      24700800       movea.l (a0, d0.l), a2
     0x00483026      b5eafffc       cmpa.l -0x4(a2), a2
  < 0x0048302a      6702           beq.b 0x48302e
     0x0048302c      4e4d           trap 0xd
  > 0x0048302e      2f2a0032       move.l 0x32(a2), -(a7)
     0x00483032      3f2e000a       move.w 0xa(a6), -(a7)
     0x00483036      4267           clr.w -(a7)
     0x00483038      4eb90047e700   jsr fcn.0047e700
     0x0048303e      504f           addq.w 0x8, a7
  > 0x00483040      0b11           btst.l d5, (a1)
  < 0x00483042      6600015c       bne.w 0x4831a0
     0x00483046      082900100002   btst.b 0x10, 0x2(a1)
  < 0x0048304c      670e           beq.b 0x48305c
     0x0048304e      3f2e000a       move.w 0xa(a6), -(a7)
     0x00483052      49eefeea       lea.l -0x116(a6), a4
     0x00483056      4ebafa74       jsr MENUCOM.pad_box_off(pc)
  < 0x0048305a      6008           bra.b 0x483064
  > 0x0048305c      3f2e000a       move.w 0xa(a6), -(a7)
     0x00483060      4ebaedca       jsr MENUCOM.swtch_off_box(pc)
  > 0x00483064      544f           addq.w 0x2, a7
     0x00483066      4a2e0008       tst.b 0x8(a6)
  < 0x0048306a      6732           beq.b 0x48309e
     0x0048306c      342e000a       move.w 0xa(a6), d2
     0x00483070      45bc1068       chk.w 0x1068, d2
     0x00483074      48c2           ext.l d2
     0x00483076      e582           asl.l 0x2, d2
     0x00483078      45f9008101fe   lea.l 0x8101fe, a2
     0x0048307e      24722800       movea.l (a2, d2.l), a2
     0x00483082      b5eafffc       cmpa.l -0x4(a2), a2
  < 0x00483086      6702           beq.b 0x48308a
     0x00483088      4e4d           trap 0xd
  > 0x0048308a      2f2a0032       move.l 0x32(a2), -(a7)
     0x0048308e      3f2e000a       move.w 0xa(a6), -(a7)
     0x00483092      3f3c003b       move.w 0x3b, -(a7)
     0x00483096      4eb90047e700   jsr fcn.0047e700
     0x0048309c      504f           addq.w 0x8, a7
  > 0x0048309e      3e290014       move.w 0x14(a1), d7
     0x004830a2      2f08           move.l a0, -(a7)
  > 0x004830a4      2057           movea.l (a7), a0
     0x004830a6      be6e000a       cmp.w 0xa(a6), d7
  < 0x004830aa      6604           bne.b 0x4830b0
     0x004830ac      584f           addq.w 0x4, a7
  < 0x004830ae      6044           bra.b 0x4830f4
  > 0x004830b0      4fbc1068       chk.w 0x1068, d7
     0x004830b4      48c7           ext.l d7
     0x004830b6      2407           move.l d7, d2
     0x004830b8      e582           asl.l 0x2, d2
     0x004830ba      45f9008101fe   lea.l 0x8101fe, a2
     0x004830c0      20722800       movea.l (a2, d2.l), a0
     0x004830c4      b1e8fffc       cmpa.l -0x4(a0), a0
  < 0x004830c8      6702           beq.b 0x4830cc
     0x004830ca      4e4d           trap 0xd
  > 0x004830cc      16280004       move.b 0x4(a0), d3
     0x004830d0      0c030012       cmpi.b 0x12, d3
  < 0x004830d4      660c           bne.b 0x4830e2
     0x004830d6      3f07           move.w d7, -(a7)
     0x004830d8      1f04           move.b d4, -(a7)
     0x004830da      4eb900483972   jsr MENUCOM.set_enable_box
     0x004830e0      584f           addq.w 0x4, a7
  > 0x004830e2      20722800       movea.l (a2, d2.l), a0
     0x004830e6      b1e8fffc       cmpa.l -0x4(a0), a0
  < 0x004830ea      6702           beq.b 0x4830ee
     0x004830ec      4e4d           trap 0xd
  > 0x004830ee      3e280014       move.w 0x14(a0), d7
  < 0x004830f2      60b0           bra.b 0x4830a4
  > 0x004830f4      14290004       move.b 0x4(a1), d2
     0x004830f8      4882           ext.w d2
     0x004830fa      45fac0ae       lea.l 0x47f1aa(pc), a2
     0x004830fe      3602           move.w d2, d3
     0x00483100      e64b           lsr.w 0x3, d3
     0x00483102      05323000       btst.l d2, (a2, d3.w)
  < 0x00483106      670a           beq.b 0x483112
     0x00483108      3f2e000a       move.w 0xa(a6), -(a7)
     0x0048310c      4ebaf7ac       jsr MENUCOM.do_twin_sibling(pc)
     0x00483110      544f           addq.w 0x2, a7
  > 0x00483112      3e290014       move.w 0x14(a1), d7
     0x00483116      2f08           move.l a0, -(a7)
  > 0x00483118      2057           movea.l (a7), a0
     0x0048311a      be6e000a       cmp.w 0xa(a6), d7
  < 0x0048311e      6606           bne.b 0x483126
     0x00483120      584f           addq.w 0x4, a7
  < 0x00483122      6000013e       bra.w 0x483262
  > 0x00483126      4fbc1068       chk.w 0x1068, d7
     0x0048312a      48c7           ext.l d7
     0x0048312c      2407           move.l d7, d2
     0x0048312e      e582           asl.l 0x2, d2
     0x00483130      45f9008101fe   lea.l 0x8101fe, a2
     0x00483136      20722800       movea.l (a2, d2.l), a0
     0x0048313a      b1e8fffc       cmpa.l -0x4(a0), a0
  < 0x0048313e      6702           beq.b 0x483142
     0x00483140      4e4d           trap 0xd
  > 0x00483142      0b10           btst.l d5, (a0)
  < 0x00483144      664e           bne.b 0x483194
     0x00483146      16280004       move.b 0x4(a0), d3
     0x0048314a      0c03000d       cmpi.b 0xd, d3
  < 0x0048314e      6644           bne.b 0x483194
     0x00483150      009001000000   ori.l 0x1000000, (a0)
     0x00483156      3f07           move.w d7, -(a7)
     0x00483158      4ebae318       jsr MENUCOM.draw_box(pc)
     0x0048315c      544f           addq.w 0x2, a7
     0x0048315e      4a2e0008       tst.b 0x8(a6)
  < 0x00483162      671c           beq.b 0x483180
     0x00483164      20722800       movea.l (a2, d2.l), a0
     0x00483168      b1e8fffc       cmpa.l -0x4(a0), a0
  < 0x0048316c      6702           beq.b 0x483170
     0x0048316e      4e4d           trap 0xd
  > 0x00483170      2f280032       move.l 0x32(a0), -(a7)
     0x00483174      3f07           move.w d7, -(a7)
     0x00483176      3f04           move.w d4, -(a7)
     0x00483178      4eb90047e700   jsr fcn.0047e700
     0x0048317e      504f           addq.w 0x8, a7
  > 0x00483180      3f07           move.w d7, -(a7)
     0x00483182      4ebaec0c       jsr MENUCOM.swtch_on_box(pc)
     0x00483186      3e87           move.w d7, (a7)
     0x00483188      4ebaf730       jsr MENUCOM.do_twin_sibling(pc)
     0x0048318c      544f           addq.w 0x2, a7
     0x0048318e      3e2e000a       move.w 0xa(a6), d7
  < 0x00483192      6004           bra.b 0x483198
  > 0x00483194      3e280014       move.w 0x14(a0), d7
  < 0x00483198      6000ff7e       bra.w 0x483118
  < 0x0048319c      600000c4       bra.w 0x483262
  > 0x004831a0      600000b6       bra.w 0x483258
   > 0x004831a4      082900100002   btst.b 0x10, 0x2(a1)
   < 0x004831aa      670e           beq.b 0x4831ba
      0x004831ac      3f2e000a       move.w 0xa(a6), -(a7)
      0x004831b0      49eefeea       lea.l -0x116(a6), a4
      0x004831b4      4ebaf9ae       jsr MENUCOM.new_pad_box(pc)
      0x004831b8      544f           addq.w 0x2, a7
   > 0x004831ba      3f2e000a       move.w 0xa(a6), -(a7)
       0x004831be      49eefeea       lea.l -0x116(a6), a4
       0x004831c2      4ebaf7be       jsr MENUCOM.swtch_off_inter(pc)
       0x004831c6      544f           addq.w 0x2, a7
       0x004831c8      14290004       move.b 0x4(a1), d2
       0x004831cc      4882           ext.w d2
       0x004831ce      45fabfe2       lea.l 0x47f1b2(pc), a2
       0x004831d2      3602           move.w d2, d3
       0x004831d4      e64b           lsr.w 0x3, d3
       0x004831d6      05323000       btst.l d2, (a2, d3.w)
   < 0x004831da      670a           beq.b 0x4831e6
      0x004831dc      3f2e000a       move.w 0xa(a6), -(a7)
      0x004831e0      4ebaf6d8       jsr MENUCOM.do_twin_sibling(pc)
      0x004831e4      544f           addq.w 0x2, a7
   > 0x004831e6      009101000000   ori.l 0x1000000, (a1)
       0x004831ec      3f2e000a       move.w 0xa(a6), -(a7)
       0x004831f0      4ebae280       jsr MENUCOM.draw_box(pc)
       0x004831f4      544f           addq.w 0x2, a7
       0x004831f6      4a2e0008       tst.b 0x8(a6)
   < 0x004831fa      6730           beq.b 0x48322c
      0x004831fc      342e000a       move.w 0xa(a6), d2
      0x00483200      45bc1068       chk.w 0x1068, d2
      0x00483204      48c2           ext.l d2
      0x00483206      e582           asl.l 0x2, d2
      0x00483208      45f9008101fe   lea.l 0x8101fe, a2
      0x0048320e      24722800       movea.l (a2, d2.l), a2
      0x00483212      b5eafffc       cmpa.l -0x4(a2), a2
  < 0x00483216      6702           beq.b 0x48321a
     0x00483218      4e4d           trap 0xd
  > 0x0048321a      2f2a0032       move.l 0x32(a2), -(a7)
      0x0048321e      3f2e000a       move.w 0xa(a6), -(a7)
      0x00483222      3f04           move.w d4, -(a7)
      0x00483224      4eb90047e700   jsr fcn.0047e700
      0x0048322a      504f           addq.w 0x8, a7
   > 0x0048322c      0b11           btst.l d5, (a1)
   < 0x0048322e      6728           beq.b 0x483258
      0x00483230      3f2e000a       move.w 0xa(a6), -(a7)
      0x00483234      4ebaeb5a       jsr MENUCOM.swtch_on_box(pc)
      0x00483238      544f           addq.w 0x2, a7
      0x0048323a      082900100002   btst.b 0x10, 0x2(a1)
  < 0x00483240      6720           beq.b 0x483262
     0x00483242      1f04           move.b d4, -(a7)
     0x00483244      1f04           move.b d4, -(a7)
     0x00483246      4eb90048f5e6   jsr MENURIGHTCOM.alter_right
     0x0048324c      584f           addq.w 0x4, a7
     0x0048324e      33ee000a0081.  move.w 0xa(a6), 0x8190ca.l
  < 0x00483256      600a           bra.b 0x483262
  > 0x00483258      3f2e000a       move.w 0xa(a6), -(a7)
      0x0048325c      4ebae214       jsr MENUCOM.draw_box(pc)
  > 0x00483260      544f           addq.w 0x2, a7
  > 0x00483262      60000356       bra.w 0x4835ba
        0x00483266      0b11           btst.l d5, (a1)
    < 0x00483268      6744           beq.b 0x4832ae
       0x0048326a      08110005       btst.b 0x5, (a1)
   < 0x0048326e      6714           beq.b 0x483284
      0x00483270      487abf49       pea.l 0x47f1bb(pc)
      0x00483274      48780017       pea.l 0x17
      0x00483278      2f17           move.l (a7), -(a7)
      0x0048327a      4eb9004047ea   jsr p_wts_o
      0x00483280      defc000c       adda.w 0xc, a7
   > 0x00483284      12290004       move.b 0x4(a1), d1
       0x00483288      4881           ext.w d1
       0x0048328a      43bc0013       chk.w 0x13, d1
       0x0048328e      1f01           move.b d1, -(a7)
       0x00483290      4227           clr.b -(a7)
       0x00483292      1f04           move.b d4, -(a7)
       0x00483294      4eb90048d3ce   jsr MENU2COM.clear_num_date
       0x0048329a      584f           addq.w 0x4, a7
       0x0048329c      3eae000a       move.w 0xa(a6), (a7)
       0x004832a0      49eefeea       lea.l -0x116(a6), a4
       0x004832a4      4ebaf826       jsr MENUCOM.pad_box_off(pc)
       0x004832a8      544f           addq.w 0x2, a7
   < 0x004832aa      600000fe       bra.w 0x4833aa
   > 0x004832ae      08110005       btst.b 0x5, (a1)
   < 0x004832b2      6714           beq.b 0x4832c8
      0x004832b4      487abf1d       pea.l 0x47f1d3(pc)
      0x004832b8      48780016       pea.l 0x16
      0x004832bc      2f17           move.l (a7), -(a7)
      0x004832be      4eb9004047ea   jsr p_wts_o
      0x004832c4      defc000c       adda.w 0xc, a7
   > 0x004832c8      3f2e000a       move.w 0xa(a6), -(a7)
       0x004832cc      49eefeea       lea.l -0x116(a6), a4
       0x004832d0      4ebaf892       jsr MENUCOM.new_pad_box(pc)
       0x004832d4      4217           clr.b (a7)
       0x004832d6      4ebaed4a       jsr MENUCOM.swtch_options_b(pc)
       0x004832da      3eae000a       move.w 0xa(a6), (a7)
       0x004832de      49eefeea       lea.l -0x116(a6), a4
       0x004832e2      4ebaf69e       jsr MENUCOM.swtch_off_inter(pc)
       0x004832e6      544f           addq.w 0x2, a7
       0x004832e8      009101000000   ori.l 0x1000000, (a1)
       0x004832ee      3f2e000a       move.w 0xa(a6), -(a7)
       0x004832f2      4ebae17e       jsr MENUCOM.draw_box(pc)
       0x004832f6      544f           addq.w 0x2, a7
       0x004832f8      4a2e0008       tst.b 0x8(a6)
   < 0x004832fc      6712           beq.b 0x483310
      0x004832fe      2f290032       move.l 0x32(a1), -(a7)
      0x00483302      3f2e000a       move.w 0xa(a6), -(a7)
      0x00483306      3f04           move.w d4, -(a7)
      0x00483308      4eb90047e700   jsr fcn.0047e700
      0x0048330e      504f           addq.w 0x8, a7
   > 0x00483310      0b11           btst.l d5, (a1)
   < 0x00483312      6774           beq.b 0x483388
      0x00483314      3f2e000a       move.w 0xa(a6), -(a7)
      0x00483318      4ebaea76       jsr MENUCOM.swtch_on_box(pc)
      0x0048331c      544f           addq.w 0x2, a7
      0x0048331e      322e000a       move.w 0xa(a6), d1
      0x00483322      43bc1068       chk.w 0x1068, d1
      0x00483326      48c1           ext.l d1
      0x00483328      e581           asl.l 0x2, d1
      0x0048332a      45f9008101fe   lea.l 0x8101fe, a2
      0x00483330      24721800       movea.l (a2, d1.l), a2
      0x00483334      b5eafffc       cmpa.l -0x4(a2), a2
  < 0x00483338      6702           beq.b 0x48333c
     0x0048333a      4e4d           trap 0xd
  > 0x0048333c      122a0004       move.b 0x4(a2), d1
      0x00483340      0c01000a       cmpi.b 0xa, d1
  < 0x00483344      6606           bne.b 0x48334c
     0x00483346      1f3c0003       move.b 0x3, -(a7)
  < 0x0048334a      6028           bra.b 0x483374
  > 0x0048334c      0c010011       cmpi.b 0x11, d1
  < 0x00483350      6606           bne.b 0x483358
     0x00483352      1f3c0002       move.b 0x2, -(a7)
  < 0x00483356      601c           bra.b 0x483374
  > 0x00483358      342e000a       move.w 0xa(a6), d2
      0x0048335c      0c42ffff       cmpi.w 0xffff, d2
  < 0x00483360      6302           bls.b 0x483364
     0x00483362      4e4f           trap 0xf
  > 0x00483364      3f02           move.w d2, -(a7)
      0x00483366      2f2a0022       move.l 0x22(a2), -(a7)
      0x0048336a      4eb90048e2ea   jsr MENU2COM.setup_numpad_fo
      0x00483370      584f           addq.w 0x4, a7
      0x00483372      4217           clr.b (a7)
  > 0x00483374      1f04           move.b d4, -(a7)
      0x00483376      4eb90048f5e6   jsr MENURIGHTCOM.alter_right
      0x0048337c      584f           addq.w 0x4, a7
      0x0048337e      33ee000a0081.  move.w 0xa(a6), 0x8190ca.l
  < 0x00483386      600a           bra.b 0x483392
  > 0x00483388      3f2e000a       move.w 0xa(a6), -(a7)
      0x0048338c      4ebae0e4       jsr MENUCOM.draw_box(pc)
      0x00483390      544f           addq.w 0x2, a7
  > 0x00483392      12290004       move.b 0x4(a1), d1
       0x00483396      4881           ext.w d1
       0x00483398      43bc0013       chk.w 0x13, d1
       0x0048339c      1f01           move.b d1, -(a7)
       0x0048339e      1f04           move.b d4, -(a7)
       0x004833a0      1f04           move.b d4, -(a7)
       0x004833a2      4eb90048d3ce   jsr MENU2COM.clear_num_date
       0x004833a8      5c4f           addq.w 0x6, a7
   > 0x004833aa      4eb90047ba18   jsr CNTLCOM.purge_keybd
    < 0x004833b0      60000208       bra.w 0x4835ba
       0x004833b4      3f2e000a       move.w 0xa(a6), -(a7)
       0x004833b8      4ebae9d6       jsr MENUCOM.swtch_on_box(pc)
       0x004833bc      544f           addq.w 0x2, a7
       0x004833be      4a2e0008       tst.b 0x8(a6)
   < 0x004833c2      6712           beq.b 0x4833d6
      0x004833c4      2f290032       move.l 0x32(a1), -(a7)
      0x004833c8      3f2e000a       move.w 0xa(a6), -(a7)
      0x004833cc      3f04           move.w d4, -(a7)
      0x004833ce      4eb90047e700   jsr fcn.0047e700
      0x004833d4      504f           addq.w 0x8, a7
   > 0x004833d6      3f2e000a       move.w 0xa(a6), -(a7)
       0x004833da      4ebaea50       jsr MENUCOM.swtch_off_box(pc)
  < 0x004833de      6000fe80       bra.w 0x483260
       0x004833e2      0b11           btst.l d5, (a1)
   < 0x004833e4      6730           beq.b 0x483416
      0x004833e6      4a2e0008       tst.b 0x8(a6)
  < 0x004833ea      6712           beq.b 0x4833fe
     0x004833ec      2f290032       move.l 0x32(a1), -(a7)
     0x004833f0      3f2e000a       move.w 0xa(a6), -(a7)
     0x004833f4      4267           clr.w -(a7)
     0x004833f6      4eb90047e700   jsr fcn.0047e700
     0x004833fc      504f           addq.w 0x8, a7
  > 0x004833fe      3f2e000a       move.w 0xa(a6), -(a7)
      0x00483402      4ebaea28       jsr MENUCOM.swtch_off_box(pc)
      0x00483406      544f           addq.w 0x2, a7
      0x00483408      2f290032       move.l 0x32(a1), -(a7)
      0x0048340c      3f2e000a       move.w 0xa(a6), -(a7)
      0x00483410      3f3c003b       move.w 0x3b, -(a7)
  < 0x00483414      604c           bra.b 0x483462
  > 0x00483416      322e000a       move.w 0xa(a6), d1
      0x0048341a      b279008190c8   cmp.w 0x8190c8, d1
  < 0x00483420      6708           beq.b 0x48342a
     0x00483422      4227           clr.b -(a7)
     0x00483424      4ebaebfc       jsr MENUCOM.swtch_options_b(pc)
     0x00483428      544f           addq.w 0x2, a7
  > 0x0048342a      33ee000a0081.  move.w 0xa(a6), 0x8190c8.l
      0x00483432      4a79008190ca   tst.w 0x8190ca
  < 0x00483438      670e           beq.b 0x483448
     0x0048343a      3f39008190ca   move.w 0x8190ca, -(a7)
     0x00483440      4eb9004836a4   jsr MENUCOM.push_box
     0x00483446      544f           addq.w 0x2, a7
  > 0x00483448      3f2e000a       move.w 0xa(a6), -(a7)
      0x0048344c      4ebae942       jsr MENUCOM.swtch_on_box(pc)
      0x00483450      544f           addq.w 0x2, a7
      0x00483452      4a2e0008       tst.b 0x8(a6)
  < 0x00483456      6712           beq.b 0x48346a
     0x00483458      2f290032       move.l 0x32(a1), -(a7)
     0x0048345c      3f2e000a       move.w 0xa(a6), -(a7)
     0x00483460      3f04           move.w d4, -(a7)
  > 0x00483462      4eb90047e700   jsr fcn.0047e700
      0x00483468      504f           addq.w 0x8, a7
   > 0x0048346a      3f2e000a       move.w 0xa(a6), -(a7)
       0x0048346e      4ebaf44a       jsr MENUCOM.do_twin_sibling(pc)
    < 0x00483472      6000fdec       bra.w 0x483260
        0x00483476      0b11           btst.l d5, (a1)
    < 0x00483478      6616           bne.b 0x483490
       0x0048347a      082900100002   btst.b 0x10, 0x2(a1)
   < 0x00483480      670e           beq.b 0x483490
      0x00483482      3f2e000a       move.w 0xa(a6), -(a7)
      0x00483486      49eefeea       lea.l -0x116(a6), a4
      0x0048348a      4ebaf6d8       jsr MENUCOM.new_pad_box(pc)
      0x0048348e      544f           addq.w 0x2, a7
   > 0x00483490      0b11           btst.l d5, (a1)
    < 0x00483492      6728           beq.b 0x4834bc
       0x00483494      0291feffffff   andi.l 0xfeffffff, (a1)
       0x0048349a      4a2e0008       tst.b 0x8(a6)
   < 0x0048349e      6712           beq.b 0x4834b2
      0x004834a0      2f290032       move.l 0x32(a1), -(a7)
      0x004834a4      3f2e000a       move.w 0xa(a6), -(a7)
      0x004834a8      4267           clr.w -(a7)
      0x004834aa      4eb90047e700   jsr fcn.0047e700
      0x004834b0      504f           addq.w 0x8, a7
   > 0x004834b2      3f2e000a       move.w 0xa(a6), -(a7)
       0x004834b6      4ebae974       jsr MENUCOM.swtch_off_box(pc)
   < 0x004834ba      6008           bra.b 0x4834c4
   > 0x004834bc      3f2e000a       move.w 0xa(a6), -(a7)
       0x004834c0      4ebae8ce       jsr MENUCOM.swtch_on_box(pc)
   > 0x004834c4      544f           addq.w 0x2, a7
        0x004834c6      3f2e000a       move.w 0xa(a6), -(a7)
        0x004834ca      4ebaf3ee       jsr MENUCOM.do_twin_sibling(pc)
        0x004834ce      544f           addq.w 0x2, a7
        0x004834d0      0b11           btst.l d5, (a1)
    < 0x004834d2      6616           bne.b 0x4834ea
       0x004834d4      082900100002   btst.b 0x10, 0x2(a1)
   < 0x004834da      670e           beq.b 0x4834ea
      0x004834dc      3f2e000a       move.w 0xa(a6), -(a7)
      0x004834e0      49eefeea       lea.l -0x116(a6), a4
      0x004834e4      4ebaf5e6       jsr MENUCOM.pad_box_off(pc)
      0x004834e8      544f           addq.w 0x2, a7
   > 0x004834ea      4a2e0008       tst.b 0x8(a6)
    < 0x004834ee      6724           beq.b 0x483514
       0x004834f0      0b11           btst.l d5, (a1)
   < 0x004834f2      670c           beq.b 0x483500
      0x004834f4      2f290032       move.l 0x32(a1), -(a7)
      0x004834f8      3f2e000a       move.w 0xa(a6), -(a7)
      0x004834fc      3f04           move.w d4, -(a7)
  < 0x004834fe      600c           bra.b 0x48350c
  > 0x00483500      2f290032       move.l 0x32(a1), -(a7)
      0x00483504      3f2e000a       move.w 0xa(a6), -(a7)
      0x00483508      3f3c003b       move.w 0x3b, -(a7)
  > 0x0048350c      4eb90047e700   jsr fcn.0047e700
       0x00483512      504f           addq.w 0x8, a7
    > 0x00483514      0b11           btst.l d5, (a1)
    < 0x00483516      671c           beq.b 0x483534
       0x00483518      082900100002   btst.b 0x10, 0x2(a1)
   < 0x0048351e      6714           beq.b 0x483534
      0x00483520      1f04           move.b d4, -(a7)
      0x00483522      1f04           move.b d4, -(a7)
      0x00483524      4eb90048f5e6   jsr MENURIGHTCOM.alter_right
      0x0048352a      584f           addq.w 0x4, a7
      0x0048352c      33ee000a0081.  move.w 0xa(a6), 0x8190ca.l
  > 0x00483534      60000084       bra.w 0x4835ba
       0x00483538      3f2e000a       move.w 0xa(a6), -(a7)
       0x0048353c      5d4f           subq.w 0x6, a7
       0x0048353e      4eb900636d9e   jsr PALETCOM.br_colour
       0x00483544      4eb900484148   jsr MENUCOM.set_boxcol
       0x0048354a      504f           addq.w 0x8, a7
       0x0048354c      4a2e0008       tst.b 0x8(a6)
   < 0x00483550      6722           beq.b 0x483574
      0x00483552      0b11           btst.l d5, (a1)
  < 0x00483554      670c           beq.b 0x483562
     0x00483556      2f290032       move.l 0x32(a1), -(a7)
     0x0048355a      3f2e000a       move.w 0xa(a6), -(a7)
     0x0048355e      3f04           move.w d4, -(a7)
  < 0x00483560      600a           bra.b 0x48356c
  > 0x00483562      2f290032       move.l 0x32(a1), -(a7)
      0x00483566      3f2e000a       move.w 0xa(a6), -(a7)
      0x0048356a      4267           clr.w -(a7)
  > 0x0048356c      4eb90047e700   jsr fcn.0047e700
      0x00483572      504f           addq.w 0x8, a7
  > 0x00483574      6044           bra.b 0x4835ba
      0x00483576      4a2e0008       tst.b 0x8(a6)
  < 0x0048357a      6722           beq.b 0x48359e
     0x0048357c      0b11           btst.l d5, (a1)
  < 0x0048357e      670c           beq.b 0x48358c
     0x00483580      2f290032       move.l 0x32(a1), -(a7)
     0x00483584      3f2e000a       move.w 0xa(a6), -(a7)
     0x00483588      3f04           move.w d4, -(a7)
  < 0x0048358a      600a           bra.b 0x483596
  > 0x0048358c      2f290032       move.l 0x32(a1), -(a7)
     0x00483590      3f2e000a       move.w 0xa(a6), -(a7)
     0x00483594      4267           clr.w -(a7)
  > 0x00483596      4eb90047e700   jsr fcn.0047e700
     0x0048359c      504f           addq.w 0x8, a7
  > 0x0048359e      601a           bra.b 0x4835ba
      0x004835a0      4a2e0008       tst.b 0x8(a6)
  < 0x004835a4      6714           beq.b 0x4835ba
     0x004835a6      2f290032       move.l 0x32(a1), -(a7)
     0x004835aa      3f2e000a       move.w 0xa(a6), -(a7)
     0x004835ae      3f3c0004       move.w 0x4, -(a7)
     0x004835b2      4eb90047e700   jsr fcn.0047e700
     0x004835b8      504f           addq.w 0x8, a7
  > 0x004835ba      4a2e0008       tst.b 0x8(a6)
        < 0x004835be      670000dc       beq.w 0x48369c
           0x004835c2      4a69001a       tst.w 0x1a(a1)
       < 0x004835c6      675a           beq.b 0x483622
          0x004835c8      12290004       move.b 0x4(a1), d1
          0x004835cc      4881           ext.w d1
          0x004835ce      45fabc22       lea.l 0x47f1f2(pc), a2
          0x004835d2      3401           move.w d1, d2
          0x004835d4      e64a           lsr.w 0x3, d2
          0x004835d6      03322000       btst.l d1, (a2, d2.w)
      < 0x004835da      670000c0       beq.w 0x48369c
         0x004835de      3229001a       move.w 0x1a(a1), d1
         0x004835e2      43bc1068       chk.w 0x1068, d1
         0x004835e6      48c1           ext.l d1
         0x004835e8      e581           asl.l 0x2, d1
         0x004835ea      45f9008101fe   lea.l 0x8101fe, a2
         0x004835f0      24721800       movea.l (a2, d1.l), a2
         0x004835f4      b5eafffc       cmpa.l -0x4(a2), a2
     < 0x004835f8      6702           beq.b 0x4835fc
        0x004835fa      4e4d           trap 0xd
     > 0x004835fc      0b12           btst.l d5, (a2)
     < 0x004835fe      6716           beq.b 0x483616
        0x00483600      2f2a0032       move.l 0x32(a2), -(a7)
        0x00483604      3f29001a       move.w 0x1a(a1), -(a7)
        0x00483608      3f04           move.w d4, -(a7)
        ; CODE XREF from MENUCOM @ +0x4ec4
    > 0x0048360a      4eb90047e700   jsr fcn.0047e700
       0x00483610      504f           addq.w 0x8, a7
   < 0x00483612      60000088       bra.w 0x48369c
   > 0x00483616      2f2a0032       move.l 0x32(a2), -(a7)
       0x0048361a      3f29001a       move.w 0x1a(a1), -(a7)
       0x0048361e      4267           clr.w -(a7)
   < 0x00483620      60e8           bra.b 0x48360a
     > 0x00483622      3229001c       move.w 0x1c(a1), d1
         0x00483626      b26e000a       cmp.w 0xa(a6), d1
     < 0x0048362a      6770           beq.b 0x48369c
        0x0048362c      14290004       move.b 0x4(a1), d2
        0x00483630      4882           ext.w d2
        0x00483632      45fabbc2       lea.l 0x47f1f6(pc), a2
        0x00483636      3602           move.w d2, d3
        0x00483638      e64b           lsr.w 0x3, d3
        0x0048363a      05323000       btst.l d2, (a2, d3.w)
    < 0x0048363e      675c           beq.b 0x48369c
       0x00483640      3e01           move.w d1, d7
       0x00483642      2f08           move.l a0, -(a7)
       ; CODE XREF from MENUCOM @ +0x4f3e
   > 0x00483644      2057           movea.l (a7), a0
      0x00483646      be6e000a       cmp.w 0xa(a6), d7
  < 0x0048364a      6604           bne.b 0x483650
     0x0048364c      584f           addq.w 0x4, a7
  < 0x0048364e      604c           bra.b 0x48369c
  > 0x00483650      4fbc1068       chk.w 0x1068, d7
      0x00483654      48c7           ext.l d7
      0x00483656      2407           move.l d7, d2
      0x00483658      e582           asl.l 0x2, d2
      0x0048365a      45f9008101fe   lea.l 0x8101fe, a2
      0x00483660      20722800       movea.l (a2, d2.l), a0
      0x00483664      b1e8fffc       cmpa.l -0x4(a0), a0
  < 0x00483668      6702           beq.b 0x48366c
     0x0048366a      4e4d           trap 0xd
  > 0x0048366c      0b10           btst.l d5, (a0)
  < 0x0048366e      670a           beq.b 0x48367a
     0x00483670      2f280032       move.l 0x32(a0), -(a7)
     0x00483674      3f07           move.w d7, -(a7)
     0x00483676      3f04           move.w d4, -(a7)
  < 0x00483678      6008           bra.b 0x483682
  > 0x0048367a      2f280032       move.l 0x32(a0), -(a7)
      0x0048367e      3f07           move.w d7, -(a7)
      0x00483680      4267           clr.w -(a7)
      ; CODE XREF from MENUCOM @ +0x4f1c
  > 0x00483682      4eb90047e700   jsr fcn.0047e700
      0x00483688      504f           addq.w 0x8, a7
      0x0048368a      20722800       movea.l (a2, d2.l), a0
      0x0048368e      b1e8fffc       cmpa.l -0x4(a0), a0
  < 0x00483692      6702           beq.b 0x483696
     0x00483694      4e4d           trap 0xd
  > 0x00483696      3e28001c       move.w 0x1c(a0), d7
   < 0x0048369a      60a8           bra.b 0x483644
       ; CODE XREFS from MENUCOM @ +0x4eb6, +0x4ef2
  > 0x0048369c      4cdf1fff       movem.l (a7)+, d0-d7/a0-a4
            0x004836a0      4e5e           unlk a6
            0x004836a2      4e75           rts
            ; XREFS(282)
 210: MENUCOM.push_box ();
           0x004836a4      4e56feca       link.w a6, 0xfeca
           0x004836a8      bfd5           cmpa.l (a5), a7
       < 0x004836aa      6206           bhi.b 0x4836b2
          0x004836ac      44fc0002       move.w 0x2, ccr
          0x004836b0      4e76           trapv
       > 0x004836b2      defc0134       adda.w 0x134, a7
           0x004836b6      48e7e1f8       movem.l d0-d2/d7/a0-a4, -(a7)
           0x004836ba      45f9008190c8   lea.l 0x8190c8, a2
           0x004836c0      47ee0008       lea.l 0x8(a6), a3
           0x004836c4      49f9008101fe   lea.l 0x8101fe, a4
           0x004836ca      7201           moveq 0x1, d1
           0x004836cc      7400           moveq 0x0, d2
           0x004836ce      3013           move.w (a3), d0
           0x004836d0      41bc1068       chk.w 0x1068, d0
           0x004836d4      48c0           ext.l d0
           0x004836d6      e580           asl.l 0x2, d0
           0x004836d8      204c           movea.l a4, a0
           0x004836da      22700800       movea.l (a0, d0.l), a1
           0x004836de      b3e9fffc       cmpa.l -0x4(a1), a1
       < 0x004836e2      6702           beq.b 0x4836e6
          0x004836e4      4e4d           trap 0xd
       > 0x004836e6      08110005       btst.b 0x5, (a1)
       < 0x004836ea      6720           beq.b 0x48370c
          0x004836ec      9efc00fc       suba.w 0xfc, a7
          0x004836f0      2f3abb08       move.l 0x47f1fa(pc), -(a7)
          0x004836f4      2f7abb080004   move.l 0x47f1fe(pc), 0x4(a7)
          0x004836fa      3f7abb060008   move.w 0x47f202(pc), 0x8(a7)
          0x00483700      3f13           move.w (a3), -(a7)
          0x00483702      1f01           move.b d1, -(a7)
          0x00483704      4ebad1cc       jsr MENUCOM.show_box(pc)
          0x00483708      defc0104       adda.w 0x104, a7
       > 0x0048370c      20700800       movea.l (a0, d0.l), a0
           0x00483710      b1e8fffc       cmpa.l -0x4(a0), a0
       < 0x00483714      6702           beq.b 0x483718
          0x00483716      4e4d           trap 0xd
       > 0x00483718      10280004       move.b 0x4(a0), d0
           0x0048371c      0c000013       cmpi.b 0x13, d0
       < 0x00483720      6642           bne.b 0x483764
          0x00483722      3013           move.w (a3), d0
          0x00483724      b052           cmp.w (a2), d0
      < 0x00483726      6606           bne.b 0x48372e
         0x00483728      0510           btst.l d2, (a0)
     < 0x0048372a      6702           beq.b 0x48372e
        0x0048372c      4252           clr.w (a2)
     > 0x0048372e      3e28001c       move.w 0x1c(a0), d7
          0x00483732      b068001c       cmp.w 0x1c(a0), d0
      < 0x00483736      672c           beq.b 0x483764
     > 0x00483738      be53           cmp.w (a3), d7
    < 0x0048373a      6728           beq.b 0x483764
       0x0048373c      4fbc1068       chk.w 0x1068, d7
       0x00483740      48c7           ext.l d7
       0x00483742      2007           move.l d7, d0
       0x00483744      e580           asl.l 0x2, d0
       0x00483746      224c           movea.l a4, a1
       0x00483748      22710800       movea.l (a1, d0.l), a1
       0x0048374c      b3e9fffc       cmpa.l -0x4(a1), a1
   < 0x00483750      6702           beq.b 0x483754
      0x00483752      4e4d           trap 0xd
   > 0x00483754      be52           cmp.w (a2), d7
   < 0x00483756      6606           bne.b 0x48375e
      0x00483758      0511           btst.l d2, (a1)
  < 0x0048375a      6702           beq.b 0x48375e
     0x0048375c      4252           clr.w (a2)
  > 0x0048375e      3e29001c       move.w 0x1c(a1), d7
    < 0x00483762      60d4           bra.b 0x483738
    > 0x00483764      3f13           move.w (a3), -(a7)
           0x00483766      1f01           move.b d1, -(a7)
           0x00483768      4ebaf4d8       jsr MENUCOM.do_box_interloc(pc)
           0x0048376c      584f           addq.w 0x4, a7
           0x0048376e      4cdf1f87       movem.l (a7)+, d0-d2/d7/a0-a4
           0x00483772      4e5e           unlk a6
           0x00483774      4e75           rts
            ; XREFS(339)
 222: MENUCOM.swtch_box ();
           0x00483776      4e56fec8       link.w a6, 0xfec8
           0x0048377a      bfd5           cmpa.l (a5), a7
       < 0x0048377c      6206           bhi.b 0x483784
          0x0048377e      44fc0002       move.w 0x2, ccr
          0x00483782      4e76           trapv
       > 0x00483784      defc0138       adda.w 0x138, a7
           0x00483788      48e7f0f8       movem.l d0-d3/a0-a4, -(a7)
           0x0048378c      47ee000a       lea.l 0xa(a6), a3
           0x00483790      49f9008190c8   lea.l 0x8190c8, a4
           0x00483796      7601           moveq 0x1, d3
           0x00483798      3013           move.w (a3), d0
           0x0048379a      41bc1068       chk.w 0x1068, d0
           0x0048379e      48c0           ext.l d0
           0x004837a0      e580           asl.l 0x2, d0
           0x004837a2      41f9008101fe   lea.l 0x8101fe, a0
           0x004837a8      22700800       movea.l (a0, d0.l), a1
           0x004837ac      b2c3           cmpa.w d3, a1
       < 0x004837ae      6764           beq.b 0x483814
          0x004837b0      b3e9fffc       cmpa.l -0x4(a1), a1
      < 0x004837b4      6702           beq.b 0x4837b8
         0x004837b6      4e4d           trap 0xd
      > 0x004837b8      08110005       btst.b 0x5, (a1)
      < 0x004837bc      6720           beq.b 0x4837de
         0x004837be      9efc00fc       suba.w 0xfc, a7
         0x004837c2      2f3aba40       move.l 0x47f204(pc), -(a7)
         0x004837c6      2f7aba400004   move.l 0x47f208(pc), 0x4(a7)
         0x004837cc      3f7aba3e0008   move.w 0x47f20c(pc), 0x8(a7)
         0x004837d2      3f13           move.w (a3), -(a7)
         0x004837d4      1f03           move.b d3, -(a7)
         0x004837d6      4ebad0fa       jsr MENUCOM.show_box(pc)
         0x004837da      defc0104       adda.w 0x104, a7
      > 0x004837de      3213           move.w (a3), d1
          0x004837e0      b254           cmp.w (a4), d1
      < 0x004837e2      6608           bne.b 0x4837ec
         0x004837e4      4a2e0008       tst.b 0x8(a6)
     < 0x004837e8      6602           bne.b 0x4837ec
        0x004837ea      4254           clr.w (a4)
     > 0x004837ec      7400           moveq 0x0, d2
          0x004837ee      24700800       movea.l (a0, d0.l), a2
          0x004837f2      b5eafffc       cmpa.l -0x4(a2), a2
      < 0x004837f6      6702           beq.b 0x4837fa
         0x004837f8      4e4d           trap 0xd
      > 0x004837fa      08120000       btst.b 0x0, (a2)
      < 0x004837fe      6702           beq.b 0x483802
         0x00483800      5202           addq.b 0x1, d2
      > 0x00483802      b42e0008       cmp.b 0x8(a6), d2
      < 0x00483806      6744           beq.b 0x48384c
         0x00483808      3f01           move.w d1, -(a7)
         0x0048380a      4227           clr.b -(a7)
         0x0048380c      4ebaf434       jsr MENUCOM.do_box_interloc(pc)
         0x00483810      584f           addq.w 0x4, a7
     < 0x00483812      6038           bra.b 0x48384c
     > 0x00483814      4a2e0008       tst.b 0x8(a6)
     < 0x00483818      6732           beq.b 0x48384c
        0x0048381a      487ab9f3       pea.l 0x47f20f(pc)
        0x0048381e      48780024       pea.l 0x24
        0x00483822      2f17           move.l (a7), -(a7)
        0x00483824      4eb9004047ea   jsr p_wts_o
        0x0048382a      defc000c       adda.w 0xc, a7
        0x0048382e      3013           move.w (a3), d0
        0x00483830      48c0           ext.l d0
        0x00483832      2f00           move.l d0, -(a7)
        0x00483834      48780000       pea.l 0x0
        0x00483838      4eb9004070e4   jsr p_wti_o
        0x0048383e      504f           addq.w 0x8, a7
        0x00483840      4eb900404946   jsr p_wtln_o
        0x00483846      4eb900401620   jsr p_walkback
     > 0x0048384c      4cdf1f0f       movem.l (a7)+, d0-d3/a0-a4
           0x00483850      4e5e           unlk a6
           0x00483852      4e75           rts
            ; CALL XREF from MENUCOM.set_enable_box @ 0x48398e
 148: MENUCOM.enable_box ();
           0x00483854      4e56fee0       link.w a6, 0xfee0
           0x00483858      bfd5           cmpa.l (a5), a7
       < 0x0048385a      6206           bhi.b 0x483862
          0x0048385c      44fc0002       move.w 0x2, ccr
          0x00483860      4e76           trapv
       > 0x00483862      defc0120       adda.w 0x120, a7
           0x00483866      48e780f0       movem.l d0/a0-a3, -(a7)
           0x0048386a      47ee0008       lea.l 0x8(a6), a3
           0x0048386e      3013           move.w (a3), d0
           0x00483870      41bc1068       chk.w 0x1068, d0
           0x00483874      48c0           ext.l d0
           0x00483876      e580           asl.l 0x2, d0
           0x00483878      41f9008101fe   lea.l 0x8101fe, a0
           0x0048387e      20700800       movea.l (a0, d0.l), a0
           0x00483882      b1e8fffc       cmpa.l -0x4(a0), a0
       < 0x00483886      6702           beq.b 0x48388a
          0x00483888      4e4d           trap 0xd
       > 0x0048388a      08100005       btst.b 0x5, (a0)
       < 0x0048388e      6720           beq.b 0x4838b0
          0x00483890      9efc0100       suba.w 0x100, a7
          0x00483894      224f           movea.l a7, a1
          0x00483896      45fab99b       lea.l 0x47f233(pc), a2
          0x0048389a      7009           moveq 0x9, d0
      > 0x0048389c      12da           move.b (a2)+, (a1)+
      < 0x0048389e      51c8fffc       dbra d0, 0x48389c
          0x004838a2      3f13           move.w (a3), -(a7)
          0x004838a4      1f3c0001       move.b 0x1, -(a7)
          0x004838a8      4ebad028       jsr MENUCOM.show_box(pc)
          0x004838ac      defc0104       adda.w 0x104, a7
       > 0x004838b0      08100002       btst.b 0x2, (a0)
       < 0x004838b4      662a           bne.b 0x4838e0
          0x004838b6      009004000000   ori.l 0x4000000, (a0)
          0x004838bc      08100003       btst.b 0x3, (a0)
      < 0x004838c0      6708           beq.b 0x4838ca
         0x004838c2      3f13           move.w (a3), -(a7)
         0x004838c4      4ebad554       jsr MENUCOM.box_locatable(pc)
         0x004838c8      544f           addq.w 0x2, a7
      > 0x004838ca      08100000       btst.b 0x0, (a0)
      < 0x004838ce      6708           beq.b 0x4838d8
         0x004838d0      3f13           move.w (a3), -(a7)
         0x004838d2      4ebae4bc       jsr MENUCOM.swtch_on_box(pc)
     < 0x004838d6      6006           bra.b 0x4838de
     > 0x004838d8      3f13           move.w (a3), -(a7)
         0x004838da      4ebadb96       jsr MENUCOM.draw_box(pc)
     > 0x004838de      544f           addq.w 0x2, a7
       > 0x004838e0      4cdf0f01       movem.l (a7)+, d0/a0-a3
           0x004838e4      4e5e           unlk a6
           0x004838e6      4e75           rts
            ; CALL XREF from MENUCOM.set_enable_box @ 0x483998
 138: MENUCOM.disable_box ();
           0x004838e8      4e56fed4       link.w a6, 0xfed4
           0x004838ec      bfd5           cmpa.l (a5), a7
       < 0x004838ee      6206           bhi.b 0x4838f6
          0x004838f0      44fc0002       move.w 0x2, ccr
          0x004838f4      4e76           trapv
       > 0x004838f6      defc012c       adda.w 0x12c, a7
           0x004838fa      48e7c0e0       movem.l d0-d1/a0-a2, -(a7)
           0x004838fe      45ee0008       lea.l 0x8(a6), a2
           0x00483902      7201           moveq 0x1, d1
           0x00483904      3012           move.w (a2), d0
           0x00483906      41bc1068       chk.w 0x1068, d0
           0x0048390a      48c0           ext.l d0
           0x0048390c      e580           asl.l 0x2, d0
           0x0048390e      41f9008101fe   lea.l 0x8101fe, a0
           0x00483914      22700800       movea.l (a0, d0.l), a1
           0x00483918      b2c1           cmpa.w d1, a1
       < 0x0048391a      674e           beq.b 0x48396a
          0x0048391c      b3e9fffc       cmpa.l -0x4(a1), a1
      < 0x00483920      6702           beq.b 0x483924
         0x00483922      4e4d           trap 0xd
      > 0x00483924      08110005       btst.b 0x5, (a1)
      < 0x00483928      6720           beq.b 0x48394a
         0x0048392a      9efc00fc       suba.w 0xfc, a7
         0x0048392e      2f3ab912       move.l 0x47f242(pc), -(a7)
         0x00483932      2f7ab9120004   move.l 0x47f246(pc), 0x4(a7)
         0x00483938      3f7ab9100008   move.w 0x47f24a(pc), 0x8(a7)
         0x0048393e      3f12           move.w (a2), -(a7)
         0x00483940      1f01           move.b d1, -(a7)
         0x00483942      4ebacf8e       jsr MENUCOM.show_box(pc)
         0x00483946      defc0104       adda.w 0x104, a7
      > 0x0048394a      08110002       btst.b 0x2, (a1)
      < 0x0048394e      671a           beq.b 0x48396a
         0x00483950      08110003       btst.b 0x3, (a1)
     < 0x00483954      670e           beq.b 0x483964
        0x00483956      3f12           move.w (a2), -(a7)
        0x00483958      4ebae0b8       jsr MENUCOM.erase_box(pc)
        0x0048395c      3e92           move.w (a2), (a7)
        0x0048395e      4ebad59a       jsr MENUCOM.box_not_locatab(pc)
        0x00483962      544f           addq.w 0x2, a7
     > 0x00483964      0291fbffffff   andi.l 0xfbffffff, (a1)
      > 0x0048396a      4cdf0703       movem.l (a7)+, d0-d1/a0-a2
           0x0048396e      4e5e           unlk a6
           0x00483970      4e75           rts
            ; XREFS(141)
 48: MENUCOM.set_enable_box ();
           0x00483972      4e56fffa       link.w a6, 0xfffa
           0x00483976      bfd5           cmpa.l (a5), a7
       < 0x00483978      6206           bhi.b 0x483980
          0x0048397a      44fc0002       move.w 0x2, ccr
          0x0048397e      4e76           trapv
       > 0x00483980      defc0006       adda.w 0x6, a7
           0x00483984      4a2e0008       tst.b 0x8(a6)
       < 0x00483988      670a           beq.b 0x483994
          0x0048398a      3f2e000a       move.w 0xa(a6), -(a7)
          0x0048398e      4ebafec4       jsr MENUCOM.enable_box(pc)
      < 0x00483992      6008           bra.b 0x48399c
      > 0x00483994      3f2e000a       move.w 0xa(a6), -(a7)
          0x00483998      4ebaff4e       jsr MENUCOM.disable_box(pc)
      > 0x0048399c      544f           addq.w 0x2, a7
           0x0048399e      4e5e           unlk a6
           0x004839a0      4e75           rts
            ; CALL XREF from MENUCOM.box_error @ 0x483c00
            ; CALL XREF from MENUCOM.box_warning @ 0x483d82
 342: MENUCOM.box_message ();
           0x004839a2      4e56ffc2       link.w a6, 0xffc2
           0x004839a6      bfd5           cmpa.l (a5), a7
       < 0x004839a8      6206           bhi.b 0x4839b0
          0x004839aa      44fc0002       move.w 0x2, ccr
          0x004839ae      4e76           trapv
       > 0x004839b0      defc003e       adda.w 0x3e, a7
           0x004839b4      48e7f0f0       movem.l d0-d3/a0-a3, -(a7)
           0x004839b8      47f9008101fe   lea.l 0x8101fe, a3
           0x004839be      7201           moveq 0x1, d1
           0x004839c0      7403           moveq 0x3, d2
           0x004839c2      7607           moveq 0x7, d3
           0x004839c4      302e0012       move.w 0x12(a6), d0
           0x004839c8      41bc1068       chk.w 0x1068, d0
           0x004839cc      48c0           ext.l d0
           0x004839ce      e580           asl.l 0x2, d0
           0x004839d0      204b           movea.l a3, a0
           0x004839d2      20700800       movea.l (a0, d0.l), a0
           0x004839d6      b1e8fffc       cmpa.l -0x4(a0), a0
       < 0x004839da      6702           beq.b 0x4839de
          0x004839dc      4e4d           trap 0xd
       > 0x004839de      0310           btst.l d1, (a0)
       < 0x004839e0      6700010e       beq.w 0x483af0
          0x004839e4      2010           move.l (a0), d0
          0x004839e6      028080400000   andi.l 0x80400000, d0
          0x004839ec      b0bab866       cmp.l 0x47f254(pc), d0
      < 0x004839f0      660000ba       bne.w 0x483aac
         0x004839f4      1f02           move.b d2, -(a7)
         0x004839f6      4227           clr.b -(a7)
         0x004839f8      4eb900522512   jsr BRUSHCOM.br_write_prot
         0x004839fe      2ebaada6       move.l 0x47e7a6(pc), (a7)
         0x00483a02      3f3aada0       move.w 0x47e7a4(pc), -(a7)
         0x00483a06      4eb900520fa4   jsr BRUSHCOM.set_br_colour
         0x00483a0c      584f           addq.w 0x4, a7
         0x00483a0e      1e82           move.b d2, (a7)
         0x00483a10      1f01           move.b d1, -(a7)
         0x00483a12      514f           subq.w 0x8, a7
         0x00483a14      224f           movea.l a7, a1
         0x00483a16      45e80006       lea.l 0x6(a0), a2
         0x00483a1a      7007           moveq 0x7, d0
     > 0x00483a1c      12da           move.b (a2)+, (a1)+
     < 0x00483a1e      51c8fffc       dbra d0, 0x483a1c
         0x00483a22      4eb9005213b4   jsr BRUSHCOM.br_wipe
         0x00483a28      defc000c       adda.w 0xc, a7
         0x00483a2c      48780000       pea.l 0x0
         0x00483a30      0710           btst.l d3, (a0)
     < 0x00483a32      6702           beq.b 0x483a36
        0x00483a34      5297           addq.l 0x1, (a7)
     > 0x00483a36      302f0002       move.w 0x2(a7), d0
         0x00483a3a      e540           asl.w 0x2, d0
         0x00483a3c      224b           movea.l a3, a1
         0x00483a3e      43f10000       lea.l (a1, d0.w), a1
         0x00483a42      d3fc00008eee   adda.l 0x8eee, a1
         0x00483a48      2e91           move.l (a1), (a7)
         0x00483a4a      514f           subq.w 0x8, a7
         0x00483a4c      224f           movea.l a7, a1
         0x00483a4e      45e80006       lea.l 0x6(a0), a2
         0x00483a52      7007           moveq 0x7, d0
     > 0x00483a54      12da           move.b (a2)+, (a1)+
     < 0x00483a56      51c8fffc       dbra d0, 0x483a54
         0x00483a5a      2f2e000e       move.l 0xe(a6), -(a7)
         0x00483a5e      3f2e000c       move.w 0xc(a6), -(a7)
         0x00483a62      2f2e0008       move.l 0x8(a6), -(a7)
         0x00483a66      4eb90047e72e   jsr fcn.0047e72e
         0x00483a6c      defc0012       adda.w 0x12, a7
         0x00483a70      2ebaad3a       move.l 0x47e7ac(pc), (a7)
         0x00483a74      3f3aad34       move.w 0x47e7aa(pc), -(a7)
         0x00483a78      4eb900520fa4   jsr BRUSHCOM.set_br_colour
         0x00483a7e      584f           addq.w 0x4, a7
         0x00483a80      1e82           move.b d2, (a7)
         0x00483a82      1f01           move.b d1, -(a7)
         0x00483a84      514f           subq.w 0x8, a7
         0x00483a86      224f           movea.l a7, a1
         0x00483a88      45e80006       lea.l 0x6(a0), a2
         0x00483a8c      7007           moveq 0x7, d0
     > 0x00483a8e      12da           move.b (a2)+, (a1)+
     < 0x00483a90      51c8fffc       dbra d0, 0x483a8e
         0x00483a94      4eb9005213b4   jsr BRUSHCOM.br_wipe
         0x00483a9a      defc000a       adda.w 0xa, a7
         0x00483a9e      1e82           move.b d2, (a7)
         0x00483aa0      1f01           move.b d1, -(a7)
         0x00483aa2      4eb900522512   jsr BRUSHCOM.br_write_prot
         0x00483aa8      584f           addq.w 0x4, a7
     < 0x00483aaa      6044           bra.b 0x483af0
     > 0x00483aac      48780000       pea.l 0x0
         0x00483ab0      0710           btst.l d3, (a0)
     < 0x00483ab2      6702           beq.b 0x483ab6
        0x00483ab4      5297           addq.l 0x1, (a7)
     > 0x00483ab6      302f0002       move.w 0x2(a7), d0
         0x00483aba      e540           asl.w 0x2, d0
         0x00483abc      224b           movea.l a3, a1
         0x00483abe      43f10000       lea.l (a1, d0.w), a1
         0x00483ac2      d3fc00008eee   adda.l 0x8eee, a1
         0x00483ac8      2e91           move.l (a1), (a7)
         0x00483aca      514f           subq.w 0x8, a7
         0x00483acc      224f           movea.l a7, a1
         0x00483ace      45e80006       lea.l 0x6(a0), a2
         0x00483ad2      7007           moveq 0x7, d0
     > 0x00483ad4      12da           move.b (a2)+, (a1)+
     < 0x00483ad6      51c8fffc       dbra d0, 0x483ad4
         0x00483ada      2f2e000e       move.l 0xe(a6), -(a7)
         0x00483ade      3f2e000c       move.w 0xc(a6), -(a7)
         0x00483ae2      2f2e0008       move.l 0x8(a6), -(a7)
         0x00483ae6      4eb90047e72e   jsr fcn.0047e72e
         0x00483aec      defc0016       adda.w 0x16, a7
     > 0x00483af0      4cdf0f0f       movem.l (a7)+, d0-d3/a0-a3
           0x00483af4      4e5e           unlk a6
           0x00483af6      4e75           rts
            ; XREFS(100)
 462: MENUCOM.box_error ();
           0x00483af8      4e56fdb6       link.w a6, 0xfdb6
           0x00483afc      bfd5           cmpa.l (a5), a7
       < 0x00483afe      6206           bhi.b 0x483b06
          0x00483b00      44fc0002       move.w 0x2, ccr
          0x00483b04      4e76           trapv
       > 0x00483b06      defc0144       adda.w 0x144, a7
           0x00483b0a      48e7fff8       movem.l d0-d7/a0-a4, -(a7)
           0x00483b0e      47ee000c       lea.l 0xc(a6), a3
           0x00483b12      49ee0014       lea.l 0x14(a6), a4
           0x00483b16      243cffff8000   move.l 0xffff8000, d2
           0x00483b1c      263c0000ffff   move.l 0xffff, d3
           0x00483b22      383c0100       move.w 0x100, d4
           0x00483b26      4a93           tst.l (a3)
       < 0x00483b28      661e           bne.b 0x483b48
          0x00483b2a      7c01           moveq 0x1, d6
          0x00483b2c      7000           moveq 0x0, d0
          0x00483b2e      b0ae0008       cmp.l 0x8(a6), d0
      < 0x00483b32      6e04           bgt.b 0x483b38
         0x00483b34      9093           sub.l (a3), d0
     < 0x00483b36      6c02           bge.b 0x483b3a
     > 0x00483b38      4e4f           trap 0xf
     > 0x00483b3a      206e0010       movea.l 0x10(a6), a0
          0x00483b3e      4281           clr.l d1
          0x00483b40      12300800       move.b (a0, d0.l), d1
          0x00483b44      3a01           move.w d1, d5
      < 0x00483b46      601e           bra.b 0x483b66
      > 0x00483b48      2013           move.l (a3), d0
          0x00483b4a      9082           sub.l d2, d0
          0x00483b4c      b083           cmp.l d3, d0
      < 0x00483b4e      6302           bls.b 0x483b52
         0x00483b50      4e4f           trap 0xf
      > 0x00483b52      d082           add.l d2, d0
          0x00483b54      3c00           move.w d0, d6
          0x00483b56      202e0008       move.l 0x8(a6), d0
          0x00483b5a      9082           sub.l d2, d0
          0x00483b5c      b083           cmp.l d3, d0
      < 0x00483b5e      6302           bls.b 0x483b62
         0x00483b60      4e4f           trap 0xf
      > 0x00483b62      d082           add.l d2, d0
          0x00483b64      3a00           move.w d0, d5
      > 0x00483b66      7e00           moveq 0x0, d7
           0x00483b68      206e0010       movea.l 0x10(a6), a0
       > 0x00483b6c      bc45           cmp.w d5, d6
      < 0x00483b6e      6e34           bgt.b 0x483ba4
         0x00483b70      48c7           ext.l d7
         0x00483b72      2007           move.l d7, d0
         0x00483b74      5280           addq.l 0x1, d0
         0x00483b76      9082           sub.l d2, d0
         0x00483b78      b083           cmp.l d3, d0
     < 0x00483b7a      6302           bls.b 0x483b7e
        0x00483b7c      4e4f           trap 0xf
     > 0x00483b7e      d082           add.l d2, d0
         0x00483b80      3e00           move.w d0, d7
         0x00483b82      4fbc00ff       chk.w 0xff, d7
         0x00483b86      43eefefa       lea.l -0x106(a6), a1
         0x00483b8a      48c6           ext.l d6
         0x00483b8c      2006           move.l d6, d0
         0x00483b8e      b0ae0008       cmp.l 0x8(a6), d0
     < 0x00483b92      6e04           bgt.b 0x483b98
        0x00483b94      9093           sub.l (a3), d0
    < 0x00483b96      6c02           bge.b 0x483b9a
    > 0x00483b98      4e4f           trap 0xf
    > 0x00483b9a      13b008007006   move.b (a0, d0.l), 0x6(a1, d7.w)
         0x00483ba0      5246           addq.w 0x1, d6
      < 0x00483ba2      68c8           bvc.b 0x483b6c
      > 0x00483ba4      4fbc00ff       chk.w 0xff, d7
           0x00483ba8      1d47ff00       move.b d7, -0x100(a6)
           0x00483bac      3014           move.w (a4), d0
           0x00483bae      41bc1068       chk.w 0x1068, d0
           0x00483bb2      48c0           ext.l d0
           0x00483bb4      e580           asl.l 0x2, d0
           0x00483bb6      41f9008101fe   lea.l 0x8101fe, a0
           0x00483bbc      22700800       movea.l (a0, d0.l), a1
           0x00483bc0      b3e9fffc       cmpa.l -0x4(a1), a1
       < 0x00483bc4      6702           beq.b 0x483bc8
          0x00483bc6      4e4d           trap 0xd
       > 0x00483bc8      08110005       btst.b 0x5, (a1)
       < 0x00483bcc      6722           beq.b 0x483bf0
          0x00483bce      9efc00fc       suba.w 0xfc, a7
          0x00483bd2      2f3ab684       move.l 0x47f258(pc), -(a7)
          0x00483bd6      2f7ab6840004   move.l 0x47f25c(pc), 0x4(a7)
          0x00483bdc      3f7ab6820008   move.w 0x47f260(pc), 0x8(a7)
          0x00483be2      3f14           move.w (a4), -(a7)
          0x00483be4      1f3c0001       move.b 0x1, -(a7)
          0x00483be8      4ebacce8       jsr MENUCOM.show_box(pc)
          0x00483bec      defc0104       adda.w 0x104, a7
       > 0x00483bf0      3f14           move.w (a4), -(a7)
           0x00483bf2      2f3aab6a       move.l 0x47e75e(pc), -(a7)
           0x00483bf6      3f3aab64       move.w 0x47e75c(pc), -(a7)
           0x00483bfa      43eeff00       lea.l -0x100(a6), a1
           0x00483bfe      2f09           move.l a1, -(a7)
           0x00483c00      4ebafda0       jsr MENUCOM.box_message(pc)
           0x00483c04      defc000c       adda.w 0xc, a7
           0x00483c08      4eb90047b7b2   jsr CNTLCOM.pen_pause
           0x00483c0e      20700800       movea.l (a0, d0.l), a0
           0x00483c12      b1e8fffc       cmpa.l -0x4(a0), a0
       < 0x00483c16      6702           beq.b 0x483c1a
          0x00483c18      4e4d           trap 0xd
       > 0x00483c1a      203c0e000000   move.l 0xe000000, d0
           0x00483c20      c090           and.l (a0), d0
           0x00483c22      b0bab642       cmp.l 0x47f266(pc), d0
       < 0x00483c26      660a           bne.b 0x483c32
          0x00483c28      3f14           move.w (a4), -(a7)
          0x00483c2a      4ebad846       jsr MENUCOM.draw_box(pc)
          0x00483c2e      544f           addq.w 0x2, a7
      < 0x00483c30      604a           bra.b 0x483c7c
      > 0x00483c32      48780000       pea.l 0x0
          0x00483c36      08100007       btst.b 0x7, (a0)
      < 0x00483c3a      6702           beq.b 0x483c3e
         0x00483c3c      5297           addq.l 0x1, (a7)
      > 0x00483c3e      302f0002       move.w 0x2(a7), d0
          0x00483c42      e540           asl.w 0x2, d0
          0x00483c44      43f9008101fe   lea.l 0x8101fe, a1
          0x00483c4a      43f10000       lea.l (a1, d0.w), a1
          0x00483c4e      d3fc00008eee   adda.l 0x8eee, a1
          0x00483c54      2e91           move.l (a1), (a7)
          0x00483c56      514f           subq.w 0x8, a7
          0x00483c58      224f           movea.l a7, a1
          0x00483c5a      45e80006       lea.l 0x6(a0), a2
          0x00483c5e      7007           moveq 0x7, d0
      > 0x00483c60      12da           move.b (a2)+, (a1)+
      < 0x00483c62      51c8fffc       dbra d0, 0x483c60
          0x00483c66      2f3aab02       move.l 0x47e76a(pc), -(a7)
          0x00483c6a      3f3aaafc       move.w 0x47e768(pc), -(a7)
          0x00483c6e      48780000       pea.l 0x0
          0x00483c72      4eb90047e72e   jsr fcn.0047e72e
          0x00483c78      defc0016       adda.w 0x16, a7
      > 0x00483c7c      554f           subq.w 0x2, a7
           0x00483c7e      4eb9004d27fc   jsr MENUMACROCOM.mac_recording
           0x00483c84      4a1f           tst.b (a7)+
       < 0x00483c86      6712           beq.b 0x483c9a
          0x00483c88      9ec4           suba.w d4, a7
          0x00483c8a      204f           movea.l a7, a0
          0x00483c8c      43fab5dc       lea.l 0x47f26a(pc), a1
          0x00483c90      700b           moveq 0xb, d0
      > 0x00483c92      20d9           move.l (a1)+, (a0)+
      < 0x00483c94      51c8fffc       dbra d0, 0x483c92
      < 0x00483c98      601c           bra.b 0x483cb6
      > 0x00483c9a      554f           subq.w 0x2, a7
          0x00483c9c      4eb9004d2834   jsr MENUMACROCOM.mac_replaying
          0x00483ca2      4a1f           tst.b (a7)+
      < 0x00483ca4      6718           beq.b 0x483cbe
         0x00483ca6      9ec4           suba.w d4, a7
         0x00483ca8      204f           movea.l a7, a0
         0x00483caa      43fab5ee       lea.l 0x47f29a(pc), a1
         0x00483cae      700b           moveq 0xb, d0
     > 0x00483cb0      20d9           move.l (a1)+, (a0)+
     < 0x00483cb2      51c8fffc       dbra d0, 0x483cb0
      > 0x00483cb6      4eb9004d7334   jsr MENUMACROCOM.mac_error
          0x00483cbc      dec4           adda.w d4, a7
       > 0x00483cbe      4cdf1fff       movem.l (a7)+, d0-d7/a0-a4
           0x00483cc2      4e5e           unlk a6
           0x00483cc4      4e75           rts
            ; CALL XREF from MENUMACROCOM.mac_msg @ 0x4d7318
 220: MENUCOM.box_warning ();
           0x00483cc6      4e56febe       link.w a6, 0xfebe
           0x00483cca      bfd5           cmpa.l (a5), a7
       < 0x00483ccc      6206           bhi.b 0x483cd4
          0x00483cce      44fc0002       move.w 0x2, ccr
          0x00483cd2      4e76           trapv
       > 0x00483cd4      defc003c       adda.w 0x3c, a7
           0x00483cd8      48e7f7f0       movem.l d0-d3/d5-d7/a0-a3, -(a7)
           0x00483cdc      45ee000c       lea.l 0xc(a6), a2
           0x00483ce0      47ee0008       lea.l 0x8(a6), a3
           0x00483ce4      243cffff8000   move.l 0xffff8000, d2
           0x00483cea      263c0000ffff   move.l 0xffff, d3
           0x00483cf0      4a92           tst.l (a2)
       < 0x00483cf2      661c           bne.b 0x483d10
          0x00483cf4      7c01           moveq 0x1, d6
          0x00483cf6      7000           moveq 0x0, d0
          0x00483cf8      b093           cmp.l (a3), d0
      < 0x00483cfa      6e04           bgt.b 0x483d00
         0x00483cfc      9092           sub.l (a2), d0
     < 0x00483cfe      6c02           bge.b 0x483d02
     > 0x00483d00      4e4f           trap 0xf
     > 0x00483d02      206e0010       movea.l 0x10(a6), a0
          0x00483d06      4281           clr.l d1
          0x00483d08      12300800       move.b (a0, d0.l), d1
          0x00483d0c      3a01           move.w d1, d5
      < 0x00483d0e      601c           bra.b 0x483d2c
      > 0x00483d10      2012           move.l (a2), d0
          0x00483d12      9082           sub.l d2, d0
          0x00483d14      b083           cmp.l d3, d0
      < 0x00483d16      6302           bls.b 0x483d1a
         0x00483d18      4e4f           trap 0xf
      > 0x00483d1a      d082           add.l d2, d0
          0x00483d1c      3c00           move.w d0, d6
          0x00483d1e      2013           move.l (a3), d0
          0x00483d20      9082           sub.l d2, d0
          0x00483d22      b083           cmp.l d3, d0
      < 0x00483d24      6302           bls.b 0x483d28
         0x00483d26      4e4f           trap 0xf
      > 0x00483d28      d082           add.l d2, d0
          0x00483d2a      3a00           move.w d0, d5
      > 0x00483d2c      7e00           moveq 0x0, d7
           0x00483d2e      206e0010       movea.l 0x10(a6), a0
       > 0x00483d32      bc45           cmp.w d5, d6
      < 0x00483d34      6e32           bgt.b 0x483d68
         0x00483d36      48c7           ext.l d7
         0x00483d38      2007           move.l d7, d0
         0x00483d3a      5280           addq.l 0x1, d0
         0x00483d3c      9082           sub.l d2, d0
         0x00483d3e      b083           cmp.l d3, d0
     < 0x00483d40      6302           bls.b 0x483d44
        0x00483d42      4e4f           trap 0xf
     > 0x00483d44      d082           add.l d2, d0
         0x00483d46      3e00           move.w d0, d7
         0x00483d48      4fbc00ff       chk.w 0xff, d7
         0x00483d4c      43eefefa       lea.l -0x106(a6), a1
         0x00483d50      48c6           ext.l d6
         0x00483d52      2006           move.l d6, d0
         0x00483d54      b093           cmp.l (a3), d0
     < 0x00483d56      6e04           bgt.b 0x483d5c
        0x00483d58      9092           sub.l (a2), d0
    < 0x00483d5a      6c02           bge.b 0x483d5e
    > 0x00483d5c      4e4f           trap 0xf
    > 0x00483d5e      13b008007006   move.b (a0, d0.l), 0x6(a1, d7.w)
         0x00483d64      5246           addq.w 0x1, d6
      < 0x00483d66      68ca           bvc.b 0x483d32
      > 0x00483d68      4fbc00ff       chk.w 0xff, d7
           0x00483d6c      1d47ff00       move.b d7, -0x100(a6)
           0x00483d70      3f2e0014       move.w 0x14(a6), -(a7)
           0x00483d74      2f3aaa24       move.l 0x47e79a(pc), -(a7)
           0x00483d78      3f3aaa1e       move.w 0x47e798(pc), -(a7)
           0x00483d7c      41eeff00       lea.l -0x100(a6), a0
           0x00483d80      2f08           move.l a0, -(a7)
           0x00483d82      4ebafc1e       jsr MENUCOM.box_message(pc)
           0x00483d86      defc000c       adda.w 0xc, a7
           0x00483d8a      4eb90047b7b2   jsr CNTLCOM.pen_pause
           0x00483d90      3f2e0014       move.w 0x14(a6), -(a7)
           0x00483d94      4ebad6dc       jsr MENUCOM.draw_box(pc)
           0x00483d98      544f           addq.w 0x2, a7
           0x00483d9a      4cdf0fef       movem.l (a7)+, d0-d3/d5-d7/a0-a3
           0x00483d9e      4e5e           unlk a6
           0x00483da0      4e75           rts
            ; XREFS(64)
 456: MENUCOM.set_boxtext ();
           0x00483da2      4e56fe70       link.w a6, 0xfe70
           0x00483da6      bfd5           cmpa.l (a5), a7
       < 0x00483da8      6206           bhi.b 0x483db0
          0x00483daa      44fc0002       move.w 0x2, ccr
          0x00483dae      4e76           trapv
       > 0x00483db0      defc0148       adda.w 0x148, a7
           0x00483db4      48e7f7f8       movem.l d0-d3/d5-d7/a0-a4, -(a7)
           0x00483db8      49ee0010       lea.l 0x10(a6), a4
           0x00483dbc      7401           moveq 0x1, d2
           0x00483dbe      7640           moveq 0x40, d3
           0x00483dc0      3014           move.w (a4), d0
           0x00483dc2      41bc1068       chk.w 0x1068, d0
           0x00483dc6      48c0           ext.l d0
           0x00483dc8      e580           asl.l 0x2, d0
           0x00483dca      41f9008101fe   lea.l 0x8101fe, a0
           0x00483dd0      22700800       movea.l (a0, d0.l), a1
           0x00483dd4      b2c2           cmpa.w d2, a1
       < 0x00483dd6      6700018a       beq.w 0x483f62
          0x00483dda      b3e9fffc       cmpa.l -0x4(a1), a1
      < 0x00483dde      6702           beq.b 0x483de2
         0x00483de0      4e4d           trap 0xd
      > 0x00483de2      08110005       btst.b 0x5, (a1)
      < 0x00483de6      6722           beq.b 0x483e0a
         0x00483de8      9efc00fc       suba.w 0xfc, a7
         0x00483dec      2f3ab4dc       move.l 0x47f2ca(pc), -(a7)
         0x00483df0      2f7ab4dc0004   move.l 0x47f2ce(pc), 0x4(a7)
         0x00483df6      2f7ab4da0008   move.l 0x47f2d2(pc), 0x8(a7)
         0x00483dfc      3f290016       move.w 0x16(a1), -(a7)
         0x00483e00      1f02           move.b d2, -(a7)
         0x00483e02      4ebacace       jsr MENUCOM.show_box(pc)
         0x00483e06      defc0104       adda.w 0x104, a7
      > 0x00483e0a      20690042       movea.l 0x42(a1), a0
          0x00483e0e      b1e8fffc       cmpa.l -0x4(a0), a0
      < 0x00483e12      6702           beq.b 0x483e16
         0x00483e14      4e4d           trap 0xd
      > 0x00483e16      45eeffbe       lea.l -0x42(a6), a2
          0x00483e1a      2648           movea.l a0, a3
          0x00483e1c      7040           moveq 0x40, d0
      > 0x00483e1e      14db           move.b (a3)+, (a2)+
      < 0x00483e20      51c8fffc       dbra d0, 0x483e1e
          0x00483e24      4a6e000a       tst.w 0xa(a6)
      < 0x00483e28      6626           bne.b 0x483e50
         0x00483e2a      7000           moveq 0x0, d0
         0x00483e2c      4281           clr.l d1
         0x00483e2e      322e0008       move.w 0x8(a6), d1
         0x00483e32      b081           cmp.l d1, d0
     < 0x00483e34      620a           bhi.b 0x483e40
        0x00483e36      4281           clr.l d1
        0x00483e38      322e000a       move.w 0xa(a6), d1
        0x00483e3c      9081           sub.l d1, d0
    < 0x00483e3e      6402           bcc.b 0x483e42
    > 0x00483e40      4e4f           trap 0xf
    > 0x00483e42      246e000c       movea.l 0xc(a6), a2
         0x00483e46      4281           clr.l d1
         0x00483e48      12320800       move.b (a2, d0.l), d1
         0x00483e4c      3a01           move.w d1, d5
     < 0x00483e4e      601e           bra.b 0x483e6e
     > 0x00483e50      4280           clr.l d0
         0x00483e52      302e0008       move.w 0x8(a6), d0
         0x00483e56      0480ffff8000   subi.l 0xffff8000, d0
         0x00483e5c      0c800000ffff   cmpi.l 0xffff, d0
     < 0x00483e62      6302           bls.b 0x483e66
        0x00483e64      4e4f           trap 0xf
     > 0x00483e66      0680ffff8000   addi.l 0xffff8000, d0
         0x00483e6c      3a00           move.w d0, d5
     > 0x00483e6e      ba43           cmp.w d3, d5
      < 0x00483e70      6f02           ble.b 0x483e74
         0x00483e72      7a40           moveq 0x40, d5
      > 0x00483e74      48690042       pea.l 0x42(a1)
          0x00483e78      1010           move.b (a0), d0
          0x00483e7a      0280000000ff   andi.l 0xff, d0
          0x00483e80      5280           addq.l 0x1, d0
          0x00483e82      2f00           move.l d0, -(a7)
          0x00483e84      4eb900403b98   jsr p_Dispos
          0x00483e8a      504f           addq.w 0x8, a7
          0x00483e8c      48690042       pea.l 0x42(a1)
          0x00483e90      48c5           ext.l d5
          0x00483e92      2f05           move.l d5, -(a7)
          0x00483e94      5297           addq.l 0x1, (a7)
          0x00483e96      4eb900403a92   jsr p_New
          0x00483e9c      504f           addq.w 0x8, a7
          0x00483e9e      20690042       movea.l 0x42(a1), a0
          0x00483ea2      b1e8fffc       cmpa.l -0x4(a0), a0
      < 0x00483ea6      6702           beq.b 0x483eaa
         0x00483ea8      4e4d           trap 0xd
      > 0x00483eaa      4bbc00ff       chk.w 0xff, d5
          0x00483eae      1085           move.b d5, (a0)
          0x00483eb0      206e000c       movea.l 0xc(a6), a0
          0x00483eb4      7e01           moveq 0x1, d7
      > 0x00483eb6      be45           cmp.w d5, d7
     < 0x00483eb8      6e32           bgt.b 0x483eec
        0x00483eba      4f83           chk.w d3, d7
        0x00483ebc      24690042       movea.l 0x42(a1), a2
        0x00483ec0      b5eafffc       cmpa.l -0x4(a2), a2
    < 0x00483ec4      6702           beq.b 0x483ec8
       0x00483ec6      4e4d           trap 0xd
    > 0x00483ec8      48c7           ext.l d7
        0x00483eca      2007           move.l d7, d0
        0x00483ecc      4281           clr.l d1
        0x00483ece      322e0008       move.w 0x8(a6), d1
        0x00483ed2      b081           cmp.l d1, d0
    < 0x00483ed4      620a           bhi.b 0x483ee0
       0x00483ed6      4281           clr.l d1
       0x00483ed8      322e000a       move.w 0xa(a6), d1
       0x00483edc      9081           sub.l d1, d0
   < 0x00483ede      6402           bcc.b 0x483ee2
   > 0x00483ee0      4e4f           trap 0xf
   > 0x00483ee2      15b008007000   move.b (a0, d0.l), (a2, d7.w)
        0x00483ee8      5247           addq.w 0x1, d7
     < 0x00483eea      68ca           bvc.b 0x483eb6
     > 0x00483eec      10290004       move.b 0x4(a1), d0
          0x00483ef0      4880           ext.w d0
          0x00483ef2      41fab3e2       lea.l 0x47f2d6(pc), a0
          0x00483ef6      3200           move.w d0, d1
          0x00483ef8      e649           lsr.w 0x3, d1
          0x00483efa      01301000       btst.l d0, (a0, d1.w)
      < 0x00483efe      6714           beq.b 0x483f14
         0x00483f00      41bc0013       chk.w 0x13, d0
         0x00483f04      1f00           move.b d0, -(a7)
         0x00483f06      3f14           move.w (a4), -(a7)
         0x00483f08      1f02           move.b d2, -(a7)
         0x00483f0a      4eb90048d03a   jsr MENU2COM.set_num_text
         0x00483f10      5c4f           addq.w 0x6, a7
     < 0x00483f12      604e           bra.b 0x483f62
     > 0x00483f14      7c00           moveq 0x0, d6
         0x00483f16      4280           clr.l d0
         0x00483f18      102effbe       move.b -0x42(a6), d0
         0x00483f1c      ba40           cmp.w d0, d5
     < 0x00483f1e      6602           bne.b 0x483f22
        0x00483f20      5206           addq.b 0x1, d6
     > 0x00483f22      4a06           tst.b d6
     < 0x00483f24      6730           beq.b 0x483f56
        0x00483f26      3f05           move.w d5, -(a7)
        0x00483f28      7e00           moveq 0x0, d7
    > 0x00483f2a      be57           cmp.w (a7), d7
   < 0x00483f2c      6e26           bgt.b 0x483f54
      0x00483f2e      7000           moveq 0x0, d0
      0x00483f30      4f83           chk.w d3, d7
      0x00483f32      4a06           tst.b d6
  < 0x00483f34      6718           beq.b 0x483f4e
     0x00483f36      20690042       movea.l 0x42(a1), a0
     0x00483f3a      b1e8fffc       cmpa.l -0x4(a0), a0
 < 0x00483f3e      6702           beq.b 0x483f42
    0x00483f40      4e4d           trap 0xd
 > 0x00483f42      12307000       move.b (a0, d7.w), d1
     0x00483f46      b23670be       cmp.b -0x42(a6, d7.w), d1
 < 0x00483f4a      6602           bne.b 0x483f4e
    0x00483f4c      5200           addq.b 0x1, d0
 > 0x00483f4e      1c00           move.b d0, d6
      0x00483f50      5247           addq.w 0x1, d7
   < 0x00483f52      68d6           bvc.b 0x483f2a
   > 0x00483f54      544f           addq.w 0x2, a7
     > 0x00483f56      4a06           tst.b d6
     < 0x00483f58      6608           bne.b 0x483f62
        0x00483f5a      3f14           move.w (a4), -(a7)
        0x00483f5c      4ebad514       jsr MENUCOM.draw_box(pc)
        0x00483f60      544f           addq.w 0x2, a7
     > 0x00483f62      4cdf1fef       movem.l (a7)+, d0-d3/d5-d7/a0-a4
           0x00483f66      4e5e           unlk a6
           0x00483f68      4e75           rts
            ; XREFS: CALL 0x0048cfae  CALL 0x0048d088  CALL 0x0049bd64  
            ; XREFS: CALL 0x004a1260  CALL 0x004a1382  CALL 0x004a20cc  
            ; XREFS: CALL 0x004a361c  CALL 0x004a473a  CALL 0x004a6768  
            ; XREFS: CALL 0x004a6dbc  CALL 0x004a705c  CALL 0x004a70ae  
            ; XREFS: CALL 0x00693606  
 194: MENUCOM.get_boxtext ();
           0x00483f6a      4e56ffbc       link.w a6, 0xffbc
           0x00483f6e      bfd5           cmpa.l (a5), a7
       < 0x00483f70      6206           bhi.b 0x483f78
          0x00483f72      44fc0002       move.w 0x2, ccr
          0x00483f76      4e76           trapv
       > 0x00483f78      defc0042       adda.w 0x42, a7
           0x00483f7c      48e7f1f0       movem.l d0-d3/d7/a0-a3, -(a7)
           0x00483f80      7601           moveq 0x1, d3
           0x00483f82      302e000c       move.w 0xc(a6), d0
           0x00483f86      41bc1068       chk.w 0x1068, d0
           0x00483f8a      48c0           ext.l d0
           0x00483f8c      e580           asl.l 0x2, d0
           0x00483f8e      41f9008101fe   lea.l 0x8101fe, a0
           0x00483f94      22700800       movea.l (a0, d0.l), a1
           0x00483f98      b2c3           cmpa.w d3, a1
       < 0x00483f9a      67000088       beq.w 0x484024
          0x00483f9e      b3e9fffc       cmpa.l -0x4(a1), a1
      < 0x00483fa2      6702           beq.b 0x483fa6
         0x00483fa4      4e4d           trap 0xd
      > 0x00483fa6      206e0008       movea.l 0x8(a6), a0
          0x00483faa      10bab32e       move.b 0x47f2da(pc), (a0)
          0x00483fae      206e0008       movea.l 0x8(a6), a0
          0x00483fb2      24690042       movea.l 0x42(a1), a2
          0x00483fb6      b5eafffc       cmpa.l -0x4(a2), a2
      < 0x00483fba      6702           beq.b 0x483fbe
         0x00483fbc      4e4d           trap 0xd
      > 0x00483fbe      4280           clr.l d0
          0x00483fc0      1012           move.b (a2), d0
          0x00483fc2      2f00           move.l d0, -(a7)
          0x00483fc4      7e01           moveq 0x1, d7
      > 0x00483fc6      be6f0002       cmp.w 0x2(a7), d7
     < 0x00483fca      6e56           bgt.b 0x484022
        0x00483fcc      4fbc0040       chk.w 0x40, d7
        0x00483fd0      24690042       movea.l 0x42(a1), a2
        0x00483fd4      b5eafffc       cmpa.l -0x4(a2), a2
    < 0x00483fd8      6702           beq.b 0x483fdc
       0x00483fda      4e4d           trap 0xd
    > 0x00483fdc      554f           subq.w 0x2, a7
        0x00483fde      1e83           move.b d3, (a7)
        0x00483fe0      1f7270000001   move.b (a2, d7.w), 0x1(a7)
        0x00483fe6      4240           clr.w d0
        0x00483fe8      1010           move.b (a0), d0
        0x00483fea      45f00001       lea.l 0x1(a0, d0.w), a2
        0x00483fee      4241           clr.w d1
        0x00483ff0      1217           move.b (a7), d1
        0x00483ff2      d200           add.b d0, d1
    < 0x00483ff4      6406           bcc.b 0x483ffc
       0x00483ff6      4eb900406c8a   jsr p_strovr
    > 0x00483ffc      4241           clr.w d1
        0x00483ffe      1217           move.b (a7), d1
        0x00484000      343c00ff       move.w 0xff, d2
        0x00484004      9440           sub.w d0, d2
        0x00484006      b242           cmp.w d2, d1
    < 0x00484008      6302           bls.b 0x48400c
       0x0048400a      3202           move.w d2, d1
    > 0x0048400c      d310           add.b d1, (a0)
        0x0048400e      5301           subq.b 0x1, d1
    < 0x00484010      650a           bcs.b 0x48401c
       0x00484012      47ef0001       lea.l 0x1(a7), a3
   > 0x00484016      14db           move.b (a3)+, (a2)+
   < 0x00484018      51c9fffc       dbra d1, 0x484016
    > 0x0048401c      544f           addq.w 0x2, a7
        0x0048401e      5247           addq.w 0x1, d7
     < 0x00484020      68a4           bvc.b 0x483fc6
     > 0x00484022      584f           addq.w 0x4, a7
       > 0x00484024      4cdf0f8f       movem.l (a7)+, d0-d3/d7/a0-a3
           0x00484028      4e5e           unlk a6
           0x0048402a      4e75           rts
            ; XREFS(115)
 66: MENUCOM.set_b_id ();
           0x0048402c      4e56fff4       link.w a6, 0xfff4
           0x00484030      bfd5           cmpa.l (a5), a7
       < 0x00484032      6206           bhi.b 0x48403a
          0x00484034      44fc0002       move.w 0x2, ccr
          0x00484038      4e76           trapv
       > 0x0048403a      defc000c       adda.w 0xc, a7
           0x0048403e      48e78080       movem.l d0/a0, -(a7)
           0x00484042      302e000c       move.w 0xc(a6), d0
           0x00484046      41bc1068       chk.w 0x1068, d0
           0x0048404a      48c0           ext.l d0
           0x0048404c      e580           asl.l 0x2, d0
           0x0048404e      41f9008101fe   lea.l 0x8101fe, a0
           0x00484054      20700800       movea.l (a0, d0.l), a0
           0x00484058      b1e8fffc       cmpa.l -0x4(a0), a0
       < 0x0048405c      6702           beq.b 0x484060
          0x0048405e      4e4d           trap 0xd
       > 0x00484060      216e0008002e   move.l 0x8(a6), 0x2e(a0)
           0x00484066      4cdf0101       movem.l (a7)+, d0/a0
           0x0048406a      4e5e           unlk a6
           0x0048406c      4e75           rts
            ; XREFS(77)
 66: MENUCOM.get_b_id (int32_t arg_2eh);
           ; arg int32_t arg_2eh @ a6+0x2e
           0x0048406e      4e56fff4       link.w a6, 0xfff4
           0x00484072      bfd5           cmpa.l (a5), a7
       < 0x00484074      6206           bhi.b 0x48407c
          0x00484076      44fc0002       move.w 0x2, ccr
          0x0048407a      4e76           trapv
       > 0x0048407c      defc000c       adda.w 0xc, a7
           0x00484080      48e78080       movem.l d0/a0, -(a7)
           0x00484084      302e0008       move.w 0x8(a6), d0
           0x00484088      41bc1068       chk.w 0x1068, d0
           0x0048408c      48c0           ext.l d0
           0x0048408e      e580           asl.l 0x2, d0
           0x00484090      41f9008101fe   lea.l 0x8101fe, a0
           0x00484096      20700800       movea.l (a0, d0.l), a0
           0x0048409a      b1e8fffc       cmpa.l -0x4(a0), a0
       < 0x0048409e      6702           beq.b 0x4840a2
          0x004840a0      4e4d           trap 0xd
       > 0x004840a2      2d68002e000a   move.l 0x2e(a0), 0xa(a6)
           0x004840a8      4cdf0101       movem.l (a7)+, d0/a0
           0x004840ac      4e5e           unlk a6
           0x004840ae      4e75           rts
            ; XREFS(42)
 66: MENUCOM.set_b_keycode ();
           0x004840b0      4e56fff4       link.w a6, 0xfff4
           0x004840b4      bfd5           cmpa.l (a5), a7
       < 0x004840b6      6206           bhi.b 0x4840be
          0x004840b8      44fc0002       move.w 0x2, ccr
          0x004840bc      4e76           trapv
       > 0x004840be      defc000c       adda.w 0xc, a7
           0x004840c2      48e78080       movem.l d0/a0, -(a7)
           0x004840c6      302e000a       move.w 0xa(a6), d0
           0x004840ca      41bc1068       chk.w 0x1068, d0
           0x004840ce      48c0           ext.l d0
           0x004840d0      e580           asl.l 0x2, d0
           0x004840d2      41f9008101fe   lea.l 0x8101fe, a0
           0x004840d8      20700800       movea.l (a0, d0.l), a0
           0x004840dc      b1e8fffc       cmpa.l -0x4(a0), a0
       < 0x004840e0      6702           beq.b 0x4840e4
          0x004840e2      4e4d           trap 0xd
       > 0x004840e4      316e00080018   move.w 0x8(a6), 0x18(a0)
           0x004840ea      4cdf0101       movem.l (a7)+, d0/a0
           0x004840ee      4e5e           unlk a6
           0x004840f0      4e75           rts
            ; XREFS: CALL 0x004b40c4  CALL 0x004b40e4  CALL 0x004b5086  
            ; XREFS: CALL 0x004b50a8  CALL 0x004dce52  CALL 0x004dce68  
            ; XREFS: CALL 0x00736f10  CALL 0x00736f30  
 86: MENUCOM.get_b_keycode (int32_t arg_18h);
           ; arg int32_t arg_18h @ a6+0x18
           0x004840f2      4e56ffe4       link.w a6, 0xffe4
           0x004840f6      bfd5           cmpa.l (a5), a7
       < 0x004840f8      6206           bhi.b 0x484100
          0x004840fa      44fc0002       move.w 0x2, ccr
          0x004840fe      4e76           trapv
       > 0x00484100      defc001c       adda.w 0x1c, a7
           0x00484104      48e780c0       movem.l d0/a0-a1, -(a7)
           0x00484108      4a6e0008       tst.w 0x8(a6)
       < 0x0048410c      6606           bne.b 0x484114
      > 0x0048410e      426e000a       clr.w 0xa(a6)
     < 0x00484112      602c           bra.b 0x484140
     > 0x00484114      302e0008       move.w 0x8(a6), d0
         0x00484118      41bc1068       chk.w 0x1068, d0
         0x0048411c      48c0           ext.l d0
         0x0048411e      e580           asl.l 0x2, d0
         0x00484120      41f9008101fe   lea.l 0x8101fe, a0
         0x00484126      22700800       movea.l (a0, d0.l), a1
         0x0048412a      b2fc0001       cmpa.w 0x1, a1
     < 0x0048412e      6602           bne.b 0x484132
     < 0x00484130      60dc           bra.b 0x48410e
      > 0x00484132      b3e9fffc       cmpa.l -0x4(a1), a1
      < 0x00484136      6702           beq.b 0x48413a
         0x00484138      4e4d           trap 0xd
      > 0x0048413a      3d690018000a   move.w 0x18(a1), 0xa(a6)
     > 0x00484140      4cdf0301       movem.l (a7)+, d0/a0-a1
           0x00484144      4e5e           unlk a6
           0x00484146      4e75           rts
            ; XREFS(91)
 130: MENUCOM.set_boxcol ();
           0x00484148      4e56ffce       link.w a6, 0xffce
           0x0048414c      bfd5           cmpa.l (a5), a7
       < 0x0048414e      6206           bhi.b 0x484156
          0x00484150      44fc0002       move.w 0x2, ccr
          0x00484154      4e76           trapv
       > 0x00484156      defc0032       adda.w 0x32, a7
           0x0048415a      48e780e0       movem.l d0/a0-a2, -(a7)
           0x0048415e      302e000e       move.w 0xe(a6), d0
           0x00484162      41bc1068       chk.w 0x1068, d0
           0x00484166      48c0           ext.l d0
           0x00484168      e580           asl.l 0x2, d0
           0x0048416a      41f9008101fe   lea.l 0x8101fe, a0
           0x00484170      22700800       movea.l (a0, d0.l), a1
           0x00484174      b2fc0001       cmpa.w 0x1, a1
       < 0x00484178      6748           beq.b 0x4841c2
          0x0048417a      b3e9fffc       cmpa.l -0x4(a1), a1
      < 0x0048417e      6702           beq.b 0x484182
         0x00484180      4e4d           trap 0xd
      > 0x00484182      514f           subq.w 0x8, a7
          0x00484184      204f           movea.l a7, a0
          0x00484186      45e9000e       lea.l 0xe(a1), a2
          0x0048418a      7005           moveq 0x5, d0
      > 0x0048418c      10da           move.b (a2)+, (a0)+
      < 0x0048418e      51c8fffc       dbra d0, 0x48418c
          0x00484192      2f2e000a       move.l 0xa(a6), -(a7)
          0x00484196      3f2e0008       move.w 0x8(a6), -(a7)
          0x0048419a      4eb90063c2c0   jsr COLOURCOM.same_colour
          0x004841a0      defc000c       adda.w 0xc, a7
          0x004841a4      4a1f           tst.b (a7)+
      < 0x004841a6      661a           bne.b 0x4841c2
         0x004841a8      41e9000e       lea.l 0xe(a1), a0
         0x004841ac      45ee0008       lea.l 0x8(a6), a2
         0x004841b0      7005           moveq 0x5, d0
     > 0x004841b2      10da           move.b (a2)+, (a0)+
     < 0x004841b4      51c8fffc       dbra d0, 0x4841b2
         0x004841b8      3f2e000e       move.w 0xe(a6), -(a7)
         0x004841bc      4ebad2b4       jsr MENUCOM.draw_box(pc)
         0x004841c0      544f           addq.w 0x2, a7
      > 0x004841c2      4cdf0701       movem.l (a7)+, d0/a0-a2
           0x004841c6      4e5e           unlk a6
           0x004841c8      4e75           rts
            ; XREFS: CALL 0x0049be9e  CALL 0x004d3f32  CALL 0x004d71be  
            ; XREFS: CALL 0x004d7210  CALL 0x004e32f2  CALL 0x004e41a2  
            ; XREFS: CALL 0x004e425e  CALL 0x004e428c  CALL 0x004f49c8  
            ; XREFS: CALL 0x004f4b1a  CALL 0x00639186  CALL 0x00752382  
 304: MENUCOM.set_box_area ();
           ; var int32_t var_8h @ a7+0x8
           ; var int32_t var_108h @ a7+0x108
           0x004841ca      4e56fdc8       link.w a6, 0xfdc8
           0x004841ce      bfd5           cmpa.l (a5), a7
       < 0x004841d0      6206           bhi.b 0x4841d8
          0x004841d2      44fc0002       move.w 0x2, ccr
          0x004841d6      4e76           trapv
       > 0x004841d8      defc0238       adda.w 0x238, a7
           0x004841dc      48e7e0f8       movem.l d0-d2/a0-a4, -(a7)
           0x004841e0      47ee0010       lea.l 0x10(a6), a3
           0x004841e4      49f9004047ea   lea.l p_wts_o, a4
           0x004841ea      740c           moveq 0xc, d2
           0x004841ec      3013           move.w (a3), d0
           0x004841ee      41bc1068       chk.w 0x1068, d0
           0x004841f2      48c0           ext.l d0
           0x004841f4      e580           asl.l 0x2, d0
           0x004841f6      41f9008101fe   lea.l 0x8101fe, a0
           0x004841fc      22700800       movea.l (a0, d0.l), a1
           0x00484200      b3e9fffc       cmpa.l -0x4(a1), a1
       < 0x00484204      6702           beq.b 0x484208
          0x00484206      4e4d           trap 0xd
       > 0x00484208      08110005       btst.b 0x5, (a1)
       < 0x0048420c      670000a6       beq.w 0x4842b4
          0x00484210      9efc0100       suba.w 0x100, a7
          0x00484214      224f           movea.l a7, a1
          0x00484216      45fab0c3       lea.l 0x47f2db(pc), a2
          0x0048421a      720e           moveq 0xe, d1
      > 0x0048421c      12da           move.b (a2)+, (a1)+
      < 0x0048421e      51c9fffc       dbra d1, 0x48421c
          0x00484222      3f13           move.w (a3), -(a7)
          0x00484224      1f3c0001       move.b 0x1, -(a7)
          0x00484228      4ebac6a8       jsr MENUCOM.show_box(pc)
          0x0048422c      584f           addq.w 0x4, a7
          0x0048422e      22700800       movea.l (a0, d0.l), a1
          0x00484232      b3e9fffc       cmpa.l -0x4(a1), a1
      < 0x00484236      6702           beq.b 0x48423a
         0x00484238      4e4d           trap 0xd
      > 0x0048423a      514f           subq.w 0x8, a7
          0x0048423c      244f           movea.l a7, a2
          0x0048423e      43e90006       lea.l 0x6(a1), a1
          0x00484242      7207           moveq 0x7, d1
      > 0x00484244      14d9           move.b (a1)+, (a2)+
      < 0x00484246      51c9fffc       dbra d1, 0x484244
          0x0048424a      48780000       pea.l 0x0
          0x0048424e      4eb90044d9f2   jsr SYSTEM_STRING.area_str
          0x00484254      9efc00f4       suba.w 0xf4, a7
          0x00484258      2f2e000c       move.l 0xc(a6), -(a7)
          0x0048425c      2f2e0008       move.l 0x8(a6), -(a7)
          0x00484260      48780000       pea.l 0x0
          0x00484264      4eb90044d9f2   jsr SYSTEM_STRING.area_str
          0x0048426a      dec2           adda.w d2, a7
          0x0048426c      487ab07d       pea.l 0x47f2eb(pc)
          0x00484270      48780009       pea.l 0x9
          0x00484274      2f17           move.l (a7), -(a7)
          0x00484276      4e94           jsr (a4)                    ; fcn.0000000d
          0x00484278      dec2           adda.w d2, a7
          0x0048427a      486f0101       pea.l 0x101(a7)
          0x0048427e      42a7           clr.l -(a7)
          0x00484280      1f6f01080003   move.b 0x108(a7), 0x3(a7)
          0x00484286      2f17           move.l (a7), -(a7)
          0x00484288      4e94           jsr (a4)                    ; fcn.0000000d
          0x0048428a      dec2           adda.w d2, a7
          0x0048428c      487ab067       pea.l 0x47f2f5(pc)
          0x00484290      4878000b       pea.l 0xb
          0x00484294      2f17           move.l (a7), -(a7)
          0x00484296      4e94           jsr (a4)                    ; fcn.0000000d
          0x00484298      dec2           adda.w d2, a7
          0x0048429a      486f0001       pea.l 0x1(a7)
          0x0048429e      42a7           clr.l -(a7)
          0x004842a0      1f6f00080003   move.b 0x8(a7), 0x3(a7)
          0x004842a6      2f17           move.l (a7), -(a7)
          0x004842a8      4e94           jsr (a4)                    ; fcn.0000000d
          0x004842aa      defc020c       adda.w 0x20c, a7
          0x004842ae      4eb900404946   jsr p_wtln_o
       > 0x004842b4      22700800       movea.l (a0, d0.l), a1
           0x004842b8      b3e9fffc       cmpa.l -0x4(a1), a1
       < 0x004842bc      6702           beq.b 0x4842c0
          0x004842be      4e4d           trap 0xd
       > 0x004842c0      08110003       btst.b 0x3, (a1)
       < 0x004842c4      6708           beq.b 0x4842ce
          0x004842c6      3f13           move.w (a3), -(a7)
          0x004842c8      4ebad748       jsr MENUCOM.erase_box(pc)
          0x004842cc      544f           addq.w 0x2, a7
       > 0x004842ce      20700800       movea.l (a0, d0.l), a0
           0x004842d2      b1e8fffc       cmpa.l -0x4(a0), a0
       < 0x004842d6      6702           beq.b 0x4842da
          0x004842d8      4e4d           trap 0xd
       > 0x004842da      41e80006       lea.l 0x6(a0), a0
           0x004842de      43ee0008       lea.l 0x8(a6), a1
           0x004842e2      7007           moveq 0x7, d0
       > 0x004842e4      10d9           move.b (a1)+, (a0)+
       < 0x004842e6      51c8fffc       dbra d0, 0x4842e4
           0x004842ea      3f13           move.w (a3), -(a7)
           0x004842ec      4ebad184       jsr MENUCOM.draw_box(pc)
           0x004842f0      544f           addq.w 0x2, a7
           0x004842f2      4cdf1f07       movem.l (a7)+, d0-d2/a0-a4
           0x004842f6      4e5e           unlk a6
           0x004842f8      4e75           rts
            ; CALL XREF from PANEL_TRANSIT @ +0x1c92
            ; CALL XREF from PANEL_CURSOR.do_cursor @ 0x79f408
 124: MENUCOM.box_keyed ();
           0x004842fa      4e56ffe2       link.w a6, 0xffe2
           0x004842fe      bfd5           cmpa.l (a5), a7
       < 0x00484300      6206           bhi.b 0x484308
          0x00484302      44fc0002       move.w 0x2, ccr
          0x00484306      4e76           trapv
       > 0x00484308      defc0018       adda.w 0x18, a7
           0x0048430c      48e7c188       movem.l d0-d1/d7/a0/a4, -(a7)
           0x00484310      7201           moveq 0x1, d1
           0x00484312      7e00           moveq 0x0, d7
           0x00484314      1039008190e8   move.b 0x8190e8, d0
           0x0048431a      4880           ext.w d0
           0x0048431c      4181           chk.w d1, d0
           0x0048431e      e540           asl.w 0x2, d0
           0x00484320      41f9008101fe   lea.l 0x8101fe, a0
           0x00484326      41f00000       lea.l (a0, d0.w), a0
           0x0048432a      d1fc00008ef6   adda.l 0x8ef6, a0
           0x00484330      2850           movea.l (a0), a4
       > 0x00484332      b8c1           cmpa.w d1, a4
      < 0x00484334      6734           beq.b 0x48436a
         0x00484336      4a07           tst.b d7
     < 0x00484338      6630           bne.b 0x48436a
        0x0048433a      b9ecfffc       cmpa.l -0x4(a4), a4
    < 0x0048433e      6702           beq.b 0x484342
       0x00484340      4e4d           trap 0xd
    > 0x00484342      203c0c000000   move.l 0xc000000, d0
        0x00484348      c094           and.l (a4), d0
        0x0048434a      b0baafb8       cmp.l 0x47f304(pc), d0
    < 0x0048434e      6614           bne.b 0x484364
       0x00484350      302e000c       move.w 0xc(a6), d0
       0x00484354      b06c0018       cmp.w 0x18(a4), d0
   < 0x00484358      660a           bne.b 0x484364
      0x0048435a      7e01           moveq 0x1, d7
      0x0048435c      206e0008       movea.l 0x8(a6), a0
      0x00484360      30ac0016       move.w 0x16(a4), (a0)
   > 0x00484364      286c0026       movea.l 0x26(a4), a4
     < 0x00484368      60c8           bra.b 0x484332
     > 0x0048436a      1d47000e       move.b d7, 0xe(a6)
           0x0048436e      4cdf1183       movem.l (a7)+, d0-d1/d7/a0/a4
           0x00484372      4e5e           unlk a6
           0x00484374      4e75           rts
            ; CALL XREF from MENUCOM.sub_box_keyed @ 0x48440e
 184: MENUCOM.sub_box_keyed ();
           0x00484376      4e56ffc8       link.w a6, 0xffc8
           0x0048437a      bfd5           cmpa.l (a5), a7
       < 0x0048437c      6206           bhi.b 0x484384
          0x0048437e      44fc0002       move.w 0x2, ccr
          0x00484382      4e76           trapv
       > 0x00484384      defc0032       adda.w 0x32, a7
           0x00484388      48e7c1f8       movem.l d0-d1/d7/a0-a4, -(a7)
           0x0048438c      47f9008101fe   lea.l 0x8101fe, a3
           0x00484392      7201           moveq 0x1, d1
           0x00484394      7e00           moveq 0x0, d7
           0x00484396      302e000e       move.w 0xe(a6), d0
           0x0048439a      41bc1068       chk.w 0x1068, d0
           0x0048439e      48c0           ext.l d0
           0x004843a0      e580           asl.l 0x2, d0
           0x004843a2      204b           movea.l a3, a0
           0x004843a4      20700800       movea.l (a0, d0.l), a0
           0x004843a8      b1e8fffc       cmpa.l -0x4(a0), a0
       < 0x004843ac      6702           beq.b 0x4843b0
          0x004843ae      4e4d           trap 0xd
       > 0x004843b0      2868001e       movea.l 0x1e(a0), a4
           0x004843b4      206e0008       movea.l 0x8(a6), a0
       > 0x004843b8      b8c1           cmpa.w d1, a4
      < 0x004843ba      6766           beq.b 0x484422
         0x004843bc      4a07           tst.b d7
     < 0x004843be      6662           bne.b 0x484422
        0x004843c0      b9ecfffc       cmpa.l -0x4(a4), a4
    < 0x004843c4      6702           beq.b 0x4843c8
       0x004843c6      4e4d           trap 0xd
    > 0x004843c8      3014           move.w (a4), d0
        0x004843ca      41bc1068       chk.w 0x1068, d0
        0x004843ce      48c0           ext.l d0
        0x004843d0      e580           asl.l 0x2, d0
        0x004843d2      224b           movea.l a3, a1
        0x004843d4      22710800       movea.l (a1, d0.l), a1
        0x004843d8      b3e9fffc       cmpa.l -0x4(a1), a1
    < 0x004843dc      6702           beq.b 0x4843e0
       0x004843de      4e4d           trap 0xd
    > 0x004843e0      203c0c000000   move.l 0xc000000, d0
        0x004843e6      c091           and.l (a1), d0
        0x004843e8      b0baaf22       cmp.l 0x47f30c(pc), d0
    < 0x004843ec      6612           bne.b 0x484400
       0x004843ee      302e000c       move.w 0xc(a6), d0
       0x004843f2      b0690018       cmp.w 0x18(a1), d0
   < 0x004843f6      6608           bne.b 0x484400
      0x004843f8      7e01           moveq 0x1, d7
      0x004843fa      246e0008       movea.l 0x8(a6), a2
      0x004843fe      3494           move.w (a4), (a2)
   > 0x00484400      4a07           tst.b d7
    < 0x00484402      6618           bne.b 0x48441c
       0x00484404      554f           subq.w 0x2, a7
       0x00484406      3f14           move.w (a4), -(a7)
       0x00484408      3f2e000c       move.w 0xc(a6), -(a7)
       0x0048440c      4850           pea.l (a0)
       0x0048440e      4ebaff66       jsr MENUCOM.sub_box_keyed(pc)
       0x00484412      504f           addq.w 0x8, a7
       0x00484414      101f           move.b (a7)+, d0
       0x00484416      4880           ext.w d0
       0x00484418      4181           chk.w d1, d0
       0x0048441a      1e00           move.b d0, d7
    > 0x0048441c      286c0004       movea.l 0x4(a4), a4
     < 0x00484420      6096           bra.b 0x4843b8
     > 0x00484422      1d470010       move.b d7, 0x10(a6)
           0x00484426      4cdf1f83       movem.l (a7)+, d0-d1/d7/a0-a4
           0x0048442a      4e5e           unlk a6
           0x0048442c      4e75           rts
            ; XREFS(192)
 144: MENUCOM.set_box_macro_n ();
           0x0048442e      4e56ffdc       link.w a6, 0xffdc
           0x00484432      bfd5           cmpa.l (a5), a7
       < 0x00484434      6206           bhi.b 0x48443c
          0x00484436      44fc0002       move.w 0x2, ccr
          0x0048443a      4e76           trapv
       > 0x0048443c      defc0020       adda.w 0x20, a7
           0x00484440      48e781c0       movem.l d0/d7/a0-a1, -(a7)
           0x00484444      302e0108       move.w 0x108(a6), d0
           0x00484448      41bc1068       chk.w 0x1068, d0
           0x0048444c      48c0           ext.l d0
           0x0048444e      e580           asl.l 0x2, d0
           0x00484450      41f9008101fe   lea.l 0x8101fe, a0
           0x00484456      20700800       movea.l (a0, d0.l), a0
           0x0048445a      b1e8fffc       cmpa.l -0x4(a0), a0
       < 0x0048445e      6702           beq.b 0x484462
          0x00484460      4e4d           trap 0xd
       > 0x00484462      2268003a       movea.l 0x3a(a0), a1
           0x00484466      b2fc0001       cmpa.w 0x1, a1
       < 0x0048446a      6610           bne.b 0x48447c
          0x0048446c      4868003a       pea.l 0x3a(a0)
          0x00484470      48780041       pea.l 0x41
          0x00484474      4eb900403a92   jsr p_New
          0x0048447a      504f           addq.w 0x8, a7
       > 0x0048447c      4280           clr.l d0
           0x0048447e      102e0008       move.b 0x8(a6), d0
           0x00484482      2f00           move.l d0, -(a7)
           0x00484484      7e00           moveq 0x0, d7
       > 0x00484486      be97           cmp.l (a7), d7
      < 0x00484488      6e2a           bgt.b 0x4844b4
         0x0048448a      0c8700000040   cmpi.l 0x40, d7
     < 0x00484490      6302           bls.b 0x484494
        0x00484492      4e4f           trap 0xf
     > 0x00484494      2268003a       movea.l 0x3a(a0), a1
         0x00484498      b3e9fffc       cmpa.l -0x4(a1), a1
     < 0x0048449c      6702           beq.b 0x4844a0
        0x0048449e      4e4d           trap 0xd
     > 0x004844a0      0c87000000ff   cmpi.l 0xff, d7
     < 0x004844a6      6302           bls.b 0x4844aa
        0x004844a8      4e4f           trap 0xf
     > 0x004844aa      13b678087800   move.b 0x8(a6, d7.l), (a1, d7.l)
         0x004844b0      5287           addq.l 0x1, d7
      < 0x004844b2      68d2           bvc.b 0x484486
      > 0x004844b4      584f           addq.w 0x4, a7
           0x004844b6      4cdf0381       movem.l (a7)+, d0/d7/a0-a1
           0x004844ba      4e5e           unlk a6
           0x004844bc      4e75           rts
            ; CALL XREFS from MENUCOM.get_macro_box_t @ 0x484864, 0x4848e2
 776: MENUCOM.get_text ();
           ; var int32_t var_8h @ a7+0x8
           0x004844be      4e56fda8       link.w a6, 0xfda8
           0x004844c2      bfd5           cmpa.l (a5), a7
       < 0x004844c4      6206           bhi.b 0x4844cc
          0x004844c6      44fc0002       move.w 0x2, ccr
          0x004844ca      4e76           trapv
       > 0x004844cc      defc0152       adda.w 0x152, a7
           0x004844d0      48e7fff0       movem.l d0-d7/a0-a3, -(a7)
           0x004844d4      206e0008       movea.l 0x8(a6), a0
           0x004844d8      10baae36       move.b 0x47f310(pc), (a0)
           0x004844dc      7000           moveq 0x0, d0
           0x004844de      b0ae000c       cmp.l 0xc(a6), d0
       < 0x004844e2      6e06           bgt.b 0x4844ea
          0x004844e4      90ae0010       sub.l 0x10(a6), d0
      < 0x004844e8      6c02           bge.b 0x4844ec
      > 0x004844ea      4e4f           trap 0xf
      > 0x004844ec      206e0014       movea.l 0x14(a6), a0
           0x004844f0      7200           moveq 0x0, d1
           0x004844f2      b2ae000c       cmp.l 0xc(a6), d1
       < 0x004844f6      6e06           bgt.b 0x4844fe
          0x004844f8      92ae0010       sub.l 0x10(a6), d1
      < 0x004844fc      6c02           bge.b 0x484500
      > 0x004844fe      4e4f           trap 0xf
      > 0x00484500      226e0014       movea.l 0x14(a6), a1
           0x00484504      4282           clr.l d2
           0x00484506      14311800       move.b (a1, d1.l), d2
           0x0048450a      2f02           move.l d2, -(a7)
           0x0048450c      7c01           moveq 0x1, d6
       > 0x0048450e      bc97           cmp.l (a7), d6
      < 0x00484510      6e0001aa       bgt.w 0x4846bc
         0x00484514      7e00           moveq 0x0, d7
         0x00484516      2206           move.l d6, d1
         0x00484518      b2ae000c       cmp.l 0xc(a6), d1
     < 0x0048451c      6e06           bgt.b 0x484524
        0x0048451e      92ae0010       sub.l 0x10(a6), d1
    < 0x00484522      6c02           bge.b 0x484526
    > 0x00484524      4e4f           trap 0xf
    > 0x00484526      1a301800       move.b (a0, d1.l), d5
         0x0048452a      0c05003c       cmpi.b 0x3c, d5
     < 0x0048452e      663a           bne.b 0x48456a
        0x00484530      14300800       move.b (a0, d0.l), d2
        0x00484534      0c020001       cmpi.b 0x1, d2
    < 0x00484538      6604           bne.b 0x48453e
 > 0x0048453a      7e00           moveq 0x0, d7
 < 0x0048453c      607a           bra.b 0x4845b8
 > 0x0048453e      0c8600000001   cmpi.l 0x1, d6
 < 0x00484544      6622           bne.b 0x484568
    0x00484546      0c020002       cmpi.b 0x2, d2
 < 0x0048454a      661c           bne.b 0x484568
    0x0048454c      7602           moveq 0x2, d3
    0x0048454e      b6ae000c       cmp.l 0xc(a6), d3
 < 0x00484552      6e06           bgt.b 0x48455a
    0x00484554      96ae0010       sub.l 0x10(a6), d3
 < 0x00484558      6c02           bge.b 0x48455c
 > 0x0048455a      4e4f           trap 0xf
 > 0x0048455c      16303800       move.b (a0, d3.l), d3
    0x00484560      0c030020       cmpi.b 0x20, d3
 < 0x00484564      6602           bne.b 0x484568
 < 0x00484566      60d2           bra.b 0x48453a
 > 0x00484568      604c           bra.b 0x4845b6
  > 0x0048456a      0c05003e       cmpi.b 0x3e, d5
  < 0x0048456e      6648           bne.b 0x4845b8
     0x00484570      7400           moveq 0x0, d2
     0x00484572      b4ae000c       cmp.l 0xc(a6), d2
 < 0x00484576      6e06           bgt.b 0x48457e
    0x00484578      94ae0010       sub.l 0x10(a6), d2
 < 0x0048457c      6c02           bge.b 0x484580
 > 0x0048457e      4e4f           trap 0xf
 > 0x00484580      16302800       move.b (a0, d2.l), d3
     0x00484584      0c030001       cmpi.b 0x1, d3
 < 0x00484588      6602           bne.b 0x48458c
 < 0x0048458a      60ae           bra.b 0x48453a
  > 0x0048458c      0c8600000001   cmpi.l 0x1, d6
  < 0x00484592      6622           bne.b 0x4845b6
     0x00484594      0c030002       cmpi.b 0x2, d3
 < 0x00484598      661c           bne.b 0x4845b6
    0x0048459a      7402           moveq 0x2, d2
    0x0048459c      b4ae000c       cmp.l 0xc(a6), d2
 < 0x004845a0      6e06           bgt.b 0x4845a8
    0x004845a2      94ae0010       sub.l 0x10(a6), d2
 < 0x004845a6      6c02           bge.b 0x4845aa
 > 0x004845a8      4e4f           trap 0xf
 > 0x004845aa      14302800       move.b (a0, d2.l), d2
    0x004845ae      0c020020       cmpi.b 0x20, d2
 < 0x004845b2      6602           bne.b 0x4845b6
 < 0x004845b4      6084           bra.b 0x48453a
 > 0x004845b6      7e01           moveq 0x1, d7
 > 0x004845b8      4a07           tst.b d7
     < 0x004845ba      660000fa       bne.w 0x4846b6
        0x004845be      0c050020       cmpi.b 0x20, d5
    < 0x004845c2      6508           bcs.b 0x4845cc
       0x004845c4      0c05007f       cmpi.b 0x7f, d5
   < 0x004845c8      650000a4       bcs.w 0x48466e
   > 0x004845cc      0285000000ff   andi.l 0xff, d5
       0x004845d2      2f05           move.l d5, -(a7)
       0x004845d4      4878ffff       pea.l 0xffff
       0x004845d8      486efefe       pea.l -0x102(a6)
       0x004845dc      3f3c00ff       move.w 0xff, -(a7)
       0x004845e0      4eb900406e56   jsr p_strI1
       0x004845e6      defc000e       adda.w 0xe, a7
       0x004845ea      226e0008       movea.l 0x8(a6), a1
       0x004845ee      4242           clr.w d2
       0x004845f0      1411           move.b (a1), d2
       0x004845f2      45f12001       lea.l 0x1(a1, d2.w), a2
       0x004845f6      7601           moveq 0x1, d3
       0x004845f8      383c00ff       move.w 0xff, d4
       0x004845fc      9842           sub.w d2, d4
       0x004845fe      b644           cmp.w d4, d3
   < 0x00484600      6302           bls.b 0x484604
      0x00484602      3604           move.w d4, d3
   > 0x00484604      d711           add.b d3, (a1)
       0x00484606      47faad0a       lea.l 0x47f312(pc), a3
   > 0x0048460a      14db           move.b (a3)+, (a2)+
   < 0x0048460c      51cbfffc       dbra d3, 0x48460a
       0x00484610      4242           clr.w d2
       0x00484612      1411           move.b (a1), d2
       0x00484614      45f12001       lea.l 0x1(a1, d2.w), a2
       0x00484618      4243           clr.w d3
       0x0048461a      162efefe       move.b -0x102(a6), d3
       0x0048461e      d602           add.b d2, d3
   < 0x00484620      6406           bcc.b 0x484628
      0x00484622      4eb900406c8a   jsr p_strovr
   > 0x00484628      4243           clr.w d3
       0x0048462a      162efefe       move.b -0x102(a6), d3
       0x0048462e      383c00ff       move.w 0xff, d4
       0x00484632      9842           sub.w d2, d4
       0x00484634      b644           cmp.w d4, d3
   < 0x00484636      6302           bls.b 0x48463a
      0x00484638      3604           move.w d4, d3
   > 0x0048463a      d711           add.b d3, (a1)
       0x0048463c      5303           subq.b 0x1, d3
   < 0x0048463e      650a           bcs.b 0x48464a
      0x00484640      47eefeff       lea.l -0x101(a6), a3
  > 0x00484644      14db           move.b (a3)+, (a2)+
  < 0x00484646      51cbfffc       dbra d3, 0x484644
   > 0x0048464a      4242           clr.w d2
       0x0048464c      1411           move.b (a1), d2
       0x0048464e      45f12001       lea.l 0x1(a1, d2.w), a2
       0x00484652      7601           moveq 0x1, d3
       0x00484654      383c00ff       move.w 0xff, d4
       0x00484658      9842           sub.w d2, d4
       0x0048465a      b644           cmp.w d4, d3
   < 0x0048465c      6302           bls.b 0x484660
      0x0048465e      3604           move.w d4, d3
   > 0x00484660      d711           add.b d3, (a1)
       0x00484662      47faacb0       lea.l 0x47f314(pc), a3
   > 0x00484666      14db           move.b (a3)+, (a2)+
   < 0x00484668      51cbfffc       dbra d3, 0x484666
   < 0x0048466c      6048           bra.b 0x4846b6
   > 0x0048466e      226e0008       movea.l 0x8(a6), a1
       0x00484672      554f           subq.w 0x2, a7
       0x00484674      1ebc0001       move.b 0x1, (a7)
       0x00484678      1f7018000001   move.b (a0, d1.l), 0x1(a7)
       0x0048467e      4242           clr.w d2
       0x00484680      1411           move.b (a1), d2
       0x00484682      45f12001       lea.l 0x1(a1, d2.w), a2
       0x00484686      4243           clr.w d3
       0x00484688      1617           move.b (a7), d3
       0x0048468a      d602           add.b d2, d3
   < 0x0048468c      6406           bcc.b 0x484694
      0x0048468e      4eb900406c8a   jsr p_strovr
   > 0x00484694      4243           clr.w d3
       0x00484696      1617           move.b (a7), d3
       0x00484698      383c00ff       move.w 0xff, d4
       0x0048469c      9842           sub.w d2, d4
       0x0048469e      b644           cmp.w d4, d3
   < 0x004846a0      6302           bls.b 0x4846a4
      0x004846a2      3604           move.w d4, d3
   > 0x004846a4      d711           add.b d3, (a1)
       0x004846a6      5303           subq.b 0x1, d3
   < 0x004846a8      650a           bcs.b 0x4846b4
      0x004846aa      47ef0001       lea.l 0x1(a7), a3
  > 0x004846ae      14db           move.b (a3)+, (a2)+
  < 0x004846b0      51cbfffc       dbra d3, 0x4846ae
   > 0x004846b4      544f           addq.w 0x2, a7
    > 0x004846b6      5286           addq.l 0x1, d6
      < 0x004846b8      6800fe54       bvc.w 0x48450e
      > 0x004846bc      584f           addq.w 0x4, a7
           0x004846be      206e0008       movea.l 0x8(a6), a0
       > 0x004846c2      1010           move.b (a0), d0
          0x004846c4      0280000000ff   andi.l 0xff, d0
          0x004846ca      12300000       move.b (a0, d0.w), d1
          0x004846ce      0c010020       cmpi.b 0x20, d1
      < 0x004846d2      6614           bne.b 0x4846e8
         0x004846d4      0c400001       cmpi.w 0x1, d0
     < 0x004846d8      6d0e           blt.b 0x4846e8
        0x004846da      48c0           ext.l d0
        0x004846dc      2200           move.l d0, d1
        0x004846de      5381           subq.l 0x1, d1
        0x004846e0      43bc00ff       chk.w 0xff, d1
        0x004846e4      1081           move.b d1, (a0)
     < 0x004846e6      60da           bra.b 0x4846c2
     > 0x004846e8      206e0008       movea.l 0x8(a6), a0
           0x004846ec      226e0008       movea.l 0x8(a6), a1
           0x004846f0      246e0008       movea.l 0x8(a6), a2
       > 0x004846f4      102a0001       move.b 0x1(a2), d0
          0x004846f8      0c000020       cmpi.b 0x20, d0
      < 0x004846fc      664a           bne.b 0x484748
         0x004846fe      1012           move.b (a2), d0
         0x00484700      0c000001       cmpi.b 0x1, d0
     < 0x00484704      6542           bcs.b 0x484748
        0x00484706      4280           clr.l d0
        0x00484708      1012           move.b (a2), d0
        0x0048470a      2f00           move.l d0, -(a7)
        0x0048470c      7c02           moveq 0x2, d6
    > 0x0048470e      bc97           cmp.l (a7), d6
   < 0x00484710      6e22           bgt.b 0x484734
      0x00484712      2006           move.l d6, d0
      0x00484714      5380           subq.l 0x1, d0
      0x00484716      0c80000000ff   cmpi.l 0xff, d0
  < 0x0048471c      6302           bls.b 0x484720
     0x0048471e      4e4f           trap 0xf
  > 0x00484720      0c86000000ff   cmpi.l 0xff, d6
  < 0x00484726      6302           bls.b 0x48472a
     0x00484728      4e4f           trap 0xf
  > 0x0048472a      13b168000800   move.b (a1, d6.l), (a1, d0.l)
      0x00484730      5286           addq.l 0x1, d6
   < 0x00484732      68da           bvc.b 0x48470e
   > 0x00484734      584f           addq.w 0x4, a7
        0x00484736      1010           move.b (a0), d0
        0x00484738      0280000000ff   andi.l 0xff, d0
        0x0048473e      5380           subq.l 0x1, d0
        0x00484740      41bc00ff       chk.w 0xff, d0
        0x00484744      1080           move.b d0, (a0)
     < 0x00484746      60ac           bra.b 0x4846f4
     > 0x00484748      302c010c       move.w 0x10c(a4), d0
           0x0048474c      41bc1068       chk.w 0x1068, d0
           0x00484750      48c0           ext.l d0
           0x00484752      e580           asl.l 0x2, d0
           0x00484754      41f9008101fe   lea.l 0x8101fe, a0
           0x0048475a      20700800       movea.l (a0, d0.l), a0
           0x0048475e      b1e8fffc       cmpa.l -0x4(a0), a0
       < 0x00484762      6702           beq.b 0x484766
          0x00484764      4e4d           trap 0xd
       > 0x00484766      08100005       btst.b 0x5, (a0)
       < 0x0048476a      6752           beq.b 0x4847be
          0x0048476c      9efc0100       suba.w 0x100, a7
          0x00484770      4852           pea.l (a2)
          0x00484772      48780000       pea.l 0x0
          0x00484776      487800ff       pea.l 0xff
          0x0048477a      4280           clr.l d0
          0x0048477c      1012           move.b (a2), d0
          0x0048477e      2f00           move.l d0, -(a7)
          0x00484780      1f3c0001       move.b 0x1, -(a7)
          0x00484784      4ebabed6       jsr MENUCOM.my_visible_str(pc)
          0x00484788      defc0012       adda.w 0x12, a7
          0x0048478c      487aab88       pea.l 0x47f316(pc)
          0x00484790      48780005       pea.l 0x5
          0x00484794      2f17           move.l (a7), -(a7)
          0x00484796      4eb9004047ea   jsr p_wts_o
          0x0048479c      defc000c       adda.w 0xc, a7
          0x004847a0      486f0001       pea.l 0x1(a7)
          0x004847a4      42a7           clr.l -(a7)
          0x004847a6      1f6f00080003   move.b 0x8(a7), 0x3(a7)
          0x004847ac      2f17           move.l (a7), -(a7)
          0x004847ae      4eb9004047ea   jsr p_wts_o
          0x004847b4      defc010c       adda.w 0x10c, a7
          0x004847b8      4eb900404946   jsr p_wtln_o
       > 0x004847be      4cdf0fff       movem.l (a7)+, d0-d7/a0-a3
           0x004847c2      4e5e           unlk a6
           0x004847c4      4e75           rts
            ; CALL XREF from MENUCOM.box_text_find @ 0x4850de
            ; CALL XREF from MENUCOM.check_box @ 0x488484
            ; CALL XREFS from MENUCOM.check_subtable @ 0x4885f4, 0x48868a
            ; CALL XREF from MACROCNTLCOM.mac_push_box @ 0x4d168a
 316: MENUCOM.get_macro_box_t ();
           0x004847c6      4e56fdcc       link.w a6, 0xfdcc
           0x004847ca      bfd5           cmpa.l (a5), a7
       < 0x004847cc      6206           bhi.b 0x4847d4
          0x004847ce      44fc0002       move.w 0x2, ccr
          0x004847d2      4e76           trapv
       > 0x004847d4      defc0134       adda.w 0x134, a7
           0x004847d8      48e7f0f8       movem.l d0-d3/a0-a4, -(a7)
           0x004847dc      7401           moveq 0x1, d2
           0x004847de      7610           moveq 0x10, d3
           0x004847e0      302e000c       move.w 0xc(a6), d0
           0x004847e4      41bc1068       chk.w 0x1068, d0
           0x004847e8      48c0           ext.l d0
           0x004847ea      e580           asl.l 0x2, d0
           0x004847ec      41f9008101fe   lea.l 0x8101fe, a0
           0x004847f2      22700800       movea.l (a0, d0.l), a1
           0x004847f6      b3e9fffc       cmpa.l -0x4(a1), a1
       < 0x004847fa      6702           beq.b 0x4847fe
          0x004847fc      4e4d           trap 0xd
       > 0x004847fe      08110005       btst.b 0x5, (a1)
       < 0x00484802      6720           beq.b 0x484824
          0x00484804      9efc0100       suba.w 0x100, a7
          0x00484808      224f           movea.l a7, a1
          0x0048480a      45faab0f       lea.l 0x47f31b(pc), a2
          0x0048480e      7212           moveq 0x12, d1
      > 0x00484810      12da           move.b (a2)+, (a1)+
      < 0x00484812      51c9fffc       dbra d1, 0x484810
          0x00484816      3f2e000c       move.w 0xc(a6), -(a7)
          0x0048481a      1f02           move.b d2, -(a7)
          0x0048481c      4ebac0b4       jsr MENUCOM.show_box(pc)
          0x00484820      defc0104       adda.w 0x104, a7
       > 0x00484824      20700800       movea.l (a0, d0.l), a0
           0x00484828      b1e8fffc       cmpa.l -0x4(a0), a0
       < 0x0048482c      6702           beq.b 0x484830
          0x0048482e      4e4d           trap 0xd
       > 0x00484830      2268003a       movea.l 0x3a(a0), a1
           0x00484834      b2c2           cmpa.w d2, a1
       < 0x00484836      670e           beq.b 0x484846
          0x00484838      b3e9fffc       cmpa.l -0x4(a1), a1
      < 0x0048483c      6702           beq.b 0x484840
         0x0048483e      4e4d           trap 0xd
      > 0x00484840      4851           pea.l (a1)
      < 0x00484842      6000008e       bra.w 0x4848d2
      > 0x00484846      22680042       movea.l 0x42(a0), a1
          0x0048484a      b3e9fffc       cmpa.l -0x4(a1), a1
      < 0x0048484e      6702           beq.b 0x484852
         0x00484850      4e4d           trap 0xd
      > 0x00484852      4851           pea.l (a1)
          0x00484854      48780000       pea.l 0x0
          0x00484858      48780040       pea.l 0x40
          0x0048485c      486eff00       pea.l -0x100(a6)
          0x00484860      49eeff00       lea.l -0x100(a6), a4
          0x00484864      4ebafc58       jsr MENUCOM.get_text(pc)
          0x00484868      dec3           adda.w d3, a7
          0x0048486a      4240           clr.w d0
          0x0048486c      102eff00       move.b -0x100(a6), d0
      < 0x00484870      6302           bls.b 0x484874
         0x00484872      7000           moveq 0x0, d0
      > 0x00484874      5300           subq.b 0x1, d0
      < 0x00484876      6510           bcs.b 0x484888
         0x00484878      43eeff01       lea.l -0xff(a6), a1
         0x0048487c      45faaab1       lea.l 0x47f32f(pc), a2
     > 0x00484880      b30a           cmpm.b (a2)+, (a1)+
     < 0x00484882      56c8fffc       dbne d0, 0x484880
     < 0x00484886      6604           bne.b 0x48488c
     > 0x00484888      102eff00       move.b -0x100(a6), d0
     < 0x0048488c      665a           bne.b 0x4848e8
         0x0048488e      302e000c       move.w 0xc(a6), d0
         0x00484892      41bc1068       chk.w 0x1068, d0
         0x00484896      48c0           ext.l d0
         0x00484898      e580           asl.l 0x2, d0
         0x0048489a      43f9008101fe   lea.l 0x8101fe, a1
         0x004848a0      22710800       movea.l (a1, d0.l), a1
         0x004848a4      b3e9fffc       cmpa.l -0x4(a1), a1
     < 0x004848a8      6702           beq.b 0x4848ac
        0x004848aa      4e4d           trap 0xd
     > 0x004848ac      24690036       movea.l 0x36(a1), a2
         0x004848b0      b4c2           cmpa.w d2, a2
     < 0x004848b2      6734           beq.b 0x4848e8
        0x004848b4      10290004       move.b 0x4(a1), d0
        0x004848b8      4880           ext.w d0
        0x004848ba      47faaa74       lea.l 0x47f330(pc), a3
        0x004848be      3200           move.w d0, d1
        0x004848c0      e649           lsr.w 0x3, d1
        0x004848c2      01331000       btst.l d0, (a3, d1.w)
    < 0x004848c6      6620           bne.b 0x4848e8
       0x004848c8      b5eafffc       cmpa.l -0x4(a2), a2
   < 0x004848cc      6702           beq.b 0x4848d0
      0x004848ce      4e4d           trap 0xd
   > 0x004848d0      4852           pea.l (a2)
    > 0x004848d2      48780000       pea.l 0x0
        0x004848d6      48780040       pea.l 0x40
        0x004848da      486eff00       pea.l -0x100(a6)
        0x004848de      49eeff00       lea.l -0x100(a6), a4
        0x004848e2      4ebafbda       jsr MENUCOM.get_text(pc)
        0x004848e6      dec3           adda.w d3, a7
    > 0x004848e8      206e0008       movea.l 0x8(a6), a0
           0x004848ec      43eeff00       lea.l -0x100(a6), a1
           0x004848f0      303c00ff       move.w 0xff, d0
       > 0x004848f4      10d9           move.b (a1)+, (a0)+
       < 0x004848f6      51c8fffc       dbra d0, 0x4848f4
           0x004848fa      4cdf1f0f       movem.l (a7)+, d0-d3/a0-a4
           0x004848fe      4e5e           unlk a6
           0x00484900      4e75           rts
 624: MENUCOM.get_match_str ();
           ; var int32_t var_569eh @ a6-0x569e
           ; var int32_t var_5699h @ a6-0x5699
           0x00484902      4e56fe9a       link.w a6, 0xfe9a
           0x00484906      bfd5           cmpa.l (a5), a7
       < 0x00484908      6206           bhi.b 0x484910
          0x0048490a      44fc0002       move.w 0x2, ccr
          0x0048490e      4e76           trapv
       > 0x00484910      defc0058       adda.w 0x58, a7
           0x00484914      48e7fff8       movem.l d0-d7/a0-a4, -(a7)
           0x00484918      2a3c000000ff   move.l 0xff, d5
           0x0048491e      7e01           moveq 0x1, d7
           0x00484920      206e000c       movea.l 0xc(a6), a0
           0x00484924      10baaa0e       move.b 0x47f334(pc), (a0)
           0x00484928      206e000c       movea.l 0xc(a6), a0
           0x0048492c      226e0008       movea.l 0x8(a6), a1
       > 0x00484930      be91           cmp.l (a1), d7
      < 0x00484932      6e00022c       bgt.w 0x484b60
         0x00484936      be85           cmp.l d5, d7
     < 0x00484938      6302           bls.b 0x48493c
        0x0048493a      4e4f           trap 0xf
     > 0x0048493c      45eefef2       lea.l -0x10e(a6), a2
         0x00484940      45f27800       lea.l (a2, d7.l), a2
         0x00484944      102a011e       move.b 0x11e(a2), d0
         0x00484948      0c000024       cmpi.b 0x24, d0
     < 0x0048494c      6746           beq.b 0x484994
        0x0048494e      554f           subq.w 0x2, a7
        0x00484950      1ebc0001       move.b 0x1, (a7)
        0x00484954      1f400001       move.b d0, 0x1(a7)
        0x00484958      4241           clr.w d1
        0x0048495a      1210           move.b (a0), d1
        0x0048495c      45f01001       lea.l 0x1(a0, d1.w), a2
        0x00484960      4242           clr.w d2
        0x00484962      1417           move.b (a7), d2
        0x00484964      d401           add.b d1, d2
    < 0x00484966      6406           bcc.b 0x48496e
       0x00484968      4eb900406c8a   jsr p_strovr
    > 0x0048496e      4242           clr.w d2
        0x00484970      1417           move.b (a7), d2
        0x00484972      3605           move.w d5, d3
        0x00484974      9641           sub.w d1, d3
        0x00484976      b443           cmp.w d3, d2
    < 0x00484978      6302           bls.b 0x48497c
       0x0048497a      3403           move.w d3, d2
    > 0x0048497c      d510           add.b d2, (a0)
        0x0048497e      5302           subq.b 0x1, d2
    < 0x00484980      650a           bcs.b 0x48498c
       0x00484982      47ef0001       lea.l 0x1(a7), a3
   > 0x00484986      14db           move.b (a3)+, (a2)+
   < 0x00484988      51cafffc       dbra d2, 0x484986
    > 0x0048498c      544f           addq.w 0x2, a7
        0x0048498e      5287           addq.l 0x1, d7
    < 0x00484990      600001ca       bra.w 0x484b5c
    > 0x00484994      5287           addq.l 0x1, d7
        0x00484996      be85           cmp.l d5, d7
    < 0x00484998      6302           bls.b 0x48499c
       0x0048499a      4e4f           trap 0xf
    > 0x0048499c      45eefef2       lea.l -0x10e(a6), a2
        0x004849a0      45f27800       lea.l (a2, d7.l), a2
        0x004849a4      102a011e       move.b 0x11e(a2), d0
        0x004849a8      0c000024       cmpi.b 0x24, d0
    < 0x004849ac      660001ae       bne.w 0x484b5c
       0x004849b0      5287           addq.l 0x1, d7
       0x004849b2      be85           cmp.l d5, d7
   < 0x004849b4      6302           bls.b 0x4849b8
      0x004849b6      4e4f           trap 0xf
   > 0x004849b8      45eefef2       lea.l -0x10e(a6), a2
       0x004849bc      45f27800       lea.l (a2, d7.l), a2
       0x004849c0      102a011e       move.b 0x11e(a2), d0
       0x004849c4      0c000024       cmpi.b 0x24, d0
   < 0x004849c8      67000192       beq.w 0x484b5c
      0x004849cc      1d7aa967feff   move.b 0x47f335(pc), -0x101(a6)
      0x004849d2      1d7aa962ff00   move.b 0x47f336(pc), -0x100(a6)
      0x004849d8      554f           subq.w 0x2, a7
      0x004849da      1ebc0001       move.b 0x1, (a7)
      0x004849de      1f400001       move.b d0, 0x1(a7)
      0x004849e2      4241           clr.w d1
      0x004849e4      122efeff       move.b -0x101(a6), d1
      0x004849e8      45eeff00       lea.l -0x100(a6), a2
      0x004849ec      d4c1           adda.w d1, a2
      0x004849ee      4242           clr.w d2
      0x004849f0      1417           move.b (a7), d2
      0x004849f2      d401           add.b d1, d2
  < 0x004849f4      6406           bcc.b 0x4849fc
     0x004849f6      4eb900406c8a   jsr p_strovr
  > 0x004849fc      4242           clr.w d2
      0x004849fe      1417           move.b (a7), d2
      0x00484a00      3605           move.w d5, d3
      0x00484a02      9641           sub.w d1, d3
      0x00484a04      b443           cmp.w d3, d2
  < 0x00484a06      6302           bls.b 0x484a0a
     0x00484a08      3403           move.w d3, d2
  > 0x00484a0a      d52efeff       add.b d2, -0x101(a6)
      0x00484a0e      5302           subq.b 0x1, d2
  < 0x00484a10      650a           bcs.b 0x484a1c
     0x00484a12      47ef0001       lea.l 0x1(a7), a3
 > 0x00484a16      14db           move.b (a3)+, (a2)+
 < 0x00484a18      51cafffc       dbra d2, 0x484a16
  > 0x00484a1c      544f           addq.w 0x2, a7
      0x00484a1e      5287           addq.l 0x1, d7
      0x00484a20      be85           cmp.l d5, d7
  < 0x00484a22      6302           bls.b 0x484a26
     0x00484a24      4e4f           trap 0xf
  > 0x00484a26      45eefef2       lea.l -0x10e(a6), a2
      0x00484a2a      45f27800       lea.l (a2, d7.l), a2
      0x00484a2e      122a011e       move.b 0x11e(a2), d1
      0x00484a32      0c010024       cmpi.b 0x24, d1
  < 0x00484a36      6748           beq.b 0x484a80
     0x00484a38      554f           subq.w 0x2, a7
     0x00484a3a      1ebc0001       move.b 0x1, (a7)
     0x00484a3e      1f410001       move.b d1, 0x1(a7)
     0x00484a42      4242           clr.w d2
     0x00484a44      142efeff       move.b -0x101(a6), d2
     0x00484a48      45eeff00       lea.l -0x100(a6), a2
     0x00484a4c      d4c2           adda.w d2, a2
     0x00484a4e      4243           clr.w d3
     0x00484a50      1617           move.b (a7), d3
     0x00484a52      d602           add.b d2, d3
 < 0x00484a54      6406           bcc.b 0x484a5c
    0x00484a56      4eb900406c8a   jsr p_strovr
 > 0x00484a5c      4243           clr.w d3
     0x00484a5e      1617           move.b (a7), d3
     0x00484a60      3805           move.w d5, d4
     0x00484a62      9842           sub.w d2, d4
     0x00484a64      b644           cmp.w d4, d3
 < 0x00484a66      6302           bls.b 0x484a6a
    0x00484a68      3604           move.w d4, d3
 > 0x00484a6a      d72efeff       add.b d3, -0x101(a6)
     0x00484a6e      5303           subq.b 0x1, d3
 < 0x00484a70      650a           bcs.b 0x484a7c
    0x00484a72      47ef0001       lea.l 0x1(a7), a3
 > 0x00484a76      14db           move.b (a3)+, (a2)+
 < 0x00484a78      51cbfffc       dbra d3, 0x484a76
 > 0x00484a7c      544f           addq.w 0x2, a7
     0x00484a7e      5287           addq.l 0x1, d7
  > 0x00484a80      be85           cmp.l d5, d7
  < 0x00484a82      6302           bls.b 0x484a86
     0x00484a84      4e4f           trap 0xf
  > 0x00484a86      45eefef2       lea.l -0x10e(a6), a2
      0x00484a8a      45f27800       lea.l (a2, d7.l), a2
      0x00484a8e      122a011e       move.b 0x11e(a2), d1
      0x00484a92      0c010024       cmpi.b 0x24, d1
  < 0x00484a96      671a           beq.b 0x484ab2
     0x00484a98      487aa89e       pea.l 0x47f338(pc)
     0x00484a9c      48780019       pea.l 0x19
     0x00484aa0      2f17           move.l (a7), -(a7)
     0x00484aa2      4eb9004047ea   jsr p_wts_o
     0x00484aa8      defc000c       adda.w 0xc, a7
     0x00484aac      4eb900404946   jsr p_wtln_o
  > 0x00484ab2      5287           addq.l 0x1, d7
      0x00484ab4      486efeff       pea.l -0x101(a6)
      0x00484ab8      486efef2       pea.l -0x10e(a6)
      0x00484abc      486efefa       pea.l -0x106(a6)
      0x00484ac0      4eb900406ffe   jsr p_vali
      0x00484ac6      defc000c       adda.w 0xc, a7
      0x00484aca      4aaefefa       tst.l -0x106(a6)
  < 0x00484ace      673c           beq.b 0x484b0c
     0x00484ad0      487aa880       pea.l 0x47f352(pc)
     0x00484ad4      48780006       pea.l 0x6
     0x00484ad8      2f17           move.l (a7), -(a7)
     0x00484ada      4eb9004047ea   jsr p_wts_o
     0x00484ae0      504f           addq.w 0x8, a7
     0x00484ae2      2eaefefa       move.l -0x106(a6), (a7)
     0x00484ae6      48780000       pea.l 0x0
     0x00484aea      4eb9004070e4   jsr p_wti_o
     0x00484af0      504f           addq.w 0x8, a7
     0x00484af2      487aa865       pea.l 0x47f359(pc)
     0x00484af6      48780013       pea.l 0x13
     0x00484afa      2f17           move.l (a7), -(a7)
     0x00484afc      4eb9004047ea   jsr p_wts_o
     0x00484b02      defc000c       adda.w 0xc, a7
     0x00484b06      4eb900404946   jsr p_wtln_o
  > 0x00484b0c      222efef2       move.l -0x10e(a6), d1
      0x00484b10      b285           cmp.l d5, d1
  < 0x00484b12      6302           bls.b 0x484b16
     0x00484b14      4e4f           trap 0xf
  > 0x00484b16      1c01           move.b d1, d6
      0x00484b18      246e000c       movea.l 0xc(a6), a2
      0x00484b1c      554f           subq.w 0x2, a7
      0x00484b1e      1ebc0001       move.b 0x1, (a7)
      0x00484b22      1f460001       move.b d6, 0x1(a7)
      0x00484b26      4241           clr.w d1
      0x00484b28      1212           move.b (a2), d1
      0x00484b2a      47f21001       lea.l 0x1(a2, d1.w), a3
      0x00484b2e      4242           clr.w d2
      0x00484b30      1417           move.b (a7), d2
      0x00484b32      d401           add.b d1, d2
  < 0x00484b34      6406           bcc.b 0x484b3c
     0x00484b36      4eb900406c8a   jsr p_strovr
  > 0x00484b3c      4242           clr.w d2
      0x00484b3e      1417           move.b (a7), d2
      0x00484b40      3605           move.w d5, d3
      0x00484b42      9641           sub.w d1, d3
      0x00484b44      b443           cmp.w d3, d2
  < 0x00484b46      6302           bls.b 0x484b4a
     0x00484b48      3403           move.w d3, d2
  > 0x00484b4a      d512           add.b d2, (a2)
      0x00484b4c      5302           subq.b 0x1, d2
  < 0x00484b4e      650a           bcs.b 0x484b5a
     0x00484b50      49ef0001       lea.l 0x1(a7), a4
 > 0x00484b54      16dc           move.b (a4)+, (a3)+
 < 0x00484b56      51cafffc       dbra d2, 0x484b54
  > 0x00484b5a      544f           addq.w 0x2, a7
   < 0x00484b5c      6000fdd2       bra.w 0x484930
      > 0x00484b60      206e000c       movea.l 0xc(a6), a0
           0x00484b64      1010           move.b (a0), d0
           0x00484b66      c085           and.l d5, d0
           0x00484b68      2280           move.l d0, (a1)
           0x00484b6a      4cdf1fff       movem.l (a7)+, d0-d7/a0-a4
           0x00484b6e      4e5e           unlk a6
           0x00484b70      4e75           rts
 1036: MENUCOM.compare ();
           ; var int32_t var_8h @ a7+0x8
           ; var int32_t var_108h @ a7+0x108
           0x00484b72      4e56fd96       link.w a6, 0xfd96
           0x00484b76      bfd5           cmpa.l (a5), a7
       < 0x00484b78      6206           bhi.b 0x484b80
          0x00484b7a      44fc0002       move.w 0x2, ccr
          0x00484b7e      4e76           trapv
       > 0x00484b80      defc025a       adda.w 0x25a, a7
           0x00484b84      48e7fff8       movem.l d0-d7/a0-a4, -(a7)
           0x00484b88      49eefff0       lea.l -0x10(a6), a4
           0x00484b8c      283c000000ff   move.l 0xff, d4
           0x00484b92      7000           moveq 0x0, d0
           0x00484b94      4281           clr.l d1
           0x00484b96      322e0016       move.w 0x16(a6), d1
           0x00484b9a      b081           cmp.l d1, d0
       < 0x00484b9c      620a           bhi.b 0x484ba8
          0x00484b9e      4282           clr.l d2
          0x00484ba0      342e0018       move.w 0x18(a6), d2
          0x00484ba4      9082           sub.l d2, d0
      < 0x00484ba6      6402           bcc.b 0x484baa
      > 0x00484ba8      4e4f           trap 0xf
      > 0x00484baa      206e001a       movea.l 0x1a(a6), a0
           0x00484bae      4283           clr.l d3
           0x00484bb0      16300800       move.b (a0, d0.l), d3
           0x00484bb4      2d43fff6       move.l d3, -0xa(a6)
           0x00484bb8      4214           clr.b (a4)
           0x00484bba      226e0008       movea.l 0x8(a6), a1
           0x00484bbe      12bc0001       move.b 0x1, (a1)
           0x00484bc2      302e0014       move.w 0x14(a6), d0
           0x00484bc6      41bc1068       chk.w 0x1068, d0
           0x00484bca      48c0           ext.l d0
           0x00484bcc      e580           asl.l 0x2, d0
           0x00484bce      43f9008101fe   lea.l 0x8101fe, a1
           0x00484bd4      22710800       movea.l (a1, d0.l), a1
           0x00484bd8      b3e9fffc       cmpa.l -0x4(a1), a1
       < 0x00484bdc      6702           beq.b 0x484be0
          0x00484bde      4e4d           trap 0xd
       > 0x00484be0      08110005       btst.b 0x5, (a1)
       < 0x00484be4      67000096       beq.w 0x484c7c
          0x00484be8      9efc0100       suba.w 0x100, a7
          0x00484bec      226e0010       movea.l 0x10(a6), a1
          0x00484bf0      4851           pea.l (a1)
          0x00484bf2      48780000       pea.l 0x0
          0x00484bf6      487800ff       pea.l 0xff
          0x00484bfa      2f2e000c       move.l 0xc(a6), -(a7)
          0x00484bfe      1f3c0001       move.b 0x1, -(a7)
          0x00484c02      4ebaba58       jsr MENUCOM.my_visible_str(pc)
          0x00484c06      9efc00ee       suba.w 0xee, a7
          0x00484c0a      4850           pea.l (a0)
          0x00484c0c      2f02           move.l d2, -(a7)
          0x00484c0e      2f01           move.l d1, -(a7)
          0x00484c10      2f03           move.l d3, -(a7)
          0x00484c12      1f3c0001       move.b 0x1, -(a7)
          0x00484c16      4ebaba44       jsr MENUCOM.my_visible_str(pc)
          0x00484c1a      defc0012       adda.w 0x12, a7
          0x00484c1e      487aa74d       pea.l 0x47f36d(pc)
          0x00484c22      4878000a       pea.l 0xa
          0x00484c26      2f17           move.l (a7), -(a7)
          0x00484c28      4eb9004047ea   jsr p_wts_o
          0x00484c2e      defc000c       adda.w 0xc, a7
          0x00484c32      486f0101       pea.l 0x101(a7)
          0x00484c36      42a7           clr.l -(a7)
          0x00484c38      1f6f01080003   move.b 0x108(a7), 0x3(a7)
          0x00484c3e      2f17           move.l (a7), -(a7)
          0x00484c40      4eb9004047ea   jsr p_wts_o
          0x00484c46      defc000c       adda.w 0xc, a7
          0x00484c4a      487aa72c       pea.l 0x47f378(pc)
          0x00484c4e      4878000a       pea.l 0xa
          0x00484c52      2f17           move.l (a7), -(a7)
          0x00484c54      4eb9004047ea   jsr p_wts_o
          0x00484c5a      defc000c       adda.w 0xc, a7
          0x00484c5e      486f0001       pea.l 0x1(a7)
          0x00484c62      42a7           clr.l -(a7)
          0x00484c64      1f6f00080003   move.b 0x8(a7), 0x3(a7)
          0x00484c6a      2f17           move.l (a7), -(a7)
          0x00484c6c      4eb9004047ea   jsr p_wts_o
          0x00484c72      defc020c       adda.w 0x20c, a7
          0x00484c76      4eb900404946   jsr p_wtln_o
       > 0x00484c7c      b6ae000c       cmp.l 0xc(a6), d3
       < 0x00484c80      6d0002f0       blt.w 0x484f72
          0x00484c84      42aefff2       clr.l -0xe(a6)
          0x00484c88      7e00           moveq 0x0, d7
          0x00484c8a      206e001a       movea.l 0x1a(a6), a0
      > 0x00484c8e      2007           move.l d7, d0
         0x00484c90      5280           addq.l 0x1, d0
         0x00484c92      2200           move.l d0, d1
         0x00484c94      4282           clr.l d2
         0x00484c96      342e0016       move.w 0x16(a6), d2
         0x00484c9a      b282           cmp.l d2, d1
     < 0x00484c9c      620a           bhi.b 0x484ca8
        0x00484c9e      4282           clr.l d2
        0x00484ca0      342e0018       move.w 0x18(a6), d2
        0x00484ca4      9282           sub.l d2, d1
    < 0x00484ca6      6402           bcc.b 0x484caa
    > 0x00484ca8      4e4f           trap 0xf
    > 0x00484caa      4282           clr.l d2
         0x00484cac      14301800       move.b (a0, d1.l), d2
         0x00484cb0      43faa6d0       lea.l 0x47f382(pc), a1
         0x00484cb4      3202           move.w d2, d1
         0x00484cb6      e649           lsr.w 0x3, d1
         0x00484cb8      05311000       btst.l d2, (a1, d1.w)
     < 0x00484cbc      670a           beq.b 0x484cc8
        0x00484cbe      beaefff6       cmp.l -0xa(a6), d7
    < 0x00484cc2      6c04           bge.b 0x484cc8
       0x00484cc4      2e00           move.l d0, d7
    < 0x00484cc6      60c6           bra.b 0x484c8e
    > 0x00484cc8      18bc0001       move.b 0x1, (a4)
          0x00484ccc      206e0010       movea.l 0x10(a6), a0
          0x00484cd0      226e001a       movea.l 0x1a(a6), a1
          0x00484cd4      246e0008       movea.l 0x8(a6), a2
      > 0x00484cd8      202efff2       move.l -0xe(a6), d0
         0x00484cdc      b0ae000c       cmp.l 0xc(a6), d0
     < 0x00484ce0      6c0001b6       bge.w 0x484e98
        0x00484ce4      beaefff6       cmp.l -0xa(a6), d7
    < 0x00484ce8      6c0001ae       bge.w 0x484e98
       0x00484cec      4a14           tst.b (a4)
   < 0x00484cee      670001a8       beq.w 0x484e98
      0x00484cf2      2d40fff2       move.l d0, -0xe(a6)
      0x00484cf6      52aefff2       addq.l 0x1, -0xe(a6)
  > 0x00484cfa      5287           addq.l 0x1, d7
     0x00484cfc      2207           move.l d7, d1
     0x00484cfe      4282           clr.l d2
     0x00484d00      342e0016       move.w 0x16(a6), d2
     0x00484d04      b282           cmp.l d2, d1
 < 0x00484d06      620a           bhi.b 0x484d12
    0x00484d08      4282           clr.l d2
    0x00484d0a      342e0018       move.w 0x18(a6), d2
    0x00484d0e      9282           sub.l d2, d1
 < 0x00484d10      6402           bcc.b 0x484d14
 > 0x00484d12      4e4f           trap 0xf
 > 0x00484d14      4282           clr.l d2
     0x00484d16      14311800       move.b (a1, d1.l), d2
     0x00484d1a      47faa686       lea.l 0x47f3a2(pc), a3
     0x00484d1e      3202           move.w d2, d1
     0x00484d20      e649           lsr.w 0x3, d1
     0x00484d22      05331000       btst.l d2, (a3, d1.w)
 < 0x00484d26      6708           beq.b 0x484d30
    0x00484d28      beaefff6       cmp.l -0xa(a6), d7
 < 0x00484d2c      6c02           bge.b 0x484d30
 < 0x00484d2e      60ca           bra.b 0x484cfa
 > 0x00484d30      0c020020       cmpi.b 0x20, d2
  < 0x00484d34      6702           beq.b 0x484d38
     0x00484d36      4212           clr.b (a2)
  > 0x00484d38      2207           move.l d7, d1
      0x00484d3a      4282           clr.l d2
      0x00484d3c      342e0016       move.w 0x16(a6), d2
      0x00484d40      b282           cmp.l d2, d1
  < 0x00484d42      620a           bhi.b 0x484d4e
     0x00484d44      4282           clr.l d2
     0x00484d46      342e0018       move.w 0x18(a6), d2
     0x00484d4a      9282           sub.l d2, d1
 < 0x00484d4c      6402           bcc.b 0x484d50
 > 0x00484d4e      4e4f           trap 0xf
 > 0x00484d50      1c311800       move.b (a1, d1.l), d6
      0x00484d54      cc84           and.l d4, d6
      0x00484d56      47faa66a       lea.l 0x47f3c2(pc), a3
      0x00484d5a      3206           move.w d6, d1
      0x00484d5c      e649           lsr.w 0x3, d1
      0x00484d5e      0d331000       btst.l d6, (a3, d1.w)
  < 0x00484d62      670e           beq.b 0x484d72
     0x00484d64      3206           move.w d6, d1
     0x00484d66      04410061       subi.w 0x61, d1
     0x00484d6a      06410041       addi.w 0x41, d1
     0x00484d6e      4384           chk.w d4, d1
     0x00484d70      1c01           move.b d1, d6
  > 0x00484d72      222efff2       move.l -0xe(a6), d1
      0x00484d76      b284           cmp.l d4, d1
  < 0x00484d78      6302           bls.b 0x484d7c
     0x00484d7a      4e4f           trap 0xf
  > 0x00484d7c      1a301800       move.b (a0, d1.l), d5
      0x00484d80      ca84           and.l d4, d5
      0x00484d82      47faa65e       lea.l 0x47f3e2(pc), a3
      0x00484d86      3205           move.w d5, d1
      0x00484d88      e649           lsr.w 0x3, d1
      0x00484d8a      0b331000       btst.l d5, (a3, d1.w)
  < 0x00484d8e      670e           beq.b 0x484d9e
     0x00484d90      3205           move.w d5, d1
     0x00484d92      04410061       subi.w 0x61, d1
     0x00484d96      06410041       addi.w 0x41, d1
     0x00484d9a      4384           chk.w d4, d1
     0x00484d9c      1a01           move.b d1, d5
  > 0x00484d9e      322e0014       move.w 0x14(a6), d1
      0x00484da2      43bc1068       chk.w 0x1068, d1
      0x00484da6      48c1           ext.l d1
      0x00484da8      e581           asl.l 0x2, d1
      0x00484daa      47f9008101fe   lea.l 0x8101fe, a3
      0x00484db0      26731800       movea.l (a3, d1.l), a3
      0x00484db4      b7ebfffc       cmpa.l -0x4(a3), a3
  < 0x00484db8      6702           beq.b 0x484dbc
     0x00484dba      4e4d           trap 0xd
  > 0x00484dbc      08130005       btst.b 0x5, (a3)
  < 0x00484dc0      670000ca       beq.w 0x484e8c
     0x00484dc4      487aa63d       pea.l 0x47f403(pc)
     0x00484dc8      4878000f       pea.l 0xf
     0x00484dcc      2f17           move.l (a7), -(a7)
     0x00484dce      4eb9004047ea   jsr p_wts_o
     0x00484dd4      504f           addq.w 0x8, a7
     0x00484dd6      2eaefff2       move.l -0xe(a6), (a7)
     0x00484dda      48780000       pea.l 0x0
     0x00484dde      4eb9004070e4   jsr p_wti_o
     0x00484de4      504f           addq.w 0x8, a7
     0x00484de6      487aa62b       pea.l 0x47f413(pc)
     0x00484dea      48780002       pea.l 0x2
     0x00484dee      2f17           move.l (a7), -(a7)
     0x00484df0      4eb9004047ea   jsr p_wts_o
     0x00484df6      defc000c       adda.w 0xc, a7
     0x00484dfa      0c050020       cmpi.b 0x20, d5
 < 0x00484dfe      6506           bcs.b 0x484e06
    0x00484e00      0c05007f       cmpi.b 0x7f, d5
 < 0x00484e04      6512           bcs.b 0x484e18
 > 0x00484e06      ca84           and.l d4, d5
     0x00484e08      2f05           move.l d5, -(a7)
     0x00484e0a      4878ffff       pea.l 0xffff
     0x00484e0e      4eb9004070e4   jsr p_wti_o
     0x00484e14      504f           addq.w 0x8, a7
 < 0x00484e16      600e           bra.b 0x484e26
 > 0x00484e18      1f05           move.b d5, -(a7)
    0x00484e1a      48780001       pea.l 0x1
    0x00484e1e      4eb9004048b4   jsr p_wtc_o
    0x00484e24      5c4f           addq.w 0x6, a7
 > 0x00484e26      487aa5ee       pea.l 0x47f416(pc)
     0x00484e2a      48780007       pea.l 0x7
     0x00484e2e      2f17           move.l (a7), -(a7)
     0x00484e30      4eb9004047ea   jsr p_wts_o
     0x00484e36      504f           addq.w 0x8, a7
     0x00484e38      2e87           move.l d7, (a7)
     0x00484e3a      48780000       pea.l 0x0
     0x00484e3e      4eb9004070e4   jsr p_wti_o
     0x00484e44      504f           addq.w 0x8, a7
     0x00484e46      487aa5d6       pea.l 0x47f41e(pc)
     0x00484e4a      48780002       pea.l 0x2
     0x00484e4e      2f17           move.l (a7), -(a7)
     0x00484e50      4eb9004047ea   jsr p_wts_o
     0x00484e56      defc000c       adda.w 0xc, a7
     0x00484e5a      0c060020       cmpi.b 0x20, d6
 < 0x00484e5e      6506           bcs.b 0x484e66
    0x00484e60      0c06007f       cmpi.b 0x7f, d6
 < 0x00484e64      6512           bcs.b 0x484e78
 > 0x00484e66      cc84           and.l d4, d6
     0x00484e68      2f06           move.l d6, -(a7)
     0x00484e6a      4878ffff       pea.l 0xffff
     0x00484e6e      4eb9004070e4   jsr p_wti_o
     0x00484e74      504f           addq.w 0x8, a7
 < 0x00484e76      600e           bra.b 0x484e86
 > 0x00484e78      1f06           move.b d6, -(a7)
    0x00484e7a      48780001       pea.l 0x1
    0x00484e7e      4eb9004048b4   jsr p_wtc_o
    0x00484e84      5c4f           addq.w 0x6, a7
 > 0x00484e86      4eb900404946   jsr p_wtln_o
  > 0x00484e8c      4214           clr.b (a4)
      0x00484e8e      bc05           cmp.b d5, d6
  < 0x00484e90      6602           bne.b 0x484e94
     0x00484e92      5214           addq.b 0x1, (a4)
  < 0x00484e94      6000fe42       bra.w 0x484cd8
   > 0x00484e98      322e0014       move.w 0x14(a6), d1
          0x00484e9c      43bc1068       chk.w 0x1068, d1
          0x00484ea0      48c1           ext.l d1
          0x00484ea2      e581           asl.l 0x2, d1
          0x00484ea4      41f9008101fe   lea.l 0x8101fe, a0
          0x00484eaa      20701800       movea.l (a0, d1.l), a0
          0x00484eae      b1e8fffc       cmpa.l -0x4(a0), a0
      < 0x00484eb2      6702           beq.b 0x484eb6
         0x00484eb4      4e4d           trap 0xd
      > 0x00484eb6      08100005       btst.b 0x5, (a0)
      < 0x00484eba      6768           beq.b 0x484f24
         0x00484ebc      487aa563       pea.l 0x47f421(pc)
         0x00484ec0      48780014       pea.l 0x14
         0x00484ec4      2f17           move.l (a7), -(a7)
         0x00484ec6      4eb9004047ea   jsr p_wts_o
         0x00484ecc      504f           addq.w 0x8, a7
         0x00484ece      2e87           move.l d7, (a7)
         0x00484ed0      48780000       pea.l 0x0
         0x00484ed4      4eb9004070e4   jsr p_wti_o
         0x00484eda      504f           addq.w 0x8, a7
         0x00484edc      487aa558       pea.l 0x47f436(pc)
         0x00484ee0      4878000c       pea.l 0xc
         0x00484ee4      2f17           move.l (a7), -(a7)
         0x00484ee6      4eb9004047ea   jsr p_wts_o
         0x00484eec      504f           addq.w 0x8, a7
         0x00484eee      2e80           move.l d0, (a7)
         0x00484ef0      48780000       pea.l 0x0
         0x00484ef4      4eb9004070e4   jsr p_wti_o
         0x00484efa      504f           addq.w 0x8, a7
         0x00484efc      487aa545       pea.l 0x47f443(pc)
         0x00484f00      48780008       pea.l 0x8
         0x00484f04      2f17           move.l (a7), -(a7)
         0x00484f06      4eb9004047ea   jsr p_wts_o
         0x00484f0c      defc000a       adda.w 0xa, a7
         0x00484f10      1e94           move.b (a4), (a7)
         0x00484f12      48780005       pea.l 0x5
         0x00484f16      4eb90040718c   jsr p_wtb_o
         0x00484f1c      5c4f           addq.w 0x6, a7
         0x00484f1e      4eb900404946   jsr p_wtln_o
      > 0x00484f24      202efff2       move.l -0xe(a6), d0
          0x00484f28      b0ae000c       cmp.l 0xc(a6), d0
      < 0x00484f2c      6c02           bge.b 0x484f30
         0x00484f2e      4214           clr.b (a4)
      > 0x00484f30      206e001a       movea.l 0x1a(a6), a0
      > 0x00484f34      beaefff6       cmp.l -0xa(a6), d7
     < 0x00484f38      6c38           bge.b 0x484f72
        0x00484f3a      4a14           tst.b (a4)
    < 0x00484f3c      6734           beq.b 0x484f72
       0x00484f3e      5287           addq.l 0x1, d7
       0x00484f40      4214           clr.b (a4)
       0x00484f42      2007           move.l d7, d0
       0x00484f44      4281           clr.l d1
       0x00484f46      322e0016       move.w 0x16(a6), d1
       0x00484f4a      b081           cmp.l d1, d0
   < 0x00484f4c      620a           bhi.b 0x484f58
      0x00484f4e      4281           clr.l d1
      0x00484f50      322e0018       move.w 0x18(a6), d1
      0x00484f54      9081           sub.l d1, d0
  < 0x00484f56      6402           bcc.b 0x484f5a
  > 0x00484f58      4e4f           trap 0xf
  > 0x00484f5a      4281           clr.l d1
       0x00484f5c      12300800       move.b (a0, d0.l), d1
       0x00484f60      43faa4ea       lea.l 0x47f44c(pc), a1
       0x00484f64      3001           move.w d1, d0
       0x00484f66      e648           lsr.w 0x3, d0
       0x00484f68      03310000       btst.l d1, (a1, d0.w)
   < 0x00484f6c      6702           beq.b 0x484f70
      0x00484f6e      5214           addq.b 0x1, (a4)
   < 0x00484f70      60c2           bra.b 0x484f34
    > 0x00484f72      1d54001e       move.b (a4), 0x1e(a6)
           0x00484f76      4cdf1fff       movem.l (a7)+, d0-d7/a0-a4
           0x00484f7a      4e5e           unlk a6
           0x00484f7c      4e75           rts
 660: MENUCOM.box_text_find ();
           ; var int32_t var_5b8eh @ a6-0x5b8e
           0x00484f7e      4e56fcb2       link.w a6, 0xfcb2
           0x00484f82      bfd5           cmpa.l (a5), a7
       < 0x00484f84      6206           bhi.b 0x484f8c
          0x00484f86      44fc0002       move.w 0x2, ccr
          0x00484f8a      4e76           trapv
       > 0x00484f8c      defc013c       adda.w 0x13c, a7
           0x00484f90      48e7fff8       movem.l d0-d7/a0-a4, -(a7)
           0x00484f94      47f9004047ea   lea.l p_wts_o, a3
           0x00484f9a      760c           moveq 0xc, d3
           0x00484f9c      7801           moveq 0x1, d4
           0x00484f9e      4a6e000e       tst.w 0xe(a6)
       < 0x00484fa2      6624           bne.b 0x484fc8
          0x00484fa4      7000           moveq 0x0, d0
          0x00484fa6      4281           clr.l d1
          0x00484fa8      322e000c       move.w 0xc(a6), d1
          0x00484fac      b081           cmp.l d1, d0
      < 0x00484fae      620a           bhi.b 0x484fba
         0x00484fb0      4281           clr.l d1
         0x00484fb2      322e000e       move.w 0xe(a6), d1
         0x00484fb6      9081           sub.l d1, d0
     < 0x00484fb8      6402           bcc.b 0x484fbc
     > 0x00484fba      4e4f           trap 0xf
     > 0x00484fbc      206e0010       movea.l 0x10(a6), a0
          0x00484fc0      4281           clr.l d1
          0x00484fc2      12300800       move.b (a0, d0.l), d1
      < 0x00484fc6      6012           bra.b 0x484fda
      > 0x00484fc8      4280           clr.l d0
          0x00484fca      302e000c       move.w 0xc(a6), d0
          0x00484fce      4281           clr.l d1
          0x00484fd0      322e000e       move.w 0xe(a6), d1
          0x00484fd4      4481           neg.l d1
          0x00484fd6      d280           add.l d0, d1
          0x00484fd8      5281           addq.l 0x1, d1
      > 0x00484fda      2d41fdf6       move.l d1, -0x20a(a6)
           0x00484fde      422e0014       clr.b 0x14(a6)
           0x00484fe2      4aaefdf6       tst.l -0x20a(a6)
       < 0x00484fe6      6f000222       ble.w 0x48520a
          0x00484fea      202efdf6       move.l -0x20a(a6), d0
          0x00484fee      0c8000000040   cmpi.l 0x40, d0
      < 0x00484ff4      6e000214       bgt.w 0x48520a
         0x00484ff8      1d7aa472fdff   move.b 0x47f46c(pc), -0x201(a6)
         0x00484ffe      206e0010       movea.l 0x10(a6), a0
         0x00485002      2f2efdf6       move.l -0x20a(a6), -(a7)
         0x00485006      7a01           moveq 0x1, d5
     > 0x00485008      ba97           cmp.l (a7), d5
    < 0x0048500a      6e64           bgt.b 0x485070
       0x0048500c      2005           move.l d5, d0
       0x0048500e      4281           clr.l d1
       0x00485010      322e000c       move.w 0xc(a6), d1
       0x00485014      b081           cmp.l d1, d0
   < 0x00485016      620a           bhi.b 0x485022
      0x00485018      4281           clr.l d1
      0x0048501a      322e000e       move.w 0xe(a6), d1
      0x0048501e      9081           sub.l d1, d0
  < 0x00485020      6402           bcc.b 0x485024
  > 0x00485022      4e4f           trap 0xf
  > 0x00485024      554f           subq.w 0x2, a7
       0x00485026      1e84           move.b d4, (a7)
       0x00485028      1f7008000001   move.b (a0, d0.l), 0x1(a7)
       0x0048502e      4240           clr.w d0
       0x00485030      102efdff       move.b -0x201(a6), d0
       0x00485034      43eefe00       lea.l -0x200(a6), a1
       0x00485038      d2c0           adda.w d0, a1
       0x0048503a      4241           clr.w d1
       0x0048503c      1217           move.b (a7), d1
       0x0048503e      d200           add.b d0, d1
   < 0x00485040      6406           bcc.b 0x485048
      0x00485042      4eb900406c8a   jsr p_strovr
   > 0x00485048      4241           clr.w d1
       0x0048504a      1217           move.b (a7), d1
       0x0048504c      343c00ff       move.w 0xff, d2
       0x00485050      9440           sub.w d0, d2
       0x00485052      b242           cmp.w d2, d1
   < 0x00485054      6302           bls.b 0x485058
      0x00485056      3202           move.w d2, d1
   > 0x00485058      d32efdff       add.b d1, -0x201(a6)
       0x0048505c      5301           subq.b 0x1, d1
   < 0x0048505e      650a           bcs.b 0x48506a
      0x00485060      45ef0001       lea.l 0x1(a7), a2
  > 0x00485064      12da           move.b (a2)+, (a1)+
  < 0x00485066      51c9fffc       dbra d1, 0x485064
   > 0x0048506a      544f           addq.w 0x2, a7
       0x0048506c      5285           addq.l 0x1, d5
    < 0x0048506e      6898           bvc.b 0x485008
    > 0x00485070      584f           addq.w 0x4, a7
         0x00485072      7e00           moveq 0x0, d7
         0x00485074      1039008190e8   move.b 0x8190e8, d0
         0x0048507a      4880           ext.w d0
         0x0048507c      4184           chk.w d4, d0
         0x0048507e      e540           asl.w 0x2, d0
         0x00485080      41f9008101fe   lea.l 0x8101fe, a0
         0x00485086      41f00000       lea.l (a0, d0.w), a0
         0x0048508a      d1fc00008ef6   adda.l 0x8ef6, a0
         0x00485090      2850           movea.l (a0), a4
     > 0x00485092      b8c4           cmpa.w d4, a4
    < 0x00485094      67000174       beq.w 0x48520a
       0x00485098      b9ecfffc       cmpa.l -0x4(a4), a4
   < 0x0048509c      6702           beq.b 0x4850a0
      0x0048509e      4e4d           trap 0xd
   > 0x004850a0      08140005       btst.b 0x5, (a4)
   < 0x004850a4      6720           beq.b 0x4850c6
      0x004850a6      9efc0100       suba.w 0x100, a7
      0x004850aa      204f           movea.l a7, a0
      0x004850ac      43faa3bf       lea.l 0x47f46d(pc), a1
      0x004850b0      700d           moveq 0xd, d0
  > 0x004850b2      10d9           move.b (a1)+, (a0)+
  < 0x004850b4      51c8fffc       dbra d0, 0x4850b2
      0x004850b8      3f2c0016       move.w 0x16(a4), -(a7)
      0x004850bc      1f04           move.b d4, -(a7)
      0x004850be      4ebab812       jsr MENUCOM.show_box(pc)
      0x004850c2      defc0104       adda.w 0x104, a7
   > 0x004850c6      203c0e000000   move.l 0xe000000, d0
       0x004850cc      c094           and.l (a4), d0
       0x004850ce      b0baa3b0       cmp.l 0x47f480(pc), d0
   < 0x004850d2      6600012e       bne.w 0x485202
      0x004850d6      3f2c0016       move.w 0x16(a4), -(a7)
      0x004850da      486efeff       pea.l -0x101(a6)
      0x004850de      4ebaf6e6       jsr MENUCOM.get_macro_box_t(pc)
      0x004850e2      5c4f           addq.w 0x6, a7
      0x004850e4      7c00           moveq 0x0, d6
      0x004850e6      4240           clr.w d0
      0x004850e8      102efeff       move.b -0x101(a6), d0
      0x004850ec      b02efdff       cmp.b -0x201(a6), d0
  < 0x004850f0      6304           bls.b 0x4850f6
     0x004850f2      102efdff       move.b -0x201(a6), d0
  > 0x004850f6      5300           subq.b 0x1, d0
  < 0x004850f8      6510           bcs.b 0x48510a
     0x004850fa      41eeff00       lea.l -0x100(a6), a0
     0x004850fe      43eefe00       lea.l -0x200(a6), a1
 > 0x00485102      b109           cmpm.b (a1)+, (a0)+
 < 0x00485104      56c8fffc       dbne d0, 0x485102
 < 0x00485108      6608           bne.b 0x485112
 > 0x0048510a      102efeff       move.b -0x101(a6), d0
     0x0048510e      b02efdff       cmp.b -0x201(a6), d0
 < 0x00485112      6602           bne.b 0x485116
     0x00485114      5206           addq.b 0x1, d6
  > 0x00485116      08140005       btst.b 0x5, (a4)
  < 0x0048511a      6764           beq.b 0x485180
     0x0048511c      487aa367       pea.l 0x47f485(pc)
     0x00485120      48780009       pea.l 0x9
     0x00485124      2f17           move.l (a7), -(a7)
     0x00485126      4e93           jsr (a3)                    ; fcn.0000000c
     0x00485128      dec3           adda.w d3, a7
     0x0048512a      486eff00       pea.l -0x100(a6)
     0x0048512e      42a7           clr.l -(a7)
     0x00485130      1f6efeff0003   move.b -0x101(a6), 0x3(a7)
     0x00485136      2f17           move.l (a7), -(a7)
     0x00485138      4e93           jsr (a3)                    ; fcn.0000000c
     0x0048513a      dec3           adda.w d3, a7
     0x0048513c      487aa351       pea.l 0x47f48f(pc)
     0x00485140      4878000e       pea.l 0xe
     0x00485144      2f17           move.l (a7), -(a7)
     0x00485146      4e93           jsr (a3)                    ; fcn.0000000c
     0x00485148      dec3           adda.w d3, a7
     0x0048514a      486efe00       pea.l -0x200(a6)
     0x0048514e      42a7           clr.l -(a7)
     0x00485150      1f6efdff0003   move.b -0x201(a6), 0x3(a7)
     0x00485156      2f17           move.l (a7), -(a7)
     0x00485158      4e93           jsr (a3)                    ; fcn.0000000c
     0x0048515a      dec3           adda.w d3, a7
     0x0048515c      487aa340       pea.l 0x47f49e(pc)
     0x00485160      48780009       pea.l 0x9
     0x00485164      2f17           move.l (a7), -(a7)
     0x00485166      4e93           jsr (a3)                    ; fcn.0000000c
     0x00485168      defc000a       adda.w 0xa, a7
     0x0048516c      1e86           move.b d6, (a7)
     0x0048516e      48780005       pea.l 0x5
     0x00485172      4eb90040718c   jsr p_wtb_o
     0x00485178      5c4f           addq.w 0x6, a7
     0x0048517a      4eb900404946   jsr p_wtln_o
  > 0x00485180      4a06           tst.b d6
  < 0x00485182      677e           beq.b 0x485202
     0x00485184      5287           addq.l 0x1, d7
     0x00485186      be84           cmp.l d4, d7
 < 0x00485188      6628           bne.b 0x4851b2
    0x0048518a      08140005       btst.b 0x5, (a4)
 < 0x0048518e      6714           beq.b 0x4851a4
    0x00485190      487aa316       pea.l 0x47f4a8(pc)
    0x00485194      48780005       pea.l 0x5
    0x00485198      2f17           move.l (a7), -(a7)
    0x0048519a      4e93           jsr (a3)                    ; fcn.0000000c
    0x0048519c      dec3           adda.w d3, a7
    0x0048519e      4eb900404946   jsr p_wtln_o
 > 0x004851a4      1d440014       move.b d4, 0x14(a6)
    0x004851a8      206e0008       movea.l 0x8(a6), a0
    0x004851ac      30ac0016       move.w 0x16(a4), (a0)
 < 0x004851b0      6050           bra.b 0x485202
 > 0x004851b2      487aa2fa       pea.l 0x47f4ae(pc)
     0x004851b6      4878000e       pea.l 0xe
     0x004851ba      2f17           move.l (a7), -(a7)
     0x004851bc      4e93           jsr (a3)                    ; fcn.0000000c
     0x004851be      dec3           adda.w d3, a7
     0x004851c0      302c0016       move.w 0x16(a4), d0
     0x004851c4      48c0           ext.l d0
     0x004851c6      2f00           move.l d0, -(a7)
     0x004851c8      48780000       pea.l 0x0
     0x004851cc      4eb9004070e4   jsr p_wti_o
     0x004851d2      504f           addq.w 0x8, a7
     0x004851d4      487aa2e7       pea.l 0x47f4bd(pc)
     0x004851d8      48780009       pea.l 0x9
     0x004851dc      2f17           move.l (a7), -(a7)
     0x004851de      4e93           jsr (a3)                    ; fcn.0000000c
     0x004851e0      dec3           adda.w d3, a7
     0x004851e2      206e0008       movea.l 0x8(a6), a0
     0x004851e6      3010           move.w (a0), d0
     0x004851e8      48c0           ext.l d0
     0x004851ea      2f00           move.l d0, -(a7)
     0x004851ec      48780000       pea.l 0x0
     0x004851f0      4eb9004070e4   jsr p_wti_o
     0x004851f6      504f           addq.w 0x8, a7
     0x004851f8      4eb900404946   jsr p_wtln_o
     0x004851fe      422e0014       clr.b 0x14(a6)
 > 0x00485202      286c0026       movea.l 0x26(a4), a4
    < 0x00485206      6000fe8a       bra.w 0x485092
    > 0x0048520a      4cdf1fff       movem.l (a7)+, d0-d7/a0-a4
           0x0048520e      4e5e           unlk a6
           0x00485210      4e75           rts
            ; CALL XREFS from MENUCOM.swap_locks @ 0x48532c, 0x485336
 244: MENUCOM.legal_interlock ();
           0x00485212      4e56ffc8       link.w a6, 0xffc8
           0x00485216      bfd5           cmpa.l (a5), a7
       < 0x00485218      6206           bhi.b 0x485220
          0x0048521a      44fc0002       move.w 0x2, ccr
          0x0048521e      4e76           trapv
       > 0x00485220      defc0038       adda.w 0x38, a7
           0x00485224      48e7e0f0       movem.l d0-d2/a0-a3, -(a7)
           0x00485228      45f9004047ea   lea.l p_wts_o, a2
           0x0048522e      47f80000       lea.l 0x0, a3
           0x00485232      740c           moveq 0xc, d2
           0x00485234      302e0008       move.w 0x8(a6), d0
           0x00485238      41bc1068       chk.w 0x1068, d0
           0x0048523c      48c0           ext.l d0
           0x0048523e      e580           asl.l 0x2, d0
           0x00485240      41f9008101fe   lea.l 0x8101fe, a0
           0x00485246      22700800       movea.l (a0, d0.l), a1
           0x0048524a      b2fc0001       cmpa.w 0x1, a1
       < 0x0048524e      6666           bne.b 0x4852b6
          0x00485250      487aa275       pea.l 0x47f4c7(pc)
          0x00485254      48780013       pea.l 0x13
          0x00485258      2f17           move.l (a7), -(a7)
          0x0048525a      4e92           jsr (a2)                    ; fcn.00000009+0x2
          0x0048525c      dec2           adda.w d2, a7
          0x0048525e      302e0008       move.w 0x8(a6), d0
          0x00485262      48c0           ext.l d0
          0x00485264      2f00           move.l d0, -(a7)
          0x00485266      4853           pea.l (a3)
          0x00485268      4eb9004070e4   jsr p_wti_o
          0x0048526e      504f           addq.w 0x8, a7
          0x00485270      487aa269       pea.l 0x47f4db(pc)
          0x00485274      48780011       pea.l 0x11
          0x00485278      2f17           move.l (a7), -(a7)
          0x0048527a      4e92           jsr (a2)                    ; fcn.00000009+0x2
          0x0048527c      dec2           adda.w d2, a7
          0x0048527e      302c000c       move.w 0xc(a4), d0
          0x00485282      48c0           ext.l d0
          0x00485284      2f00           move.l d0, -(a7)
          0x00485286      4853           pea.l (a3)
          0x00485288      4eb9004070e4   jsr p_wti_o
          0x0048528e      504f           addq.w 0x8, a7
          0x00485290      487aa25b       pea.l 0x47f4ed(pc)
          0x00485294      48780006       pea.l 0x6
          0x00485298      2f17           move.l (a7), -(a7)
          0x0048529a      4e92           jsr (a2)                    ; fcn.00000009+0x2
          0x0048529c      dec2           adda.w d2, a7
          0x0048529e      302c000a       move.w 0xa(a4), d0
          0x004852a2      48c0           ext.l d0
          0x004852a4      2f00           move.l d0, -(a7)
          0x004852a6      4853           pea.l (a3)
          0x004852a8      4eb9004070e4   jsr p_wti_o
          0x004852ae      504f           addq.w 0x8, a7
          0x004852b0      4eb900404946   jsr p_wtln_o
       > 0x004852b6      b3e9fffc       cmpa.l -0x4(a1), a1
       < 0x004852ba      6702           beq.b 0x4852be
          0x004852bc      4e4d           trap 0xd
       > 0x004852be      10290004       move.b 0x4(a1), d0
           0x004852c2      4880           ext.w d0
           0x004852c4      41faa22e       lea.l 0x47f4f4(pc), a0
           0x004852c8      3200           move.w d0, d1
           0x004852ca      e649           lsr.w 0x3, d1
           0x004852cc      01301000       btst.l d0, (a0, d1.w)
       < 0x004852d0      662c           bne.b 0x4852fe
          0x004852d2      487aa225       pea.l 0x47f4f9(pc)
          0x004852d6      4878001b       pea.l 0x1b
          0x004852da      2f17           move.l (a7), -(a7)
          0x004852dc      4e92           jsr (a2)                    ; fcn.00000009+0x2
          0x004852de      dec2           adda.w d2, a7
          0x004852e0      302e0008       move.w 0x8(a6), d0
          0x004852e4      48c0           ext.l d0
          0x004852e6      2f00           move.l d0, -(a7)
          0x004852e8      4853           pea.l (a3)
          0x004852ea      4eb9004070e4   jsr p_wti_o
          0x004852f0      504f           addq.w 0x8, a7
          0x004852f2      4eb900404946   jsr p_wtln_o
          0x004852f8      4eb900401620   jsr p_walkback
       > 0x004852fe      4cdf0f07       movem.l (a7)+, d0-d2/a0-a3
           0x00485302      4e5e           unlk a6
           0x00485304      4e75           rts
 128: MENUCOM.swap_locks ();
           0x00485306      4e56ffda       link.w a6, 0xffda
           0x0048530a      bfd5           cmpa.l (a5), a7
       < 0x0048530c      6206           bhi.b 0x485314
          0x0048530e      44fc0002       move.w 0x2, ccr
          0x00485312      4e76           trapv
       > 0x00485314      defc0024       adda.w 0x24, a7
           0x00485318      48e780f8       movem.l d0/a0-a4, -(a7)
           0x0048531c      45eefffe       lea.l -0x2(a6), a2
           0x00485320      47f9008101fe   lea.l 0x8101fe, a3
           0x00485326      3f2e000a       move.w 0xa(a6), -(a7)
           0x0048532a      284a           movea.l a2, a4
           0x0048532c      4ebafee4       jsr MENUCOM.legal_interlock(pc)
           0x00485330      3eae0008       move.w 0x8(a6), (a7)
           0x00485334      284a           movea.l a2, a4
           0x00485336      4ebafeda       jsr MENUCOM.legal_interlock(pc)
           0x0048533a      544f           addq.w 0x2, a7
           0x0048533c      302e000a       move.w 0xa(a6), d0
           0x00485340      41bc1068       chk.w 0x1068, d0
           0x00485344      48c0           ext.l d0
           0x00485346      e580           asl.l 0x2, d0
           0x00485348      204b           movea.l a3, a0
           0x0048534a      20700800       movea.l (a0, d0.l), a0
           0x0048534e      b1e8fffc       cmpa.l -0x4(a0), a0
       < 0x00485352      6702           beq.b 0x485356
          0x00485354      4e4d           trap 0xd
       > 0x00485356      34a80014       move.w 0x14(a0), (a2)
           0x0048535a      302e0008       move.w 0x8(a6), d0
           0x0048535e      41bc1068       chk.w 0x1068, d0
           0x00485362      48c0           ext.l d0
           0x00485364      e580           asl.l 0x2, d0
           0x00485366      224b           movea.l a3, a1
           0x00485368      22710800       movea.l (a1, d0.l), a1
           0x0048536c      b3e9fffc       cmpa.l -0x4(a1), a1
       < 0x00485370      6702           beq.b 0x485374
          0x00485372      4e4d           trap 0xd
       > 0x00485374      316900140014   move.w 0x14(a1), 0x14(a0)
           0x0048537a      33520014       move.w (a2), 0x14(a1)
           0x0048537e      4cdf1f01       movem.l (a7)+, d0/a0-a4
           0x00485382      4e5e           unlk a6
           0x00485384      4e75           rts
            ; CALL XREF from MENUCOM.match_boxtext @ 0x48582c
 844: fcn.00485386 ();
           0x00485386      4e56ffa8       link.w a6, 0xffa8
           0x0048538a      bfd5           cmpa.l (a5), a7
       < 0x0048538c      6206           bhi.b 0x485394
          0x0048538e      44fc0002       move.w 0x2, ccr
          0x00485392      4e76           trapv
       > 0x00485394      defc0048       adda.w 0x48, a7
           0x00485398      48e7fff0       movem.l d0-d7/a0-a3, -(a7)
           0x0048539c      47eefff0       lea.l -0x10(a6), a3
           0x004853a0      243c000000ff   move.l 0xff, d2
           0x004853a6      7605           moveq 0x5, d3
           0x004853a8      783c           moveq 0x3c, d4
           0x004853aa      7000           moveq 0x0, d0
           0x004853ac      4281           clr.l d1
           0x004853ae      322e0008       move.w 0x8(a6), d1
           0x004853b2      b081           cmp.l d1, d0
       < 0x004853b4      620a           bhi.b 0x4853c0
          0x004853b6      4281           clr.l d1
          0x004853b8      322e000a       move.w 0xa(a6), d1
          0x004853bc      9081           sub.l d1, d0
      < 0x004853be      6402           bcc.b 0x4853c2
      > 0x004853c0      4e4f           trap 0xf
      > 0x004853c2      206e000c       movea.l 0xc(a6), a0
           0x004853c6      4281           clr.l d1
           0x004853c8      12300800       move.b (a0, d0.l), d1
           0x004853cc      2d41fff6       move.l d1, -0xa(a6)
           0x004853d0      4213           clr.b (a3)
           0x004853d2      2014           move.l (a4), d0
           0x004853d4      0c8000001068   cmpi.l 0x1068, d0
       < 0x004853da      6302           bls.b 0x4853de
          0x004853dc      4e4f           trap 0xf
       > 0x004853de      e580           asl.l 0x2, d0
           0x004853e0      41f9008101fe   lea.l 0x8101fe, a0
           0x004853e6      20700800       movea.l (a0, d0.l), a0
           0x004853ea      b1e8fffc       cmpa.l -0x4(a0), a0
       < 0x004853ee      6702           beq.b 0x4853f2
          0x004853f0      4e4d           trap 0xd
       > 0x004853f2      0710           btst.l d3, (a0)
       < 0x004853f4      67000102       beq.w 0x4854f8
          0x004853f8      487aa11b       pea.l 0x47f515(pc)
          0x004853fc      4878000a       pea.l 0xa
          0x00485400      2f17           move.l (a7), -(a7)
          0x00485402      4eb9004047ea   jsr p_wts_o
          0x00485408      504f           addq.w 0x8, a7
          0x0048540a      2eac0004       move.l 0x4(a4), (a7)
          0x0048540e      48780000       pea.l 0x0
          0x00485412      4eb9004070e4   jsr p_wti_o
          0x00485418      5c4f           addq.w 0x6, a7
          0x0048541a      1e84           move.b d4, (a7)
          0x0048541c      48780001       pea.l 0x1
          0x00485420      4eb9004048b4   jsr p_wtc_o
          0x00485426      5c4f           addq.w 0x6, a7
          0x00485428      206c001e       movea.l 0x1e(a4), a0
          0x0048542c      2f2c0004       move.l 0x4(a4), -(a7)
          0x00485430      7c01           moveq 0x1, d6
      > 0x00485432      bc97           cmp.l (a7), d6
     < 0x00485434      6e2c           bgt.b 0x485462
        0x00485436      2006           move.l d6, d0
        0x00485438      4281           clr.l d1
        0x0048543a      322c001a       move.w 0x1a(a4), d1
        0x0048543e      b081           cmp.l d1, d0
    < 0x00485440      620a           bhi.b 0x48544c
       0x00485442      4281           clr.l d1
       0x00485444      322c001c       move.w 0x1c(a4), d1
       0x00485448      9081           sub.l d1, d0
   < 0x0048544a      6402           bcc.b 0x48544e
   > 0x0048544c      4e4f           trap 0xf
   > 0x0048544e      1f300800       move.b (a0, d0.l), -(a7)
        0x00485452      48780001       pea.l 0x1
        0x00485456      4eb9004048b4   jsr p_wtc_o
        0x0048545c      5c4f           addq.w 0x6, a7
        0x0048545e      5286           addq.l 0x1, d6
     < 0x00485460      68d0           bvc.b 0x485432
     > 0x00485462      544f           addq.w 0x2, a7
          0x00485464      1ebc003e       move.b 0x3e, (a7)
          0x00485468      48780001       pea.l 0x1
          0x0048546c      4eb9004048b4   jsr p_wtc_o
          0x00485472      5c4f           addq.w 0x6, a7
          0x00485474      4eb900404946   jsr p_wtln_o
          0x0048547a      487aa0a4       pea.l 0x47f520(pc)
          0x0048547e      48780008       pea.l 0x8
          0x00485482      2f17           move.l (a7), -(a7)
          0x00485484      4eb9004047ea   jsr p_wts_o
          0x0048548a      504f           addq.w 0x8, a7
          0x0048548c      2eaefff6       move.l -0xa(a6), (a7)
          0x00485490      48780000       pea.l 0x0
          0x00485494      4eb9004070e4   jsr p_wti_o
          0x0048549a      5c4f           addq.w 0x6, a7
          0x0048549c      1e84           move.b d4, (a7)
          0x0048549e      48780001       pea.l 0x1
          0x004854a2      4eb9004048b4   jsr p_wtc_o
          0x004854a8      5c4f           addq.w 0x6, a7
          0x004854aa      206e000c       movea.l 0xc(a6), a0
          0x004854ae      7e01           moveq 0x1, d7
      > 0x004854b0      beaefff6       cmp.l -0xa(a6), d7
     < 0x004854b4      6e2c           bgt.b 0x4854e2
        0x004854b6      2007           move.l d7, d0
        0x004854b8      4281           clr.l d1
        0x004854ba      322e0008       move.w 0x8(a6), d1
        0x004854be      b081           cmp.l d1, d0
    < 0x004854c0      620a           bhi.b 0x4854cc
       0x004854c2      4281           clr.l d1
       0x004854c4      322e000a       move.w 0xa(a6), d1
       0x004854c8      9081           sub.l d1, d0
   < 0x004854ca      6402           bcc.b 0x4854ce
   > 0x004854cc      4e4f           trap 0xf
   > 0x004854ce      1f300800       move.b (a0, d0.l), -(a7)
        0x004854d2      48780001       pea.l 0x1
        0x004854d6      4eb9004048b4   jsr p_wtc_o
        0x004854dc      5c4f           addq.w 0x6, a7
        0x004854de      5287           addq.l 0x1, d7
     < 0x004854e0      68ce           bvc.b 0x4854b0
     > 0x004854e2      1f3c003e       move.b 0x3e, -(a7)
          0x004854e6      48780001       pea.l 0x1
          0x004854ea      4eb9004048b4   jsr p_wtc_o
          0x004854f0      5c4f           addq.w 0x6, a7
          0x004854f2      4eb900404946   jsr p_wtln_o
       > 0x004854f8      202c0004       move.l 0x4(a4), d0
           0x004854fc      b0aefff6       cmp.l -0xa(a6), d0
       < 0x00485500      6e0001c4       bgt.w 0x4856c6
          0x00485504      7c00           moveq 0x0, d6
          0x00485506      7e00           moveq 0x0, d7
          0x00485508      16bc0001       move.b 0x1, (a3)
          0x0048550c      206c001e       movea.l 0x1e(a4), a0
          0x00485510      226e000c       movea.l 0xc(a6), a1
      > 0x00485514      bcac0004       cmp.l 0x4(a4), d6
     < 0x00485518      6c00016a       bge.w 0x485684
        0x0048551c      beaefff6       cmp.l -0xa(a6), d7
    < 0x00485520      6c000162       bge.w 0x485684
       0x00485524      4a13           tst.b (a3)
   < 0x00485526      6700015c       beq.w 0x485684
      0x0048552a      5286           addq.l 0x1, d6
  > 0x0048552c      5287           addq.l 0x1, d7
     0x0048552e      2007           move.l d7, d0
     0x00485530      4281           clr.l d1
     0x00485532      322e0008       move.w 0x8(a6), d1
     0x00485536      b081           cmp.l d1, d0
 < 0x00485538      620a           bhi.b 0x485544
    0x0048553a      4281           clr.l d1
    0x0048553c      322e000a       move.w 0xa(a6), d1
    0x00485540      9081           sub.l d1, d0
 < 0x00485542      6402           bcc.b 0x485546
 > 0x00485544      4e4f           trap 0xf
 > 0x00485546      12310800       move.b (a1, d0.l), d1
     0x0048554a      c282           and.l d2, d1
     0x0048554c      45fa9fda       lea.l 0x47f528(pc), a2
     0x00485550      3001           move.w d1, d0
     0x00485552      e648           lsr.w 0x3, d0
     0x00485554      03320000       btst.l d1, (a2, d0.w)
 < 0x00485558      6708           beq.b 0x485562
    0x0048555a      beaefff6       cmp.l -0xa(a6), d7
 < 0x0048555e      6c02           bge.b 0x485562
 < 0x00485560      60ca           bra.b 0x48552c
 > 0x00485562      1a01           move.b d1, d5
      0x00485564      ca82           and.l d2, d5
      0x00485566      45fa9fe0       lea.l 0x47f548(pc), a2
      0x0048556a      3005           move.w d5, d0
      0x0048556c      e648           lsr.w 0x3, d0
      0x0048556e      0b320000       btst.l d5, (a2, d0.w)
  < 0x00485572      670e           beq.b 0x485582
     0x00485574      3005           move.w d5, d0
     0x00485576      04400061       subi.w 0x61, d0
     0x0048557a      06400041       addi.w 0x41, d0
     0x0048557e      4182           chk.w d2, d0
     0x00485580      1a00           move.b d0, d5
  > 0x00485582      2006           move.l d6, d0
      0x00485584      4281           clr.l d1
      0x00485586      322c001a       move.w 0x1a(a4), d1
      0x0048558a      b081           cmp.l d1, d0
  < 0x0048558c      620a           bhi.b 0x485598
     0x0048558e      4281           clr.l d1
     0x00485590      322c001c       move.w 0x1c(a4), d1
     0x00485594      9081           sub.l d1, d0
 < 0x00485596      6402           bcc.b 0x48559a
 > 0x00485598      4e4f           trap 0xf
 > 0x0048559a      1d700800ffff   move.b (a0, d0.l), -0x1(a6)
      0x004855a0      4280           clr.l d0
      0x004855a2      102effff       move.b -0x1(a6), d0
      0x004855a6      45fa9fc0       lea.l 0x47f568(pc), a2
      0x004855aa      3200           move.w d0, d1
      0x004855ac      e649           lsr.w 0x3, d1
      0x004855ae      01321000       btst.l d0, (a2, d1.w)
  < 0x004855b2      6710           beq.b 0x4855c4
     0x004855b4      3200           move.w d0, d1
     0x004855b6      04410061       subi.w 0x61, d1
     0x004855ba      06410041       addi.w 0x41, d1
     0x004855be      4382           chk.w d2, d1
     0x004855c0      1d41ffff       move.b d1, -0x1(a6)
  > 0x004855c4      2014           move.l (a4), d0
      0x004855c6      0c8000001068   cmpi.l 0x1068, d0
  < 0x004855cc      6302           bls.b 0x4855d0
     0x004855ce      4e4f           trap 0xf
  > 0x004855d0      e580           asl.l 0x2, d0
      0x004855d2      45f9008101fe   lea.l 0x8101fe, a2
      0x004855d8      24720800       movea.l (a2, d0.l), a2
      0x004855dc      b5eafffc       cmpa.l -0x4(a2), a2
  < 0x004855e0      6702           beq.b 0x4855e4
     0x004855e2      4e4d           trap 0xd
  > 0x004855e4      0712           btst.l d3, (a2)
  < 0x004855e6      6700008e       beq.w 0x485676
     0x004855ea      487a9f9d       pea.l 0x47f589(pc)
     0x004855ee      4878000f       pea.l 0xf
     0x004855f2      2f17           move.l (a7), -(a7)
     0x004855f4      4eb9004047ea   jsr p_wts_o
     0x004855fa      504f           addq.w 0x8, a7
     0x004855fc      2e86           move.l d6, (a7)
     0x004855fe      48780000       pea.l 0x0
     0x00485602      4eb9004070e4   jsr p_wti_o
     0x00485608      504f           addq.w 0x8, a7
     0x0048560a      487a9f8d       pea.l 0x47f599(pc)
     0x0048560e      48780002       pea.l 0x2
     0x00485612      2f17           move.l (a7), -(a7)
     0x00485614      4eb9004047ea   jsr p_wts_o
     0x0048561a      defc000a       adda.w 0xa, a7
     0x0048561e      1eaeffff       move.b -0x1(a6), (a7)
     0x00485622      48780001       pea.l 0x1
     0x00485626      4eb9004048b4   jsr p_wtc_o
     0x0048562c      5c4f           addq.w 0x6, a7
     0x0048562e      487a9f6c       pea.l 0x47f59c(pc)
     0x00485632      48780007       pea.l 0x7
     0x00485636      2f17           move.l (a7), -(a7)
     0x00485638      4eb9004047ea   jsr p_wts_o
     0x0048563e      504f           addq.w 0x8, a7
     0x00485640      2e87           move.l d7, (a7)
     0x00485642      48780000       pea.l 0x0
     0x00485646      4eb9004070e4   jsr p_wti_o
     0x0048564c      504f           addq.w 0x8, a7
     0x0048564e      487a9f54       pea.l 0x47f5a4(pc)
     0x00485652      48780002       pea.l 0x2
     0x00485656      2f17           move.l (a7), -(a7)
     0x00485658      4eb9004047ea   jsr p_wts_o
     0x0048565e      defc000a       adda.w 0xa, a7
     0x00485662      1e85           move.b d5, (a7)
     0x00485664      48780001       pea.l 0x1
     0x00485668      4eb9004048b4   jsr p_wtc_o
     0x0048566e      5c4f           addq.w 0x6, a7
     0x00485670      4eb900404946   jsr p_wtln_o
  > 0x00485676      4213           clr.b (a3)
      0x00485678      ba2effff       cmp.b -0x1(a6), d5
  < 0x0048567c      6602           bne.b 0x485680
     0x0048567e      5213           addq.b 0x1, (a3)
  < 0x00485680      6000fe92       bra.w 0x485514
   > 0x00485684      206e000c       movea.l 0xc(a6), a0
      > 0x00485688      beaefff6       cmp.l -0xa(a6), d7
     < 0x0048568c      6c38           bge.b 0x4856c6
        0x0048568e      4a13           tst.b (a3)
    < 0x00485690      6734           beq.b 0x4856c6
       0x00485692      5287           addq.l 0x1, d7
       0x00485694      4213           clr.b (a3)
       0x00485696      2007           move.l d7, d0
       0x00485698      4281           clr.l d1
       0x0048569a      322e0008       move.w 0x8(a6), d1
       0x0048569e      b081           cmp.l d1, d0
   < 0x004856a0      620a           bhi.b 0x4856ac
      0x004856a2      4281           clr.l d1
      0x004856a4      322e000a       move.w 0xa(a6), d1
      0x004856a8      9081           sub.l d1, d0
  < 0x004856aa      6402           bcc.b 0x4856ae
  > 0x004856ac      4e4f           trap 0xf
  > 0x004856ae      4281           clr.l d1
       0x004856b0      12300800       move.b (a0, d0.l), d1
       0x004856b4      43fa9ef0       lea.l 0x47f5a6(pc), a1
       0x004856b8      3001           move.w d1, d0
       0x004856ba      e648           lsr.w 0x3, d0
       0x004856bc      03310000       btst.l d1, (a1, d0.w)
   < 0x004856c0      6702           beq.b 0x4856c4
      0x004856c2      5213           addq.b 0x1, (a3)
   < 0x004856c4      60c2           bra.b 0x485688
    > 0x004856c6      1d530010       move.b (a3), 0x10(a6)
           0x004856ca      4cdf0fff       movem.l (a7)+, d0-d7/a0-a3
           0x004856ce      4e5e           unlk a6
           0x004856d0      4e75           rts
            ; CALL XREF from MENUCOM.box_hit_command @ 0x488c9a
 518: MENUCOM.match_boxtext ();
           0x004856d2      4e56feaa       link.w a6, 0xfeaa
           0x004856d6      bfd5           cmpa.l (a5), a7
       < 0x004856d8      6206           bhi.b 0x4856e0
          0x004856da      44fc0002       move.w 0x2, ccr
          0x004856de      4e76           trapv
       > 0x004856e0      defc014c       adda.w 0x14c, a7
           0x004856e4      48e7fff8       movem.l d0-d7/a0-a4, -(a7)
           0x004856e8      7401           moveq 0x1, d2
           0x004856ea      263cffff8000   move.l 0xffff8000, d3
           0x004856f0      7842           moveq 0x42, d4
           0x004856f2      7a40           moveq 0x40, d5
           0x004856f4      7c05           moveq 0x5, d6
           0x004856f6      4a6e0012       tst.w 0x12(a6)
       < 0x004856fa      6624           bne.b 0x485720
          0x004856fc      7000           moveq 0x0, d0
          0x004856fe      4281           clr.l d1
          0x00485700      322e0010       move.w 0x10(a6), d1
          0x00485704      b081           cmp.l d1, d0
      < 0x00485706      620a           bhi.b 0x485712
         0x00485708      4281           clr.l d1
         0x0048570a      322e0012       move.w 0x12(a6), d1
         0x0048570e      9081           sub.l d1, d0
     < 0x00485710      6402           bcc.b 0x485714
     > 0x00485712      4e4f           trap 0xf
     > 0x00485714      206e0014       movea.l 0x14(a6), a0
          0x00485718      4281           clr.l d1
          0x0048571a      12300800       move.b (a0, d0.l), d1
      < 0x0048571e      6012           bra.b 0x485732
      > 0x00485720      4280           clr.l d0
          0x00485722      302e0010       move.w 0x10(a6), d0
          0x00485726      4281           clr.l d1
          0x00485728      322e0012       move.w 0x12(a6), d1
          0x0048572c      4481           neg.l d1
          0x0048572e      d280           add.l d0, d1
          0x00485730      5281           addq.l 0x1, d1
      > 0x00485732      2d41fffa       move.l d1, -0x6(a6)
           0x00485736      206e000c       movea.l 0xc(a6), a0
           0x0048573a      3010           move.w (a0), d0
           0x0048573c      48c0           ext.l d0
           0x0048573e      2d40fff6       move.l d0, -0xa(a6)
           0x00485742      7e00           moveq 0x0, d7
           0x00485744      4aaefffa       tst.l -0x6(a6)
       < 0x00485748      6f000122       ble.w 0x48586c
          0x0048574c      202efffa       move.l -0x6(a6), d0
          0x00485750      b085           cmp.l d5, d0
      < 0x00485752      6e000118       bgt.w 0x48586c
     > 0x00485756      3039008143a2   move.w 0x8143a2, d0
        0x0048575c      48c0           ext.l d0
        0x0048575e      b0aefff6       cmp.l -0xa(a6), d0
    < 0x00485762      6f000108       ble.w 0x48586c
       0x00485766      4a07           tst.b d7
   < 0x00485768      66000102       bne.w 0x48586c
      0x0048576c      52aefff6       addq.l 0x1, -0xa(a6)
      0x00485770      202efff6       move.l -0xa(a6), d0
      0x00485774      0c8000001068   cmpi.l 0x1068, d0
  < 0x0048577a      6302           bls.b 0x48577e
     0x0048577c      4e4f           trap 0xf
  > 0x0048577e      e580           asl.l 0x2, d0
      0x00485780      41f9008101fe   lea.l 0x8101fe, a0
      0x00485786      22700800       movea.l (a0, d0.l), a1
      0x0048578a      b2c2           cmpa.w d2, a1
  < 0x0048578c      670000da       beq.w 0x485868
     0x00485790      b3e9fffc       cmpa.l -0x4(a1), a1
 < 0x00485794      6702           beq.b 0x485798
    0x00485796      4e4d           trap 0xd
 > 0x00485798      0d11           btst.l d6, (a1)
 < 0x0048579a      6738           beq.b 0x4857d4
    0x0048579c      9efc00fc       suba.w 0xfc, a7
    0x004857a0      2f3a9e24       move.l 0x47f5c6(pc), -(a7)
    0x004857a4      2f7a9e240004   move.l 0x47f5ca(pc), 0x4(a7)
    0x004857aa      2f7a9e220008   move.l 0x47f5ce(pc), 0x8(a7)
    0x004857b0      3f7a9e20000c   move.w 0x47f5d2(pc), 0xc(a7)
    0x004857b6      202efff6       move.l -0xa(a6), d0
    0x004857ba      9083           sub.l d3, d0
    0x004857bc      0c800000ffff   cmpi.l 0xffff, d0
 < 0x004857c2      6302           bls.b 0x4857c6
    0x004857c4      4e4f           trap 0xf
 > 0x004857c6      d083           add.l d3, d0
    0x004857c8      3f00           move.w d0, -(a7)
    0x004857ca      1f02           move.b d2, -(a7)
    0x004857cc      4ebab104       jsr MENUCOM.show_box(pc)
    0x004857d0      defc0104       adda.w 0x104, a7
 > 0x004857d4      7000           moveq 0x0, d0
     0x004857d6      08110007       btst.b 0x7, (a1)
 < 0x004857da      6702           beq.b 0x4857de
    0x004857dc      5200           addq.b 0x1, d0
 > 0x004857de      b039008190e8   cmp.b 0x8190e8, d0
 < 0x004857e4      6656           bne.b 0x48583c
    0x004857e6      20690036       movea.l 0x36(a1), a0
    0x004857ea      b0c2           cmpa.w d2, a0
 < 0x004857ec      6718           beq.b 0x485806
    0x004857ee      b1e8fffc       cmpa.l -0x4(a0), a0
 < 0x004857f2      6702           beq.b 0x4857f6
    0x004857f4      4e4d           trap 0xd
 > 0x004857f6      9ec4           suba.w d4, a7
    0x004857f8      244f           movea.l a7, a2
    0x004857fa      2648           movea.l a0, a3
    0x004857fc      7040           moveq 0x40, d0
 > 0x004857fe      14db           move.b (a3)+, (a2)+
 < 0x00485800      51c8fffc       dbra d0, 0x4857fe
 < 0x00485804      6018           bra.b 0x48581e
 > 0x00485806      20690042       movea.l 0x42(a1), a0
    0x0048580a      b1e8fffc       cmpa.l -0x4(a0), a0
 < 0x0048580e      6702           beq.b 0x485812
    0x00485810      4e4d           trap 0xd
 > 0x00485812      9ec4           suba.w d4, a7
    0x00485814      244f           movea.l a7, a2
    0x00485816      7040           moveq 0x40, d0
 > 0x00485818      14d8           move.b (a0)+, (a2)+
 < 0x0048581a      51c8fffc       dbra d0, 0x485818
 > 0x0048581e      554f           subq.w 0x2, a7
    0x00485820      486f0002       pea.l 0x2(a7)
    0x00485824      4267           clr.w -(a7)
    0x00485826      3f05           move.w d5, -(a7)
    0x00485828      49eefff6       lea.l -0xa(a6), a4
    0x0048582c      4ebafb58       jsr fcn.00485386(pc)
    0x00485830      504f           addq.w 0x8, a7
    0x00485832      101f           move.b (a7)+, d0
    0x00485834      4880           ext.w d0
    0x00485836      4182           chk.w d2, d0
    0x00485838      dec4           adda.w d4, a7
    0x0048583a      1e00           move.b d0, d7
 > 0x0048583c      0d11           btst.l d6, (a1)
 < 0x0048583e      6728           beq.b 0x485868
    0x00485840      487a9d93       pea.l 0x47f5d5(pc)
    0x00485844      48780006       pea.l 0x6
    0x00485848      2f17           move.l (a7), -(a7)
    0x0048584a      4eb9004047ea   jsr p_wts_o
    0x00485850      defc000a       adda.w 0xa, a7
    0x00485854      1e87           move.b d7, (a7)
    0x00485856      48780005       pea.l 0x5
    0x0048585a      4eb90040718c   jsr p_wtb_o
    0x00485860      5c4f           addq.w 0x6, a7
    0x00485862      4eb900404946   jsr p_wtln_o
 < 0x00485868      6000feec       bra.w 0x485756
   > 0x0048586c      206e000c       movea.l 0xc(a6), a0
           0x00485870      202efff6       move.l -0xa(a6), d0
           0x00485874      9083           sub.l d3, d0
           0x00485876      0c800000ffff   cmpi.l 0xffff, d0
       < 0x0048587c      6302           bls.b 0x485880
          0x0048587e      4e4f           trap 0xf
       > 0x00485880      d083           add.l d3, d0
           0x00485882      3080           move.w d0, (a0)
           0x00485884      202efff6       move.l -0xa(a6), d0
           0x00485888      0c8000001068   cmpi.l 0x1068, d0
       < 0x0048588e      6302           bls.b 0x485892
          0x00485890      4e4f           trap 0xf
       > 0x00485892      e580           asl.l 0x2, d0
           0x00485894      41f9008101fe   lea.l 0x8101fe, a0
           0x0048589a      22700800       movea.l (a0, d0.l), a1
           0x0048589e      b2c2           cmpa.w d2, a1
       < 0x004858a0      672a           beq.b 0x4858cc
          0x004858a2      b3e9fffc       cmpa.l -0x4(a1), a1
      < 0x004858a6      6702           beq.b 0x4858aa
         0x004858a8      4e4d           trap 0xd
      > 0x004858aa      4a07           tst.b d7
      < 0x004858ac      6718           beq.b 0x4858c6
         0x004858ae      206e0008       movea.l 0x8(a6), a0
         0x004858b2      4210           clr.b (a0)
         0x004858b4      203c0e000000   move.l 0xe000000, d0
         0x004858ba      c091           and.l (a1), d0
         0x004858bc      b0ba9d22       cmp.l 0x47f5e0(pc), d0
     < 0x004858c0      6602           bne.b 0x4858c4
        0x004858c2      5210           addq.b 0x1, (a0)
    > 0x004858c4      6006           bra.b 0x4858cc
     > 0x004858c6      206e0008       movea.l 0x8(a6), a0
         0x004858ca      4210           clr.b (a0)
    > 0x004858cc      1d470018       move.b d7, 0x18(a6)
           0x004858d0      4cdf1fff       movem.l (a7)+, d0-d7/a0-a4
           0x004858d4      4e5e           unlk a6
           0x004858d6      4e75           rts
 500: MENUCOM.make_twin_box ();
           0x004858d8      4e56ffc2       link.w a6, 0xffc2
           0x004858dc      bfd5           cmpa.l (a5), a7
       < 0x004858de      6206           bhi.b 0x4858e6
          0x004858e0      44fc0002       move.w 0x2, ccr
          0x004858e4      4e76           trapv
       > 0x004858e6      defc003c       adda.w 0x3c, a7
           0x004858ea      48e7e1f8       movem.l d0-d2/d7/a0-a4, -(a7)
           0x004858ee      45f9004047ea   lea.l p_wts_o, a2
           0x004858f4      47f9004070e4   lea.l p_wti_o, a3
           0x004858fa      49f80000       lea.l 0x0, a4
           0x004858fe      720c           moveq 0xc, d1
           0x00485900      7404           moveq 0x4, d2
           0x00485902      7e00           moveq 0x0, d7
           0x00485904      302e000a       move.w 0xa(a6), d0
           0x00485908      41bc1068       chk.w 0x1068, d0
           0x0048590c      48c0           ext.l d0
           0x0048590e      e580           asl.l 0x2, d0
           0x00485910      41f9008101fe   lea.l 0x8101fe, a0
           0x00485916      20700800       movea.l (a0, d0.l), a0
           0x0048591a      b1e8fffc       cmpa.l -0x4(a0), a0
       < 0x0048591e      6702           beq.b 0x485922
          0x00485920      4e4d           trap 0xd
       > 0x00485922      10280004       move.b 0x4(a0), d0
           0x00485926      b002           cmp.b d2, d0
       < 0x00485928      6602           bne.b 0x48592c
          0x0048592a      5207           addq.b 0x1, d7
       > 0x0048592c      4a07           tst.b d7
       < 0x0048592e      6622           bne.b 0x485952
          0x00485930      487a9cb3       pea.l 0x47f5e5(pc)
          0x00485934      4878002b       pea.l 0x2b
          0x00485938      2f17           move.l (a7), -(a7)
          0x0048593a      4e92           jsr (a2)                    ; fcn.00000009+0x2
          0x0048593c      dec1           adda.w d1, a7
          0x0048593e      302e000a       move.w 0xa(a6), d0
          0x00485942      48c0           ext.l d0
          0x00485944      2f00           move.l d0, -(a7)
          0x00485946      4854           pea.l (a4)
          0x00485948      4e93           jsr (a3)                    ; fcn.0000000c
          0x0048594a      504f           addq.w 0x8, a7
          0x0048594c      4eb900404946   jsr p_wtln_o
       > 0x00485952      7e00           moveq 0x0, d7
           0x00485954      302e0008       move.w 0x8(a6), d0
           0x00485958      41bc1068       chk.w 0x1068, d0
           0x0048595c      48c0           ext.l d0
           0x0048595e      e580           asl.l 0x2, d0
           0x00485960      43f9008101fe   lea.l 0x8101fe, a1
           0x00485966      22710800       movea.l (a1, d0.l), a1
           0x0048596a      b3e9fffc       cmpa.l -0x4(a1), a1
       < 0x0048596e      6702           beq.b 0x485972
          0x00485970      4e4d           trap 0xd
       > 0x00485972      10290004       move.b 0x4(a1), d0
           0x00485976      b002           cmp.b d2, d0
       < 0x00485978      6602           bne.b 0x48597c
          0x0048597a      5207           addq.b 0x1, d7
       > 0x0048597c      4a07           tst.b d7
       < 0x0048597e      6622           bne.b 0x4859a2
          0x00485980      487a9c8f       pea.l 0x47f611(pc)
          0x00485984      4878002d       pea.l 0x2d
          0x00485988      2f17           move.l (a7), -(a7)
          0x0048598a      4e92           jsr (a2)                    ; fcn.00000009+0x2
          0x0048598c      dec1           adda.w d1, a7
          0x0048598e      302e0008       move.w 0x8(a6), d0
          0x00485992      48c0           ext.l d0
          0x00485994      2f00           move.l d0, -(a7)
          0x00485996      4854           pea.l (a4)
          0x00485998      4e93           jsr (a3)                    ; fcn.0000000c
          0x0048599a      504f           addq.w 0x8, a7
          0x0048599c      4eb900404946   jsr p_wtln_o
       > 0x004859a2      7e00           moveq 0x0, d7
           0x004859a4      4a69001a       tst.w 0x1a(a1)
       < 0x004859a8      6602           bne.b 0x4859ac
          0x004859aa      5207           addq.b 0x1, d7
       > 0x004859ac      4a07           tst.b d7
       < 0x004859ae      665a           bne.b 0x485a0a
          0x004859b0      487a9c8d       pea.l 0x47f63f(pc)
          0x004859b4      4878000e       pea.l 0xe
          0x004859b8      2f17           move.l (a7), -(a7)
          0x004859ba      4e92           jsr (a2)                    ; fcn.00000009+0x2
          0x004859bc      dec1           adda.w d1, a7
          0x004859be      302e0008       move.w 0x8(a6), d0
          0x004859c2      48c0           ext.l d0
          0x004859c4      2f00           move.l d0, -(a7)
          0x004859c6      4854           pea.l (a4)
          0x004859c8      4e93           jsr (a3)                    ; fcn.0000000c
          0x004859ca      504f           addq.w 0x8, a7
          0x004859cc      487a9c80       pea.l 0x47f64e(pc)
          0x004859d0      48780006       pea.l 0x6
          0x004859d4      2f17           move.l (a7), -(a7)
          0x004859d6      4e92           jsr (a2)                    ; fcn.00000009+0x2
          0x004859d8      dec1           adda.w d1, a7
          0x004859da      302e000a       move.w 0xa(a6), d0
          0x004859de      48c0           ext.l d0
          0x004859e0      2f00           move.l d0, -(a7)
          0x004859e2      4854           pea.l (a4)
          0x004859e4      4e93           jsr (a3)                    ; fcn.0000000c
          0x004859e6      504f           addq.w 0x8, a7
          0x004859e8      487a9c6b       pea.l 0x47f655(pc)
          0x004859ec      48780019       pea.l 0x19
          0x004859f0      2f17           move.l (a7), -(a7)
          0x004859f2      4e92           jsr (a2)                    ; fcn.00000009+0x2
          0x004859f4      dec1           adda.w d1, a7
          0x004859f6      3029001a       move.w 0x1a(a1), d0
          0x004859fa      48c0           ext.l d0
          0x004859fc      2f00           move.l d0, -(a7)
          0x004859fe      4854           pea.l (a4)
          0x00485a00      4e93           jsr (a3)                    ; fcn.0000000c
          0x00485a02      504f           addq.w 0x8, a7
          0x00485a04      4eb900404946   jsr p_wtln_o
       > 0x00485a0a      4a07           tst.b d7
       < 0x00485a0c      676e           beq.b 0x485a7c
          0x00485a0e      4a68001a       tst.w 0x1a(a0)
      < 0x00485a12      675a           beq.b 0x485a6e
         0x00485a14      487a9c59       pea.l 0x47f66f(pc)
         0x00485a18      48780011       pea.l 0x11
         0x00485a1c      2f17           move.l (a7), -(a7)
         0x00485a1e      4e92           jsr (a2)                    ; fcn.00000009+0x2
         0x00485a20      dec1           adda.w d1, a7
         0x00485a22      3028001a       move.w 0x1a(a0), d0
         0x00485a26      48c0           ext.l d0
         0x00485a28      2f00           move.l d0, -(a7)
         0x00485a2a      4854           pea.l (a4)
         0x00485a2c      4e93           jsr (a3)                    ; fcn.0000000c
         0x00485a2e      504f           addq.w 0x8, a7
         0x00485a30      487a9c4f       pea.l 0x47f681(pc)
         0x00485a34      48780004       pea.l 0x4
         0x00485a38      2f17           move.l (a7), -(a7)
         0x00485a3a      4e92           jsr (a2)                    ; fcn.00000009+0x2
         0x00485a3c      dec1           adda.w d1, a7
         0x00485a3e      302e000a       move.w 0xa(a6), d0
         0x00485a42      48c0           ext.l d0
         0x00485a44      2f00           move.l d0, -(a7)
         0x00485a46      4854           pea.l (a4)
         0x00485a48      4e93           jsr (a3)                    ; fcn.0000000c
         0x00485a4a      504f           addq.w 0x8, a7
         0x00485a4c      487a9c38       pea.l 0x47f686(pc)
         0x00485a50      48780006       pea.l 0x6
         0x00485a54      2f17           move.l (a7), -(a7)
         0x00485a56      4e92           jsr (a2)                    ; fcn.00000009+0x2
         0x00485a58      dec1           adda.w d1, a7
         0x00485a5a      302e0008       move.w 0x8(a6), d0
         0x00485a5e      48c0           ext.l d0
         0x00485a60      2f00           move.l d0, -(a7)
         0x00485a62      4854           pea.l (a4)
         0x00485a64      4e93           jsr (a3)                    ; fcn.0000000c
         0x00485a66      504f           addq.w 0x8, a7
         0x00485a68      4eb900404946   jsr p_wtln_o
      > 0x00485a6e      316e0008001a   move.w 0x8(a6), 0x1a(a0)
          0x00485a74      336e000a001a   move.w 0xa(a6), 0x1a(a1)
      < 0x00485a7a      6048           bra.b 0x485ac4
      > 0x00485a7c      487a9c0f       pea.l 0x47f68d(pc)
          0x00485a80      4878000d       pea.l 0xd
          0x00485a84      2f17           move.l (a7), -(a7)
          0x00485a86      4e92           jsr (a2)                    ; fcn.00000009+0x2
          0x00485a88      dec1           adda.w d1, a7
          0x00485a8a      302e000a       move.w 0xa(a6), d0
          0x00485a8e      48c0           ext.l d0
          0x00485a90      2f00           move.l d0, -(a7)
          0x00485a92      48780002       pea.l 0x2
          0x00485a96      4e93           jsr (a3)                    ; fcn.0000000c
          0x00485a98      504f           addq.w 0x8, a7
          0x00485a9a      487a9bff       pea.l 0x47f69b(pc)
          0x00485a9e      48780006       pea.l 0x6
          0x00485aa2      2f17           move.l (a7), -(a7)
          0x00485aa4      4e92           jsr (a2)                    ; fcn.00000009+0x2
          0x00485aa6      dec1           adda.w d1, a7
          0x00485aa8      302e0008       move.w 0x8(a6), d0
          0x00485aac      48c0           ext.l d0
          0x00485aae      2f00           move.l d0, -(a7)
          0x00485ab0      48780002       pea.l 0x2
          0x00485ab4      4e93           jsr (a3)                    ; fcn.0000000c
          0x00485ab6      504f           addq.w 0x8, a7
          0x00485ab8      4eb900404946   jsr p_wtln_o
          0x00485abe      4eb900401620   jsr p_walkback
      > 0x00485ac4      4cdf1f87       movem.l (a7)+, d0-d2/d7/a0-a4
           0x00485ac8      4e5e           unlk a6
           0x00485aca      4e75           rts
            ; CALL XREFS from MENUNUMPADCOM.picnum_slaves @ 0x49c214, 0x49c238
            ; CALL XREF from MENUOWNERCOM.owner_slaved @ 0x5085ca
 366: MENUCOM.make_sibling_bo ();
           0x00485acc      4e56ffba       link.w a6, 0xffba
           0x00485ad0      bfd5           cmpa.l (a5), a7
       < 0x00485ad2      6206           bhi.b 0x485ada
          0x00485ad4      44fc0002       move.w 0x2, ccr
          0x00485ad8      4e76           trapv
       > 0x00485ada      defc0042       adda.w 0x42, a7
           0x00485ade      48e7e1f8       movem.l d0-d2/d7/a0-a4, -(a7)
           0x00485ae2      47f9004047ea   lea.l p_wts_o, a3
           0x00485ae8      49f80000       lea.l 0x0, a4
           0x00485aec      740c           moveq 0xc, d2
           0x00485aee      7e00           moveq 0x0, d7
           0x00485af0      302e000a       move.w 0xa(a6), d0
           0x00485af4      41bc1068       chk.w 0x1068, d0
           0x00485af8      48c0           ext.l d0
           0x00485afa      e580           asl.l 0x2, d0
           0x00485afc      41f9008101fe   lea.l 0x8101fe, a0
           0x00485b02      20700800       movea.l (a0, d0.l), a0
           0x00485b06      b1e8fffc       cmpa.l -0x4(a0), a0
       < 0x00485b0a      6702           beq.b 0x485b0e
          0x00485b0c      4e4d           trap 0xd
       > 0x00485b0e      10280004       move.b 0x4(a0), d0
           0x00485b12      4880           ext.w d0
           0x00485b14      43fa9b8c       lea.l 0x47f6a2(pc), a1
           0x00485b18      3200           move.w d0, d1
           0x00485b1a      e649           lsr.w 0x3, d1
           0x00485b1c      01311000       btst.l d0, (a1, d1.w)
       < 0x00485b20      6702           beq.b 0x485b24
          0x00485b22      5207           addq.b 0x1, d7
       > 0x00485b24      4a07           tst.b d7
       < 0x00485b26      6626           bne.b 0x485b4e
          0x00485b28      487a9b7d       pea.l 0x47f6a7(pc)
          0x00485b2c      48780044       pea.l 0x44
          0x00485b30      2f17           move.l (a7), -(a7)
          0x00485b32      4e93           jsr (a3)                    ; fcn.0000000c
          0x00485b34      dec2           adda.w d2, a7
          0x00485b36      302e000a       move.w 0xa(a6), d0
          0x00485b3a      48c0           ext.l d0
          0x00485b3c      2f00           move.l d0, -(a7)
          0x00485b3e      4854           pea.l (a4)
          0x00485b40      4eb9004070e4   jsr p_wti_o
          0x00485b46      504f           addq.w 0x8, a7
          0x00485b48      4eb900404946   jsr p_wtln_o
       > 0x00485b4e      7e00           moveq 0x0, d7
           0x00485b50      302e0008       move.w 0x8(a6), d0
           0x00485b54      41bc1068       chk.w 0x1068, d0
           0x00485b58      48c0           ext.l d0
           0x00485b5a      e580           asl.l 0x2, d0
           0x00485b5c      43f9008101fe   lea.l 0x8101fe, a1
           0x00485b62      22710800       movea.l (a1, d0.l), a1
           0x00485b66      b3e9fffc       cmpa.l -0x4(a1), a1
       < 0x00485b6a      6702           beq.b 0x485b6e
          0x00485b6c      4e4d           trap 0xd
       > 0x00485b6e      10290004       move.b 0x4(a1), d0
           0x00485b72      4880           ext.w d0
           0x00485b74      45fa9b76       lea.l 0x47f6ec(pc), a2
           0x00485b78      3200           move.w d0, d1
           0x00485b7a      e649           lsr.w 0x3, d1
           0x00485b7c      01321000       btst.l d0, (a2, d1.w)
       < 0x00485b80      6702           beq.b 0x485b84
          0x00485b82      5207           addq.b 0x1, d7
       > 0x00485b84      4a07           tst.b d7
       < 0x00485b86      6626           bne.b 0x485bae
          0x00485b88      487a9b67       pea.l 0x47f6f1(pc)
          0x00485b8c      48780046       pea.l 0x46
          0x00485b90      2f17           move.l (a7), -(a7)
          0x00485b92      4e93           jsr (a3)                    ; fcn.0000000c
          0x00485b94      dec2           adda.w d2, a7
          0x00485b96      302e0008       move.w 0x8(a6), d0
          0x00485b9a      48c0           ext.l d0
          0x00485b9c      2f00           move.l d0, -(a7)
          0x00485b9e      4854           pea.l (a4)
          0x00485ba0      4eb9004070e4   jsr p_wti_o
          0x00485ba6      504f           addq.w 0x8, a7
          0x00485ba8      4eb900404946   jsr p_wtln_o
       > 0x00485bae      7000           moveq 0x0, d0
           0x00485bb0      3229001c       move.w 0x1c(a1), d1
           0x00485bb4      b26e0008       cmp.w 0x8(a6), d1
       < 0x00485bb8      6602           bne.b 0x485bbc
          0x00485bba      5200           addq.b 0x1, d0
       > 0x00485bbc      1e00           move.b d0, d7
       < 0x00485bbe      6662           bne.b 0x485c22
          0x00485bc0      487a9b76       pea.l 0x47f738(pc)
          0x00485bc4      48780019       pea.l 0x19
          0x00485bc8      2f17           move.l (a7), -(a7)
          0x00485bca      4e93           jsr (a3)                    ; fcn.0000000c
          0x00485bcc      dec2           adda.w d2, a7
          0x00485bce      302e0008       move.w 0x8(a6), d0
          0x00485bd2      48c0           ext.l d0
          0x00485bd4      2f00           move.l d0, -(a7)
          0x00485bd6      4854           pea.l (a4)
          0x00485bd8      4eb9004070e4   jsr p_wti_o
          0x00485bde      504f           addq.w 0x8, a7
          0x00485be0      487a9b70       pea.l 0x47f752(pc)
          0x00485be4      48780006       pea.l 0x6
          0x00485be8      2f17           move.l (a7), -(a7)
          0x00485bea      4e93           jsr (a3)                    ; fcn.0000000c
          0x00485bec      dec2           adda.w d2, a7
          0x00485bee      302e000a       move.w 0xa(a6), d0
          0x00485bf2      48c0           ext.l d0
          0x00485bf4      2f00           move.l d0, -(a7)
          0x00485bf6      4854           pea.l (a4)
          0x00485bf8      4eb9004070e4   jsr p_wti_o
          0x00485bfe      504f           addq.w 0x8, a7
          0x00485c00      487a9b57       pea.l 0x47f759(pc)
          0x00485c04      48780019       pea.l 0x19
          0x00485c08      2f17           move.l (a7), -(a7)
          0x00485c0a      4e93           jsr (a3)                    ; fcn.0000000c
          0x00485c0c      dec2           adda.w d2, a7
          0x00485c0e      48c1           ext.l d1
          0x00485c10      2f01           move.l d1, -(a7)
          0x00485c12      4854           pea.l (a4)
          0x00485c14      4eb9004070e4   jsr p_wti_o
          0x00485c1a      504f           addq.w 0x8, a7
          0x00485c1c      4eb900404946   jsr p_wtln_o
       > 0x00485c22      4a07           tst.b d7
       < 0x00485c24      670c           beq.b 0x485c32
          0x00485c26      3e28001c       move.w 0x1c(a0), d7
          0x00485c2a      3141001c       move.w d1, 0x1c(a0)
          0x00485c2e      3347001c       move.w d7, 0x1c(a1)
       > 0x00485c32      4cdf1f87       movem.l (a7)+, d0-d2/d7/a0-a4
           0x00485c36      4e5e           unlk a6
           0x00485c38      4e75           rts
            ; CALL XREF from PALETCOM.menu_pal_init @ 0x638ba2
 46: MENUCOM.set_alt_draw_pr ();
           0x00485c3a      4e56fff0       link.w a6, 0xfff0
           0x00485c3e      bfd5           cmpa.l (a5), a7
       < 0x00485c40      6206           bhi.b 0x485c48
          0x00485c42      44fc0002       move.w 0x2, ccr
          0x00485c46      4e76           trapv
       > 0x00485c48      defc0010       adda.w 0x10, a7
           0x00485c4c      594f           subq.w 0x4, a7
           0x00485c4e      2f2e000c       move.l 0xc(a6), -(a7)
           0x00485c52      2f2e0008       move.l 0x8(a6), -(a7)
           0x00485c56      4eb90047e71e   jsr fcn.0047e71e
           0x00485c5c      504f           addq.w 0x8, a7
           0x00485c5e      23df008190f0   move.l (a7)+, 0x8190f0
           0x00485c64      4e5e           unlk a6
           0x00485c66      4e75           rts
            ; XREFS: CALL 0x004877a2  CALL 0x0048f23a  CALL 0x004b5430  
            ; XREFS: CALL 0x004d3ec8  CALL 0x004e40b2  CALL 0x004e4254  
            ; XREFS: CALL 0x004e4282  CALL 0x00752332  CALL 0x00756742  
            ; XREFS: CALL 0x0075676e  CALL 0x007567c0  
 586: MENUCOM.calc_boxarea ();
           0x00485c68      4e56ffb2       link.w a6, 0xffb2
           0x00485c6c      bfd5           cmpa.l (a5), a7
       < 0x00485c6e      6206           bhi.b 0x485c76
          0x00485c70      44fc0002       move.w 0x2, ccr
          0x00485c74      4e76           trapv
       > 0x00485c76      defc0042       adda.w 0x42, a7
           0x00485c7a      48e7fff8       movem.l d0-d7/a0-a4, -(a7)
           0x00485c7e      43eefff4       lea.l -0xc(a6), a1
           0x00485c82      45eefff8       lea.l -0x8(a6), a2
           0x00485c86      47ee0014       lea.l 0x14(a6), a3
           0x00485c8a      49ee0018       lea.l 0x18(a6), a4
           0x00485c8e      243cffff8000   move.l 0xffff8000, d2
           0x00485c94      2a3c0000ffff   move.l 0xffff, d5
           0x00485c9a      7cec           moveq 0xec, d6
           0x00485c9c      4a94           tst.l (a4)
       < 0x00485c9e      6d0c           blt.b 0x485cac
          0x00485ca0      3039008190c0   move.w 0x8190c0, d0
          0x00485ca6      48c0           ext.l d0
          0x00485ca8      b094           cmp.l (a4), d0
      < 0x00485caa      6c32           bge.b 0x485cde
      > 0x00485cac      2014           move.l (a4), d0
      < 0x00485cae      6a02           bpl.b 0x485cb2
         0x00485cb0      4480           neg.l d0
      > 0x00485cb2      3239008190b8   move.w 0x8190b8, d1
          0x00485cb8      48c1           ext.l d1
          0x00485cba      d081           add.l d1, d0
          0x00485cbc      9082           sub.l d2, d0
          0x00485cbe      b085           cmp.l d5, d0
      < 0x00485cc0      6302           bls.b 0x485cc4
         0x00485cc2      4e4f           trap 0xf
      > 0x00485cc4      d082           add.l d2, d0
          0x00485cc6      3280           move.w d0, (a1)
          0x00485cc8      202e0010       move.l 0x10(a6), d0
      < 0x00485ccc      6a02           bpl.b 0x485cd0
         0x00485cce      4480           neg.l d0
      > 0x00485cd0      9082           sub.l d2, d0
          0x00485cd2      b085           cmp.l d5, d0
      < 0x00485cd4      6302           bls.b 0x485cd8
         0x00485cd6      4e4f           trap 0xf
      > 0x00485cd8      d082           add.l d2, d0
          0x00485cda      3480           move.w d0, (a2)
      < 0x00485cdc      6064           bra.b 0x485d42
      > 0x00485cde      2814           move.l (a4), d4
          0x00485ce0      3039008190b4   move.w 0x8190b4, d0
          0x00485ce6      48c0           ext.l d0
          0x00485ce8      2600           move.l d0, d3
          0x00485cea      4eb900406a74   jsr fcn.00406a74
          0x00485cf0      3239008190b8   move.w 0x8190b8, d1
          0x00485cf6      48c1           ext.l d1
          0x00485cf8      d881           add.l d1, d4
          0x00485cfa      9882           sub.l d2, d4
          0x00485cfc      b885           cmp.l d5, d4
      < 0x00485cfe      6302           bls.b 0x485d02
         0x00485d00      4e4f           trap 0xf
      > 0x00485d02      d882           add.l d2, d4
          0x00485d04      3284           move.w d4, (a1)
          0x00485d06      4aae0010       tst.l 0x10(a6)
      < 0x00485d0a      6c12           bge.b 0x485d1e
         0x00485d0c      222e0010       move.l 0x10(a6), d1
     < 0x00485d10      6a02           bpl.b 0x485d14
        0x00485d12      4481           neg.l d1
     > 0x00485d14      9282           sub.l d2, d1
         0x00485d16      b285           cmp.l d5, d1
     < 0x00485d18      6302           bls.b 0x485d1c
        0x00485d1a      4e4f           trap 0xf
    > 0x00485d1c      6020           bra.b 0x485d3e
     > 0x00485d1e      282e0010       move.l 0x10(a6), d4
         0x00485d22      2600           move.l d0, d3
         0x00485d24      4eb900406a74   jsr fcn.00406a74
         0x00485d2a      3239008190bc   move.w 0x8190bc, d1
         0x00485d30      48c1           ext.l d1
         0x00485d32      4481           neg.l d1
         0x00485d34      d284           add.l d4, d1
         0x00485d36      9282           sub.l d2, d1
         0x00485d38      b285           cmp.l d5, d1
     < 0x00485d3a      6302           bls.b 0x485d3e
        0x00485d3c      4e4f           trap 0xf
    > 0x00485d3e      d282           add.l d2, d1
          0x00485d40      3481           move.w d1, (a2)
       > 0x00485d42      4a93           tst.l (a3)
       < 0x00485d44      6d0c           blt.b 0x485d52
          0x00485d46      3039008190c2   move.w 0x8190c2, d0
          0x00485d4c      48c0           ext.l d0
          0x00485d4e      b093           cmp.l (a3), d0
      < 0x00485d50      6c40           bge.b 0x485d92
      > 0x00485d52      206e0008       movea.l 0x8(a6), a0
          0x00485d56      4210           clr.b (a0)
          0x00485d58      2013           move.l (a3), d0
      < 0x00485d5a      6a02           bpl.b 0x485d5e
         0x00485d5c      4480           neg.l d0
      > 0x00485d5e      3239008190c6   move.w 0x8190c6, d1
          0x00485d64      48c1           ext.l d1
          0x00485d66      b081           cmp.l d1, d0
      < 0x00485d68      6d02           blt.b 0x485d6c
         0x00485d6a      5210           addq.b 0x1, (a0)
      > 0x00485d6c      3239008190ba   move.w 0x8190ba, d1
          0x00485d72      48c1           ext.l d1
          0x00485d74      d081           add.l d1, d0
          0x00485d76      9082           sub.l d2, d0
          0x00485d78      b085           cmp.l d5, d0
      < 0x00485d7a      6302           bls.b 0x485d7e
         0x00485d7c      4e4f           trap 0xf
      > 0x00485d7e      d082           add.l d2, d0
          0x00485d80      3d40fff6       move.w d0, -0xa(a6)
          0x00485d84      202e000c       move.l 0xc(a6), d0
          0x00485d88      9082           sub.l d2, d0
          0x00485d8a      b085           cmp.l d5, d0
      < 0x00485d8c      6302           bls.b 0x485d90
         0x00485d8e      4e4f           trap 0xf
     > 0x00485d90      605e           bra.b 0x485df0
     > 0x00485d92      206e0008       movea.l 0x8(a6), a0
          0x00485d96      4210           clr.b (a0)
          0x00485d98      3039008190c4   move.w 0x8190c4, d0
          0x00485d9e      48c0           ext.l d0
          0x00485da0      b093           cmp.l (a3), d0
      < 0x00485da2      6e02           bgt.b 0x485da6
         0x00485da4      5210           addq.b 0x1, (a0)
      > 0x00485da6      2813           move.l (a3), d4
          0x00485da8      3039008190b6   move.w 0x8190b6, d0
          0x00485dae      48c0           ext.l d0
          0x00485db0      2600           move.l d0, d3
          0x00485db2      4eb900406a74   jsr fcn.00406a74
          0x00485db8      3239008190ba   move.w 0x8190ba, d1
          0x00485dbe      48c1           ext.l d1
          0x00485dc0      d881           add.l d1, d4
          0x00485dc2      9882           sub.l d2, d4
          0x00485dc4      b885           cmp.l d5, d4
      < 0x00485dc6      6302           bls.b 0x485dca
         0x00485dc8      4e4f           trap 0xf
      > 0x00485dca      d882           add.l d2, d4
          0x00485dcc      3d44fff6       move.w d4, -0xa(a6)
          0x00485dd0      282e000c       move.l 0xc(a6), d4
          0x00485dd4      2600           move.l d0, d3
          0x00485dd6      4eb900406a74   jsr fcn.00406a74
          0x00485ddc      3039008190be   move.w 0x8190be, d0
          0x00485de2      48c0           ext.l d0
          0x00485de4      4480           neg.l d0
          0x00485de6      d084           add.l d4, d0
          0x00485de8      9082           sub.l d2, d0
          0x00485dea      b085           cmp.l d5, d0
      < 0x00485dec      6302           bls.b 0x485df0
         0x00485dee      4e4f           trap 0xf
     > 0x00485df0      d082           add.l d2, d0
           0x00485df2      3d40fffa       move.w d0, -0x6(a6)
           0x00485df6      554f           subq.w 0x2, a7
           0x00485df8      3f3c00bf       move.w 0xbf, -(a7)
           0x00485dfc      4ebab1c4       jsr MENUCOM.get_boxon(pc)
           0x00485e00      544f           addq.w 0x2, a7
           0x00485e02      4a1f           tst.b (a7)+
       < 0x00485e04      6722           beq.b 0x485e28
          0x00485e06      206e0008       movea.l 0x8(a6), a0
          0x00485e0a      4a10           tst.b (a0)
      < 0x00485e0c      671a           beq.b 0x485e28
         0x00485e0e      302efff6       move.w -0xa(a6), d0
         0x00485e12      48c0           ext.l d0
         0x00485e14      068000000080   addi.l 0x80, d0
         0x00485e1a      9082           sub.l d2, d0
         0x00485e1c      b085           cmp.l d5, d0
     < 0x00485e1e      6302           bls.b 0x485e22
        0x00485e20      4e4f           trap 0xf
     > 0x00485e22      d082           add.l d2, d0
         0x00485e24      3d40fff6       move.w d0, -0xa(a6)
      > 0x00485e28      4a39008190e9   tst.b 0x8190e9
       < 0x00485e2e      671e           beq.b 0x485e4e
          0x00485e30      1039008190ea   move.b 0x8190ea, d0
          0x00485e36      0c000003       cmpi.b 0x3, d0
      < 0x00485e3a      6612           bne.b 0x485e4e
         0x00485e3c      3011           move.w (a1), d0
         0x00485e3e      48c0           ext.l d0
         0x00485e40      5180           subq.l 0x8, d0
         0x00485e42      9082           sub.l d2, d0
         0x00485e44      b085           cmp.l d5, d0
     < 0x00485e46      6302           bls.b 0x485e4a
        0x00485e48      4e4f           trap 0xf
     > 0x00485e4a      d082           add.l d2, d0
         0x00485e4c      3280           move.w d0, (a1)
      > 0x00485e4e      3011           move.w (a1), d0
           0x00485e50      b046           cmp.w d6, d0
       < 0x00485e52      6d4e           blt.b 0x485ea2
          0x00485e54      48c0           ext.l d0
          0x00485e56      2200           move.l d0, d1
          0x00485e58      9286           sub.l d6, d1
          0x00485e5a      0c81000005b4   cmpi.l 0x5b4, d1
      < 0x00485e60      6302           bls.b 0x485e64
         0x00485e62      4e4f           trap 0xf
      > 0x00485e64      e381           asl.l 0x1, d1
          0x00485e66      41f9008101fe   lea.l 0x8101fe, a0
          0x00485e6c      41f01800       lea.l (a0, d1.l), a0
          0x00485e70      d1fc0000834c   adda.l 0x834c, a0
          0x00485e76      4a50           tst.w (a0)
      < 0x00485e78      6728           beq.b 0x485ea2
         0x00485e7a      4281           clr.l d1
         0x00485e7c      3210           move.w (a0), d1
         0x00485e7e      2e01           move.l d1, d7
         0x00485e80      2200           move.l d0, d1
         0x00485e82      d287           add.l d7, d1
         0x00485e84      9282           sub.l d2, d1
         0x00485e86      b285           cmp.l d5, d1
     < 0x00485e88      6302           bls.b 0x485e8c
        0x00485e8a      4e4f           trap 0xf
     > 0x00485e8c      d282           add.l d2, d1
         0x00485e8e      3281           move.w d1, (a1)
         0x00485e90      3212           move.w (a2), d1
         0x00485e92      48c1           ext.l d1
         0x00485e94      9287           sub.l d7, d1
         0x00485e96      9282           sub.l d2, d1
         0x00485e98      b285           cmp.l d5, d1
     < 0x00485e9a      6302           bls.b 0x485e9e
        0x00485e9c      4e4f           trap 0xf
     > 0x00485e9e      d282           add.l d2, d1
         0x00485ea0      3481           move.w d1, (a2)
      > 0x00485ea2      2d51001c       move.l (a1), 0x1c(a6)
           0x00485ea6      2d520020       move.l (a2), 0x20(a6)
           0x00485eaa      4cdf1fff       movem.l (a7)+, d0-d7/a0-a4
           0x00485eae      4e5e           unlk a6
           0x00485eb0      4e75           rts
            ; CALL XREF from MENUCOM.check_box @ 0x4884f0
 164: MENUCOM.find_parent ();
           0x00485eb2      4e56ffb8       link.w a6, 0xffb8
           0x00485eb6      bfd5           cmpa.l (a5), a7
       < 0x00485eb8      6206           bhi.b 0x485ec0
          0x00485eba      44fc0002       move.w 0x2, ccr
          0x00485ebe      4e76           trapv
       > 0x00485ec0      defc0040       adda.w 0x40, a7
           0x00485ec4      48e7c3c8       movem.l d0-d1/d6-d7/a0-a1/a4, -(a7)
           0x00485ec8      7201           moveq 0x1, d1
           0x00485eca      7e00           moveq 0x0, d7
           0x00485ecc      7c00           moveq 0x0, d6
       > 0x00485ece      48c7           ext.l d7
          0x00485ed0      2007           move.l d7, d0
          0x00485ed2      5280           addq.l 0x1, d0
          0x00485ed4      0480ffff8000   subi.l 0xffff8000, d0
          0x00485eda      0c800000ffff   cmpi.l 0xffff, d0
      < 0x00485ee0      6302           bls.b 0x485ee4
         0x00485ee2      4e4f           trap 0xf
      > 0x00485ee4      0680ffff8000   addi.l 0xffff8000, d0
          0x00485eea      3e00           move.w d0, d7
          0x00485eec      4fbc1068       chk.w 0x1068, d7
          0x00485ef0      48c7           ext.l d7
          0x00485ef2      2007           move.l d7, d0
          0x00485ef4      e580           asl.l 0x2, d0
          0x00485ef6      41f9008101fe   lea.l 0x8101fe, a0
          0x00485efc      22700800       movea.l (a0, d0.l), a1
          0x00485f00      b2c1           cmpa.w d1, a1
      < 0x00485f02      6734           beq.b 0x485f38
         0x00485f04      b3e9fffc       cmpa.l -0x4(a1), a1
     < 0x00485f08      6702           beq.b 0x485f0c
        0x00485f0a      4e4d           trap 0xd
     > 0x00485f0c      2069001e       movea.l 0x1e(a1), a0
         0x00485f10      b0c1           cmpa.w d1, a0
     < 0x00485f12      6724           beq.b 0x485f38
        0x00485f14      2848           movea.l a0, a4
    > 0x00485f16      b8c1           cmpa.w d1, a4
   < 0x00485f18      671e           beq.b 0x485f38
      0x00485f1a      4a06           tst.b d6
  < 0x00485f1c      661a           bne.b 0x485f38
     0x00485f1e      b9ecfffc       cmpa.l -0x4(a4), a4
 < 0x00485f22      6702           beq.b 0x485f26
    0x00485f24      4e4d           trap 0xd
 > 0x00485f26      3014           move.w (a4), d0
     0x00485f28      b06e000c       cmp.w 0xc(a6), d0
 < 0x00485f2c      6604           bne.b 0x485f32
    0x00485f2e      7c01           moveq 0x1, d6
 < 0x00485f30      6004           bra.b 0x485f36
 > 0x00485f32      286c0004       movea.l 0x4(a4), a4
 < 0x00485f36      60de           bra.b 0x485f16
  > 0x00485f38      4a06           tst.b d6
      < 0x00485f3a      6608           bne.b 0x485f44
         0x00485f3c      be79008143a2   cmp.w 0x8143a2, d7
      < 0x00485f42      668a           bne.b 0x485ece
      > 0x00485f44      1d46000e       move.b d6, 0xe(a6)
           0x00485f48      206e0008       movea.l 0x8(a6), a0
           0x00485f4c      3087           move.w d7, (a0)
           0x00485f4e      4cdf13c3       movem.l (a7)+, d0-d1/d6-d7/a0-a1/a4
           0x00485f52      4e5e           unlk a6
           0x00485f54      4e75           rts
            0x00485f56      4e56ff94       link.w a6, 0xff94
            0x00485f5a      bfd5           cmpa.l (a5), a7
        < 0x00485f5c      6206           bhi.b 0x485f64
           0x00485f5e      44fc0002       move.w 0x2, ccr
           0x00485f62      4e76           trapv
        > 0x00485f64      defc0062       adda.w 0x62, a7
            0x00485f68      48e7fff0       movem.l d0-d7/a0-a3, -(a7)
            0x00485f6c      7a07           moveq 0x7, d5
            0x00485f6e      7c01           moveq 0x1, d6
            0x00485f70      2e3c00008eee   move.l 0x8eee, d7
            0x00485f76      7000           moveq 0x0, d0
            0x00485f78      322c0032       move.w 0x32(a4), d1
            0x00485f7c      43bc1068       chk.w 0x1068, d1
            0x00485f80      48c1           ext.l d1
            0x00485f82      e581           asl.l 0x2, d1
            0x00485f84      41f9008101fe   lea.l 0x8101fe, a0
            0x00485f8a      20701800       movea.l (a0, d1.l), a0
            0x00485f8e      b1e8fffc       cmpa.l -0x4(a0), a0
        < 0x00485f92      6702           beq.b 0x485f96
           0x00485f94      4e4d           trap 0xd
        > 0x00485f96      0b10           btst.l d5, (a0)
        < 0x00485f98      6702           beq.b 0x485f9c
           0x00485f9a      5200           addq.b 0x1, d0
        > 0x00485f9c      4880           ext.w d0
            0x00485f9e      e540           asl.w 0x2, d0
            0x00485fa0      41f9008101fe   lea.l 0x8101fe, a0
            0x00485fa6      41f00000       lea.l (a0, d0.w), a0
            0x00485faa      d1fc00008ef6   adda.l 0x8ef6, a0
            0x00485fb0      2650           movea.l (a0), a3
        > 0x00485fb2      b6c6           cmpa.w d6, a3
       < 0x00485fb4      670001be       beq.w 0x486174
          0x00485fb8      b7ebfffc       cmpa.l -0x4(a3), a3
      < 0x00485fbc      6702           beq.b 0x485fc0
         0x00485fbe      4e4d           trap 0xd
      > 0x00485fc0      302c0032       move.w 0x32(a4), d0
          0x00485fc4      b06b0016       cmp.w 0x16(a3), d0
      < 0x00485fc8      670001a2       beq.w 0x48616c
         0x00485fcc      203c0e000000   move.l 0xe000000, d0
         0x00485fd2      c093           and.l (a3), d0
         0x00485fd4      b0ba97a0       cmp.l 0x47f776(pc), d0
     < 0x00485fd8      66000192       bne.w 0x48616c
        0x00485fdc      302b0006       move.w 0x6(a3), d0
        0x00485fe0      48c0           ext.l d0
        0x00485fe2      322b000a       move.w 0xa(a3), d1
        0x00485fe6      48c1           ext.l d1
        0x00485fe8      d280           add.l d0, d1
        0x00485fea      342e0008       move.w 0x8(a6), d2
        0x00485fee      48c2           ext.l d2
        0x00485ff0      b481           cmp.l d1, d2
    < 0x00485ff2      6c000178       bge.w 0x48616c
       0x00485ff6      322e000c       move.w 0xc(a6), d1
       0x00485ffa      48c1           ext.l d1
       0x00485ffc      d282           add.l d2, d1
       0x00485ffe      b280           cmp.l d0, d1
   < 0x00486000      6f00016a       ble.w 0x48616c
      0x00486004      322e000a       move.w 0xa(a6), d1
      0x00486008      48c1           ext.l d1
      0x0048600a      362b000c       move.w 0xc(a3), d3
      0x0048600e      48c3           ext.l d3
      0x00486010      d681           add.l d1, d3
      0x00486012      b283           cmp.l d3, d1
  < 0x00486014      6c000156       bge.w 0x48616c
     0x00486018      362e000e       move.w 0xe(a6), d3
     0x0048601c      48c3           ext.l d3
     0x0048601e      d681           add.l d1, d3
     0x00486020      382b0008       move.w 0x8(a3), d4
     0x00486024      48c4           ext.l d4
     0x00486026      b684           cmp.l d4, d3
  < 0x00486028      6f000142       ble.w 0x48616c
     0x0048602c      08130000       btst.b 0x0, (a3)
  < 0x00486030      670e           beq.b 0x486040
     0x00486032      2d7a8746fff6   move.l 0x47e77a(pc), -0xa(a6)
     0x00486038      3d7a8744fffa   move.w 0x47e77e(pc), -0x6(a6)
  < 0x0048603e      6010           bra.b 0x486050
  > 0x00486040      41eefff6       lea.l -0xa(a6), a0
     0x00486044      43eb000e       lea.l 0xe(a3), a1
     0x00486048      7605           moveq 0x5, d3
  > 0x0048604a      10d9           move.b (a1)+, (a0)+
  < 0x0048604c      51cbfffc       dbra d3, 0x48604a
  > 0x00486050      162b0004       move.b 0x4(a3), d3
     0x00486054      0c030010       cmpi.b 0x10, d3
  < 0x00486058      6706           beq.b 0x486060
     0x0048605a      08130006       btst.b 0x6, (a3)
  < 0x0048605e      6718           beq.b 0x486078
  > 0x00486060      2f2b0032       move.l 0x32(a3), -(a7)
     0x00486064      3f2b0016       move.w 0x16(a3), -(a7)
     0x00486068      3f3c0003       move.w 0x3, -(a7)
     0x0048606c      4eb90047e700   jsr fcn.0047e700
     0x00486072      504f           addq.w 0x8, a7
  < 0x00486074      600000f6       bra.w 0x48616c
  > 0x00486078      206b0036       movea.l 0x36(a3), a0
     0x0048607c      b0c6           cmpa.w d6, a0
  < 0x0048607e      673c           beq.b 0x4860bc
     0x00486080      48780000       pea.l 0x0
     0x00486084      0b13           btst.l d5, (a3)
  < 0x00486086      6702           beq.b 0x48608a
     0x00486088      5297           addq.l 0x1, (a7)
  > 0x0048608a      362f0002       move.w 0x2(a7), d3
     0x0048608e      e543           asl.w 0x2, d3
     0x00486090      43f9008101fe   lea.l 0x8101fe, a1
     0x00486096      43f13000       lea.l (a1, d3.w), a1
     0x0048609a      d3c7           adda.l d7, a1
     0x0048609c      2e91           move.l (a1), (a7)
     0x0048609e      514f           subq.w 0x8, a7
     0x004860a0      224f           movea.l a7, a1
     0x004860a2      45eb0006       lea.l 0x6(a3), a2
     0x004860a6      7607           moveq 0x7, d3
  > 0x004860a8      12da           move.b (a2)+, (a1)+
  < 0x004860aa      51cbfffc       dbra d3, 0x4860a8
     0x004860ae      2f2efff8       move.l -0x8(a6), -(a7)
     0x004860b2      3f2efff6       move.w -0xa(a6), -(a7)
     0x004860b6      2f08           move.l a0, -(a7)
  < 0x004860b8      600000a8       bra.w 0x486162
  > 0x004860bc      362b0016       move.w 0x16(a3), d3
     0x004860c0      47bc1068       chk.w 0x1068, d3
     0x004860c4      48c3           ext.l d3
     0x004860c6      e583           asl.l 0x2, d3
     0x004860c8      41f9008101fe   lea.l 0x8101fe, a0
     0x004860ce      41f03800       lea.l (a0, d3.l), a0
     0x004860d2      226841a6       movea.l 0x41a6(a0), a1
     0x004860d6      b2c6           cmpa.w d6, a1
  < 0x004860d8      673a           beq.b 0x486114
     0x004860da      48780000       pea.l 0x0
     0x004860de      0b13           btst.l d5, (a3)
  < 0x004860e0      6702           beq.b 0x4860e4
     0x004860e2      5297           addq.l 0x1, (a7)
  > 0x004860e4      362f0002       move.w 0x2(a7), d3
     0x004860e8      e543           asl.w 0x2, d3
     0x004860ea      41f9008101fe   lea.l 0x8101fe, a0
     0x004860f0      41f03000       lea.l (a0, d3.w), a0
     0x004860f4      d1c7           adda.l d7, a0
     0x004860f6      2e90           move.l (a0), (a7)
     0x004860f8      514f           subq.w 0x8, a7
     0x004860fa      204f           movea.l a7, a0
     0x004860fc      45eb0006       lea.l 0x6(a3), a2
     0x00486100      7607           moveq 0x7, d3
  > 0x00486102      10da           move.b (a2)+, (a0)+
  < 0x00486104      51cbfffc       dbra d3, 0x486102
     0x00486108      2f2efff8       move.l -0x8(a6), -(a7)
     0x0048610c      3f2efff6       move.w -0xa(a6), -(a7)
     0x00486110      2f09           move.l a1, -(a7)
  < 0x00486112      604e           bra.b 0x486162
  > 0x00486114      48780000       pea.l 0x0
     0x00486118      0b13           btst.l d5, (a3)
  < 0x0048611a      6702           beq.b 0x48611e
     0x0048611c      5297           addq.l 0x1, (a7)
  > 0x0048611e      362f0002       move.w 0x2(a7), d3
     0x00486122      e543           asl.w 0x2, d3
     0x00486124      41f9008101fe   lea.l 0x8101fe, a0
     0x0048612a      41f03000       lea.l (a0, d3.w), a0
     0x0048612e      d1c7           adda.l d7, a0
     0x00486130      2e90           move.l (a0), (a7)
     0x00486132      514f           subq.w 0x8, a7
     0x00486134      204f           movea.l a7, a0
     0x00486136      43eb0006       lea.l 0x6(a3), a1
     0x0048613a      7607           moveq 0x7, d3
  > 0x0048613c      10d9           move.b (a1)+, (a0)+
  < 0x0048613e      51cbfffc       dbra d3, 0x48613c
     0x00486142      2f2efff8       move.l -0x8(a6), -(a7)
     0x00486146      3f2efff6       move.w -0xa(a6), -(a7)
     0x0048614a      594f           subq.w 0x4, a7
     0x0048614c      1eab0042       move.b 0x42(a3), (a7)
     0x00486150      1f6b00430001   move.b 0x43(a3), 0x1(a7)
     0x00486156      1f6b00440002   move.b 0x44(a3), 0x2(a7)
     0x0048615c      1f6b00450003   move.b 0x45(a3), 0x3(a7)
  > 0x00486162      4eb90047e72e   jsr fcn.0047e72e
     0x00486168      defc0016       adda.w 0x16, a7
  > 0x0048616c      266b0026       movea.l 0x26(a3), a3
       < 0x00486170      6000fe40       bra.w 0x485fb2
       > 0x00486174      4cdf0fff       movem.l (a7)+, d0-d7/a0-a3
            0x00486178      4e5e           unlk a6
            0x0048617a      4e75           rts
 452: MENUCOM.change_box ();
           0x0048617c      4e56ff80       link.w a6, 0xff80
           0x00486180      bfd5           cmpa.l (a5), a7
       < 0x00486182      6206           bhi.b 0x48618a
          0x00486184      44fc0002       move.w 0x2, ccr
          0x00486188      4e76           trapv
       > 0x0048618a      defc0060       adda.w 0x60, a7
           0x0048618e      48e7fff8       movem.l d0-d7/a0-a4, -(a7)
           0x00486192      43ee000e       lea.l 0xe(a6), a1
           0x00486196      45ee000c       lea.l 0xc(a6), a2
           0x0048619a      47eefff0       lea.l -0x10(a6), a3
           0x0048619e      302e0012       move.w 0x12(a6), d0
           0x004861a2      41bc1068       chk.w 0x1068, d0
           0x004861a6      48c0           ext.l d0
           0x004861a8      e580           asl.l 0x2, d0
           0x004861aa      41f9008101fe   lea.l 0x8101fe, a0
           0x004861b0      20700800       movea.l (a0, d0.l), a0
           0x004861b4      b1e8fffc       cmpa.l -0x4(a0), a0
       < 0x004861b8      6702           beq.b 0x4861bc
          0x004861ba      4e4d           trap 0xd
       > 0x004861bc      0828000e0001   btst.b 0xe, 0x1(a0)
       < 0x004861c2      67000648       beq.w 0x48680c
          0x004861c6      08100004       btst.b 0x4, (a0)
      < 0x004861ca      67000096       beq.w 0x486262
         0x004861ce      3039008190d6   move.w 0x8190d6, d0
         0x004861d4      48c0           ext.l d0
         0x004861d6      2200           move.l d0, d1
         0x004861d8      5481           addq.l 0x2, d1
         0x004861da      0481ffff8000   subi.l 0xffff8000, d1
         0x004861e0      0c810000ffff   cmpi.l 0xffff, d1
     < 0x004861e6      6302           bls.b 0x4861ea
        0x004861e8      4e4f           trap 0xf
     > 0x004861ea      0681ffff8000   addi.l 0xffff8000, d1
         0x004861f0      3e01           move.w d1, d7
         0x004861f2      3239008190d8   move.w 0x8190d8, d1
         0x004861f8      48c1           ext.l d1
         0x004861fa      2401           move.l d1, d2
         0x004861fc      5482           addq.l 0x2, d2
         0x004861fe      0482ffff8000   subi.l 0xffff8000, d2
         0x00486204      0c820000ffff   cmpi.l 0xffff, d2
     < 0x0048620a      6302           bls.b 0x48620e
        0x0048620c      4e4f           trap 0xf
     > 0x0048620e      0682ffff8000   addi.l 0xffff8000, d2
         0x00486214      3c02           move.w d2, d6
         0x00486216      3439008190da   move.w 0x8190da, d2
         0x0048621c      48c2           ext.l d2
         0x0048621e      d480           add.l d0, d2
         0x00486220      5582           subq.l 0x2, d2
         0x00486222      0482ffff8000   subi.l 0xffff8000, d2
         0x00486228      0c820000ffff   cmpi.l 0xffff, d2
     < 0x0048622e      6302           bls.b 0x486232
        0x00486230      4e4f           trap 0xf
     > 0x00486232      0682ffff8000   addi.l 0xffff8000, d2
         0x00486238      3a02           move.w d2, d5
         0x0048623a      3039008190dc   move.w 0x8190dc, d0
         0x00486240      48c0           ext.l d0
         0x00486242      d081           add.l d1, d0
         0x00486244      5580           subq.l 0x2, d0
         0x00486246      0480ffff8000   subi.l 0xffff8000, d0
         0x0048624c      0c800000ffff   cmpi.l 0xffff, d0
     < 0x00486252      6302           bls.b 0x486256
        0x00486254      4e4f           trap 0xf
     > 0x00486256      0680ffff8000   addi.l 0xffff8000, d0
         0x0048625c      3d40ffe6       move.w d0, -0x1a(a6)
     < 0x00486260      6036           bra.b 0x486298
     > 0x00486262      3e39008190bc   move.w 0x8190bc, d7
         0x00486268      7c02           moveq 0x2, d6
         0x0048626a      3039008190bc   move.w 0x8190bc, d0
         0x00486270      48c0           ext.l d0
         0x00486272      4480           neg.l d0
         0x00486274      0680000002d0   addi.l 0x2d0, d0
         0x0048627a      0480ffff8000   subi.l 0xffff8000, d0
         0x00486280      0c800000ffff   cmpi.l 0xffff, d0
     < 0x00486286      6302           bls.b 0x48628a
        0x00486288      4e4f           trap 0xf
     > 0x0048628a      0680ffff8000   addi.l 0xffff8000, d0
         0x00486290      3a00           move.w d0, d5
         0x00486292      3d7c007effe6   move.w 0x7e, -0x1a(a6)
     > 0x00486298      30280006       move.w 0x6(a0), d0
          0x0048629c      48c0           ext.l d0
          0x0048629e      2200           move.l d0, d1
          0x004862a0      5581           subq.l 0x2, d1
          0x004862a2      0481ffff8000   subi.l 0xffff8000, d1
          0x004862a8      0c810000ffff   cmpi.l 0xffff, d1
      < 0x004862ae      6302           bls.b 0x4862b2
         0x004862b0      4e4f           trap 0xf
      > 0x004862b2      0681ffff8000   addi.l 0xffff8000, d1
          0x004862b8      3d41ffe8       move.w d1, -0x18(a6)
          0x004862bc      32280008       move.w 0x8(a0), d1
          0x004862c0      48c1           ext.l d1
          0x004862c2      2401           move.l d1, d2
          0x004862c4      5582           subq.l 0x2, d2
          0x004862c6      0482ffff8000   subi.l 0xffff8000, d2
          0x004862cc      0c820000ffff   cmpi.l 0xffff, d2
      < 0x004862d2      6302           bls.b 0x4862d6
         0x004862d4      4e4f           trap 0xf
      > 0x004862d6      0682ffff8000   addi.l 0xffff8000, d2
          0x004862dc      3d42ffea       move.w d2, -0x16(a6)
          0x004862e0      3428000a       move.w 0xa(a0), d2
          0x004862e4      48c2           ext.l d2
          0x004862e6      2602           move.l d2, d3
          0x004862e8      5883           addq.l 0x4, d3
          0x004862ea      0483ffff8000   subi.l 0xffff8000, d3
          0x004862f0      0c830000ffff   cmpi.l 0xffff, d3
      < 0x004862f6      6302           bls.b 0x4862fa
         0x004862f8      4e4f           trap 0xf
      > 0x004862fa      0683ffff8000   addi.l 0xffff8000, d3
          0x00486300      3d43ffec       move.w d3, -0x14(a6)
          0x00486304      3628000c       move.w 0xc(a0), d3
          0x00486308      48c3           ext.l d3
          0x0048630a      2803           move.l d3, d4
          0x0048630c      5884           addq.l 0x4, d4
          0x0048630e      0484ffff8000   subi.l 0xffff8000, d4
          0x00486314      0c840000ffff   cmpi.l 0xffff, d4
      < 0x0048631a      6302           bls.b 0x48631e
         0x0048631c      4e4f           trap 0xf
      > 0x0048631e      0684ffff8000   addi.l 0xffff8000, d4
          0x00486324      3d44ffee       move.w d4, -0x12(a6)
          0x00486328      182e0010       move.b 0x10(a6), d4
          0x0048632c      4884           ext.w d4
          0x0048632e      0c440004       cmpi.w 0x4, d4
      < 0x00486332      6302           bls.b 0x486336
         0x00486334      4e4e           trap 0xe
      > 0x00486336      d844           add.w d4, d4
          0x00486338      383b4006       move.w 0x486340(pc, d4.w), d4
          0x0048633c      4efb4002       jmp 0x486340(pc, d4.w)
           0x00486340      000a01e0       
           0x00486341      0a01e000       eori.b 0x0, d1
           0x00486345      e001           asr.b 0x8, d1
           0x00486347      8002           or.b d2, d0
           0x00486349      7a38           moveq 0x38, d5
           0x0048634b      1148c42f       
           0x0048634c      48c4           ext.l d4
           0x0048634e      2f04           move.l d4, -(a7)
           0x00486350      d880           add.l d0, d4
           0x00486352      48c7           ext.l d7
           0x00486354      b887           cmp.l d7, d4
       < 0x00486356      6c06           bge.b 0x48635e
          0x00486358      31470006       move.w d7, 0x6(a0)
      < 0x0048635c      6046           bra.b 0x4863a4
      > 0x0048635e      d082           add.l d2, d0
          0x00486360      2217           move.l (a7), d1
          0x00486362      d280           add.l d0, d1
          0x00486364      48c5           ext.l d5
          0x00486366      b285           cmp.l d5, d1
      < 0x00486368      6f20           ble.b 0x48638a
         0x0048636a      2005           move.l d5, d0
         0x0048636c      9082           sub.l d2, d0
         0x0048636e      0480ffff8000   subi.l 0xffff8000, d0
         0x00486374      0c800000ffff   cmpi.l 0xffff, d0
     < 0x0048637a      6302           bls.b 0x48637e
        0x0048637c      4e4f           trap 0xf
     > 0x0048637e      0680ffff8000   addi.l 0xffff8000, d0
         0x00486384      31400006       move.w d0, 0x6(a0)
     < 0x00486388      601a           bra.b 0x4863a4
     > 0x0048638a      0484ffff8000   subi.l 0xffff8000, d4
         0x00486390      0c840000ffff   cmpi.l 0xffff, d4
     < 0x00486396      6302           bls.b 0x48639a
        0x00486398      4e4f           trap 0xf
     > 0x0048639a      0684ffff8000   addi.l 0xffff8000, d4
         0x004863a0      31440006       move.w d4, 0x6(a0)
     > 0x004863a4      584f           addq.w 0x4, a7
           0x004863a6      38280008       move.w 0x8(a0), d4
           0x004863aa      48c4           ext.l d4
           0x004863ac      3012           move.w (a2), d0
           0x004863ae      48c0           ext.l d0
           0x004863b0      2f00           move.l d0, -(a7)
           0x004863b2      d084           add.l d4, d0
           0x004863b4      48c6           ext.l d6
           0x004863b6      b086           cmp.l d6, d0
       < 0x004863b8      6c06           bge.b 0x4863c0
          0x004863ba      31460008       move.w d6, 0x8(a0)
      < 0x004863be      605a           bra.b 0x48641a
      > 0x004863c0      3228000c       move.w 0xc(a0), d1
          0x004863c4      48c1           ext.l d1
          0x004863c6      2f01           move.l d1, -(a7)
          0x004863c8      d284           add.l d4, d1
          0x004863ca      242f0004       move.l 0x4(a7), d2
          0x004863ce      d481           add.l d1, d2
          0x004863d0      322effe6       move.w -0x1a(a6), d1
          0x004863d4      48c1           ext.l d1
          0x004863d6      b481           cmp.l d1, d2
      < 0x004863d8      6f24           ble.b 0x4863fe
         0x004863da      2417           move.l (a7), d2
         0x004863dc      4482           neg.l d2
         0x004863de      d481           add.l d1, d2
         0x004863e0      0482ffff8000   subi.l 0xffff8000, d2
         0x004863e6      0c820000ffff   cmpi.l 0xffff, d2
     < 0x004863ec      6302           bls.b 0x4863f0
        0x004863ee      4e4f           trap 0xf
     > 0x004863f0      0682ffff8000   addi.l 0xffff8000, d2
         0x004863f6      31420008       move.w d2, 0x8(a0)
         0x004863fa      584f           addq.w 0x4, a7
     < 0x004863fc      601c           bra.b 0x48641a
     > 0x004863fe      0480ffff8000   subi.l 0xffff8000, d0
         0x00486404      0c800000ffff   cmpi.l 0xffff, d0
     < 0x0048640a      6302           bls.b 0x48640e
        0x0048640c      4e4f           trap 0xf
     > 0x0048640e      0680ffff8000   addi.l 0xffff8000, d0
         0x00486414      31400008       move.w d0, 0x8(a0)
         0x00486418      584f           addq.w 0x4, a7
     > 0x0048641a      584f           addq.w 0x4, a7
      < 0x0048641c      600001fa       bra.w 0x486618
         0x00486420      3811           move.w (a1), d4
         0x00486422      48c4           ext.l d4
         0x00486424      2f04           move.l d4, -(a7)
         0x00486426      d880           add.l d0, d4
         0x00486428      48c7           ext.l d7
         0x0048642a      b887           cmp.l d7, d4
     < 0x0048642c      6c16           bge.b 0x486444
        0x0048642e      2807           move.l d7, d4
        0x00486430      9880           sub.l d0, d4
        0x00486432      0484ffff8000   subi.l 0xffff8000, d4
        0x00486438      0c840000ffff   cmpi.l 0xffff, d4
    < 0x0048643e      6302           bls.b 0x486442
       0x00486440      4e4f           trap 0xf
   > 0x00486442      6024           bra.b 0x486468
    > 0x00486444      2817           move.l (a7), d4
        0x00486446      4484           neg.l d4
        0x00486448      d882           add.l d2, d4
        0x0048644a      302e000a       move.w 0xa(a6), d0
        0x0048644e      48c0           ext.l d0
        0x00486450      b880           cmp.l d0, d4
    < 0x00486452      6c1c           bge.b 0x486470
       0x00486454      2802           move.l d2, d4
       0x00486456      9880           sub.l d0, d4
       0x00486458      0484ffff8000   subi.l 0xffff8000, d4
       0x0048645e      0c840000ffff   cmpi.l 0xffff, d4
   < 0x00486464      6302           bls.b 0x486468
      0x00486466      4e4f           trap 0xf
   > 0x00486468      0684ffff8000   addi.l 0xffff8000, d4
        0x0048646e      3284           move.w d4, (a1)
     > 0x00486470      584f           addq.w 0x4, a7
         0x00486472      38280006       move.w 0x6(a0), d4
         0x00486476      48c4           ext.l d4
         0x00486478      3011           move.w (a1), d0
         0x0048647a      48c0           ext.l d0
         0x0048647c      d880           add.l d0, d4
         0x0048647e      0484ffff8000   subi.l 0xffff8000, d4
         0x00486484      0c840000ffff   cmpi.l 0xffff, d4
     < 0x0048648a      6302           bls.b 0x48648e
        0x0048648c      4e4f           trap 0xf
     > 0x0048648e      0684ffff8000   addi.l 0xffff8000, d4
         0x00486494      31440006       move.w d4, 0x6(a0)
         0x00486498      3828000a       move.w 0xa(a0), d4
         0x0048649c      48c4           ext.l d4
         0x0048649e      4480           neg.l d0
         0x004864a0      d084           add.l d4, d0
         0x004864a2      0480ffff8000   subi.l 0xffff8000, d0
         0x004864a8      0c800000ffff   cmpi.l 0xffff, d0
     < 0x004864ae      6302           bls.b 0x4864b2
        0x004864b0      4e4f           trap 0xf
     > 0x004864b2      0680ffff8000   addi.l 0xffff8000, d0
         0x004864b8      3140000a       move.w d0, 0xa(a0)
     < 0x004864bc      6000015a       bra.w 0x486618
        0x004864c0      3811           move.w (a1), d4
        0x004864c2      48c4           ext.l d4
        0x004864c4      2f04           move.l d4, -(a7)
        0x004864c6      d882           add.l d2, d4
        0x004864c8      322e000a       move.w 0xa(a6), d1
        0x004864cc      48c1           ext.l d1
        0x004864ce      b881           cmp.l d1, d4
    < 0x004864d0      6c06           bge.b 0x4864d8
   > 0x004864d2      3141000a       move.w d1, 0xa(a0)
  < 0x004864d6      6044           bra.b 0x48651c
  > 0x004864d8      2200           move.l d0, d1
      0x004864da      d282           add.l d2, d1
      0x004864dc      2417           move.l (a7), d2
      0x004864de      d481           add.l d1, d2
      0x004864e0      48c5           ext.l d5
      0x004864e2      b485           cmp.l d5, d2
  < 0x004864e4      6f1c           ble.b 0x486502
     0x004864e6      2205           move.l d5, d1
     0x004864e8      9280           sub.l d0, d1
     0x004864ea      0481ffff8000   subi.l 0xffff8000, d1
     0x004864f0      0c810000ffff   cmpi.l 0xffff, d1
  < 0x004864f6      6302           bls.b 0x4864fa
     0x004864f8      4e4f           trap 0xf
  > 0x004864fa      0681ffff8000   addi.l 0xffff8000, d1
  < 0x00486500      60d0           bra.b 0x4864d2
   > 0x00486502      0484ffff8000   subi.l 0xffff8000, d4
       0x00486508      0c840000ffff   cmpi.l 0xffff, d4
   < 0x0048650e      6302           bls.b 0x486512
      0x00486510      4e4f           trap 0xf
   > 0x00486512      0684ffff8000   addi.l 0xffff8000, d4
       0x00486518      3144000a       move.w d4, 0xa(a0)
  < 0x0048651c      6000fefc       bra.w 0x48641a
         0x00486520      3012           move.w (a2), d0
         0x00486522      48c0           ext.l d0
         0x00486524      2401           move.l d1, d2
         0x00486526      d480           add.l d0, d2
         0x00486528      48c6           ext.l d6
         0x0048652a      b486           cmp.l d6, d2
     < 0x0048652c      6c16           bge.b 0x486544
        0x0048652e      2406           move.l d6, d2
        0x00486530      9481           sub.l d1, d2
        0x00486532      0482ffff8000   subi.l 0xffff8000, d2
        0x00486538      0c820000ffff   cmpi.l 0xffff, d2
    < 0x0048653e      6302           bls.b 0x486542
       0x00486540      4e4f           trap 0xf
   > 0x00486542      6022           bra.b 0x486566
    > 0x00486544      2403           move.l d3, d2
        0x00486546      9480           sub.l d0, d2
        0x00486548      382e0008       move.w 0x8(a6), d4
        0x0048654c      48c4           ext.l d4
        0x0048654e      b484           cmp.l d4, d2
    < 0x00486550      6c1c           bge.b 0x48656e
       0x00486552      2403           move.l d3, d2
       0x00486554      9484           sub.l d4, d2
       0x00486556      0482ffff8000   subi.l 0xffff8000, d2
       0x0048655c      0c820000ffff   cmpi.l 0xffff, d2
   < 0x00486562      6302           bls.b 0x486566
      0x00486564      4e4f           trap 0xf
   > 0x00486566      0682ffff8000   addi.l 0xffff8000, d2
        0x0048656c      3482           move.w d2, (a2)
     > 0x0048656e      30280008       move.w 0x8(a0), d0
         0x00486572      48c0           ext.l d0
         0x00486574      3412           move.w (a2), d2
         0x00486576      48c2           ext.l d2
         0x00486578      d082           add.l d2, d0
         0x0048657a      0480ffff8000   subi.l 0xffff8000, d0
         0x00486580      0c800000ffff   cmpi.l 0xffff, d0
     < 0x00486586      6302           bls.b 0x48658a
        0x00486588      4e4f           trap 0xf
     > 0x0048658a      0680ffff8000   addi.l 0xffff8000, d0
         0x00486590      31400008       move.w d0, 0x8(a0)
         0x00486594      3028000c       move.w 0xc(a0), d0
         0x00486598      48c0           ext.l d0
         0x0048659a      4482           neg.l d2
         0x0048659c      d480           add.l d0, d2
         0x0048659e      0482ffff8000   subi.l 0xffff8000, d2
         0x004865a4      0c820000ffff   cmpi.l 0xffff, d2
     < 0x004865aa      6302           bls.b 0x4865ae
        0x004865ac      4e4f           trap 0xf
     > 0x004865ae      0682ffff8000   addi.l 0xffff8000, d2
         0x004865b4      3142000c       move.w d2, 0xc(a0)
     < 0x004865b8      605e           bra.b 0x486618
        0x004865ba      3012           move.w (a2), d0
        0x004865bc      48c0           ext.l d0
        0x004865be      2403           move.l d3, d2
        0x004865c0      d480           add.l d0, d2
        0x004865c2      382e0008       move.w 0x8(a6), d4
        0x004865c6      48c4           ext.l d4
        0x004865c8      b484           cmp.l d4, d2
    < 0x004865ca      6c06           bge.b 0x4865d2
   > 0x004865cc      3144000c       move.w d4, 0xc(a0)
  < 0x004865d0      6046           bra.b 0x486618
  > 0x004865d2      2801           move.l d1, d4
      0x004865d4      d883           add.l d3, d4
      0x004865d6      d880           add.l d0, d4
      0x004865d8      302effe6       move.w -0x1a(a6), d0
      0x004865dc      48c0           ext.l d0
      0x004865de      b880           cmp.l d0, d4
  < 0x004865e0      6f1c           ble.b 0x4865fe
     0x004865e2      2800           move.l d0, d4
     0x004865e4      9881           sub.l d1, d4
     0x004865e6      0484ffff8000   subi.l 0xffff8000, d4
     0x004865ec      0c840000ffff   cmpi.l 0xffff, d4
  < 0x004865f2      6302           bls.b 0x4865f6
     0x004865f4      4e4f           trap 0xf
  > 0x004865f6      0684ffff8000   addi.l 0xffff8000, d4
  < 0x004865fc      60ce           bra.b 0x4865cc
   > 0x004865fe      0482ffff8000   subi.l 0xffff8000, d2
       0x00486604      0c820000ffff   cmpi.l 0xffff, d2
   < 0x0048660a      6302           bls.b 0x48660e
      0x0048660c      4e4f           trap 0xf
   > 0x0048660e      0682ffff8000   addi.l 0xffff8000, d2
       0x00486614      3142000c       move.w d2, 0xc(a0)
  > 0x00486618      30280006       move.w 0x6(a0), d0
           0x0048661c      48c0           ext.l d0
           0x0048661e      5580           subq.l 0x2, d0
           0x00486620      0480ffff8000   subi.l 0xffff8000, d0
           0x00486626      0c800000ffff   cmpi.l 0xffff, d0
       < 0x0048662c      6302           bls.b 0x486630
          0x0048662e      4e4f           trap 0xf
       > 0x00486630      0680ffff8000   addi.l 0xffff8000, d0
           0x00486636      3680           move.w d0, (a3)
           0x00486638      30280008       move.w 0x8(a0), d0
           0x0048663c      48c0           ext.l d0
           0x0048663e      5580           subq.l 0x2, d0
           0x00486640      0480ffff8000   subi.l 0xffff8000, d0
           0x00486646      0c800000ffff   cmpi.l 0xffff, d0
       < 0x0048664c      6302           bls.b 0x486650
          0x0048664e      4e4f           trap 0xf
       > 0x00486650      0680ffff8000   addi.l 0xffff8000, d0
           0x00486656      3d40fff2       move.w d0, -0xe(a6)
           0x0048665a      3028000a       move.w 0xa(a0), d0
           0x0048665e      48c0           ext.l d0
           0x00486660      5880           addq.l 0x4, d0
           0x00486662      0480ffff8000   subi.l 0xffff8000, d0
           0x00486668      0c800000ffff   cmpi.l 0xffff, d0
       < 0x0048666e      6302           bls.b 0x486672
          0x00486670      4e4f           trap 0xf
       > 0x00486672      0680ffff8000   addi.l 0xffff8000, d0
           0x00486678      3d40fff4       move.w d0, -0xc(a6)
           0x0048667c      3028000c       move.w 0xc(a0), d0
           0x00486680      48c0           ext.l d0
           0x00486682      5880           addq.l 0x4, d0
           0x00486684      0480ffff8000   subi.l 0xffff8000, d0
           0x0048668a      0c800000ffff   cmpi.l 0xffff, d0
       < 0x00486690      6302           bls.b 0x486694
          0x00486692      4e4f           trap 0xf
       > 0x00486694      0680ffff8000   addi.l 0xffff8000, d0
           0x0048669a      3d40fff6       move.w d0, -0xa(a6)
           0x0048669e      2f280032       move.l 0x32(a0), -(a7)
           0x004866a2      3f2e0012       move.w 0x12(a6), -(a7)
           0x004866a6      3f3c0003       move.w 0x3, -(a7)
           0x004866aa      4eb90047e700   jsr fcn.0047e700
           0x004866b0      5c4f           addq.w 0x6, a7
           0x004866b2      1ebc0003       move.b 0x3, (a7)
           0x004866b6      4227           clr.b -(a7)
           0x004866b8      4eb900522512   jsr BRUSHCOM.br_write_prot
           0x004866be      2eba80ec       move.l 0x47e7ac(pc), (a7)
           0x004866c2      3f3a80e6       move.w 0x47e7aa(pc), -(a7)
           0x004866c6      4eb900520fa4   jsr BRUSHCOM.set_br_colour
           0x004866cc      584f           addq.w 0x4, a7
           0x004866ce      1ebc0003       move.b 0x3, (a7)
           0x004866d2      1f3c0001       move.b 0x1, -(a7)
           0x004866d6      2f2efff4       move.l -0xc(a6), -(a7)
           0x004866da      2f13           move.l (a3), -(a7)
           0x004866dc      4eb9005213b4   jsr BRUSHCOM.br_wipe
           0x004866e2      504f           addq.w 0x8, a7
           0x004866e4      2eba8084       move.l 0x47e76a(pc), (a7)
           0x004866e8      3f3a807e       move.w 0x47e768(pc), -(a7)
           0x004866ec      4eb900520fa4   jsr BRUSHCOM.set_br_colour
           0x004866f2      5c4f           addq.w 0x6, a7
           0x004866f4      2d53fff8       move.l (a3), -0x8(a6)
           0x004866f8      2d6efff4fffc   move.l -0xc(a6), -0x4(a6)
           0x004866fe      3d7c0002fffe   move.w 0x2, -0x2(a6)
           0x00486704      1f3c0003       move.b 0x3, -(a7)
           0x00486708      4227           clr.b -(a7)
           0x0048670a      2f2efffc       move.l -0x4(a6), -(a7)
           0x0048670e      2f2efff8       move.l -0x8(a6), -(a7)
           0x00486712      4eb9005213b4   jsr BRUSHCOM.br_wipe
           0x00486718      defc000c       adda.w 0xc, a7
           0x0048671c      30280008       move.w 0x8(a0), d0
           0x00486720      48c0           ext.l d0
           0x00486722      3228000c       move.w 0xc(a0), d1
           0x00486726      48c1           ext.l d1
           0x00486728      d280           add.l d0, d1
           0x0048672a      0481ffff8000   subi.l 0xffff8000, d1
           0x00486730      0c810000ffff   cmpi.l 0xffff, d1
       < 0x00486736      6302           bls.b 0x48673a
          0x00486738      4e4f           trap 0xf
       > 0x0048673a      0681ffff8000   addi.l 0xffff8000, d1
           0x00486740      3d41fffa       move.w d1, -0x6(a6)
           0x00486744      1f3c0003       move.b 0x3, -(a7)
           0x00486748      4227           clr.b -(a7)
           0x0048674a      2f2efffc       move.l -0x4(a6), -(a7)
           0x0048674e      2f2efff8       move.l -0x8(a6), -(a7)
           0x00486752      4eb9005213b4   jsr BRUSHCOM.br_wipe
           0x00486758      defc000c       adda.w 0xc, a7
           0x0048675c      2d53fff8       move.l (a3), -0x8(a6)
           0x00486760      2d6efff4fffc   move.l -0xc(a6), -0x4(a6)
           0x00486766      3d7c0002fffc   move.w 0x2, -0x4(a6)
           0x0048676c      1f3c0003       move.b 0x3, -(a7)
           0x00486770      4227           clr.b -(a7)
           0x00486772      2f2efffc       move.l -0x4(a6), -(a7)
           0x00486776      2f2efff8       move.l -0x8(a6), -(a7)
           0x0048677a      4eb9005213b4   jsr BRUSHCOM.br_wipe
           0x00486780      defc000c       adda.w 0xc, a7
           0x00486784      30280006       move.w 0x6(a0), d0
           0x00486788      48c0           ext.l d0
           0x0048678a      3228000a       move.w 0xa(a0), d1
           0x0048678e      48c1           ext.l d1
           0x00486790      d280           add.l d0, d1
           0x00486792      0481ffff8000   subi.l 0xffff8000, d1
           0x00486798      0c810000ffff   cmpi.l 0xffff, d1
       < 0x0048679e      6302           bls.b 0x4867a2
          0x004867a0      4e4f           trap 0xf
       > 0x004867a2      0681ffff8000   addi.l 0xffff8000, d1
           0x004867a8      3d41fff8       move.w d1, -0x8(a6)
           0x004867ac      1f3c0003       move.b 0x3, -(a7)
           0x004867b0      4227           clr.b -(a7)
           0x004867b2      2f2efffc       move.l -0x4(a6), -(a7)
           0x004867b6      2f2efff8       move.l -0x8(a6), -(a7)
           0x004867ba      4eb9005213b4   jsr BRUSHCOM.br_wipe
           0x004867c0      504f           addq.w 0x8, a7
           0x004867c2      2eaeffec       move.l -0x14(a6), (a7)
           0x004867c6      2f2effe8       move.l -0x18(a6), -(a7)
           0x004867ca      2f2efff4       move.l -0xc(a6), -(a7)
           0x004867ce      2f13           move.l (a3), -(a7)
           0x004867d0      4267           clr.w -(a7)
           0x004867d2      2f390047e76a   move.l 0x47e76a, -(a7)
           0x004867d8      3f390047e768   move.w 0x47e768, -(a7)
           0x004867de      1f3c0003       move.b 0x3, -(a7)
           0x004867e2      4eb900525e26   jsr BRUSH1COM.br_tidy_wipe
           0x004867e8      defc0018       adda.w 0x18, a7
           0x004867ec      1ebc0003       move.b 0x3, (a7)
           0x004867f0      1f3c0001       move.b 0x1, -(a7)
           0x004867f4      4eb900522512   jsr BRUSHCOM.br_write_prot
           0x004867fa      2eaeffec       move.l -0x14(a6), (a7)
           0x004867fe      2f2effe8       move.l -0x18(a6), -(a7)
           0x00486802      49eeffe0       lea.l -0x20(a6), a4
           0x00486806      4ebaf74e       jsr 0x485f56(pc)
           0x0048680a      504f           addq.w 0x8, a7
        > 0x0048680c      4cdf1fff       movem.l (a7)+, d0-d7/a0-a4
            0x00486810      4e5e           unlk a6
            0x00486812      4e75           rts
            ; CALL XREF from MENUCOM.get_menu_flag @ 0x4868ce
            ; CALL XREF from MENUCOM.set_menu_flag @ 0x48695a
            ; CALL XREF from MENUCOM.def_box @ 0x4877e8
 46: MENUCOM.get_flag ();
           0x00486814      4e56fff2       link.w a6, 0xfff2
           0x00486818      bfd5           cmpa.l (a5), a7
       < 0x0048681a      6206           bhi.b 0x486822
          0x0048681c      44fc0002       move.w 0x2, ccr
          0x00486820      4e76           trapv
       > 0x00486822      defc000c       adda.w 0xc, a7
           0x00486826      48e78100       movem.l d0/d7, -(a7)
           0x0048682a      102e0008       move.b 0x8(a6), d0
           0x0048682e      4880           ext.w d0
           0x00486830      0c400013       cmpi.w 0x13, d0
       < 0x00486834      6302           bls.b 0x486838
          0x00486836      4e4e           trap 0xe
       > 0x00486838      d040           add.w d0, d0
           0x0048683a      303b0006       move.w 0x486842(pc, d0.w), d0
           0x0048683e      4efb0002       jmp 0x486842(pc, d0.w)
            0x00486842      0028002c0030   ori.b 0x2c, 0x30(a0)
            0x00486848      00340038003c   ori.b 0x38, 0x3c(a4, d0.w)
            0x0048684e      fff4           invalid
            0x00486850      00400044       ori.w 0x44, d0
            0x00486854      0048fff4       
            0x00486855      48fff4ff       
            0x00486856      fff4           invalid
            0x00486858      fff4           invalid
            0x0048685a      fff4           invalid
            0x0048685c      fff4           invalid
            0x0048685e      fff4           invalid
            0x00486860      fff4           invalid
            0x00486862      004c0050       
            0x00486863      4c005000       mulu.l d0, d5
            0x00486867      5400           addq.b 0x2, d0
            0x00486869      587e0660       
            0x0048686a      7e06           moveq 0x6, d7
        < 0x0048686c      602e           bra.b 0x48689c
           0x0048686e      7e08           moveq 0x8, d7
       < 0x00486870      602a           bra.b 0x48689c
          0x00486872      7e09           moveq 0x9, d7
      < 0x00486874      6026           bra.b 0x48689c
         0x00486876      7e0a           moveq 0xa, d7
     < 0x00486878      6022           bra.b 0x48689c
        0x0048687a      7e0b           moveq 0xb, d7
    < 0x0048687c      601e           bra.b 0x48689c
       0x0048687e      7e04           moveq 0x4, d7
   < 0x00486880      601a           bra.b 0x48689c
      0x00486882      7e0e           moveq 0xe, d7
  < 0x00486884      6016           bra.b 0x48689c
     0x00486886      7e0f           moveq 0xf, d7
  < 0x00486888      6012           bra.b 0x48689c
     0x0048688a      7e10           moveq 0x10, d7
  < 0x0048688c      600e           bra.b 0x48689c
     0x0048688e      7e05           moveq 0x5, d7
  < 0x00486890      600a           bra.b 0x48689c
     0x00486892      7e0c           moveq 0xc, d7
  < 0x00486894      6006           bra.b 0x48689c
     0x00486896      7e07           moveq 0x7, d7
  < 0x00486898      6002           bra.b 0x48689c
     0x0048689a      7e0d           moveq 0xd, d7
  > 0x0048689c      4887           ext.w d7
            0x0048689e      4fbc0010       chk.w 0x10, d7
            0x004868a2      1d47000a       move.b d7, 0xa(a6)
            0x004868a6      4cdf0081       movem.l (a7)+, d0/d7
            0x004868aa      4e5e           unlk a6
            0x004868ac      4e75           rts
            ; XREFS: CALL 0x0047bf9e  CALL 0x0047c2ac  CALL 0x0047c456  
            ; XREFS: CALL 0x0048ae90  CALL 0x0048b246  CALL 0x0048b41e  
            ; XREFS: CALL 0x0048b5d6  CALL 0x0048b7d4  CALL 0x0048bb3c  
            ; XREFS: CALL 0x0048c01e  CALL 0x0048c0c8  CALL 0x0048d844  
            ; XREFS: CALL 0x0048da14  CALL 0x004d16f0  CALL 0x004d1720  
            ; XREFS: CALL 0x004d7196  CALL 0x00637ce4  
 136: MENUCOM.get_menu_flag ();
           0x004868ae      4e56ffe6       link.w a6, 0xffe6
           0x004868b2      bfd5           cmpa.l (a5), a7
       < 0x004868b4      6206           bhi.b 0x4868bc
          0x004868b6      44fc0002       move.w 0x2, ccr
          0x004868ba      4e76           trapv
       > 0x004868bc      defc0018       adda.w 0x18, a7
           0x004868c0      48e7c0c0       movem.l d0-d1/a0-a1, -(a7)
           0x004868c4      43ee000c       lea.l 0xc(a6), a1
           0x004868c8      554f           subq.w 0x2, a7
           0x004868ca      1f2e0008       move.b 0x8(a6), -(a7)
           0x004868ce      4ebaff44       jsr MENUCOM.get_flag(pc)
           0x004868d2      544f           addq.w 0x2, a7
           0x004868d4      101f           move.b (a7)+, d0
           0x004868d6      4880           ext.w d0
           0x004868d8      41bc0010       chk.w 0x10, d0
           0x004868dc      1d40fffe       move.b d0, -0x2(a6)
           0x004868e0      4a6e000a       tst.w 0xa(a6)
       < 0x004868e4      661a           bne.b 0x486900
          0x004868e6      122e0008       move.b 0x8(a6), d1
          0x004868ea      0c010012       cmpi.b 0x12, d1
      < 0x004868ee      6610           bne.b 0x486900
         0x004868f0      1239008190e8   move.b 0x8190e8, d1
         0x004868f6      4881           ext.w d1
         0x004868f8      43bc0001       chk.w 0x1, d1
         0x004868fc      1281           move.b d1, (a1)
     < 0x004868fe      602e           bra.b 0x48692e
     > 0x00486900      4211           clr.b (a1)
          0x00486902      322e000a       move.w 0xa(a6), d1
          0x00486906      43bc1068       chk.w 0x1068, d1
          0x0048690a      48c1           ext.l d1
          0x0048690c      e581           asl.l 0x2, d1
          0x0048690e      41f9008101fe   lea.l 0x8101fe, a0
          0x00486914      20701800       movea.l (a0, d1.l), a0
          0x00486918      b1e8fffc       cmpa.l -0x4(a0), a0
      < 0x0048691c      6702           beq.b 0x486920
         0x0048691e      4e4d           trap 0xd
      > 0x00486920      4880           ext.w d0
          0x00486922      3200           move.w d0, d1
          0x00486924      e649           lsr.w 0x3, d1
          0x00486926      01301000       btst.l d0, (a0, d1.w)
      < 0x0048692a      6702           beq.b 0x48692e
         0x0048692c      5211           addq.b 0x1, (a1)
     > 0x0048692e      4cdf0303       movem.l (a7)+, d0-d1/a0-a1
           0x00486932      4e5e           unlk a6
           0x00486934      4e75           rts
            ; XREFS(22)
 280: MENUCOM.set_menu_flag ();
           0x00486936      4e56ffbc       link.w a6, 0xffbc
           0x0048693a      bfd5           cmpa.l (a5), a7
       < 0x0048693c      6206           bhi.b 0x486944
          0x0048693e      44fc0002       move.w 0x2, ccr
          0x00486942      4e76           trapv
       > 0x00486944      defc0042       adda.w 0x42, a7
           0x00486948      48e7f9e0       movem.l d0-d4/d7/a0-a2, -(a7)
           0x0048694c      45ee000a       lea.l 0xa(a6), a2
           0x00486950      7410           moveq 0x10, d2
           0x00486952      7601           moveq 0x1, d3
           0x00486954      780c           moveq 0xc, d4
           0x00486956      554f           subq.w 0x2, a7
           0x00486958      1f12           move.b (a2), -(a7)
           0x0048695a      4ebafeb8       jsr MENUCOM.get_flag(pc)
           0x0048695e      544f           addq.w 0x2, a7
           0x00486960      101f           move.b (a7)+, d0
           0x00486962      4880           ext.w d0
           0x00486964      4182           chk.w d2, d0
           0x00486966      1e00           move.b d0, d7
           0x00486968      4a39008190e6   tst.b 0x8190e6
       < 0x0048696e      6712           beq.b 0x486982
          0x00486970      4227           clr.b -(a7)
          0x00486972      1012           move.b (a2), d0
          0x00486974      b002           cmp.b d2, d0
      < 0x00486976      6d02           blt.b 0x48697a
         0x00486978      5217           addq.b 0x1, (a7)
      > 0x0048697a      4eb90040452a   jsr p_Assert
          0x00486980      544f           addq.w 0x2, a7
       > 0x00486982      4a6e000c       tst.w 0xc(a6)
       < 0x00486986      6614           bne.b 0x48699c
          0x00486988      1012           move.b (a2), d0
          0x0048698a      0c000012       cmpi.b 0x12, d0
      < 0x0048698e      660c           bne.b 0x48699c
         0x00486990      13ee00080081.  move.b 0x8(a6), 0x8190e8.l
     < 0x00486998      600000ac       bra.w 0x486a46
     > 0x0048699c      302e000c       move.w 0xc(a6), d0
          0x004869a0      0c401068       cmpi.w 0x1068, d0
      < 0x004869a4      6e04           bgt.b 0x4869aa
         0x004869a6      b043           cmp.w d3, d0
     < 0x004869a8      6c30           bge.b 0x4869da
     > 0x004869aa      487a8dcf       pea.l 0x47f77b(pc)
         0x004869ae      4878002c       pea.l 0x2c
         0x004869b2      2f17           move.l (a7), -(a7)
         0x004869b4      4eb9004047ea   jsr p_wts_o
         0x004869ba      dec4           adda.w d4, a7
         0x004869bc      48c0           ext.l d0
         0x004869be      2f00           move.l d0, -(a7)
         0x004869c0      48780000       pea.l 0x0
     > 0x004869c4      4eb9004070e4   jsr p_wti_o
        0x004869ca      504f           addq.w 0x8, a7
        0x004869cc      4eb900404946   jsr p_wtln_o
        0x004869d2      4eb900401620   jsr p_walkback
    < 0x004869d8      606c           bra.b 0x486a46
    > 0x004869da      41bc1068       chk.w 0x1068, d0
        0x004869de      48c0           ext.l d0
        0x004869e0      2200           move.l d0, d1
        0x004869e2      e581           asl.l 0x2, d1
        0x004869e4      41f9008101fe   lea.l 0x8101fe, a0
        0x004869ea      22701800       movea.l (a0, d1.l), a1
        0x004869ee      b2c3           cmpa.w d3, a1
    < 0x004869f0      661c           bne.b 0x486a0e
       0x004869f2      487a8db4       pea.l 0x47f7a8(pc)
       0x004869f6      48780026       pea.l 0x26
       0x004869fa      2f17           move.l (a7), -(a7)
       0x004869fc      4eb9004047ea   jsr p_wts_o
       0x00486a02      dec4           adda.w d4, a7
       0x00486a04      48c0           ext.l d0
       0x00486a06      2f00           move.l d0, -(a7)
       0x00486a08      4878000c       pea.l 0xc
    < 0x00486a0c      60b6           bra.b 0x4869c4
    > 0x00486a0e      b3e9fffc       cmpa.l -0x4(a1), a1
     < 0x00486a12      6702           beq.b 0x486a16
        0x00486a14      4e4d           trap 0xd
     > 0x00486a16      4a2e0008       tst.b 0x8(a6)
     < 0x00486a1a      6716           beq.b 0x486a32
        0x00486a1c      2f3a84e0       move.l 0x47eefe(pc), -(a7)
        0x00486a20      4887           ext.w d7
        0x00486a22      3207           move.w d7, d1
        0x00486a24      e649           lsr.w 0x3, d1
        0x00486a26      0ff71000       bset.b d7, (a7, d1.w)
        0x00486a2a      2211           move.l (a1), d1
        0x00486a2c      829f           or.l (a7)+, d1
        0x00486a2e      2281           move.l d1, (a1)
    < 0x00486a30      6014           bra.b 0x486a46
    > 0x00486a32      2f3a84ca       move.l 0x47eefe(pc), -(a7)
        0x00486a36      4887           ext.w d7
        0x00486a38      3207           move.w d7, d1
        0x00486a3a      e649           lsr.w 0x3, d1
        0x00486a3c      0ff71000       bset.b d7, (a7, d1.w)
        0x00486a40      221f           move.l (a7)+, d1
        0x00486a42      4681           not.l d1
        0x00486a44      c391           and.l d1, (a1)
    > 0x00486a46      4cdf079f       movem.l (a7)+, d0-d4/d7/a0-a2
           0x00486a4a      4e5e           unlk a6
           0x00486a4c      4e75           rts
            ; XREFS: CALL 0x004904f2  CALL 0x0049c28e  CALL 0x004d7752  
            ; XREFS: CALL 0x00638bae  CALL 0x00712054  CALL 0x00737b6a  
            ; XREFS: CALL 0x0076c306  
 48: MENUCOM.get_menu_grid ();
           0x00486a4e      4e56fff0       link.w a6, 0xfff0
           0x00486a52      bfd5           cmpa.l (a5), a7
       < 0x00486a54      6206           bhi.b 0x486a5c
          0x00486a56      44fc0002       move.w 0x2, ccr
          0x00486a5a      4e76           trapv
       > 0x00486a5c      defc0010       adda.w 0x10, a7
           0x00486a60      48e780c0       movem.l d0/a0-a1, -(a7)
           0x00486a64      206e0008       movea.l 0x8(a6), a0
           0x00486a68      43f9008190b4   lea.l 0x8190b4, a1
           0x00486a6e      7013           moveq 0x13, d0
       > 0x00486a70      10d9           move.b (a1)+, (a0)+
       < 0x00486a72      51c8fffc       dbra d0, 0x486a70
           0x00486a76      4cdf0301       movem.l (a7)+, d0/a0-a1
           0x00486a7a      4e5e           unlk a6
           0x00486a7c      4e75           rts
            ; XREFS: CALL 0x00486ad8  CALL 0x0048f292  CALL 0x0049c2dc  
            ; XREFS: CALL 0x004d7b6e  CALL 0x004d7dd4  CALL 0x00638c52  
            ; XREFS: CALL 0x0063946e  CALL 0x006398d4  CALL 0x0079ae4c  
            ; XREFS: CALL 0x007a04ec  
 48: MENUCOM.set_menu_grid ();
           0x00486a7e      4e56fff0       link.w a6, 0xfff0
           0x00486a82      bfd5           cmpa.l (a5), a7
       < 0x00486a84      6206           bhi.b 0x486a8c
          0x00486a86      44fc0002       move.w 0x2, ccr
          0x00486a8a      4e76           trapv
       > 0x00486a8c      defc0010       adda.w 0x10, a7
           0x00486a90      48e780c0       movem.l d0/a0-a1, -(a7)
           0x00486a94      41f9008190b4   lea.l 0x8190b4, a0
           0x00486a9a      43ee0008       lea.l 0x8(a6), a1
           0x00486a9e      7004           moveq 0x4, d0
       > 0x00486aa0      20d9           move.l (a1)+, (a0)+
       < 0x00486aa2      51c8fffc       dbra d0, 0x486aa0
           0x00486aa6      4cdf0301       movem.l (a7)+, d0/a0-a1
           0x00486aaa      4e5e           unlk a6
           0x00486aac      4e75           rts
            ; XREFS: CALL 0x00489b1a  CALL 0x00491350  CALL 0x004b196c  
            ; XREFS: CALL 0x004be89e  CALL 0x00505ee0  CALL 0x0079bbd8  
            ; XREFS: CALL 0x007a0b60  
 58: MENUCOM.set_std_menu_gr ();
           0x00486aae      4e56ffe0       link.w a6, 0xffe0
           0x00486ab2      bfd5           cmpa.l (a5), a7
       < 0x00486ab4      6206           bhi.b 0x486abc
          0x00486ab6      44fc0002       move.w 0x2, ccr
          0x00486aba      4e76           trapv
       > 0x00486abc      defc0020       adda.w 0x20, a7
           0x00486ac0      48e78080       movem.l d0/a0, -(a7)
           0x00486ac4      4eb900486ae8   jsr MENUCOM.clear_tabs_menu
           0x00486aca      41f90047e842   lea.l 0x47e842, a0
           0x00486ad0      7004           moveq 0x4, d0
       > 0x00486ad2      2f20           move.l -(a0), -(a7)
       < 0x00486ad4      51c8fffc       dbra d0, 0x486ad2
           0x00486ad8      4ebaffa4       jsr MENUCOM.set_menu_grid(pc)
           0x00486adc      defc0014       adda.w 0x14, a7
           0x00486ae0      4cdf0101       movem.l (a7)+, d0/a0
           0x00486ae4      4e5e           unlk a6
           0x00486ae6      4e75           rts
            ; CALL XREF from MENUCOM.set_std_menu_gr @ 0x486ac4
            ; CALL XREF from MENURIGHTCOM.set_right_grid_ @ 0x48f27e
            ; CALL XREF from MENUPASTECOM.men_pasteup_box @ 0x4b709c
            ; CALL XREF from MENULIBCOM.men_library_box @ 0x757614
 80: MENUCOM.clear_tabs_menu ();
           0x00486ae8      4e56ffec       link.w a6, 0xffec
           0x00486aec      bfd5           cmpa.l (a5), a7
       < 0x00486aee      6206           bhi.b 0x486af6
          0x00486af0      44fc0002       move.w 0x2, ccr
          0x00486af4      4e76           trapv
       > 0x00486af6      defc0010       adda.w 0x10, a7
           0x00486afa      48e78180       movem.l d0/d7/a0, -(a7)
           0x00486afe      7eec           moveq 0xec, d7
       > 0x00486b00      2007           move.l d7, d0
          0x00486b02      0480ffffffec   subi.l 0xffffffec, d0
          0x00486b08      0c80000005b4   cmpi.l 0x5b4, d0
      < 0x00486b0e      6302           bls.b 0x486b12
         0x00486b10      4e4f           trap 0xf
      > 0x00486b12      e380           asl.l 0x1, d0
          0x00486b14      41f9008101fe   lea.l 0x8101fe, a0
          0x00486b1a      41f00800       lea.l (a0, d0.l), a0
          0x00486b1e      d1fc0000834c   adda.l 0x834c, a0
          0x00486b24      4250           clr.w (a0)
          0x00486b26      5287           addq.l 0x1, d7
          0x00486b28      0c87000005a0   cmpi.l 0x5a0, d7
       < 0x00486b2e      6fd0           ble.b 0x486b00
           0x00486b30      4cdf0181       movem.l (a7)+, d0/d7/a0
           0x00486b34      4e5e           unlk a6
           0x00486b36      4e75           rts
            ; CALL XREF from MENURIGHTCOM.setup_tabs @ 0x48f258
            ; CALL XREF from MENUPASTECOM.setup_tabs @ 0x4b544e
            ; CALL XREFS from MENULIBCOM.setup_tabs @ 0x75675a, 0x756786
            ; CALL XREF from MENULIBCOM.setup_fnd_tabs @ 0x7567de
 84: MENUCOM.add_menu_tab ();
           0x00486b38      4e56fff4       link.w a6, 0xfff4
           0x00486b3c      bfd5           cmpa.l (a5), a7
       < 0x00486b3e      6206           bhi.b 0x486b46
          0x00486b40      44fc0002       move.w 0x2, ccr
          0x00486b44      4e76           trapv
       > 0x00486b46      defc000c       adda.w 0xc, a7
           0x00486b4a      48e78080       movem.l d0/a0, -(a7)
           0x00486b4e      202e000c       move.l 0xc(a6), d0
           0x00486b52      0480ffffffec   subi.l 0xffffffec, d0
           0x00486b58      0c80000005b4   cmpi.l 0x5b4, d0
       < 0x00486b5e      6302           bls.b 0x486b62
          0x00486b60      4e4f           trap 0xf
       > 0x00486b62      e380           asl.l 0x1, d0
           0x00486b64      41f9008101fe   lea.l 0x8101fe, a0
           0x00486b6a      41f00800       lea.l (a0, d0.l), a0
           0x00486b6e      d1fc0000834c   adda.l 0x834c, a0
           0x00486b74      202e0008       move.l 0x8(a6), d0
           0x00486b78      0c800000ffff   cmpi.l 0xffff, d0
       < 0x00486b7e      6302           bls.b 0x486b82
          0x00486b80      4e4f           trap 0xf
       > 0x00486b82      3080           move.w d0, (a0)
           0x00486b84      4cdf0101       movem.l (a7)+, d0/a0
           0x00486b88      4e5e           unlk a6
           0x00486b8a      4e75           rts
            ; XREFS: CALL 0x004ab696  CALL 0x004ab6b8  CALL 0x004be45a  
            ; XREFS: CALL 0x004be4ba  CALL 0x00737e5e  CALL 0x00737eca  
            ; XREFS: CALL 0x007535d6  CALL 0x00753674  CALL 0x007537e6  
            ; XREFS: CALL 0x00753870  CALL 0x00753cc2  CALL 0x00753d32  
 88: MENUCOM.grid_xpos ();
           0x00486b8c      4e56fff0       link.w a6, 0xfff0
           0x00486b90      bfd5           cmpa.l (a5), a7
       < 0x00486b92      6206           bhi.b 0x486b9a
          0x00486b94      44fc0002       move.w 0x2, ccr
          0x00486b98      4e76           trapv
       > 0x00486b9a      defc0010       adda.w 0x10, a7
           0x00486b9e      48e71800       movem.l d3-d4, -(a7)
           0x00486ba2      3839008190b4   move.w 0x8190b4, d4
           0x00486ba8      48c4           ext.l d4
           0x00486baa      4eb900408686   jsr fcn.00408686
           0x00486bb0      262e0008       move.l 0x8(a6), d3
           0x00486bb4      4eb900407e92   jsr fcn.00407e92
           0x00486bba      4eb900408224   jsr fcn.00408224
           0x00486bc0      4484           neg.l d4
           0x00486bc2      0484ffff8000   subi.l 0xffff8000, d4
           0x00486bc8      0c840000ffff   cmpi.l 0xffff, d4
       < 0x00486bce      6302           bls.b 0x486bd2
          0x00486bd0      4e4f           trap 0xf
       > 0x00486bd2      0684ffff8000   addi.l 0xffff8000, d4
           0x00486bd8      3d44000c       move.w d4, 0xc(a6)
           0x00486bdc      4cdf0018       movem.l (a7)+, d3-d4
           0x00486be0      4e5e           unlk a6
           0x00486be2      4e75           rts
 96: MENUCOM.grid_xoffpos ();
           0x00486be4      4e56ffec       link.w a6, 0xffec
           0x00486be8      bfd5           cmpa.l (a5), a7
       < 0x00486bea      6206           bhi.b 0x486bf2
          0x00486bec      44fc0002       move.w 0x2, ccr
          0x00486bf0      4e76           trapv
       > 0x00486bf2      defc0014       adda.w 0x14, a7
           0x00486bf6      48e79800       movem.l d0/d3-d4, -(a7)
           0x00486bfa      3839008190b4   move.w 0x8190b4, d4
           0x00486c00      48c4           ext.l d4
           0x00486c02      4eb900408686   jsr fcn.00408686
           0x00486c08      262e0008       move.l 0x8(a6), d3
           0x00486c0c      4eb900407e92   jsr fcn.00407e92
           0x00486c12      4eb900408224   jsr fcn.00408224
           0x00486c18      3039008190b8   move.w 0x8190b8, d0
           0x00486c1e      48c0           ext.l d0
           0x00486c20      d084           add.l d4, d0
           0x00486c22      0480ffff8000   subi.l 0xffff8000, d0
           0x00486c28      0c800000ffff   cmpi.l 0xffff, d0
       < 0x00486c2e      6302           bls.b 0x486c32
          0x00486c30      4e4f           trap 0xf
       > 0x00486c32      0680ffff8000   addi.l 0xffff8000, d0
           0x00486c38      3d40000c       move.w d0, 0xc(a6)
           0x00486c3c      4cdf0019       movem.l (a7)+, d0/d3-d4
           0x00486c40      4e5e           unlk a6
           0x00486c42      4e75           rts
            ; XREFS: CALL 0x004be46c  CALL 0x004be4cc  CALL 0x00737e72  
            ; XREFS: CALL 0x00737ede  CALL 0x007535ea  CALL 0x00753688  
            ; XREFS: CALL 0x007537fa  CALL 0x00753884  CALL 0x00753cd6  
            ; XREFS: CALL 0x00753d46  
 98: MENUCOM.grid_xlen ();
           0x00486c44      4e56ffec       link.w a6, 0xffec
           0x00486c48      bfd5           cmpa.l (a5), a7
       < 0x00486c4a      6206           bhi.b 0x486c52
          0x00486c4c      44fc0002       move.w 0x2, ccr
          0x00486c50      4e76           trapv
       > 0x00486c52      defc0014       adda.w 0x14, a7
           0x00486c56      48e79800       movem.l d0/d3-d4, -(a7)
           0x00486c5a      3839008190b4   move.w 0x8190b4, d4
           0x00486c60      48c4           ext.l d4
           0x00486c62      4eb900408686   jsr fcn.00408686
           0x00486c68      262e0008       move.l 0x8(a6), d3
           0x00486c6c      4eb900407e92   jsr fcn.00407e92
           0x00486c72      4eb900408224   jsr fcn.00408224
           0x00486c78      3039008190bc   move.w 0x8190bc, d0
           0x00486c7e      48c0           ext.l d0
           0x00486c80      4480           neg.l d0
           0x00486c82      d084           add.l d4, d0
           0x00486c84      0480ffff8000   subi.l 0xffff8000, d0
           0x00486c8a      0c800000ffff   cmpi.l 0xffff, d0
       < 0x00486c90      6302           bls.b 0x486c94
          0x00486c92      4e4f           trap 0xf
       > 0x00486c94      0680ffff8000   addi.l 0xffff8000, d0
           0x00486c9a      3d40000c       move.w d0, 0xc(a6)
           0x00486c9e      4cdf0019       movem.l (a7)+, d0/d3-d4
           0x00486ca2      4e5e           unlk a6
           0x00486ca4      4e75           rts
 88: MENUCOM.grid_ypos ();
           0x00486ca6      4e56fff0       link.w a6, 0xfff0
           0x00486caa      bfd5           cmpa.l (a5), a7
       < 0x00486cac      6206           bhi.b 0x486cb4
          0x00486cae      44fc0002       move.w 0x2, ccr
          0x00486cb2      4e76           trapv
       > 0x00486cb4      defc0010       adda.w 0x10, a7
           0x00486cb8      48e71800       movem.l d3-d4, -(a7)
           0x00486cbc      3839008190b6   move.w 0x8190b6, d4
           0x00486cc2      48c4           ext.l d4
           0x00486cc4      4eb900408686   jsr fcn.00408686
           0x00486cca      262e0008       move.l 0x8(a6), d3
           0x00486cce      4eb900407e92   jsr fcn.00407e92
           0x00486cd4      4eb900408224   jsr fcn.00408224
           0x00486cda      4484           neg.l d4
           0x00486cdc      0484ffff8000   subi.l 0xffff8000, d4
           0x00486ce2      0c840000ffff   cmpi.l 0xffff, d4
       < 0x00486ce8      6302           bls.b 0x486cec
          0x00486cea      4e4f           trap 0xf
       > 0x00486cec      0684ffff8000   addi.l 0xffff8000, d4
           0x00486cf2      3d44000c       move.w d4, 0xc(a6)
           0x00486cf6      4cdf0018       movem.l (a7)+, d3-d4
           0x00486cfa      4e5e           unlk a6
           0x00486cfc      4e75           rts
 96: MENUCOM.grid_yoffpos ();
           0x00486cfe      4e56ffec       link.w a6, 0xffec
           0x00486d02      bfd5           cmpa.l (a5), a7
       < 0x00486d04      6206           bhi.b 0x486d0c
          0x00486d06      44fc0002       move.w 0x2, ccr
          0x00486d0a      4e76           trapv
       > 0x00486d0c      defc0014       adda.w 0x14, a7
           0x00486d10      48e79800       movem.l d0/d3-d4, -(a7)
           0x00486d14      3839008190b6   move.w 0x8190b6, d4
           0x00486d1a      48c4           ext.l d4
           0x00486d1c      4eb900408686   jsr fcn.00408686
           0x00486d22      262e0008       move.l 0x8(a6), d3
           0x00486d26      4eb900407e92   jsr fcn.00407e92
           0x00486d2c      4eb900408224   jsr fcn.00408224
           0x00486d32      3039008190ba   move.w 0x8190ba, d0
           0x00486d38      48c0           ext.l d0
           0x00486d3a      d084           add.l d4, d0
           0x00486d3c      0480ffff8000   subi.l 0xffff8000, d0
           0x00486d42      0c800000ffff   cmpi.l 0xffff, d0
       < 0x00486d48      6302           bls.b 0x486d4c
          0x00486d4a      4e4f           trap 0xf
       > 0x00486d4c      0680ffff8000   addi.l 0xffff8000, d0
           0x00486d52      3d40000c       move.w d0, 0xc(a6)
           0x00486d56      4cdf0019       movem.l (a7)+, d0/d3-d4
           0x00486d5a      4e5e           unlk a6
           0x00486d5c      4e75           rts
 98: MENUCOM.grid_ylen ();
           0x00486d5e      4e56ffec       link.w a6, 0xffec
           0x00486d62      bfd5           cmpa.l (a5), a7
       < 0x00486d64      6206           bhi.b 0x486d6c
          0x00486d66      44fc0002       move.w 0x2, ccr
          0x00486d6a      4e76           trapv
       > 0x00486d6c      defc0014       adda.w 0x14, a7
           0x00486d70      48e79800       movem.l d0/d3-d4, -(a7)
           0x00486d74      3839008190b6   move.w 0x8190b6, d4
           0x00486d7a      48c4           ext.l d4
           0x00486d7c      4eb900408686   jsr fcn.00408686
           0x00486d82      262e0008       move.l 0x8(a6), d3
           0x00486d86      4eb900407e92   jsr fcn.00407e92
           0x00486d8c      4eb900408224   jsr fcn.00408224
           0x00486d92      3039008190be   move.w 0x8190be, d0
           0x00486d98      48c0           ext.l d0
           0x00486d9a      4480           neg.l d0
           0x00486d9c      d084           add.l d4, d0
           0x00486d9e      0480ffff8000   subi.l 0xffff8000, d0
           0x00486da4      0c800000ffff   cmpi.l 0xffff, d0
       < 0x00486daa      6302           bls.b 0x486dae
          0x00486dac      4e4f           trap 0xf
       > 0x00486dae      0680ffff8000   addi.l 0xffff8000, d0
           0x00486db4      3d40000c       move.w d0, 0xc(a6)
           0x00486db8      4cdf0019       movem.l (a7)+, d0/d3-d4
           0x00486dbc      4e5e           unlk a6
           0x00486dbe      4e75           rts
            ; CALL XREF from CNTLCOM.set_fp @ 0x47de1c
 116: MENUCOM.fp_menu_redraw ();
           0x00486dc0      4e56ffda       link.w a6, 0xffda
           0x00486dc4      bfd5           cmpa.l (a5), a7
       < 0x00486dc6      6206           bhi.b 0x486dce
          0x00486dc8      44fc0002       move.w 0x2, ccr
          0x00486dcc      4e76           trapv
       > 0x00486dce      defc0022       adda.w 0x22, a7
           0x00486dd2      48e781c0       movem.l d0/d7/a0-a1, -(a7)
           0x00486dd6      7e01           moveq 0x1, d7
       > 0x00486dd8      0c8700001068   cmpi.l 0x1068, d7
      < 0x00486dde      6302           bls.b 0x486de2
         0x00486de0      4e4f           trap 0xf
      > 0x00486de2      2007           move.l d7, d0
          0x00486de4      e580           asl.l 0x2, d0
          0x00486de6      41f9008101fe   lea.l 0x8101fe, a0
          0x00486dec      22700800       movea.l (a0, d0.l), a1
          0x00486df0      b2fc0001       cmpa.w 0x1, a1
      < 0x00486df4      672c           beq.b 0x486e22
         0x00486df6      b3e9fffc       cmpa.l -0x4(a1), a1
     < 0x00486dfa      6702           beq.b 0x486dfe
        0x00486dfc      4e4d           trap 0xd
     > 0x00486dfe      08110004       btst.b 0x4, (a1)
     < 0x00486e02      671e           beq.b 0x486e22
        0x00486e04      0487ffff8000   subi.l 0xffff8000, d7
        0x00486e0a      0c870000ffff   cmpi.l 0xffff, d7
    < 0x00486e10      6302           bls.b 0x486e14
       0x00486e12      4e4f           trap 0xf
    > 0x00486e14      0687ffff8000   addi.l 0xffff8000, d7
        0x00486e1a      3f07           move.w d7, -(a7)
        0x00486e1c      4ebaa654       jsr MENUCOM.draw_box(pc)
        0x00486e20      544f           addq.w 0x2, a7
     > 0x00486e22      5287           addq.l 0x1, d7
          0x00486e24      0c8700001068   cmpi.l 0x1068, d7
       < 0x00486e2a      6fac           ble.b 0x486dd8
           0x00486e2c      4cdf0381       movem.l (a7)+, d0/d7/a0-a1
           0x00486e30      4e5e           unlk a6
           0x00486e32      4e75           rts
            ; CALL XREF from PALETCOM @ +0x2dfa
 180: MENUCOM.redraw_all_boxe ();
           0x00486e34      4e56ffd8       link.w a6, 0xffd8
           0x00486e38      bfd5           cmpa.l (a5), a7
       < 0x00486e3a      6206           bhi.b 0x486e42
          0x00486e3c      44fc0002       move.w 0x2, ccr
          0x00486e40      4e76           trapv
       > 0x00486e42      defc0024       adda.w 0x24, a7
           0x00486e46      48e7e088       movem.l d0-d2/a0/a4, -(a7)
           0x00486e4a      7203           moveq 0x3, d1
           0x00486e4c      7401           moveq 0x1, d2
           0x00486e4e      1f01           move.b d1, -(a7)
           0x00486e50      4227           clr.b -(a7)
           0x00486e52      4eb900522512   jsr BRUSHCOM.br_write_prot
           0x00486e58      544f           addq.w 0x2, a7
           0x00486e5a      4257           clr.w (a7)
           0x00486e5c      2f390047e76a   move.l 0x47e76a, -(a7)
           0x00486e62      3f390047e768   move.w 0x47e768, -(a7)
           0x00486e68      4eb900520fe8   jsr BRUSHCOM.set_br_key_colo
           0x00486e6e      5c4f           addq.w 0x6, a7
           0x00486e70      1e81           move.b d1, (a7)
           0x00486e72      1f3c0004       move.b 0x4, -(a7)
           0x00486e76      2f39008190e2   move.l 0x8190e2, -(a7)
           0x00486e7c      2f39008190de   move.l 0x8190de, -(a7)
           0x00486e82      4eb9005213b4   jsr BRUSHCOM.br_wipe
           0x00486e88      defc000a       adda.w 0xa, a7
           0x00486e8c      1e81           move.b d1, (a7)
           0x00486e8e      1f02           move.b d2, -(a7)
           0x00486e90      4eb900522512   jsr BRUSHCOM.br_write_prot
           0x00486e96      584f           addq.w 0x4, a7
           0x00486e98      1039008190e8   move.b 0x8190e8, d0
           0x00486e9e      4880           ext.w d0
           0x00486ea0      4182           chk.w d2, d0
           0x00486ea2      e540           asl.w 0x2, d0
           0x00486ea4      41f9008101fe   lea.l 0x8101fe, a0
           0x00486eaa      41f00000       lea.l (a0, d0.w), a0
           0x00486eae      d1fc00008ef6   adda.l 0x8ef6, a0
           0x00486eb4      2850           movea.l (a0), a4
       > 0x00486eb6      b8c2           cmpa.w d2, a4
      < 0x00486eb8      6726           beq.b 0x486ee0
         0x00486eba      b9ecfffc       cmpa.l -0x4(a4), a4
     < 0x00486ebe      6702           beq.b 0x486ec2
        0x00486ec0      4e4d           trap 0xd
     > 0x00486ec2      203c0e000000   move.l 0xe000000, d0
         0x00486ec8      c094           and.l (a4), d0
         0x00486eca      b0ba8906       cmp.l 0x47f7d2(pc), d0
     < 0x00486ece      660a           bne.b 0x486eda
        0x00486ed0      3f2c0016       move.w 0x16(a4), -(a7)
        0x00486ed4      4ebaa59c       jsr MENUCOM.draw_box(pc)
        0x00486ed8      544f           addq.w 0x2, a7
     > 0x00486eda      286c0026       movea.l 0x26(a4), a4
      < 0x00486ede      60d6           bra.b 0x486eb6
      > 0x00486ee0      4cdf1107       movem.l (a7)+, d0-d2/a0/a4
           0x00486ee4      4e5e           unlk a6
           0x00486ee6      4e75           rts
            ; CALL XREF from MENUARTISTCOM.hit_menu_top @ 0x4e0c82
 172: MENUCOM.move_boxes ();
           0x00486ee8      4e56ffca       link.w a6, 0xffca
           0x00486eec      bfd5           cmpa.l (a5), a7
       < 0x00486eee      6206           bhi.b 0x486ef6
          0x00486ef0      44fc0002       move.w 0x2, ccr
          0x00486ef4      4e76           trapv
       > 0x00486ef6      defc0032       adda.w 0x32, a7
           0x00486efa      48e7c3e0       movem.l d0-d1/d6-d7/a0-a2, -(a7)
           0x00486efe      45f9008190d8   lea.l 0x8190d8, a2
           0x00486f04      223cffff8000   move.l 0xffff8000, d1
           0x00486f0a      4a2e0008       tst.b 0x8(a6)
       < 0x00486f0e      6706           beq.b 0x486f16
          0x00486f10      3c3c0080       move.w 0x80, d6
      < 0x00486f14      6002           bra.b 0x486f18
      > 0x00486f16      7c80           moveq 0x80, d6
      > 0x00486f18      3f39008143a2   move.w 0x8143a2, -(a7)
           0x00486f1e      7e01           moveq 0x1, d7
       > 0x00486f20      be57           cmp.w (a7), d7
      < 0x00486f22      6e4e           bgt.b 0x486f72
         0x00486f24      4fbc1068       chk.w 0x1068, d7
         0x00486f28      48c7           ext.l d7
         0x00486f2a      2007           move.l d7, d0
         0x00486f2c      e580           asl.l 0x2, d0
         0x00486f2e      41f9008101fe   lea.l 0x8101fe, a0
         0x00486f34      22700800       movea.l (a0, d0.l), a1
         0x00486f38      b2fc0001       cmpa.w 0x1, a1
     < 0x00486f3c      6730           beq.b 0x486f6e
        0x00486f3e      b3e9fffc       cmpa.l -0x4(a1), a1
    < 0x00486f42      6702           beq.b 0x486f46
       0x00486f44      4e4d           trap 0xd
    > 0x00486f46      08110004       btst.b 0x4, (a1)
    < 0x00486f4a      6722           beq.b 0x486f6e
       0x00486f4c      4a690008       tst.w 0x8(a1)
   < 0x00486f50      6d1c           blt.b 0x486f6e
      0x00486f52      30290008       move.w 0x8(a1), d0
      0x00486f56      48c0           ext.l d0
      0x00486f58      48c6           ext.l d6
      0x00486f5a      d086           add.l d6, d0
      0x00486f5c      9081           sub.l d1, d0
      0x00486f5e      0c800000ffff   cmpi.l 0xffff, d0
  < 0x00486f64      6302           bls.b 0x486f68
     0x00486f66      4e4f           trap 0xf
  > 0x00486f68      d081           add.l d1, d0
      0x00486f6a      33400008       move.w d0, 0x8(a1)
   > 0x00486f6e      5247           addq.w 0x1, d7
      < 0x00486f70      68ae           bvc.b 0x486f20
      > 0x00486f72      544f           addq.w 0x2, a7
           0x00486f74      3012           move.w (a2), d0
           0x00486f76      48c0           ext.l d0
           0x00486f78      48c6           ext.l d6
           0x00486f7a      d086           add.l d6, d0
           0x00486f7c      9081           sub.l d1, d0
           0x00486f7e      0c800000ffff   cmpi.l 0xffff, d0
       < 0x00486f84      6302           bls.b 0x486f88
          0x00486f86      4e4f           trap 0xf
       > 0x00486f88      d081           add.l d1, d0
           0x00486f8a      3480           move.w d0, (a2)
           0x00486f8c      4cdf07c3       movem.l (a7)+, d0-d1/d6-d7/a0-a2
           0x00486f90      4e5e           unlk a6
           0x00486f92      4e75           rts
            ; XREFS(146)
 486: MENUCOM.add_slave (int32_t arg_4h);
           ; arg int32_t arg_4h @ a6+0x4
           0x00486f94      4e56ffa8       link.w a6, 0xffa8
           0x00486f98      bfd5           cmpa.l (a5), a7
       < 0x00486f9a      6206           bhi.b 0x486fa2
          0x00486f9c      44fc0002       move.w 0x2, ccr
          0x00486fa0      4e76           trapv
       > 0x00486fa2      defc0054       adda.w 0x54, a7
           0x00486fa6      48e7f8f8       movem.l d0-d4/a0-a4, -(a7)
           0x00486faa      47f9008143a2   lea.l 0x8143a2, a3
           0x00486fb0      49f9004047ea   lea.l p_wts_o, a4
           0x00486fb6      7601           moveq 0x1, d3
           0x00486fb8      780c           moveq 0xc, d4
           0x00486fba      302e000a       move.w 0xa(a6), d0
           0x00486fbe      b043           cmp.w d3, d0
       < 0x00486fc0      6d04           blt.b 0x486fc6
          0x00486fc2      b053           cmp.w (a3), d0
      < 0x00486fc4      6f36           ble.b 0x486ffc
      > 0x00486fc6      487a880f       pea.l 0x47f7d7(pc)
          0x00486fca      48780012       pea.l 0x12
          0x00486fce      2f17           move.l (a7), -(a7)
          0x00486fd0      4e94           jsr (a4)                    ; fcn.0000000d
          0x00486fd2      dec4           adda.w d4, a7
          0x00486fd4      322e0008       move.w 0x8(a6), d1
          0x00486fd8      48c1           ext.l d1
          0x00486fda      2f01           move.l d1, -(a7)
          0x00486fdc      48780000       pea.l 0x0
          0x00486fe0      4eb9004070e4   jsr p_wti_o
          0x00486fe6      504f           addq.w 0x8, a7
          0x00486fe8      487a8800       pea.l 0x47f7ea(pc)
          0x00486fec      48780018       pea.l 0x18
          0x00486ff0      2f17           move.l (a7), -(a7)
          0x00486ff2      4e94           jsr (a4)                    ; fcn.0000000d
          0x00486ff4      dec4           adda.w d4, a7
          0x00486ff6      4eb900404946   jsr p_wtln_o
      > 0x00486ffc      322e0008       move.w 0x8(a6), d1
           0x00487000      b243           cmp.w d3, d1
       < 0x00487002      6d04           blt.b 0x487008
          0x00487004      b253           cmp.w (a3), d1
      < 0x00487006      6f24           ble.b 0x48702c
      > 0x00487008      487a87f9       pea.l 0x47f803(pc)
          0x0048700c      4878002a       pea.l 0x2a
          0x00487010      2f17           move.l (a7), -(a7)
          0x00487012      4e94           jsr (a4)                    ; fcn.0000000d
          0x00487014      dec4           adda.w d4, a7
          0x00487016      48c0           ext.l d0
          0x00487018      2f00           move.l d0, -(a7)
          0x0048701a      48780000       pea.l 0x0
          0x0048701e      4eb9004070e4   jsr p_wti_o
          0x00487024      504f           addq.w 0x8, a7
          0x00487026      4eb900404946   jsr p_wtln_o
      > 0x0048702c      43bc1068       chk.w 0x1068, d1
           0x00487030      48c1           ext.l d1
           0x00487032      2401           move.l d1, d2
           0x00487034      e582           asl.l 0x2, d2
           0x00487036      41f9008101fe   lea.l 0x8101fe, a0
           0x0048703c      22702800       movea.l (a0, d2.l), a1
           0x00487040      b2c3           cmpa.w d3, a1
       < 0x00487042      6642           bne.b 0x487086
          0x00487044      487a87e8       pea.l 0x47f82e(pc)
          0x00487048      48780016       pea.l 0x16
          0x0048704c      2f17           move.l (a7), -(a7)
          0x0048704e      4e94           jsr (a4)                    ; fcn.0000000d
          0x00487050      dec4           adda.w d4, a7
          0x00487052      48c1           ext.l d1
          0x00487054      2f01           move.l d1, -(a7)
          0x00487056      48780000       pea.l 0x0
          0x0048705a      4eb9004070e4   jsr p_wti_o
          0x00487060      504f           addq.w 0x8, a7
          0x00487062      487a87e1       pea.l 0x47f845(pc)
          0x00487066      4878000f       pea.l 0xf
          0x0048706a      2f17           move.l (a7), -(a7)
          0x0048706c      4e94           jsr (a4)                    ; fcn.0000000d
          0x0048706e      dec4           adda.w d4, a7
          0x00487070      48c0           ext.l d0
          0x00487072      2f00           move.l d0, -(a7)
          0x00487074      48780000       pea.l 0x0
          0x00487078      4eb9004070e4   jsr p_wti_o
          0x0048707e      504f           addq.w 0x8, a7
          0x00487080      4eb900404946   jsr p_wtln_o
       > 0x00487086      41bc1068       chk.w 0x1068, d0
           0x0048708a      48c0           ext.l d0
           0x0048708c      2400           move.l d0, d2
           0x0048708e      e582           asl.l 0x2, d2
           0x00487090      41f9008101fe   lea.l 0x8101fe, a0
           0x00487096      24702800       movea.l (a0, d2.l), a2
           0x0048709a      b4c3           cmpa.w d3, a2
       < 0x0048709c      6642           bne.b 0x4870e0
          0x0048709e      487a87b5       pea.l 0x47f855(pc)
          0x004870a2      48780012       pea.l 0x12
          0x004870a6      2f17           move.l (a7), -(a7)
          0x004870a8      4e94           jsr (a4)                    ; fcn.0000000d
          0x004870aa      dec4           adda.w d4, a7
          0x004870ac      48c1           ext.l d1
          0x004870ae      2f01           move.l d1, -(a7)
          0x004870b0      48780000       pea.l 0x0
          0x004870b4      4eb9004070e4   jsr p_wti_o
          0x004870ba      504f           addq.w 0x8, a7
          0x004870bc      487a87aa       pea.l 0x47f868(pc)
          0x004870c0      48780013       pea.l 0x13
          0x004870c4      2f17           move.l (a7), -(a7)
          0x004870c6      4e94           jsr (a4)                    ; fcn.0000000d
          0x004870c8      dec4           adda.w d4, a7
          0x004870ca      48c0           ext.l d0
          0x004870cc      2f00           move.l d0, -(a7)
          0x004870ce      48780000       pea.l 0x0
          0x004870d2      4eb9004070e4   jsr p_wti_o
          0x004870d8      504f           addq.w 0x8, a7
          0x004870da      4eb900404946   jsr p_wtln_o
       > 0x004870e0      b043           cmp.w d3, d0
       < 0x004870e2      6d14           blt.b 0x4870f8
          0x004870e4      b053           cmp.w (a3), d0
      < 0x004870e6      6e10           bgt.b 0x4870f8
         0x004870e8      b243           cmp.w d3, d1
     < 0x004870ea      6d0c           blt.b 0x4870f8
        0x004870ec      b253           cmp.w (a3), d1
    < 0x004870ee      6e08           bgt.b 0x4870f8
       0x004870f0      b2c3           cmpa.w d3, a1
   < 0x004870f2      6704           beq.b 0x4870f8
      0x004870f4      b4c3           cmpa.w d3, a2
  < 0x004870f6      6606           bne.b 0x4870fe
  > 0x004870f8      4eb900401620   jsr p_walkback
  > 0x004870fe      20702800       movea.l (a0, d2.l), a0
           0x00487102      b1e8fffc       cmpa.l -0x4(a0), a0
       < 0x00487106      6702           beq.b 0x48710a
          0x00487108      4e4d           trap 0xd
       > 0x0048710a      2268001e       movea.l 0x1e(a0), a1
           0x0048710e      b2c3           cmpa.w d3, a1
       < 0x00487110      6618           bne.b 0x48712a
          0x00487112      486efffc       pea.l -0x4(a6)
          0x00487116      48780008       pea.l 0x8
          0x0048711a      4eb900403a92   jsr p_New
          0x00487120      504f           addq.w 0x8, a7
          0x00487122      216efffc001e   move.l -0x4(a6), 0x1e(a0)
      < 0x00487128      6034           bra.b 0x48715e
      > 0x0048712a      2d49fffc       move.l a1, -0x4(a6)
      > 0x0048712e      206efffc       movea.l -0x4(a6), a0
         0x00487132      b1e8fffc       cmpa.l -0x4(a0), a0
     < 0x00487136      6702           beq.b 0x48713a
        0x00487138      4e4d           trap 0xd
     > 0x0048713a      24680004       movea.l 0x4(a0), a2
         0x0048713e      b4c3           cmpa.w d3, a2
     < 0x00487140      6706           beq.b 0x487148
        0x00487142      2d4afffc       move.l a2, -0x4(a6)
     < 0x00487146      60e6           bra.b 0x48712e
     > 0x00487148      48680004       pea.l 0x4(a0)
          0x0048714c      48780008       pea.l 0x8
          0x00487150      4eb900403a92   jsr p_New
          0x00487156      504f           addq.w 0x8, a7
          0x00487158      2d680004fffc   move.l 0x4(a0), -0x4(a6)
      > 0x0048715e      206efffc       movea.l -0x4(a6), a0
           0x00487162      b1e8fffc       cmpa.l -0x4(a0), a0
       < 0x00487166      6702           beq.b 0x48716a
          0x00487168      4e4d           trap 0xd
       > 0x0048716a      21430004       move.l d3, 0x4(a0)
           0x0048716e      30ae0008       move.w 0x8(a6), (a0)
           0x00487172      4cdf1f1f       movem.l (a7)+, d0-d4/a0-a4
           0x00487176      4e5e           unlk a6
           0x00487178      4e75           rts
 628: MENUCOM.add_group ();
           0x0048717a      4e56ffa4       link.w a6, 0xffa4
           0x0048717e      bfd5           cmpa.l (a5), a7
       < 0x00487180      6206           bhi.b 0x487188
          0x00487182      44fc0002       move.w 0x2, ccr
          0x00487186      4e76           trapv
       > 0x00487188      defc0058       adda.w 0x58, a7
           0x0048718c      48e7fcf8       movem.l d0-d5/a0-a4, -(a7)
           0x00487190      49f9004047ea   lea.l p_wts_o, a4
           0x00487196      7801           moveq 0x1, d4
           0x00487198      7a0c           moveq 0xc, d5
           0x0048719a      302e0008       move.w 0x8(a6), d0
           0x0048719e      b044           cmp.w d4, d0
       < 0x004871a0      6d08           blt.b 0x4871aa
          0x004871a2      b079008143a2   cmp.w 0x8143a2, d0
      < 0x004871a8      6f46           ble.b 0x4871f0
      > 0x004871aa      487a86d0       pea.l 0x47f87c(pc)
          0x004871ae      48780013       pea.l 0x13
          0x004871b2      2f17           move.l (a7), -(a7)
          0x004871b4      4e94           jsr (a4)                    ; fcn.0000000d
          0x004871b6      dec5           adda.w d5, a7
          0x004871b8      322e000a       move.w 0xa(a6), d1
          0x004871bc      48c1           ext.l d1
          0x004871be      2f01           move.l d1, -(a7)
          0x004871c0      48780000       pea.l 0x0
          0x004871c4      4eb9004070e4   jsr p_wti_o
          0x004871ca      504f           addq.w 0x8, a7
          0x004871cc      487a86c2       pea.l 0x47f890(pc)
          0x004871d0      4878001f       pea.l 0x1f
          0x004871d4      2f17           move.l (a7), -(a7)
          0x004871d6      4e94           jsr (a4)                    ; fcn.0000000d
          0x004871d8      dec5           adda.w d5, a7
          0x004871da      48c0           ext.l d0
          0x004871dc      2f00           move.l d0, -(a7)
          0x004871de      48780000       pea.l 0x0
          0x004871e2      4eb9004070e4   jsr p_wti_o
          0x004871e8      504f           addq.w 0x8, a7
          0x004871ea      4eb900404946   jsr p_wtln_o
      > 0x004871f0      322e000a       move.w 0xa(a6), d1
           0x004871f4      b244           cmp.w d4, d1
       < 0x004871f6      6d08           blt.b 0x487200
          0x004871f8      b279008143a2   cmp.w 0x8143a2, d1
      < 0x004871fe      6f42           ble.b 0x487242
      > 0x00487200      487a86ae       pea.l 0x47f8b0(pc)
          0x00487204      48780021       pea.l 0x21
          0x00487208      2f17           move.l (a7), -(a7)
          0x0048720a      4e94           jsr (a4)                    ; fcn.0000000d
          0x0048720c      dec5           adda.w d5, a7
          0x0048720e      48c1           ext.l d1
          0x00487210      2f01           move.l d1, -(a7)
          0x00487212      48780000       pea.l 0x0
          0x00487216      4eb9004070e4   jsr p_wti_o
          0x0048721c      504f           addq.w 0x8, a7
          0x0048721e      487a86b2       pea.l 0x47f8d2(pc)
          0x00487222      48780011       pea.l 0x11
          0x00487226      2f17           move.l (a7), -(a7)
          0x00487228      4e94           jsr (a4)                    ; fcn.0000000d
          0x0048722a      dec5           adda.w d5, a7
          0x0048722c      48c0           ext.l d0
          0x0048722e      2f00           move.l d0, -(a7)
          0x00487230      48780000       pea.l 0x0
          0x00487234      4eb9004070e4   jsr p_wti_o
          0x0048723a      504f           addq.w 0x8, a7
          0x0048723c      4eb900404946   jsr p_wtln_o
      > 0x00487242      43bc1068       chk.w 0x1068, d1
           0x00487246      48c1           ext.l d1
           0x00487248      2401           move.l d1, d2
           0x0048724a      e582           asl.l 0x2, d2
           0x0048724c      41f9008101fe   lea.l 0x8101fe, a0
           0x00487252      22702800       movea.l (a0, d2.l), a1
           0x00487256      b2c4           cmpa.w d4, a1
       < 0x00487258      6642           bne.b 0x48729c
          0x0048725a      487a8688       pea.l 0x47f8e4(pc)
          0x0048725e      48780017       pea.l 0x17
          0x00487262      2f17           move.l (a7), -(a7)
          0x00487264      4e94           jsr (a4)                    ; fcn.0000000d
          0x00487266      dec5           adda.w d5, a7
          0x00487268      48c1           ext.l d1
          0x0048726a      2f01           move.l d1, -(a7)
          0x0048726c      48780000       pea.l 0x0
          0x00487270      4eb9004070e4   jsr p_wti_o
          0x00487276      504f           addq.w 0x8, a7
          0x00487278      487a8682       pea.l 0x47f8fc(pc)
          0x0048727c      48780015       pea.l 0x15
          0x00487280      2f17           move.l (a7), -(a7)
          0x00487282      4e94           jsr (a4)                    ; fcn.0000000d
          0x00487284      dec5           adda.w d5, a7
          0x00487286      48c0           ext.l d0
          0x00487288      2f00           move.l d0, -(a7)
          0x0048728a      48780000       pea.l 0x0
          0x0048728e      4eb9004070e4   jsr p_wti_o
          0x00487294      504f           addq.w 0x8, a7
          0x00487296      4eb900404946   jsr p_wtln_o
       > 0x0048729c      41bc1068       chk.w 0x1068, d0
           0x004872a0      48c0           ext.l d0
           0x004872a2      2600           move.l d0, d3
           0x004872a4      e583           asl.l 0x2, d3
           0x004872a6      45f9008101fe   lea.l 0x8101fe, a2
           0x004872ac      26723800       movea.l (a2, d3.l), a3
           0x004872b0      b6c4           cmpa.w d4, a3
       < 0x004872b2      6642           bne.b 0x4872f6
          0x004872b4      487a865c       pea.l 0x47f912(pc)
          0x004872b8      48780013       pea.l 0x13
          0x004872bc      2f17           move.l (a7), -(a7)
          0x004872be      4e94           jsr (a4)                    ; fcn.0000000d
          0x004872c0      dec5           adda.w d5, a7
          0x004872c2      48c1           ext.l d1
          0x004872c4      2f01           move.l d1, -(a7)
          0x004872c6      48780000       pea.l 0x0
          0x004872ca      4eb9004070e4   jsr p_wti_o
          0x004872d0      504f           addq.w 0x8, a7
          0x004872d2      487a8652       pea.l 0x47f926(pc)
          0x004872d6      48780019       pea.l 0x19
          0x004872da      2f17           move.l (a7), -(a7)
          0x004872dc      4e94           jsr (a4)                    ; fcn.0000000d
          0x004872de      dec5           adda.w d5, a7
          0x004872e0      48c0           ext.l d0
          0x004872e2      2f00           move.l d0, -(a7)
          0x004872e4      48780000       pea.l 0x0
          0x004872e8      4eb9004070e4   jsr p_wti_o
          0x004872ee      504f           addq.w 0x8, a7
          0x004872f0      4eb900404946   jsr p_wtln_o
       > 0x004872f6      b244           cmp.w d4, d1
       < 0x004872f8      6d1c           blt.b 0x487316
          0x004872fa      b279008143a2   cmp.w 0x8143a2, d1
      < 0x00487300      6e14           bgt.b 0x487316
         0x00487302      b044           cmp.w d4, d0
     < 0x00487304      6d10           blt.b 0x487316
        0x00487306      b079008143a2   cmp.w 0x8143a2, d0
    < 0x0048730c      6e08           bgt.b 0x487316
       0x0048730e      b2c4           cmpa.w d4, a1
   < 0x00487310      6704           beq.b 0x487316
      0x00487312      b6c4           cmpa.w d4, a3
  < 0x00487314      6606           bne.b 0x48731c
  > 0x00487316      4eb900401620   jsr p_walkback
  > 0x0048731c      4227           clr.b -(a7)
           0x0048731e      22702800       movea.l (a0, d2.l), a1
           0x00487322      b3e9fffc       cmpa.l -0x4(a1), a1
       < 0x00487326      6702           beq.b 0x48732a
          0x00487328      4e4d           trap 0xd
       > 0x0048732a      2269003e       movea.l 0x3e(a1), a1
           0x0048732e      b2c4           cmpa.w d4, a1
       < 0x00487330      6602           bne.b 0x487334
          0x00487332      5217           addq.b 0x1, (a7)
       > 0x00487334      4eb90040452a   jsr p_Assert
           0x0048733a      544f           addq.w 0x2, a7
           0x0048733c      b240           cmp.w d0, d1
       < 0x0048733e      6668           bne.b 0x4873a8
          0x00487340      4227           clr.b -(a7)
          0x00487342      22723800       movea.l (a2, d3.l), a1
          0x00487346      b3e9fffc       cmpa.l -0x4(a1), a1
      < 0x0048734a      6702           beq.b 0x48734e
         0x0048734c      4e4d           trap 0xd
      > 0x0048734e      2269003e       movea.l 0x3e(a1), a1
          0x00487352      b2c4           cmpa.w d4, a1
      < 0x00487354      6602           bne.b 0x487358
         0x00487356      5217           addq.b 0x1, (a7)
      > 0x00487358      4eb90040452a   jsr p_Assert
          0x0048735e      544f           addq.w 0x2, a7
          0x00487360      486efffc       pea.l -0x4(a6)
          0x00487364      48780009       pea.l 0x9
          0x00487368      4eb900403a92   jsr p_New
          0x0048736e      504f           addq.w 0x8, a7
          0x00487370      226efffc       movea.l -0x4(a6), a1
          0x00487374      b3e9fffc       cmpa.l -0x4(a1), a1
      < 0x00487378      6702           beq.b 0x48737c
         0x0048737a      4e4d           trap 0xd
      > 0x0048737c      237238000004   move.l (a2, d3.l), 0x4(a1)
          0x00487382      42290008       clr.b 0x8(a1)
          0x00487386      22b9008190d2   move.l 0x8190d2, (a1)
          0x0048738c      23eefffc0081.  move.l -0x4(a6), 0x8190d2.l
          0x00487394      22723800       movea.l (a2, d3.l), a1
          0x00487398      b3e9fffc       cmpa.l -0x4(a1), a1
      < 0x0048739c      6702           beq.b 0x4873a0
         0x0048739e      4e4d           trap 0xd
      > 0x004873a0      236efffc003e   move.l -0x4(a6), 0x3e(a1)
      < 0x004873a6      6020           bra.b 0x4873c8
      > 0x004873a8      4227           clr.b -(a7)
          0x004873aa      22723800       movea.l (a2, d3.l), a1
          0x004873ae      b3e9fffc       cmpa.l -0x4(a1), a1
      < 0x004873b2      6702           beq.b 0x4873b6
         0x004873b4      4e4d           trap 0xd
      > 0x004873b6      2269003e       movea.l 0x3e(a1), a1
          0x004873ba      b2c4           cmpa.w d4, a1
      < 0x004873bc      6702           beq.b 0x4873c0
         0x004873be      5217           addq.b 0x1, (a7)
      > 0x004873c0      4eb90040452a   jsr p_Assert
          0x004873c6      544f           addq.w 0x2, a7
      > 0x004873c8      20702800       movea.l (a0, d2.l), a0
           0x004873cc      b1e8fffc       cmpa.l -0x4(a0), a0
       < 0x004873d0      6702           beq.b 0x4873d4
          0x004873d2      4e4d           trap 0xd
       > 0x004873d4      22723800       movea.l (a2, d3.l), a1
           0x004873d8      b3e9fffc       cmpa.l -0x4(a1), a1
       < 0x004873dc      6702           beq.b 0x4873e0
          0x004873de      4e4d           trap 0xd
       > 0x004873e0      2169003e003e   move.l 0x3e(a1), 0x3e(a0)
           0x004873e6      4cdf1f3f       movem.l (a7)+, d0-d5/a0-a4
           0x004873ea      4e5e           unlk a6
           0x004873ec      4e75           rts
            ; CALL XREF from MENUCOM.set_group @ 0x487506
 116: MENUCOM.list_xfer ();
           0x004873ee      4e56ffe0       link.w a6, 0xffe0
           0x004873f2      bfd5           cmpa.l (a5), a7
       < 0x004873f4      6206           bhi.b 0x4873fc
          0x004873f6      44fc0002       move.w 0x2, ccr
          0x004873fa      4e76           trapv
       > 0x004873fc      defc0018       adda.w 0x18, a7
           0x00487400      48e78098       movem.l d0/a0/a3-a4, -(a7)
           0x00487404      7001           moveq 0x1, d0
           0x00487406      3640           movea.w d0, a3
           0x00487408      206e000c       movea.l 0xc(a6), a0
           0x0048740c      2850           movea.l (a0), a4
           0x0048740e      206e0010       movea.l 0x10(a6), a0
       > 0x00487412      b9d0           cmpa.l (a0), a4
      < 0x00487414      670e           beq.b 0x487424
         0x00487416      264c           movea.l a4, a3
         0x00487418      b9ecfffc       cmpa.l -0x4(a4), a4
     < 0x0048741c      6702           beq.b 0x487420
        0x0048741e      4e4d           trap 0xd
     > 0x00487420      2854           movea.l (a4), a4
      < 0x00487422      60ee           bra.b 0x487412
      > 0x00487424      b6c0           cmpa.w d0, a3
       < 0x00487426      6610           bne.b 0x487438
          0x00487428      206e000c       movea.l 0xc(a6), a0
          0x0048742c      b9ecfffc       cmpa.l -0x4(a4), a4
      < 0x00487430      6702           beq.b 0x487434
         0x00487432      4e4d           trap 0xd
      > 0x00487434      2094           move.l (a4), (a0)
      < 0x00487436      6012           bra.b 0x48744a
      > 0x00487438      b7ebfffc       cmpa.l -0x4(a3), a3
      < 0x0048743c      6702           beq.b 0x487440
         0x0048743e      4e4d           trap 0xd
      > 0x00487440      b9ecfffc       cmpa.l -0x4(a4), a4
      < 0x00487444      6702           beq.b 0x487448
         0x00487446      4e4d           trap 0xd
      > 0x00487448      2694           move.l (a4), (a3)
      > 0x0048744a      b9ecfffc       cmpa.l -0x4(a4), a4
       < 0x0048744e      6702           beq.b 0x487452
          0x00487450      4e4d           trap 0xd
       > 0x00487452      206e0008       movea.l 0x8(a6), a0
           0x00487456      2890           move.l (a0), (a4)
           0x00487458      208c           move.l a4, (a0)
           0x0048745a      4cdf1901       movem.l (a7)+, d0/a0/a3-a4
           0x0048745e      4e5e           unlk a6
           0x00487460      4e75           rts
 180: MENUCOM.set_group (int32_t arg_8h);
           ; arg int32_t arg_8h @ a6+0x8
           0x00487462      4e56ffc0       link.w a6, 0xffc0
           0x00487466      bfd5           cmpa.l (a5), a7
       < 0x00487468      6206           bhi.b 0x487470
          0x0048746a      44fc0002       move.w 0x2, ccr
          0x0048746e      4e76           trapv
       > 0x00487470      defc003a       adda.w 0x3a, a7
           0x00487474      48e7e0f8       movem.l d0-d2/a0-a4, -(a7)
           0x00487478      45eefffa       lea.l -0x6(a6), a2
           0x0048747c      47ee000a       lea.l 0xa(a6), a3
           0x00487480      49f9008190d2   lea.l 0x8190d2, a4
           0x00487486      7401           moveq 0x1, d2
           0x00487488      3013           move.w (a3), d0
           0x0048748a      41bc1068       chk.w 0x1068, d0
           0x0048748e      48c0           ext.l d0
           0x00487490      e580           asl.l 0x2, d0
           0x00487492      41f9008101fe   lea.l 0x8101fe, a0
           0x00487498      4227           clr.b -(a7)
           0x0048749a      3213           move.w (a3), d1
           0x0048749c      b242           cmp.w d2, d1
       < 0x0048749e      6d14           blt.b 0x4874b4
          0x004874a0      3213           move.w (a3), d1
          0x004874a2      b279008143a2   cmp.w 0x8143a2, d1
      < 0x004874a8      6e0a           bgt.b 0x4874b4
         0x004874aa      22700800       movea.l (a0, d0.l), a1
         0x004874ae      b2c2           cmpa.w d2, a1
     < 0x004874b0      6702           beq.b 0x4874b4
        0x004874b2      5217           addq.b 0x1, (a7)
     > 0x004874b4      4eb90040452a   jsr p_Assert
           0x004874ba      544f           addq.w 0x2, a7
           0x004874bc      20700800       movea.l (a0, d0.l), a0
           0x004874c0      b1e8fffc       cmpa.l -0x4(a0), a0
       < 0x004874c4      6702           beq.b 0x4874c8
          0x004874c6      4e4d           trap 0xd
       > 0x004874c8      24a8003e       move.l 0x3e(a0), (a2)
           0x004874cc      2052           movea.l (a2), a0
           0x004874ce      b1e8fffc       cmpa.l -0x4(a0), a0
       < 0x004874d2      6702           beq.b 0x4874d6
          0x004874d4      4e4d           trap 0xd
       > 0x004874d6      1d680008fffe   move.b 0x8(a0), -0x2(a6)
           0x004874dc      116e00080008   move.b 0x8(a6), 0x8(a0)
           0x004874e2      102e0008       move.b 0x8(a6), d0
           0x004874e6      b02efffe       cmp.b -0x2(a6), d0
       < 0x004874ea      6722           beq.b 0x48750e
          0x004874ec      4a00           tst.b d0
      < 0x004874ee      670c           beq.b 0x4874fc
         0x004874f0      4852           pea.l (a2)
         0x004874f2      4854           pea.l (a4)
         0x004874f4      4879008190ce   pea.l 0x8190ce
     < 0x004874fa      600a           bra.b 0x487506
     > 0x004874fc      4852           pea.l (a2)
         0x004874fe      4879008190ce   pea.l 0x8190ce
         0x00487504      4854           pea.l (a4)
     > 0x00487506      4ebafee6       jsr MENUCOM.list_xfer(pc)
          0x0048750a      defc000c       adda.w 0xc, a7
       > 0x0048750e      4cdf1f07       movem.l (a7)+, d0-d2/a0-a4
           0x00487512      4e5e           unlk a6
           0x00487514      4e75           rts
            ; XREFS: CALL 0x0047bf94  CALL 0x0047c4d4  CALL 0x0047c8a4  
            ; XREFS: CALL 0x0049c2f0  CALL 0x004b142e  CALL 0x004b147e  
            ; XREFS: CALL 0x004d25d8  
 54: MENUCOM.menu_group ();
           0x00487516      4e56ffb2       link.w a6, 0xffb2
           0x0048751a      bfd5           cmpa.l (a5), a7
       < 0x0048751c      6206           bhi.b 0x487524
          0x0048751e      44fc0002       move.w 0x2, ccr
          0x00487522      4e76           trapv
       > 0x00487524      defc0040       adda.w 0x40, a7
           0x00487528      48e7f1f8       movem.l d0-d3/d7/a0-a4, -(a7)
           0x0048752c      45ee0008       lea.l 0x8(a6), a2
           0x00487530      7401           moveq 0x1, d2
           0x00487532      7606           moveq 0x6, d3
           0x00487534      102e000a       move.b 0xa(a6), d0
           0x00487538      4880           ext.w d0
           0x0048753a      3200           move.w d0, d1
           0x0048753c      b243           cmp.w d3, d1
       < 0x0048753e      6302           bls.b 0x487542
          0x00487540      4e4e           trap 0xe
       > 0x00487542      d241           add.w d1, d1
           0x00487544      323b1006       move.w 0x48754c(pc, d1.w), d1
           0x00487548      4efb1002       jmp 0x48754c(pc, d1.w)
            0x0048754c      000e001c       
            0x0048754d      0e001c00       
            0x0048754e      001c0026       ori.b 0x26, (a4)+
            0x00487552      0030003a0040   ori.b 0x3a, 0x40(a0, d0.w)
            0x00487558      00403f12       ori.w 0x3f12, d0
            0x0048755c      3f12           move.w (a2), -(a7)
        > 0x0048755e      4ebafc1a       jsr MENUCOM.add_group(pc)
       > 0x00487562      584f           addq.w 0x4, a7
      < 0x00487564      60000098       bra.w 0x4875fe
         0x00487568      33d2008190cc   move.w (a2), 0x8190cc
     < 0x0048756e      6000008e       bra.w 0x4875fe
        0x00487572      3f12           move.w (a2), -(a7)
        0x00487574      3f39008190cc   move.w 0x8190cc, -(a7)
     < 0x0048757a      60e2           bra.b 0x48755e
         0x0048757c      3f12           move.w (a2), -(a7)
         0x0048757e      1f02           move.b d2, -(a7)
     > 0x00487580      4ebafee0       jsr MENUCOM.set_group(pc)
     < 0x00487584      60dc           bra.b 0x487562
         0x00487586      3f12           move.w (a2), -(a7)
         0x00487588      4227           clr.b -(a7)
      < 0x0048758a      60f4           bra.b 0x487580
          0x0048758c      2079008190ce   movea.l 0x8190ce, a0
          0x00487592      b0c2           cmpa.w d2, a0
      < 0x00487594      6768           beq.b 0x4875fe
         0x00487596      3212           move.w (a2), d1
         0x00487598      43bc1068       chk.w 0x1068, d1
         0x0048759c      48c1           ext.l d1
         0x0048759e      e581           asl.l 0x2, d1
         0x004875a0      43f9008101fe   lea.l 0x8101fe, a1
         0x004875a6      22711800       movea.l (a1, d1.l), a1
         0x004875aa      b3e9fffc       cmpa.l -0x4(a1), a1
     < 0x004875ae      6702           beq.b 0x4875b2
        0x004875b0      4e4d           trap 0xd
     > 0x004875b2      2d69003efffc   move.l 0x3e(a1), -0x4(a6)
         0x004875b8      0c400005       cmpi.w 0x5, d0
     < 0x004875bc      6706           beq.b 0x4875c4
        0x004875be      b043           cmp.w d3, d0
    < 0x004875c0      6706           beq.b 0x4875c8
       0x004875c2      4e4e           trap 0xe
    > 0x004875c4      7e37           moveq 0x37, d7
    < 0x004875c6      6002           bra.b 0x4875ca
    > 0x004875c8      7e38           moveq 0x38, d7
     > 0x004875ca      2848           movea.l a0, a4
     > 0x004875cc      b8c2           cmpa.w d2, a4
    < 0x004875ce      672e           beq.b 0x4875fe
       0x004875d0      b9ecfffc       cmpa.l -0x4(a4), a4
   < 0x004875d4      6702           beq.b 0x4875d8
      0x004875d6      4e4d           trap 0xd
   > 0x004875d8      2654           movea.l (a4), a3
       0x004875da      b9eefffc       cmpa.l -0x4(a6), a4
   < 0x004875de      671a           beq.b 0x4875fa
      0x004875e0      226c0004       movea.l 0x4(a4), a1
      0x004875e4      b3e9fffc       cmpa.l -0x4(a1), a1
  < 0x004875e8      6702           beq.b 0x4875ec
     0x004875ea      4e4d           trap 0xd
  > 0x004875ec      3f290016       move.w 0x16(a1), -(a7)
      0x004875f0      3f12           move.w (a2), -(a7)
      0x004875f2      3f07           move.w d7, -(a7)
      0x004875f4      4eba9c96       jsr MENUCOM.box_action(pc)
      0x004875f8      5c4f           addq.w 0x6, a7
   > 0x004875fa      284b           movea.l a3, a4
    < 0x004875fc      60ce           bra.b 0x4875cc
    > 0x004875fe      4cdf1f8f       movem.l (a7)+, d0-d3/d7/a0-a4
            0x00487602      4e5e           unlk a6
            0x00487604      4e75           rts
            ; CALL XREF from MENURIGHTCOM.get_pad_group @ 0x490476
 128: MENUCOM.get_box_group (int32_t arg_3fh, int32_t arg_40h, int32_t arg_41h);
           ; arg int32_t arg_3fh @ a7+0x3f
           ; arg int32_t arg_40h @ a7+0x40
           ; arg int32_t arg_41h @ a7+0x41
           0x00487606      4e56ffd8       link.w a6, 0xffd8
           0x0048760a      bfd5           cmpa.l (a5), a7
       < 0x0048760c      6206           bhi.b 0x487614
          0x0048760e      44fc0002       move.w 0x2, ccr
          0x00487612      4e76           trapv
       > 0x00487614      defc0028       adda.w 0x28, a7
           0x00487618      48e7e0e0       movem.l d0-d2/a0-a2, -(a7)
           0x0048761c      45ee0008       lea.l 0x8(a6), a2
           0x00487620      7401           moveq 0x1, d2
           0x00487622      3012           move.w (a2), d0
           0x00487624      41bc1068       chk.w 0x1068, d0
           0x00487628      48c0           ext.l d0
           0x0048762a      e580           asl.l 0x2, d0
           0x0048762c      41f9008101fe   lea.l 0x8101fe, a0
           0x00487632      4227           clr.b -(a7)
           0x00487634      3212           move.w (a2), d1
           0x00487636      b242           cmp.w d2, d1
       < 0x00487638      6d14           blt.b 0x48764e
          0x0048763a      3212           move.w (a2), d1
          0x0048763c      b279008143a2   cmp.w 0x8143a2, d1
      < 0x00487642      6e0a           bgt.b 0x48764e
         0x00487644      22700800       movea.l (a0, d0.l), a1
         0x00487648      b2c2           cmpa.w d2, a1
     < 0x0048764a      6702           beq.b 0x48764e
        0x0048764c      5217           addq.b 0x1, (a7)
     > 0x0048764e      4eb90040452a   jsr p_Assert
           0x00487654      544f           addq.w 0x2, a7
           0x00487656      20700800       movea.l (a0, d0.l), a0
           0x0048765a      b1e8fffc       cmpa.l -0x4(a0), a0
       < 0x0048765e      6702           beq.b 0x487662
          0x00487660      4e4d           trap 0xd
       > 0x00487662      594f           subq.w 0x4, a7
           0x00487664      1ea8003e       move.b 0x3e(a0), (a7)
           0x00487668      1f68003f0001   move.b 0x3f(a0), 0x1(a7)
           0x0048766e      1f6800400002   move.b 0x40(a0), 0x2(a7)
           0x00487674      1f6800410003   move.b 0x41(a0), 0x3(a7)
           0x0048767a      2d5f000a       move.l (a7)+, 0xa(a6)
           0x0048767e      4cdf0707       movem.l (a7)+, d0-d2/a0-a2
           0x00487682      4e5e           unlk a6
           0x00487684      4e75           rts
            ; XREFS(130)
 420: MENUCOM.def_box ();
           0x00487686      4e56ffa2       link.w a6, 0xffa2
           0x0048768a      bfd5           cmpa.l (a5), a7
       < 0x0048768c      6206           bhi.b 0x487694
          0x0048768e      44fc0002       move.w 0x2, ccr
          0x00487692      4e76           trapv
       > 0x00487694      defc0058       adda.w 0x58, a7
           0x00487698      48e7fff8       movem.l d0-d7/a0-a4, -(a7)
           0x0048769c      47ee0030       lea.l 0x30(a6), a3
           0x004876a0      49ee001d       lea.l 0x1d(a6), a4
           0x004876a4      7401           moveq 0x1, d2
           0x004876a6      760c           moveq 0xc, d3
           0x004876a8      383c1068       move.w 0x1068, d4
           0x004876ac      7a40           moveq 0x40, d5
           0x004876ae      3013           move.w (a3), d0
           0x004876b0      b044           cmp.w d4, d0
       < 0x004876b2      6e04           bgt.b 0x4876b8
          0x004876b4      b042           cmp.w d2, d0
      < 0x004876b6      6c06           bge.b 0x4876be
      > 0x004876b8      487a8286       pea.l 0x47f940(pc)
      < 0x004876bc      601a           bra.b 0x4876d8
      > 0x004876be      4184           chk.w d4, d0
          0x004876c0      48c0           ext.l d0
          0x004876c2      2200           move.l d0, d1
          0x004876c4      e581           asl.l 0x2, d1
          0x004876c6      41f9008101fe   lea.l 0x8101fe, a0
          0x004876cc      20701800       movea.l (a0, d1.l), a0
          0x004876d0      b0c2           cmpa.w d2, a0
      < 0x004876d2      672e           beq.b 0x487702
         0x004876d4      487a8291       pea.l 0x47f967(pc)
      > 0x004876d8      48780026       pea.l 0x26
          0x004876dc      2f17           move.l (a7), -(a7)
          0x004876de      4eb9004047ea   jsr p_wts_o
          0x004876e4      dec3           adda.w d3, a7
          0x004876e6      48c0           ext.l d0
          0x004876e8      2f00           move.l d0, -(a7)
          0x004876ea      48780000       pea.l 0x0
          0x004876ee      4eb9004070e4   jsr p_wti_o
          0x004876f4      504f           addq.w 0x8, a7
          0x004876f6      4eb900404946   jsr p_wtln_o
          0x004876fc      4eb900401620   jsr p_walkback
      > 0x00487702      4184           chk.w d4, d0
           0x00487704      48c0           ext.l d0
           0x00487706      e580           asl.l 0x2, d0
           0x00487708      41f9008101fe   lea.l 0x8101fe, a0
           0x0048770e      48700800       pea.l (a0, d0.l)
           0x00487712      48780046       pea.l 0x46
           0x00487716      4eb900403a92   jsr p_New
           0x0048771c      504f           addq.w 0x8, a7
           0x0048771e      20700800       movea.l (a0, d0.l), a0
           0x00487722      b1e8fffc       cmpa.l -0x4(a0), a0
       < 0x00487726      6702           beq.b 0x48772a
          0x00487728      4e4d           trap 0xd
       > 0x0048772a      20b90047ef1a   move.l 0x47ef1a, (a0)
           0x00487730      0814000a       btst.b 0xa, (a4)
       < 0x00487734      6606           bne.b 0x48773c
          0x00487736      009004000000   ori.l 0x4000000, (a0)
       > 0x0048773c      0814000b       btst.b 0xb, (a4)
       < 0x00487740      6706           beq.b 0x487748
          0x00487742      009001000000   ori.l 0x1000000, (a0)
       > 0x00487748      4a39008190e8   tst.b 0x8190e8
       < 0x0048774e      6706           beq.b 0x487756
          0x00487750      009080000000   ori.l 0x80000000, (a0)
       > 0x00487756      4a6e002a       tst.w 0x2a(a6)
       < 0x0048775a      670c           beq.b 0x487768
          0x0048775c      4a6e0028       tst.w 0x28(a6)
      < 0x00487760      6706           beq.b 0x487768
         0x00487762      009002000000   ori.l 0x2000000, (a0)
      > 0x00487768      4a39008190e7   tst.b 0x8190e7
       < 0x0048776e      6706           beq.b 0x487776
          0x00487770      009020000000   ori.l 0x20000000, (a0)
       > 0x00487776      116e00260004   move.b 0x26(a6), 0x4(a0)
           0x0048777c      514f           subq.w 0x8, a7
           0x0048777e      302e002e       move.w 0x2e(a6), d0
           0x00487782      48c0           ext.l d0
           0x00487784      2f00           move.l d0, -(a7)
           0x00487786      302e002c       move.w 0x2c(a6), d0
           0x0048778a      48c0           ext.l d0
           0x0048778c      2f00           move.l d0, -(a7)
           0x0048778e      302e002a       move.w 0x2a(a6), d0
           0x00487792      48c0           ext.l d0
           0x00487794      2f00           move.l d0, -(a7)
           0x00487796      302e0028       move.w 0x28(a6), d0
           0x0048779a      48c0           ext.l d0
           0x0048779c      2f00           move.l d0, -(a7)
           0x0048779e      486efffe       pea.l -0x2(a6)
           0x004877a2      4ebae4c4       jsr MENUCOM.calc_boxarea(pc)
           0x004877a6      defc0014       adda.w 0x14, a7
           0x004877aa      43e80006       lea.l 0x6(a0), a1
           0x004877ae      244f           movea.l a7, a2
           0x004877b0      7007           moveq 0x7, d0
       > 0x004877b2      12da           move.b (a2)+, (a1)+
       < 0x004877b4      51c8fffc       dbra d0, 0x4877b2
           0x004877b8      504f           addq.w 0x8, a7
           0x004877ba      4a2efffe       tst.b -0x2(a6)
       < 0x004877be      6706           beq.b 0x4877c6
          0x004877c0      009010000000   ori.l 0x10000000, (a0)
       > 0x004877c6      7e00           moveq 0x0, d7
       > 0x004877c8      4887           ext.w d7
          0x004877ca      3007           move.w d7, d0
          0x004877cc      e648           lsr.w 0x3, d0
          0x004877ce      0f36001c       btst.l d7, 0x1c(a6, d0.w)
      < 0x004877d2      6736           beq.b 0x48780a
         0x004877d4      4887           ext.w d7
         0x004877d6      43fa81ce       lea.l 0x47f9a6(pc), a1
         0x004877da      3007           move.w d7, d0
         0x004877dc      e648           lsr.w 0x3, d0
         0x004877de      0f310000       btst.l d7, (a1, d0.w)
     < 0x004877e2      6626           bne.b 0x48780a
        0x004877e4      554f           subq.w 0x2, a7
        0x004877e6      1f07           move.b d7, -(a7)
        0x004877e8      4ebaf02a       jsr MENUCOM.get_flag(pc)
        0x004877ec      544f           addq.w 0x2, a7
        0x004877ee      101f           move.b (a7)+, d0
        0x004877f0      4880           ext.w d0
        0x004877f2      41bc0010       chk.w 0x10, d0
        0x004877f6      2f390047eefe   move.l 0x47eefe, -(a7)
        0x004877fc      3200           move.w d0, d1
        0x004877fe      e649           lsr.w 0x3, d1
        0x00487800      01f71000       bset.b d0, (a7, d1.w)
        0x00487804      2010           move.l (a0), d0
        0x00487806      809f           or.l (a7)+, d0
        0x00487808      2080           move.l d0, (a0)
     > 0x0048780a      5207           addq.b 0x1, d7
          0x0048780c      0c070012       cmpi.b 0x12, d7
       < 0x00487810      6fb6           ble.b 0x4877c8
           0x00487812      102e0024       move.b 0x24(a6), d0
           0x00487816      4880           ext.w d0
           0x00487818      0c400006       cmpi.w 0x6, d0
       < 0x0048781c      6302           bls.b 0x487820
          0x0048781e      4e4e           trap 0xe
       > 0x00487820      d040           add.w d0, d0
           0x00487822      303b0006       move.w 0x48782a(pc, d0.w), d0
           0x00487826      4efb0002       jmp 0x48782a(pc, d0.w)
            0x0048782a      000e0022       
            0x0048782b      0e002200       
            0x0048782c      00220036       ori.b 0x36, -(a2)
            0x00487830      004a005e       
            0x00487831      4a00           tst.b d0
            0x00487833      5e00           addq.b 0x7, d0
            0x00487835      7200           moveq 0x0, d1
            0x00487837      8643           or.w d3, d3
            0x00487839      e800           asr.b 0x4, d0
            0x0048783b      0e45f900       
            0x0048783c      45f90047e780   lea.l 0x47e780, a2
            0x00487842      7005           moveq 0x5, d0
        > 0x00487844      12da           move.b (a2)+, (a1)+
        < 0x00487846      51c8fffc       dbra d0, 0x487844
        < 0x0048784a      6076           bra.b 0x4878c2
           0x0048784c      43e8000e       lea.l 0xe(a0), a1
           0x00487850      45f90047e786   lea.l 0x47e786, a2
           0x00487856      7005           moveq 0x5, d0
       > 0x00487858      12da           move.b (a2)+, (a1)+
       < 0x0048785a      51c8fffc       dbra d0, 0x487858
       < 0x0048785e      6062           bra.b 0x4878c2
          0x00487860      43e8000e       lea.l 0xe(a0), a1
          0x00487864      45f90047e792   lea.l 0x47e792, a2
          0x0048786a      7005           moveq 0x5, d0
      > 0x0048786c      12da           move.b (a2)+, (a1)+
      < 0x0048786e      51c8fffc       dbra d0, 0x48786c
      < 0x00487872      604e           bra.b 0x4878c2
         0x00487874      43e8000e       lea.l 0xe(a0), a1
         0x00487878      45f90047e75c   lea.l 0x47e75c, a2
         0x0048787e      7005           moveq 0x5, d0
     > 0x00487880      12da           move.b (a2)+, (a1)+
     < 0x00487882      51c8fffc       dbra d0, 0x487880
     < 0x00487886      603a           bra.b 0x4878c2
        0x00487888      43e8000e       lea.l 0xe(a0), a1
        0x0048788c      45f90047e798   lea.l 0x47e798, a2
        0x00487892      7005           moveq 0x5, d0
    > 0x00487894      12da           move.b (a2)+, (a1)+
    < 0x00487896      51c8fffc       dbra d0, 0x487894
    < 0x0048789a      6026           bra.b 0x4878c2
       0x0048789c      43e8000e       lea.l 0xe(a0), a1
       0x004878a0      45f90047e79e   lea.l 0x47e79e, a2
       0x004878a6      7005           moveq 0x5, d0
   > 0x004878a8      12da           move.b (a2)+, (a1)+
   < 0x004878aa      51c8fffc       dbra d0, 0x4878a8
   < 0x004878ae      6012           bra.b 0x4878c2
      0x004878b0      43e8000e       lea.l 0xe(a0), a1
      0x004878b4      45f90047e7aa   lea.l 0x47e7aa, a2
      0x004878ba      7005           moveq 0x5, d0
  > 0x004878bc      12da           move.b (a2)+, (a1)+
  < 0x004878be      51c8fffc       dbra d0, 0x4878bc
   > 0x004878c2      31530014       move.w (a3), 0x14(a0)
            0x004878c6      4a6e0020       tst.w 0x20(a6)
        < 0x004878ca      670c           beq.b 0x4878d8
           0x004878cc      3f13           move.w (a3), -(a7)
           0x004878ce      3f2e0020       move.w 0x20(a6), -(a7)
           0x004878d2      4ebada32       jsr MENUCOM.swap_locks(pc)
           0x004878d6      584f           addq.w 0x4, a7
        > 0x004878d8      31530016       move.w (a3), 0x16(a0)
            0x004878dc      21420026       move.l d2, 0x26(a0)
            0x004878e0      4a6e0022       tst.w 0x22(a6)
        < 0x004878e4      670c           beq.b 0x4878f2
           0x004878e6      3f2e0022       move.w 0x22(a6), -(a7)
           0x004878ea      3f13           move.w (a3), -(a7)
           0x004878ec      4ebaf6a6       jsr MENUCOM.add_slave(pc)
           0x004878f0      584f           addq.w 0x4, a7
        > 0x004878f2      2142001e       move.l d2, 0x1e(a0)
            0x004878f6      48780001       pea.l 0x1
            0x004878fa      21570022       move.l (a7), 0x22(a0)
            0x004878fe      2f2e000c       move.l 0xc(a6), -(a7)
            0x00487902      2f2e0008       move.l 0x8(a6), -(a7)
            0x00487906      4eb90047e6f8   jsr unknown_0060
            0x0048790c      504f           addq.w 0x8, a7
            0x0048790e      215f0032       move.l (a7)+, 0x32(a0)
            0x00487912      21420036       move.l d2, 0x36(a0)
            0x00487916      2142003a       move.l d2, 0x3a(a0)
            0x0048791a      4aae0014       tst.l 0x14(a6)
        < 0x0048791e      6622           bne.b 0x487942
           0x00487920      7000           moveq 0x0, d0
           0x00487922      b0ae0010       cmp.l 0x10(a6), d0
       < 0x00487926      6e06           bgt.b 0x48792e
          0x00487928      90ae0014       sub.l 0x14(a6), d0
      < 0x0048792c      6c02           bge.b 0x487930
      > 0x0048792e      4e4f           trap 0xf
      > 0x00487930      226e0018       movea.l 0x18(a6), a1
           0x00487934      12310800       move.b (a1, d0.l), d1
           0x00487938      0281000000ff   andi.l 0xff, d1
           0x0048793e      3c01           move.w d1, d6
       < 0x00487940      601c           bra.b 0x48795e
       > 0x00487942      202e0010       move.l 0x10(a6), d0
           0x00487946      0480ffff8000   subi.l 0xffff8000, d0
           0x0048794c      0c800000ffff   cmpi.l 0xffff, d0
       < 0x00487952      6302           bls.b 0x487956
          0x00487954      4e4f           trap 0xf
       > 0x00487956      0680ffff8000   addi.l 0xffff8000, d0
           0x0048795c      3c00           move.w d0, d6
       > 0x0048795e      bc45           cmp.w d5, d6
        < 0x00487960      6f54           ble.b 0x4879b6
           0x00487962      487a8047       pea.l 0x47f9ab(pc)
           0x00487966      48780004       pea.l 0x4
           0x0048796a      2f17           move.l (a7), -(a7)
           0x0048796c      4eb9004047ea   jsr p_wts_o
           0x00487972      dec3           adda.w d3, a7
           0x00487974      3013           move.w (a3), d0
           0x00487976      48c0           ext.l d0
           0x00487978      2f00           move.l d0, -(a7)
           0x0048797a      48780000       pea.l 0x0
           0x0048797e      4eb9004070e4   jsr p_wti_o
           0x00487984      504f           addq.w 0x8, a7
           0x00487986      487a8028       pea.l 0x47f9b0(pc)
           0x0048798a      48780019       pea.l 0x19
           0x0048798e      2f17           move.l (a7), -(a7)
           0x00487990      4eb9004047ea   jsr p_wts_o
           0x00487996      dec3           adda.w d3, a7
           0x00487998      48c6           ext.l d6
           0x0048799a      2f06           move.l d6, -(a7)
           0x0048799c      48780000       pea.l 0x0
           0x004879a0      4eb9004070e4   jsr p_wti_o
           0x004879a6      504f           addq.w 0x8, a7
           0x004879a8      4eb900404946   jsr p_wtln_o
           0x004879ae      4eb900401620   jsr p_walkback
           0x004879b4      7c40           moveq 0x40, d6
        > 0x004879b6      48680042       pea.l 0x42(a0)
            0x004879ba      48c6           ext.l d6
            0x004879bc      2f06           move.l d6, -(a7)
            0x004879be      5297           addq.l 0x1, (a7)
            0x004879c0      4eb900403a92   jsr p_New
            0x004879c6      504f           addq.w 0x8, a7
            0x004879c8      226e0018       movea.l 0x18(a6), a1
            0x004879cc      7e01           moveq 0x1, d7
        > 0x004879ce      be46           cmp.w d6, d7
       < 0x004879d0      6e2a           bgt.b 0x4879fc
          0x004879d2      4f85           chk.w d5, d7
          0x004879d4      24680042       movea.l 0x42(a0), a2
          0x004879d8      b5eafffc       cmpa.l -0x4(a2), a2
      < 0x004879dc      6702           beq.b 0x4879e0
         0x004879de      4e4d           trap 0xd
      > 0x004879e0      48c7           ext.l d7
          0x004879e2      2007           move.l d7, d0
          0x004879e4      b0ae0010       cmp.l 0x10(a6), d0
      < 0x004879e8      6e06           bgt.b 0x4879f0
         0x004879ea      90ae0014       sub.l 0x14(a6), d0
     < 0x004879ee      6c02           bge.b 0x4879f2
     > 0x004879f0      4e4f           trap 0xf
     > 0x004879f2      15b108007000   move.b (a1, d0.l), (a2, d7.w)
          0x004879f8      5247           addq.w 0x1, d7
       < 0x004879fa      68d2           bvc.b 0x4879ce
       > 0x004879fc      22680042       movea.l 0x42(a0), a1
            0x00487a00      b3e9fffc       cmpa.l -0x4(a1), a1
        < 0x00487a04      6702           beq.b 0x487a08
           0x00487a06      4e4d           trap 0xd
        > 0x00487a08      4dbc00ff       chk.w 0xff, d6
            0x00487a0c      1286           move.b d6, (a1)
            0x00487a0e      42680018       clr.w 0x18(a0)
            0x00487a12      217c7fffffff.  move.l 0x7fffffff, 0x2e(a0)
            0x00487a1a      4268001a       clr.w 0x1a(a0)
            0x00487a1e      3153001c       move.w (a3), 0x1c(a0)
            0x00487a22      2142003e       move.l d2, 0x3e(a0)
            0x00487a26      0714           btst.l d3, (a4)
        < 0x00487a28      6722           beq.b 0x487a4c
           0x00487a2a      4227           clr.b -(a7)
           0x00487a2c      4a79008190cc   tst.w 0x8190cc
       < 0x00487a32      6602           bne.b 0x487a36
          0x00487a34      5217           addq.b 0x1, (a7)
       > 0x00487a36      4eb90040452a   jsr p_Assert
           0x00487a3c      3e93           move.w (a3), (a7)
           0x00487a3e      3f13           move.w (a3), -(a7)
           0x00487a40      4ebaf738       jsr MENUCOM.add_group(pc)
           0x00487a44      584f           addq.w 0x4, a7
           0x00487a46      33d3008190cc   move.w (a3), 0x8190cc
        > 0x00487a4c      0814000d       btst.b 0xd, (a4)
        < 0x00487a50      6720           beq.b 0x487a72
           0x00487a52      4227           clr.b -(a7)
           0x00487a54      4a79008190cc   tst.w 0x8190cc
       < 0x00487a5a      6702           beq.b 0x487a5e
          0x00487a5c      5217           addq.b 0x1, (a7)
       > 0x00487a5e      4eb90040452a   jsr p_Assert
           0x00487a64      3e93           move.w (a3), (a7)
           0x00487a66      3f39008190cc   move.w 0x8190cc, -(a7)
           0x00487a6c      4ebaf70c       jsr MENUCOM.add_group(pc)
           0x00487a70      584f           addq.w 0x4, a7
        > 0x00487a72      0814000e       btst.b 0xe, (a4)
        < 0x00487a76      6726           beq.b 0x487a9e
           0x00487a78      4227           clr.b -(a7)
           0x00487a7a      4a79008190cc   tst.w 0x8190cc
       < 0x00487a80      6702           beq.b 0x487a84
          0x00487a82      5217           addq.b 0x1, (a7)
       > 0x00487a84      4eb90040452a   jsr p_Assert
           0x00487a8a      3e93           move.w (a3), (a7)
           0x00487a8c      3f39008190cc   move.w 0x8190cc, -(a7)
           0x00487a92      4ebaf6e6       jsr MENUCOM.add_group(pc)
           0x00487a96      584f           addq.w 0x4, a7
           0x00487a98      4279008190cc   clr.w 0x8190cc
        > 0x00487a9e      4cdf1fff       movem.l (a7)+, d0-d7/a0-a4
            0x00487aa2      4e5e           unlk a6
            0x00487aa4      4e75           rts
            ; XREFS(1156)
 322: MENUCOM.new_box ();
           0x00487aa6      4e56ff02       link.w a6, 0xff02
           0x00487aaa      bfd5           cmpa.l (a5), a7
       < 0x00487aac      6206           bhi.b 0x487ab4
          0x00487aae      44fc0002       move.w 0x2, ccr
          0x00487ab2      4e76           trapv
       > 0x00487ab4      defc00a8       adda.w 0xa8, a7
           0x00487ab8      48e7e3f8       movem.l d0-d2/d6-d7/a0-a4, -(a7)
           0x00487abc      45f9008143a2   lea.l 0x8143a2, a2
           0x00487ac2      47ee0014       lea.l 0x14(a6), a3
           0x00487ac6      49ee0010       lea.l 0x10(a6), a4
           0x00487aca      243cffff8000   move.l 0xffff8000, d2
           0x00487ad0      3012           move.w (a2), d0
           0x00487ad2      48c0           ext.l d0
           0x00487ad4      5280           addq.l 0x1, d0
           0x00487ad6      9082           sub.l d2, d0
           0x00487ad8      0c800000ffff   cmpi.l 0xffff, d0
       < 0x00487ade      6302           bls.b 0x487ae2
          0x00487ae0      4e4f           trap 0xf
       > 0x00487ae2      d082           add.l d2, d0
           0x00487ae4      3480           move.w d0, (a2)
           0x00487ae6      0c401068       cmpi.w 0x1068, d0
       < 0x00487aea      6f36           ble.b 0x487b22
          0x00487aec      48790047f9ca   pea.l 0x47f9ca
          0x00487af2      48780027       pea.l 0x27
          0x00487af6      2f17           move.l (a7), -(a7)
          0x00487af8      4eb9004047ea   jsr p_wts_o
          0x00487afe      defc000c       adda.w 0xc, a7
          0x00487b02      48c0           ext.l d0
          0x00487b04      2f00           move.l d0, -(a7)
          0x00487b06      48780000       pea.l 0x0
          0x00487b0a      4eb9004070e4   jsr p_wti_o
          0x00487b10      504f           addq.w 0x8, a7
          0x00487b12      4eb900404946   jsr p_wtln_o
          0x00487b18      4227           clr.b -(a7)
          0x00487b1a      4eb90040452a   jsr p_Assert
          0x00487b20      544f           addq.w 0x2, a7
       > 0x00487b22      206e0030       movea.l 0x30(a6), a0
           0x00487b26      3092           move.w (a2), (a0)
           0x00487b28      4a93           tst.l (a3)
       < 0x00487b2a      661a           bne.b 0x487b46
          0x00487b2c      7000           moveq 0x0, d0
          0x00487b2e      b094           cmp.l (a4), d0
      < 0x00487b30      6e04           bgt.b 0x487b36
         0x00487b32      9093           sub.l (a3), d0
     < 0x00487b34      6c02           bge.b 0x487b38
     > 0x00487b36      4e4f           trap 0xf
     > 0x00487b38      206e0018       movea.l 0x18(a6), a0
          0x00487b3c      4281           clr.l d1
          0x00487b3e      12300800       move.b (a0, d0.l), d1
          0x00487b42      3c01           move.w d1, d6
      < 0x00487b44      6012           bra.b 0x487b58
      > 0x00487b46      2014           move.l (a4), d0
          0x00487b48      9082           sub.l d2, d0
          0x00487b4a      0c800000ffff   cmpi.l 0xffff, d0
      < 0x00487b50      6302           bls.b 0x487b54
         0x00487b52      4e4f           trap 0xf
      > 0x00487b54      d082           add.l d2, d0
          0x00487b56      3c00           move.w d0, d6
      > 0x00487b58      206e0018       movea.l 0x18(a6), a0
           0x00487b5c      7e01           moveq 0x1, d7
       > 0x00487b5e      be46           cmp.w d6, d7
      < 0x00487b60      6e1c           bgt.b 0x487b7e
         0x00487b62      4fbc0050       chk.w 0x50, d7
         0x00487b66      48c7           ext.l d7
         0x00487b68      2007           move.l d7, d0
         0x00487b6a      b094           cmp.l (a4), d0
     < 0x00487b6c      6e04           bgt.b 0x487b72
        0x00487b6e      9093           sub.l (a3), d0
    < 0x00487b70      6c02           bge.b 0x487b74
    > 0x00487b72      4e4f           trap 0xf
    > 0x00487b74      1db0080070ae   move.b (a0, d0.l), -0x52(a6, d7.w)
         0x00487b7a      5247           addq.w 0x1, d7
      < 0x00487b7c      68e0           bvc.b 0x487b5e
      > 0x00487b7e      4dbc00ff       chk.w 0xff, d6
           0x00487b82      1d46ffae       move.b d6, -0x52(a6)
           0x00487b86      9efc0052       suba.w 0x52, a7
           0x00487b8a      204f           movea.l a7, a0
           0x00487b8c      43eeffae       lea.l -0x52(a6), a1
           0x00487b90      7013           moveq 0x13, d0
       > 0x00487b92      20d9           move.l (a1)+, (a0)+
       < 0x00487b94      51c8fffc       dbra d0, 0x487b92
           0x00487b98      10d9           move.b (a1)+, (a0)+
           0x00487b9a      206e0030       movea.l 0x30(a6), a0
           0x00487b9e      3f10           move.w (a0), -(a7)
           0x00487ba0      3f2e002e       move.w 0x2e(a6), -(a7)
           0x00487ba4      3f2e002c       move.w 0x2c(a6), -(a7)
           0x00487ba8      3f2e002a       move.w 0x2a(a6), -(a7)
           0x00487bac      3f2e0028       move.w 0x28(a6), -(a7)
           0x00487bb0      1f2e0026       move.b 0x26(a6), -(a7)
           0x00487bb4      1f2e0024       move.b 0x24(a6), -(a7)
           0x00487bb8      3f2e0022       move.w 0x22(a6), -(a7)
           0x00487bbc      3f2e0020       move.w 0x20(a6), -(a7)
           0x00487bc0      2f2e001c       move.l 0x1c(a6), -(a7)
           0x00487bc4      486f0016       pea.l 0x16(a7)
           0x00487bc8      48780000       pea.l 0x0
           0x00487bcc      48780050       pea.l 0x50
           0x00487bd0      2f2e000c       move.l 0xc(a6), -(a7)
           0x00487bd4      2f2e0008       move.l 0x8(a6), -(a7)
           0x00487bd8      4ebafaac       jsr MENUCOM.def_box(pc)
           0x00487bdc      defc007c       adda.w 0x7c, a7
           0x00487be0      4cdf1fc7       movem.l (a7)+, d0-d2/d6-d7/a0-a4
           0x00487be4      4e5e           unlk a6
           0x00487be6      4e75           rts
            ; CALL XREF from MENUCOM.menu_init @ 0x489b36
            ; CALL XREF from MAVIS_TEST @ +0x2464
 70: MENUCOM.menu_pre_init ();
           0x00487be8      4e56ffec       link.w a6, 0xffec
           0x00487bec      bfd5           cmpa.l (a5), a7
       < 0x00487bee      6206           bhi.b 0x487bf6
          0x00487bf0      44fc0002       move.w 0x2, ccr
          0x00487bf4      4e76           trapv
       > 0x00487bf6      defc0010       adda.w 0x10, a7
           0x00487bfa      48e78180       movem.l d0/d7/a0, -(a7)
           0x00487bfe      7e00           moveq 0x0, d7
       > 0x00487c00      0c8700001068   cmpi.l 0x1068, d7
      < 0x00487c06      6302           bls.b 0x487c0a
         0x00487c08      4e4f           trap 0xf
      > 0x00487c0a      2007           move.l d7, d0
          0x00487c0c      e580           asl.l 0x2, d0
          0x00487c0e      41f9008101fe   lea.l 0x8101fe, a0
          0x00487c14      21bc00000001.  move.l 0x1, (a0, d0.l)
          0x00487c1c      5287           addq.l 0x1, d7
          0x00487c1e      0c8700001068   cmpi.l 0x1068, d7
       < 0x00487c24      6fda           ble.b 0x487c00
           0x00487c26      4cdf0181       movem.l (a7)+, d0/d7/a0
           0x00487c2a      4e5e           unlk a6
           0x00487c2c      4e75           rts
 166: MENUCOM.mbox_command ();
           0x00487c2e      4e56fe7e       link.w a6, 0xfe7e
           0x00487c32      bfd5           cmpa.l (a5), a7
       < 0x00487c34      6206           bhi.b 0x487c3c
          0x00487c36      44fc0002       move.w 0x2, ccr
          0x00487c3a      4e76           trapv
       > 0x00487c3c      defc014e       adda.w 0x14e, a7
           0x00487c40      48e7fff8       movem.l d0-d7/a0-a4, -(a7)
           0x00487c44      45f9008143a2   lea.l 0x8143a2, a2
           0x00487c4a      7401           moveq 0x1, d2
           0x00487c4c      263cffff8000   move.l 0xffff8000, d3
           0x00487c52      7810           moveq 0x10, d4
           0x00487c54      554f           subq.w 0x2, a7
           0x00487c56      4eb90043cfea   jsr G1_INPUT.g_alpha
           0x00487c5c      4a1f           tst.b (a7)+
       < 0x00487c5e      670007ac       beq.w 0x48840c
          0x00487c62      9efc0012       suba.w 0x12, a7
          0x00487c66      4eb90043cefe   jsr G1_INPUT.g_name
          0x00487c6c      41eeffe7       lea.l -0x19(a6), a0
          0x00487c70      224f           movea.l a7, a1
          0x00487c72      7010           moveq 0x10, d0
      > 0x00487c74      10d9           move.b (a1)+, (a0)+
      < 0x00487c76      51c8fffc       dbra d0, 0x487c74
          0x00487c7a      defc0012       adda.w 0x12, a7
          0x00487c7e      41f90047fa36   lea.l 0x47fa36, a0
          0x00487c84      7010           moveq 0x10, d0
      > 0x00487c86      2f20           move.l -(a0), -(a7)
      < 0x00487c88      51c8fffc       dbra d0, 0x487c86
          0x00487c8c      9efc0012       suba.w 0x12, a7
          0x00487c90      204f           movea.l a7, a0
          0x00487c92      43eeffe7       lea.l -0x19(a6), a1
          0x00487c96      7010           moveq 0x10, d0
      > 0x00487c98      10d9           move.b (a1)+, (a0)+
      < 0x00487c9a      51c8fffc       dbra d0, 0x487c98
          0x00487c9e      554f           subq.w 0x2, a7
          0x00487ca0      486f0014       pea.l 0x14(a7)
          0x00487ca4      3f02           move.w d2, -(a7)
          0x00487ca6      3f3c0044       move.w 0x44, -(a7)
          0x00487caa      486f000a       pea.l 0xa(a7)
          0x00487cae      4267           clr.w -(a7)
          0x00487cb0      3f04           move.w d4, -(a7)
          0x00487cb2      4eb9004401ac   jsr G4_LEXICAL.g_compare
          0x00487cb8      dec4           adda.w d4, a7
          0x00487cba      301f           move.w (a7)+, d0
          0x00487cbc      defc0056       adda.w 0x56, a7
          0x00487cc0      5340           subq.w 0x1, d0
          0x00487cc2      0c40000a       cmpi.w 0xa, d0
      < 0x00487cc6      620006fe       bhi.w 0x4883c6
         0x00487cca      d040           add.w d0, d0
         0x00487ccc      303b0006       move.w 0x487cd4(pc, d0.w), d0
         0x00487cd0      4efb0002       jmp 0x487cd4(pc, d0.w)
          0x00487cd4      00160058       ori.b 0x58, (a6)
          0x00487cd8      009a00da011a   ori.l 0xda011a, (a2)+
          0x00487cde      01ba0302       
          0x00487cdf      ba03           cmp.b d3, d5
          0x00487ce1      0203c004       andi.b 0x4, d3
          0x00487ce5      4c04f205       
          0x00487ce6      04f205aa       
          0x00487ce7      f205aa55       fmove.l fpsr, d5
         0x00487ceb      4f4eb900       
         0x00487cec      4eb90043d022   jsr G1_INPUT.g_numeric
         0x00487cf2      4a1f           tst.b (a7)+
     < 0x00487cf4      6732           beq.b 0x487d28
        0x00487cf6      5d4f           subq.w 0x6, a7
        0x00487cf8      48780001       pea.l 0x1
        0x00487cfc      3012           move.w (a2), d0
        0x00487cfe      48c0           ext.l d0
        0x00487d00      2f00           move.l d0, -(a7)
        0x00487d02      4eb90043e376   jsr G2_EXPRESSION.g_number
        0x00487d08      504f           addq.w 0x8, a7
        0x00487d0a      201f           move.l (a7)+, d0
        0x00487d0c      9083           sub.l d3, d0
        0x00487d0e      0c800000ffff   cmpi.l 0xffff, d0
    < 0x00487d14      6302           bls.b 0x487d18
       0x00487d16      4e4f           trap 0xf
    > 0x00487d18      d083           add.l d3, d0
        0x00487d1a      3e80           move.w d0, (a7)
        0x00487d1c      1f04           move.b d4, -(a7)
        0x00487d1e      1f02           move.b d2, -(a7)
        0x00487d20      4ebaec14       jsr MENUCOM.set_menu_flag(pc)
        0x00487d24      5c4f           addq.w 0x6, a7
     < 0x00487d26      60c2           bra.b 0x487cea
     < 0x00487d28      6000072a       bra.w 0x488454
     > 0x00487d2c      554f           subq.w 0x2, a7
        0x00487d2e      4eb90043d022   jsr G1_INPUT.g_numeric
        0x00487d34      4a1f           tst.b (a7)+
    < 0x00487d36      6732           beq.b 0x487d6a
       0x00487d38      5d4f           subq.w 0x6, a7
       0x00487d3a      48780001       pea.l 0x1
       0x00487d3e      3012           move.w (a2), d0
       0x00487d40      48c0           ext.l d0
       0x00487d42      2f00           move.l d0, -(a7)
       0x00487d44      4eb90043e376   jsr G2_EXPRESSION.g_number
       0x00487d4a      504f           addq.w 0x8, a7
       0x00487d4c      201f           move.l (a7)+, d0
       0x00487d4e      9083           sub.l d3, d0
       0x00487d50      0c800000ffff   cmpi.l 0xffff, d0
   < 0x00487d56      6302           bls.b 0x487d5a
      0x00487d58      4e4f           trap 0xf
   > 0x00487d5a      d083           add.l d3, d0
       0x00487d5c      3e80           move.w d0, (a7)
       0x00487d5e      1f04           move.b d4, -(a7)
       0x00487d60      4227           clr.b -(a7)
       0x00487d62      4ebaebd2       jsr MENUCOM.set_menu_flag(pc)
       0x00487d66      5c4f           addq.w 0x6, a7
    < 0x00487d68      60c2           bra.b 0x487d2c
    < 0x00487d6a      600006e8       bra.w 0x488454
        0x00487d6e      3f12           move.w (a2), -(a7)
        0x00487d70      7001           moveq 0x1, d0
    > 0x00487d72      b057           cmp.w (a7), d0
   < 0x00487d74      6e2c           bgt.b 0x487da2
      0x00487d76      3d40ffcc       move.w d0, -0x34(a6)
      0x00487d7a      41bc1068       chk.w 0x1068, d0
      0x00487d7e      48c0           ext.l d0
      0x00487d80      2200           move.l d0, d1
      0x00487d82      e581           asl.l 0x2, d1
      0x00487d84      41f9008101fe   lea.l 0x8101fe, a0
      0x00487d8a      20701800       movea.l (a0, d1.l), a0
      0x00487d8e      b0c2           cmpa.w d2, a0
  < 0x00487d90      670c           beq.b 0x487d9e
     0x00487d92      3f00           move.w d0, -(a7)
     0x00487d94      1f04           move.b d4, -(a7)
     0x00487d96      1f02           move.b d2, -(a7)
     0x00487d98      4ebaeb9c       jsr MENUCOM.set_menu_flag(pc)
     0x00487d9c      5c4f           addq.w 0x6, a7
  > 0x00487d9e      5240           addq.w 0x1, d0
   < 0x00487da0      68d0           bvc.b 0x487d72
   > 0x00487da2      544f           addq.w 0x2, a7
        0x00487da4      13c2008190e7   move.b d2, 0x8190e7
    < 0x00487daa      600006a8       bra.w 0x488454
       0x00487dae      3f12           move.w (a2), -(a7)
       0x00487db0      7001           moveq 0x1, d0
   > 0x00487db2      b057           cmp.w (a7), d0
  < 0x00487db4      6e2c           bgt.b 0x487de2
     0x00487db6      3d40ffcc       move.w d0, -0x34(a6)
     0x00487dba      41bc1068       chk.w 0x1068, d0
     0x00487dbe      48c0           ext.l d0
     0x00487dc0      2200           move.l d0, d1
     0x00487dc2      e581           asl.l 0x2, d1
     0x00487dc4      41f9008101fe   lea.l 0x8101fe, a0
     0x00487dca      20701800       movea.l (a0, d1.l), a0
     0x00487dce      b0c2           cmpa.w d2, a0
  < 0x00487dd0      670c           beq.b 0x487dde
     0x00487dd2      3f00           move.w d0, -(a7)
     0x00487dd4      1f04           move.b d4, -(a7)
     0x00487dd6      4227           clr.b -(a7)
     0x00487dd8      4ebaeb5c       jsr MENUCOM.set_menu_flag(pc)
     0x00487ddc      5c4f           addq.w 0x6, a7
  > 0x00487dde      5240           addq.w 0x1, d0
  < 0x00487de0      68d0           bvc.b 0x487db2
  > 0x00487de2      544f           addq.w 0x2, a7
       0x00487de4      4239008190e7   clr.b 0x8190e7
   < 0x00487dea      60000668       bra.w 0x488454
      0x00487dee      554f           subq.w 0x2, a7
      0x00487df0      4eb90043d022   jsr G1_INPUT.g_numeric
      0x00487df6      4a1f           tst.b (a7)+
  < 0x00487df8      6728           beq.b 0x487e22
     0x00487dfa      594f           subq.w 0x4, a7
     0x00487dfc      48780001       pea.l 0x1
     0x00487e00      3012           move.w (a2), d0
     0x00487e02      48c0           ext.l d0
     0x00487e04      2f00           move.l d0, -(a7)
     0x00487e06      4eb90043e376   jsr G2_EXPRESSION.g_number
     0x00487e0c      504f           addq.w 0x8, a7
     0x00487e0e      201f           move.l (a7)+, d0
     0x00487e10      9083           sub.l d3, d0
     0x00487e12      0c800000ffff   cmpi.l 0xffff, d0
  < 0x00487e18      6302           bls.b 0x487e1c
     0x00487e1a      4e4f           trap 0xf
  > 0x00487e1c      d083           add.l d3, d0
     0x00487e1e      3e00           move.w d0, d7
  < 0x00487e20      6002           bra.b 0x487e24
  > 0x00487e22      7e01           moveq 0x1, d7
  > 0x00487e24      554f           subq.w 0x2, a7
      0x00487e26      4eb90043d022   jsr G1_INPUT.g_numeric
      0x00487e2c      4a1f           tst.b (a7)+
  < 0x00487e2e      6728           beq.b 0x487e58
     0x00487e30      594f           subq.w 0x4, a7
     0x00487e32      48780001       pea.l 0x1
     0x00487e36      3012           move.w (a2), d0
     0x00487e38      48c0           ext.l d0
     0x00487e3a      2f00           move.l d0, -(a7)
     0x00487e3c      4eb90043e376   jsr G2_EXPRESSION.g_number
     0x00487e42      504f           addq.w 0x8, a7
     0x00487e44      201f           move.l (a7)+, d0
     0x00487e46      9083           sub.l d3, d0
     0x00487e48      0c800000ffff   cmpi.l 0xffff, d0
  < 0x00487e4e      6302           bls.b 0x487e52
     0x00487e50      4e4f           trap 0xf
  > 0x00487e52      d083           add.l d3, d0
     0x00487e54      3a00           move.w d0, d5
  < 0x00487e56      6002           bra.b 0x487e5a
  > 0x00487e58      3a12           move.w (a2), d5
  > 0x00487e5a      3007           move.w d7, d0
  > 0x00487e5c      b045           cmp.w d5, d0
  < 0x00487e5e      6e2a           bgt.b 0x487e8a
     0x00487e60      3d40ffcc       move.w d0, -0x34(a6)
     0x00487e64      554f           subq.w 0x2, a7
     0x00487e66      4eb90043fcc0   jsr G3_COMMAND.g_flagged
     0x00487e6c      4a1f           tst.b (a7)+
  < 0x00487e6e      6616           bne.b 0x487e86
     0x00487e70      9efc0100       suba.w 0x100, a7
     0x00487e74      1eb90047fa36   move.b 0x47fa36, (a7)
     0x00487e7a      3f00           move.w d0, -(a7)
     0x00487e7c      1f02           move.b d2, -(a7)
     0x00487e7e      4eba8a52       jsr MENUCOM.show_box(pc)
     0x00487e82      defc0104       adda.w 0x104, a7
  > 0x00487e86      5240           addq.w 0x1, d0
  < 0x00487e88      68d2           bvc.b 0x487e5c
  < 0x00487e8a      600005c8       bra.w 0x488454
     0x00487e8e      426effcc       clr.w -0x34(a6)
     0x00487e92      7c00           moveq 0x0, d6
     0x00487e94      4eb90043cbc8   jsr G1_INPUT.g_skip_spaces
     0x00487e9a      486effd6       pea.l -0x2a(a6)
     0x00487e9e      4eb90043cc6e   jsr G1_INPUT.g_rest_of_line
     0x00487ea4      584f           addq.w 0x4, a7
  > 0x00487ea6      9efc000e       suba.w 0xe, a7
     0x00487eaa      2f2effd6       move.l -0x2a(a6), -(a7)
     0x00487eae      2f6effda0004   move.l -0x26(a6), 0x4(a7)
     0x00487eb4      2f6effde0008   move.l -0x22(a6), 0x8(a7)
     0x00487eba      2f6effe2000c   move.l -0x1e(a6), 0xc(a7)
     0x00487ec0      1f6effe60010   move.b -0x1a(a6), 0x10(a7)
     0x00487ec6      554f           subq.w 0x2, a7
     0x00487ec8      486f0002       pea.l 0x2(a7)
     0x00487ecc      4267           clr.w -(a7)
     0x00487ece      3f04           move.w d4, -(a7)
     0x00487ed0      486effcc       pea.l -0x34(a6)
     0x00487ed4      486effd5       pea.l -0x2b(a6)
     0x00487ed8      4ebad7f8       jsr MENUCOM.match_boxtext(pc)
     0x00487edc      dec4           adda.w d4, a7
     0x00487ede      4a1f           tst.b (a7)+
  < 0x00487ee0      6606           bne.b 0x487ee8
     0x00487ee2      defc0012       adda.w 0x12, a7
  < 0x00487ee6      606a           bra.b 0x487f52
  > 0x00487ee8      554f           subq.w 0x2, a7
     0x00487eea      4eb90043fcc0   jsr G3_COMMAND.g_flagged
     0x00487ef0      4a1f           tst.b (a7)+
  < 0x00487ef2      6706           beq.b 0x487efa
     0x00487ef4      defc0012       adda.w 0x12, a7
  < 0x00487ef8      6058           bra.b 0x487f52
  > 0x00487efa      7c01           moveq 0x1, d6
     0x00487efc      9efc0100       suba.w 0x100, a7
     0x00487f00      204f           movea.l a7, a0
     0x00487f02      43f90047fa37   lea.l 0x47fa37, a1
     0x00487f08      7005           moveq 0x5, d0
  > 0x00487f0a      10d9           move.b (a1)+, (a0)+
  < 0x00487f0c      51c8fffc       dbra d0, 0x487f0a
     0x00487f10      3f2effcc       move.w -0x34(a6), -(a7)
     0x00487f14      4227           clr.b -(a7)
     0x00487f16      4eba89ba       jsr MENUCOM.show_box(pc)
     0x00487f1a      defc0104       adda.w 0x104, a7
     0x00487f1e      48790047fa3e   pea.l 0x47fa3e
     0x00487f24      4878000a       pea.l 0xa
     0x00487f28      2f17           move.l (a7), -(a7)
     0x00487f2a      4eb9004047ea   jsr p_wts_o
     0x00487f30      defc000a       adda.w 0xa, a7
     0x00487f34      1eaeffd5       move.b -0x2b(a6), (a7)
     0x00487f38      48780005       pea.l 0x5
     0x00487f3c      4eb90040718c   jsr p_wtb_o
     0x00487f42      5c4f           addq.w 0x6, a7
     0x00487f44      4eb900404946   jsr p_wtln_o
     0x00487f4a      defc0012       adda.w 0x12, a7
  < 0x00487f4e      6000ff56       bra.w 0x487ea6
  > 0x00487f52      4a06           tst.b d6
  < 0x00487f54      661c           bne.b 0x487f72
     0x00487f56      48790047fa49   pea.l 0x47fa49
     0x00487f5c      48780010       pea.l 0x10
     0x00487f60      2f17           move.l (a7), -(a7)
     0x00487f62      4eb9004047ea   jsr p_wts_o
     0x00487f68      defc000c       adda.w 0xc, a7
     0x00487f6c      4eb900404946   jsr p_wtln_o
  > 0x00487f72      9efc000e       suba.w 0xe, a7
     0x00487f76      2f2effd6       move.l -0x2a(a6), -(a7)
     0x00487f7a      2f6effda0004   move.l -0x26(a6), 0x4(a7)
     0x00487f80      2f6effde0008   move.l -0x22(a6), 0x8(a7)
     0x00487f86      2f6effe2000c   move.l -0x1e(a6), 0xc(a7)
     0x00487f8c      1f6effe60010   move.b -0x1a(a6), 0x10(a7)
     0x00487f92      554f           subq.w 0x2, a7
     0x00487f94      486f0002       pea.l 0x2(a7)
     0x00487f98      4267           clr.w -(a7)
     0x00487f9a      3f04           move.w d4, -(a7)
     0x00487f9c      486effcc       pea.l -0x34(a6)
     0x00487fa0      4ebacfdc       jsr MENUCOM.box_text_find(pc)
     0x00487fa4      defc000c       adda.w 0xc, a7
     0x00487fa8      4a1f           tst.b (a7)+
  < 0x00487faa      6722           beq.b 0x487fce
     0x00487fac      9efc0100       suba.w 0x100, a7
     0x00487fb0      204f           movea.l a7, a0
     0x00487fb2      43f90047fa59   lea.l 0x47fa59, a1
     0x00487fb8      7013           moveq 0x13, d0
  > 0x00487fba      10d9           move.b (a1)+, (a0)+
  < 0x00487fbc      51c8fffc       dbra d0, 0x487fba
     0x00487fc0      3f2effcc       move.w -0x34(a6), -(a7)
     0x00487fc4      1f02           move.b d2, -(a7)
     0x00487fc6      4eba890a       jsr MENUCOM.show_box(pc)
     0x00487fca      defc0104       adda.w 0x104, a7
     ; CODE XREF from MENUCOM @ +0x9caa
  > 0x00487fce      defc0012       adda.w 0x12, a7
  < 0x00487fd2      60000480       bra.w 0x488454
  > 0x00487fd6      554f           subq.w 0x2, a7
     0x00487fd8      4eb90043d022   jsr G1_INPUT.g_numeric
     0x00487fde      4a1f           tst.b (a7)+
  < 0x00487fe0      670000ae       beq.w 0x488090
     0x00487fe4      594f           subq.w 0x4, a7
     0x00487fe6      48780001       pea.l 0x1
     0x00487fea      3012           move.w (a2), d0
     0x00487fec      48c0           ext.l d0
     0x00487fee      2f00           move.l d0, -(a7)
     0x00487ff0      4eb90043e376   jsr G2_EXPRESSION.g_number
     0x00487ff6      504f           addq.w 0x8, a7
     0x00487ff8      201f           move.l (a7)+, d0
     0x00487ffa      9083           sub.l d3, d0
     0x00487ffc      0c800000ffff   cmpi.l 0xffff, d0
  < 0x00488002      6302           bls.b 0x488006
     0x00488004      4e4f           trap 0xf
  > 0x00488006      d083           add.l d3, d0
     0x00488008      3e00           move.w d0, d7
     0x0048800a      9efc0100       suba.w 0x100, a7
     0x0048800e      1eb90047fa6d   move.b 0x47fa6d, (a7)
     0x00488014      3f07           move.w d7, -(a7)
     0x00488016      1f02           move.b d2, -(a7)
     0x00488018      4eba88b8       jsr MENUCOM.show_box(pc)
     0x0048801c      defc0104       adda.w 0x104, a7
     0x00488020      4fbc1068       chk.w 0x1068, d7
     0x00488024      48c7           ext.l d7
     0x00488026      2007           move.l d7, d0
     0x00488028      e580           asl.l 0x2, d0
     0x0048802a      41f9008101fe   lea.l 0x8101fe, a0
     0x00488030      20700800       movea.l (a0, d0.l), a0
     0x00488034      b1e8fffc       cmpa.l -0x4(a0), a0
  < 0x00488038      6702           beq.b 0x48803c
     0x0048803a      4e4d           trap 0xd
  > 0x0048803c      3d680014ffd0   move.w 0x14(a0), -0x30(a6)
     0x00488042      be6effd0       cmp.w -0x30(a6), d7
  < 0x00488046      6744           beq.b 0x48808c
     0x00488048      554f           subq.w 0x2, a7
     0x0048804a      4eb90043fcc0   jsr G3_COMMAND.g_flagged
     0x00488050      4a1f           tst.b (a7)+
  < 0x00488052      6638           bne.b 0x48808c
     0x00488054      9efc0100       suba.w 0x100, a7
     0x00488058      1eb90047fa6e   move.b 0x47fa6e, (a7)
     0x0048805e      3f2effd0       move.w -0x30(a6), -(a7)
     0x00488062      1f02           move.b d2, -(a7)
     0x00488064      4eba886c       jsr MENUCOM.show_box(pc)
     0x00488068      defc0104       adda.w 0x104, a7
     0x0048806c      302effd0       move.w -0x30(a6), d0
     0x00488070      41bc1068       chk.w 0x1068, d0
     0x00488074      48c0           ext.l d0
     0x00488076      e580           asl.l 0x2, d0
     0x00488078      41f9008101fe   lea.l 0x8101fe, a0
     0x0048807e      20700800       movea.l (a0, d0.l), a0
     0x00488082      b1e8fffc       cmpa.l -0x4(a0), a0
  < 0x00488086      6702           beq.b 0x48808a
     0x00488088      4e4d           trap 0xd
  < 0x0048808a      60b0           bra.b 0x48803c
  < 0x0048808c      6000ff48       bra.w 0x487fd6
  < 0x00488090      600003c2       bra.w 0x488454
  > 0x00488094      554f           subq.w 0x2, a7
     0x00488096      4eb90043d022   jsr G1_INPUT.g_numeric
     0x0048809c      4a1f           tst.b (a7)+
  < 0x0048809e      677c           beq.b 0x48811c
     0x004880a0      594f           subq.w 0x4, a7
     0x004880a2      48780001       pea.l 0x1
     0x004880a6      3012           move.w (a2), d0
     0x004880a8      48c0           ext.l d0
     0x004880aa      2f00           move.l d0, -(a7)
     0x004880ac      4eb90043e376   jsr G2_EXPRESSION.g_number
     0x004880b2      504f           addq.w 0x8, a7
     0x004880b4      201f           move.l (a7)+, d0
     0x004880b6      9083           sub.l d3, d0
     0x004880b8      0c800000ffff   cmpi.l 0xffff, d0
  < 0x004880be      6302           bls.b 0x4880c2
     0x004880c0      4e4f           trap 0xf
  > 0x004880c2      d083           add.l d3, d0
     0x004880c4      3e00           move.w d0, d7
     0x004880c6      9efc0100       suba.w 0x100, a7
     0x004880ca      204f           movea.l a7, a0
     0x004880cc      43f90047fa6f   lea.l 0x47fa6f, a1
     0x004880d2      7005           moveq 0x5, d0
  > 0x004880d4      10d9           move.b (a1)+, (a0)+
  < 0x004880d6      51c8fffc       dbra d0, 0x4880d4
     0x004880da      3f07           move.w d7, -(a7)
     0x004880dc      1f02           move.b d2, -(a7)
     0x004880de      4eba87f2       jsr MENUCOM.show_box(pc)
     0x004880e2      defc0100       adda.w 0x100, a7
     0x004880e6      3e87           move.w d7, (a7)
     0x004880e8      486effd0       pea.l -0x30(a6)
     0x004880ec      4ebaddc4       jsr MENUCOM.find_parent(pc)
     0x004880f0      5c4f           addq.w 0x6, a7
     0x004880f2      4a1f           tst.b (a7)+
  < 0x004880f4      6722           beq.b 0x488118
     0x004880f6      9efc0100       suba.w 0x100, a7
     0x004880fa      204f           movea.l a7, a0
     0x004880fc      43f90047fa75   lea.l 0x47fa75, a1
     0x00488102      7006           moveq 0x6, d0
  > 0x00488104      10d9           move.b (a1)+, (a0)+
  < 0x00488106      51c8fffc       dbra d0, 0x488104
     0x0048810a      3f2effd0       move.w -0x30(a6), -(a7)
     0x0048810e      1f02           move.b d2, -(a7)
     0x00488110      4eba87c0       jsr MENUCOM.show_box(pc)
     0x00488114      defc0104       adda.w 0x104, a7
  < 0x00488118      6000ff7a       bra.w 0x488094
  < 0x0048811c      60000336       bra.w 0x488454
  > 0x00488120      554f           subq.w 0x2, a7
     0x00488122      4eb90043d022   jsr G1_INPUT.g_numeric
     0x00488128      4a1f           tst.b (a7)+
  < 0x0048812a      67000096       beq.w 0x4881c2
     0x0048812e      594f           subq.w 0x4, a7
     0x00488130      48780001       pea.l 0x1
     0x00488134      3012           move.w (a2), d0
     0x00488136      48c0           ext.l d0
     0x00488138      2f00           move.l d0, -(a7)
     0x0048813a      4eb90043e376   jsr G2_EXPRESSION.g_number
     0x00488140      504f           addq.w 0x8, a7
     0x00488142      201f           move.l (a7)+, d0
     0x00488144      9083           sub.l d3, d0
     0x00488146      0c800000ffff   cmpi.l 0xffff, d0
  < 0x0048814c      6302           bls.b 0x488150
     0x0048814e      4e4f           trap 0xf
  > 0x00488150      d083           add.l d3, d0
     0x00488152      3e00           move.w d0, d7
     0x00488154      9efc00fc       suba.w 0xfc, a7
     0x00488158      2f390047fa7c   move.l 0x47fa7c, -(a7)
     0x0048815e      3f790047fa80.  move.w 0x47fa80, 0x4(a7)
     0x00488166      3f07           move.w d7, -(a7)
     0x00488168      1f02           move.b d2, -(a7)
     0x0048816a      4eba8766       jsr MENUCOM.show_box(pc)
     0x0048816e      defc0104       adda.w 0x104, a7
  > 0x00488172      554f           subq.w 0x2, a7
     0x00488174      3f07           move.w d7, -(a7)
     0x00488176      486effd0       pea.l -0x30(a6)
     0x0048817a      4ebadd36       jsr MENUCOM.find_parent(pc)
     0x0048817e      5c4f           addq.w 0x6, a7
     0x00488180      4a1f           tst.b (a7)+
  < 0x00488182      673a           beq.b 0x4881be
     0x00488184      554f           subq.w 0x2, a7
     0x00488186      4eb90043fcc0   jsr G3_COMMAND.g_flagged
     0x0048818c      4a1f           tst.b (a7)+
  < 0x0048818e      662e           bne.b 0x4881be
     0x00488190      9efc00fc       suba.w 0xfc, a7
     0x00488194      2f390047fa82   move.l 0x47fa82, -(a7)
     0x0048819a      3f790047fa86.  move.w 0x47fa86, 0x4(a7)
     0x004881a2      1f790047fa88.  move.b 0x47fa88, 0x6(a7)
     0x004881aa      3f2effd0       move.w -0x30(a6), -(a7)
     0x004881ae      1f02           move.b d2, -(a7)
     0x004881b0      4eba8720       jsr MENUCOM.show_box(pc)
     0x004881b4      defc0104       adda.w 0x104, a7
     0x004881b8      3e2effd0       move.w -0x30(a6), d7
  < 0x004881bc      60b4           bra.b 0x488172
  < 0x004881be      6000ff60       bra.w 0x488120
  < 0x004881c2      60000290       bra.w 0x488454
  > 0x004881c6      554f           subq.w 0x2, a7
     0x004881c8      4eb90043d022   jsr G1_INPUT.g_numeric
     0x004881ce      4a1f           tst.b (a7)+
  < 0x004881d0      670000a8       beq.w 0x48827a
     0x004881d4      594f           subq.w 0x4, a7
     0x004881d6      48780001       pea.l 0x1
     0x004881da      3012           move.w (a2), d0
     0x004881dc      48c0           ext.l d0
     0x004881de      2f00           move.l d0, -(a7)
     0x004881e0      4eb90043e376   jsr G2_EXPRESSION.g_number
     0x004881e6      504f           addq.w 0x8, a7
     0x004881e8      201f           move.l (a7)+, d0
     0x004881ea      9083           sub.l d3, d0
     0x004881ec      0c800000ffff   cmpi.l 0xffff, d0
  < 0x004881f2      6302           bls.b 0x4881f6
     0x004881f4      4e4f           trap 0xf
  > 0x004881f6      d083           add.l d3, d0
     0x004881f8      3e00           move.w d0, d7
     0x004881fa      9efc0100       suba.w 0x100, a7
     0x004881fe      204f           movea.l a7, a0
     0x00488200      43f90047fa89   lea.l 0x47fa89, a1
     0x00488206      7006           moveq 0x6, d0
  > 0x00488208      10d9           move.b (a1)+, (a0)+
  < 0x0048820a      51c8fffc       dbra d0, 0x488208
     0x0048820e      3f07           move.w d7, -(a7)
     0x00488210      1f02           move.b d2, -(a7)
     0x00488212      4eba86be       jsr MENUCOM.show_box(pc)
     0x00488216      defc0104       adda.w 0x104, a7
     0x0048821a      4fbc1068       chk.w 0x1068, d7
     0x0048821e      48c7           ext.l d7
     0x00488220      2007           move.l d7, d0
     0x00488222      e580           asl.l 0x2, d0
     0x00488224      41f9008101fe   lea.l 0x8101fe, a0
     0x0048822a      20700800       movea.l (a0, d0.l), a0
     0x0048822e      b1e8fffc       cmpa.l -0x4(a0), a0
  < 0x00488232      6702           beq.b 0x488236
     0x00488234      4e4d           trap 0xd
  > 0x00488236      2868001e       movea.l 0x1e(a0), a4
  > 0x0048823a      b8c2           cmpa.w d2, a4
  < 0x0048823c      6738           beq.b 0x488276
     0x0048823e      554f           subq.w 0x2, a7
     0x00488240      4eb90043fcc0   jsr G3_COMMAND.g_flagged
     0x00488246      4a1f           tst.b (a7)+
  < 0x00488248      662c           bne.b 0x488276
     0x0048824a      b9ecfffc       cmpa.l -0x4(a4), a4
  < 0x0048824e      6702           beq.b 0x488252
     0x00488250      4e4d           trap 0xd
  > 0x00488252      9efc00fc       suba.w 0xfc, a7
     0x00488256      2f390047fa90   move.l 0x47fa90, -(a7)
     0x0048825c      3f790047fa94.  move.w 0x47fa94, 0x4(a7)
     0x00488264      3f14           move.w (a4), -(a7)
     0x00488266      1f02           move.b d2, -(a7)
     0x00488268      4eba8668       jsr MENUCOM.show_box(pc)
     0x0048826c      defc0104       adda.w 0x104, a7
     0x00488270      286c0004       movea.l 0x4(a4), a4
  < 0x00488274      60c4           bra.b 0x48823a
  < 0x00488276      6000ff4e       bra.w 0x4881c6
  < 0x0048827a      600001d8       bra.w 0x488454
     0x0048827e      9efc0012       suba.w 0x12, a7
     0x00488282      4eb90043cefe   jsr G1_INPUT.g_name
     0x00488288      2d5fffd6       move.l (a7)+, -0x2a(a6)
     0x0048828c      2d5fffda       move.l (a7)+, -0x26(a6)
     0x00488290      2d5fffde       move.l (a7)+, -0x22(a6)
     0x00488294      2d5fffe2       move.l (a7)+, -0x1e(a6)
     0x00488298      1d57ffe6       move.b (a7), -0x1a(a6)
     0x0048829c      9efc000e       suba.w 0xe, a7
     0x004882a0      204f           movea.l a7, a0
     0x004882a2      43f90047fa97   lea.l 0x47fa97, a1
     0x004882a8      700f           moveq 0xf, d0
  > 0x004882aa      10d9           move.b (a1)+, (a0)+
  < 0x004882ac      51c8fffc       dbra d0, 0x4882aa
     0x004882b0      9efc000e       suba.w 0xe, a7
     0x004882b4      2f2effd6       move.l -0x2a(a6), -(a7)
     0x004882b8      2f6effda0004   move.l -0x26(a6), 0x4(a7)
     0x004882be      2f6effde0008   move.l -0x22(a6), 0x8(a7)
     0x004882c4      2f6effe2000c   move.l -0x1e(a6), 0xc(a7)
     0x004882ca      1f6effe60010   move.b -0x1a(a6), 0x10(a7)
     0x004882d0      554f           subq.w 0x2, a7
     0x004882d2      486f0014       pea.l 0x14(a7)
     0x004882d6      3f02           move.w d2, -(a7)
     0x004882d8      3f04           move.w d4, -(a7)
     0x004882da      486f000a       pea.l 0xa(a7)
     0x004882de      4267           clr.w -(a7)
     0x004882e0      3f04           move.w d4, -(a7)
     0x004882e2      4eb9004401ac   jsr G4_LEXICAL.g_compare
     0x004882e8      dec4           adda.w d4, a7
     0x004882ea      3017           move.w (a7), d0
     0x004882ec      b042           cmp.w d2, d0
  < 0x004882ee      6708           beq.b 0x4882f8
     0x004882f0      0c400002       cmpi.w 0x2, d0
  < 0x004882f4      670a           beq.b 0x488300
  < 0x004882f6      6010           bra.b 0x488308
  > 0x004882f8      2679008190f4   movea.l 0x8190f4, a3
  < 0x004882fe      6030           bra.b 0x488330
  > 0x00488300      2679008190f8   movea.l 0x8190f8, a3
  < 0x00488306      6028           bra.b 0x488330
  > 0x00488308      9efc001a       suba.w 0x1a, a7
     0x0048830c      204f           movea.l a7, a0
     0x0048830e      43f90047faa8   lea.l 0x47faa8, a1
     0x00488314      7005           moveq 0x5, d0
  > 0x00488316      20d9           move.l (a1)+, (a0)+
  < 0x00488318      51c8fffc       dbra d0, 0x488316
     0x0048831c      10d9           move.b (a1)+, (a0)+
     0x0048831e      4857           pea.l (a7)
     0x00488320      3f02           move.w d2, -(a7)
     0x00488322      3f3c0019       move.w 0x19, -(a7)
     0x00488326      4eb90043cd18   jsr G1_INPUT.g_error
     0x0048832c      defc0022       adda.w 0x22, a7
  > 0x00488330      defc0024       adda.w 0x24, a7
     0x00488334      426effcc       clr.w -0x34(a6)
  > 0x00488338      b6c2           cmpa.w d2, a3
  < 0x0048833a      6756           beq.b 0x488392
     0x0048833c      554f           subq.w 0x2, a7
     0x0048833e      4eb90043fcc0   jsr G3_COMMAND.g_flagged
     0x00488344      4a1f           tst.b (a7)+
  < 0x00488346      664a           bne.b 0x488392
     0x00488348      b7ebfffc       cmpa.l -0x4(a3), a3
  < 0x0048834c      6702           beq.b 0x488350
     0x0048834e      4e4d           trap 0xd
  > 0x00488350      9efc0100       suba.w 0x100, a7
     0x00488354      204f           movea.l a7, a0
     0x00488356      43f90047fac1   lea.l 0x47fac1, a1
     0x0048835c      7007           moveq 0x7, d0
  > 0x0048835e      10d9           move.b (a1)+, (a0)+
  < 0x00488360      51c8fffc       dbra d0, 0x48835e
     0x00488364      3f2b0016       move.w 0x16(a3), -(a7)
     0x00488368      1f02           move.b d2, -(a7)
     0x0048836a      4eba8566       jsr MENUCOM.show_box(pc)
     0x0048836e      defc0104       adda.w 0x104, a7
     0x00488372      302effcc       move.w -0x34(a6), d0
     0x00488376      48c0           ext.l d0
     0x00488378      5280           addq.l 0x1, d0
     0x0048837a      9083           sub.l d3, d0
     0x0048837c      0c800000ffff   cmpi.l 0xffff, d0
  < 0x00488382      6302           bls.b 0x488386
     0x00488384      4e4f           trap 0xf
  > 0x00488386      d083           add.l d3, d0
     0x00488388      3d40ffcc       move.w d0, -0x34(a6)
     0x0048838c      266b0026       movea.l 0x26(a3), a3
  < 0x00488390      60a6           bra.b 0x488338
  > 0x00488392      302effcc       move.w -0x34(a6), d0
     0x00488396      48c0           ext.l d0
     0x00488398      2f00           move.l d0, -(a7)
     0x0048839a      48780000       pea.l 0x0
     0x0048839e      4eb9004070e4   jsr p_wti_o
     0x004883a4      504f           addq.w 0x8, a7
     0x004883a6      48790047faca   pea.l 0x47faca
     0x004883ac      4878000f       pea.l 0xf
     0x004883b0      2f17           move.l (a7), -(a7)
     0x004883b2      4eb9004047ea   jsr p_wts_o
     0x004883b8      defc000c       adda.w 0xc, a7
     0x004883bc      4eb900404946   jsr p_wtln_o
  < 0x004883c2      60000090       bra.w 0x488454
  > 0x004883c6      48790047fada   pea.l 0x47fada
      0x004883cc      48780044       pea.l 0x44
      0x004883d0      2f17           move.l (a7), -(a7)
      0x004883d2      4eb9004047ea   jsr p_wts_o
      0x004883d8      defc000c       adda.w 0xc, a7
      0x004883dc      4eb900404946   jsr p_wtln_o
      0x004883e2      9efc0012       suba.w 0x12, a7
      0x004883e6      204f           movea.l a7, a0
      0x004883e8      43f90047fb1f   lea.l 0x47fb1f, a1
      0x004883ee      7010           moveq 0x10, d0
  > 0x004883f0      10d9           move.b (a1)+, (a0)+
  < 0x004883f2      51c8fffc       dbra d0, 0x4883f0
      0x004883f6      4857           pea.l (a7)
      0x004883f8      3f02           move.w d2, -(a7)
      0x004883fa      3f3c0011       move.w 0x11, -(a7)
      0x004883fe      4eb90043cd18   jsr G1_INPUT.g_error
      0x00488404      504f           addq.w 0x8, a7
  < 0x00488406      6000fbc6       bra.w 0x487fce
  < 0x0048840a      6048           bra.b 0x488454
     ; CODE XREF from MENUCOM @ +0x9cf6
  > 0x0048840c      554f           subq.w 0x2, a7
      0x0048840e      4eb90043d022   jsr G1_INPUT.g_numeric
      0x00488414      4a1f           tst.b (a7)+
  < 0x00488416      673c           beq.b 0x488454
     0x00488418      9efc0100       suba.w 0x100, a7
     0x0048841c      1eb90047fb30   move.b 0x47fb30, (a7)
     0x00488422      5d4f           subq.w 0x6, a7
     0x00488424      48780001       pea.l 0x1
     0x00488428      3012           move.w (a2), d0
     0x0048842a      48c0           ext.l d0
     0x0048842c      2f00           move.l d0, -(a7)
     0x0048842e      4eb90043e376   jsr G2_EXPRESSION.g_number
     0x00488434      504f           addq.w 0x8, a7
     0x00488436      201f           move.l (a7)+, d0
     0x00488438      9083           sub.l d3, d0
     0x0048843a      0c800000ffff   cmpi.l 0xffff, d0
  < 0x00488440      6302           bls.b 0x488444
     0x00488442      4e4f           trap 0xf
  > 0x00488444      d083           add.l d3, d0
     0x00488446      3e80           move.w d0, (a7)
     0x00488448      1f02           move.b d2, -(a7)
     0x0048844a      4eba8486       jsr MENUCOM.show_box(pc)
     0x0048844e      defc0104       adda.w 0x104, a7
  < 0x00488452      60b8           bra.b 0x48840c
     ; CODE XREF from MENUCOM @ +0x9876
  > 0x00488454      4cdf1fff       movem.l (a7)+, d0-d7/a0-a4
            0x00488458      4e5e           unlk a6
            0x0048845a      4e75           rts
            ; CALL XREFS from MENUCOM @ +0xa236, +0xa2b8
 210: MENUCOM.check_box ();
           0x0048845c      4e56fdde       link.w a6, 0xfdde
           0x00488460      bfd5           cmpa.l (a5), a7
       < 0x00488462      6206           bhi.b 0x48846a
          0x00488464      44fc0002       move.w 0x2, ccr
          0x00488468      4e76           trapv
       > 0x0048846a      defc0120       adda.w 0x120, a7
           0x0048846e      48e7c0f0       movem.l d0-d1/a0-a3, -(a7)
           0x00488472      45ee000a       lea.l 0xa(a6), a2
           0x00488476      47eefefe       lea.l -0x102(a6), a3
           0x0048847a      7201           moveq 0x1, d1
           0x0048847c      1d41000c       move.b d1, 0xc(a6)
           0x00488480      3f12           move.w (a2), -(a7)
           0x00488482      4853           pea.l (a3)
           0x00488484      4ebac340       jsr MENUCOM.get_macro_box_t(pc)
           0x00488488      5c4f           addq.w 0x6, a7
           0x0048848a      3012           move.w (a2), d0
           0x0048848c      41bc1068       chk.w 0x1068, d0
           0x00488490      48c0           ext.l d0
           0x00488492      e580           asl.l 0x2, d0
           0x00488494      41f9008101fe   lea.l 0x8101fe, a0
           0x0048849a      20700800       movea.l (a0, d0.l), a0
           0x0048849e      b1e8fffc       cmpa.l -0x4(a0), a0
       < 0x004884a2      6702           beq.b 0x4884a6
          0x004884a4      4e4d           trap 0xd
       > 0x004884a6      0310           btst.l d1, (a0)
       < 0x004884a8      677c           beq.b 0x488526
          0x004884aa      4240           clr.w d0
          0x004884ac      1013           move.b (a3), d0
      < 0x004884ae      6302           bls.b 0x4884b2
         0x004884b0      7000           moveq 0x0, d0
      > 0x004884b2      5300           subq.b 0x1, d0
      < 0x004884b4      6512           bcs.b 0x4884c8
         0x004884b6      41eefeff       lea.l -0x101(a6), a0
         0x004884ba      43f90047fb32   lea.l 0x47fb32, a1
     > 0x004884c0      b109           cmpm.b (a1)+, (a0)+
     < 0x004884c2      56c8fffc       dbne d0, 0x4884c0
     < 0x004884c6      6602           bne.b 0x4884ca
     > 0x004884c8      1013           move.b (a3), d0
     < 0x004884ca      665a           bne.b 0x488526
         0x004884cc      9efc00fc       suba.w 0xfc, a7
         0x004884d0      2f390047fb32   move.l 0x47fb32, -(a7)
         0x004884d6      2f790047fb36.  move.l 0x47fb36, 0x4(a7)
         0x004884de      3f12           move.w (a2), -(a7)
         0x004884e0      1f01           move.b d1, -(a7)
         0x004884e2      4eba83ee       jsr MENUCOM.show_box(pc)
         0x004884e6      defc0100       adda.w 0x100, a7
         0x004884ea      3e92           move.w (a2), (a7)
         0x004884ec      486efffe       pea.l -0x2(a6)
         0x004884f0      4ebad9c0       jsr MENUCOM.find_parent(pc)
         0x004884f4      5c4f           addq.w 0x6, a7
         0x004884f6      4a1f           tst.b (a7)+
     < 0x004884f8      6728           beq.b 0x488522
        0x004884fa      9efc00fc       suba.w 0xfc, a7
        0x004884fe      2f390047fb3a   move.l 0x47fb3a, -(a7)
        0x00488504      3f790047fb3e.  move.w 0x47fb3e, 0x4(a7)
        0x0048850c      1f790047fb40.  move.b 0x47fb40, 0x6(a7)
        0x00488514      3f2efffe       move.w -0x2(a6), -(a7)
        0x00488518      1f01           move.b d1, -(a7)
        0x0048851a      4eba83b6       jsr MENUCOM.show_box(pc)
        0x0048851e      defc0104       adda.w 0x104, a7
     > 0x00488522      422e000c       clr.b 0xc(a6)
      > 0x00488526      4cdf0f03       movem.l (a7)+, d0-d1/a0-a3
           0x0048852a      4e5e           unlk a6
           0x0048852c      4e75           rts
 518: MENUCOM.check_subtable ();
           0x0048852e      4e56fca2       link.w a6, 0xfca2
           0x00488532      bfd5           cmpa.l (a5), a7
       < 0x00488534      6206           bhi.b 0x48853c
          0x00488536      44fc0002       move.w 0x2, ccr
          0x0048853a      4e76           trapv
       > 0x0048853c      defc014c       adda.w 0x14c, a7
           0x00488540      48e7f7f8       movem.l d0-d3/d5-d7/a0-a4, -(a7)
           0x00488544      7201           moveq 0x1, d1
           0x00488546      343c1068       move.w 0x1068, d2
           0x0048854a      363c0104       move.w 0x104, d3
           0x0048854e      7c00           moveq 0x0, d6
           0x00488550      302e000a       move.w 0xa(a6), d0
           0x00488554      4182           chk.w d2, d0
           0x00488556      48c0           ext.l d0
           0x00488558      e580           asl.l 0x2, d0
           0x0048855a      41f9008101fe   lea.l 0x8101fe, a0
           0x00488560      22700800       movea.l (a0, d0.l), a1
           0x00488564      b2c1           cmpa.w d1, a1
       < 0x00488566      670001c0       beq.w 0x488728
          0x0048856a      b3e9fffc       cmpa.l -0x4(a1), a1
      < 0x0048856e      6702           beq.b 0x488572
         0x00488570      4e4d           trap 0xd
      > 0x00488572      2869001e       movea.l 0x1e(a1), a4
      > 0x00488576      b8c1           cmpa.w d1, a4
     < 0x00488578      6712           beq.b 0x48858c
        0x0048857a      b9ecfffc       cmpa.l -0x4(a4), a4
    < 0x0048857e      6702           beq.b 0x488582
       0x00488580      4e4d           trap 0xd
    > 0x00488582      422c0002       clr.b 0x2(a4)
        0x00488586      286c0004       movea.l 0x4(a4), a4
     < 0x0048858a      60ea           bra.b 0x488576
     > 0x0048858c      302e000a       move.w 0xa(a6), d0
          0x00488590      4182           chk.w d2, d0
          0x00488592      48c0           ext.l d0
          0x00488594      e580           asl.l 0x2, d0
          0x00488596      41f9008101fe   lea.l 0x8101fe, a0
          0x0048859c      20700800       movea.l (a0, d0.l), a0
          0x004885a0      b1e8fffc       cmpa.l -0x4(a0), a0
      < 0x004885a4      6702           beq.b 0x4885a8
         0x004885a6      4e4d           trap 0xd
      > 0x004885a8      2868001e       movea.l 0x1e(a0), a4
      > 0x004885ac      b8c1           cmpa.w d1, a4
     < 0x004885ae      67000178       beq.w 0x488728
        0x004885b2      b9ecfffc       cmpa.l -0x4(a4), a4
    < 0x004885b6      6702           beq.b 0x4885ba
       0x004885b8      4e4d           trap 0xd
    > 0x004885ba      3a14           move.w (a4), d5
        0x004885bc      422efffa       clr.b -0x6(a6)
        0x004885c0      4b82           chk.w d2, d5
        0x004885c2      48c5           ext.l d5
        0x004885c4      2005           move.l d5, d0
        0x004885c6      e580           asl.l 0x2, d0
        0x004885c8      41f9008101fe   lea.l 0x8101fe, a0
        0x004885ce      20700800       movea.l (a0, d0.l), a0
        0x004885d2      b1e8fffc       cmpa.l -0x4(a0), a0
    < 0x004885d6      6702           beq.b 0x4885da
       0x004885d8      4e4d           trap 0xd
    > 0x004885da      0310           btst.l d1, (a0)
    < 0x004885dc      6608           bne.b 0x4885e6
       0x004885de      4a2e0008       tst.b 0x8(a6)
   < 0x004885e2      67000134       beq.w 0x488718
   > 0x004885e6      4a2c0002       tst.b 0x2(a4)
   < 0x004885ea      6600012c       bne.w 0x488718
      0x004885ee      3f05           move.w d5, -(a7)
      0x004885f0      486efdee       pea.l -0x212(a6)
      0x004885f4      4ebac1d0       jsr MENUCOM.get_macro_box_t(pc)
      0x004885f8      5c4f           addq.w 0x6, a7
      0x004885fa      4240           clr.w d0
      0x004885fc      102efdee       move.b -0x212(a6), d0
  < 0x00488600      6302           bls.b 0x488604
     0x00488602      7000           moveq 0x0, d0
  > 0x00488604      5300           subq.b 0x1, d0
  < 0x00488606      6512           bcs.b 0x48861a
     0x00488608      41eefdef       lea.l -0x211(a6), a0
     0x0048860c      45f90047fb42   lea.l 0x47fb42, a2
 > 0x00488612      b10a           cmpm.b (a2)+, (a0)+
 < 0x00488614      56c8fffc       dbne d0, 0x488612
 < 0x00488618      6604           bne.b 0x48861e
 > 0x0048861a      102efdee       move.b -0x212(a6), d0
 < 0x0048861e      662a           bne.b 0x48864a
     0x00488620      9efc00fc       suba.w 0xfc, a7
     0x00488624      2f390047fb42   move.l 0x47fb42, -(a7)
     0x0048862a      2f790047fb46.  move.l 0x47fb46, 0x4(a7)
     0x00488632      1f790047fb4a.  move.b 0x47fb4a, 0x8(a7)
     0x0048863a      3f05           move.w d5, -(a7)
     0x0048863c      1f01           move.b d1, -(a7)
     0x0048863e      4eba8292       jsr MENUCOM.show_box(pc)
     0x00488642      dec3           adda.w d3, a7
     0x00488644      1d41fffa       move.b d1, -0x6(a6)
     0x00488648      5286           addq.l 0x1, d6
  > 0x0048864a      266c0004       movea.l 0x4(a4), a3
  > 0x0048864e      b6c1           cmpa.w d1, a3
 < 0x00488650      670000c6       beq.w 0x488718
    0x00488654      b7ebfffc       cmpa.l -0x4(a3), a3
 < 0x00488658      6702           beq.b 0x48865c
    0x0048865a      4e4d           trap 0xd
 > 0x0048865c      3e13           move.w (a3), d7
    0x0048865e      4f82           chk.w d2, d7
    0x00488660      48c7           ext.l d7
    0x00488662      2007           move.l d7, d0
    0x00488664      e580           asl.l 0x2, d0
    0x00488666      41f9008101fe   lea.l 0x8101fe, a0
    0x0048866c      20700800       movea.l (a0, d0.l), a0
    0x00488670      b1e8fffc       cmpa.l -0x4(a0), a0
 < 0x00488674      6702           beq.b 0x488678
    0x00488676      4e4d           trap 0xd
 > 0x00488678      0310           btst.l d1, (a0)
 < 0x0048867a      6608           bne.b 0x488684
    0x0048867c      4a2e0008       tst.b 0x8(a6)
 < 0x00488680      6700008e       beq.w 0x488710
 > 0x00488684      3f07           move.w d7, -(a7)
    0x00488686      486efeee       pea.l -0x112(a6)
    0x0048868a      4ebac13a       jsr MENUCOM.get_macro_box_t(pc)
    0x0048868e      5c4f           addq.w 0x6, a7
    0x00488690      4240           clr.w d0
    0x00488692      102efeee       move.b -0x112(a6), d0
    0x00488696      b02efdee       cmp.b -0x212(a6), d0
 < 0x0048869a      6304           bls.b 0x4886a0
    0x0048869c      102efdee       move.b -0x212(a6), d0
 > 0x004886a0      5300           subq.b 0x1, d0
 < 0x004886a2      6510           bcs.b 0x4886b4
    0x004886a4      41eefeef       lea.l -0x111(a6), a0
    0x004886a8      45eefdef       lea.l -0x211(a6), a2
 > 0x004886ac      b10a           cmpm.b (a2)+, (a0)+
 < 0x004886ae      56c8fffc       dbne d0, 0x4886ac
 < 0x004886b2      6608           bne.b 0x4886bc
 > 0x004886b4      102efeee       move.b -0x112(a6), d0
    0x004886b8      b02efdee       cmp.b -0x212(a6), d0
 < 0x004886bc      6652           bne.b 0x488710
    0x004886be      17410002       move.b d1, 0x2(a3)
    0x004886c2      4a2efffa       tst.b -0x6(a6)
 < 0x004886c6      661e           bne.b 0x4886e6
    0x004886c8      9efc0100       suba.w 0x100, a7
    0x004886cc      204f           movea.l a7, a0
    0x004886ce      45f90047fb4b   lea.l 0x47fb4b, a2
    0x004886d4      7008           moveq 0x8, d0
 > 0x004886d6      10da           move.b (a2)+, (a0)+
 < 0x004886d8      51c8fffc       dbra d0, 0x4886d6
    0x004886dc      3f05           move.w d5, -(a7)
    0x004886de      1f01           move.b d1, -(a7)
    0x004886e0      4eba81f0       jsr MENUCOM.show_box(pc)
    0x004886e4      dec3           adda.w d3, a7
 > 0x004886e6      1d41fffa       move.b d1, -0x6(a6)
    0x004886ea      9efc00fc       suba.w 0xfc, a7
    0x004886ee      2f390047fb54   move.l 0x47fb54, -(a7)
    0x004886f4      2f790047fb58.  move.l 0x47fb58, 0x4(a7)
    0x004886fc      1f790047fb5c.  move.b 0x47fb5c, 0x8(a7)
    0x00488704      3f07           move.w d7, -(a7)
    0x00488706      1f01           move.b d1, -(a7)
    0x00488708      4eba81c8       jsr MENUCOM.show_box(pc)
    0x0048870c      dec3           adda.w d3, a7
    0x0048870e      5286           addq.l 0x1, d6
 > 0x00488710      266b0004       movea.l 0x4(a3), a3
 < 0x00488714      6000ff38       bra.w 0x48864e
 > 0x00488718      b9ecfffc       cmpa.l -0x4(a4), a4
    < 0x0048871c      6702           beq.b 0x488720
       0x0048871e      4e4d           trap 0xd
    > 0x00488720      286c0004       movea.l 0x4(a4), a4
     < 0x00488724      6000fe86       bra.w 0x4885ac
     > 0x00488728      2d46000c       move.l d6, 0xc(a6)
           0x0048872c      4cdf1fef       movem.l (a7)+, d0-d3/d5-d7/a0-a4
           0x00488730      4e5e           unlk a6
           0x00488732      4e75           rts
 210: MENUCOM.menu_check_comm ();
           0x00488734      4e56ff54       link.w a6, 0xff54
           0x00488738      bfd5           cmpa.l (a5), a7
       < 0x0048873a      6206           bhi.b 0x488742
          0x0048873c      44fc0002       move.w 0x2, ccr
          0x00488740      4e76           trapv
       > 0x00488742      defc008e       adda.w 0x8e, a7
           0x00488746      48e7fff8       movem.l d0-d7/a0-a4, -(a7)
           0x0048874a      45f9008143a2   lea.l 0x8143a2, a2
           0x00488750      47f80000       lea.l 0x0, a3
           0x00488754      49f9004070e4   lea.l p_wti_o, a4
           0x0048875a      223cffff8000   move.l 0xffff8000, d1
           0x00488760      7401           moveq 0x1, d2
           0x00488762      263c0000ffff   move.l 0xffff, d3
           0x00488768      7810           moveq 0x10, d4
           0x0048876a      7e00           moveq 0x0, d7
           0x0048876c      7c00           moveq 0x0, d6
           0x0048876e      554f           subq.w 0x2, a7
           0x00488770      4eb90043cfea   jsr G1_INPUT.g_alpha
           0x00488776      4a1f           tst.b (a7)+
       < 0x00488778      670001da       beq.w 0x488954
          0x0048877c      9efc0012       suba.w 0x12, a7
          0x00488780      4eb90043cefe   jsr G1_INPUT.g_name
          0x00488786      2d5fffee       move.l (a7)+, -0x12(a6)
          0x0048878a      2d5ffff2       move.l (a7)+, -0xe(a6)
          0x0048878e      2d5ffff6       move.l (a7)+, -0xa(a6)
          0x00488792      2d5ffffa       move.l (a7)+, -0x6(a6)
          0x00488796      1d57fffe       move.b (a7), -0x2(a6)
          0x0048879a      9efc0030       suba.w 0x30, a7
          0x0048879e      204f           movea.l a7, a0
          0x004887a0      43f90047fb5e   lea.l 0x47fb5e, a1
          0x004887a6      700b           moveq 0xb, d0
      > 0x004887a8      20d9           move.l (a1)+, (a0)+
      < 0x004887aa      51c8fffc       dbra d0, 0x4887a8
          0x004887ae      10d9           move.b (a1)+, (a0)+
          0x004887b0      9efc000e       suba.w 0xe, a7
          0x004887b4      2f2effee       move.l -0x12(a6), -(a7)
          0x004887b8      2f6efff20004   move.l -0xe(a6), 0x4(a7)
          0x004887be      2f6efff60008   move.l -0xa(a6), 0x8(a7)
          0x004887c4      2f6efffa000c   move.l -0x6(a6), 0xc(a7)
          0x004887ca      1f6efffe0010   move.b -0x2(a6), 0x10(a7)
          0x004887d0      554f           subq.w 0x2, a7
          0x004887d2      486f0014       pea.l 0x14(a7)
          0x004887d6      3f02           move.w d2, -(a7)
          0x004887d8      3f3c0031       move.w 0x31, -(a7)
          0x004887dc      486f000a       pea.l 0xa(a7)
          0x004887e0      4267           clr.w -(a7)
          0x004887e2      3f04           move.w d4, -(a7)
          0x004887e4      4eb9004401ac   jsr G4_LEXICAL.g_compare
          0x004887ea      dec4           adda.w d4, a7
          0x004887ec      301f           move.w (a7)+, d0
          0x004887ee      defc0044       adda.w 0x44, a7
          0x004887f2      5340           subq.w 0x1, d0
          0x004887f4      0c400003       cmpi.w 0x3, d0
      < 0x004887f8      6200010a       bhi.w 0x488904
         0x004887fc      d040           add.w d0, d0
         0x004887fe      303b0006       move.w 0x488806(pc, d0.w), d0
         0x00488802      4efb0002       jmp 0x488806(pc, d0.w)
          0x00488806      0008004a       
          0x00488807      08004a00       
          0x00488808      004a008c       
          0x00488809      4a00           tst.b d0
          0x0048880b      8c00           or.b d0, d6
          0x0048880d      c655           and.w (a5), d3
         0x0048880f      4f4eb900       
         0x00488810      4eb90043d022   jsr G1_INPUT.g_numeric
         0x00488816      4a1f           tst.b (a7)+
     < 0x00488818      6732           beq.b 0x48884c
        0x0048881a      5287           addq.l 0x1, d7
        0x0048881c      9efc000a       suba.w 0xa, a7
        0x00488820      48780001       pea.l 0x1
        0x00488824      3012           move.w (a2), d0
        0x00488826      48c0           ext.l d0
        0x00488828      2f00           move.l d0, -(a7)
        0x0048882a      4eb90043e376   jsr G2_EXPRESSION.g_number
        0x00488830      504f           addq.w 0x8, a7
        0x00488832      201f           move.l (a7)+, d0
        0x00488834      9081           sub.l d1, d0
        0x00488836      b083           cmp.l d3, d0
    < 0x00488838      6302           bls.b 0x48883c
       0x0048883a      4e4f           trap 0xf
    > 0x0048883c      d081           add.l d1, d0
        0x0048883e      3e80           move.w d0, (a7)
        0x00488840      4227           clr.b -(a7)
        0x00488842      4ebafcea       jsr MENUCOM.check_subtable(pc)
        0x00488846      584f           addq.w 0x4, a7
        0x00488848      dc9f           add.l (a7)+, d6
     < 0x0048884a      60c2           bra.b 0x48880e
     < 0x0048884c      600000d8       bra.w 0x488926
     > 0x00488850      554f           subq.w 0x2, a7
        0x00488852      4eb90043d022   jsr G1_INPUT.g_numeric
        0x00488858      4a1f           tst.b (a7)+
    < 0x0048885a      6732           beq.b 0x48888e
       0x0048885c      5287           addq.l 0x1, d7
       0x0048885e      9efc000a       suba.w 0xa, a7
       0x00488862      48780001       pea.l 0x1
       0x00488866      3012           move.w (a2), d0
       0x00488868      48c0           ext.l d0
       0x0048886a      2f00           move.l d0, -(a7)
       0x0048886c      4eb90043e376   jsr G2_EXPRESSION.g_number
       0x00488872      504f           addq.w 0x8, a7
       0x00488874      201f           move.l (a7)+, d0
       0x00488876      9081           sub.l d1, d0
       0x00488878      b083           cmp.l d3, d0
   < 0x0048887a      6302           bls.b 0x48887e
      0x0048887c      4e4f           trap 0xf
   > 0x0048887e      d081           add.l d1, d0
       0x00488880      3e80           move.w d0, (a7)
       0x00488882      1f02           move.b d2, -(a7)
       0x00488884      4ebafca8       jsr MENUCOM.check_subtable(pc)
       0x00488888      584f           addq.w 0x4, a7
       0x0048888a      dc9f           add.l (a7)+, d6
    < 0x0048888c      60c2           bra.b 0x488850
    < 0x0048888e      60000096       bra.w 0x488926
        0x00488892      3012           move.w (a2), d0
        0x00488894      48c0           ext.l d0
        0x00488896      2f00           move.l d0, -(a7)
        0x00488898      7a01           moveq 0x1, d5
    > 0x0048889a      ba97           cmp.l (a7), d5
   < 0x0048889c      6e2a           bgt.b 0x4888c8
      0x0048889e      554f           subq.w 0x2, a7
      0x004888a0      4eb90043fcc0   jsr G3_COMMAND.g_flagged
      0x004888a6      4a1f           tst.b (a7)+
  < 0x004888a8      661a           bne.b 0x4888c4
     0x004888aa      5287           addq.l 0x1, d7
     0x004888ac      594f           subq.w 0x4, a7
     0x004888ae      9a81           sub.l d1, d5
     0x004888b0      ba83           cmp.l d3, d5
  < 0x004888b2      6302           bls.b 0x4888b6
     0x004888b4      4e4f           trap 0xf
  > 0x004888b6      da81           add.l d1, d5
     0x004888b8      3f05           move.w d5, -(a7)
     0x004888ba      4227           clr.b -(a7)
     0x004888bc      4ebafc70       jsr MENUCOM.check_subtable(pc)
     0x004888c0      584f           addq.w 0x4, a7
     0x004888c2      dc9f           add.l (a7)+, d6
  > 0x004888c4      5285           addq.l 0x1, d5
   < 0x004888c6      68d2           bvc.b 0x48889a
   > 0x004888c8      584f           addq.w 0x4, a7
   < 0x004888ca      605a           bra.b 0x488926
      0x004888cc      3012           move.w (a2), d0
      0x004888ce      48c0           ext.l d0
      0x004888d0      2f00           move.l d0, -(a7)
      0x004888d2      7a01           moveq 0x1, d5
  > 0x004888d4      ba97           cmp.l (a7), d5
  < 0x004888d6      6e2a           bgt.b 0x488902
     0x004888d8      554f           subq.w 0x2, a7
     0x004888da      4eb90043fcc0   jsr G3_COMMAND.g_flagged
     0x004888e0      4a1f           tst.b (a7)+
  < 0x004888e2      661a           bne.b 0x4888fe
     0x004888e4      5287           addq.l 0x1, d7
     0x004888e6      594f           subq.w 0x4, a7
     0x004888e8      9a81           sub.l d1, d5
     0x004888ea      ba83           cmp.l d3, d5
  < 0x004888ec      6302           bls.b 0x4888f0
     0x004888ee      4e4f           trap 0xf
  > 0x004888f0      da81           add.l d1, d5
     0x004888f2      3f05           move.w d5, -(a7)
     0x004888f4      1f02           move.b d2, -(a7)
     0x004888f6      4ebafc36       jsr MENUCOM.check_subtable(pc)
     0x004888fa      584f           addq.w 0x4, a7
     0x004888fc      dc9f           add.l (a7)+, d6
  > 0x004888fe      5285           addq.l 0x1, d5
  < 0x00488900      68d2           bvc.b 0x4888d4
  < 0x00488902      60c4           bra.b 0x4888c8
    > 0x00488904      41f90047fbca   lea.l 0x47fbca, a0
        0x0048890a      700d           moveq 0xd, d0
    > 0x0048890c      2f20           move.l -(a0), -(a7)
    < 0x0048890e      51c8fffc       dbra d0, 0x48890c
        0x00488912      3f20           move.w -(a0), -(a7)
        0x00488914      4857           pea.l (a7)
        0x00488916      3f02           move.w d2, -(a7)
        0x00488918      3f3c003a       move.w 0x3a, -(a7)
        0x0048891c      4eb90043cd18   jsr G1_INPUT.g_error
        0x00488922      defc0042       adda.w 0x42, a7
   > 0x00488926      2f07           move.l d7, -(a7)
           0x00488928      4853           pea.l (a3)
           0x0048892a      4e94           jsr (a4)                    ; fcn.0000000d
           0x0048892c      504f           addq.w 0x8, a7
           0x0048892e      48790047fbcb   pea.l 0x47fbcb
           0x00488934      48780014       pea.l 0x14
           0x00488938      2f17           move.l (a7), -(a7)
           0x0048893a      4eb9004047ea   jsr p_wts_o
           0x00488940      504f           addq.w 0x8, a7
           0x00488942      2e86           move.l d6, (a7)
           0x00488944      4853           pea.l (a3)
           0x00488946      4e94           jsr (a4)                    ; fcn.0000000d
           0x00488948      504f           addq.w 0x8, a7
           0x0048894a      48790047fbe0   pea.l 0x47fbe0
       < 0x00488950      600000fc       bra.w 0x488a4e
       > 0x00488954      554f           subq.w 0x2, a7
           0x00488956      4eb90043d022   jsr G1_INPUT.g_numeric
           0x0048895c      4a1f           tst.b (a7)+
       < 0x0048895e      676e           beq.b 0x4889ce
          ; CODE XREF from MENUCOM @ +0xa242
      > 0x00488960      554f           subq.w 0x2, a7
         0x00488962      4eb90043d022   jsr G1_INPUT.g_numeric
         0x00488968      4a1f           tst.b (a7)+
     < 0x0048896a      6734           beq.b 0x4889a0
        0x0048896c      5287           addq.l 0x1, d7
        0x0048896e      514f           subq.w 0x8, a7
        0x00488970      48780001       pea.l 0x1
        0x00488974      3012           move.w (a2), d0
        0x00488976      48c0           ext.l d0
        0x00488978      2f00           move.l d0, -(a7)
        0x0048897a      4eb90043e376   jsr G2_EXPRESSION.g_number
        0x00488980      504f           addq.w 0x8, a7
        0x00488982      201f           move.l (a7)+, d0
        0x00488984      9081           sub.l d1, d0
        0x00488986      b083           cmp.l d3, d0
    < 0x00488988      6302           bls.b 0x48898c
       0x0048898a      4e4f           trap 0xf
    > 0x0048898c      d081           add.l d1, d0
        0x0048898e      3e80           move.w d0, (a7)
        0x00488990      4227           clr.b -(a7)
        0x00488992      4ebafac8       jsr MENUCOM.check_box(pc)
        0x00488996      584f           addq.w 0x4, a7
        0x00488998      4a1f           tst.b (a7)+
    < 0x0048899a      6602           bne.b 0x48899e
       0x0048899c      5286           addq.l 0x1, d6
    < 0x0048899e      60c0           bra.b 0x488960
     > 0x004889a0      2f07           move.l d7, -(a7)
          0x004889a2      4853           pea.l (a3)
          0x004889a4      4e94           jsr (a4)                    ; fcn.0000000d
          0x004889a6      504f           addq.w 0x8, a7
          0x004889a8      48790047fbe9   pea.l 0x47fbe9
          0x004889ae      48780010       pea.l 0x10
          0x004889b2      2f17           move.l (a7), -(a7)
          0x004889b4      4eb9004047ea   jsr p_wts_o
          0x004889ba      504f           addq.w 0x8, a7
          0x004889bc      2e86           move.l d6, (a7)
          0x004889be      4853           pea.l (a3)
          0x004889c0      4e94           jsr (a4)                    ; fcn.0000000d
          0x004889c2      504f           addq.w 0x8, a7
          0x004889c4      48790047fbfa   pea.l 0x47fbfa
      < 0x004889ca      60000082       bra.w 0x488a4e
      > 0x004889ce      3012           move.w (a2), d0
          0x004889d0      48c0           ext.l d0
          0x004889d2      2f00           move.l d0, -(a7)
          0x004889d4      7a01           moveq 0x1, d5
      > 0x004889d6      ba97           cmp.l (a7), d5
     < 0x004889d8      6e4a           bgt.b 0x488a24
        0x004889da      554f           subq.w 0x2, a7
        0x004889dc      4eb90043fcc0   jsr G3_COMMAND.g_flagged
        0x004889e2      4a1f           tst.b (a7)+
    < 0x004889e4      663a           bne.b 0x488a20
       0x004889e6      0c8500001068   cmpi.l 0x1068, d5
   < 0x004889ec      6302           bls.b 0x4889f0
      0x004889ee      4e4f           trap 0xf
   > 0x004889f0      2005           move.l d5, d0
       0x004889f2      e580           asl.l 0x2, d0
       0x004889f4      41f9008101fe   lea.l 0x8101fe, a0
       0x004889fa      20700800       movea.l (a0, d0.l), a0
       0x004889fe      b0c2           cmpa.w d2, a0
   < 0x00488a00      671e           beq.b 0x488a20
      0x00488a02      5287           addq.l 0x1, d7
      0x00488a04      554f           subq.w 0x2, a7
      0x00488a06      9a81           sub.l d1, d5
      0x00488a08      ba83           cmp.l d3, d5
  < 0x00488a0a      6302           bls.b 0x488a0e
     0x00488a0c      4e4f           trap 0xf
  > 0x00488a0e      da81           add.l d1, d5
      0x00488a10      3f05           move.w d5, -(a7)
      0x00488a12      4227           clr.b -(a7)
      0x00488a14      4ebafa46       jsr MENUCOM.check_box(pc)
      0x00488a18      584f           addq.w 0x4, a7
      0x00488a1a      4a1f           tst.b (a7)+
  < 0x00488a1c      6602           bne.b 0x488a20
     0x00488a1e      5286           addq.l 0x1, d6
  > 0x00488a20      5285           addq.l 0x1, d5
     < 0x00488a22      68b2           bvc.b 0x4889d6
     > 0x00488a24      2e87           move.l d7, (a7)
          0x00488a26      4853           pea.l (a3)
          0x00488a28      4e94           jsr (a4)                    ; fcn.0000000d
          0x00488a2a      504f           addq.w 0x8, a7
          0x00488a2c      48790047fc03   pea.l 0x47fc03
          0x00488a32      48780010       pea.l 0x10
          0x00488a36      2f17           move.l (a7), -(a7)
          0x00488a38      4eb9004047ea   jsr p_wts_o
          0x00488a3e      504f           addq.w 0x8, a7
          0x00488a40      2e86           move.l d6, (a7)
          0x00488a42      4853           pea.l (a3)
          0x00488a44      4e94           jsr (a4)                    ; fcn.0000000d
          0x00488a46      504f           addq.w 0x8, a7
          0x00488a48      48790047fc14   pea.l 0x47fc14
          ; CODE XREFS from MENUCOM @ +0xa1f4, +0xa26e
      > 0x00488a4e      48780008       pea.l 0x8
            0x00488a52      2f17           move.l (a7), -(a7)
            0x00488a54      4eb9004047ea   jsr p_wts_o
            0x00488a5a      defc000c       adda.w 0xc, a7
            0x00488a5e      4eb900404946   jsr p_wtln_o
            0x00488a64      4cdf1fff       movem.l (a7)+, d0-d7/a0-a4
            0x00488a68      4e5e           unlk a6
            0x00488a6a      4e75           rts
 272: MENUCOM.name_command ();
           0x00488a6c      4e56ff88       link.w a6, 0xff88
           0x00488a70      bfd5           cmpa.l (a5), a7
       < 0x00488a72      6206           bhi.b 0x488a7a
          0x00488a74      44fc0002       move.w 0x2, ccr
          0x00488a78      4e76           trapv
       > 0x00488a7a      defc0066       adda.w 0x66, a7
           0x00488a7e      48e7f8e0       movem.l d0-d4/a0-a2, -(a7)
           0x00488a82      45f900818548   lea.l 0x818548, a2
           0x00488a88      7201           moveq 0x1, d1
           0x00488a8a      7420           moveq 0x20, d2
           0x00488a8c      760a           moveq 0xa, d3
           0x00488a8e      7810           moveq 0x10, d4
           0x00488a90      554f           subq.w 0x2, a7
           0x00488a92      4eb90043cc02   jsr G1_INPUT.g_end_of_line
           0x00488a98      4a1f           tst.b (a7)+
       < 0x00488a9a      660000b2       bne.w 0x488b4e
          0x00488a9e      9efc0012       suba.w 0x12, a7
          0x00488aa2      4eb90043cefe   jsr G1_INPUT.g_name
          0x00488aa8      2d5fffee       move.l (a7)+, -0x12(a6)
          0x00488aac      2d5ffff2       move.l (a7)+, -0xe(a6)
          0x00488ab0      2d5ffff6       move.l (a7)+, -0xa(a6)
          0x00488ab4      2d5ffffa       move.l (a7)+, -0x6(a6)
          0x00488ab8      1d57fffe       move.b (a7), -0x2(a6)
          0x00488abc      9ec3           suba.w d3, a7
          0x00488abe      204f           movea.l a7, a0
          0x00488ac0      43f90047fc1d   lea.l 0x47fc1d, a1
          0x00488ac6      700a           moveq 0xa, d0
      > 0x00488ac8      10d9           move.b (a1)+, (a0)+
      < 0x00488aca      51c8fffc       dbra d0, 0x488ac8
          0x00488ace      9efc000e       suba.w 0xe, a7
          0x00488ad2      2f2effee       move.l -0x12(a6), -(a7)
          0x00488ad6      2f6efff20004   move.l -0xe(a6), 0x4(a7)
          0x00488adc      2f6efff60008   move.l -0xa(a6), 0x8(a7)
          0x00488ae2      2f6efffa000c   move.l -0x6(a6), 0xc(a7)
          0x00488ae8      1f6efffe0010   move.b -0x2(a6), 0x10(a7)
          0x00488aee      554f           subq.w 0x2, a7
          0x00488af0      486f0014       pea.l 0x14(a7)
          0x00488af4      3f01           move.w d1, -(a7)
          0x00488af6      3f3c000b       move.w 0xb, -(a7)
          0x00488afa      486f000a       pea.l 0xa(a7)
          0x00488afe      4267           clr.w -(a7)
          0x00488b00      3f04           move.w d4, -(a7)
          0x00488b02      4eb9004401ac   jsr G4_LEXICAL.g_compare
          0x00488b08      dec4           adda.w d4, a7
          0x00488b0a      3017           move.w (a7), d0
          0x00488b0c      b041           cmp.w d1, d0
      < 0x00488b0e      6708           beq.b 0x488b18
         0x00488b10      0c400002       cmpi.w 0x2, d0
     < 0x00488b14      6708           beq.b 0x488b1e
    < 0x00488b16      600c           bra.b 0x488b24
    > 0x00488b18      4212           clr.b (a2)
        0x00488b1a      dec2           adda.w d2, a7
    < 0x00488b1c      6030           bra.b 0x488b4e
    > 0x00488b1e      1481           move.b d1, (a2)
        0x00488b20      dec2           adda.w d2, a7
    < 0x00488b22      602a           bra.b 0x488b4e
    > 0x00488b24      9efc0018       suba.w 0x18, a7
        0x00488b28      204f           movea.l a7, a0
        0x00488b2a      43f90047fc29   lea.l 0x47fc29, a1
        0x00488b30      7016           moveq 0x16, d0
    > 0x00488b32      10d9           move.b (a1)+, (a0)+
    < 0x00488b34      51c8fffc       dbra d0, 0x488b32
        0x00488b38      4857           pea.l (a7)
        0x00488b3a      3f01           move.w d1, -(a7)
        0x00488b3c      3f3c0017       move.w 0x17, -(a7)
        0x00488b40      4eb90043cd18   jsr G1_INPUT.g_error
        0x00488b46      defc0040       adda.w 0x40, a7
    < 0x00488b4a      6002           bra.b 0x488b4e
        0x00488b4c      dec2           adda.w d2, a7
    > 0x00488b4e      48790047fc41   pea.l 0x47fc41
           0x00488b54      4878000e       pea.l 0xe
           0x00488b58      2f17           move.l (a7), -(a7)
           0x00488b5a      4eb9004047ea   jsr p_wts_o
           0x00488b60      dec3           adda.w d3, a7
           0x00488b62      1e92           move.b (a2), (a7)
           0x00488b64      48780005       pea.l 0x5
           0x00488b68      4eb90040718c   jsr p_wtb_o
           0x00488b6e      5c4f           addq.w 0x6, a7
           0x00488b70      4eb900404946   jsr p_wtln_o
           0x00488b76      4cdf071f       movem.l (a7)+, d0-d4/a0-a2
           0x00488b7a      4e5e           unlk a6
           0x00488b7c      4e75           rts
 182: MENUCOM.macro_name_comm ();
           0x00488b7e      4e56fde0       link.w a6, 0xfde0
           0x00488b82      bfd5           cmpa.l (a5), a7
       < 0x00488b84      6206           bhi.b 0x488b8c
          0x00488b86      44fc0002       move.w 0x2, ccr
          0x00488b8a      4e76           trapv
       > 0x00488b8c      defc011c       adda.w 0x11c, a7
           0x00488b90      48e7c1c0       movem.l d0-d1/d7/a0-a1, -(a7)
           0x00488b94      7201           moveq 0x1, d1
           0x00488b96      594f           subq.w 0x4, a7
           0x00488b98      48780001       pea.l 0x1
           0x00488b9c      3039008143a2   move.w 0x8143a2, d0
           0x00488ba2      48c0           ext.l d0
           0x00488ba4      2f00           move.l d0, -(a7)
           0x00488ba6      4eb90043e376   jsr G2_EXPRESSION.g_number
           0x00488bac      504f           addq.w 0x8, a7
           0x00488bae      2e1f           move.l (a7)+, d7
           0x00488bb0      486eff00       pea.l -0x100(a6)
           0x00488bb4      4eb90043cc6e   jsr G1_INPUT.g_rest_of_line
           0x00488bba      584f           addq.w 0x4, a7
           0x00488bbc      0487ffff8000   subi.l 0xffff8000, d7
           0x00488bc2      0c870000ffff   cmpi.l 0xffff, d7
       < 0x00488bc8      6302           bls.b 0x488bcc
          0x00488bca      4e4f           trap 0xf
       > 0x00488bcc      0687ffff8000   addi.l 0xffff8000, d7
           0x00488bd2      9efc0100       suba.w 0x100, a7
           0x00488bd6      204f           movea.l a7, a0
           0x00488bd8      43f90047fc4f   lea.l 0x47fc4f, a1
           0x00488bde      7009           moveq 0x9, d0
       > 0x00488be0      10d9           move.b (a1)+, (a0)+
       < 0x00488be2      51c8fffc       dbra d0, 0x488be0
           0x00488be6      3f07           move.w d7, -(a7)
           0x00488be8      1f01           move.b d1, -(a7)
           0x00488bea      4eb9004808d2   jsr MENUCOM.show_box
           0x00488bf0      defc0102       adda.w 0x102, a7
           0x00488bf4      3e87           move.w d7, (a7)
           0x00488bf6      9efc0100       suba.w 0x100, a7
           0x00488bfa      204f           movea.l a7, a0
           0x00488bfc      43eeff00       lea.l -0x100(a6), a1
           0x00488c00      703f           moveq 0x3f, d0
       > 0x00488c02      20d9           move.l (a1)+, (a0)+
       < 0x00488c04      51c8fffc       dbra d0, 0x488c02
           0x00488c08      4ebab824       jsr MENUCOM.set_box_macro_n(pc)
           0x00488c0c      544f           addq.w 0x2, a7
           0x00488c0e      204f           movea.l a7, a0
           0x00488c10      43f90047fc59   lea.l 0x47fc59, a1
           0x00488c16      7007           moveq 0x7, d0
       > 0x00488c18      10d9           move.b (a1)+, (a0)+
       < 0x00488c1a      51c8fffc       dbra d0, 0x488c18
           0x00488c1e      3f07           move.w d7, -(a7)
           0x00488c20      1f01           move.b d1, -(a7)
           0x00488c22      4eb9004808d2   jsr MENUCOM.show_box
           0x00488c28      defc0104       adda.w 0x104, a7
           0x00488c2c      4cdf0383       movem.l (a7)+, d0-d1/d7/a0-a1
           0x00488c30      4e5e           unlk a6
           0x00488c32      4e75           rts
 374: MENUCOM.box_hit_command ();
           0x00488c34      4e56fe9c       link.w a6, 0xfe9c
           0x00488c38      bfd5           cmpa.l (a5), a7
       < 0x00488c3a      6206           bhi.b 0x488c42
          0x00488c3c      44fc0002       move.w 0x2, ccr
          0x00488c40      4e76           trapv
       > 0x00488c42      defc014a       adda.w 0x14a, a7
           0x00488c46      48e7fff0       movem.l d0-d7/a0-a3, -(a7)
           0x00488c4a      45eeffec       lea.l -0x14(a6), a2
           0x00488c4e      47f9004047ea   lea.l p_wts_o, a3
           0x00488c54      7212           moveq 0x12, d1
           0x00488c56      243cffff8000   move.l 0xffff8000, d2
           0x00488c5c      7601           moveq 0x1, d3
           0x00488c5e      780c           moveq 0xc, d4
           0x00488c60      4252           clr.w (a2)
           0x00488c62      7c00           moveq 0x0, d6
           0x00488c64      7e00           moveq 0x0, d7
           0x00488c66      4eb90043cbc8   jsr G1_INPUT.g_skip_spaces
           0x00488c6c      486effef       pea.l -0x11(a6)
           0x00488c70      4eb90043cc6e   jsr G1_INPUT.g_rest_of_line
           0x00488c76      584f           addq.w 0x4, a7
       > 0x00488c78      9ec1           suba.w d1, a7
          0x00488c7a      204f           movea.l a7, a0
          0x00488c7c      43eeffef       lea.l -0x11(a6), a1
          0x00488c80      7010           moveq 0x10, d0
      > 0x00488c82      10d9           move.b (a1)+, (a0)+
      < 0x00488c84      51c8fffc       dbra d0, 0x488c82
          0x00488c88      554f           subq.w 0x2, a7
          0x00488c8a      486f0002       pea.l 0x2(a7)
          0x00488c8e      4267           clr.w -(a7)
          0x00488c90      3f3c0010       move.w 0x10, -(a7)
          0x00488c94      4852           pea.l (a2)
          0x00488c96      486effee       pea.l -0x12(a6)
          0x00488c9a      4ebaca36       jsr MENUCOM.match_boxtext(pc)
          0x00488c9e      defc0010       adda.w 0x10, a7
          0x00488ca2      4a1f           tst.b (a7)+
      < 0x00488ca4      6604           bne.b 0x488caa
         0x00488ca6      dec1           adda.w d1, a7
     < 0x00488ca8      605c           bra.b 0x488d06
     > 0x00488caa      48c6           ext.l d6
         0x00488cac      2006           move.l d6, d0
         0x00488cae      5280           addq.l 0x1, d0
         0x00488cb0      9082           sub.l d2, d0
         0x00488cb2      0c800000ffff   cmpi.l 0xffff, d0
     < 0x00488cb8      6302           bls.b 0x488cbc
        0x00488cba      4e4f           trap 0xf
     > 0x00488cbc      d082           add.l d2, d0
         0x00488cbe      3c00           move.w d0, d6
         0x00488cc0      4a2effee       tst.b -0x12(a6)
     < 0x00488cc4      673a           beq.b 0x488d00
        0x00488cc6      9efc0100       suba.w 0x100, a7
        0x00488cca      204f           movea.l a7, a0
        0x00488ccc      43f90047fc61   lea.l 0x47fc61, a1
        0x00488cd2      7006           moveq 0x6, d0
    > 0x00488cd4      10d9           move.b (a1)+, (a0)+
    < 0x00488cd6      51c8fffc       dbra d0, 0x488cd4
        0x00488cda      3f12           move.w (a2), -(a7)
        0x00488cdc      1f03           move.b d3, -(a7)
        0x00488cde      4eb9004808d2   jsr MENUCOM.show_box
        0x00488ce4      defc0104       adda.w 0x104, a7
        0x00488ce8      48c7           ext.l d7
        0x00488cea      2007           move.l d7, d0
        0x00488cec      5280           addq.l 0x1, d0
        0x00488cee      9082           sub.l d2, d0
        0x00488cf0      0c800000ffff   cmpi.l 0xffff, d0
    < 0x00488cf6      6302           bls.b 0x488cfa
       0x00488cf8      4e4f           trap 0xf
    > 0x00488cfa      d082           add.l d2, d0
        0x00488cfc      3e00           move.w d0, d7
        0x00488cfe      3a12           move.w (a2), d5
     > 0x00488d00      dec1           adda.w d1, a7
      < 0x00488d02      6000ff74       bra.w 0x488c78
     > 0x00488d06      48790047fc69   pea.l 0x47fc69
           0x00488d0c      48780006       pea.l 0x6
           0x00488d10      2f17           move.l (a7), -(a7)
           0x00488d12      4e93           jsr (a3)                    ; fcn.0000000c
           0x00488d14      dec4           adda.w d4, a7
           0x00488d16      48c6           ext.l d6
           0x00488d18      2f06           move.l d6, -(a7)
           0x00488d1a      48780000       pea.l 0x0
           0x00488d1e      4eb9004070e4   jsr p_wti_o
           0x00488d24      504f           addq.w 0x8, a7
           0x00488d26      48790047fc70   pea.l 0x47fc70
           0x00488d2c      4878000a       pea.l 0xa
           0x00488d30      2f17           move.l (a7), -(a7)
           0x00488d32      4e93           jsr (a3)                    ; fcn.0000000c
           0x00488d34      dec4           adda.w d4, a7
           0x00488d36      48c7           ext.l d7
           0x00488d38      2f07           move.l d7, -(a7)
           0x00488d3a      48780000       pea.l 0x0
           0x00488d3e      4eb9004070e4   jsr p_wti_o
           0x00488d44      504f           addq.w 0x8, a7
           0x00488d46      4eb900404946   jsr p_wtln_o
           0x00488d4c      4a47           tst.w d7
       < 0x00488d4e      6618           bne.b 0x488d68
          0x00488d50      48790047fc7b   pea.l 0x47fc7b
          0x00488d56      48780010       pea.l 0x10
      > 0x00488d5a      2f17           move.l (a7), -(a7)
         0x00488d5c      4e93           jsr (a3)                    ; fcn.0000000c
         0x00488d5e      dec4           adda.w d4, a7
         0x00488d60      4eb900404946   jsr p_wtln_o
     < 0x00488d66      603a           bra.b 0x488da2
     > 0x00488d68      be43           cmp.w d3, d7
     < 0x00488d6a      6f0c           ble.b 0x488d78
        0x00488d6c      48790047fc8c   pea.l 0x47fc8c
        0x00488d72      48780009       pea.l 0x9
     < 0x00488d76      60e2           bra.b 0x488d5a
      > 0x00488d78      9efc0100       suba.w 0x100, a7
          0x00488d7c      204f           movea.l a7, a0
          0x00488d7e      43f90047fc95   lea.l 0x47fc95, a1
          0x00488d84      7005           moveq 0x5, d0
      > 0x00488d86      10d9           move.b (a1)+, (a0)+
      < 0x00488d88      51c8fffc       dbra d0, 0x488d86
          0x00488d8c      3f05           move.w d5, -(a7)
          0x00488d8e      1f03           move.b d3, -(a7)
          0x00488d90      4eb9004808d2   jsr MENUCOM.show_box
          0x00488d96      defc0102       adda.w 0x102, a7
          0x00488d9a      3e85           move.w d5, (a7)
          0x00488d9c      4ebaa906       jsr MENUCOM.push_box(pc)
          0x00488da0      544f           addq.w 0x2, a7
     > 0x00488da2      4cdf0fff       movem.l (a7)+, d0-d7/a0-a3
           0x00488da6      4e5e           unlk a6
           0x00488da8      4e75           rts
 124: MENUCOM.box_hit_numeric ();
           0x00488daa      4e56fee6       link.w a6, 0xfee6
           0x00488dae      bfd5           cmpa.l (a5), a7
       < 0x00488db0      6206           bhi.b 0x488db8
          0x00488db2      44fc0002       move.w 0x2, ccr
          0x00488db6      4e76           trapv
       > 0x00488db8      defc0118       adda.w 0x118, a7
           0x00488dbc      48e781c0       movem.l d0/d7/a0-a1, -(a7)
           0x00488dc0      594f           subq.w 0x4, a7
           0x00488dc2      48780001       pea.l 0x1
           0x00488dc6      3039008143a2   move.w 0x8143a2, d0
           0x00488dcc      48c0           ext.l d0
           0x00488dce      2f00           move.l d0, -(a7)
           0x00488dd0      4eb90043e376   jsr G2_EXPRESSION.g_number
           0x00488dd6      504f           addq.w 0x8, a7
           0x00488dd8      201f           move.l (a7)+, d0
           0x00488dda      0480ffff8000   subi.l 0xffff8000, d0
           0x00488de0      0c800000ffff   cmpi.l 0xffff, d0
       < 0x00488de6      6302           bls.b 0x488dea
          0x00488de8      4e4f           trap 0xf
       > 0x00488dea      0680ffff8000   addi.l 0xffff8000, d0
           0x00488df0      3e00           move.w d0, d7
           0x00488df2      9efc0100       suba.w 0x100, a7
           0x00488df6      204f           movea.l a7, a0
           0x00488df8      43f90047fc9b   lea.l 0x47fc9b, a1
           0x00488dfe      7005           moveq 0x5, d0
       > 0x00488e00      10d9           move.b (a1)+, (a0)+
       < 0x00488e02      51c8fffc       dbra d0, 0x488e00
           0x00488e06      3f07           move.w d7, -(a7)
           0x00488e08      1f3c0001       move.b 0x1, -(a7)
           0x00488e0c      4eb9004808d2   jsr MENUCOM.show_box
           0x00488e12      defc0102       adda.w 0x102, a7
           0x00488e16      3e87           move.w d7, (a7)
           0x00488e18      4ebaa88a       jsr MENUCOM.push_box(pc)
           0x00488e1c      544f           addq.w 0x2, a7
           0x00488e1e      4cdf0381       movem.l (a7)+, d0/d7/a0-a1
           0x00488e22      4e5e           unlk a6
           0x00488e24      4e75           rts
            ; CALL XREF from MENUCOM.boxlist_command @ 0x4893d0
 148: MENUCOM.no_text ();
           0x00488e26      4e56ffdc       link.w a6, 0xffdc
           0x00488e2a      bfd5           cmpa.l (a5), a7
       < 0x00488e2c      6206           bhi.b 0x488e34
          0x00488e2e      44fc0002       move.w 0x2, ccr
          0x00488e32      4e76           trapv
       > 0x00488e34      defc0020       adda.w 0x20, a7
           0x00488e38      48e7c1c0       movem.l d0-d1/d7/a0-a1, -(a7)
           0x00488e3c      1d7c0001000c   move.b 0x1, 0xc(a6)
           0x00488e42      202e0008       move.l 0x8(a6), d0
           0x00488e46      0c8000001068   cmpi.l 0x1068, d0
       < 0x00488e4c      6302           bls.b 0x488e50
          0x00488e4e      4e4f           trap 0xf
       > 0x00488e50      e580           asl.l 0x2, d0
           0x00488e52      41f9008101fe   lea.l 0x8101fe, a0
           0x00488e58      20700800       movea.l (a0, d0.l), a0
           0x00488e5c      b1e8fffc       cmpa.l -0x4(a0), a0
       < 0x00488e60      6702           beq.b 0x488e64
          0x00488e62      4e4d           trap 0xd
       > 0x00488e64      22680042       movea.l 0x42(a0), a1
           0x00488e68      b3e9fffc       cmpa.l -0x4(a1), a1
       < 0x00488e6c      6702           beq.b 0x488e70
          0x00488e6e      4e4d           trap 0xd
       > 0x00488e70      4280           clr.l d0
           0x00488e72      1011           move.b (a1), d0
           0x00488e74      2f00           move.l d0, -(a7)
           0x00488e76      7e01           moveq 0x1, d7
       > 0x00488e78      be97           cmp.l (a7), d7
      < 0x00488e7a      6e34           bgt.b 0x488eb0
         0x00488e7c      0c8700000040   cmpi.l 0x40, d7
     < 0x00488e82      6302           bls.b 0x488e86
        0x00488e84      4e4f           trap 0xf
     > 0x00488e86      22680042       movea.l 0x42(a0), a1
         0x00488e8a      b3e9fffc       cmpa.l -0x4(a1), a1
     < 0x00488e8e      6702           beq.b 0x488e92
        0x00488e90      4e4d           trap 0xd
     > 0x00488e92      4280           clr.l d0
         0x00488e94      10317800       move.b (a1, d7.l), d0
         0x00488e98      43f90047fca2   lea.l 0x47fca2, a1
         0x00488e9e      3200           move.w d0, d1
         0x00488ea0      e649           lsr.w 0x3, d1
         0x00488ea2      01311000       btst.l d0, (a1, d1.w)
     < 0x00488ea6      6704           beq.b 0x488eac
        0x00488ea8      422e000c       clr.b 0xc(a6)
     > 0x00488eac      5287           addq.l 0x1, d7
      < 0x00488eae      68c8           bvc.b 0x488e78
      > 0x00488eb0      584f           addq.w 0x4, a7
           0x00488eb2      4cdf0383       movem.l (a7)+, d0-d1/d7/a0-a1
           0x00488eb6      4e5e           unlk a6
           0x00488eb8      4e75           rts
            ; CALL XREF from MENUCOM.scan_tree @ 0x489272
            ; CALL XREFS from MENUCOM.boxlist_command @ 0x48941e, 0x4894be
 312: MENUCOM.box_name ();
           0x00488eba      4e56fec6       link.w a6, 0xfec6
           0x00488ebe      bfd5           cmpa.l (a5), a7
       < 0x00488ec0      6206           bhi.b 0x488ec8
          0x00488ec2      44fc0002       move.w 0x2, ccr
          0x00488ec6      4e76           trapv
       > 0x00488ec8      defc0032       adda.w 0x32, a7
           0x00488ecc      48e7e3e0       movem.l d0-d2/d6-d7/a0-a2, -(a7)
           0x00488ed0      45eefef8       lea.l -0x108(a6), a2
           0x00488ed4      243c000000ff   move.l 0xff, d2
           0x00488eda      202e0008       move.l 0x8(a6), d0
           0x00488ede      0c8000001068   cmpi.l 0x1068, d0
       < 0x00488ee4      6302           bls.b 0x488ee8
          0x00488ee6      4e4f           trap 0xf
       > 0x00488ee8      e580           asl.l 0x2, d0
           0x00488eea      41f9008101fe   lea.l 0x8101fe, a0
           0x00488ef0      20700800       movea.l (a0, d0.l), a0
           0x00488ef4      b1e8fffc       cmpa.l -0x4(a0), a0
       < 0x00488ef8      6702           beq.b 0x488efc
          0x00488efa      4e4d           trap 0xd
       > 0x00488efc      24b90047fcc2   move.l 0x47fcc2, (a2)
           0x00488f02      2d790047fcc6.  move.l 0x47fcc6, -0x104(a6)
           0x00488f0a      2d790047fcca.  move.l 0x47fcca, -0x100(a6)
           0x00488f12      2d790047fcce.  move.l 0x47fcce, -0xfc(a6)
           0x00488f1a      1d790047fcd2.  move.b 0x47fcd2, -0xf8(a6)
           0x00488f22      7e00           moveq 0x0, d7
           0x00488f24      22680042       movea.l 0x42(a0), a1
           0x00488f28      b3e9fffc       cmpa.l -0x4(a1), a1
       < 0x00488f2c      6702           beq.b 0x488f30
          0x00488f2e      4e4d           trap 0xd
       > 0x00488f30      4280           clr.l d0
           0x00488f32      1011           move.b (a1), d0
           0x00488f34      2f00           move.l d0, -(a7)
           0x00488f36      7c01           moveq 0x1, d6
       > 0x00488f38      bc97           cmp.l (a7), d6
      < 0x00488f3a      6e44           bgt.b 0x488f80
         0x00488f3c      0c8600000040   cmpi.l 0x40, d6
     < 0x00488f42      6302           bls.b 0x488f46
        0x00488f44      4e4f           trap 0xf
     > 0x00488f46      22680042       movea.l 0x42(a0), a1
         0x00488f4a      b3e9fffc       cmpa.l -0x4(a1), a1
     < 0x00488f4e      6702           beq.b 0x488f52
        0x00488f50      4e4d           trap 0xd
     > 0x00488f52      4280           clr.l d0
         0x00488f54      10316800       move.b (a1, d6.l), d0
         0x00488f58      43f90047fcd4   lea.l 0x47fcd4, a1
         0x00488f5e      3200           move.w d0, d1
         0x00488f60      e649           lsr.w 0x3, d1
         0x00488f62      01311000       btst.l d0, (a1, d1.w)
     < 0x00488f66      6704           beq.b 0x488f6c
        0x00488f68      5287           addq.l 0x1, d7
    < 0x00488f6a      6010           bra.b 0x488f7c
    > 0x00488f6c      2206           move.l d6, d1
        0x00488f6e      9287           sub.l d7, d1
        0x00488f70      b282           cmp.l d2, d1
    < 0x00488f72      6302           bls.b 0x488f76
       0x00488f74      4e4f           trap 0xf
    > 0x00488f76      224a           movea.l a2, a1
        0x00488f78      13801800       move.b d0, (a1, d1.l)
    > 0x00488f7c      5286           addq.l 0x1, d6
      < 0x00488f7e      68b8           bvc.b 0x488f38
      > 0x00488f80      584f           addq.w 0x4, a7
           0x00488f82      22680042       movea.l 0x42(a0), a1
           0x00488f86      b3e9fffc       cmpa.l -0x4(a1), a1
       < 0x00488f8a      6702           beq.b 0x488f8e
          0x00488f8c      4e4d           trap 0xd
       > 0x00488f8e      4280           clr.l d0
           0x00488f90      1011           move.b (a1), d0
           0x00488f92      9087           sub.l d7, d0
           0x00488f94      5280           addq.l 0x1, d0
           0x00488f96      b082           cmp.l d2, d0
       < 0x00488f98      6302           bls.b 0x488f9c
          0x00488f9a      4e4f           trap 0xf
       > 0x00488f9c      224a           movea.l a2, a1
           0x00488f9e      13bc00220800   move.b 0x22, (a1, d0.l)
           0x00488fa4      7000           moveq 0x0, d0
           0x00488fa6      41ee000d       lea.l 0xd(a6), a0
           0x00488faa      43f90047fcf5   lea.l 0x47fcf5, a1
       > 0x00488fb0      10d9           move.b (a1)+, (a0)+
       < 0x00488fb2      51c8fffc       dbra d0, 0x488fb0
           0x00488fb6      4240           clr.w d0
           0x00488fb8      1012           move.b (a2), d0
           0x00488fba      5200           addq.b 0x1, d0
       < 0x00488fbc      6406           bcc.b 0x488fc4
          0x00488fbe      4eb900406c8a   jsr p_strovr
       > 0x00488fc4      4240           clr.w d0
           0x00488fc6      1012           move.b (a2), d0
           0x00488fc8      3202           move.w d2, d1
           0x00488fca      5341           subq.w 0x1, d1
           0x00488fcc      b041           cmp.w d1, d0
       < 0x00488fce      6302           bls.b 0x488fd2
          0x00488fd0      3001           move.w d1, d0
       > 0x00488fd2      1d7c0001000c   move.b 0x1, 0xc(a6)
           0x00488fd8      d12e000c       add.b d0, 0xc(a6)
           0x00488fdc      5300           subq.b 0x1, d0
       < 0x00488fde      650a           bcs.b 0x488fea
          0x00488fe0      43eefef9       lea.l -0x107(a6), a1
      > 0x00488fe4      10d9           move.b (a1)+, (a0)+
      < 0x00488fe6      51c8fffc       dbra d0, 0x488fe4
       > 0x00488fea      4cdf07c7       movem.l (a7)+, d0-d2/d6-d7/a0-a2
           0x00488fee      4e5e           unlk a6
           0x00488ff0      4e75           rts
            ; CALL XREFS from MENUCOM.boxlist_command @ 0x489428, 0x4894c8
 280: MENUCOM.full_name ();
           0x00488ff2      4e56fed0       link.w a6, 0xfed0
           0x00488ff6      bfd5           cmpa.l (a5), a7
       < 0x00488ff8      6206           bhi.b 0x489000
          0x00488ffa      44fc0002       move.w 0x2, ccr
          0x00488ffe      4e76           trapv
       > 0x00489000      defc002c       adda.w 0x2c, a7
           0x00489004      48e7e1f0       movem.l d0-d2/d7/a0-a3, -(a7)
           0x00489008      47eefefc       lea.l -0x104(a6), a3
           0x0048900c      243c000000ff   move.l 0xff, d2
           0x00489012      202e0008       move.l 0x8(a6), d0
           0x00489016      0c8000001068   cmpi.l 0x1068, d0
       < 0x0048901c      6302           bls.b 0x489020
          0x0048901e      4e4f           trap 0xf
       > 0x00489020      e580           asl.l 0x2, d0
           0x00489022      41f9008101fe   lea.l 0x8101fe, a0
           0x00489028      20700800       movea.l (a0, d0.l), a0
           0x0048902c      b1e8fffc       cmpa.l -0x4(a0), a0
       < 0x00489030      6702           beq.b 0x489034
          0x00489032      4e4d           trap 0xd
       > 0x00489034      26b90047fcf6   move.l 0x47fcf6, (a3)
           0x0048903a      2d790047fcfa.  move.l 0x47fcfa, -0x100(a6)
           0x00489042      2d790047fcfe.  move.l 0x47fcfe, -0xfc(a6)
           0x0048904a      2d790047fd02.  move.l 0x47fd02, -0xf8(a6)
           0x00489052      1d790047fd06.  move.b 0x47fd06, -0xf4(a6)
           0x0048905a      22680042       movea.l 0x42(a0), a1
           0x0048905e      b3e9fffc       cmpa.l -0x4(a1), a1
       < 0x00489062      6702           beq.b 0x489066
          0x00489064      4e4d           trap 0xd
       > 0x00489066      4280           clr.l d0
           0x00489068      1011           move.b (a1), d0
           0x0048906a      2f00           move.l d0, -(a7)
           0x0048906c      7e01           moveq 0x1, d7
       > 0x0048906e      be97           cmp.l (a7), d7
      < 0x00489070      6e28           bgt.b 0x48909a
         0x00489072      be82           cmp.l d2, d7
     < 0x00489074      6302           bls.b 0x489078
        0x00489076      4e4f           trap 0xf
     > 0x00489078      224b           movea.l a3, a1
         0x0048907a      0c8700000040   cmpi.l 0x40, d7
     < 0x00489080      6302           bls.b 0x489084
        0x00489082      4e4f           trap 0xf
     > 0x00489084      24680042       movea.l 0x42(a0), a2
         0x00489088      b5eafffc       cmpa.l -0x4(a2), a2
     < 0x0048908c      6702           beq.b 0x489090
        0x0048908e      4e4d           trap 0xd
     > 0x00489090      13b278007800   move.b (a2, d7.l), (a1, d7.l)
         0x00489096      5287           addq.l 0x1, d7
      < 0x00489098      68d4           bvc.b 0x48906e
      > 0x0048909a      584f           addq.w 0x4, a7
           0x0048909c      22680042       movea.l 0x42(a0), a1
           0x004890a0      b3e9fffc       cmpa.l -0x4(a1), a1
       < 0x004890a4      6702           beq.b 0x4890a8
          0x004890a6      4e4d           trap 0xd
       > 0x004890a8      4280           clr.l d0
           0x004890aa      1011           move.b (a1), d0
           0x004890ac      5280           addq.l 0x1, d0
           0x004890ae      b082           cmp.l d2, d0
       < 0x004890b0      6302           bls.b 0x4890b4
          0x004890b2      4e4f           trap 0xf
       > 0x004890b4      224b           movea.l a3, a1
           0x004890b6      13bc00220800   move.b 0x22, (a1, d0.l)
           0x004890bc      7000           moveq 0x0, d0
           0x004890be      41ee000d       lea.l 0xd(a6), a0
           0x004890c2      43f90047fd08   lea.l 0x47fd08, a1
       > 0x004890c8      10d9           move.b (a1)+, (a0)+
       < 0x004890ca      51c8fffc       dbra d0, 0x4890c8
           0x004890ce      4240           clr.w d0
           0x004890d0      1013           move.b (a3), d0
           0x004890d2      5200           addq.b 0x1, d0
       < 0x004890d4      6406           bcc.b 0x4890dc
          0x004890d6      4eb900406c8a   jsr p_strovr
       > 0x004890dc      4240           clr.w d0
           0x004890de      1013           move.b (a3), d0
           0x004890e0      3202           move.w d2, d1
           0x004890e2      5341           subq.w 0x1, d1
           0x004890e4      b041           cmp.w d1, d0
       < 0x004890e6      6302           bls.b 0x4890ea
          0x004890e8      3001           move.w d1, d0
       > 0x004890ea      1d7c0001000c   move.b 0x1, 0xc(a6)
           0x004890f0      d12e000c       add.b d0, 0xc(a6)
           0x004890f4      5300           subq.b 0x1, d0
       < 0x004890f6      650a           bcs.b 0x489102
          0x004890f8      43eefefd       lea.l -0x103(a6), a1
      > 0x004890fc      10d9           move.b (a1)+, (a0)+
      < 0x004890fe      51c8fffc       dbra d0, 0x4890fc
       > 0x00489102      4cdf0f87       movem.l (a7)+, d0-d2/d7/a0-a3
           0x00489106      4e5e           unlk a6
           0x00489108      4e75           rts
            ; CALL XREFS from MENUCOM.scan_tree @ 0x4891ac, 0x48922e
            ; CALL XREF from MENUCOM.boxlist_command @ 0x4893ac
 96: MENUCOM.hidden ();
           0x0048910a      4e56ffec       link.w a6, 0xffec
           0x0048910e      bfd5           cmpa.l (a5), a7
       < 0x00489110      6206           bhi.b 0x489118
          0x00489112      44fc0002       move.w 0x2, ccr
          0x00489116      4e76           trapv
       > 0x00489118      defc0014       adda.w 0x14, a7
           0x0048911c      48e78080       movem.l d0/a0, -(a7)
           0x00489120      202e0008       move.l 0x8(a6), d0
           0x00489124      0c8000001068   cmpi.l 0x1068, d0
       < 0x0048912a      6302           bls.b 0x48912e
          0x0048912c      4e4f           trap 0xf
       > 0x0048912e      e580           asl.l 0x2, d0
           0x00489130      41f9008101fe   lea.l 0x8101fe, a0
           0x00489136      20700800       movea.l (a0, d0.l), a0
           0x0048913a      b1e8fffc       cmpa.l -0x4(a0), a0
       < 0x0048913e      6702           beq.b 0x489142
          0x00489140      4e4d           trap 0xd
       > 0x00489142      422e000c       clr.b 0xc(a6)
           0x00489146      08100000       btst.b 0x0, (a0)
       < 0x0048914a      6616           bne.b 0x489162
          0x0048914c      08100001       btst.b 0x1, (a0)
      < 0x00489150      6610           bne.b 0x489162
         0x00489152      08100002       btst.b 0x2, (a0)
     < 0x00489156      660a           bne.b 0x489162
        0x00489158      08100003       btst.b 0x3, (a0)
    < 0x0048915c      6604           bne.b 0x489162
       0x0048915e      522e000c       addq.b 0x1, 0xc(a6)
    > 0x00489162      4cdf0101       movem.l (a7)+, d0/a0
           0x00489166      4e5e           unlk a6
           0x00489168      4e75           rts
            ; CALL XREF from MENUCOM.boxlist_command @ 0x4893e6
 382: MENUCOM.scan_tree ();
           ; var int32_t var_5h @ a6-0x5
           0x0048916a      4e56fdb6       link.w a6, 0xfdb6
           0x0048916e      bfd5           cmpa.l (a5), a7
       < 0x00489170      6206           bhi.b 0x489178
          0x00489172      44fc0002       move.w 0x2, ccr
          0x00489176      4e76           trapv
       > 0x00489178      defc023c       adda.w 0x23c, a7
           0x0048917c      48e7f7f8       movem.l d0-d3/d5-d7/a0-a4, -(a7)
           0x00489180      7601           moveq 0x1, d3
           0x00489182      2a2e000c       move.l 0xc(a6), d5
           0x00489186      206e0008       movea.l 0x8(a6), a0
           0x0048918a      10b90047fd09   move.b 0x47fd09, (a0)
           0x00489190      1d43fffb       move.b d3, -0x5(a6)
       > 0x00489194      0c85000000e5   cmpi.l 0xe5, d5
      < 0x0048919a      6700013e       beq.w 0x4892da
         0x0048919e      102efffb       move.b -0x5(a6), d0
         0x004891a2      b003           cmp.b d3, d0
     < 0x004891a4      66000134       bne.w 0x4892da
        0x004891a8      554f           subq.w 0x2, a7
        0x004891aa      2f05           move.l d5, -(a7)
        0x004891ac      4ebaff5c       jsr MENUCOM.hidden(pc)
        0x004891b0      584f           addq.w 0x4, a7
        0x004891b2      4a1f           tst.b (a7)+
    < 0x004891b4      6708           beq.b 0x4891be
  > 0x004891b6      422efffb       clr.b -0x5(a6)
 < 0x004891ba      6000011a       bra.w 0x4892d6
 > 0x004891be      7e00           moveq 0x0, d7
     0x004891c0      7c00           moveq 0x0, d6
 > 0x004891c2      5287           addq.l 0x1, d7
    0x004891c4      0c8700001068   cmpi.l 0x1068, d7
 < 0x004891ca      6302           bls.b 0x4891ce
    0x004891cc      4e4f           trap 0xf
 > 0x004891ce      2007           move.l d7, d0
    0x004891d0      e580           asl.l 0x2, d0
    0x004891d2      41f9008101fe   lea.l 0x8101fe, a0
    0x004891d8      22700800       movea.l (a0, d0.l), a1
    0x004891dc      b2c3           cmpa.w d3, a1
 < 0x004891de      6734           beq.b 0x489214
    0x004891e0      b3e9fffc       cmpa.l -0x4(a1), a1
 < 0x004891e4      6702           beq.b 0x4891e8
    0x004891e6      4e4d           trap 0xd
 > 0x004891e8      2069001e       movea.l 0x1e(a1), a0
    0x004891ec      b0c3           cmpa.w d3, a0
 < 0x004891ee      6724           beq.b 0x489214
    0x004891f0      2848           movea.l a0, a4
 > 0x004891f2      b8c3           cmpa.w d3, a4
 < 0x004891f4      671e           beq.b 0x489214
    0x004891f6      4a06           tst.b d6
 < 0x004891f8      661a           bne.b 0x489214
    0x004891fa      b9ecfffc       cmpa.l -0x4(a4), a4
 < 0x004891fe      6702           beq.b 0x489202
    0x00489200      4e4d           trap 0xd
 > 0x00489202      3014           move.w (a4), d0
    0x00489204      48c0           ext.l d0
    0x00489206      b085           cmp.l d5, d0
 < 0x00489208      6604           bne.b 0x48920e
    0x0048920a      7c01           moveq 0x1, d6
 < 0x0048920c      6004           bra.b 0x489212
 > 0x0048920e      286c0004       movea.l 0x4(a4), a4
 < 0x00489212      60de           bra.b 0x4891f2
 > 0x00489214      4a06           tst.b d6
 < 0x00489216      660c           bne.b 0x489224
    0x00489218      3039008143a2   move.w 0x8143a2, d0
    0x0048921e      48c0           ext.l d0
    0x00489220      be80           cmp.l d0, d7
 < 0x00489222      669e           bne.b 0x4891c2
 > 0x00489224      4a06           tst.b d6
 < 0x00489226      6602           bne.b 0x48922a
 < 0x00489228      608c           bra.b 0x4891b6
  > 0x0048922a      554f           subq.w 0x2, a7
      0x0048922c      2f07           move.l d7, -(a7)
      0x0048922e      4ebafeda       jsr MENUCOM.hidden(pc)
      0x00489232      584f           addq.w 0x4, a7
      0x00489234      4a1f           tst.b (a7)+
  < 0x00489236      6704           beq.b 0x48923c
  < 0x00489238      6000ff7c       bra.w 0x4891b6
   > 0x0048923c      0c8700001068   cmpi.l 0x1068, d7
   < 0x00489242      6302           bls.b 0x489246
      0x00489244      4e4f           trap 0xf
   > 0x00489246      2007           move.l d7, d0
       0x00489248      e580           asl.l 0x2, d0
       0x0048924a      41f9008101fe   lea.l 0x8101fe, a0
       0x00489250      20700800       movea.l (a0, d0.l), a0
       0x00489254      b1e8fffc       cmpa.l -0x4(a0), a0
   < 0x00489258      6702           beq.b 0x48925c
      0x0048925a      4e4d           trap 0xd
   > 0x0048925c      4a68000a       tst.w 0xa(a0)
   < 0x00489260      6f72           ble.b 0x4892d4
      0x00489262      4a68000c       tst.w 0xc(a0)
  < 0x00489266      6f6c           ble.b 0x4892d4
     0x00489268      226e0008       movea.l 0x8(a6), a1
     0x0048926c      9efc0100       suba.w 0x100, a7
     0x00489270      2f07           move.l d7, -(a7)
     0x00489272      4ebafc46       jsr MENUCOM.box_name(pc)
     0x00489276      9efc00fc       suba.w 0xfc, a7
     0x0048927a      4240           clr.w d0
     0x0048927c      102f0100       move.b 0x100(a7), d0
     0x00489280      3200           move.w d0, d1
     0x00489282      45ef0001       lea.l 0x1(a7), a2
     0x00489286      5301           subq.b 0x1, d1
 < 0x00489288      650a           bcs.b 0x489294
    0x0048928a      47ef0101       lea.l 0x101(a7), a3
 > 0x0048928e      14db           move.b (a3)+, (a2)+
 < 0x00489290      51c9fffc       dbra d1, 0x48928e
 > 0x00489294      4241           clr.w d1
     0x00489296      1211           move.b (a1), d1
     0x00489298      d200           add.b d0, d1
 < 0x0048929a      6406           bcc.b 0x4892a2
    0x0048929c      4eb900406c8a   jsr p_strovr
 > 0x004892a2      4241           clr.w d1
     0x004892a4      1211           move.b (a1), d1
     0x004892a6      343c00ff       move.w 0xff, d2
     0x004892aa      9440           sub.w d0, d2
     0x004892ac      b242           cmp.w d2, d1
 < 0x004892ae      6302           bls.b 0x4892b2
    0x004892b0      3202           move.w d2, d1
 > 0x004892b2      1e80           move.b d0, (a7)
     0x004892b4      d317           add.b d1, (a7)
     0x004892b6      5301           subq.b 0x1, d1
 < 0x004892b8      650a           bcs.b 0x4892c4
    0x004892ba      47e90001       lea.l 0x1(a1), a3
 > 0x004892be      14db           move.b (a3)+, (a2)+
 < 0x004892c0      51c9fffc       dbra d1, 0x4892be
 > 0x004892c4      244f           movea.l a7, a2
     0x004892c6      303c00ff       move.w 0xff, d0
 > 0x004892ca      12da           move.b (a2)+, (a1)+
 < 0x004892cc      51c8fffc       dbra d0, 0x4892ca
     0x004892d0      defc0200       adda.w 0x200, a7
  > 0x004892d4      2a07           move.l d7, d5
 < 0x004892d6      6000febc       bra.w 0x489194
     > 0x004892da      1d6efffb0010   move.b -0x5(a6), 0x10(a6)
           0x004892e0      4cdf1fef       movem.l (a7)+, d0-d3/d5-d7/a0-a4
           0x004892e4      4e5e           unlk a6
           0x004892e6      4e75           rts
 704: MENUCOM.boxlist_command ();
           ; var int32_t var_8h @ a7+0x8
           ; var int32_t var_ch @ a7+0xc
           ; var int32_t var_108h @ a7+0x108
           ; var int32_t var_10ch @ a7+0x10c
           0x004892e8      4e56fbac       link.w a6, 0xfbac
           0x004892ec      bfd5           cmpa.l (a5), a7
       < 0x004892ee      6206           bhi.b 0x4892f6
          0x004892f0      44fc0002       move.w 0x2, ccr
          0x004892f4      4e76           trapv
       > 0x004892f6      defc024c       adda.w 0x24c, a7
           0x004892fa      48e7f1f8       movem.l d0-d3/d7/a0-a4, -(a7)
           0x004892fe      47eefefc       lea.l -0x104(a6), a3
           0x00489302      49eefffc       lea.l -0x4(a6), a4
           0x00489306      720c           moveq 0xc, d1
           0x00489308      7420           moveq 0x20, d2
           0x0048930a      760a           moveq 0xa, d3
           0x0048930c      554f           subq.w 0x2, a7
           0x0048930e      4eb90043cc02   jsr G1_INPUT.g_end_of_line
           0x00489314      4a1f           tst.b (a7)+
       < 0x00489316      6708           beq.b 0x489320
          0x00489318      16b90047fd0a   move.b 0x47fd0a, (a3)
      < 0x0048931e      6042           bra.b 0x489362
      > 0x00489320      9efc0012       suba.w 0x12, a7
          0x00489324      4eb90043cefe   jsr G1_INPUT.g_name
          0x0048932a      269f           move.l (a7)+, (a3)
          0x0048932c      2d5fff00       move.l (a7)+, -0x100(a6)
          0x00489330      2d5fff04       move.l (a7)+, -0xfc(a6)
          0x00489334      2d5fff08       move.l (a7)+, -0xf8(a6)
          0x00489338      1d5fff0c       move.b (a7)+, -0xf4(a6)
          0x0048933c      4eb90043cc20   jsr G1_INPUT.g_check_eol
          0x00489342      4854           pea.l (a4)
          0x00489344      4878ffff       pea.l 0xffff
          0x00489348      486efefd       pea.l -0x103(a6)
          0x0048934c      42a7           clr.l -(a7)
          0x0048934e      1f530003       move.b (a3), 0x3(a7)
          0x00489352      42a7           clr.l -(a7)
          0x00489354      42a7           clr.l -(a7)
          0x00489356      42a7           clr.l -(a7)
          0x00489358      4eb90061496c   jsr F20_PASCALIO.p_rewrit
          0x0048935e      defc001c       adda.w 0x1c, a7
      > 0x00489362      7e01           moveq 0x1, d7
       > 0x00489364      554f           subq.w 0x2, a7
          0x00489366      4eb90043fcc0   jsr G3_COMMAND.g_flagged
          0x0048936c      4a1f           tst.b (a7)+
      < 0x0048936e      660001f0       bne.w 0x489560
         0x00489372      3039008143a2   move.w 0x8143a2, d0
         0x00489378      48c0           ext.l d0
         0x0048937a      be80           cmp.l d0, d7
     < 0x0048937c      6e0001e2       bgt.w 0x489560
        0x00489380      0c8700001068   cmpi.l 0x1068, d7
    < 0x00489386      6302           bls.b 0x48938a
       0x00489388      4e4f           trap 0xf
    > 0x0048938a      2007           move.l d7, d0
        0x0048938c      e580           asl.l 0x2, d0
        0x0048938e      41f9008101fe   lea.l 0x8101fe, a0
        0x00489394      22700800       movea.l (a0, d0.l), a1
        0x00489398      b2fc0001       cmpa.w 0x1, a1
    < 0x0048939c      670001bc       beq.w 0x48955a
       0x004893a0      b3e9fffc       cmpa.l -0x4(a1), a1
   < 0x004893a4      6702           beq.b 0x4893a8
      0x004893a6      4e4d           trap 0xd
   > 0x004893a8      554f           subq.w 0x2, a7
       0x004893aa      2f07           move.l d7, -(a7)
       0x004893ac      4ebafd5c       jsr MENUCOM.hidden(pc)
       0x004893b0      584f           addq.w 0x4, a7
       0x004893b2      4a1f           tst.b (a7)+
   < 0x004893b4      6704           beq.b 0x4893ba
  < 0x004893b6      600001a2       bra.w 0x48955a
  > 0x004893ba      4a69000a       tst.w 0xa(a1)
  < 0x004893be      6f00019a       ble.w 0x48955a
     0x004893c2      4a69000c       tst.w 0xc(a1)
 < 0x004893c6      6e04           bgt.b 0x4893cc
 < 0x004893c8      60000190       bra.w 0x48955a
 > 0x004893cc      554f           subq.w 0x2, a7
     0x004893ce      2f07           move.l d7, -(a7)
     0x004893d0      4ebafa54       jsr MENUCOM.no_text(pc)
     0x004893d4      584f           addq.w 0x4, a7
     0x004893d6      4a1f           tst.b (a7)+
 < 0x004893d8      6704           beq.b 0x4893de
 < 0x004893da      6000017e       bra.w 0x48955a
 > 0x004893de      554f           subq.w 0x2, a7
     0x004893e0      2f07           move.l d7, -(a7)
     0x004893e2      486efdfc       pea.l -0x204(a6)
     0x004893e6      4ebafd82       jsr MENUCOM.scan_tree(pc)
     0x004893ea      504f           addq.w 0x8, a7
     0x004893ec      4a1f           tst.b (a7)+
 < 0x004893ee      6604           bne.b 0x4893f4
 < 0x004893f0      60000168       bra.w 0x48955a
 > 0x004893f4      4240           clr.w d0
     0x004893f6      1013           move.b (a3), d0
 < 0x004893f8      6302           bls.b 0x4893fc
    0x004893fa      7000           moveq 0x0, d0
 > 0x004893fc      5300           subq.b 0x1, d0
 < 0x004893fe      6512           bcs.b 0x489412
    0x00489400      41eefefd       lea.l -0x103(a6), a0
    0x00489404      45f90047fd0c   lea.l 0x47fd0c, a2
 > 0x0048940a      b10a           cmpm.b (a2)+, (a0)+
 < 0x0048940c      56c8fffc       dbne d0, 0x48940a
 < 0x00489410      6602           bne.b 0x489414
 > 0x00489412      1013           move.b (a3), d0
 < 0x00489414      660000a2       bne.w 0x4894b8
    0x00489418      9efc0100       suba.w 0x100, a7
    0x0048941c      2f07           move.l d7, -(a7)
    0x0048941e      4ebafa9a       jsr MENUCOM.box_name(pc)
    0x00489422      9efc00fc       suba.w 0xfc, a7
    0x00489426      2f07           move.l d7, -(a7)
    0x00489428      4ebafbc8       jsr MENUCOM.full_name(pc)
    0x0048942c      2e87           move.l d7, (a7)
    0x0048942e      48780005       pea.l 0x5
    0x00489432      4eb9004070e4   jsr p_wti_o
    0x00489438      5c4f           addq.w 0x6, a7
    0x0048943a      1e82           move.b d2, (a7)
    0x0048943c      48780001       pea.l 0x1
    0x00489440      4eb9004048b4   jsr p_wtc_o
    0x00489446      5c4f           addq.w 0x6, a7
    0x00489448      486f0101       pea.l 0x101(a7)
    0x0048944c      42a7           clr.l -(a7)
    0x0048944e      1f6f01080003   move.b 0x108(a7), 0x3(a7)
    0x00489454      2f17           move.l (a7), -(a7)
    0x00489456      4eb9004047ea   jsr p_wts_o
    0x0048945c      dec3           adda.w d3, a7
    0x0048945e      1e82           move.b d2, (a7)
    0x00489460      48780001       pea.l 0x1
    0x00489464      4eb9004048b4   jsr p_wtc_o
    0x0048946a      5c4f           addq.w 0x6, a7
    0x0048946c      486f0001       pea.l 0x1(a7)
    0x00489470      42a7           clr.l -(a7)
    0x00489472      1f6f00080003   move.b 0x8(a7), 0x3(a7)
    0x00489478      2f17           move.l (a7), -(a7)
    0x0048947a      4eb9004047ea   jsr p_wts_o
    0x00489480      defc020c       adda.w 0x20c, a7
    0x00489484      48790047fd0d   pea.l 0x47fd0d
    0x0048948a      48780007       pea.l 0x7
    0x0048948e      2f17           move.l (a7), -(a7)
    0x00489490      4eb9004047ea   jsr p_wts_o
    0x00489496      dec1           adda.w d1, a7
    0x00489498      486efdfd       pea.l -0x203(a6)
    0x0048949c      42a7           clr.l -(a7)
    0x0048949e      1f6efdfc0003   move.b -0x204(a6), 0x3(a7)
    0x004894a4      2f17           move.l (a7), -(a7)
    0x004894a6      4eb9004047ea   jsr p_wts_o
    0x004894ac      dec1           adda.w d1, a7
    0x004894ae      4eb900404946   jsr p_wtln_o
 < 0x004894b4      600000a4       bra.w 0x48955a
 > 0x004894b8      9efc0100       suba.w 0x100, a7
     0x004894bc      2f07           move.l d7, -(a7)
     0x004894be      4ebaf9fa       jsr MENUCOM.box_name(pc)
     0x004894c2      9efc00fc       suba.w 0xfc, a7
     0x004894c6      2f07           move.l d7, -(a7)
     0x004894c8      4ebafb28       jsr MENUCOM.full_name(pc)
     0x004894cc      584f           addq.w 0x4, a7
     0x004894ce      4854           pea.l (a4)
     0x004894d0      2f07           move.l d7, -(a7)
     0x004894d2      48780005       pea.l 0x5
     0x004894d6      4eb900407138   jsr p_wti
     0x004894dc      5c4f           addq.w 0x6, a7
     0x004894de      1e82           move.b d2, (a7)
     0x004894e0      48780001       pea.l 0x1
     0x004894e4      4eb9004048d4   jsr p_wtc
     0x004894ea      5c4f           addq.w 0x6, a7
     0x004894ec      486f0105       pea.l 0x105(a7)
     0x004894f0      42a7           clr.l -(a7)
     0x004894f2      1f6f010c0003   move.b 0x10c(a7), 0x3(a7)
     0x004894f8      2f17           move.l (a7), -(a7)
     0x004894fa      4eb90040480e   jsr p_wts
     0x00489500      dec3           adda.w d3, a7
     0x00489502      1e82           move.b d2, (a7)
     0x00489504      48780001       pea.l 0x1
     0x00489508      4eb9004048d4   jsr p_wtc
     0x0048950e      5c4f           addq.w 0x6, a7
     0x00489510      486f0005       pea.l 0x5(a7)
     0x00489514      42a7           clr.l -(a7)
     0x00489516      1f6f000c0003   move.b 0xc(a7), 0x3(a7)
     0x0048951c      2f17           move.l (a7), -(a7)
     0x0048951e      4eb90040480e   jsr p_wts
     0x00489524      dec1           adda.w d1, a7
     0x00489526      48790047fd15   pea.l 0x47fd15
     0x0048952c      48780007       pea.l 0x7
     0x00489530      2f17           move.l (a7), -(a7)
     0x00489532      4eb90040480e   jsr p_wts
     0x00489538      dec1           adda.w d1, a7
     0x0048953a      486efdfd       pea.l -0x203(a6)
     0x0048953e      42a7           clr.l -(a7)
     0x00489540      1f6efdfc0003   move.b -0x204(a6), 0x3(a7)
     0x00489546      2f17           move.l (a7), -(a7)
     0x00489548      4eb90040480e   jsr p_wts
     0x0048954e      dec1           adda.w d1, a7
     0x00489550      4eb900404962   jsr p_wtln
     0x00489556      defc0204       adda.w 0x204, a7
 > 0x0048955a      5287           addq.l 0x1, d7
     < 0x0048955c      6000fe06       bra.w 0x489364
     > 0x00489560      4240           clr.w d0
           0x00489562      1013           move.b (a3), d0
       < 0x00489564      6302           bls.b 0x489568
          0x00489566      7000           moveq 0x0, d0
       > 0x00489568      5300           subq.b 0x1, d0
       < 0x0048956a      6512           bcs.b 0x48957e
          0x0048956c      41eefefd       lea.l -0x103(a6), a0
          0x00489570      43f90047fd1d   lea.l 0x47fd1d, a1
      > 0x00489576      b109           cmpm.b (a1)+, (a0)+
      < 0x00489578      56c8fffc       dbne d0, 0x489576
      < 0x0048957c      6602           bne.b 0x489580
      > 0x0048957e      1013           move.b (a3), d0
      < 0x00489580      670a           beq.b 0x48958c
          0x00489582      4854           pea.l (a4)
          0x00489584      4eb90040524a   jsr p_close
          0x0048958a      584f           addq.w 0x4, a7
       > 0x0048958c      486f0028       pea.l 0x28(a7)
           0x00489590      2f3c00000208   move.l 0x208, -(a7)
           0x00489596      4eb9004053e8   jsr p_ClsRng
           0x0048959c      defc0008       adda.w 0x8, a7
           0x004895a0      4cdf1f8f       movem.l (a7)+, d0-d3/d7/a0-a4
           0x004895a4      4e5e           unlk a6
           0x004895a6      4e75           rts
            ; CALL XREF from MENUCOM.load_dictionary @ 0x489940
 158: MENUCOM.get_box_num ();
           0x004895a8      4e56ffce       link.w a6, 0xffce
           0x004895ac      bfd5           cmpa.l (a5), a7
       < 0x004895ae      6206           bhi.b 0x4895b6
          0x004895b0      44fc0002       move.w 0x2, ccr
          0x004895b4      4e76           trapv
       > 0x004895b6      defc0032       adda.w 0x32, a7
           0x004895ba      48e7f8f0       movem.l d0-d4/a0-a3, -(a7)
           0x004895be      43ec0114       lea.l 0x114(a4), a1
           0x004895c2      45ec0459       lea.l 0x459(a4), a2
           0x004895c6      47ec045a       lea.l 0x45a(a4), a3
           0x004895ca      7401           moveq 0x1, d2
           0x004895cc      4291           clr.l (a1)
           0x004895ce      4212           clr.b (a2)
           0x004895d0      4213           clr.b (a3)
       > 0x004895d2      4280           clr.l d0
          0x004895d4      102c0014       move.b 0x14(a4), d0
          0x004895d8      b0ac0010       cmp.l 0x10(a4), d0
      < 0x004895dc      6d56           blt.b 0x489634
         0x004895de      4a13           tst.b (a3)
     < 0x004895e0      6652           bne.b 0x489634
        0x004895e2      202c0010       move.l 0x10(a4), d0
        0x004895e6      0c80000000ff   cmpi.l 0xff, d0
    < 0x004895ec      6302           bls.b 0x4895f0
       0x004895ee      4e4f           trap 0xf
    > 0x004895f0      4281           clr.l d1
        0x004895f2      12340814       move.b 0x14(a4, d0.l), d1
        0x004895f6      41f90047fd1e   lea.l 0x47fd1e, a0
        0x004895fc      3001           move.w d1, d0
        0x004895fe      e648           lsr.w 0x3, d0
        0x00489600      03300000       btst.l d1, (a0, d0.w)
    < 0x00489604      671a           beq.b 0x489620
       0x00489606      1482           move.b d2, (a2)
       0x00489608      2811           move.l (a1), d4
       0x0048960a      760a           moveq 0xa, d3
       0x0048960c      4eb900406a74   jsr fcn.00406a74
       0x00489612      48c1           ext.l d1
       0x00489614      d881           add.l d1, d4
       0x00489616      048400000030   subi.l 0x30, d4
       0x0048961c      2284           move.l d4, (a1)
   < 0x0048961e      600e           bra.b 0x48962e
   > 0x00489620      4a12           tst.b (a2)
   < 0x00489622      6606           bne.b 0x48962a
      0x00489624      0c010022       cmpi.b 0x22, d1
  < 0x00489628      6604           bne.b 0x48962e
  > 0x0048962a      1682           move.b d2, (a3)
  < 0x0048962c      6004           bra.b 0x489632
  > 0x0048962e      52ac0010       addq.l 0x1, 0x10(a4)
    < 0x00489632      609e           bra.b 0x4895d2
     > 0x00489634      4a12           tst.b (a2)
       < 0x00489636      6606           bne.b 0x48963e
          0x00489638      22bcffffffff   move.l 0xffffffff, (a1)
       > 0x0048963e      4cdf0f1f       movem.l (a7)+, d0-d4/a0-a3
           0x00489642      4e5e           unlk a6
           0x00489644      4e75           rts
            ; CALL XREFS from MENUCOM.load_dictionary @ 0x48994c, 0x48995a
 206: MENUCOM.get_name ();
           0x00489646      4e56ffc4       link.w a6, 0xffc4
           0x0048964a      bfd5           cmpa.l (a5), a7
       < 0x0048964c      6206           bhi.b 0x489654
          0x0048964e      44fc0002       move.w 0x2, ccr
          0x00489652      4e76           trapv
       > 0x00489654      defc003c       adda.w 0x3c, a7
           0x00489658      48e7fef0       movem.l d0-d6/a0-a3, -(a7)
           0x0048965c      47ec0010       lea.l 0x10(a4), a3
           0x00489660      283c000000ff   move.l 0xff, d4
           0x00489666      7a22           moveq 0x22, d5
           0x00489668      7c01           moveq 0x1, d6
           0x0048966a      206e0008       movea.l 0x8(a6), a0
           0x0048966e      10b90047fd3e   move.b 0x47fd3e, (a0)
           0x00489674      422c0459       clr.b 0x459(a4)
           0x00489678      422c045a       clr.b 0x45a(a4)
       > 0x0048967c      4280           clr.l d0
          0x0048967e      102c0014       move.b 0x14(a4), d0
          0x00489682      b093           cmp.l (a3), d0
      < 0x00489684      6d000086       blt.w 0x48970c
         0x00489688      4a2c045a       tst.b 0x45a(a4)
     < 0x0048968c      667e           bne.b 0x48970c
        0x0048968e      4a2c0459       tst.b 0x459(a4)
    < 0x00489692      661a           bne.b 0x4896ae
       0x00489694      7000           moveq 0x0, d0
       0x00489696      2213           move.l (a3), d1
       0x00489698      b284           cmp.l d4, d1
   < 0x0048969a      6302           bls.b 0x48969e
      0x0048969c      4e4f           trap 0xf
   > 0x0048969e      12341814       move.b 0x14(a4, d1.l), d1
       0x004896a2      b205           cmp.b d5, d1
   < 0x004896a4      6602           bne.b 0x4896a8
      0x004896a6      5200           addq.b 0x1, d0
   > 0x004896a8      19400459       move.b d0, 0x459(a4)
   < 0x004896ac      6058           bra.b 0x489706
   > 0x004896ae      2013           move.l (a3), d0
       0x004896b0      b084           cmp.l d4, d0
   < 0x004896b2      6302           bls.b 0x4896b6
      0x004896b4      4e4f           trap 0xf
   > 0x004896b6      12340814       move.b 0x14(a4, d0.l), d1
       0x004896ba      b205           cmp.b d5, d1
   < 0x004896bc      6606           bne.b 0x4896c4
      0x004896be      1946045a       move.b d6, 0x45a(a4)
  < 0x004896c2      6042           bra.b 0x489706
  > 0x004896c4      206e0008       movea.l 0x8(a6), a0
      0x004896c8      554f           subq.w 0x2, a7
      0x004896ca      1e86           move.b d6, (a7)
      0x004896cc      1f410001       move.b d1, 0x1(a7)
      0x004896d0      4240           clr.w d0
      0x004896d2      1010           move.b (a0), d0
      0x004896d4      43f00001       lea.l 0x1(a0, d0.w), a1
      0x004896d8      4242           clr.w d2
      0x004896da      1417           move.b (a7), d2
      0x004896dc      d400           add.b d0, d2
  < 0x004896de      6406           bcc.b 0x4896e6
     0x004896e0      4eb900406c8a   jsr p_strovr
  > 0x004896e6      4242           clr.w d2
      0x004896e8      1417           move.b (a7), d2
      0x004896ea      3604           move.w d4, d3
      0x004896ec      9640           sub.w d0, d3
      0x004896ee      b443           cmp.w d3, d2
  < 0x004896f0      6302           bls.b 0x4896f4
     0x004896f2      3403           move.w d3, d2
  > 0x004896f4      d510           add.b d2, (a0)
      0x004896f6      5302           subq.b 0x1, d2
  < 0x004896f8      650a           bcs.b 0x489704
     0x004896fa      45ef0001       lea.l 0x1(a7), a2
 > 0x004896fe      12da           move.b (a2)+, (a1)+
 < 0x00489700      51cafffc       dbra d2, 0x4896fe
  > 0x00489704      544f           addq.w 0x2, a7
  > 0x00489706      5293           addq.l 0x1, (a3)
     < 0x00489708      6000ff72       bra.w 0x48967c
     > 0x0048970c      4cdf0f7f       movem.l (a7)+, d0-d6/a0-a3
           0x00489710      4e5e           unlk a6
           0x00489712      4e75           rts
            ; CALL XREF from MENUCOM.load_dictionary @ 0x4899da
 270: MENUCOM.text_match ();
           0x00489714      4e56ffbc       link.w a6, 0xffbc
           0x00489718      bfd5           cmpa.l (a5), a7
       < 0x0048971a      6206           bhi.b 0x489722
          0x0048971c      44fc0002       move.w 0x2, ccr
          0x00489720      4e76           trapv
       > 0x00489722      defc0040       adda.w 0x40, a7
           0x00489726      48e7f9f0       movem.l d0-d4/d7/a0-a3, -(a7)
           0x0048972a      7801           moveq 0x1, d4
           0x0048972c      19790047fd3f.  move.b 0x47fd3f, 0x118(a4)
           0x00489734      7e01           moveq 0x1, d7
           0x00489736      202c0114       move.l 0x114(a4), d0
           0x0048973a      0c8000001068   cmpi.l 0x1068, d0
       < 0x00489740      6302           bls.b 0x489744
          0x00489742      4e4f           trap 0xf
       > 0x00489744      e580           asl.l 0x2, d0
           0x00489746      41f9008101fe   lea.l 0x8101fe, a0
           0x0048974c      20700800       movea.l (a0, d0.l), a0
           0x00489750      b1e8fffc       cmpa.l -0x4(a0), a0
       < 0x00489754      6702           beq.b 0x489758
          0x00489756      4e4d           trap 0xd
      > 0x00489758      22680042       movea.l 0x42(a0), a1
          0x0048975c      b3e9fffc       cmpa.l -0x4(a1), a1
      < 0x00489760      6702           beq.b 0x489764
         0x00489762      4e4d           trap 0xd
      > 0x00489764      4280           clr.l d0
          0x00489766      1011           move.b (a1), d0
          0x00489768      be80           cmp.l d0, d7
      < 0x0048976a      6e6a           bgt.b 0x4897d6
         0x0048976c      0c8700000040   cmpi.l 0x40, d7
     < 0x00489772      6302           bls.b 0x489776
        0x00489774      4e4f           trap 0xf
     > 0x00489776      4280           clr.l d0
         0x00489778      10317800       move.b (a1, d7.l), d0
         0x0048977c      45f90047fd40   lea.l 0x47fd40, a2
         0x00489782      3200           move.w d0, d1
         0x00489784      e649           lsr.w 0x3, d1
         0x00489786      01321000       btst.l d0, (a2, d1.w)
     < 0x0048978a      6646           bne.b 0x4897d2
        0x0048978c      554f           subq.w 0x2, a7
        0x0048978e      1e84           move.b d4, (a7)
        0x00489790      1f400001       move.b d0, 0x1(a7)
        0x00489794      4241           clr.w d1
        0x00489796      122c0118       move.b 0x118(a4), d1
        0x0048979a      45ec0119       lea.l 0x119(a4), a2
        0x0048979e      d4c1           adda.w d1, a2
        0x004897a0      4242           clr.w d2
        0x004897a2      1417           move.b (a7), d2
        0x004897a4      d401           add.b d1, d2
    < 0x004897a6      6406           bcc.b 0x4897ae
       0x004897a8      4eb900406c8a   jsr p_strovr
    > 0x004897ae      4242           clr.w d2
        0x004897b0      1417           move.b (a7), d2
        0x004897b2      363c00ff       move.w 0xff, d3
        0x004897b6      9641           sub.w d1, d3
        0x004897b8      b443           cmp.w d3, d2
    < 0x004897ba      6302           bls.b 0x4897be
       0x004897bc      3403           move.w d3, d2
    > 0x004897be      d52c0118       add.b d2, 0x118(a4)
        0x004897c2      5302           subq.b 0x1, d2
    < 0x004897c4      650a           bcs.b 0x4897d0
       0x004897c6      47ef0001       lea.l 0x1(a7), a3
   > 0x004897ca      14db           move.b (a3)+, (a2)+
   < 0x004897cc      51cafffc       dbra d2, 0x4897ca
    > 0x004897d0      544f           addq.w 0x2, a7
     > 0x004897d2      5287           addq.l 0x1, d7
      < 0x004897d4      6082           bra.b 0x489758
       > 0x004897d6      102c0118       move.b 0x118(a4), d0
           0x004897da      b02c0218       cmp.b 0x218(a4), d0
       < 0x004897de      6706           beq.b 0x4897e6
          0x004897e0      422e0008       clr.b 0x8(a6)
      < 0x004897e4      6034           bra.b 0x48981a
      > 0x004897e6      1d440008       move.b d4, 0x8(a6)
          0x004897ea      4280           clr.l d0
          0x004897ec      102c0218       move.b 0x218(a4), d0
          0x004897f0      2f00           move.l d0, -(a7)
          0x004897f2      7e01           moveq 0x1, d7
      > 0x004897f4      be97           cmp.l (a7), d7
     < 0x004897f6      6e20           bgt.b 0x489818
        0x004897f8      0c87000000ff   cmpi.l 0xff, d7
    < 0x004897fe      6302           bls.b 0x489802
       0x00489800      4e4f           trap 0xf
    > 0x00489802      41f47800       lea.l (a4, d7.l), a0
        0x00489806      10280218       move.b 0x218(a0), d0
        0x0048980a      b0280118       cmp.b 0x118(a0), d0
    < 0x0048980e      6704           beq.b 0x489814
       0x00489810      422e0008       clr.b 0x8(a6)
    > 0x00489814      5287           addq.l 0x1, d7
     < 0x00489816      68dc           bvc.b 0x4897f4
     > 0x00489818      584f           addq.w 0x4, a7
      > 0x0048981a      4cdf0f9f       movem.l (a7)+, d0-d4/d7/a0-a3
           0x0048981e      4e5e           unlk a6
           0x00489820      4e75           rts
            ; CALL XREF from MENUCOM.menu_init @ 0x489d14
 648: MENUCOM.load_dictionary ();
           0x00489822      4e56fa78       link.w a6, 0xfa78
           0x00489826      bfd5           cmpa.l (a5), a7
       < 0x00489828      6206           bhi.b 0x489830
          0x0048982a      44fc0002       move.w 0x2, ccr
          0x0048982e      4e76           trapv
       > 0x00489830      defc0130       adda.w 0x130, a7
           0x00489834      48e7f9f8       movem.l d0-d4/d7/a0-a4, -(a7)
           0x00489838      45eefba4       lea.l -0x45c(a6), a2
           0x0048983c      47f9008101fe   lea.l 0x8101fe, a3
           0x00489842      243c00001068   move.l 0x1068, d2
           0x00489848      7601           moveq 0x1, d3
           0x0048984a      7817           moveq 0x17, d4
           0x0048984c      7e00           moveq 0x0, d7
       > 0x0048984e      be82           cmp.l d2, d7
      < 0x00489850      6302           bls.b 0x489854
         0x00489852      4e4f           trap 0xf
      > 0x00489854      2007           move.l d7, d0
          0x00489856      e580           asl.l 0x2, d0
          0x00489858      204b           movea.l a3, a0
          0x0048985a      41f00800       lea.l (a0, d0.l), a0
          0x0048985e      214341a6       move.l d3, 0x41a6(a0)
          0x00489862      5287           addq.l 0x1, d7
          0x00489864      be82           cmp.l d2, d7
       < 0x00489866      6fe6           ble.b 0x48984e
           0x00489868      486efbac       pea.l -0x454(a6)
           0x0048986c      4878ffff       pea.l 0xffff
           0x00489870      48790047fd61   pea.l 0x47fd61
           0x00489876      4878000a       pea.l 0xa
           0x0048987a      48790047fd6c   pea.l 0x47fd6c
           0x00489880      48780000       pea.l 0x0
           0x00489884      486efbb0       pea.l -0x450(a6)
           0x00489888      4eb9006147aa   jsr F20_PASCALIO.p_reset
           0x0048988e      defc001c       adda.w 0x1c, a7
           0x00489892      4aaefbb0       tst.l -0x450(a6)
       < 0x00489896      675e           beq.b 0x4898f6
          0x00489898      9efc0100       suba.w 0x100, a7
          0x0048989c      4eb900408ec0   jsr p_err_string
          0x004898a2      7016           moveq 0x16, d0
          0x004898a4      41eefbb9       lea.l -0x447(a6), a0
          0x004898a8      43f90047fd6d   lea.l 0x47fd6d, a1
      > 0x004898ae      10d9           move.b (a1)+, (a0)+
      < 0x004898b0      51c8fffc       dbra d0, 0x4898ae
          0x004898b4      4240           clr.w d0
          0x004898b6      1017           move.b (a7), d0
          0x004898b8      d004           add.b d4, d0
      < 0x004898ba      6406           bcc.b 0x4898c2
         0x004898bc      4eb900406c8a   jsr p_strovr
      > 0x004898c2      4240           clr.w d0
          0x004898c4      1017           move.b (a7), d0
          0x004898c6      323c00ff       move.w 0xff, d1
          0x004898ca      9244           sub.w d4, d1
          0x004898cc      b041           cmp.w d1, d0
      < 0x004898ce      6302           bls.b 0x4898d2
         0x004898d0      3001           move.w d1, d0
      > 0x004898d2      1d44fbb8       move.b d4, -0x448(a6)
          0x004898d6      d12efbb8       add.b d0, -0x448(a6)
          0x004898da      5300           subq.b 0x1, d0
      < 0x004898dc      650a           bcs.b 0x4898e8
         0x004898de      43ef0001       lea.l 0x1(a7), a1
     > 0x004898e2      10d9           move.b (a1)+, (a0)+
     < 0x004898e4      51c8fffc       dbra d0, 0x4898e2
      > 0x004898e8      defc0100       adda.w 0x100, a7
          0x004898ec      4eb900404188   jsr p_Unlink
      < 0x004898f2      6000019a       bra.w 0x489a8e
     > 0x004898f6      206efbac       movea.l -0x454(a6), a0
         0x004898fa      b1e8fffc       cmpa.l -0x4(a0), a0
     < 0x004898fe      6702           beq.b 0x489902
        0x00489900      4e4d           trap 0xd
     > 0x00489902      082800000004   btst.b 0x0, 0x4(a0)
     < 0x00489908      660c           bne.b 0x489916
        0x0048990a      486efbac       pea.l -0x454(a6)
        0x0048990e      4eb9004053b6   jsr p_define
        0x00489914      584f           addq.w 0x4, a7
     > 0x00489916      07280004       btst.l d3, 0x4(a0)
     < 0x0048991a      66000166       bne.w 0x489a82
        0x0048991e      486efbac       pea.l -0x454(a6)
        0x00489922      486efbb8       pea.l -0x448(a6)
        0x00489926      48780100       pea.l 0x100
        0x0048992a      4eb900404dd6   jsr p_rdxs
        0x00489930      504f           addq.w 0x8, a7
        0x00489932      4eb900404e9e   jsr p_rdln
        0x00489938      584f           addq.w 0x4, a7
        0x0048993a      2d43fbb4       move.l d3, -0x44c(a6)
        0x0048993e      284a           movea.l a2, a4
        0x00489940      4ebafc66       jsr MENUCOM.get_box_num(pc)
        0x00489944      2852           movea.l (a2), a4
        0x00489946      486efdbc       pea.l -0x244(a6)
        0x0048994a      284a           movea.l a2, a4
        0x0048994c      4ebafcf8       jsr MENUCOM.get_name(pc)
        0x00489950      584f           addq.w 0x4, a7
        0x00489952      2852           movea.l (a2), a4
        0x00489954      486efebc       pea.l -0x144(a6)
        0x00489958      284a           movea.l a2, a4
        0x0048995a      4ebafcea       jsr MENUCOM.get_name(pc)
        0x0048995e      584f           addq.w 0x4, a7
        0x00489960      2852           movea.l (a2), a4
        0x00489962      4aaefcb8       tst.l -0x348(a6)
    < 0x00489966      6c48           bge.b 0x4899b0
       0x00489968      48790047fd85   pea.l 0x47fd85
       0x0048996e      48780014       pea.l 0x14
  > 0x00489972      2f17           move.l (a7), -(a7)
     0x00489974      4eb9004047ea   jsr p_wts_o
     0x0048997a      defc000c       adda.w 0xc, a7
     0x0048997e      486efbb9       pea.l -0x447(a6)
     0x00489982      42a7           clr.l -(a7)
     0x00489984      1f6efbb80003   move.b -0x448(a6), 0x3(a7)
     0x0048998a      2f17           move.l (a7), -(a7)
     0x0048998c      4eb9004047ea   jsr p_wts_o
     0x00489992      defc000a       adda.w 0xa, a7
     0x00489996      1ebc003e       move.b 0x3e, (a7)
     0x0048999a      48780001       pea.l 0x1
     0x0048999e      4eb9004048b4   jsr p_wtc_o
     0x004899a4      5c4f           addq.w 0x6, a7
     0x004899a6      4eb900404946   jsr p_wtln_o
 < 0x004899ac      600000d0       bra.w 0x489a7e
 > 0x004899b0      202efcb8       move.l -0x348(a6), d0
     0x004899b4      b082           cmp.l d2, d0
 < 0x004899b6      6302           bls.b 0x4899ba
    0x004899b8      4e4f           trap 0xf
 > 0x004899ba      e580           asl.l 0x2, d0
     0x004899bc      204b           movea.l a3, a0
     0x004899be      41f00800       lea.l (a0, d0.l), a0
     0x004899c2      206841a6       movea.l 0x41a6(a0), a0
     0x004899c6      b0c3           cmpa.w d3, a0
 < 0x004899c8      670c           beq.b 0x4899d6
    0x004899ca      48790047fd9a   pea.l 0x47fd9a
    0x004899d0      48780015       pea.l 0x15
 < 0x004899d4      609c           bra.b 0x489972
  > 0x004899d6      554f           subq.w 0x2, a7
      0x004899d8      284a           movea.l a2, a4
      0x004899da      4ebafd38       jsr MENUCOM.text_match(pc)
      0x004899de      2852           movea.l (a2), a4
      0x004899e0      4a1f           tst.b (a7)+
  < 0x004899e2      660c           bne.b 0x4899f0
     0x004899e4      48790047fdb0   pea.l 0x47fdb0
     0x004899ea      48780016       pea.l 0x16
  < 0x004899ee      6082           bra.b 0x489972
   > 0x004899f0      202efcb8       move.l -0x348(a6), d0
       0x004899f4      b082           cmp.l d2, d0
   < 0x004899f6      6302           bls.b 0x4899fa
      0x004899f8      4e4f           trap 0xf
   > 0x004899fa      e580           asl.l 0x2, d0
       0x004899fc      204b           movea.l a3, a0
       0x004899fe      41f00800       lea.l (a0, d0.l), a0
       0x00489a02      486841a6       pea.l 0x41a6(a0)
       0x00489a06      48780041       pea.l 0x41
       0x00489a0a      4eb900403a92   jsr p_New
       0x00489a10      504f           addq.w 0x8, a7
       0x00489a12      4280           clr.l d0
       0x00489a14      102efebc       move.b -0x144(a6), d0
       0x00489a18      2f00           move.l d0, -(a7)
       0x00489a1a      7000           moveq 0x0, d0
   > 0x00489a1c      b097           cmp.l (a7), d0
  < 0x00489a1e      6e32           bgt.b 0x489a52
     0x00489a20      2d40fbb4       move.l d0, -0x44c(a6)
     0x00489a24      0c8000000040   cmpi.l 0x40, d0
 < 0x00489a2a      6302           bls.b 0x489a2e
    0x00489a2c      4e4f           trap 0xf
 > 0x00489a2e      41eefba8       lea.l -0x458(a6), a0
     0x00489a32      41f00800       lea.l (a0, d0.l), a0
     0x00489a36      0c80000000ff   cmpi.l 0xff, d0
 < 0x00489a3c      6302           bls.b 0x489a40
    0x00489a3e      4e4f           trap 0xf
 > 0x00489a40      43eefba8       lea.l -0x458(a6), a1
     0x00489a44      43f10800       lea.l (a1, d0.l), a1
     0x00489a48      116903140414   move.b 0x314(a1), 0x414(a0)
     0x00489a4e      5280           addq.l 0x1, d0
  < 0x00489a50      68ca           bvc.b 0x489a1c
  > 0x00489a52      584f           addq.w 0x4, a7
       0x00489a54      202efcb8       move.l -0x348(a6), d0
       0x00489a58      b082           cmp.l d2, d0
   < 0x00489a5a      6302           bls.b 0x489a5e
      0x00489a5c      4e4f           trap 0xf
   > 0x00489a5e      e580           asl.l 0x2, d0
       0x00489a60      204b           movea.l a3, a0
       0x00489a62      41f00800       lea.l (a0, d0.l), a0
       0x00489a66      206841a6       movea.l 0x41a6(a0), a0
       0x00489a6a      b1e8fffc       cmpa.l -0x4(a0), a0
   < 0x00489a6e      6702           beq.b 0x489a72
      0x00489a70      4e4d           trap 0xd
   > 0x00489a72      43eeffbc       lea.l -0x44(a6), a1
       0x00489a76      7040           moveq 0x40, d0
   > 0x00489a78      10d9           move.b (a1)+, (a0)+
   < 0x00489a7a      51c8fffc       dbra d0, 0x489a78
 < 0x00489a7e      6000fe76       bra.w 0x4898f6
      > 0x00489a82      486efbac       pea.l -0x454(a6)
          0x00489a86      4eb90040524a   jsr p_close
          0x00489a8c      584f           addq.w 0x4, a7
      > 0x00489a8e      486f002c       pea.l 0x2c(a7)
           0x00489a92      2f3c00000458   move.l 0x458, -(a7)
           0x00489a98      4eb9004053e8   jsr p_ClsRng
           0x00489a9e      defc0008       adda.w 0x8, a7
           0x00489aa2      4cdf1f9f       movem.l (a7)+, d0-d4/d7/a0-a4
           0x00489aa6      4e5e           unlk a6
           0x00489aa8      4e75           rts
            ; CALL XREF from MAVIS_PAINT.mavis_dpb_mainp @ 0x6d2f12
 746: MENUCOM.menu_init ();
           0x00489aaa      4e56ff90       link.w a6, 0xff90
           0x00489aae      bfd5           cmpa.l (a5), a7
       < 0x00489ab0      6206           bhi.b 0x489ab8
          0x00489ab2      44fc0002       move.w 0x2, ccr
          0x00489ab6      4e76           trapv
       > 0x00489ab8      defc0064       adda.w 0x64, a7
           0x00489abc      48e7fef8       movem.l d0-d6/a0-a4, -(a7)
           0x00489ac0      7201           moveq 0x1, d1
           0x00489ac2      7420           moveq 0x20, d2
           0x00489ac4      7612           moveq 0x12, d3
           0x00489ac6      7816           moveq 0x16, d4
           0x00489ac8      7a03           moveq 0x3, d5
           0x00489aca      3c3c00e5       move.w 0xe5, d6
           0x00489ace      4239008190e6   clr.b 0x8190e6
           0x00489ad4      594f           subq.w 0x4, a7
           0x00489ad6      2f2e000c       move.l 0xc(a6), -(a7)
           0x00489ada      2f2e0008       move.l 0x8(a6), -(a7)
           0x00489ade      4eb90047e71e   jsr fcn.0047e71e
           0x00489ae4      504f           addq.w 0x8, a7
           0x00489ae6      23df008190ec   move.l (a7)+, 0x8190ec
           0x00489aec      2f390047e770   move.l 0x47e770, -(a7)
           0x00489af2      3f390047e76e   move.w 0x47e76e, -(a7)
           0x00489af8      4eb90052014a   jsr BRUSHCOM.br_set_menu_tex
           0x00489afe      584f           addq.w 0x4, a7
           0x00489b00      4879008190ea   pea.l 0x8190ea
           0x00489b06      4eb900475c00   jsr CONFIG.cfg_size_x4
           0x00489b0c      584f           addq.w 0x4, a7
           0x00489b0e      101f           move.b (a7)+, d0
           0x00489b10      4880           ext.w d0
           0x00489b12      4181           chk.w d1, d0
           0x00489b14      13c0008190e9   move.b d0, 0x8190e9
           0x00489b1a      4ebacf92       jsr MENUCOM.set_std_menu_gr(pc)
           0x00489b1e      1f2e0020       move.b 0x20(a6), -(a7)
           0x00489b22      3f3c0038       move.w 0x38, -(a7)
           0x00489b26      3f3c0039       move.w 0x39, -(a7)
           0x00489b2a      3f3c003c       move.w 0x3c, -(a7)
           0x00489b2e      4eb90048e4a8   jsr MENU2COM.menu2_init
           0x00489b34      504f           addq.w 0x8, a7
           0x00489b36      4ebae0b0       jsr MENUCOM.menu_pre_init(pc)
           0x00489b3a      4227           clr.b -(a7)
           0x00489b3c      4eb90048e3bc   jsr MENU2COM.menu_drop_frame
           0x00489b42      544f           addq.w 0x2, a7
           0x00489b44      4279008190ca   clr.w 0x8190ca
           0x00489b4a      33fc00fa0081.  move.w 0xfa, 0x8143a2.l
           0x00489b52      4279008190c8   clr.w 0x8190c8
           0x00489b58      4279008190cc   clr.w 0x8190cc
           0x00489b5e      23c1008190ce   move.l d1, 0x8190ce
           0x00489b64      23c1008190d2   move.l d1, 0x8190d2
           0x00489b6a      4239008190e8   clr.b 0x8190e8
           0x00489b70      4239008190e7   clr.b 0x8190e7
           0x00489b76      9ec3           suba.w d3, a7
           0x00489b78      2f390047fdc6   move.l 0x47fdc6, -(a7)
           0x00489b7e      1f790047fdca.  move.b 0x47fdca, 0x4(a7)
           0x00489b86      1f01           move.b d1, -(a7)
           0x00489b88      48780001       pea.l 0x1
           0x00489b8c      486d0010       pea.l 0x10(a5)
           0x00489b90      48790043bb9a   pea.l G0_MAIN.g_no_action
           0x00489b96      4eb90043b79c   jsr G0_MAIN.g_new_command
           0x00489b9c      dec2           adda.w d2, a7
           0x00489b9e      205f           movea.l (a7)+, a0
           0x00489ba0      2d48fff4       move.l a0, -0xc(a6)
           0x00489ba4      9ec4           suba.w d4, a7
           0x00489ba6      224f           movea.l a7, a1
           0x00489ba8      45f90047fdcb   lea.l 0x47fdcb, a2
           0x00489bae      7004           moveq 0x4, d0
       > 0x00489bb0      12da           move.b (a2)+, (a1)+
       < 0x00489bb2      51c8fffc       dbra d0, 0x489bb0
           0x00489bb6      1f01           move.b d1, -(a7)
           0x00489bb8      48780001       pea.l 0x1
           0x00489bbc      486efff4       pea.l -0xc(a6)
           0x00489bc0      487ae06c       pea.l MENUCOM.mbox_command(pc)
           0x00489bc4      4eb90043b79c   jsr G0_MAIN.g_new_command
           0x00489bca      dec2           adda.w d2, a7
           0x00489bcc      265f           movea.l (a7)+, a3
           0x00489bce      9ec3           suba.w d3, a7
           0x00489bd0      2f390047fdd0   move.l 0x47fdd0, -(a7)
           0x00489bd6      2f790047fdd4.  move.l 0x47fdd4, 0x4(a7)
           0x00489bde      1f01           move.b d1, -(a7)
           0x00489be0      48780001       pea.l 0x1
           0x00489be4      486efff4       pea.l -0xc(a6)
           0x00489be8      487af6fe       pea.l MENUCOM.boxlist_command(pc)
           0x00489bec      4eb90043b79c   jsr G0_MAIN.g_new_command
           0x00489bf2      dec2           adda.w d2, a7
           0x00489bf4      265f           movea.l (a7)+, a3
           0x00489bf6      9ec3           suba.w d3, a7
           0x00489bf8      2f390047fdd8   move.l 0x47fdd8, -(a7)
           0x00489bfe      1f01           move.b d1, -(a7)
           0x00489c00      2f08           move.l a0, -(a7)
           0x00489c02      486efff4       pea.l -0xc(a6)
           0x00489c06      487af02c       pea.l MENUCOM.box_hit_command(pc)
           0x00489c0a      4eb90043b79c   jsr G0_MAIN.g_new_command
           0x00489c10      dec2           adda.w d2, a7
           0x00489c12      265f           movea.l (a7)+, a3
           0x00489c14      9ec3           suba.w d3, a7
           0x00489c16      2f390047fddc   move.l 0x47fddc, -(a7)
           0x00489c1c      1f790047fde0.  move.b 0x47fde0, 0x4(a7)
           0x00489c24      1f01           move.b d1, -(a7)
           0x00489c26      2f08           move.l a0, -(a7)
           0x00489c28      486efff4       pea.l -0xc(a6)
           0x00489c2c      487af17c       pea.l MENUCOM.box_hit_numeric(pc)
           0x00489c30      4eb90043b79c   jsr G0_MAIN.g_new_command
           0x00489c36      dec2           adda.w d2, a7
           0x00489c38      265f           movea.l (a7)+, a3
           0x00489c3a      9ec4           suba.w d4, a7
           0x00489c3c      224f           movea.l a7, a1
           0x00489c3e      45f90047fde1   lea.l 0x47fde1, a2
           0x00489c44      7005           moveq 0x5, d0
       > 0x00489c46      12da           move.b (a2)+, (a1)+
       < 0x00489c48      51c8fffc       dbra d0, 0x489c46
           0x00489c4c      1f01           move.b d1, -(a7)
           0x00489c4e      2f08           move.l a0, -(a7)
           0x00489c50      486efff4       pea.l -0xc(a6)
           0x00489c54      487aeade       pea.l MENUCOM.menu_check_comm(pc)
           0x00489c58      4eb90043b79c   jsr G0_MAIN.g_new_command
           0x00489c5e      dec2           adda.w d2, a7
           0x00489c60      265f           movea.l (a7)+, a3
           0x00489c62      9ec4           suba.w d4, a7
           0x00489c64      224f           movea.l a7, a1
           0x00489c66      45f90047fde7   lea.l 0x47fde7, a2
           0x00489c6c      7004           moveq 0x4, d0
       > 0x00489c6e      12da           move.b (a2)+, (a1)+
       < 0x00489c70      51c8fffc       dbra d0, 0x489c6e
           0x00489c74      1f01           move.b d1, -(a7)
           0x00489c76      2f08           move.l a0, -(a7)
           0x00489c78      486efff4       pea.l -0xc(a6)
           0x00489c7c      487aedee       pea.l MENUCOM.name_command(pc)
           0x00489c80      4eb90043b79c   jsr G0_MAIN.g_new_command
           0x00489c86      dec2           adda.w d2, a7
           0x00489c88      265f           movea.l (a7)+, a3
           0x00489c8a      9ec3           suba.w d3, a7
           0x00489c8c      2f390047fdec   move.l 0x47fdec, -(a7)
           0x00489c92      2f790047fdf0.  move.l 0x47fdf0, 0x4(a7)
           0x00489c9a      1f01           move.b d1, -(a7)
           0x00489c9c      2f08           move.l a0, -(a7)
           0x00489c9e      486efff4       pea.l -0xc(a6)
           0x00489ca2      487aeeda       pea.l MENUCOM.macro_name_comm(pc)
           0x00489ca6      4eb90043b79c   jsr G0_MAIN.g_new_command
           0x00489cac      dec2           adda.w d2, a7
           0x00489cae      265f           movea.l (a7)+, a3
           0x00489cb0      423900818548   clr.b 0x818548
           0x00489cb6      23c1008190f8   move.l d1, 0x8190f8
           0x00489cbc      23c1008190f4   move.l d1, 0x8190f4
           0x00489cc2      5d4f           subq.w 0x6, a7
           0x00489cc4      204f           movea.l a7, a0
           0x00489cc6      43f90047fdf5   lea.l 0x47fdf5, a1
           0x00489ccc      7005           moveq 0x5, d0
       > 0x00489cce      10d9           move.b (a1)+, (a0)+
       < 0x00489cd0      51c8fffc       dbra d0, 0x489cce
           0x00489cd4      3f06           move.w d6, -(a7)
           0x00489cd6      4267           clr.w -(a7)
           0x00489cd8      4267           clr.w -(a7)
           0x00489cda      4267           clr.w -(a7)
           0x00489cdc      4267           clr.w -(a7)
           0x00489cde      1f3c0002       move.b 0x2, -(a7)
           0x00489ce2      4227           clr.b -(a7)
           0x00489ce4      4267           clr.w -(a7)
           0x00489ce6      4267           clr.w -(a7)
           0x00489ce8      2f390047eefe   move.l 0x47eefe, -(a7)
           0x00489cee      486f0016       pea.l 0x16(a7)
           0x00489cf2      48780001       pea.l 0x1
           0x00489cf6      48780006       pea.l 0x6
           0x00489cfa      486d0010       pea.l 0x10(a5)
           0x00489cfe      487a82ee       pea.l MENUCOM.hit_nothing(pc)
           0x00489d02      4ebad982       jsr MENUCOM.def_box(pc)
           0x00489d06      defc0030       adda.w 0x30, a7
           0x00489d0a      4eb90048e802   jsr MENUINITCOM.menu_def_boxes
           0x00489d10      49eefff4       lea.l -0xc(a6), a4
           0x00489d14      4ebafb0c       jsr MENUCOM.load_dictionary(pc)
           0x00489d18      23ee00180081.  move.l 0x18(a6), 0x8190de.l
           0x00489d20      23ee001c0081.  move.l 0x1c(a6), 0x8190e2.l
           0x00489d28      23ee00100081.  move.l 0x10(a6), 0x8190d6.l
           0x00489d30      23ee00140081.  move.l 0x14(a6), 0x8190da.l
           0x00489d38      1f05           move.b d5, -(a7)
           0x00489d3a      4227           clr.b -(a7)
           0x00489d3c      4eb900522512   jsr BRUSHCOM.br_write_prot
           0x00489d42      544f           addq.w 0x2, a7
           0x00489d44      4257           clr.w (a7)
           0x00489d46      2f390047e76a   move.l 0x47e76a, -(a7)
           0x00489d4c      3f390047e768   move.w 0x47e768, -(a7)
           0x00489d52      1f05           move.b d5, -(a7)
           0x00489d54      2f2e001c       move.l 0x1c(a6), -(a7)
           0x00489d58      2f2e0018       move.l 0x18(a6), -(a7)
           0x00489d5c      4eb9005215a8   jsr BRUSHCOM.br_wipe_colour
           0x00489d62      defc0010       adda.w 0x10, a7
           0x00489d66      1e85           move.b d5, (a7)
           0x00489d68      1f01           move.b d1, -(a7)
           0x00489d6a      4eb900522512   jsr BRUSHCOM.br_write_prot
           0x00489d70      584f           addq.w 0x4, a7
           0x00489d72      13c1008190e6   move.b d1, 0x8190e6
           0x00489d78      3f06           move.w d6, -(a7)
           0x00489d7a      1f01           move.b d1, -(a7)
           0x00489d7c      4eba99f8       jsr MENUCOM.swtch_box(pc)
           0x00489d80      544f           addq.w 0x2, a7
           0x00489d82      3e86           move.w d6, (a7)
           0x00489d84      4eb9004818ac   jsr MENUCOM.post_box
           0x00489d8a      544f           addq.w 0x2, a7
           0x00489d8c      4cdf1f7f       movem.l (a7)+, d0-d6/a0-a4
           0x00489d90      4e5e           unlk a6
