            ;-- OUTCOM:
            0x005174f6      .byte 0x00
            0x005174f7      .byte 0x78
            0x005174f8      .byte 0x02
            0x005174f9      .byte 0xd8
            0x005174fa      .byte 0x01
            0x005174fb      .byte 0xf8
            0x005174fc      .byte 0x0b
            0x005174fd      .byte 0x60
            0x005174fe      .byte 0x01
            0x005174ff      .byte 0xf8
            0x00517500      .byte 0x05
            0x00517501      .byte 0xb0
            0x00517502      .byte 0x07
            0x00517503      .byte 0xf8
            0x00517504      .byte 0x0b
            0x00517505      .byte 0x60
            0x00517506      .byte 0x00
            0x00517507      .byte 0x88
            0x00517508      .byte 0x00
            0x00517509      .byte 0x46
            0x0051750a      .byte 0x00
            0x0051750b      .byte 0xd2
            0x0051750c      .byte 0x00
            0x0051750d      .byte 0x51
            0x0051750e      .byte 0x00
            0x0051750f      .byte 0x80
            0x00517510      .byte 0x00
            0x00517511      .byte 0x80
            0x00517512      .byte 0x00
            0x00517513      .byte 0x3c
            0x00517514      .byte 0x00
            0x00517515      .byte 0x80
            0x00517516      .byte 0x00
            0x00517517      .byte 0x80
            0x00517518      .byte 0x00
            0x00517519      .byte 0x32
            0x0051751a      .byte 0x00
            0x0051751b      .byte 0x80
            0x0051751c      .byte 0x00
            0x0051751d      .byte 0x80
            0x0051751e      .byte 0x00
            0x0051751f      .byte 0x10
            0x00517520      .byte 0x00
            0x00517521      .byte 0x80
            0x00517522      .byte 0x00
            0x00517523      .byte 0x80
            0x00517524      .byte 0x00
            0x00517525      .byte 0xa7
            0x00517526      .byte 0x00
            0x00517527      .byte 0x72
            0x00517528      .byte 0x00
            0x00517529      .byte 0x9e
            0x0051752a      .byte 0x00
            0x0051752b      .byte 0xbf
            0x0051752c      .byte 0x00
            0x0051752d      .byte 0x80
            0x0051752e      .byte 0x00
            0x0051752f      .byte 0x80
            0x00517530      .byte 0x00
            0x00517531      .byte 0xa0
            0x00517532      .byte 0x00
            0x00517533      .byte 0x96
            0x00517534      .byte 0x00
            0x00517535      .byte 0x74
            0x00517536      .byte 0x00
            0x00517537      .byte 0x23
            0x00517538      .byte 0x00
            0x00517539      .byte 0xf0
            0x0051753a      .byte 0x00
            0x0051753b      .byte 0x6e
            0x0051753c      .byte 0x00
            0x0051753d      .byte 0x8c
            0x0051753e      .byte 0x00
            0x0051753f      .byte 0x6e
            0x00517540      .byte 0x00
            0x00517541      .byte 0x6e
            0x00517542      .byte 0x00
            0x00517543      .byte 0xc4
            0x00517544      .byte 0x00
            0x00517545      .byte 0x31
            0x00517546      .byte 0x00
            0x00517547      .byte 0x8c
            0x00517548      .byte 0x00
            0x00517549      .byte 0xa8
            0x0051754a      .byte 0x00
            0x0051754b      .byte 0x28
            0x0051754c      .byte 0x00
            0x0051754d      .byte 0xb1
            0x0051754e      .byte 0x00
            0x0051754f      .byte 0x00
            0x00517550      .byte 0x00
            0x00517551      .byte 0x80
            0x00517552      .byte 0x00
            0x00517553      .byte 0x80
            0x00517554      .byte 0x00
            0x00517555      .byte 0xff
            0x00517556      .byte 0x00
            0x00517557      .byte 0x80
            0x00517558      .byte 0x00
            0x00517559      .byte 0x80
            0x0051755a      .byte 0x00
            0x0051755b      .byte 0xcc
            0x0051755c      .byte 0x00
            0x0051755d      .byte 0x80
            0x0051755e      .byte 0x00
            0x0051755f      .byte 0x80
            0x00517560      .byte 0x00
            0x00517561      .byte 0xad
            0x00517562      .byte 0x00
            0x00517563      .byte 0x80
            0x00517564      .byte 0x00
            0x00517565      .byte 0x80
            0x00517566      .byte 0x00
            0x00517567      .byte 0xeb
            0x00517568      .byte 0x00
            0x00517569      .byte 0x80
            0x0051756a      .byte 0x00
            0x0051756b      .byte 0x80
            0x0051756c      .byte 0x00
            0x0051756d      .byte 0x10
            0x0051756e      .byte 0x00
            0x0051756f      .byte 0x80
            0x00517570      .byte 0x00
            0x00517571      .byte 0x80
            0x00517572      .byte 0x00
            0x00517573      .byte 0x80
            0x00517574      .byte 0x00
            0x00517575      .byte 0x80
            0x00517576      .byte 0x00
            0x00517577      .byte 0x80
            0x00517578      .byte 0x00
            0x00517579      .byte 0x51
            0x0051757a      .byte 0x00
            0x0051757b      .byte 0x5a
            0x0051757c      .byte 0x00
            0x0051757d      .byte 0xf0
            0x0051757e      .byte 0x00
            0x0051757f      .byte 0xd2
            0x00517580      .byte 0x00
            0x00517581      .byte 0x10
            0x00517582      .byte 0x00
            0x00517583      .byte 0x92
            0x00517584      .byte 0x00
            0x00517585      .byte 0x29
            0x00517586      .byte 0x00
            0x00517587      .byte 0xf0
            0x00517588      .byte 0x00
            0x00517589      .byte 0x6e
            0x0051758a      .byte 0x00
            0x0051758b      .byte 0x91
            0x0051758c      .byte 0x00
            0x0051758d      .byte 0x36
            0x0051758e      .byte 0x00
            0x0051758f      .byte 0x22
            0x00517590      .byte 0x00
            0x00517591      .byte 0xa2
            0x00517592      .byte 0x00
            0x00517593      .byte 0x2c
            0x00517594      .byte 0x00
            0x00517595      .byte 0x8e
            0x00517596      .byte 0x00
            0x00517597      .byte 0x83
            0x00517598      .byte 0x00
            0x00517599      .byte 0x9c
            0x0051759a      .byte 0x00
            0x0051759b      .byte 0x2c
            0x0051759c      .byte 0x00
            0x0051759d      .byte 0x70
            0x0051759e      .byte 0x00
            0x0051759f      .byte 0x48
            0x005175a0      .byte 0x00
            0x005175a1      .byte 0x3a
            0x005175a2      .byte 0x00
            0x005175a3      .byte 0x54
            0x005175a4      .byte 0x00
            0x005175a5      .byte 0xb8
            0x005175a6      .byte 0x00
            0x005175a7      .byte 0xc6
            0x005175a8      .byte 0x00
            0x005175a9      .byte 0x41
            0x005175aa      .byte 0x00
            0x005175ab      .byte 0x64
            0x005175ac      .byte 0x00
            0x005175ad      .byte 0xd4
            0x005175ae      .byte 0x00
            0x005175af      .byte 0x23
            0x005175b0      .byte 0x00
            0x005175b1      .byte 0xd4
            0x005175b2      .byte 0x00
            0x005175b3      .byte 0x72
            0x005175b4      .byte 0x00
            0x005175b5      .byte 0xd2
            0x005175b6      .byte 0x00
            0x005175b7      .byte 0x10
            0x005175b8      .byte 0x00
            0x005175b9      .byte 0x92
            0x005175ba      .byte 0x00
            0x005175bb      .byte 0xaa
            0x005175bc      .byte 0x00
            0x005175bd      .byte 0xa6
            0x005175be      .byte 0x00
            0x005175bf      .byte 0x10
            0x005175c0      .byte 0x00
            0x005175c1      .byte 0x91
            0x005175c2      .byte 0x00
            0x005175c3      .byte 0x36
            0x005175c4      .byte 0x00
            0x005175c5      .byte 0x22
            0x005175c6      .byte 0x00
            0x005175c7      .byte 0x6a
            0x005175c8      .byte 0x00
            0x005175c9      .byte 0xca
            0x005175ca      .byte 0x00
            0x005175cb      .byte 0xde
            0x005175cc      .byte 0x00
            0x005175cd      .byte 0x51
            0x005175ce      .byte 0x00
            0x005175cf      .byte 0x5a
            0x005175d0      .byte 0x00
            0x005175d1      .byte 0xf0
            0x005175d2      .byte 0x00
            0x005175d3      .byte 0x29
            0x005175d4      .byte 0x00
            0x005175d5      .byte 0xf0
            0x005175d6      .byte 0x00
            0x005175d7      .byte 0x6e
            0x005175d8      .byte 0x02
            0x005175d9      .byte 0xc7
            0x005175da      .byte 0x01
            0x005175db      .byte 0xe5
            0x005175dc      .byte 0x03
            0x005175dd      .byte 0x00
            0x005175de      .byte 0x01
            0x005175df      .byte 0xe4
            0x005175e0      .byte 0x02
            0x005175e1      .byte 0xbd
            0x005175e2      .byte 0x02
            0x005175e3      .byte 0x3f
            0x005175e4      .byte 0x00
            0x005175e5      .byte 0x10
            0x005175e6      .byte 0x00
            0x005175e7      .byte 0x80
            0x005175e8      .byte 0x00
            0x005175e9      .byte 0x80
            0x005175ea      .byte 0x00
            0x005175eb      .byte 0x10
            0x005175ec      .byte 0x00
            0x005175ed      .byte 0x80
            0x005175ee      .byte 0x00
            0x005175ef      .byte 0x80
            0x005175f0      .byte 0x00
            0x005175f1      .byte 0xeb
            0x005175f2      .byte 0x00
            0x005175f3      .byte 0x80
            0x005175f4      .byte 0x00
            0x005175f5      .byte 0x80
            0x005175f6      .byte 0x00
            0x005175f7      .byte 0x50
            0x005175f8      .byte 0x00
            0x005175f9      .byte 0x80
            0x005175fa      .byte 0x00
            0x005175fb      .byte 0x80
            0x005175fc      .byte 0x01
            0x005175fd      .byte 0x00
            0x005175fe      .byte 0x00
            0x005175ff      .byte 0x01
            0x00517600      .byte 0x00
            0x00517601      .byte 0x00
            0x00517602      .byte 0x00
            0x00517603      .byte 0x00
            0x00517604      .byte 0x00
            0x00517605      .byte 0x01
            0x00517606      .byte 0x00
            0x00517607      .byte 0x00
            0x00517608      .byte 0x00
            0x00517609      .byte 0x00
            0x0051760a      .byte 0x0e
            0x0051760b     .string "pic1_only_out$" ; len=14
            0x00517619      .byte 0x20
            0x0051761a      .byte 0x00
            0x0051761b      .byte 0x00
            0x0051761c      .byte 0x00
            0x0051761d      .byte 0x00
            0x0051761e      .byte 0x00
            0x0051761f      .byte 0x00
            0x00517620      .byte 0x00
            0x00517621      .byte 0x00
            0x00517622      .byte 0x00
            0x00517623      .byte 0x00
            0x00517624      .byte 0x00
            0x00517625      .byte 0x00
            0x00517626      .byte 0x00
            0x00517627      .byte 0x00
            0x00517628      .byte 0x00
            0x00517629      .byte 0x00
            0x0051762a      .byte 0x00
            0x0051762b      .byte 0x00
            0x0051762c      .byte 0x00
            0x0051762d      .byte 0x00
            0x0051762e      .byte 0x00
            0x0051762f      .byte 0x00
            0x00517630      .byte 0x00
            0x00517631      .byte 0x00
            0x00517632      .byte 0x00
            0x00517633      .byte 0x00
            0x00517634      .byte 0x00
            0x00517635      .byte 0x00
            0x00517636      .byte 0x00
            0x00517637      .byte 0x01
            0x00517638      .byte 0x00
            0x00517639      .byte 0x00
            0x0051763a      .byte 0x00
            0x0051763b      .byte 0x00
            0x0051763c      .byte 0x00
            0x0051763d      .byte 0x01
            0x0051763e      .byte 0x00
            0x0051763f      .byte 0x00
            0x00517640      .byte 0x00
            0x00517641      .byte 0x00
            0x00517642      .byte 0x0e
            0x00517643     .string "pic2_only_out$" ; len=14
            0x00517651      .byte 0x20
            0x00517652      .byte 0x00
            0x00517653      .byte 0x00
            0x00517654      .byte 0x00
            0x00517655      .byte 0x00
            0x00517656      .byte 0x00
            0x00517657      .byte 0x00
            0x00517658      .byte 0x00
            0x00517659      .byte 0x00
            0x0051765a      .byte 0x00
            0x0051765b      .byte 0x00
            0x0051765c      .byte 0x00
            0x0051765d      .byte 0x00
            0x0051765e      .byte 0x00
            0x0051765f      .byte 0x00
            0x00517660      .byte 0x00
            0x00517661      .byte 0x00
            0x00517662      .byte 0x00
            0x00517663      .byte 0x00
            0x00517664      .byte 0x00
            0x00517665      .byte 0x00
            0x00517666      .byte 0x00
            0x00517667      .byte 0x00
            0x00517668      .byte 0x00
            0x00517669      .byte 0x00
            0x0051766a      .byte 0x00
            0x0051766b      .byte 0x00
            0x0051766c      .byte 0x01
            0x0051766d      .byte 0x00
            0x0051766e      .byte 0x01
            0x0051766f      .byte 0x00
            0x00517670      .byte 0x00
            0x00517671      .byte 0x00
            0x00517672      .byte 0x00
            0x00517673      .byte 0x00
            0x00517674      .byte 0x01
            0x00517675      .byte 0x01
            0x00517676      .byte 0x00
            0x00517677      .byte 0xc8
            0x00517678      .byte 0x03
            0x00517679      .byte 0x00
            0x0051767a      .byte 0x14
            0x0051767b     .string "pic1_disp_sten1_out$" ; len=20
            0x0051768f      .byte 0x20
            0x00517690      .byte 0x00
            0x00517691      .byte 0x00
            0x00517692      .byte 0x00
            0x00517693      .byte 0x00
            0x00517694      .byte 0x00
            0x00517695      .byte 0x00
            0x00517696      .byte 0x00
            0x00517697      .byte 0x00
            0x00517698      .byte 0x00
            0x00517699      .byte 0x00
            0x0051769a      .byte 0x00
            0x0051769b      .byte 0x00
            0x0051769c      .byte 0x00
            0x0051769d      .byte 0x00
            0x0051769e      .byte 0x00
            0x0051769f      .byte 0x00
            0x005176a0      .byte 0x00
            0x005176a1      .byte 0x00
            0x005176a2      .byte 0x00
            0x005176a3      .byte 0x00
            0x005176a4      .byte 0x01
            0x005176a5      .byte 0x00
            0x005176a6      .byte 0x00
            0x005176a7      .byte 0x01
            0x005176a8      .byte 0x00
            0x005176a9      .byte 0xff
            0x005176aa      .byte 0x00
            0x005176ab      .byte 0x00
            0x005176ac      .byte 0x00
            0x005176ad      .byte 0x00
            0x005176ae      .byte 0x00
            0x005176af      .byte 0xff
            0x005176b0      .byte 0x00
            0x005176b1      .byte 0x00
            0x005176b2      .byte 0x14
            0x005176b3     .string "spec2_over_pic1_out$" ; len=20
            0x005176c7      .byte 0x20
            0x005176c8      .byte 0x00
            0x005176c9      .byte 0x00
            0x005176ca      .byte 0x00
            0x005176cb      .byte 0x00
            0x005176cc      .byte 0x00
            0x005176cd      .byte 0x00
            0x005176ce      .byte 0x00
            0x005176cf      .byte 0x00
            0x005176d0      .byte 0x00
            0x005176d1      .byte 0x00
            0x005176d2      .byte 0x00
            0x005176d3      .byte 0x00
            0x005176d4      .byte 0x00
            0x005176d5      .byte 0x00
            0x005176d6      .byte 0x00
            0x005176d7      .byte 0x00
            0x005176d8      .byte 0x00
            0x005176d9      .byte 0x00
            0x005176da      .byte 0x00
            0x005176db      .byte 0x00
            0x005176dc      .byte 0x01
            0x005176dd      .byte 0x00
            0x005176de      .byte 0x00
            0x005176df      .byte 0x00
            0x005176e0      .byte 0x00
            0x005176e1      .byte 0x00
            0x005176e2      .byte 0x00
            0x005176e3      .byte 0x00
            0x005176e4      .byte 0x00
            0x005176e5      .byte 0x00
            0x005176e6      .byte 0x00
            0x005176e7      .byte 0xff
            0x005176e8      .byte 0x00
            0x005176e9      .byte 0x00
            0x005176ea      .byte 0x1e
            0x005176eb     .string "spec2_over_pic1_use_sten1_out$" ; len=30
            0x00517709      .byte 0x20
            0x0051770a      .byte 0x00
            0x0051770b      .byte 0x00
            0x0051770c      .byte 0x00
            0x0051770d      .byte 0x00
            0x0051770e      .byte 0x00
            0x0051770f      .byte 0x00
            0x00517710      .byte 0x00
            0x00517711      .byte 0x00
            0x00517712      .byte 0x00
            0x00517713      .byte 0x00
            0x00517714      .byte 0x01
            0x00517715      .byte 0x00
            0x00517716      .byte 0x00
            0x00517717      .byte 0x01
            0x00517718      .byte 0x00
            0x00517719      .byte 0xff
            0x0051771a      .byte 0x00
            0x0051771b      .byte 0x00
            0x0051771c      .byte 0x00
            0x0051771d      .byte 0x00
            0x0051771e      .byte 0x00
            0x0051771f      .byte 0xff
            0x00517720      .byte 0x02
            0x00517721      .byte 0x00
            0x00517722      .byte 0x14
            0x00517723     .string "sten2_over_pic1_out$" ; len=20
            0x00517737      .byte 0x20
            0x00517738      .byte 0x00
            0x00517739      .byte 0x00
            0x0051773a      .byte 0x00
            0x0051773b      .byte 0x00
            0x0051773c      .byte 0x00
            0x0051773d      .byte 0x00
            0x0051773e      .byte 0x00
            0x0051773f      .byte 0x00
            0x00517740      .byte 0x00
            0x00517741      .byte 0x00
            0x00517742      .byte 0x00
            0x00517743      .byte 0x00
            0x00517744      .byte 0x00
            0x00517745      .byte 0x00
            0x00517746      .byte 0x00
            0x00517747      .byte 0x00
            0x00517748      .byte 0x00
            0x00517749      .byte 0x00
            0x0051774a      .byte 0x00
            0x0051774b      .byte 0x00
            0x0051774c      .byte 0x01
            0x0051774d      .byte 0x00
            0x0051774e      .byte 0x00
            0x0051774f      .byte 0x00
            0x00517750      .byte 0x00
            0x00517751      .byte 0x00
            0x00517752      .byte 0x00
            0x00517753      .byte 0x00
            0x00517754      .byte 0x00
            0x00517755      .byte 0x00
            0x00517756      .byte 0x00
            0x00517757      .byte 0xff
            0x00517758      .byte 0x02
            0x00517759      .byte 0x00
            0x0051775a      .byte 0x0b
            0x0051775b     .string "spare1_out$" ; len=11
            0x00517766      .byte 0x20
            0x00517767     .string "ic1_use_sten1_out$ " ; len=19
            0x0051777a      .byte 0x00
            0x0051777b      .byte 0x00
            0x0051777c      .byte 0x00
            0x0051777d      .byte 0x00
            0x0051777e      .byte 0x00
            0x0051777f      .byte 0x00
            0x00517780      .byte 0x00
            0x00517781      .byte 0x00
            0x00517782      .byte 0x00
            0x00517783      .byte 0x00
            0x00517784      .byte 0x01
            0x00517785      .byte 0x01
            0x00517786      .byte 0x01
            0x00517787      .byte 0x00
            0x00517788      .byte 0x00
            0x00517789      .byte 0x00
            0x0051778a      .byte 0x00
            0x0051778b      .byte 0x00
            0x0051778c      .byte 0x00
            0x0051778d      .byte 0x00
            0x0051778e      .byte 0x00
            0x0051778f      .byte 0x00
            0x00517790      .byte 0x03
            0x00517791      .byte 0x00
            0x00517792      .byte 0x19
            0x00517793     .string "sten2_over_sten1_add_out$" ; len=25
            0x005177ac      .byte 0x20
            0x005177ad      .byte 0x00
            0x005177ae      .byte 0x00
            0x005177af      .byte 0x00
            0x005177b0      .byte 0x00
            0x005177b1      .byte 0x00
            0x005177b2      .byte 0x00
            0x005177b3      .byte 0x00
            0x005177b4      .byte 0x00
            0x005177b5      .byte 0x00
            0x005177b6      .byte 0x00
            0x005177b7      .byte 0x00
            0x005177b8      .byte 0x00
            0x005177b9      .byte 0x00
            0x005177ba      .byte 0x00
            0x005177bb      .byte 0x00
            0x005177bc      .byte 0x01
            0x005177bd      .byte 0x00
            0x005177be      .byte 0x01
            0x005177bf      .byte 0x00
            0x005177c0      .byte 0x00
            0x005177c1      .byte 0x00
            0x005177c2      .byte 0x00
            0x005177c3      .byte 0x00
            0x005177c4      .byte 0x01
            0x005177c5      .byte 0x00
            0x005177c6      .byte 0x00
            0x005177c7      .byte 0x37
            0x005177c8      .byte 0x03
            0x005177c9      .byte 0x00
            0x005177ca      .byte 0x1c
            0x005177cb     .string "sten2_over_sten1_remove_out$" ; len=28
            0x005177e7      .byte 0x20
            0x005177e8     .string "$ " ; len=2
            0x005177ea      .byte 0x00
            0x005177eb      .byte 0x00
            0x005177ec      .byte 0x00
            0x005177ed      .byte 0x00
            0x005177ee      .byte 0x00
            0x005177ef      .byte 0x00
            0x005177f0      .byte 0x00
            0x005177f1      .byte 0x00
            0x005177f2      .byte 0x00
            0x005177f3      .byte 0x00
            0x005177f4      .byte 0x01
            0x005177f5      .byte 0x00
            0x005177f6      .byte 0x00
            0x005177f7      .byte 0x01
            0x005177f8      .byte 0x00
            0x005177f9      .byte 0xff
            0x005177fa      .byte 0x00
            0x005177fb      .byte 0x00
            0x005177fc      .byte 0x00
            0x005177fd      .byte 0x00
            0x005177fe      .byte 0x00
            0x005177ff      .byte 0x00
            0x00517800      .byte 0x00
            0x00517801      .byte 0x00
            0x00517802      .byte 0x12
            0x00517803     .string "pic1_and_pic2_out$" ; len=18
            0x00517815      .byte 0x20
            0x00517816     .string "d_out$ " ; len=7
            0x0051781d      .byte 0x00
            0x0051781e      .byte 0x00
            0x0051781f      .byte 0x00
            0x00517820      .byte 0x00
            0x00517821      .byte 0x00
            0x00517822      .byte 0x00
            0x00517823      .byte 0x00
            0x00517824      .byte 0x00
            0x00517825      .byte 0x00
            0x00517826      .byte 0x00
            0x00517827      .byte 0x00
            0x00517828      .byte 0x00
            0x00517829      .byte 0x00
            0x0051782a      .byte 0x00
            0x0051782b      .byte 0x00
            0x0051782c      .byte 0x01
            0x0051782d      .byte 0x00
            0x0051782e      .byte 0x00
            0x0051782f      .byte 0x01
            0x00517830      .byte 0x00
            0x00517831      .byte 0xc8
            0x00517832      .byte 0x00
            0x00517833      .byte 0x00
            0x00517834      .byte 0x01
            0x00517835      .byte 0x00
            0x00517836      .byte 0x00
            0x00517837      .byte 0x00
            0x00517838      .byte 0x03
            0x00517839      .byte 0x00
            0x0051783a      .byte 0x0f
            0x0051783b     .string "sten2_grad_out$" ; len=15
            0x0051784a      .byte 0x20
            0x0051784b     .string "_remove_out$ $ " ; len=15
            0x0051785a      .byte 0x00
            0x0051785b      .byte 0x00
            0x0051785c      .byte 0x00
            0x0051785d      .byte 0x00
            0x0051785e      .byte 0x00
            0x0051785f      .byte 0x00
            0x00517860      .byte 0x00
            0x00517861      .byte 0x00
            0x00517862      .byte 0x00
            0x00517863      .byte 0x00
            0x00517864      .byte 0x01
            0x00517865      .byte 0x00
            0x00517866      .byte 0x01
            0x00517867      .byte 0x00
            0x00517868      .byte 0x00
            0x00517869      .byte 0x00
            0x0051786a      .byte 0x00
            0x0051786b      .byte 0x00
            0x0051786c      .byte 0x01
            0x0051786d      .byte 0x00
            0x0051786e      .byte 0x00
            0x0051786f      .byte 0xff
            0x00517870      .byte 0x03
            0x00517871      .byte 0x00
            0x00517872      .byte 0x16
            0x00517873     .string "sten_remove_paste_out$" ; len=22
            0x00517889      .byte 0x20
            0x0051788a     .string "t$ " ; len=3
            0x0051788d      .byte 0x00
            0x0051788e      .byte 0x00
            0x0051788f      .byte 0x00
            0x00517890      .byte 0x00
            0x00517891      .byte 0x00
            0x00517892      .byte 0x00
            0x00517893      .byte 0x00
            0x00517894      .byte 0x00
            0x00517895      .byte 0x00
            0x00517896      .byte 0x00
            0x00517897      .byte 0x00
            0x00517898      .byte 0x00
            0x00517899      .byte 0x00
            0x0051789a      .byte 0x00
            0x0051789b      .byte 0x00
            0x0051789c      .byte 0x01
            0x0051789d      .byte 0x00
            0x0051789e      .byte 0x01
            0x0051789f      .byte 0x00
            0x005178a0      .byte 0x00
            0x005178a1      .byte 0x00
            0x005178a2      .byte 0x02
            0x005178a3      .byte 0x00
            0x005178a4      .byte 0x01
            0x005178a5      .byte 0x01
            0x005178a6      .byte 0x00
            0x005178a7      .byte 0xff
            0x005178a8      .byte 0x03
            0x005178a9      .byte 0x00
            0x005178aa      .byte 0x0d
            0x005178ab     .string "sten_cut_out$" ; len=13
            0x005178b8      .byte 0x20
            0x005178b9     .string "$ _remove_out$ $ " ; len=17
            0x005178ca      .byte 0x00
            0x005178cb      .byte 0x00
            0x005178cc      .byte 0x00
            0x005178cd      .byte 0x00
            0x005178ce      .byte 0x00
            0x005178cf      .byte 0x00
            0x005178d0      .byte 0x00
            0x005178d1      .byte 0x00
            0x005178d2      .byte 0x00
            0x005178d3      .byte 0x00
            0x005178d4      .byte 0x00
            0x005178d5      .byte 0x00
            0x005178d6      .byte 0x00
            0x005178d7      .byte 0x00
            0x005178d8      .byte 0x00
            0x005178d9      .byte 0x00
            0x005178da      .byte 0x02
            0x005178db      .byte 0x00
            0x005178dc      .byte 0x01
            0x005178dd      .byte 0x00
            0x005178de      .byte 0x00
            0x005178df      .byte 0xff
            0x005178e0      .byte 0x00
            0x005178e1      .byte 0x00
            0x005178e2      .byte 0x1a
            0x005178e3     .string "pic2_sten2_over_sten1_out$" ; len=26
            0x005178fd      .byte 0x20
            0x005178fe      .byte 0x00
            0x005178ff      .byte 0x00
            0x00517900      .byte 0x00
            0x00517901      .byte 0x00
            0x00517902      .byte 0x00
            0x00517903      .byte 0x00
            0x00517904      .byte 0x00
            0x00517905      .byte 0x00
            0x00517906      .byte 0x00
            0x00517907      .byte 0x00
            0x00517908      .byte 0x00
            0x00517909      .byte 0x00
            0x0051790a      .byte 0x00
            0x0051790b      .byte 0x00
            0x0051790c      .byte 0x00
            0x0051790d      .byte 0x00
            0x0051790e      .byte 0x00
            0x0051790f      .byte 0x00
            0x00517910      .byte 0x00
            0x00517911      .byte 0x00
            0x00517912      .byte 0x01
            0x00517913      .byte 0x01
            0x00517914      .byte 0x01
            0x00517915      .byte 0x00
            0x00517916      .byte 0x00
            0x00517917      .byte 0x00
            0x00517918      .byte 0x01
            0x00517919      .byte 0x02
            0x0051791a     .string ")s" ; len=2
            0x0051791c      .byte 0x74
            0x0051791d     .string "en1_add2_black_on_white_out$ } { unuse" ; len=38
            0x00517943      .byte 0x00
            0x00517944      .byte 0x00
            0x00517945      .byte 0x00
            0x00517946      .byte 0x00
            0x00517947      .byte 0x00
            0x00517948      .byte 0x00
            0x00517949      .byte 0x00
            0x0051794a      .byte 0x01
            0x0051794b      .byte 0x02
            0x0051794c      .byte 0x01
            0x0051794d      .byte 0x00
            0x0051794e      .byte 0x00
            0x0051794f      .byte 0x00
            0x00517950      .byte 0x01
            0x00517951      .byte 0x01
            0x00517952      .byte 0x1e
            0x00517953     .string "sten1_add2_white_on_black_out$" ; len=30
            0x00517971      .byte 0x20
            0x00517972      .byte 0x00
            0x00517973      .byte 0x00
            0x00517974      .byte 0x00
            0x00517975      .byte 0x00
            0x00517976      .byte 0x00
            0x00517977      .byte 0x00
            0x00517978      .byte 0x00
            0x00517979      .byte 0x00
            0x0051797a      .byte 0x00
            0x0051797b      .byte 0x00
            0x0051797c      .byte 0x00
            0x0051797d      .byte 0x00
            0x0051797e      .byte 0x00
            0x0051797f      .byte 0x00
            0x00517980      .byte 0x00
            0x00517981      .byte 0xff
            0x00517982      .byte 0x01
            0x00517983      .byte 0x01
            0x00517984      .byte 0x00
            0x00517985      .byte 0x01
            0x00517986      .byte 0x00
            0x00517987      .byte 0xff
            0x00517988      .byte 0x03
            0x00517989      .byte 0x00
            0x0051798a      .byte 0x0f
            0x0051798b     .string "sten1_only_out$" ; len=15
            0x0051799a      .byte 0x20
            0x0051799b     .string "_on_white_out$ } { unuse" ; len=24
            0x005179b3      .byte 0x00
            0x005179b4      .byte 0x01
            0x005179b5      .byte 0x00
            0x005179b6      .byte 0x01
            0x005179b7      .byte 0x00
            0x005179b8      .byte 0x00
            0x005179b9      .byte 0x00
            0x005179ba      .byte 0x01
            0x005179bb      .byte 0x01
            0x005179bc      .byte 0x01
            0x005179bd      .byte 0x00
            0x005179be      .byte 0x00
            0x005179bf      .byte 0x00
            0x005179c0      .byte 0x01
            0x005179c1      .byte 0x02
            0x005179c2      .byte 0x1e
            0x005179c3     .string "sten1_rem2_black_on_white_out$" ; len=30
            0x005179e1      .byte 0x20
            0x005179e2      .byte 0x00
            0x005179e3      .byte 0x00
            0x005179e4      .byte 0x00
            0x005179e5      .byte 0x00
            0x005179e6      .byte 0x00
            0x005179e7      .byte 0x00
            0x005179e8      .byte 0x00
            0x005179e9      .byte 0x00
            0x005179ea      .byte 0x00
            0x005179eb      .byte 0x00
            0x005179ec      .byte 0x01
            0x005179ed      .byte 0x00
            0x005179ee      .byte 0x01
            0x005179ef      .byte 0x00
            0x005179f0      .byte 0x00
            0x005179f1      .byte 0x00
            0x005179f2      .byte 0x01
            0x005179f3      .byte 0x02
            0x005179f4      .byte 0x01
            0x005179f5      .byte 0x00
            0x005179f6      .byte 0x00
            0x005179f7      .byte 0x00
            0x005179f8      .byte 0x01
            0x005179f9      .byte 0x01
            0x005179fa      .byte 0x1e
            0x005179fb     .string "sten1_rem2_white_on_black_out$" ; len=30
            0x00517a19      .byte 0x20
            0x00517a1a     .string "} { unuse" ; len=9
            0x00517a23      .byte 0x00
            0x00517a24      .byte 0x01
            0x00517a25      .byte 0x00
            0x00517a26      .byte 0x01
            0x00517a27      .byte 0x00
            0x00517a28      .byte 0x00
            0x00517a29      .byte 0x00
            0x00517a2a      .byte 0x01
            0x00517a2b      .byte 0x01
            0x00517a2c      .byte 0x01
            0x00517a2d      .byte 0x01
            0x00517a2e      .byte 0x00
            0x00517a2f      .byte 0xff
            0x00517a30      .byte 0x01
            0x00517a31      .byte 0x02
            0x00517a32      .byte 0x19
            0x00517a33     .string "sten1_black_on_white_out$" ; len=25
            0x00517a4c      .byte 0x20
            0x00517a4d     .string "out$ " ; len=5
            0x00517a52      .byte 0x00
            0x00517a53      .byte 0x00
            0x00517a54      .byte 0x00
            0x00517a55      .byte 0x00
            0x00517a56      .byte 0x00
            0x00517a57      .byte 0x00
            0x00517a58      .byte 0x00
            0x00517a59      .byte 0x00
            0x00517a5a      .byte 0x00
            0x00517a5b      .byte 0x00
            0x00517a5c      .byte 0x01
            0x00517a5d      .byte 0x00
            0x00517a5e      .byte 0x01
            0x00517a5f      .byte 0x00
            0x00517a60      .byte 0x00
            0x00517a61      .byte 0x00
            0x00517a62      .byte 0x01
            0x00517a63      .byte 0x02
            0x00517a64      .byte 0x01
            0x00517a65      .byte 0x01
            0x00517a66      .byte 0x00
            0x00517a67      .byte 0xff
            0x00517a68      .byte 0x01
            0x00517a69      .byte 0x01
            0x00517a6a      .byte 0x19
            0x00517a6b     .string "sten1_white_on_black_out$" ; len=25
            0x00517a84      .byte 0x20
            0x00517a85     .string "out$ } { unuse" ; len=14
            0x00517a93      .byte 0x00
            0x00517a94      .byte 0x00
            0x00517a95      .byte 0x00
            0x00517a96      .byte 0x00
            0x00517a97      .byte 0x01
            0x00517a98      .byte 0x00
            0x00517a99      .byte 0x00
            0x00517a9a      .byte 0x01
            0x00517a9b      .byte 0x01
            0x00517a9c      .byte 0x00
            0x00517a9d      .byte 0x01
            0x00517a9e      .byte 0x00
            0x00517a9f      .byte 0x00
            0x00517aa0      .byte 0x01
            0x00517aa1      .byte 0x01
            0x00517aa2      .byte 0x0e
            0x00517aa3     .string "all_black_out$" ; len=14
            0x00517ab1      .byte 0x20
            0x00517ab2     .string "white_out$ out$ " ; len=16
            0x00517ac2      .byte 0x00
            0x00517ac3      .byte 0x00
            0x00517ac4      .byte 0x00
            0x00517ac5      .byte 0x00
            0x00517ac6      .byte 0x00
            0x00517ac7      .byte 0x00
            0x00517ac8      .byte 0x00
            0x00517ac9      .byte 0x00
            0x00517aca      .byte 0x00
            0x00517acb      .byte 0x00
            0x00517acc      .byte 0x00
            0x00517acd      .byte 0x00
            0x00517ace      .byte 0x01
            0x00517acf      .byte 0x01
            0x00517ad0      .byte 0x00
            0x00517ad1      .byte 0xc8
            0x00517ad2      .byte 0x03
            0x00517ad3      .byte 0x00
            0x00517ad4      .byte 0x01
            0x00517ad5      .byte 0x00
            0x00517ad6      .byte 0x00
            0x00517ad7      .byte 0x00
            0x00517ad8      .byte 0x00
            0x00517ad9      .byte 0x00
            0x00517ada      .byte 0x13
            0x00517adb     .string "pic2_and_sten2_out$" ; len=19
            0x00517aee      .byte 0x20
            0x00517aef     .string "_out$ out$ } { unuse" ; len=20
            0x00517b03      .byte 0x00
            0x00517b04      .byte 0x00
            0x00517b05      .byte 0x00
            0x00517b06      .byte 0x00
            0x00517b07      .byte 0x01
            0x00517b08      .byte 0x00
            0x00517b09      .byte 0xff
            0x00517b0a      .byte 0x01
            0x00517b0b      .byte 0x02
            0x00517b0c      .byte 0x00
            0x00517b0d      .byte 0x00
            0x00517b0e      .byte 0x00
            0x00517b0f      .byte 0x00
            0x00517b10      .byte 0x00
            0x00517b11      .byte 0x00
            0x00517b12      .byte 0x14
            0x00517b13     .string "sten2_over_pic2_out$" ; len=20
            0x00517b27      .byte 0x20
            0x00517b28     .string "out$ out$ " ; len=10
            0x00517b32      .byte 0x00
            0x00517b33      .byte 0x00
            0x00517b34      .byte 0x00
            0x00517b35      .byte 0x00
            0x00517b36      .byte 0x00
            0x00517b37      .byte 0x00
            0x00517b38      .byte 0x00
            0x00517b39      .byte 0x00
            0x00517b3a      .byte 0x00
            0x00517b3b      .byte 0x00
            0x00517b3c      .byte 0x00
            0x00517b3d      .byte 0x00
            0x00517b3e      .byte 0x00
            0x00517b3f      .byte 0x00
            0x00517b40      .byte 0x00
            0x00517b41      .byte 0x00
            0x00517b42      .byte 0x00
            0x00517b43      .byte 0x00
            0x00517b44      .byte 0x00
            0x00517b45      .byte 0x01
            0x00517b46      .byte 0x00
            0x00517b47      .byte 0xff
            0x00517b48      .byte 0x00
            0x00517b49      .byte 0x00
            0x00517b4a     .string "!pic2_through_sten1_over_pic1_out$  unuse" ; len=41
            0x00517b73      .byte 0x00
            0x00517b74      .byte 0x01
            0x00517b75      .byte 0x00
            0x00517b76      .byte 0x00
            0x00517b77      .byte 0x01
            0x00517b78      .byte 0x00
            0x00517b79      .byte 0xff
            0x00517b7a      .byte 0x00
            0x00517b7b      .byte 0x00
            0x00517b7c      .byte 0x00
            0x00517b7d      .byte 0x00
            0x00517b7e      .byte 0x00
            0x00517b7f      .byte 0x00
            0x00517b80      .byte 0x02
            0x00517b81      .byte 0x00
            0x00517b82      .byte 0x13
            0x00517b83     .string "pic1_and_sten2_out$" ; len=19
            0x00517b96      .byte 0x20
            0x00517b97     .string " out$ out$ " ; len=11
            0x00517ba2      .byte 0x00
            0x00517ba3      .byte 0x00
            0x00517ba4      .byte 0x00
            0x00517ba5      .byte 0x00
            0x00517ba6      .byte 0x00
            0x00517ba7      .byte 0x00
            0x00517ba8      .byte 0x00
            0x00517ba9      .byte 0x00
            0x00517baa      .byte 0x00
            0x00517bab      .byte 0x00
            0x00517bac      .byte 0x01
            0x00517bad      .byte 0x00
            0x00517bae      .byte 0x00
            0x00517baf      .byte 0x00
            0x00517bb0      .byte 0x00
            0x00517bb1      .byte 0x00
            0x00517bb2      .byte 0x00
            0x00517bb3      .byte 0x00
            0x00517bb4      .byte 0x00
            0x00517bb5      .byte 0x00
            0x00517bb6      .byte 0x00
            0x00517bb7      .byte 0x00
            0x00517bb8      .byte 0x02
            0x00517bb9      .byte 0x00
            0x00517bba      .byte 0x13
            0x00517bbb     .string "sten_use_sten2_out$" ; len=19
            0x00517bce      .byte 0x20
            0x00517bcf     .string "ver_pic1_out$  unuse" ; len=20
            0x00517be3      .byte 0x00
            0x00517be4      .byte 0x00
            0x00517be5      .byte 0x00
            0x00517be6      .byte 0x00
            0x00517be7      .byte 0x00
            0x00517be8      .byte 0x00
            0x00517be9      .byte 0x00
            0x00517bea      .byte 0x00
            0x00517beb      .byte 0x00
            0x00517bec      .byte 0x01
            0x00517bed      .byte 0x00
            0x00517bee      .byte 0x00
            0x00517bef      .byte 0xff
            0x00517bf0      .byte 0x03
            0x00517bf1      .byte 0x00
            0x00517bf2      .byte 0x13
            0x00517bf3     .string "sten_add_paste_out$" ; len=19
            0x00517c06      .byte 0x20
            0x00517c07     .string " out$ out$ " ; len=11
            0x00517c12      .byte 0x00
            0x00517c13      .byte 0x00
            0x00517c14      .byte 0x00
            0x00517c15      .byte 0x00
            0x00517c16      .byte 0x00
            0x00517c17      .byte 0x00
            0x00517c18      .byte 0x00
            0x00517c19      .byte 0x00
            0x00517c1a      .byte 0x00
            0x00517c1b      .byte 0x00
            0x00517c1c      .byte 0x01
            0x00517c1d      .byte 0x00
            0x00517c1e      .byte 0x00
            0x00517c1f      .byte 0x02
            0x00517c20      .byte 0x00
            0x00517c21      .byte 0xb4
            0x00517c22      .byte 0x00
            0x00517c23      .byte 0x00
            0x00517c24      .byte 0x00
            0x00517c25      .byte 0x00
            0x00517c26      .byte 0x00
            0x00517c27      .byte 0x00
            0x00517c28      .byte 0x00
            0x00517c29      .byte 0x00
            0x00517c2a      .byte 0x17
            0x00517c2b     .string "pic1_and_fade_pic2_out$" ; len=23
            0x00517c42      .byte 0x20
            0x00517c43     .string "pic1_out$  unuse" ; len=16
            0x00517c53      .byte 0x00
            0x00517c54      .byte 0x01
            0x00517c55      .byte 0x00
            0x00517c56      .byte 0x00
            0x00517c57      .byte 0x02
            0x00517c58      .byte 0x00
            0x00517c59      .byte 0xb4
            0x00517c5a      .byte 0x00
            0x00517c5b      .byte 0x00
            0x00517c5c      .byte 0x00
            0x00517c5d      .byte 0x00
            0x00517c5e      .byte 0x00
            0x00517c5f      .byte 0x00
            0x00517c60      .byte 0x02
            0x00517c61      .byte 0x00
            0x00517c62      .byte 0x18
            0x00517c63     .string "pic1_and_fade_sten2_out$" ; len=24
            0x00517c7b      .byte 0x20
            0x00517c7c     .string " out$ " ; len=6
            0x00517c82      .byte 0x00
            0x00517c83      .byte 0x00
            0x00517c84      .byte 0x00
            0x00517c85      .byte 0x00
            0x00517c86      .byte 0x00
            0x00517c87      .byte 0x00
            0x00517c88      .byte 0x00
            0x00517c89      .byte 0x00
            0x00517c8a      .byte 0x00
            0x00517c8b      .byte 0x00
            0x00517c8c      .byte 0x00
            0x00517c8d      .byte 0x00
            0x00517c8e      .byte 0x00
            0x00517c8f      .byte 0x00
            0x00517c90      .byte 0x00
            0x00517c91      .byte 0x00
            0x00517c92      .byte 0x00
            0x00517c93      .byte 0x00
            0x00517c94      .byte 0x01
            0x00517c95      .byte 0x00
            0x00517c96      .byte 0x00
            0x00517c97      .byte 0xff
            0x00517c98      .byte 0x00
            0x00517c99      .byte 0x00
            0x00517c9a      .byte 0x14
            0x00517c9b     .string "sten_add_cursor_out$" ; len=20
            0x00517caf      .byte 0x20
            0x00517cb0     .string "t$ pic1_out$  unuse" ; len=19
            0x00517cc3      .byte 0x00
            0x00517cc4      .byte 0x00
            0x00517cc5      .byte 0x00
            0x00517cc6      .byte 0x01
            0x00517cc7      .byte 0x00
            0x00517cc8      .byte 0x00
            0x00517cc9      .byte 0x00
            0x00517cca      .byte 0x03
            0x00517ccb      .byte 0x00
            0x00517ccc      .byte 0x01
            0x00517ccd      .byte 0x00
            0x00517cce      .byte 0x00
            0x00517ccf      .byte 0xff
            0x00517cd0      .byte 0x00
            0x00517cd1      .byte 0x00
            0x00517cd2      .byte 0x17
            0x00517cd3     .string "sten_remove_cursor_out$" ; len=23
            0x00517cea      .byte 0x20
            0x00517ceb     .string "  out$ " ; len=7
            0x00517cf2      .byte 0x00
            0x00517cf3      .byte 0x00
            0x00517cf4      .byte 0x00
            0x00517cf5      .byte 0x00
            0x00517cf6      .byte 0x00
            0x00517cf7      .byte 0x00
            0x00517cf8      .byte 0x00
            0x00517cf9      .byte 0x00
            0x00517cfa      .byte 0x00
            0x00517cfb      .byte 0x00
            0x00517cfc      .byte 0x00
            0x00517cfd      .byte 0x00
            0x00517cfe      .byte 0x01
            0x00517cff      .byte 0x00
            0x00517d00      .byte 0x00
            0x00517d01      .byte 0x00
            0x00517d02      .byte 0x00
            0x00517d03      .byte 0x00
            0x00517d04      .byte 0x00
            0x00517d05      .byte 0x01
            0x00517d06      .byte 0x00
            0x00517d07      .byte 0xff
            0x00517d08      .byte 0x00
            0x00517d09      .byte 0x00
            0x00517d0a     .string "&adam_pic2_through_sten1_over_pic1_out$ e" ; len=41
            0x00517d33      .byte 0x00
            0x00517d34      .byte 0x00
            0x00517d35      .byte 0x00
            0x00517d36      .byte 0x01
            0x00517d37      .byte 0x00
            0x00517d38      .byte 0x00
            0x00517d39      .byte 0x00
            0x00517d3a      .byte 0x03
            0x00517d3b      .byte 0x00
            0x00517d3c      .byte 0x00
            0x00517d3d      .byte 0x01
            0x00517d3e      .byte 0x00
            0x00517d3f      .byte 0xff
            0x00517d40      .byte 0x00
            0x00517d41      .byte 0x00
            0x00517d42      .byte 0x19
            0x00517d43     .string "adam_sten1_over_pic2_out$" ; len=25
            0x00517d5c      .byte 0x20
            0x00517d5d     .string "out$ " ; len=5
            0x00517d62      .byte 0x00
            0x00517d63      .byte 0x00
            0x00517d64      .byte 0x00
            0x00517d65      .byte 0x00
            0x00517d66      .byte 0x00
            0x00517d67      .byte 0x00
            0x00517d68      .byte 0x00
            0x00517d69      .byte 0x00
            0x00517d6a      .byte 0x00
            0x00517d6b      .byte 0x00
            0x00517d6c      .byte 0x01
            0x00517d6d      .byte 0x00
            0x00517d6e      .byte 0x01
            0x00517d6f      .byte 0x00
            0x00517d70      .byte 0x00
            0x00517d71      .byte 0x00
            0x00517d72      .byte 0x00
            0x00517d73      .byte 0x00
            0x00517d74      .byte 0x01
            0x00517d75      .byte 0x01
            0x00517d76      .byte 0x00
            0x00517d77      .byte 0xff
            0x00517d78      .byte 0x02
            0x00517d79      .byte 0x00
            0x00517d7a     .string "$adam_pic1_over_matte_with_sten1_out$ $ e" ; len=41
            0x00517da3      .byte 0x00
            0x00517da4      .byte 0x01
            0x00517da5      .byte 0x00
            0x00517da6      .byte 0x00
            0x00517da7      .byte 0x00
            0x00517da8      .byte 0x00
            0x00517da9      .byte 0x00
            0x00517daa      .byte 0x00
            0x00517dab      .byte 0x00
            0x00517dac      .byte 0x01
            0x00517dad      .byte 0x01
            0x00517dae      .byte 0x00
            0x00517daf      .byte 0xff
            0x00517db0      .byte 0x02
            0x00517db1      .byte 0x00
            0x00517db2     .string "(adam_pic1_over_matte_with_inv_sten1_out$" ; len=41
            0x00517ddb      .byte 0x00
            0x00517ddc      .byte 0x01
            0x00517ddd      .byte 0x00
            0x00517dde      .byte 0x00
            0x00517ddf      .byte 0x00
            0x00517de0      .byte 0x00
            0x00517de1      .byte 0x00
            0x00517de2      .byte 0x00
            0x00517de3      .byte 0x00
            0x00517de4      .byte 0x01
            0x00517de5      .byte 0x01
            0x00517de6      .byte 0x00
            0x00517de7      .byte 0xc8
            0x00517de8      .byte 0x03
            0x00517de9      .byte 0x00
            0x00517dea      .byte 0x1d
            0x00517deb     .string "adam_pic1_disp_inv_sten1_out$" ; len=29
            0x00517e08      .byte 0x20
            0x00517e09     .string "1_out$ $ e" ; len=10
            0x00517e13      .byte 0x00
            0x00517e14      .byte 0x01
            0x00517e15      .byte 0x00
            0x00517e16      .byte 0x01
            0x00517e17      .byte 0x00
            0x00517e18      .byte 0x00
            0x00517e19      .byte 0x00
            0x00517e1a      .byte 0x00
            0x00517e1b      .byte 0x00
            0x00517e1c      .byte 0x01
            0x00517e1d      .byte 0x01
            0x00517e1e      .byte 0x00
            0x00517e1f      .byte 0xff
            0x00517e20      .byte 0x01
            0x00517e21      .byte 0x03
            0x00517e22      .byte 0x10
            0x00517e23     .string "display_key_out$" ; len=16
            0x00517e33      .byte 0x20
            0x00517e34     .string "tte_with_inv_sten1_out$" ; len=23
            0x00517e4b      .byte 0x00
            0x00517e4c      .byte 0x01
            0x00517e4d      .byte 0x00
            0x00517e4e      .byte 0x00
            0x00517e4f      .byte 0x00
            0x00517e50      .byte 0x00
            0x00517e51      .byte 0x00
            0x00517e52      .byte 0x00
            0x00517e53      .byte 0x00
            0x00517e54      .byte 0x01
            0x00517e55      .byte 0x01
            0x00517e56      .byte 0x00
            0x00517e57      .byte 0xff
            0x00517e58      .byte 0x01
            0x00517e59      .byte 0x03
            0x00517e5a      .byte 0x14
            0x00517e5b     .string "display_key_inv_out$" ; len=20
            0x00517e6f      .byte 0x20
            0x00517e70     .string "en1_out$ 1_out$ $ e" ; len=19
            0x00517e83      .byte 0x00
            0x00517e84      .byte 0x01
            0x00517e85      .byte 0x00
            0x00517e86      .byte 0x00
            0x00517e87      .byte 0x02
            0x00517e88      .byte 0x00
            0x00517e89      .byte 0x00
            0x00517e8a      .byte 0x00
            0x00517e8b      .byte 0x00
            0x00517e8c      .byte 0x00
            0x00517e8d      .byte 0x01
            0x00517e8e      .byte 0x00
            0x00517e8f      .byte 0xff
            0x00517e90      .byte 0x00
            0x00517e91      .byte 0x00
            0x00517e92      .byte 0x12
            0x00517e93     .string "pic1_pic2_mix_out$" ; len=18
            0x00517ea5      .byte 0x20
            0x00517ea6     .string "e_with_inv_sten1_out$" ; len=21
            0x00517ebb      .byte 0x00
            0x00517ebc      .byte 0x00
            0x00517ebd      .byte 0x00
            0x00517ebe      .byte 0x00
            0x00517ebf      .byte 0x01
            0x00517ec0      .byte 0x00
            0x00517ec1      .byte 0xff
            0x00517ec2      .byte 0x00
            0x00517ec3      .byte 0x00
            0x00517ec4      .byte 0x00
            0x00517ec5      .byte 0x00
            0x00517ec6      .byte 0x00
            0x00517ec7      .byte 0xff
            0x00517ec8      .byte 0x03
            0x00517ec9      .byte 0x00
            0x00517eca      .byte 0x14
            0x00517ecb     .string "pic1_disp_sten2_out$" ; len=20
            0x00517edf      .byte 0x20
            0x00517ee0     .string "en1_out$ 1_out$ $ e" ; len=19
            0x00517ef3      .byte 0x00
            0x00517ef4      .byte 0x00
            0x00517ef5      .byte 0x00
            0x00517ef6      .byte 0x00
            0x00517ef7      .byte 0x01
            0x00517ef8      .byte 0x00
            0x00517ef9      .byte 0xff
            0x00517efa      .byte 0x00
            0x00517efb      .byte 0x00
            0x00517efc      .byte 0x01
            0x00517efd      .byte 0x00
            0x00517efe      .byte 0x00
            0x00517eff      .byte 0xff
            0x00517f00      .byte 0x03
            0x00517f01      .byte 0x00
            0x00517f02      .byte 0x18
            0x00517f03     .string "pic1_disp_inv_sten2_out$" ; len=24
            0x00517f1b      .byte 0x20
            0x00517f1c     .string "_inv_sten1_out$" ; len=15
            0x00517f2b      .byte 0x00
            0x00517f2c      .byte 0x01
            0x00517f2d      .byte 0x00
            0x00517f2e      .byte 0x01
            0x00517f2f      .byte 0x01
            0x00517f30      .byte 0x00
            0x00517f31      .byte 0xff
            0x00517f32      .byte 0x01
            0x00517f33      .byte 0x02
            0x00517f34      .byte 0x00
            0x00517f35      .byte 0x00
            0x00517f36      .byte 0x00
            0x00517f37      .byte 0xff
            0x00517f38      .byte 0x01
            0x00517f39      .byte 0x01
            0x00517f3a      .byte 0x19
            0x00517f3b     .string "sten2_black_on_white_out$" ; len=25
            0x00517f54      .byte 0x20
            0x00517f55     .string "ut$ 1_out$ $ e" ; len=14
            0x00517f63      .byte 0x00
            0x00517f64      .byte 0x01
            0x00517f65      .byte 0x00
            0x00517f66      .byte 0x01
            0x00517f67      .byte 0x01
            0x00517f68      .byte 0x00
            0x00517f69      .byte 0xff
            0x00517f6a      .byte 0x01
            0x00517f6b      .byte 0x01
            0x00517f6c      .byte 0x00
            0x00517f6d      .byte 0x00
            0x00517f6e      .byte 0x00
            0x00517f6f      .byte 0xff
            0x00517f70      .byte 0x01
            0x00517f71      .byte 0x02
            0x00517f72      .byte 0x19
            0x00517f73     .string "sten2_white_on_black_out$" ; len=25
            0x00517f8c      .byte 0x20
            0x00517f8d     .string "inv_sten1_out$" ; len=14
            0x00517f9b      .byte 0x00
            0x00517f9c      .byte 0x01
            0x00517f9d      .byte 0x00
            0x00517f9e      .byte 0x01
            0x00517f9f      .byte 0x01
            0x00517fa0      .byte 0x00
            0x00517fa1      .byte 0xff
            0x00517fa2      .byte 0x01
            0x00517fa3      .byte 0x03
            0x00517fa4      .byte 0x00
            0x00517fa5      .byte 0x00
            0x00517fa6      .byte 0x00
            0x00517fa7      .byte 0x00
            0x00517fa8      .byte 0x00
            0x00517fa9      .byte 0x00
            0x00517faa      .byte 0x11
            0x00517fab     .string "display_key2_out$" ; len=17
            0x00517fbc      .byte 0x20
            0x00517fbd     .string "te_out$ ut$ 1_out$ $ e" ; len=22
            0x00517fd3      .byte 0x00
            0x00517fd4      .byte 0x01
            0x00517fd5      .byte 0x00
            0x00517fd6      .byte 0x01
            0x00517fd7      .byte 0x01
            0x00517fd8      .byte 0x00
            0x00517fd9      .byte 0xff
            0x00517fda      .byte 0x01
            0x00517fdb      .byte 0x03
            0x00517fdc      .byte 0x01
            0x00517fdd      .byte 0x00
            0x00517fde      .byte 0x00
            0x00517fdf      .byte 0x00
            0x00517fe0      .byte 0x00
            0x00517fe1      .byte 0x00
            0x00517fe2      .byte 0x15
            0x00517fe3     .string "display_key2_inv_out$" ; len=21
            0x00517ff8      .byte 0x20
            0x00517ff9     .string "ut$ inv_sten1_out$" ; len=18
            0x0051800b      .byte 0x00
            0x0051800c      .byte 0x01
            0x0051800d      .byte 0x00
            0x0051800e      .byte 0x00
            0x0051800f      .byte 0x01
            0x00518010      .byte 0x00
            0x00518011      .byte 0xff
            0x00518012      .byte 0x00
            0x00518013      .byte 0x00
            0x00518014      .byte 0x01
            0x00518015      .byte 0x00
            0x00518016      .byte 0x00
            0x00518017      .byte 0x00
            0x00518018      .byte 0x00
            0x00518019      .byte 0x00
            0x0051801a      .byte 0x1d
            0x0051801b     .string "pic2_sten2_inv_over_pic1_out$" ; len=29
            0x00518038      .byte 0x20
            0x00518039     .string "1_out$ $ e" ; len=10
            0x00518043      .byte 0x00
            0x00518044      .byte 0x01
            0x00518045      .byte 0x00
            0x00518046      .byte 0x00
            0x00518047      .byte 0x00
            0x00518048      .byte 0x00
            0x00518049      .byte 0xff
            0x0051804a      .byte 0x00
            0x0051804b      .byte 0x00
            0x0051804c      .byte 0x01
            0x0051804d      .byte 0x00
            0x0051804e      .byte 0x00
            0x0051804f      .byte 0x00
            0x00518050      .byte 0x00
            0x00518051      .byte 0x00
            0x00518052     .string "'pic2_sten2_inv_over_pic1_use_sten1_out$ " ; len=41
            0x0051807b      .byte 0x00
            0x0051807c      .byte 0x01
            0x0051807d      .byte 0x00
            0x0051807e      .byte 0x00
            0x0051807f      .byte 0x01
            0x00518080      .byte 0x00
            0x00518081      .byte 0xff
            0x00518082      .byte 0x00
            0x00518083      .byte 0x00
            0x00518084      .byte 0x00
            0x00518085      .byte 0x00
            0x00518086      .byte 0x00
            0x00518087      .byte 0x00
            0x00518088      .byte 0x00
            0x00518089      .byte 0x00
            0x0051808a      .byte 0x19
            0x0051808b     .string "pic2_sten2_over_pic1_out$" ; len=25
            0x005180a4      .byte 0x20
            0x005180a5     .string "ut$ 1_out$ $ e" ; len=14
            0x005180b3      .byte 0x00
            0x005180b4      .byte 0x01
            0x005180b5      .byte 0x00
            0x005180b6      .byte 0x00
            0x005180b7      .byte 0x00
            0x005180b8      .byte 0x00
            0x005180b9      .byte 0xff
            0x005180ba      .byte 0x00
            0x005180bb      .byte 0x00
            0x005180bc      .byte 0x00
            0x005180bd      .byte 0x00
            0x005180be      .byte 0x00
            0x005180bf      .byte 0x00
            0x005180c0      .byte 0x00
            0x005180c1      .byte 0x00
            0x005180c2     .string "#pic2_sten2_over_pic1_use_sten1_out$ ut$ " ; len=41
            0x005180eb      .byte 0x00
            0x005180ec      .byte 0x0d
            0x005180ed     .string "Get_cmd. pal " ; len=13
            0x005180fa      .byte 0x07
            0x005180fb     .string ", wind " ; len=7
            0x00518102      .byte 0x07
            0x00518103     .string ", norm " ; len=7
            0x0051810a      .byte 0x0c
            0x0051810b     .string ", zoom frig " ; len=12
            0x00518117      .byte 0x2d
            0x00518118     .string "Combiner windowed (B=pal,P=pal,W=wind,N=norm)" ; len=45
            0x00518145      .byte 0x24
            0x00518146     .string "Combiner (B=pal,P=pal,W=norm,N=norm)" ; len=36
            0x0051816a      .byte 0x06
            0x0051816b     .string ", cmd " ; len=6
            0x00518171      .byte 0x00
            0x00518172      .byte 0x14
            0x00518173      .byte 0x0f
            0x00518174     .string "do_set_scroll. " ; len=15
            0x00518183      .byte 0x02
            0x00518184      .byte 0x2c
            0x00518185      .byte 0x20
            0x00518186      .byte 0x02
            0x00518187      .byte 0x2c
            0x00518188      .byte 0x20
            0x00518189      .byte 0x02
            0x0051818a      .byte 0x2c
            0x0051818b      .byte 0x20
            0x0051818c      .byte 0x02
            0x0051818d      .byte 0x2c
            0x0051818e      .byte 0x20
            0x0051818f      .byte 0x0b
            0x00518190     .string "set_scroll " ; len=11
            0x0051819b      .byte 0x02
            0x0051819c      .byte 0x2c
            0x0051819d      .byte 0x20
            0x0051819e      .byte 0x06
            0x0051819f      .byte 0x00
            0x005181a0      .byte 0x05
            0x005181a1     .string "scr 1" ; len=5
            0x005181a6      .byte 0x0a
            0x005181a7      .byte 0x00
            0x005181a8      .byte 0x05
            0x005181a9     .string "scr 2" ; len=5
            0x005181ae      .byte 0x0d
            0x005181af     .string "do_set_zoom. " ; len=13
            0x005181bc      .byte 0x02
            0x005181bd      .byte 0x2c
            0x005181be      .byte 0x20
            0x005181bf      .byte 0x0d
            0x005181c0     .string ", scr/offset " ; len=13
            0x005181cd      .byte 0x0a
            0x005181ce     .string ", sub scr " ; len=10
            0x005181d8      .byte 0x04
            0x005181d9      .byte 0x7a
            0x005181da      .byte 0x6f
            0x005181db      .byte 0x6f
            0x005181dc      .byte 0x6d
            0x005181dd      .byte 0x09
            0x005181de     .string "set_zoom " ; len=9
            0x005181e7      .byte 0x02
            0x005181e8      .byte 0x2c
            0x005181e9      .byte 0x20
            0x005181ea      .byte 0x0b
            0x005181eb     .string ", zoom_scr " ; len=11
            0x005181f6      .byte 0x0f
            0x005181f7     .string ", zoom_sub_scr " ; len=15
            0x00518206      .byte 0x0e
            0x00518207     .string "set_zoom bodge" ; len=14
            0x00518215      .byte 0x00
            0x00518216      .byte 0x06
            0x00518217      .byte 0x00
            0x00518218      .byte 0x0a
            0x00518219      .byte 0x00
            0x0051821a      .byte 0x11
            0x0051821b     .string "set_video_crops. " ; len=17
            0x0051822c      .byte 0x02
            0x0051822d      .byte 0x2c
            0x0051822e      .byte 0x20
            0x0051822f      .byte 0x02
            0x00518230      .byte 0x2c
            0x00518231      .byte 0x20
            0x00518232      .byte 0x0c
            0x00518233     .string "set_window. " ; len=12
            0x0051823f      .byte 0x02
            0x00518240      .byte 0x2c
            0x00518241      .byte 0x20
            0x00518242      .byte 0x0a
            0x00518243     .string "window_off" ; len=10
            0x0051824d      .byte 0x0c
            0x0051824e     .string "set_palette " ; len=12
            0x0051825a      .byte 0x26
            0x0051825b      .byte 0x00
            0x0051825c      .byte 0x26
            0x0051825d      .byte 0x05
            0x0051825e     .string "pal 1" ; len=5
            0x00518263      .byte 0x05
            0x00518264     .string "pal 2" ; len=5
            0x00518269      .byte 0x08
            0x0051826a     .string "set_out " ; len=8
            0x00518272      .byte 0x02
            0x00518273      .byte 0x2c
            0x00518274      .byte 0x20
            0x00518275      .byte 0x00
            0x00518276      .byte 0x01
            0x00518277      .byte 0x00
            0x00518278     .string "3Shouldn't be doing key select for twin output card." ; len=52
            0x005182ac      .byte 0x01
            0x005182ad      .byte 0x00
            0x005182ae      .byte 0x08
            0x005182af     .string "sel_key " ; len=8
            0x005182b7      .byte 0x0c
            0x005182b8     .string "restore_key " ; len=12
            0x005182c4      .byte 0x00
            0x005182c5      .byte 0x00
            0x005182c6      .byte 0x00
            0x005182c7      .byte 0x00
            0x005182c8      .byte 0x00
            0x005182c9      .byte 0x00
            0x005182ca      .byte 0x00
            0x005182cb      .byte 0x00
            0x005182cc      .byte 0x00
            0x005182cd      .byte 0x00
            0x005182ce      .byte 0x00
            0x005182cf      .byte 0x00
            0x005182d0      .byte 0x00
            0x005182d1      .byte 0x00
            0x005182d2      .byte 0x00
            0x005182d3      .byte 0x00
            0x005182d4      .byte 0x01
            0x005182d5      .byte 0x00
            0x005182d6      .byte 0x01
            0x005182d7      .byte 0x00
            0x005182d8      .byte 0x01
            0x005182d9      .byte 0x00
            0x005182da      .byte 0x01
            0x005182db      .byte 0x00
            0x005182dc      .byte 0x00
            0x005182dd      .byte 0x00
            0x005182de      .byte 0x00
            0x005182df      .byte 0x00
            0x005182e0      .byte 0x00
            0x005182e1      .byte 0x00
            0x005182e2      .byte 0x00
            0x005182e3      .byte 0x00
            0x005182e4      .byte 0x00
            0x005182e5      .byte 0x00
            0x005182e6      .byte 0x00
            0x005182e7      .byte 0x80
            0x005182e8      .byte 0x00
            0x005182e9      .byte 0x00
            0x005182ea      .byte 0x00
            0x005182eb      .byte 0x00
            0x005182ec      .byte 0x00
            0x005182ed      .byte 0x00
            0x005182ee      .byte 0x00
            0x005182ef      .byte 0x00
            0x005182f0      .byte 0x00
            0x005182f1      .byte 0x00
            0x005182f2      .byte 0x00
            0x005182f3      .byte 0x00
            0x005182f4      .byte 0x00
            0x005182f5      .byte 0x00
            0x005182f6      .byte 0x00
            0x005182f7      .byte 0x00
            ; CALL XREF from OUTCOM.setup_video_com @ 0x5183a0
 110: OUTCOM.get_cmd (int32_t arg_10h);
           ; var int32_t var_ch @ a6-0xc
           ; arg int32_t arg_10h @ a6+0x10
           0x005182f8      4e56ffe4       link.w a6, 0xffe4
           0x005182fc      bfd5           cmpa.l (a5), a7
       < 0x005182fe      6206           bhi.b 0x518306
          0x00518300      44fc0002       move.w 0x2, ccr
          0x00518304      4e76           trapv
       > 0x00518306      defc0010       adda.w 0x10, a7
           0x0051830a      48e780c0       movem.l d0/a0-a1, -(a7)
           0x0051830e      41eefff8       lea.l -0x8(a6), a0
           0x00518312      43eefffa       lea.l -0x6(a6), a1
           0x00518316      3d6e0010fff4   move.w 0x10(a6), -0xc(a6)
           0x0051831c      3d6e0010fff6   move.w 0x10(a6), -0xa(a6)
           0x00518322      4a2e000c       tst.b 0xc(a6)
       < 0x00518326      6706           beq.b 0x51832e
          0x00518328      30ae000a       move.w 0xa(a6), (a0)
      < 0x0051832c      6004           bra.b 0x518332
      > 0x0051832e      30ae0008       move.w 0x8(a6), (a0)
      > 0x00518332      32ae0008       move.w 0x8(a6), (a1)
           0x00518336      4a2e000e       tst.b 0xe(a6)
       < 0x0051833a      6718           beq.b 0x518354
          0x0051833c      4280           clr.l d0
          0x0051833e      3010           move.w (a0), d0
          0x00518340      008000008000   ori.l 0x8000, d0
          0x00518346      3080           move.w d0, (a0)
          0x00518348      4280           clr.l d0
          0x0051834a      3011           move.w (a1), d0
          0x0051834c      008000008000   ori.l 0x8000, d0
          0x00518352      3280           move.w d0, (a1)
       > 0x00518354      2d6efff40012   move.l -0xc(a6), 0x12(a6)
           0x0051835a      2d500016       move.l (a0), 0x16(a6)
           0x0051835e      4cdf0301       movem.l (a7)+, d0/a0-a1
           0x00518362      4e5e           unlk a6
           0x00518364      4e75           rts
            ; XREFS: CALL 0x00518a18  CALL 0x00518c24  CALL 0x00518c54  
            ; XREFS: CALL 0x00518d30  CALL 0x00518f24  CALL 0x005192c2  
 190: OUTCOM.setup_video_com ();
           0x00518366      4e56ffcc       link.w a6, 0xffcc
           0x0051836a      bfd5           cmpa.l (a5), a7
       < 0x0051836c      6206           bhi.b 0x518374
          0x0051836e      44fc0002       move.w 0x2, ccr
          0x00518372      4e76           trapv
       > 0x00518374      defc002a       adda.w 0x2a, a7
           0x00518378      48e7f100       movem.l d0-d3/d7, -(a7)
           0x0051837c      7403           moveq 0x3, d2
           0x0051837e      7604           moveq 0x4, d3
           0x00518380      514f           subq.w 0x8, a7
           0x00518382      3f390083e69a   move.w 0x83e69a, -(a7)
           0x00518388      1f390083e696   move.b 0x83e696, -(a7)
           0x0051838e      1f390083e697   move.b 0x83e697, -(a7)
           0x00518394      3f390083e69c   move.w 0x83e69c, -(a7)
           0x0051839a      3f390083e698   move.w 0x83e698, -(a7)
           0x005183a0      4ebaff56       jsr OUTCOM.get_cmd(pc)
           0x005183a4      defc000a       adda.w 0xa, a7
           0x005183a8      2d5ffff8       move.l (a7)+, -0x8(a6)
           0x005183ac      2d5ffffc       move.l (a7)+, -0x4(a6)
           0x005183b0      4a390083e6f0   tst.b 0x83e6f0
       < 0x005183b6      6738           beq.b 0x5183f0
          0x005183b8      7e01           moveq 0x1, d7
      > 0x005183ba      4879fff84006   pea.l 0xfff84006
         0x005183c0      02870000ffff   andi.l 0xffff, d7
         0x005183c6      2007           move.l d7, d0
         0x005183c8      5380           subq.l 0x1, d0
         0x005183ca      b082           cmp.l d2, d0
     < 0x005183cc      6302           bls.b 0x5183d0
        0x005183ce      4e4f           trap 0xf
     > 0x005183d0      e380           asl.l 0x1, d0
         0x005183d2      4281           clr.l d1
         0x005183d4      323608f8       move.w -0x8(a6, d0.l), d1
         0x005183d8      008100001000   ori.l 0x1000, d1
         0x005183de      3f01           move.w d1, -(a7)
         0x005183e0      4eb900523d90   jsr BRUSHCOM.data_bus
         0x005183e6      5c4f           addq.w 0x6, a7
         0x005183e8      5247           addq.w 0x1, d7
         0x005183ea      be43           cmp.w d3, d7
      < 0x005183ec      63cc           bls.b 0x5183ba
      < 0x005183ee      602c           bra.b 0x51841c
      > 0x005183f0      7e01           moveq 0x1, d7
      > 0x005183f2      4879fff84006   pea.l 0xfff84006
         0x005183f8      02870000ffff   andi.l 0xffff, d7
         0x005183fe      2007           move.l d7, d0
         0x00518400      5380           subq.l 0x1, d0
         0x00518402      b082           cmp.l d2, d0
     < 0x00518404      6302           bls.b 0x518408
        0x00518406      4e4f           trap 0xf
     > 0x00518408      e380           asl.l 0x1, d0
         0x0051840a      3f3608f8       move.w -0x8(a6, d0.l), -(a7)
         0x0051840e      4eb900523d90   jsr BRUSHCOM.data_bus
         0x00518414      5c4f           addq.w 0x6, a7
         0x00518416      5247           addq.w 0x1, d7
         0x00518418      be43           cmp.w d3, d7
      < 0x0051841a      63d6           bls.b 0x5183f2
      > 0x0051841c      4cdf008f       movem.l (a7)+, d0-d3/d7
           0x00518420      4e5e           unlk a6
           0x00518422      4e75           rts
            ; CALL XREFS from OUTCOM.set_scroll @ 0x518790, 0x5187d8
            ; CALL XREF from OUTCOM.do_set_zoom @ 0x518888
            ; CALL XREFS from OUTCOM @ +0x186c, +0x18a2
 334: OUTCOM.do_set_scroll ();
           ; var int32_t var_2h @ a7+0x2
           0x00518424      4e56ffa6       link.w a6, 0xffa6
           0x00518428      bfd5           cmpa.l (a5), a7
       < 0x0051842a      6206           bhi.b 0x518432
          0x0051842c      44fc0002       move.w 0x2, ccr
          0x00518430      4e76           trapv
       > 0x00518432      defc004a       adda.w 0x4a, a7
           0x00518436      48e7fff8       movem.l d0-d7/a0-a4, -(a7)
           0x0051843a      43f90083e6e8   lea.l 0x83e6e8, a1
           0x00518440      45f900523d90   lea.l BRUSHCOM.data_bus, a2
           0x00518446      47eefffc       lea.l -0x4(a6), a3
           0x0051844a      49eefffe       lea.l -0x2(a6), a4
           0x0051844e      4a390083e6f0   tst.b 0x83e6f0
       < 0x00518454      6726           beq.b 0x51847c
          0x00518456      7e00           moveq 0x0, d7
          0x00518458      102e0118       move.b 0x118(a6), d0
          0x0051845c      0c000002       cmpi.b 0x2, d0
      < 0x00518460      6608           bne.b 0x51846a
         0x00518462      1211           move.b (a1), d1
         0x00518464      0c010002       cmpi.b 0x2, d1
     < 0x00518468      670e           beq.b 0x518478
     > 0x0051846a      0c000003       cmpi.b 0x3, d0
     < 0x0051846e      660a           bne.b 0x51847a
        0x00518470      1011           move.b (a1), d0
        0x00518472      0c000004       cmpi.b 0x4, d0
    < 0x00518476      6602           bne.b 0x51847a
    > 0x00518478      5207           addq.b 0x1, d7
    > 0x0051847a      600e           bra.b 0x51848a
      > 0x0051847c      7e00           moveq 0x0, d7
          0x0051847e      1011           move.b (a1), d0
          0x00518480      4880           ext.w d0
          0x00518482      013afcee       btst.l d0, 0x518172(pc)
      < 0x00518486      6702           beq.b 0x51848a
         0x00518488      5207           addq.b 0x1, d7
     > 0x0051848a      102e0118       move.b 0x118(a6), d0
           0x0051848e      4880           ext.w d0
           0x00518490      3200           move.w d0, d1
           0x00518492      5541           subq.w 0x2, d1
           0x00518494      43bc0003       chk.w 0x3, d1
           0x00518498      c3fc0012       muls.w 0x12, d1
           0x0051849c      41f90083e686   lea.l 0x83e686, a0
           0x005184a2      26b0101a       move.l 0x1a(a0, d1.w), (a3)
           0x005184a6      0c000002       cmpi.b 0x2, d0
       < 0x005184aa      6612           bne.b 0x5184be
          0x005184ac      1f3c0002       move.b 0x2, -(a7)
          0x005184b0      4853           pea.l (a3)
          0x005184b2      4854           pea.l (a4)
          0x005184b4      4eb90051f41c   jsr BRUSHCOM.b_ms_ram_bank_s
          0x005184ba      defc000a       adda.w 0xa, a7
       > 0x005184be      4a07           tst.b d7
       < 0x005184c0      6742           beq.b 0x518504
          0x005184c2      34301028       move.w 0x28(a0, d1.w), d2
          0x005184c6      c5fc0080       muls.w 0x80, d2
          0x005184ca      36301020       move.w 0x20(a0, d1.w), d3
          0x005184ce      48c3           ext.l d3
          0x005184d0      d682           add.l d2, d3
          0x005184d2      2e03           move.l d3, d7
          0x005184d4      3414           move.w (a4), d2
          0x005184d6      48c2           ext.l d2
          0x005184d8      36301024       move.w 0x24(a0, d1.w), d3
          0x005184dc      48c3           ext.l d3
          0x005184de      d682           add.l d2, d3
          0x005184e0      2f03           move.l d3, -(a7)
          0x005184e2      2807           move.l d7, d4
          0x005184e4      263c00000100   move.l 0x100, d3
          0x005184ea      4eb900406b50   jsr fcn.00406b50
          0x005184f0      2417           move.l (a7), d2
          0x005184f2      d882           add.l d2, d4
          0x005184f4      584f           addq.w 0x4, a7
          0x005184f6      3a04           move.w d4, d5
          0x005184f8      2407           move.l d7, d2
          0x005184fa      0282000000ff   andi.l 0xff, d2
          0x00518500      3c02           move.w d2, d6
      < 0x00518502      6012           bra.b 0x518516
      > 0x00518504      3c301020       move.w 0x20(a0, d1.w), d6
          0x00518508      3414           move.w (a4), d2
          0x0051850a      48c2           ext.l d2
          0x0051850c      36301024       move.w 0x24(a0, d1.w), d3
          0x00518510      48c3           ext.l d3
          0x00518512      d682           add.l d2, d3
          0x00518514      3a03           move.w d3, d5
      > 0x00518516      3413           move.w (a3), d2
           0x00518518      48c2           ext.l d2
           0x0051851a      36301022       move.w 0x22(a0, d1.w), d3
           0x0051851e      48c3           ext.l d3
           0x00518520      d682           add.l d2, d3
           0x00518522      3e03           move.w d3, d7
           0x00518524      206e0114       movea.l 0x114(a6), a0
           0x00518528      4850           pea.l (a0)
           0x0051852a      3f06           move.w d6, -(a7)
           0x0051852c      4e92           jsr (a2)                    ; fcn.00000009+0x2
           0x0051852e      5c4f           addq.w 0x6, a7
           0x00518530      48c7           ext.l d7
           0x00518532      2f07           move.l d7, -(a7)
           0x00518534      206e0110       movea.l 0x110(a6), a0
           0x00518538      4850           pea.l (a0)
           0x0051853a      3f2f0006       move.w 0x6(a7), -(a7)
           0x0051853e      4e92           jsr (a2)                    ; fcn.00000009+0x2
           0x00518540      5c4f           addq.w 0x6, a7
           0x00518542      206e010c       movea.l 0x10c(a6), a0
           0x00518546      4850           pea.l (a0)
           0x00518548      3f2f0006       move.w 0x6(a7), -(a7)
           0x0051854c      4e92           jsr (a2)                    ; fcn.00000009+0x2
           0x0051854e      defc000a       adda.w 0xa, a7
           0x00518552      206e0108       movea.l 0x108(a6), a0
           0x00518556      4850           pea.l (a0)
           0x00518558      48c5           ext.l d5
           0x0051855a      554f           subq.w 0x2, a7
           0x0051855c      2f05           move.l d5, -(a7)
           0x0051855e      3f6f00020004   move.w 0x2(a7), 0x4(a7)
           0x00518564      584f           addq.w 0x4, a7
           0x00518566      4e92           jsr (a2)                    ; fcn.00000009+0x2
           0x00518568      5c4f           addq.w 0x6, a7
           0x0051856a      4cdf1fff       movem.l (a7)+, d0-d7/a0-a4
           0x0051856e      4e5e           unlk a6
           0x00518570      4e75           rts
            ; CALL XREFS from OUTCOM.set_out @ 0x518e66, 0x518ec6
 324: OUTCOM.alter_cmd ();
           0x00518572      4e56ffbe       link.w a6, 0xffbe
           0x00518576      bfd5           cmpa.l (a5), a7
       < 0x00518578      6206           bhi.b 0x518580
          0x0051857a      44fc0002       move.w 0x2, ccr
          0x0051857e      4e76           trapv
       > 0x00518580      defc0042       adda.w 0x42, a7
           0x00518584      48e7fcf8       movem.l d0-d5/a0-a4, -(a7)
           0x00518588      47ee0018       lea.l 0x18(a6), a3
           0x0051858c      49ee0014       lea.l 0x14(a6), a4
           0x00518590      263c0000ffff   move.l 0xffff, d3
           0x00518596      7802           moveq 0x2, d4
           0x00518598      7a03           moveq 0x3, d5
           0x0051859a      206e0010       movea.l 0x10(a6), a0
           0x0051859e      4a10           tst.b (a0)
       < 0x005185a0      6710           beq.b 0x5185b2
          0x005185a2      2253           movea.l (a3), a1
          0x005185a4      4280           clr.l d0
          0x005185a6      3011           move.w (a1), d0
          0x005185a8      4281           clr.l d1
          0x005185aa      322e000e       move.w 0xe(a6), d1
          0x005185ae      8280           or.l d0, d1
          0x005185b0      3281           move.w d1, (a1)
       > 0x005185b2      10280001       move.b 0x1(a0), d0
           0x005185b6      b004           cmp.b d4, d0
       < 0x005185b8      6608           bne.b 0x5185c2
          0x005185ba      31790083e6ec.  move.w 0x83e6ec, 0x2(a0)
       > 0x005185c2      4a280004       tst.b 0x4(a0)
       < 0x005185c6      6650           bne.b 0x518618
          0x005185c8      4a280001       tst.b 0x1(a0)
      < 0x005185cc      67000082       beq.w 0x518650
         0x005185d0      30280002       move.w 0x2(a0), d0
         0x005185d4      0c4000ff       cmpi.w 0xff, d0
     < 0x005185d8      6512           bcs.b 0x5185ec
        0x005185da      2253           movea.l (a3), a1
        0x005185dc      3211           move.w (a1), d1
        0x005185de      c283           and.l d3, d1
        0x005185e0      4282           clr.l d2
        0x005185e2      342e000c       move.w 0xc(a6), d2
    > 0x005185e6      8481           or.l d1, d2
       0x005185e8      3282           move.w d2, (a1)
   < 0x005185ea      6064           bra.b 0x518650
   > 0x005185ec      4a40           tst.w d0
   < 0x005185ee      661a           bne.b 0x51860a
      0x005185f0      2253           movea.l (a3), a1
      0x005185f2      3211           move.w (a1), d1
      0x005185f4      c283           and.l d3, d1
      0x005185f6      4282           clr.l d2
      0x005185f8      342e000c       move.w 0xc(a6), d2
      0x005185fc      8481           or.l d1, d2
      0x005185fe      4281           clr.l d1
      0x00518600      322e000e       move.w 0xe(a6), d1
      0x00518604      8282           or.l d2, d1
      0x00518606      3281           move.w d1, (a1)
  < 0x00518608      6046           bra.b 0x518650
  > 0x0051860a      2253           movea.l (a3), a1
      0x0051860c      3211           move.w (a1), d1
      0x0051860e      c283           and.l d3, d1
      0x00518610      4282           clr.l d2
      0x00518612      342e000a       move.w 0xa(a6), d2
  < 0x00518616      60ce           bra.b 0x5185e6
    > 0x00518618      2253           movea.l (a3), a1
        0x0051861a      4280           clr.l d0
        0x0051861c      3011           move.w (a1), d0
        0x0051861e      4281           clr.l d1
        0x00518620      322e0008       move.w 0x8(a6), d1
        0x00518624      8280           or.l d0, d1
        0x00518626      3281           move.w d1, (a1)
        0x00518628      4a280001       tst.b 0x1(a0)
    < 0x0051862c      6722           beq.b 0x518650
       0x0051862e      c283           and.l d3, d1
       0x00518630      4280           clr.l d0
       0x00518632      302e000a       move.w 0xa(a6), d0
       0x00518636      8081           or.l d1, d0
       0x00518638      3280           move.w d0, (a1)
       0x0051863a      4a10           tst.b (a0)
   < 0x0051863c      6712           beq.b 0x518650
      0x0051863e      30280002       move.w 0x2(a0), d0
      0x00518642      c083           and.l d3, d0
      0x00518644      4680           not.l d0
      0x00518646      0280000000ff   andi.l 0xff, d0
      0x0051864c      31400002       move.w d0, 0x2(a0)
  > 0x00518650      10280004       move.b 0x4(a0), d0
           0x00518654      b004           cmp.b d4, d0
       < 0x00518656      6618           bne.b 0x518670
          0x00518658      2254           movea.l (a4), a1
          0x0051865a      5d4f           subq.w 0x6, a7
          0x0051865c      4eb900636d9e   jsr PALETCOM.br_colour
          0x00518662      244f           movea.l a7, a2
          0x00518664      7205           moveq 0x5, d1
      > 0x00518666      12da           move.b (a2)+, (a1)+
      < 0x00518668      51c9fffc       dbra d1, 0x518666
      > 0x0051866c      5c4f           addq.w 0x6, a7
     < 0x0051866e      603e           bra.b 0x5186ae
     > 0x00518670      b005           cmp.b d5, d0
     < 0x00518672      661c           bne.b 0x518690
        0x00518674      2254           movea.l (a4), a1
        0x00518676      5d4f           subq.w 0x6, a7
        0x00518678      3f3c002a       move.w 0x2a, -(a7)
        0x0051867c      4eb900481196   jsr MENUCOM.get_boxcol
        0x00518682      544f           addq.w 0x2, a7
        0x00518684      244f           movea.l a7, a2
        0x00518686      7205           moveq 0x5, d1
    > 0x00518688      12da           move.b (a2)+, (a1)+
    < 0x0051868a      51c9fffc       dbra d1, 0x518688
     < 0x0051868e      60dc           bra.b 0x51866c
      > 0x00518690      2254           movea.l (a4), a1
          0x00518692      12280005       move.b 0x5(a0), d1
          0x00518696      4881           ext.w d1
          0x00518698      4385           chk.w d5, d1
          0x0051869a      c3fc0006       muls.w 0x6, d1
          0x0051869e      45faef44       lea.l 0x5175e4(pc), a2
          0x005186a2      45f21000       lea.l (a2, d1.w), a2
          0x005186a6      7205           moveq 0x5, d1
      > 0x005186a8      12da           move.b (a2)+, (a1)+
      < 0x005186aa      51c9fffc       dbra d1, 0x5186a8
     > 0x005186ae      4cdf1f3f       movem.l (a7)+, d0-d5/a0-a4
           0x005186b2      4e5e           unlk a6
           0x005186b4      4e75           rts
 50: OUTCOM.reset_scroll_fo ();
           0x005186b6      4e56ffee       link.w a6, 0xffee
           0x005186ba      bfd5           cmpa.l (a5), a7
       < 0x005186bc      6206           bhi.b 0x5186c4
          0x005186be      44fc0002       move.w 0x2, ccr
          0x005186c2      4e76           trapv
       > 0x005186c4      defc000e       adda.w 0xe, a7
           0x005186c8      2d790083e6a0.  move.l 0x83e6a0, -0x4(a6)
           0x005186d0      4227           clr.b -(a7)
           0x005186d2      486efffc       pea.l -0x4(a6)
           0x005186d6      486efffe       pea.l -0x2(a6)
           0x005186da      4eb90051f41c   jsr BRUSHCOM.b_ms_ram_bank_s
           0x005186e0      defc000a       adda.w 0xa, a7
           0x005186e4      4e5e           unlk a6
           0x005186e6      4e75           rts
            ; XREFS: CALL 0x0049b828  CALL 0x004b93e2  CALL 0x004ba018  
            ; XREFS: CALL 0x005025a0  CALL 0x00502996  CALL 0x0073534a  
            ; XREFS: CALL 0x007360b8  CALL 0x007365fe  CALL 0x0073d66a  
 70: OUTCOM.get_zoom_and_of ();
           0x005186e8      4e56fff0       link.w a6, 0xfff0
           0x005186ec      bfd5           cmpa.l (a5), a7
       < 0x005186ee      6206           bhi.b 0x5186f6
          0x005186f0      44fc0002       move.w 0x2, ccr
          0x005186f4      4e76           trapv
       > 0x005186f6      defc0010       adda.w 0x10, a7
           0x005186fa      48e78080       movem.l d0/a0, -(a7)
           0x005186fe      206e000c       movea.l 0xc(a6), a0
           0x00518702      30b90083e6fe   move.w 0x83e6fe, (a0)
           0x00518708      206e0008       movea.l 0x8(a6), a0
           0x0051870c      30390083e6f6   move.w 0x83e6f6, d0
           0x00518712      48c0           ext.l d0
           0x00518714      e780           asl.l 0x3, d0
           0x00518716      3080           move.w d0, (a0)
           0x00518718      30390083e6f8   move.w 0x83e6f8, d0
           0x0051871e      48c0           ext.l d0
           0x00518720      e780           asl.l 0x3, d0
           0x00518722      31400002       move.w d0, 0x2(a0)
           0x00518726      4cdf0101       movem.l (a7)+, d0/a0
           0x0051872a      4e5e           unlk a6
           0x0051872c      4e75           rts
            ; XREFS(59)
 192: OUTCOM.set_scroll ();
           0x0051872e      4e56fedc       link.w a6, 0xfedc
           0x00518732      bfd5           cmpa.l (a5), a7
       < 0x00518734      6206           bhi.b 0x51873c
          0x00518736      44fc0002       move.w 0x2, ccr
          0x0051873a      4e76           trapv
       > 0x0051873c      defc0124       adda.w 0x124, a7
           0x00518740      48e7c080       movem.l d0-d1/a0, -(a7)
           0x00518744      4eb900523d14   jsr BRUSHCOM.open_bus
           0x0051874a      102e000c       move.b 0xc(a6), d0
           0x0051874e      4880           ext.w d0
           0x00518750      41fafa4c       lea.l 0x51819e(pc), a0
           0x00518754      3200           move.w d0, d1
           0x00518756      e649           lsr.w 0x3, d1
           0x00518758      01301000       btst.l d0, (a0, d1.w)
       < 0x0051875c      673a           beq.b 0x518798
          0x0051875e      23ee00080083.  move.l 0x8(a6), 0x83e6a0.l
          0x00518766      1f3c0002       move.b 0x2, -(a7)
          0x0051876a      4879fff8404e   pea.l 0xfff8404e
          0x00518770      4879fff84044   pea.l 0xfff84044
          0x00518776      4879fff84014   pea.l 0xfff84014
          0x0051877c      4879fff84046   pea.l 0xfff84046
          0x00518782      9efc00fc       suba.w 0xfc, a7
          0x00518786      2f3afa18       move.l 0x5181a0(pc), -(a7)
          0x0051878a      3f7afa180004   move.w 0x5181a4(pc), 0x4(a7)
          0x00518790      4ebafc92       jsr OUTCOM.do_set_scroll(pc)
          0x00518794      defc0112       adda.w 0x112, a7
       > 0x00518798      41fafa0c       lea.l 0x5181a6(pc), a0
           0x0051879c      3200           move.w d0, d1
           0x0051879e      e649           lsr.w 0x3, d1
           0x005187a0      01301000       btst.l d0, (a0, d1.w)
       < 0x005187a4      673a           beq.b 0x5187e0
          0x005187a6      23ee00080083.  move.l 0x8(a6), 0x83e6b2.l
          0x005187ae      1f3c0003       move.b 0x3, -(a7)
          0x005187b2      4879fff8408e   pea.l 0xfff8408e
          0x005187b8      4879fff84084   pea.l 0xfff84084
          0x005187be      4879fff84016   pea.l 0xfff84016
          0x005187c4      4879fff84086   pea.l 0xfff84086
          0x005187ca      9efc00fc       suba.w 0xfc, a7
          0x005187ce      2f3af9d8       move.l 0x5181a8(pc), -(a7)
          0x005187d2      3f7af9d80004   move.w 0x5181ac(pc), 0x4(a7)
          0x005187d8      4ebafc4a       jsr OUTCOM.do_set_scroll(pc)
          0x005187dc      defc0112       adda.w 0x112, a7
       > 0x005187e0      4eb900523d52   jsr BRUSHCOM.close_bus
           0x005187e6      4cdf0103       movem.l (a7)+, d0-d1/a0
           0x005187ea      4e5e           unlk a6
           0x005187ec      4e75           rts
            ; CALL XREFS from OUTCOM.set_zoom @ 0x5189ac, 0x5189f8
 170: OUTCOM.do_set_zoom ();
           0x005187ee      4e56fed4       link.w a6, 0xfed4
           0x005187f2      bfd5           cmpa.l (a5), a7
       < 0x005187f4      6206           bhi.b 0x5187fc
          0x005187f6      44fc0002       move.w 0x2, ccr
          0x005187fa      4e76           trapv
       > 0x005187fc      defc012c       adda.w 0x12c, a7
           0x00518800      48e7c0e0       movem.l d0-d1/a0-a2, -(a7)
           0x00518804      43ec0012       lea.l 0x12(a4), a1
           0x00518808      45f900523d90   lea.l BRUSHCOM.data_bus, a2
           0x0051880e      102e0024       move.b 0x24(a6), d0
           0x00518812      4880           ext.w d0
           0x00518814      3200           move.w d0, d1
           0x00518816      5541           subq.w 0x2, d1
           0x00518818      43bc0003       chk.w 0x3, d1
           0x0051881c      c3fc0012       muls.w 0x12, d1
           0x00518820      41f90083e686   lea.l 0x83e686, a0
           0x00518826      21ac000a101e   move.l 0xa(a4), 0x1e(a0, d1.w)
           0x0051882c      21ac000e1022   move.l 0xe(a4), 0x22(a0, d1.w)
           0x00518832      31911026       move.w (a1), 0x26(a0, d1.w)
           0x00518836      31911028       move.w (a1), 0x28(a0, d1.w)
           0x0051883a      206e0020       movea.l 0x20(a6), a0
           0x0051883e      4850           pea.l (a0)
           0x00518840      3f11           move.w (a1), -(a7)
           0x00518842      4e92           jsr (a2)                    ; fcn.00000009+0x2
           0x00518844      5c4f           addq.w 0x6, a7
           0x00518846      206e001c       movea.l 0x1c(a6), a0
           0x0051884a      4850           pea.l (a0)
           0x0051884c      3f11           move.w (a1), -(a7)
           0x0051884e      4e92           jsr (a2)                    ; fcn.00000009+0x2
           0x00518850      5c4f           addq.w 0x6, a7
           0x00518852      206e0018       movea.l 0x18(a6), a0
           0x00518856      4850           pea.l (a0)
           0x00518858      3f2c000a       move.w 0xa(a4), -(a7)
           0x0051885c      4e92           jsr (a2)                    ; fcn.00000009+0x2
           0x0051885e      584f           addq.w 0x4, a7
           0x00518860      1e80           move.b d0, (a7)
           0x00518862      206e0014       movea.l 0x14(a6), a0
           0x00518866      4850           pea.l (a0)
           0x00518868      206e0010       movea.l 0x10(a6), a0
           0x0051886c      4850           pea.l (a0)
           0x0051886e      206e000c       movea.l 0xc(a6), a0
           0x00518872      4850           pea.l (a0)
           0x00518874      206e0008       movea.l 0x8(a6), a0
           0x00518878      4850           pea.l (a0)
           0x0051887a      9efc00fc       suba.w 0xfc, a7
           0x0051887e      2f3af958       move.l 0x5181d8(pc), -(a7)
           0x00518882      1f7af9580004   move.b 0x5181dc(pc), 0x4(a7)
           0x00518888      4ebafb9a       jsr OUTCOM.do_set_scroll(pc)
           0x0051888c      defc0112       adda.w 0x112, a7
           0x00518890      4cdf0703       movem.l (a7)+, d0-d1/a0-a2
           0x00518894      4e5e           unlk a6
           0x00518896      4e75           rts
            ; XREFS: CALL 0x004abb0e  CALL 0x004ac076  CALL 0x004ac0a0  
            ; XREFS: CALL 0x0050da36  CALL 0x0051939c  CALL 0x006745c6  
            ; XREFS: CALL 0x00749538  CALL 0x007499d2  CALL 0x0074beb6  
 402: OUTCOM.set_zoom ();
           0x00518898      4e56ffae       link.w a6, 0xffae
           0x0051889c      bfd5           cmpa.l (a5), a7
       < 0x0051889e      6206           bhi.b 0x5188a6
          0x005188a0      44fc0002       move.w 0x2, ccr
          0x005188a4      4e76           trapv
       > 0x005188a6      defc0050       adda.w 0x50, a7
           0x005188aa      48e7fcf8       movem.l d0-d5/a0-a4, -(a7)
           0x005188ae      43ee000c       lea.l 0xc(a6), a1
           0x005188b2      45ee0008       lea.l 0x8(a6), a2
           0x005188b6      47ee0010       lea.l 0x10(a6), a3
           0x005188ba      263c00000100   move.l 0x100, d3
           0x005188c0      7801           moveq 0x1, d4
           0x005188c2      7a1e           moveq 0x1e, d5
           0x005188c4      102e0012       move.b 0x12(a6), d0
           0x005188c8      b004           cmp.b d4, d0
       < 0x005188ca      6616           bne.b 0x5188e2
          0x005188cc      23d10083e6f6   move.l (a1), 0x83e6f6
          0x005188d2      23d20083e6fa   move.l (a2), 0x83e6fa
          0x005188d8      33d30083e6fe   move.w (a3), 0x83e6fe
      < 0x005188de      60000084       bra.w 0x518964
      > 0x005188e2      3213           move.w (a3), d1
          0x005188e4      b243           cmp.w d3, d1
      < 0x005188e6      667c           bne.b 0x518964
         0x005188e8      36b90083e6fe   move.w 0x83e6fe, (a3)
         0x005188ee      3211           move.w (a1), d1
         0x005188f0      48c1           ext.l d1
         0x005188f2      34390083e6f6   move.w 0x83e6f6, d2
         0x005188f8      48c2           ext.l d2
         0x005188fa      d481           add.l d1, d2
         0x005188fc      3282           move.w d2, (a1)
         0x005188fe      322e000e       move.w 0xe(a6), d1
         0x00518902      48c1           ext.l d1
         0x00518904      34390083e6f8   move.w 0x83e6f8, d2
         0x0051890a      48c2           ext.l d2
         0x0051890c      d481           add.l d1, d2
         0x0051890e      3d42000e       move.w d2, 0xe(a6)
         0x00518912      3212           move.w (a2), d1
         0x00518914      48c1           ext.l d1
         0x00518916      34390083e6fa   move.w 0x83e6fa, d2
         0x0051891c      48c2           ext.l d2
         0x0051891e      d481           add.l d1, d2
         0x00518920      3482           move.w d2, (a2)
         0x00518922      b443           cmp.w d3, d2
     < 0x00518924      6d10           blt.b 0x518936
        0x00518926      48c2           ext.l d2
        0x00518928      2202           move.l d2, d1
        0x0051892a      9283           sub.l d3, d1
        0x0051892c      3481           move.w d1, (a2)
        0x0051892e      3211           move.w (a1), d1
        0x00518930      48c1           ext.l d1
        0x00518932      5281           addq.l 0x1, d1
        0x00518934      3281           move.w d1, (a1)
     > 0x00518936      322e000a       move.w 0xa(a6), d1
         0x0051893a      48c1           ext.l d1
         0x0051893c      34390083e6fc   move.w 0x83e6fc, d2
         0x00518942      48c2           ext.l d2
         0x00518944      d481           add.l d1, d2
         0x00518946      3d42000a       move.w d2, 0xa(a6)
         0x0051894a      b443           cmp.w d3, d2
     < 0x0051894c      6d16           blt.b 0x518964
        0x0051894e      48c2           ext.l d2
        0x00518950      2202           move.l d2, d1
        0x00518952      9283           sub.l d3, d1
        0x00518954      3d41000a       move.w d1, 0xa(a6)
        0x00518958      322e000e       move.w 0xe(a6), d1
        0x0051895c      48c1           ext.l d1
        0x0051895e      5281           addq.l 0x1, d1
        0x00518960      3d41000e       move.w d1, 0xe(a6)
     > 0x00518964      4eb900523d14   jsr BRUSHCOM.open_bus
           0x0051896a      4880           ext.w d0
           0x0051896c      41faf8a8       lea.l 0x518216(pc), a0
           0x00518970      3200           move.w d0, d1
           0x00518972      e649           lsr.w 0x3, d1
           0x00518974      01301000       btst.l d0, (a0, d1.w)
       < 0x00518978      6738           beq.b 0x5189b2
          0x0051897a      1f3c0002       move.b 0x2, -(a7)
          0x0051897e      4879fff84048   pea.l 0xfff84048
          0x00518984      4879fff8404a   pea.l 0xfff8404a
          0x0051898a      4879fff8404c   pea.l 0xfff8404c
          0x00518990      4879fff8404e   pea.l 0xfff8404e
          0x00518996      4879fff84044   pea.l 0xfff84044
          0x0051899c      4879fff84014   pea.l 0xfff84014
          0x005189a2      4879fff84046   pea.l 0xfff84046
          0x005189a8      49eefffe       lea.l -0x2(a6), a4
          0x005189ac      4ebafe40       jsr OUTCOM.do_set_zoom(pc)
          0x005189b0      dec5           adda.w d5, a7
       > 0x005189b2      102e0012       move.b 0x12(a6), d0
           0x005189b6      4880           ext.w d0
           0x005189b8      41faf85e       lea.l 0x518218(pc), a0
           0x005189bc      3200           move.w d0, d1
           0x005189be      e649           lsr.w 0x3, d1
           0x005189c0      01301000       btst.l d0, (a0, d1.w)
       < 0x005189c4      6738           beq.b 0x5189fe
          0x005189c6      1f3c0003       move.b 0x3, -(a7)
          0x005189ca      4879fff84088   pea.l 0xfff84088
          0x005189d0      4879fff8408a   pea.l 0xfff8408a
          0x005189d6      4879fff8408c   pea.l 0xfff8408c
          0x005189dc      4879fff8408e   pea.l 0xfff8408e
          0x005189e2      4879fff84084   pea.l 0xfff84084
          0x005189e8      4879fff84016   pea.l 0xfff84016
          0x005189ee      4879fff84086   pea.l 0xfff84086
          0x005189f4      49eefffe       lea.l -0x2(a6), a4
          0x005189f8      4ebafdf4       jsr OUTCOM.do_set_zoom(pc)
          0x005189fc      dec5           adda.w d5, a7
       > 0x005189fe      102e0012       move.b 0x12(a6), d0
           0x00518a02      b004           cmp.b d4, d0
       < 0x00518a04      6612           bne.b 0x518a18
          0x00518a06      42390083e696   clr.b 0x83e696
          0x00518a0c      3013           move.w (a3), d0
          0x00518a0e      b043           cmp.w d3, d0
      < 0x00518a10      6706           beq.b 0x518a18
         0x00518a12      52390083e696   addq.b 0x1, 0x83e696.l
      > 0x00518a18      4ebaf94c       jsr OUTCOM.setup_video_com(pc)
           0x00518a1c      4eb900523d52   jsr BRUSHCOM.close_bus
           0x00518a22      4cdf1f3f       movem.l (a7)+, d0-d5/a0-a4
           0x00518a26      4e5e           unlk a6
           0x00518a28      4e75           rts
            ; XREFS(55)
 170: OUTCOM.set_video_crops ();
           0x00518a2a      4e56ffce       link.w a6, 0xffce
           0x00518a2e      bfd5           cmpa.l (a5), a7
       < 0x00518a30      6206           bhi.b 0x518a38
          0x00518a32      44fc0002       move.w 0x2, ccr
          0x00518a36      4e76           trapv
       > 0x00518a38      defc002a       adda.w 0x2a, a7
           0x00518a3c      48e7c0f8       movem.l d0-d1/a0-a4, -(a7)
           0x00518a40      41f900523d90   lea.l BRUSHCOM.data_bus, a0
           0x00518a46      43ee000a       lea.l 0xa(a6), a1
           0x00518a4a      45ee0008       lea.l 0x8(a6), a2
           0x00518a4e      47ee000c       lea.l 0xc(a6), a3
           0x00518a52      49eefffc       lea.l -0x4(a6), a4
           0x00518a56      4eb900523d14   jsr BRUSHCOM.open_bus
           0x00518a5c      514f           subq.w 0x8, a7
           0x00518a5e      1f3c000a       move.b 0xa, -(a7)
           0x00518a62      4eb9006336ea   jsr HANDCOM.get_area
           0x00518a68      544f           addq.w 0x2, a7
           0x00518a6a      2d5ffff8       move.l (a7)+, -0x8(a6)
           0x00518a6e      289f           move.l (a7)+, (a4)
           0x00518a70      3011           move.w (a1), d0
           0x00518a72      b06efffe       cmp.w -0x2(a6), d0
       < 0x00518a76      6f10           ble.b 0x518a88
          0x00518a78      48c0           ext.l d0
          0x00518a7a      322efffe       move.w -0x2(a6), d1
          0x00518a7e      48c1           ext.l d1
          0x00518a80      4481           neg.l d1
          0x00518a82      d280           add.l d0, d1
          0x00518a84      5381           subq.l 0x1, d1
          0x00518a86      3281           move.w d1, (a1)
       > 0x00518a88      3012           move.w (a2), d0
           0x00518a8a      b054           cmp.w (a4), d0
       < 0x00518a8c      6d0c           blt.b 0x518a9a
          0x00518a8e      48c0           ext.l d0
          0x00518a90      3214           move.w (a4), d1
          0x00518a92      48c1           ext.l d1
          0x00518a94      4481           neg.l d1
          0x00518a96      d280           add.l d0, d1
          0x00518a98      3481           move.w d1, (a2)
       > 0x00518a9a      3012           move.w (a2), d0
           0x00518a9c      48c0           ext.l d0
           0x00518a9e      3213           move.w (a3), d1
           0x00518aa0      48c1           ext.l d1
           0x00518aa2      d280           add.l d0, d1
           0x00518aa4      5381           subq.l 0x1, d1
           0x00518aa6      3681           move.w d1, (a3)
           0x00518aa8      3011           move.w (a1), d0
           0x00518aaa      48c0           ext.l d0
           0x00518aac      322e000e       move.w 0xe(a6), d1
           0x00518ab0      48c1           ext.l d1
           0x00518ab2      d280           add.l d0, d1
           0x00518ab4      5381           subq.l 0x1, d1
           0x00518ab6      3d41000e       move.w d1, 0xe(a6)
           0x00518aba      102e0010       move.b 0x10(a6), d0
           0x00518abe      4880           ext.w d0
           0x00518ac0      5340           subq.w 0x1, d0
           0x00518ac2      0c400002       cmpi.w 0x2, d0
       < 0x00518ac6      6200009e       bhi.w 0x518b66
          0x00518aca      d040           add.w d0, d0
          0x00518acc      303b0006       move.w 0x518ad4(pc, d0.w), d0
          0x00518ad0      4efb0002       jmp 0x518ad4(pc, d0.w)
           0x00518ad4      00660006       ori.w 0x6, -(a6)
           0x00518ad8      003a4879       
           0x00518ad9      3a48           movea.w a0, a5
           0x00518adb      79fff840       
           0x00518adc      fff8           invalid
           0x00518ade      4054           negx.w (a4)
           0x00518ae0      3f12           move.w (a2), -(a7)
           0x00518ae2      4e90           jsr (a0)                    ; fcn.00000009
           0x00518ae4      5c4f           addq.w 0x6, a7
           0x00518ae6      4879fff84056   pea.l 0xfff84056
           0x00518aec      3f13           move.w (a3), -(a7)
           0x00518aee      4e90           jsr (a0)                    ; fcn.00000009
           0x00518af0      5c4f           addq.w 0x6, a7
           0x00518af2      4879fff84058   pea.l 0xfff84058
           0x00518af8      3f11           move.w (a1), -(a7)
           0x00518afa      4e90           jsr (a0)                    ; fcn.00000009
           0x00518afc      5c4f           addq.w 0x6, a7
           0x00518afe      4879fff8405a   pea.l 0xfff8405a
      > 0x00518b04      3f2e000e       move.w 0xe(a6), -(a7)
         0x00518b08      4e90           jsr (a0)                    ; fcn.00000009
         0x00518b0a      5c4f           addq.w 0x6, a7
     < 0x00518b0c      6058           bra.b 0x518b66
        0x00518b0e      4879fff84094   pea.l 0xfff84094
        0x00518b14      3f12           move.w (a2), -(a7)
        0x00518b16      4e90           jsr (a0)                    ; fcn.00000009
        0x00518b18      5c4f           addq.w 0x6, a7
        0x00518b1a      4879fff84096   pea.l 0xfff84096
        0x00518b20      3f13           move.w (a3), -(a7)
        0x00518b22      4e90           jsr (a0)                    ; fcn.00000009
        0x00518b24      5c4f           addq.w 0x6, a7
        0x00518b26      4879fff84098   pea.l 0xfff84098
        0x00518b2c      3f11           move.w (a1), -(a7)
        0x00518b2e      4e90           jsr (a0)                    ; fcn.00000009
        0x00518b30      5c4f           addq.w 0x6, a7
        0x00518b32      4879fff8409a   pea.l 0xfff8409a
     < 0x00518b38      60ca           bra.b 0x518b04
         0x00518b3a      4879fff840d4   pea.l 0xfff840d4
         0x00518b40      3f12           move.w (a2), -(a7)
         0x00518b42      4e90           jsr (a0)                    ; fcn.00000009
         0x00518b44      5c4f           addq.w 0x6, a7
         0x00518b46      4879fff840d6   pea.l 0xfff840d6
         0x00518b4c      3f13           move.w (a3), -(a7)
         0x00518b4e      4e90           jsr (a0)                    ; fcn.00000009
         0x00518b50      5c4f           addq.w 0x6, a7
         0x00518b52      4879fff840d8   pea.l 0xfff840d8
         0x00518b58      3f11           move.w (a1), -(a7)
         0x00518b5a      4e90           jsr (a0)                    ; fcn.00000009
         0x00518b5c      5c4f           addq.w 0x6, a7
         0x00518b5e      4879fff840da   pea.l 0xfff840da
      < 0x00518b64      609e           bra.b 0x518b04
     > 0x00518b66      4879fff840ee   pea.l 0xfff840ee
            0x00518b6c      3f3c0010       move.w 0x10, -(a7)
            0x00518b70      4e90           jsr (a0)                    ; fcn.00000009
            0x00518b72      5c4f           addq.w 0x6, a7
            0x00518b74      4eb900523d52   jsr BRUSHCOM.close_bus
            0x00518b7a      4cdf1f03       movem.l (a7)+, d0-d1/a0-a4
            0x00518b7e      4e5e           unlk a6
            0x00518b80      4e75           rts
            ; CALL XREF from OUTCOM.out_init @ 0x51937c
 56: OUTCOM.set_field ();
           0x00518b82      4e56fff0       link.w a6, 0xfff0
           0x00518b86      bfd5           cmpa.l (a5), a7
       < 0x00518b88      6206           bhi.b 0x518b90
          0x00518b8a      44fc0002       move.w 0x2, ccr
          0x00518b8e      4e76           trapv
       > 0x00518b90      defc0010       adda.w 0x10, a7
           0x00518b94      48e780c0       movem.l d0/a0-a1, -(a7)
           0x00518b98      41ee0008       lea.l 0x8(a6), a0
           0x00518b9c      43f90083e6b0   lea.l 0x83e6b0, a1
           0x00518ba2      102e000a       move.b 0xa(a6), d0
           0x00518ba6      4880           ext.w d0
           0x00518ba8      5340           subq.w 0x1, d0
           0x00518baa      0c400002       cmpi.w 0x2, d0
       < 0x00518bae      6220           bhi.b 0x518bd0
          0x00518bb0      d040           add.w d0, d0
          0x00518bb2      303b0006       move.w 0x518bba(pc, d0.w), d0
          0x00518bb6      4efb0002       jmp 0x518bba(pc, d0.w)
           0x00518bba      00120006       ori.b 0x6, (a2)
           0x00518bbe      000a1290       
           0x00518bbf      0a129060       eori.b 0x60, (a2)
           0x00518bc3      0c13d000       cmpi.b 0x0, (a3)
           0x00518bc7      83e6           divs.w -(a6), d1
           0x00518bc9      c260           and.w -(a0), d1
           0x00518bcb      04129060       subi.b 0x60, (a2)
           0x00518bcf      f44cdf03014e   fdbf d4, 0x518d21
            0x00518bd5      5e4e           addq.w 0x7, a6
            0x00518bd7      754e56ff       
            ; CALL XREF from MENUCELLCOM.setup_cycle @ 0x4c223a
            ; CALL XREF from MENUCELLCOM.tick_animation @ 0x4c2726
            ; CALL XREF from MENUCELLCOM.finish_cycle @ 0x4c2998
 94: OUTCOM.set_window ();
           0x00518bd8      4e56ffec       link.w a6, 0xffec
           0x00518bdc      bfd5           cmpa.l (a5), a7
       < 0x00518bde      6206           bhi.b 0x518be6
          0x00518be0      44fc0002       move.w 0x2, ccr
          0x00518be4      4e76           trapv
       > 0x00518be6      defc0014       adda.w 0x14, a7
           0x00518bea      48e78080       movem.l d0/a0, -(a7)
           0x00518bee      41ee0008       lea.l 0x8(a6), a0
           0x00518bf2      3010           move.w (a0), d0
           0x00518bf4      48c0           ext.l d0
           0x00518bf6      5180           subq.l 0x8, d0
           0x00518bf8      3080           move.w d0, (a0)
           0x00518bfa      23d00083e686   move.l (a0), 0x83e686
           0x00518c00      23ee000c0083.  move.l 0xc(a6), 0x83e68a.l
           0x00518c08      2f2e000c       move.l 0xc(a6), -(a7)
           0x00518c0c      2f10           move.l (a0), -(a7)
           0x00518c0e      4eb9004556cc   jsr CURSORCOM.hidden_cursor
           0x00518c14      504f           addq.w 0x8, a7
           0x00518c16      13fc00010083.  move.b 0x1, 0x83e697.l
           0x00518c1e      4eb900523d14   jsr BRUSHCOM.open_bus
           0x00518c24      4ebaf740       jsr OUTCOM.setup_video_com(pc)
           0x00518c28      4eb900523d52   jsr BRUSHCOM.close_bus
           0x00518c2e      4cdf0101       movem.l (a7)+, d0/a0
           0x00518c32      4e5e           unlk a6
           0x00518c34      4e75           rts
            ; CALL XREF from MENUCELLCOM.finish_cycle @ 0x4c29a2
            ; CALL XREF from OUTCOM.out_init @ 0x5193da
 44: OUTCOM.window_off ();
           0x00518c36      4e56fffc       link.w a6, 0xfffc
           0x00518c3a      bfd5           cmpa.l (a5), a7
       < 0x00518c3c      6206           bhi.b 0x518c44
          0x00518c3e      44fc0002       move.w 0x2, ccr
          0x00518c42      4e76           trapv
       > 0x00518c44      defc0004       adda.w 0x4, a7
           0x00518c48      42390083e697   clr.b 0x83e697
           0x00518c4e      4eb900523d14   jsr BRUSHCOM.open_bus
           0x00518c54      4ebaf710       jsr OUTCOM.setup_video_com(pc)
           0x00518c58      4eb900523d52   jsr BRUSHCOM.close_bus
           0x00518c5e      4e5e           unlk a6
           0x00518c60      4e75           rts
            ; XREFS: CALL 0x004502a6  CALL 0x00450490  CALL 0x00451268  
            ; XREFS: CALL 0x00451734  CALL 0x0047ba58  CALL 0x0047bad4  
            ; XREFS: CALL 0x0047bbac  CALL 0x0047bca4  CALL 0x004b79da  
            ; XREFS: CALL 0x004bbb8e  CALL 0x0050362e  CALL 0x006680a4  
            ; XREFS: CALL 0x00736ff2  
 30: OUTCOM.get_palstate ();
           0x00518c62      4e56fffc       link.w a6, 0xfffc
           0x00518c66      bfd5           cmpa.l (a5), a7
       < 0x00518c68      6206           bhi.b 0x518c70
          0x00518c6a      44fc0002       move.w 0x2, ccr
          0x00518c6e      4e76           trapv
       > 0x00518c70      defc0004       adda.w 0x4, a7
           0x00518c74      1d790083e6e8.  move.b 0x83e6e8, 0x8(a6)
           0x00518c7c      4e5e           unlk a6
           0x00518c7e      4e75           rts
            ; XREFS(28)
 90: OUTCOM.set_palette ();
           0x00518c80      4e56fec4       link.w a6, 0xfec4
           0x00518c84      bfd5           cmpa.l (a5), a7
       < 0x00518c86      6206           bhi.b 0x518c8e
          0x00518c88      44fc0002       move.w 0x2, ccr
          0x00518c8c      4e76           trapv
       > 0x00518c8e      defc0136       adda.w 0x136, a7
           0x00518c92      48e7c7e0       movem.l d0-d1/d5-d7/a0-a2, -(a7)
           0x00518c96      45f90083e69a   lea.l 0x83e69a, a2
           0x00518c9c      554f           subq.w 0x2, a7
           0x00518c9e      4eb900454f70   jsr CURSORCOM.show_sequence
           0x00518ca4      4a1f           tst.b (a7)+
       < 0x00518ca6      670000fe       beq.w 0x518da6
          0x00518caa      13ee00080083.  move.b 0x8(a6), 0x83e6e8.l
          0x00518cb2      102e0008       move.b 0x8(a6), d0
          0x00518cb6      4880           ext.w d0
          0x00518cb8      013af5a0       btst.l d0, 0x51825a(pc)
      < 0x00518cbc      6706           beq.b 0x518cc4
         0x00518cbe      34bc081f       move.w 0x81f, (a2)
     < 0x00518cc2      6004           bra.b 0x518cc8
     > 0x00518cc4      34bc001f       move.w 0x1f, (a2)
     > 0x00518cc8      3200           move.w d0, d1
          0x00518cca      0c410006       cmpi.w 0x6, d1
      < 0x00518cce      6226           bhi.b 0x518cf6
         0x00518cd0      d241           add.w d1, d1
         0x00518cd2      323b1006       move.w 0x518cda(pc, d1.w), d1
         0x00518cd6      4efb1002       jmp 0x518cda(pc, d1.w)
          0x00518cda      001a000e       ori.b 0xe, (a2)+
          0x00518cde      0012000e       ori.b 0xe, (a2)
          0x00518ce2      00120016       ori.b 0x16, (a2)
          0x00518ce6      00167e01       ori.b 0x1, (a6)
      < 0x00518cea      600a           bra.b 0x518cf6
         0x00518cec      7e02           moveq 0x2, d7
     < 0x00518cee      6006           bra.b 0x518cf6
        0x00518cf0      7e03           moveq 0x3, d7
    < 0x00518cf2      6002           bra.b 0x518cf6
       0x00518cf4      7e00           moveq 0x0, d7
    > 0x00518cf6      3c07           move.w d7, d6
           0x00518cf8      3a07           move.w d7, d5
           0x00518cfa      4a390083e6f0   tst.b 0x83e6f0
       < 0x00518d00      670c           beq.b 0x518d0e
          0x00518d02      013af558       btst.l d0, 0x51825c(pc)
      < 0x00518d06      6704           beq.b 0x518d0c
         0x00518d08      7a00           moveq 0x0, d5
     < 0x00518d0a      6002           bra.b 0x518d0e
     > 0x00518d0c      7c00           moveq 0x0, d6
         ; CODE XREF from OUTCOM @ +0x1814
     > 0x00518d0e      4eb900523d14   jsr BRUSHCOM.open_bus
           0x00518d14      1f3c0008       move.b 0x8, -(a7)
           0x00518d18      3f06           move.w d6, -(a7)
           0x00518d1a      4eb90051ccb8   jsr BRUSHIOMAV.br_set_output
           0x00518d20      544f           addq.w 0x2, a7
           0x00518d22      1ebc000a       move.b 0xa, (a7)
           0x00518d26      3f05           move.w d5, -(a7)
           0x00518d28      4eb90051ccb8   jsr BRUSHIOMAV.br_set_output
           0x00518d2e      584f           addq.w 0x4, a7
           0x00518d30      4ebaf634       jsr OUTCOM.setup_video_com(pc)
           0x00518d34      1f3c0002       move.b 0x2, -(a7)
           0x00518d38      4879fff8404e   pea.l 0xfff8404e
           0x00518d3e      4879fff84044   pea.l 0xfff84044
           0x00518d44      4879fff84014   pea.l 0xfff84014
           0x00518d4a      4879fff84046   pea.l 0xfff84046
           0x00518d50      9efc0100       suba.w 0x100, a7
           0x00518d54      204f           movea.l a7, a0
           0x00518d56      43faf505       lea.l 0x51825d(pc), a1
           0x00518d5a      7005           moveq 0x5, d0
       > 0x00518d5c      10d9           move.b (a1)+, (a0)+
       < 0x00518d5e      51c8fffc       dbra d0, 0x518d5c
           0x00518d62      4ebaf6c0       jsr OUTCOM.do_set_scroll(pc)
           0x00518d66      defc0110       adda.w 0x110, a7
           0x00518d6a      1ebc0003       move.b 0x3, (a7)
           0x00518d6e      4879fff8408e   pea.l 0xfff8408e
           0x00518d74      4879fff84084   pea.l 0xfff84084
           0x00518d7a      4879fff84016   pea.l 0xfff84016
           0x00518d80      4879fff84086   pea.l 0xfff84086
           0x00518d86      9efc0100       suba.w 0x100, a7
           0x00518d8a      204f           movea.l a7, a0
           0x00518d8c      43faf4d5       lea.l 0x518263(pc), a1
           0x00518d90      7005           moveq 0x5, d0
       > 0x00518d92      10d9           move.b (a1)+, (a0)+
       < 0x00518d94      51c8fffc       dbra d0, 0x518d92
           0x00518d98      4ebaf68a       jsr OUTCOM.do_set_scroll(pc)
           0x00518d9c      defc0112       adda.w 0x112, a7
           0x00518da0      4eb900523d52   jsr BRUSHCOM.close_bus
        > 0x00518da6      4cdf07e3       movem.l (a7)+, d0-d1/d5-d7/a0-a2
            0x00518daa      4e5e           unlk a6
            0x00518dac      4e75           rts
            ; CALL XREF from MENUPASTECOM.paste_set_out @ 0x4b23a8
 42: OUTCOM.set_out_fade ();
           0x00518dae      4e56fffa       link.w a6, 0xfffa
           0x00518db2      bfd5           cmpa.l (a5), a7
       < 0x00518db4      6206           bhi.b 0x518dbc
          0x00518db6      44fc0002       move.w 0x2, ccr
          0x00518dba      4e76           trapv
       > 0x00518dbc      defc0006       adda.w 0x6, a7
           0x00518dc0      33ee00080083.  move.w 0x8(a6), 0x83e6ec.l
           0x00518dc8      1f2e000a       move.b 0xa(a6), -(a7)
           0x00518dcc      4eb900518dd8   jsr OUTCOM.set_out
           0x00518dd2      544f           addq.w 0x2, a7
           0x00518dd4      4e5e           unlk a6
           0x00518dd6      4e75           rts
            ; XREFS(55)
 350: OUTCOM.set_out ();
           0x00518dd8      4e56ff88       link.w a6, 0xff88
           0x00518ddc      bfd5           cmpa.l (a5), a7
       < 0x00518dde      6206           bhi.b 0x518de6
          0x00518de0      44fc0002       move.w 0x2, ccr
          0x00518de4      4e76           trapv
       > 0x00518de6      defc0038       adda.w 0x38, a7
           0x00518dea      48e7e0f8       movem.l d0-d2/a0-a4, -(a7)
           0x00518dee      45eeffc0       lea.l -0x40(a6), a2
           0x00518df2      47eefffa       lea.l -0x6(a6), a3
           0x00518df6      49f900523d90   lea.l BRUSHCOM.data_bus, a4
           0x00518dfc      7414           moveq 0x14, d2
           0x00518dfe      13ee00080083.  move.b 0x8(a6), 0x83e6ea.l
           0x00518e06      102e0008       move.b 0x8(a6), d0
           0x00518e0a      4880           ext.w d0
           0x00518e0c      c1fc0038       muls.w 0x38, d0
           0x00518e10      41fae7ea       lea.l 0x5175fc(pc), a0
           0x00518e14      43eeffc2       lea.l -0x3e(a6), a1
           0x00518e18      41f00000       lea.l (a0, d0.w), a0
           0x00518e1c      700c           moveq 0xc, d0
       > 0x00518e1e      22d8           move.l (a0)+, (a1)+
       < 0x00518e20      51c8fffc       dbra d0, 0x518e1e
           0x00518e24      32d8           move.w (a0)+, (a1)+
           0x00518e26      12d8           move.b (a0)+, (a1)+
           0x00518e28      4eb900523d14   jsr BRUSHCOM.open_bus
           0x00518e2e      4a2effc3       tst.b -0x3d(a6)
       < 0x00518e32      6704           beq.b 0x518e38
          0x00518e34      4252           clr.w (a2)
      < 0x00518e36      6004           bra.b 0x518e3c
      > 0x00518e38      34bc0010       move.w 0x10, (a2)
      > 0x00518e3c      4a2effc2       tst.b -0x3e(a6)
       < 0x00518e40      670c           beq.b 0x518e4e
          0x00518e42      4280           clr.l d0
          0x00518e44      3012           move.w (a2), d0
          0x00518e46      008000000800   ori.l 0x800, d0
          0x00518e4c      3480           move.w d0, (a2)
       > 0x00518e4e      4852           pea.l (a2)
           0x00518e50      4853           pea.l (a3)
           0x00518e52      486effc4       pea.l -0x3c(a6)
           0x00518e56      3f3c0008       move.w 0x8, -(a7)
           0x00518e5a      3f3c0004       move.w 0x4, -(a7)
           0x00518e5e      3f3c0040       move.w 0x40, -(a7)
           0x00518e62      3f3c0100       move.w 0x100, -(a7)
           0x00518e66      4ebaf70a       jsr OUTCOM.alter_cmd(pc)
           0x00518e6a      dec2           adda.w d2, a7
           0x00518e6c      4879fff84008   pea.l 0xfff84008
           0x00518e72      302efffe       move.w -0x2(a6), d0
           0x00518e76      48c0           ext.l d0
           0x00518e78      e180           asl.l 0x8, d0
           0x00518e7a      3213           move.w (a3), d1
           0x00518e7c      48c1           ext.l d1
           0x00518e7e      d280           add.l d0, d1
           0x00518e80      3f01           move.w d1, -(a7)
           0x00518e82      4e94           jsr (a4)                    ; fcn.0000000d
           0x00518e84      5c4f           addq.w 0x6, a7
           0x00518e86      4879fff84008   pea.l 0xfff84008
           0x00518e8c      302efffc       move.w -0x4(a6), d0
           0x00518e90      48c0           ext.l d0
           0x00518e92      e180           asl.l 0x8, d0
           0x00518e94      3213           move.w (a3), d1
           0x00518e96      48c1           ext.l d1
           0x00518e98      d280           add.l d0, d1
           0x00518e9a      3f01           move.w d1, -(a7)
           0x00518e9c      4e94           jsr (a4)                    ; fcn.0000000d
           0x00518e9e      5c4f           addq.w 0x6, a7
           0x00518ea0      4879fff8400c   pea.l 0xfff8400c
           0x00518ea6      3f2effc6       move.w -0x3a(a6), -(a7)
           0x00518eaa      4e94           jsr (a4)                    ; fcn.0000000d
           0x00518eac      5c4f           addq.w 0x6, a7
           0x00518eae      4852           pea.l (a2)
           0x00518eb0      4853           pea.l (a3)
           0x00518eb2      486effca       pea.l -0x36(a6)
           0x00518eb6      3f3c0002       move.w 0x2, -(a7)
           0x00518eba      3f3c0001       move.w 0x1, -(a7)
           0x00518ebe      3f3c0080       move.w 0x80, -(a7)
           0x00518ec2      3f3c0200       move.w 0x200, -(a7)
           0x00518ec6      4ebaf6aa       jsr OUTCOM.alter_cmd(pc)
           0x00518eca      dec2           adda.w d2, a7
           0x00518ecc      4879fff8400a   pea.l 0xfff8400a
           0x00518ed2      302efffe       move.w -0x2(a6), d0
           0x00518ed6      48c0           ext.l d0
           0x00518ed8      e180           asl.l 0x8, d0
           0x00518eda      3213           move.w (a3), d1
           0x00518edc      48c1           ext.l d1
           0x00518ede      d280           add.l d0, d1
           0x00518ee0      3f01           move.w d1, -(a7)
           0x00518ee2      4e94           jsr (a4)                    ; fcn.0000000d
           0x00518ee4      5c4f           addq.w 0x6, a7
           0x00518ee6      4879fff8400a   pea.l 0xfff8400a
           0x00518eec      302efffc       move.w -0x4(a6), d0
           0x00518ef0      48c0           ext.l d0
           0x00518ef2      e180           asl.l 0x8, d0
           0x00518ef4      3213           move.w (a3), d1
           0x00518ef6      48c1           ext.l d1
           0x00518ef8      d280           add.l d0, d1
           0x00518efa      3f01           move.w d1, -(a7)
           0x00518efc      4e94           jsr (a4)                    ; fcn.0000000d
           0x00518efe      5c4f           addq.w 0x6, a7
           0x00518f00      4879fff8400e   pea.l 0xfff8400e
           0x00518f06      3f2effcc       move.w -0x34(a6), -(a7)
           0x00518f0a      4e94           jsr (a4)                    ; fcn.0000000d
           0x00518f0c      5c4f           addq.w 0x6, a7
           0x00518f0e      4a390083e697   tst.b 0x83e697
       < 0x00518f14      6708           beq.b 0x518f1e
          0x00518f16      33d20083e69c   move.w (a2), 0x83e69c
      < 0x00518f1c      6006           bra.b 0x518f24
      > 0x00518f1e      33d20083e698   move.w (a2), 0x83e698
      > 0x00518f24      4ebaf440       jsr OUTCOM.setup_video_com(pc)
           0x00518f28      4eb900523d52   jsr BRUSHCOM.close_bus
           0x00518f2e      4cdf1f07       movem.l (a7)+, d0-d2/a0-a4
           0x00518f32      4e5e           unlk a6
           0x00518f34      4e75           rts
            ; XREFS: CALL 0x0048fff2  CALL 0x004b0854  CALL 0x004b4960  
            ; XREFS: CALL 0x004ba8ca  CALL 0x004bd3e6  CALL 0x005128a6  
            ; XREFS: CALL 0x005193f0  CALL 0x006680c6  CALL 0x0071a736  
            ; XREFS: CALL 0x00721c16  CALL 0x0073711e  CALL 0x007458f0  
            ; XREFS: CALL 0x00749ede  
 32: OUTCOM.save_out ();
           0x00518f36      4e56fffc       link.w a6, 0xfffc
           0x00518f3a      bfd5           cmpa.l (a5), a7
       < 0x00518f3c      6206           bhi.b 0x518f44
          0x00518f3e      44fc0002       move.w 0x2, ccr
          0x00518f42      4e76           trapv
       > 0x00518f44      defc0004       adda.w 0x4, a7
           0x00518f48      13f90083e6ea.  move.b 0x83e6ea, 0x83e6e9.l
           0x00518f52      4e5e           unlk a6
           0x00518f54      4e75           rts
            ; XREFS: CALL 0x0048fff8  CALL 0x004b0894  CALL 0x004b49a0  
            ; XREFS: CALL 0x004ba930  CALL 0x004bd4bc  CALL 0x00512902  
            ; XREFS: CALL 0x006683f8  CALL 0x0071a812  CALL 0x00721c98  
            ; XREFS: CALL 0x007371ca  CALL 0x0074598c  CALL 0x00749f58  
 34: OUTCOM.restore_out ();
           0x00518f56      4e56fffa       link.w a6, 0xfffa
           0x00518f5a      bfd5           cmpa.l (a5), a7
       < 0x00518f5c      6206           bhi.b 0x518f64
          0x00518f5e      44fc0002       move.w 0x2, ccr
          0x00518f62      4e76           trapv
       > 0x00518f64      defc0006       adda.w 0x6, a7
           0x00518f68      1f390083e6e9   move.b 0x83e6e9, -(a7)
           0x00518f6e      4ebafe68       jsr OUTCOM.set_out(pc)
           0x00518f72      544f           addq.w 0x2, a7
           0x00518f74      4e5e           unlk a6
           0x00518f76      4e75           rts
            ; CALL XREF from CNTLCOM.palette_swiped @ 0x47ceae
            ; CALL XREF from MENUPANELCOM.hit_presentatio @ 0x728e04
            ; CALL XREFS from MENULIBFNDCOM.hit_resize_upda @ 0x75981e, 0x75982a
 30: OUTCOM.get_out ();
           0x00518f78      4e56fffc       link.w a6, 0xfffc
           0x00518f7c      bfd5           cmpa.l (a5), a7
       < 0x00518f7e      6206           bhi.b 0x518f86
          0x00518f80      44fc0002       move.w 0x2, ccr
          0x00518f84      4e76           trapv
       > 0x00518f86      defc0004       adda.w 0x4, a7
           0x00518f8a      1d790083e6ea.  move.b 0x83e6ea, 0x8(a6)
           0x00518f92      4e5e           unlk a6
           0x00518f94      4e75           rts
            ; XREFS(35)
 120: OUTCOM.normal_set_out ();
           0x00518f96      4e56fff4       link.w a6, 0xfff4
           0x00518f9a      bfd5           cmpa.l (a5), a7
       < 0x00518f9c      6206           bhi.b 0x518fa4
          0x00518f9e      44fc0002       move.w 0x2, ccr
          0x00518fa2      4e76           trapv
       > 0x00518fa4      defc000c       adda.w 0xc, a7
           0x00518fa8      48e70080       movem.l a0, -(a7)
           0x00518fac      41f900480fc2   lea.l MENUCOM.get_boxon, a0
           0x00518fb2      554f           subq.w 0x2, a7
           0x00518fb4      3f3c001f       move.w 0x1f, -(a7)
           0x00518fb8      4e90           jsr (a0)                    ; fcn.00000009
           0x00518fba      544f           addq.w 0x2, a7
           0x00518fbc      4a1f           tst.b (a7)+
       < 0x00518fbe      672e           beq.b 0x518fee
          0x00518fc0      554f           subq.w 0x2, a7
          0x00518fc2      3f3c0042       move.w 0x42, -(a7)
          0x00518fc6      4e90           jsr (a0)                    ; fcn.00000009
          0x00518fc8      544f           addq.w 0x2, a7
          0x00518fca      4a1f           tst.b (a7)+
      < 0x00518fcc      6706           beq.b 0x518fd4
         0x00518fce      1f3c0014       move.b 0x14, -(a7)
     < 0x00518fd2      602c           bra.b 0x519000
     > 0x00518fd4      554f           subq.w 0x2, a7
         0x00518fd6      3f3c0043       move.w 0x43, -(a7)
         0x00518fda      4e90           jsr (a0)                    ; fcn.00000009
         0x00518fdc      544f           addq.w 0x2, a7
         0x00518fde      4a1f           tst.b (a7)+
     < 0x00518fe0      6706           beq.b 0x518fe8
        0x00518fe2      1f3c0025       move.b 0x25, -(a7)
    < 0x00518fe6      6018           bra.b 0x519000
   > 0x00518fe8      1f3c0002       move.b 0x2, -(a7)
   < 0x00518fec      6012           bra.b 0x519000
   > 0x00518fee      554f           subq.w 0x2, a7
       0x00518ff0      3f3c002d       move.w 0x2d, -(a7)
       0x00518ff4      4e90           jsr (a0)                    ; fcn.00000009
       0x00518ff6      544f           addq.w 0x2, a7
       0x00518ff8      4a1f           tst.b (a7)+
   < 0x00518ffa      6702           beq.b 0x518ffe
   < 0x00518ffc      60ea           bra.b 0x518fe8
    > 0x00518ffe      4227           clr.b -(a7)
    > 0x00519000      4ebafdd6       jsr OUTCOM.set_out(pc)
           0x00519004      544f           addq.w 0x2, a7
           0x00519006      4cdf0100       movem.l (a7)+, a0
           0x0051900a      4e5e           unlk a6
           0x0051900c      4e75           rts
            ; CALL XREF from OUTCOM.sel_key_out @ 0x519146
            ; CALL XREF from OUTCOM.restore_key_out @ 0x51916c
            ; CALL XREF from OUTCOM.enable_key_out @ 0x51918c
 58: OUTCOM.set_key_out ();
           0x0051900e      4e56fff8       link.w a6, 0xfff8
           0x00519012      bfd5           cmpa.l (a5), a7
       < 0x00519014      6206           bhi.b 0x51901c
          0x00519016      44fc0002       move.w 0x2, ccr
          0x0051901a      4e76           trapv
       > 0x0051901c      defc0008       adda.w 0x8, a7
           0x00519020      48e70080       movem.l a0, -(a7)
           0x00519024      41ee0008       lea.l 0x8(a6), a0
           0x00519028      33d0fff84010   move.w (a0), 0xfff84010
           0x0051902e      33d0fff84010   move.w (a0), 0xfff84010
           0x00519034      33d0fff84010   move.w (a0), 0xfff84010
           0x0051903a      33d0fff84010   move.w (a0), 0xfff84010
           0x00519040      4cdf0100       movem.l (a7)+, a0
           0x00519044      4e5e           unlk a6
           0x00519046      4e75           rts
            ; CALL XREF from MENUCONFIGCOM.hit_key_out @ 0x7092ec
 268: OUTCOM.sel_key_out ();
           0x00519048      4e56ffd6       link.w a6, 0xffd6
           0x0051904c      bfd5           cmpa.l (a5), a7
       < 0x0051904e      6206           bhi.b 0x519056
          0x00519050      44fc0002       move.w 0x2, ccr
          0x00519054      4e76           trapv
       > 0x00519056      defc0028       adda.w 0x28, a7
           0x0051905a      48e7e1c0       movem.l d0-d2/d7/a0-a1, -(a7)
           0x0051905e      43f900478d56   lea.l CONFIGCOM.cfg_vo_single, a1
           0x00519064      243c0000ffff   move.l 0xffff, d2
           0x0051906a      554f           subq.w 0x2, a7
           0x0051906c      4eb900478be0   jsr CONFIGCOM.cfg_vo_type
           0x00519072      101f           move.b (a7)+, d0
           0x00519074      4880           ext.w d0
           0x00519076      41faf1fe       lea.l 0x518276(pc), a0
           0x0051907a      3200           move.w d0, d1
           0x0051907c      e649           lsr.w 0x3, d1
           0x0051907e      01301000       btst.l d0, (a0, d1.w)
       < 0x00519082      6706           beq.b 0x51908a
          0x00519084      3e3c0090       move.w 0x90, d7
      < 0x00519088      604a           bra.b 0x5190d4
      > 0x0051908a      554f           subq.w 0x2, a7
          0x0051908c      4eb900478cde   jsr CONFIGCOM.cfg_vo_coded
          0x00519092      4a1f           tst.b (a7)+
      < 0x00519094      670e           beq.b 0x5190a4
         0x00519096      554f           subq.w 0x2, a7
         0x00519098      4e91           jsr (a1)                    ; fcn.0000000a
         0x0051909a      4a1f           tst.b (a7)+
     < 0x0051909c      6706           beq.b 0x5190a4
    > 0x0051909e      3e3c00d0       move.w 0xd0, d7
   < 0x005190a2      6030           bra.b 0x5190d4
   > 0x005190a4      554f           subq.w 0x2, a7
        0x005190a6      4eb900478d1a   jsr CONFIGCOM.cfg_vo_serial
        0x005190ac      4a1f           tst.b (a7)+
    < 0x005190ae      670a           beq.b 0x5190ba
       0x005190b0      554f           subq.w 0x2, a7
       0x005190b2      4e91           jsr (a1)                    ; fcn.0000000a
       0x005190b4      4a1f           tst.b (a7)+
   < 0x005190b6      6702           beq.b 0x5190ba
   < 0x005190b8      60e4           bra.b 0x51909e
    > 0x005190ba      487af1bd       pea.l 0x518279(pc)
         0x005190be      48780033       pea.l 0x33
         0x005190c2      2f17           move.l (a7), -(a7)
         0x005190c4      4eb9004047ea   jsr p_wts_o
         0x005190ca      defc000c       adda.w 0xc, a7
         0x005190ce      4eb900404946   jsr p_wtln_o
   > 0x005190d4      554f           subq.w 0x2, a7
           0x005190d6      4eb9004755c2   jsr CONFIG.cfg_gender
           0x005190dc      101f           move.b (a7)+, d0
           0x005190de      0c000003       cmpi.b 0x3, d0
       < 0x005190e2      6768           beq.b 0x51914c
          0x005190e4      554f           subq.w 0x2, a7
          0x005190e6      4eb900478be0   jsr CONFIGCOM.cfg_vo_type
          0x005190ec      101f           move.b (a7)+, d0
          0x005190ee      4880           ext.w d0
          0x005190f0      41faf1ba       lea.l 0x5182ac(pc), a0
          0x005190f4      3200           move.w d0, d1
          0x005190f6      e649           lsr.w 0x3, d1
          0x005190f8      01301000       btst.l d0, (a0, d1.w)
      < 0x005190fc      6608           bne.b 0x519106
         0x005190fe      554f           subq.w 0x2, a7
         0x00519100      4e91           jsr (a1)                    ; fcn.0000000a
         0x00519102      4a1f           tst.b (a7)+
     < 0x00519104      6746           beq.b 0x51914c
     > 0x00519106      4a2e000e       tst.b 0xe(a6)
     < 0x0051910a      6608           bne.b 0x519114
        0x0051910c      ce82           and.l d2, d7
        0x0051910e      008700000001   ori.l 0x1, d7
     > 0x00519114      4a2e000c       tst.b 0xc(a6)
     < 0x00519118      6608           bne.b 0x519122
        0x0051911a      ce82           and.l d2, d7
        0x0051911c      008700000004   ori.l 0x4, d7
     > 0x00519122      4a2e000a       tst.b 0xa(a6)
     < 0x00519126      6708           beq.b 0x519130
        0x00519128      ce82           and.l d2, d7
        0x0051912a      008700000002   ori.l 0x2, d7
     > 0x00519130      4a2e0008       tst.b 0x8(a6)
     < 0x00519134      6708           beq.b 0x51913e
        0x00519136      ce82           and.l d2, d7
        0x00519138      008700000008   ori.l 0x8, d7
     > 0x0051913e      33c70083e6ee   move.w d7, 0x83e6ee
         0x00519144      3f07           move.w d7, -(a7)
         0x00519146      4ebafec6       jsr OUTCOM.set_key_out(pc)
         0x0051914a      544f           addq.w 0x2, a7
     > 0x0051914c      4cdf0387       movem.l (a7)+, d0-d2/d7/a0-a1
           0x00519150      4e5e           unlk a6
           0x00519152      4e75           rts
            ; CALL XREF from K96_LIB2OPS @ +0x40c4
            ; CALL XREF from MENUPANELCOM.reinit_mainprog @ 0x728c34
 34: OUTCOM.restore_key_out ();
           0x00519154      4e56fffa       link.w a6, 0xfffa
           0x00519158      bfd5           cmpa.l (a5), a7
       < 0x0051915a      6206           bhi.b 0x519162
          0x0051915c      44fc0002       move.w 0x2, ccr
          0x00519160      4e76           trapv
       > 0x00519162      defc0006       adda.w 0x6, a7
           0x00519166      3f390083e6ee   move.w 0x83e6ee, -(a7)
           0x0051916c      4ebafea0       jsr OUTCOM.set_key_out(pc)
           0x00519170      544f           addq.w 0x2, a7
           0x00519172      4e5e           unlk a6
           0x00519174      4e75           rts
 32: OUTCOM.enable_key_out ();
           0x00519176      4e56fffa       link.w a6, 0xfffa
           0x0051917a      bfd5           cmpa.l (a5), a7
       < 0x0051917c      6206           bhi.b 0x519184
          0x0051917e      44fc0002       move.w 0x2, ccr
          0x00519182      4e76           trapv
       > 0x00519184      defc0006       adda.w 0x6, a7
           0x00519188      3f3c004c       move.w 0x4c, -(a7)
           0x0051918c      4ebafe80       jsr OUTCOM.set_key_out(pc)
           0x00519190      544f           addq.w 0x2, a7
           0x00519192      4e5e           unlk a6
           0x00519194      4e75           rts
 202: OUTCOM.set_both_keys_o ();
           0x00519196      4e56ffe4       link.w a6, 0xffe4
           0x0051919a      bfd5           cmpa.l (a5), a7
       < 0x0051919c      6206           bhi.b 0x5191a4
          0x0051919e      44fc0002       move.w 0x2, ccr
          0x005191a2      4e76           trapv
       > 0x005191a4      defc0016       adda.w 0x16, a7
           0x005191a8      48e78180       movem.l d0/d7/a0, -(a7)
           0x005191ac      41f900523d90   lea.l BRUSHCOM.data_bus, a0
           0x005191b2      701f           moveq 0x1f, d0
           0x005191b4      554f           subq.w 0x2, a7
           0x005191b6      4eb900478cde   jsr CONFIGCOM.cfg_vo_coded
           0x005191bc      1e1f           move.b (a7)+, d7
           0x005191be      4407           neg.b d7
           0x005191c0      5207           addq.b 0x1, d7
           0x005191c2      554f           subq.w 0x2, a7
           0x005191c4      4eb900478cde   jsr CONFIGCOM.cfg_vo_coded
           0x005191ca      4a1f           tst.b (a7)+
       < 0x005191cc      6710           beq.b 0x5191de
          0x005191ce      554f           subq.w 0x2, a7
          0x005191d0      4eb900478d56   jsr CONFIGCOM.cfg_vo_single
          0x005191d6      4a1f           tst.b (a7)+
      < 0x005191d8      6704           beq.b 0x5191de
         0x005191da      4407           neg.b d7
         0x005191dc      5207           addq.b 0x1, d7
      > 0x005191de      4a07           tst.b d7
       < 0x005191e0      6704           beq.b 0x5191e6
          0x005191e2      7e04           moveq 0x4, d7
      < 0x005191e4      6002           bra.b 0x5191e8
      > 0x005191e6      7e0c           moveq 0xc, d7
      > 0x005191e8      3d40fffc       move.w d0, -0x4(a6)
           0x005191ec      4eb900523d14   jsr BRUSHCOM.open_bus
           0x005191f2      4879fff84010   pea.l 0xfff84010
           0x005191f8      3f07           move.w d7, -(a7)
           0x005191fa      4e90           jsr (a0)                    ; fcn.00000009
           0x005191fc      5c4f           addq.w 0x6, a7
           0x005191fe      4879fff84010   pea.l 0xfff84010
           0x00519204      3f07           move.w d7, -(a7)
           0x00519206      4e90           jsr (a0)                    ; fcn.00000009
           0x00519208      5c4f           addq.w 0x6, a7
           0x0051920a      4879fff84010   pea.l 0xfff84010
           0x00519210      3f07           move.w d7, -(a7)
           0x00519212      4e90           jsr (a0)                    ; fcn.00000009
           0x00519214      5c4f           addq.w 0x6, a7
           0x00519216      4879fff84010   pea.l 0xfff84010
           0x0051921c      3f07           move.w d7, -(a7)
           0x0051921e      4e90           jsr (a0)                    ; fcn.00000009
           0x00519220      5c4f           addq.w 0x6, a7
           0x00519222      4879fff84006   pea.l 0xfff84006
           0x00519228      3f00           move.w d0, -(a7)
           0x0051922a      4e90           jsr (a0)                    ; fcn.00000009
           0x0051922c      5c4f           addq.w 0x6, a7
           0x0051922e      4879fff84006   pea.l 0xfff84006
           0x00519234      3f00           move.w d0, -(a7)
           0x00519236      4e90           jsr (a0)                    ; fcn.00000009
           0x00519238      5c4f           addq.w 0x6, a7
           0x0051923a      4879fff84006   pea.l 0xfff84006
           0x00519240      3f00           move.w d0, -(a7)
           0x00519242      4e90           jsr (a0)                    ; fcn.00000009
           0x00519244      5c4f           addq.w 0x6, a7
           0x00519246      4879fff84006   pea.l 0xfff84006
           0x0051924c      3f00           move.w d0, -(a7)
           0x0051924e      4e90           jsr (a0)                    ; fcn.00000009
           0x00519250      5c4f           addq.w 0x6, a7
           0x00519252      4eb900523d52   jsr BRUSHCOM.close_bus
           0x00519258      4cdf0181       movem.l (a7)+, d0/d7/a0
           0x0051925c      4e5e           unlk a6
           0x0051925e      4e75           rts
            ; CALL XREF from OUTCOM.out_init @ 0x519372
 112: OUTCOM.init_palstate ();
           0x00519260      4e56fff6       link.w a6, 0xfff6
           0x00519264      bfd5           cmpa.l (a5), a7
       < 0x00519266      6206           bhi.b 0x51926e
          0x00519268      44fc0002       move.w 0x2, ccr
          0x0051926c      4e76           trapv
       > 0x0051926e      defc000a       adda.w 0xa, a7
           0x00519272      42390083e6e8   clr.b 0x83e6e8
           0x00519278      33fc001f0083.  move.w 0x1f, 0x83e69a.l
           0x00519280      1f3c0002       move.b 0x2, -(a7)
           0x00519284      2f390083e6a0   move.l 0x83e6a0, -(a7)
           0x0051928a      4ebaf4a2       jsr OUTCOM.set_scroll(pc)
           0x0051928e      584f           addq.w 0x4, a7
           0x00519290      1ebc0003       move.b 0x3, (a7)
           0x00519294      2f390083e6b2   move.l 0x83e6b2, -(a7)
           0x0051929a      4ebaf492       jsr OUTCOM.set_scroll(pc)
           0x0051929e      5c4f           addq.w 0x6, a7
           0x005192a0      4eb900523d14   jsr BRUSHCOM.open_bus
           0x005192a6      1f3c0008       move.b 0x8, -(a7)
           0x005192aa      4267           clr.w -(a7)
           0x005192ac      4eb90051ccb8   jsr BRUSHIOMAV.br_set_output
           0x005192b2      544f           addq.w 0x2, a7
           0x005192b4      1ebc000a       move.b 0xa, (a7)
           0x005192b8      4267           clr.w -(a7)
           0x005192ba      4eb90051ccb8   jsr BRUSHIOMAV.br_set_output
           0x005192c0      584f           addq.w 0x4, a7
           0x005192c2      4ebaf0a2       jsr OUTCOM.setup_video_com(pc)
           0x005192c6      4eb900523d52   jsr BRUSHCOM.close_bus
           0x005192cc      4e5e           unlk a6
           0x005192ce      4e75           rts
            ; CALL XREF from MAVIS_PAINT.startup_report @ 0x6d2756
            ; CALL XREF from MAVIS_PAINT.cleanup_system @ 0x6d28b8
            ; CALL XREF from MAVIS_PAINT.mavis_dpb_mainp @ 0x6d2e60
            ; CALL XREF from MENUPANELCOM.reinit_mainprog @ 0x728ba0
 440: OUTCOM.out_init ();
           0x005192d0      4e56ffd2       link.w a6, 0xffd2
           0x005192d4      bfd5           cmpa.l (a5), a7
       < 0x005192d6      6206           bhi.b 0x5192de
          0x005192d8      44fc0002       move.w 0x2, ccr
          0x005192dc      4e76           trapv
       > 0x005192de      defc0020       adda.w 0x20, a7
           0x005192e2      48e7c0c0       movem.l d0-d1/a0-a1, -(a7)
           0x005192e6      41f90083e698   lea.l 0x83e698, a0
           0x005192ec      43f90083e69c   lea.l 0x83e69c, a1
           0x005192f2      7201           moveq 0x1, d1
           0x005192f4      514f           subq.w 0x8, a7
           0x005192f6      4eb900633a48   jsr HANDCOM.get_screen_area
           0x005192fc      2d5ffff8       move.l (a7)+, -0x8(a6)
           0x00519300      2d57fffc       move.l (a7), -0x4(a6)
           0x00519304      544f           addq.w 0x2, a7
           0x00519306      4eb900478d92   jsr CONFIGCOM.cfg_dgl_output_
           0x0051930c      13df0083e6f0   move.b (a7)+, 0x83e6f0
           0x00519312      30bc081e       move.w 0x81e, (a0)
           0x00519316      32bc081f       move.w 0x81f, (a1)
           0x0051931a      33d00083e69a   move.w (a0), 0x83e69a
           0x00519320      33d10083e69e   move.w (a1), 0x83e69e
           0x00519326      42390083e696   clr.b 0x83e696
           0x0051932c      42390083e697   clr.b 0x83e697
           0x00519332      23faef900083.  move.l 0x5182c4(pc), 0x83e6a8.l
           0x0051933a      23faef8c0083.  move.l 0x5182c8(pc), 0x83e6ba.l
           0x00519342      23faef880083.  move.l 0x5182cc(pc), 0x83e6a0.l
           0x0051934a      23faef840083.  move.l 0x5182d0(pc), 0x83e6b2.l
           0x00519352      23faef800083.  move.l 0x5182d4(pc), 0x83e6ac.l
           0x0051935a      23faef7c0083.  move.l 0x5182d8(pc), 0x83e6be.l
           0x00519362      23faef780083.  move.l 0x5182dc(pc), 0x83e6a4.l
           0x0051936a      23faef740083.  move.l 0x5182e0(pc), 0x83e6b6.l
           0x00519372      4ebafeec       jsr OUTCOM.init_palstate(pc)
           0x00519376      1f01           move.b d1, -(a7)
           0x00519378      1f3c0002       move.b 0x2, -(a7)
           0x0051937c      4ebaf804       jsr OUTCOM.set_field(pc)
           0x00519380      544f           addq.w 0x2, a7
           0x00519382      1e81           move.b d1, (a7)
           0x00519384      2f3aef5e       move.l 0x5182e4(pc), -(a7)
           0x00519388      4ebaf3a4       jsr OUTCOM.set_scroll(pc)
           0x0051938c      584f           addq.w 0x4, a7
           0x0051938e      1e81           move.b d1, (a7)
           0x00519390      3f3c0100       move.w 0x100, -(a7)
           0x00519394      2f3aef52       move.l 0x5182e8(pc), -(a7)
           0x00519398      2f3aef52       move.l 0x5182ec(pc), -(a7)
           0x0051939c      4ebaf4fa       jsr OUTCOM.set_zoom(pc)
           0x005193a0      defc000c       adda.w 0xc, a7
           0x005193a4      23faef4a0083.  move.l 0x5182f0(pc), 0x83e6f6.l
           0x005193ac      23faef460083.  move.l 0x5182f4(pc), 0x83e6fa.l
           0x005193b4      1f01           move.b d1, -(a7)
           0x005193b6      514f           subq.w 0x8, a7
           0x005193b8      4227           clr.b -(a7)
           0x005193ba      4eb9006336ea   jsr HANDCOM.get_area
           0x005193c0      544f           addq.w 0x2, a7
           0x005193c2      4ebaf666       jsr OUTCOM.set_video_crops(pc)
           0x005193c6      defc000a       adda.w 0xa, a7
           0x005193ca      42390083e6e8   clr.b 0x83e6e8
           0x005193d0      1f01           move.b d1, -(a7)
           0x005193d2      4eb900522436   jsr BRUSHCOM.set_write_en
           0x005193d8      544f           addq.w 0x2, a7
           0x005193da      4ebaf85a       jsr OUTCOM.window_off(pc)
           0x005193de      33fc00ff0083.  move.w 0xff, 0x83e6ec.l
           0x005193e6      1f3c0015       move.b 0x15, -(a7)
           0x005193ea      4ebaf9ec       jsr OUTCOM.set_out(pc)
           0x005193ee      544f           addq.w 0x2, a7
           0x005193f0      4ebafb44       jsr OUTCOM.save_out(pc)
           0x005193f4      554f           subq.w 0x2, a7
           0x005193f6      4eb9004755c2   jsr CONFIG.cfg_gender
           0x005193fc      101f           move.b (a7)+, d0
           0x005193fe      0c000003       cmpi.b 0x3, d0
       < 0x00519402      660a           bne.b 0x51940e
          0x00519404      33fc007c0083.  move.w 0x7c, 0x83e6ee.l
      < 0x0051940c      6006           bra.b 0x519414
      > 0x0051940e      42790083e6ee   clr.w 0x83e6ee
      > 0x00519414      4eb900523d14   jsr BRUSHCOM.open_bus
           0x0051941a      4879fff84012   pea.l 0xfff84012
           0x00519420      4267           clr.w -(a7)
           0x00519422      4eb900523d90   jsr BRUSHCOM.data_bus
           0x00519428      5c4f           addq.w 0x6, a7
           0x0051942a      4879fff84010   pea.l 0xfff84010
           0x00519430      3f390083e6ee   move.w 0x83e6ee, -(a7)
           0x00519436      4eb900523d90   jsr BRUSHCOM.data_bus
           0x0051943c      5c4f           addq.w 0x6, a7
           0x0051943e      4879fff84010   pea.l 0xfff84010
           0x00519444      3f390083e6ee   move.w 0x83e6ee, -(a7)
           0x0051944a      4eb900523d90   jsr BRUSHCOM.data_bus
           0x00519450      5c4f           addq.w 0x6, a7
           0x00519452      4879fff84010   pea.l 0xfff84010
           0x00519458      3f390083e6ee   move.w 0x83e6ee, -(a7)
           0x0051945e      4eb900523d90   jsr BRUSHCOM.data_bus
           0x00519464      5c4f           addq.w 0x6, a7
           0x00519466      4879fff84010   pea.l 0xfff84010
           0x0051946c      3f390083e6ee   move.w 0x83e6ee, -(a7)
           0x00519472      4eb900523d90   jsr BRUSHCOM.data_bus
           0x00519478      5c4f           addq.w 0x6, a7
           0x0051947a      4eb900523d52   jsr BRUSHCOM.close_bus
           0x00519480      4cdf0303       movem.l (a7)+, d0-d1/a0-a1
           0x00519484      4e5e           unlk a6
