            ;-- PALETCOM:
            0x00635a56      .byte 0x00
            0x00635a57      .byte 0x88
            0x00635a58      .byte 0x00
            0x00635a59      .byte 0x46
            0x00635a5a      .byte 0x00
            0x00635a5b      .byte 0xd2
            0x00635a5c      .byte 0x00
            0x00635a5d      .byte 0x51
            0x00635a5e      .byte 0x00
            0x00635a5f      .byte 0x80
            0x00635a60      .byte 0x00
            0x00635a61      .byte 0x80
            0x00635a62      .byte 0x00
            0x00635a63      .byte 0x3c
            0x00635a64      .byte 0x00
            0x00635a65      .byte 0x80
            0x00635a66      .byte 0x00
            0x00635a67      .byte 0x80
            0x00635a68      .byte 0x00
            0x00635a69      .byte 0x32
            0x00635a6a      .byte 0x00
            0x00635a6b      .byte 0x80
            0x00635a6c      .byte 0x00
            0x00635a6d      .byte 0x80
            0x00635a6e      .byte 0x00
            0x00635a6f      .byte 0x10
            0x00635a70      .byte 0x00
            0x00635a71      .byte 0x80
            0x00635a72      .byte 0x00
            0x00635a73      .byte 0x80
            0x00635a74      .byte 0x00
            0x00635a75      .byte 0xa7
            0x00635a76      .byte 0x00
            0x00635a77      .byte 0x72
            0x00635a78      .byte 0x00
            0x00635a79      .byte 0x9e
            0x00635a7a      .byte 0x00
            0x00635a7b      .byte 0xbf
            0x00635a7c      .byte 0x00
            0x00635a7d      .byte 0x80
            0x00635a7e      .byte 0x00
            0x00635a7f      .byte 0x80
            0x00635a80      .byte 0x00
            0x00635a81      .byte 0xa0
            0x00635a82      .byte 0x00
            0x00635a83      .byte 0x96
            0x00635a84      .byte 0x00
            0x00635a85      .byte 0x74
            0x00635a86      .byte 0x00
            0x00635a87      .byte 0x23
            0x00635a88      .byte 0x00
            0x00635a89      .byte 0xf0
            0x00635a8a      .byte 0x00
            0x00635a8b      .byte 0x6e
            0x00635a8c      .byte 0x00
            0x00635a8d      .byte 0x8c
            0x00635a8e      .byte 0x00
            0x00635a8f      .byte 0x6e
            0x00635a90      .byte 0x00
            0x00635a91      .byte 0x6e
            0x00635a92      .byte 0x00
            0x00635a93      .byte 0xc4
            0x00635a94      .byte 0x00
            0x00635a95      .byte 0x31
            0x00635a96      .byte 0x00
            0x00635a97      .byte 0x8c
            0x00635a98      .byte 0x00
            0x00635a99      .byte 0xa8
            0x00635a9a      .byte 0x00
            0x00635a9b      .byte 0x28
            0x00635a9c      .byte 0x00
            0x00635a9d      .byte 0xb1
            0x00635a9e      .byte 0x00
            0x00635a9f      .byte 0x00
            0x00635aa0      .byte 0x00
            0x00635aa1      .byte 0x80
            0x00635aa2      .byte 0x00
            0x00635aa3      .byte 0x80
            0x00635aa4      .byte 0x00
            0x00635aa5      .byte 0xff
            0x00635aa6      .byte 0x00
            0x00635aa7      .byte 0x80
            0x00635aa8      .byte 0x00
            0x00635aa9      .byte 0x80
            0x00635aaa      .byte 0x00
            0x00635aab      .byte 0xcc
            0x00635aac      .byte 0x00
            0x00635aad      .byte 0x80
            0x00635aae      .byte 0x00
            0x00635aaf      .byte 0x80
            0x00635ab0      .byte 0x00
            0x00635ab1      .byte 0xad
            0x00635ab2      .byte 0x00
            0x00635ab3      .byte 0x80
            0x00635ab4      .byte 0x00
            0x00635ab5      .byte 0x80
            0x00635ab6      .byte 0x00
            0x00635ab7      .byte 0xeb
            0x00635ab8      .byte 0x00
            0x00635ab9      .byte 0x80
            0x00635aba      .byte 0x00
            0x00635abb      .byte 0x80
            0x00635abc      .byte 0x00
            0x00635abd      .byte 0x10
            0x00635abe      .byte 0x00
            0x00635abf      .byte 0x80
            0x00635ac0      .byte 0x00
            0x00635ac1      .byte 0x80
            0x00635ac2      .byte 0x00
            0x00635ac3      .byte 0x80
            0x00635ac4      .byte 0x00
            0x00635ac5      .byte 0x80
            0x00635ac6      .byte 0x00
            0x00635ac7      .byte 0x80
            0x00635ac8      .byte 0x00
            0x00635ac9      .byte 0x51
            0x00635aca      .byte 0x00
            0x00635acb      .byte 0x5a
            0x00635acc      .byte 0x00
            0x00635acd      .byte 0xf0
            0x00635ace      .byte 0x00
            0x00635acf      .byte 0xd2
            0x00635ad0      .byte 0x00
            0x00635ad1      .byte 0x10
            0x00635ad2      .byte 0x00
            0x00635ad3      .byte 0x92
            0x00635ad4      .byte 0x00
            0x00635ad5      .byte 0x29
            0x00635ad6      .byte 0x00
            0x00635ad7      .byte 0xf0
            0x00635ad8      .byte 0x00
            0x00635ad9      .byte 0x6e
            0x00635ada      .byte 0x00
            0x00635adb      .byte 0x91
            0x00635adc      .byte 0x00
            0x00635add      .byte 0x36
            0x00635ade      .byte 0x00
            0x00635adf      .byte 0x22
            0x00635ae0      .byte 0x00
            0x00635ae1      .byte 0xa2
            0x00635ae2      .byte 0x00
            0x00635ae3      .byte 0x2c
            0x00635ae4      .byte 0x00
            0x00635ae5      .byte 0x8e
            0x00635ae6      .byte 0x00
            0x00635ae7      .byte 0x83
            0x00635ae8      .byte 0x00
            0x00635ae9      .byte 0x9c
            0x00635aea      .byte 0x00
            0x00635aeb      .byte 0x2c
            0x00635aec      .byte 0x00
            0x00635aed      .byte 0x70
            0x00635aee      .byte 0x00
            0x00635aef      .byte 0x48
            0x00635af0      .byte 0x00
            0x00635af1      .byte 0x3a
            0x00635af2      .byte 0x00
            0x00635af3      .byte 0x54
            0x00635af4      .byte 0x00
            0x00635af5      .byte 0xb8
            0x00635af6      .byte 0x00
            0x00635af7      .byte 0xc6
            0x00635af8      .byte 0x00
            0x00635af9      .byte 0x41
            0x00635afa      .byte 0x00
            0x00635afb      .byte 0x64
            0x00635afc      .byte 0x00
            0x00635afd      .byte 0xd4
            0x00635afe      .byte 0x00
            0x00635aff      .byte 0x23
            0x00635b00      .byte 0x00
            0x00635b01      .byte 0xd4
            0x00635b02      .byte 0x00
            0x00635b03      .byte 0x72
            0x00635b04      .byte 0x00
            0x00635b05      .byte 0xd2
            0x00635b06      .byte 0x00
            0x00635b07      .byte 0x10
            0x00635b08      .byte 0x00
            0x00635b09      .byte 0x92
            0x00635b0a      .byte 0x00
            0x00635b0b      .byte 0xaa
            0x00635b0c      .byte 0x00
            0x00635b0d      .byte 0xa6
            0x00635b0e      .byte 0x00
            0x00635b0f      .byte 0x10
            0x00635b10      .byte 0x00
            0x00635b11      .byte 0x91
            0x00635b12      .byte 0x00
            0x00635b13      .byte 0x36
            0x00635b14      .byte 0x00
            0x00635b15      .byte 0x22
            0x00635b16      .byte 0x00
            0x00635b17      .byte 0x6a
            0x00635b18      .byte 0x00
            0x00635b19      .byte 0xca
            0x00635b1a      .byte 0x00
            0x00635b1b      .byte 0xde
            0x00635b1c      .byte 0x00
            0x00635b1d      .byte 0x51
            0x00635b1e      .byte 0x00
            0x00635b1f      .byte 0x5a
            0x00635b20      .byte 0x00
            0x00635b21      .byte 0xf0
            0x00635b22      .byte 0x00
            0x00635b23      .byte 0x29
            0x00635b24      .byte 0x00
            0x00635b25      .byte 0xf0
            0x00635b26      .byte 0x00
            0x00635b27      .byte 0x6e
            0x00635b28      .byte 0x00
            0x00635b29      .byte 0x00
            0x00635b2a      .byte 0x00
            0x00635b2b      .byte 0x00
            0x00635b2c      .byte 0x00
            0x00635b2d      .byte 0x00
            0x00635b2e      .byte 0x00
            0x00635b2f      .byte 0x00
            0x00635b30      .byte 0x00
            0x00635b31      .byte 0x00
            0x00635b32      .byte 0x3f
            0x00635b33      .byte 0x80
            0x00635b34      .byte 0x00
            0x00635b35      .byte 0x00
            0x00635b36      .byte 0x3f
            0x00635b37      .byte 0x80
            0x00635b38      .byte 0x00
            0x00635b39      .byte 0x00
            0x00635b3a      .byte 0x00
            0x00635b3b      .byte 0x00
            0x00635b3c      .byte 0x00
            0x00635b3d      .byte 0x00
            0x00635b3e      .byte 0x00
            0x00635b3f      .byte 0x00
            0x00635b40      .byte 0x00
            0x00635b41      .byte 0x00
            0x00635b42      .byte 0x00
            0x00635b43      .byte 0x00
            0x00635b44      .byte 0x00
            0x00635b45      .byte 0x00
            0x00635b46      .byte 0x00
            0x00635b47      .byte 0x00
            0x00635b48      .byte 0x00
            0x00635b49      .byte 0x00
            0x00635b4a      .byte 0x00
            0x00635b4b      .byte 0x00
            0x00635b4c      .byte 0x00
            0x00635b4d      .byte 0x02
            0x00635b4e      .byte 0x00
            0x00635b4f      .byte 0x00
            0x00635b50      .byte 0x3f
            0x00635b51      .byte 0x80
            0x00635b52      .byte 0x00
            0x00635b53      .byte 0x00
            0x00635b54      .byte 0x3f
            0x00635b55      .byte 0x80
            0x00635b56      .byte 0x00
            0x00635b57      .byte 0x00
            0x00635b58      .byte 0x00
            0x00635b59      .byte 0x00
            0x00635b5a      .byte 0x00
            0x00635b5b      .byte 0x00
            0x00635b5c      .byte 0x00
            0x00635b5d      .byte 0x00
            0x00635b5e      .byte 0x00
            0x00635b5f      .byte 0x00
            0x00635b60      .byte 0x3f
            0x00635b61      .byte 0x80
            0x00635b62      .byte 0x00
            0x00635b63      .byte 0x00
            0x00635b64      .byte 0x3f
            0x00635b65      .byte 0x80
            0x00635b66      .byte 0x00
            0x00635b67      .byte 0x00
            0x00635b68      .byte 0x00
            0x00635b69      .byte 0x00
            0x00635b6a      .byte 0x00
            0x00635b6b      .byte 0x00
            0x00635b6c      .byte 0x00
            0x00635b6d      .byte 0x00
            0x00635b6e      .byte 0x00
            0x00635b6f      .byte 0x00
            0x00635b70      .byte 0x00
            0x00635b71      .byte 0x00
            0x00635b72      .byte 0x00
            0x00635b73      .byte 0x00
            0x00635b74      .byte 0x00
            0x00635b75      .byte 0x00
            0x00635b76      .byte 0x00
            0x00635b77      .byte 0x00
            0x00635b78      .byte 0x00
            0x00635b79      .byte 0x00
            0x00635b7a      .byte 0x00
            0x00635b7b      .byte 0x01
            0x00635b7c      .byte 0x00
            0x00635b7d      .byte 0x00
            0x00635b7e      .byte 0x00
            0x00635b7f      .byte 0x00
            0x00635b80      .byte 0x00
            0x00635b81      .byte 0x00
            0x00635b82      .byte 0x00
            0x00635b83      .byte 0x00
            0x00635b84      .byte 0x00
            0x00635b85      .byte 0x00
            0x00635b86      .byte 0x00
            0x00635b87      .byte 0x00
            0x00635b88      .byte 0x00
            0x00635b89      .byte 0x00
            0x00635b8a      .byte 0x00
            0x00635b8b      .byte 0x00
            0x00635b8c      .byte 0x00
            0x00635b8d      .byte 0x00
            0x00635b8e      .byte 0x3f
            0x00635b8f      .byte 0x80
            0x00635b90      .byte 0x00
            0x00635b91      .byte 0x00
            0x00635b92      .byte 0x00
            0x00635b93      .byte 0x00
            0x00635b94      .byte 0x00
            0x00635b95      .byte 0x00
            0x00635b96      .byte 0x00
            0x00635b97      .byte 0x00
            0x00635b98      .byte 0x00
            0x00635b99      .byte 0x00
            0x00635b9a      .byte 0x00
            0x00635b9b      .byte 0x00
            0x00635b9c      .byte 0x00
            0x00635b9d      .byte 0x00
            0x00635b9e      .byte 0x00
            0x00635b9f      .byte 0x00
            0x00635ba0      .byte 0x00
            0x00635ba1      .byte 0x00
            0x00635ba2      .byte 0x3f
            0x00635ba3      .byte 0x80
            0x00635ba4      .byte 0x00
            0x00635ba5      .byte 0x00
            0x00635ba6      .byte 0x00
            0x00635ba7      .byte 0x00
            0x00635ba8      .byte 0x00
            0x00635ba9      .byte 0x00
            0x00635baa      .byte 0x00
            0x00635bab      .byte 0x00
            0x00635bac      .byte 0x00
            0x00635bad      .byte 0x00
            0x00635bae      .byte 0x00
            0x00635baf      .byte 0x00
            0x00635bb0      .byte 0x00
            0x00635bb1      .byte 0x00
            0x00635bb2      .byte 0x00
            0x00635bb3      .byte 0x00
            0x00635bb4      .byte 0x00
            0x00635bb5      .byte 0x00
            0x00635bb6      .byte 0x3f
            0x00635bb7      .byte 0x80
            0x00635bb8      .byte 0x00
            0x00635bb9      .byte 0x00
            0x00635bba      .byte 0x00
            0x00635bbb      .byte 0x00
            0x00635bbc      .byte 0x00
            0x00635bbd      .byte 0x00
            0x00635bbe      .byte 0x3f
            0x00635bbf      .byte 0x80
            0x00635bc0      .byte 0x00
            0x00635bc1      .byte 0x00
            0x00635bc2      .byte 0x3f
            0x00635bc3      .byte 0x80
            0x00635bc4      .byte 0x00
            0x00635bc5      .byte 0x00
            0x00635bc6      .byte 0x3f
            0x00635bc7      .byte 0x80
            0x00635bc8      .byte 0x00
            0x00635bc9      .byte 0x00
            0x00635bca      .byte 0x00
            0x00635bcb      .byte 0x00
            0x00635bcc      .byte 0x00
            0x00635bcd      .byte 0x00
            0x00635bce      .byte 0x00
            0x00635bcf      .byte 0x00
            0x00635bd0      .byte 0x00
            0x00635bd1      .byte 0x00
            0x00635bd2      .byte 0x00
            0x00635bd3      .byte 0x00
            0x00635bd4      .byte 0x00
            0x00635bd5      .byte 0x00
            0x00635bd6      .byte 0x02
            0x00635bd7      .byte 0xc7
            0x00635bd8      .byte 0x01
            0x00635bd9      .byte 0xe5
            0x00635bda      .byte 0x03
            0x00635bdb      .byte 0x00
            0x00635bdc      .byte 0x01
            0x00635bdd      .byte 0xe4
            0x00635bde      .byte 0x02
            0x00635bdf      .byte 0xbd
            0x00635be0      .byte 0x02
            0x00635be1      .byte 0x3f
            0x00635be2      .byte 0x00
            0x00635be3      .byte 0x01
            0x00635be4      .byte 0x00
            0x00635be5      .byte 0x02
            0x00635be6      .byte 0x00
            0x00635be7      .byte 0x04
            0x00635be8      .byte 0x00
            0x00635be9      .byte 0x07
            0x00635bea      .byte 0x00
            0x00635beb      .byte 0x0f
            0x00635bec      .byte 0x00
            0x00635bed      .byte 0x1f
            0x00635bee      .byte 0x00
            0x00635bef      .byte 0x05
            0x00635bf0      .byte 0x00
            0x00635bf1      .byte 0x0d
            0x00635bf2      .byte 0x00
            0x00635bf3      .byte 0x1b
            0x00635bf4      .byte 0x00
            0x00635bf5      .byte 0x39
            0x00635bf6      .byte 0x00
            0x00635bf7      .byte 0x3f
            0x00635bf8      .byte 0x00
            0x00635bf9      .byte 0x64
            0x00635bfa      .byte 0x00
            0x00635bfb      .byte 0xeb
            0x00635bfc      .byte 0x00
            0x00635bfd      .byte 0x80
            0x00635bfe      .byte 0x00
            0x00635bff      .byte 0x80
            0x00635c00      .byte 0x00
            0x00635c01      .byte 0xeb
            0x00635c02      .byte 0x00
            0x00635c03      .byte 0x80
            0x00635c04      .byte 0x00
            0x00635c05      .byte 0x80
            0x00635c06      .byte 0x00
            0x00635c07      .byte 0xeb
            0x00635c08      .byte 0x00
            0x00635c09      .byte 0x80
            0x00635c0a      .byte 0x00
            0x00635c0b      .byte 0x80
            0x00635c0c      .byte 0x00
            0x00635c0d      .byte 0xeb
            0x00635c0e      .byte 0x00
            0x00635c0f      .byte 0x80
            0x00635c10      .byte 0x00
            0x00635c11      .byte 0x80
            0x00635c12      .byte 0x00
            0x00635c13      .byte 0xeb
            0x00635c14      .byte 0x00
            0x00635c15      .byte 0x80
            0x00635c16      .byte 0x00
            0x00635c17      .byte 0x80
            0x00635c18      .byte 0x00
            0x00635c19      .byte 0xeb
            0x00635c1a      .byte 0x00
            0x00635c1b      .byte 0x80
            0x00635c1c      .byte 0x00
            0x00635c1d      .byte 0x80
            0x00635c1e      .byte 0x00
            0x00635c1f      .byte 0xeb
            0x00635c20      .byte 0x00
            0x00635c21      .byte 0x80
            0x00635c22      .byte 0x00
            0x00635c23      .byte 0x80
            0x00635c24      .byte 0x00
            0x00635c25      .byte 0xeb
            0x00635c26      .byte 0x00
            0x00635c27      .byte 0x80
            0x00635c28      .byte 0x00
            0x00635c29      .byte 0x80
            0x00635c2a      .byte 0x00
            0x00635c2b      .byte 0x10
            0x00635c2c      .byte 0x00
            0x00635c2d      .byte 0x80
            0x00635c2e      .byte 0x00
            0x00635c2f      .byte 0x80
            0x00635c30      .byte 0x00
            0x00635c31      .byte 0x2f
            0x00635c32      .byte 0x00
            0x00635c33      .byte 0x80
            0x00635c34      .byte 0x00
            0x00635c35      .byte 0x80
            0x00635c36      .byte 0x00
            0x00635c37      .byte 0x4d
            0x00635c38      .byte 0x00
            0x00635c39      .byte 0x80
            0x00635c3a      .byte 0x00
            0x00635c3b      .byte 0x80
            0x00635c3c      .byte 0x00
            0x00635c3d      .byte 0x6e
            0x00635c3e      .byte 0x00
            0x00635c3f      .byte 0x80
            0x00635c40      .byte 0x00
            0x00635c41      .byte 0x80
            0x00635c42      .byte 0x00
            0x00635c43      .byte 0xeb
            0x00635c44      .byte 0x00
            0x00635c45      .byte 0x80
            0x00635c46      .byte 0x00
            0x00635c47      .byte 0x80
            0x00635c48      .byte 0x00
            0x00635c49      .byte 0xeb
            0x00635c4a      .byte 0x00
            0x00635c4b      .byte 0x80
            0x00635c4c      .byte 0x00
            0x00635c4d      .byte 0x80
            0x00635c4e      .byte 0x00
            0x00635c4f      .byte 0xeb
            0x00635c50      .byte 0x00
            0x00635c51      .byte 0x80
            0x00635c52      .byte 0x00
            0x00635c53      .byte 0x80
            0x00635c54      .byte 0x00
            0x00635c55      .byte 0xeb
            0x00635c56      .byte 0x00
            0x00635c57      .byte 0x80
            0x00635c58      .byte 0x00
            0x00635c59      .byte 0x80
            0x00635c5a      .byte 0x00
            0x00635c5b      .byte 0x8d
            0x00635c5c      .byte 0x00
            0x00635c5d      .byte 0x80
            0x00635c5e      .byte 0x00
            0x00635c5f      .byte 0x80
            0x00635c60      .byte 0x00
            0x00635c61      .byte 0xac
            0x00635c62      .byte 0x00
            0x00635c63      .byte 0x80
            0x00635c64      .byte 0x00
            0x00635c65      .byte 0x80
            0x00635c66      .byte 0x00
            0x00635c67      .byte 0xcc
            0x00635c68      .byte 0x00
            0x00635c69      .byte 0x80
            0x00635c6a      .byte 0x00
            0x00635c6b      .byte 0x80
            0x00635c6c      .byte 0x00
            0x00635c6d      .byte 0xeb
            0x00635c6e      .byte 0x00
            0x00635c6f      .byte 0x80
            0x00635c70      .byte 0x00
            0x00635c71      .byte 0x80
            0x00635c72      .byte 0x00
            0x00635c73      .byte 0xeb
            0x00635c74      .byte 0x00
            0x00635c75      .byte 0x80
            0x00635c76      .byte 0x00
            0x00635c77      .byte 0x80
            0x00635c78      .byte 0x00
            0x00635c79      .byte 0xeb
            0x00635c7a      .byte 0x00
            0x00635c7b      .byte 0x80
            0x00635c7c      .byte 0x00
            0x00635c7d      .byte 0x80
            0x00635c7e      .byte 0x00
            0x00635c7f      .byte 0xeb
            0x00635c80      .byte 0x00
            0x00635c81      .byte 0x80
            0x00635c82      .byte 0x00
            0x00635c83      .byte 0x80
            0x00635c84      .byte 0x00
            0x00635c85      .byte 0xeb
            0x00635c86      .byte 0x00
            0x00635c87      .byte 0x80
            0x00635c88      .byte 0x00
            0x00635c89      .byte 0x80
            0x00635c8a      .byte 0x00
            0x00635c8b      .byte 0xa2
            0x00635c8c      .byte 0x00
            0x00635c8d      .byte 0x2c
            0x00635c8e      .byte 0x00
            0x00635c8f      .byte 0x8e
            0x00635c90      .byte 0x00
            0x00635c91      .byte 0x84
            0x00635c92      .byte 0x00
            0x00635c93      .byte 0x9d
            0x00635c94      .byte 0x00
            0x00635c95      .byte 0x2c
            0x00635c96      .byte 0x00
            0x00635c97      .byte 0x71
            0x00635c98      .byte 0x00
            0x00635c99      .byte 0x49
            0x00635c9a      .byte 0x00
            0x00635c9b      .byte 0x3a
            0x00635c9c      .byte 0x00
            0x00635c9d      .byte 0x54
            0x00635c9e      .byte 0x00
            0x00635c9f      .byte 0xb8
            0x00635ca0      .byte 0x00
            0x00635ca1      .byte 0xc7
            0x00635ca2      .byte 0x00
            0x00635ca3      .byte 0xeb
            0x00635ca4      .byte 0x00
            0x00635ca5      .byte 0x80
            0x00635ca6      .byte 0x00
            0x00635ca7      .byte 0x80
            0x00635ca8      .byte 0x00
            0x00635ca9      .byte 0xeb
            0x00635caa      .byte 0x00
            0x00635cab      .byte 0x80
            0x00635cac      .byte 0x00
            0x00635cad      .byte 0x80
            0x00635cae      .byte 0x00
            0x00635caf      .byte 0xeb
            0x00635cb0      .byte 0x00
            0x00635cb1      .byte 0x80
            0x00635cb2      .byte 0x00
            0x00635cb3      .byte 0x80
            0x00635cb4      .byte 0x00
            0x00635cb5      .byte 0xeb
            0x00635cb6      .byte 0x00
            0x00635cb7      .byte 0x80
            0x00635cb8      .byte 0x00
            0x00635cb9      .byte 0x80
            0x00635cba      .byte 0x00
            0x00635cbb      .byte 0x41
            0x00635cbc      .byte 0x00
            0x00635cbd      .byte 0x64
            0x00635cbe      .byte 0x00
            0x00635cbf      .byte 0xd4
            0x00635cc0      .byte 0x00
            0x00635cc1      .byte 0x23
            0x00635cc2      .byte 0x00
            0x00635cc3      .byte 0xd4
            0x00635cc4      .byte 0x00
            0x00635cc5      .byte 0x73
            0x00635cc6      .byte 0x00
            0x00635cc7      .byte 0xd2
            0x00635cc8      .byte 0x00
            0x00635cc9      .byte 0x10
            0x00635cca      .byte 0x00
            0x00635ccb      .byte 0x92
            0x00635ccc      .byte 0x00
            0x00635ccd      .byte 0xaa
            0x00635cce      .byte 0x00
            0x00635ccf      .byte 0xa6
            0x00635cd0      .byte 0x00
            0x00635cd1      .byte 0x10
            0x00635cd2      .byte 0x00
            0x00635cd3      .byte 0xeb
            0x00635cd4      .byte 0x00
            0x00635cd5      .byte 0x80
            0x00635cd6      .byte 0x00
            0x00635cd7      .byte 0x80
            0x00635cd8      .byte 0x00
            0x00635cd9      .byte 0xeb
            0x00635cda      .byte 0x00
            0x00635cdb      .byte 0x80
            0x00635cdc      .byte 0x00
            0x00635cdd      .byte 0x80
            0x00635cde      .byte 0x00
            0x00635cdf      .byte 0xeb
            0x00635ce0      .byte 0x00
            0x00635ce1      .byte 0x80
            0x00635ce2      .byte 0x00
            0x00635ce3      .byte 0x80
            0x00635ce4      .byte 0x00
            0x00635ce5      .byte 0xeb
            0x00635ce6      .byte 0x00
            0x00635ce7      .byte 0x80
            0x00635ce8      .byte 0x00
            0x00635ce9      .byte 0x80
            0x00635cea      .byte 0x00
            0x00635ceb      .byte 0x91
            0x00635cec      .byte 0x00
            0x00635ced      .byte 0x36
            0x00635cee      .byte 0x00
            0x00635cef      .byte 0x22
            0x00635cf0      .byte 0x00
            0x00635cf1      .byte 0x6a
            0x00635cf2      .byte 0x00
            0x00635cf3      .byte 0xca
            0x00635cf4      .byte 0x00
            0x00635cf5      .byte 0xde
            0x00635cf6      .byte 0x00
            0x00635cf7      .byte 0x51
            0x00635cf8      .byte 0x00
            0x00635cf9      .byte 0x5a
            0x00635cfa      .byte 0x00
            0x00635cfb      .byte 0xf0
            0x00635cfc      .byte 0x00
            0x00635cfd      .byte 0x29
            0x00635cfe      .byte 0x00
            0x00635cff      .byte 0xf0
            0x00635d00      .byte 0x00
            0x00635d01      .byte 0x6e
            0x00635d02      .byte 0x00
            0x00635d03      .byte 0xeb
            0x00635d04      .byte 0x00
            0x00635d05      .byte 0x80
            0x00635d06      .byte 0x00
            0x00635d07      .byte 0x80
            0x00635d08      .byte 0x00
            0x00635d09      .byte 0xeb
            0x00635d0a      .byte 0x00
            0x00635d0b      .byte 0x80
            0x00635d0c      .byte 0x00
            0x00635d0d      .byte 0x80
            0x00635d0e      .byte 0x00
            0x00635d0f      .byte 0xeb
            0x00635d10      .byte 0x00
            0x00635d11      .byte 0x80
            0x00635d12      .byte 0x00
            0x00635d13      .byte 0x80
            0x00635d14      .byte 0x00
            0x00635d15      .byte 0xeb
            0x00635d16      .byte 0x00
            0x00635d17      .byte 0x80
            0x00635d18      .byte 0x00
            0x00635d19      .byte 0x80
            0x00635d1a      .byte 0x00
            0x00635d1b      .byte 0x10
            0x00635d1c      .byte 0x00
            0x00635d1d      .byte 0x80
            0x00635d1e      .byte 0x00
            0x00635d1f      .byte 0x80
            0x00635d20      .byte 0x00
            0x00635d21      .byte 0x3c
            0x00635d22      .byte 0x00
            0x00635d23      .byte 0x80
            0x00635d24      .byte 0x00
            0x00635d25      .byte 0x80
            0x00635d26      .byte 0x00
            0x00635d27      .byte 0x68
            0x00635d28      .byte 0x00
            0x00635d29      .byte 0x80
            0x00635d2a      .byte 0x00
            0x00635d2b      .byte 0x80
            0x00635d2c      .byte 0x00
            0x00635d2d      .byte 0x93
            0x00635d2e      .byte 0x00
            0x00635d2f      .byte 0x80
            0x00635d30      .byte 0x00
            0x00635d31      .byte 0x80
            0x00635d32      .byte 0x00
            0x00635d33      .byte 0xbf
            0x00635d34      .byte 0x00
            0x00635d35      .byte 0x80
            0x00635d36      .byte 0x00
            0x00635d37      .byte 0x80
            0x00635d38      .byte 0x00
            0x00635d39      .byte 0xeb
            0x00635d3a      .byte 0x00
            0x00635d3b      .byte 0x80
            0x00635d3c      .byte 0x00
            0x00635d3d      .byte 0x80
            0x00635d3e      .byte 0x00
            0x00635d3f      .byte 0xeb
            0x00635d40      .byte 0x00
            0x00635d41      .byte 0x80
            0x00635d42      .byte 0x00
            0x00635d43      .byte 0x80
            0x00635d44      .byte 0x00
            0x00635d45      .byte 0xeb
            0x00635d46      .byte 0x00
            0x00635d47      .byte 0x80
            0x00635d48      .byte 0x00
            0x00635d49      .byte 0x80
            0x00635d4a      .byte 0x00
            0x00635d4b      .byte 0x6a
            0x00635d4c      .byte 0x00
            0x00635d4d      .byte 0xca
            0x00635d4e      .byte 0x00
            0x00635d4f      .byte 0xdd
            0x00635d50      .byte 0x00
            0x00635d51      .byte 0x51
            0x00635d52      .byte 0x00
            0x00635d53      .byte 0x5a
            0x00635d54      .byte 0x00
            0x00635d55      .byte 0xf0
            0x00635d56      .byte 0x00
            0x00635d57      .byte 0xd2
            0x00635d58      .byte 0x00
            0x00635d59      .byte 0x10
            0x00635d5a      .byte 0x00
            0x00635d5b      .byte 0x92
            0x00635d5c      .byte 0x00
            0x00635d5d      .byte 0x91
            0x00635d5e      .byte 0x00
            0x00635d5f      .byte 0x36
            0x00635d60      .byte 0x00
            0x00635d61      .byte 0x23
            0x00635d62      .byte 0x00
            0x00635d63      .byte 0xaa
            0x00635d64      .byte 0x00
            0x00635d65      .byte 0xa6
            0x00635d66      .byte 0x00
            0x00635d67      .byte 0x10
            0x00635d68      .byte 0x00
            0x00635d69      .byte 0x29
            0x00635d6a      .byte 0x00
            0x00635d6b      .byte 0xf0
            0x00635d6c      .byte 0x00
            0x00635d6d      .byte 0x6e
            0x00635d6e      .byte 0x00
            0x00635d6f      .byte 0xeb
            0x00635d70      .byte 0x00
            0x00635d71      .byte 0x80
            0x00635d72      .byte 0x00
            0x00635d73      .byte 0x80
            0x00635d74      .byte 0x00
            0x00635d75      .byte 0xeb
            0x00635d76      .byte 0x00
            0x00635d77      .byte 0x80
            0x00635d78      .byte 0x00
            0x00635d79      .byte 0x80
            0x00635d7a      .byte 0x00
            0x00635d7b      .byte 0x76
            0x00635d7c      .byte 0x00
            0x00635d7d      .byte 0xa6
            0x00635d7e      .byte 0x00
            0x00635d7f      .byte 0xb0
            0x00635d80      .byte 0x00
            0x00635d81      .byte 0x69
            0x00635d82      .byte 0x00
            0x00635d83      .byte 0x6d
            0x00635d84      .byte 0x00
            0x00635d85      .byte 0xba
            0x00635d86      .byte 0x00
            0x00635d87      .byte 0xab
            0x00635d88      .byte 0x00
            0x00635d89      .byte 0x46
            0x00635d8a      .byte 0x00
            0x00635d8b      .byte 0x89
            0x00635d8c      .byte 0x00
            0x00635d8d      .byte 0x8a
            0x00635d8e      .byte 0x00
            0x00635d8f      .byte 0x5a
            0x00635d90      .byte 0x00
            0x00635d91      .byte 0x50
            0x00635d92      .byte 0x00
            0x00635d93      .byte 0x96
            0x00635d94      .byte 0x00
            0x00635d95      .byte 0x93
            0x00635d96      .byte 0x00
            0x00635d97      .byte 0x46
            0x00635d98      .byte 0x00
            0x00635d99      .byte 0x54
            0x00635d9a      .byte 0x00
            0x00635d9b      .byte 0xba
            0x00635d9c      .byte 0x00
            0x00635d9d      .byte 0x77
            0x00635d9e      .byte 0x00
            0x00635d9f      .byte 0xeb
            0x00635da0      .byte 0x00
            0x00635da1      .byte 0x80
            0x00635da2      .byte 0x00
            0x00635da3      .byte 0x80
            0x00635da4      .byte 0x00
            0x00635da5      .byte 0xeb
            0x00635da6      .byte 0x00
            0x00635da7      .byte 0x80
            0x00635da8      .byte 0x00
            0x00635da9      .byte 0x80
            0x00635daa      .byte 0x00
            0x00635dab      .byte 0xb1
            0x00635dac      .byte 0x00
            0x00635dad      .byte 0x6c
            0x00635dae      .byte 0x00
            0x00635daf      .byte 0x9a
            0x00635db0      .byte 0x00
            0x00635db1      .byte 0xa7
            0x00635db2      .byte 0x00
            0x00635db3      .byte 0x5c
            0x00635db4      .byte 0x00
            0x00635db5      .byte 0x97
            0x00635db6      .byte 0x00
            0x00635db7      .byte 0xa6
            0x00635db8      .byte 0x00
            0x00635db9      .byte 0x54
            0x00635dba      .byte 0x00
            0x00635dbb      .byte 0xa8
            0x00635dbc      .byte 0x00
            0x00635dbd      .byte 0x9e
            0x00635dbe      .byte 0x00
            0x00635dbf      .byte 0x55
            0x00635dc0      .byte 0x00
            0x00635dc1      .byte 0x73
            0x00635dc2      .byte 0x00
            0x00635dc3      .byte 0xc8
            0x00635dc4      .byte 0x00
            0x00635dc5      .byte 0x85
            0x00635dc6      .byte 0x00
            0x00635dc7      .byte 0x78
            0x00635dc8      .byte 0x00
            0x00635dc9      .byte 0x50
            0x00635dca      .byte 0x00
            0x00635dcb      .byte 0x92
            0x00635dcc      .byte 0x00
            0x00635dcd      .byte 0x7a
            0x00635dce      .byte 0x00
            0x00635dcf      .byte 0xeb
            0x00635dd0      .byte 0x00
            0x00635dd1      .byte 0x80
            0x00635dd2      .byte 0x00
            0x00635dd3      .byte 0x80
            0x00635dd4      .byte 0x00
            0x00635dd5      .byte 0xeb
            0x00635dd6      .byte 0x00
            0x00635dd7      .byte 0x80
            0x00635dd8      .byte 0x00
            0x00635dd9      .byte 0x80
            0x00635dda      .byte 0x00
            0x00635ddb      .byte 0x74
            0x00635ddc      .byte 0x00
            0x00635ddd      .byte 0x62
            0x00635dde      .byte 0x00
            0x00635ddf      .byte 0xaa
            0x00635de0      .byte 0x00
            0x00635de1      .byte 0x6d
            0x00635de2      .byte 0x00
            0x00635de3      .byte 0x62
            0x00635de4      .byte 0x00
            0x00635de5      .byte 0x98
            0x00635de6      .byte 0x00
            0x00635de7      .byte 0x98
            0x00635de8      .byte 0x00
            0x00635de9      .byte 0x38
            0x00635dea      .byte 0x00
            0x00635deb      .byte 0xab
            0x00635dec      .byte 0x00
            0x00635ded      .byte 0x69
            0x00635dee      .byte 0x00
            0x00635def      .byte 0x62
            0x00635df0      .byte 0x00
            0x00635df1      .byte 0x6d
            0x00635df2      .byte 0x00
            0x00635df3      .byte 0xb1
            0x00635df4      .byte 0x00
            0x00635df5      .byte 0x90
            0x00635df6      .byte 0x00
            0x00635df7      .byte 0x6d
            0x00635df8      .byte 0x00
            0x00635df9      .byte 0x38
            0x00635dfa      .byte 0x00
            0x00635dfb      .byte 0x86
            0x00635dfc      .byte 0x00
            0x00635dfd      .byte 0x76
            0x00635dfe      .byte 0x00
            0x00635dff      .byte 0xeb
            0x00635e00      .byte 0x00
            0x00635e01      .byte 0x80
            0x00635e02      .byte 0x00
            0x00635e03      .byte 0x80
            0x00635e04      .byte 0x00
            0x00635e05      .byte 0xeb
            0x00635e06      .byte 0x00
            0x00635e07      .byte 0x80
            0x00635e08      .byte 0x00
            0x00635e09      .byte 0x80
            0x00635e0a      .byte 0x00
            0x00635e0b      .byte 0x46
            0x00635e0c      .byte 0x00
            0x00635e0d      .byte 0x69
            0x00635e0e      .byte 0x00
            0x00635e0f      .byte 0x9e
            0x00635e10      .byte 0x00
            0x00635e11      .byte 0x35
            0x00635e12      .byte 0x00
            0x00635e13      .byte 0x6d
            0x00635e14      .byte 0x00
            0x00635e15      .byte 0x9b
            0x00635e16      .byte 0x00
            0x00635e17      .byte 0x77
            0x00635e18      .byte 0x00
            0x00635e19      .byte 0x49
            0x00635e1a      .byte 0x00
            0x00635e1b      .byte 0xc2
            0x00635e1c      .byte 0x00
            0x00635e1d      .byte 0x31
            0x00635e1e      .byte 0x00
            0x00635e1f      .byte 0x71
            0x00635e20      .byte 0x00
            0x00635e21      .byte 0x6f
            0x00635e22      .byte 0x00
            0x00635e23      .byte 0xa3
            0x00635e24      .byte 0x00
            0x00635e25      .byte 0x96
            0x00635e26      .byte 0x00
            0x00635e27      .byte 0x67
            0x00635e28      .byte 0x00
            0x00635e29      .byte 0x54
            0x00635e2a      .byte 0x00
            0x00635e2b      .byte 0x98
            0x00635e2c      .byte 0x00
            0x00635e2d      .byte 0x9c
            0x00635e2e      .byte 0x00
            0x00635e2f      .byte 0xeb
            0x00635e30      .byte 0x00
            0x00635e31      .byte 0x80
            0x00635e32      .byte 0x00
            0x00635e33      .byte 0x80
            0x00635e34      .byte 0x00
            0x00635e35      .byte 0xeb
            0x00635e36      .byte 0x00
            0x00635e37      .byte 0x80
            0x00635e38      .byte 0x00
            0x00635e39      .byte 0x80
            0x00635e3a      .byte 0x00
            0x00635e3b      .byte 0x10
            0x00635e3c      .byte 0x00
            0x00635e3d      .byte 0x80
            0x00635e3e      .byte 0x00
            0x00635e3f      .byte 0x80
            0x00635e40      .byte 0x00
            0x00635e41      .byte 0x3c
            0x00635e42      .byte 0x00
            0x00635e43      .byte 0x80
            0x00635e44      .byte 0x00
            0x00635e45      .byte 0x80
            0x00635e46      .byte 0x00
            0x00635e47      .byte 0x68
            0x00635e48      .byte 0x00
            0x00635e49      .byte 0x80
            0x00635e4a      .byte 0x00
            0x00635e4b      .byte 0x80
            0x00635e4c      .byte 0x00
            0x00635e4d      .byte 0x93
            0x00635e4e      .byte 0x00
            0x00635e4f      .byte 0x80
            0x00635e50      .byte 0x00
            0x00635e51      .byte 0x80
            0x00635e52      .byte 0x00
            0x00635e53      .byte 0xbf
            0x00635e54      .byte 0x00
            0x00635e55      .byte 0x80
            0x00635e56      .byte 0x00
            0x00635e57      .byte 0x80
            0x00635e58      .byte 0x00
            0x00635e59      .byte 0xeb
            0x00635e5a      .byte 0x00
            0x00635e5b      .byte 0x80
            0x00635e5c      .byte 0x00
            0x00635e5d      .byte 0x80
            0x00635e5e      .byte 0x00
            0x00635e5f      .byte 0xeb
            0x00635e60      .byte 0x00
            0x00635e61      .byte 0x80
            0x00635e62      .byte 0x00
            0x00635e63      .byte 0x80
            0x00635e64      .byte 0x00
            0x00635e65      .byte 0xeb
            0x00635e66      .byte 0x00
            0x00635e67      .byte 0x80
            0x00635e68      .byte 0x00
            0x00635e69      .byte 0x80
            0x00635e6a      .byte 0x00
            0x00635e6b      .byte 0x56
            0x00635e6c      .byte 0x00
            0x00635e6d      .byte 0x86
            0x00635e6e      .byte 0x00
            0x00635e6f      .byte 0xd2
            0x00635e70      .byte 0x00
            0x00635e71      .byte 0x49
            0x00635e72      .byte 0x00
            0x00635e73      .byte 0x5f
            0x00635e74      .byte 0x00
            0x00635e75      .byte 0xd3
            0x00635e76      .byte 0x00
            0x00635e77      .byte 0xcb
            0x00635e78      .byte 0x00
            0x00635e79      .byte 0x1d
            0x00635e7a      .byte 0x00
            0x00635e7b      .byte 0x90
            0x00635e7c      .byte 0x00
            0x00635e7d      .byte 0x4e
            0x00635e7e      .byte 0x00
            0x00635e7f      .byte 0x63
            0x00635e80      .byte 0x00
            0x00635e81      .byte 0x56
            0x00635e82      .byte 0x00
            0x00635e83      .byte 0x66
            0x00635e84      .byte 0x00
            0x00635e85      .byte 0xbe
            0x00635e86      .byte 0x00
            0x00635e87      .byte 0x46
            0x00635e88      .byte 0x00
            0x00635e89      .byte 0x19
            0x00635e8a      .byte 0x00
            0x00635e8b      .byte 0xa4
            0x00635e8c      .byte 0x00
            0x00635e8d      .byte 0x7b
            0x00635e8e      .byte 0x00
            0x00635e8f      .byte 0xeb
            0x00635e90      .byte 0x00
            0x00635e91      .byte 0x80
            0x00635e92      .byte 0x00
            0x00635e93      .byte 0x80
            0x00635e94      .byte 0x00
            0x00635e95      .byte 0xeb
            0x00635e96      .byte 0x00
            0x00635e97      .byte 0x80
            0x00635e98      .byte 0x00
            0x00635e99      .byte 0x80
            0x00635e9a      .byte 0x00
            0x00635e9b      .byte 0x7a
            0x00635e9c      .byte 0x00
            0x00635e9d      .byte 0x87
            0x00635e9e      .byte 0x00
            0x00635e9f      .byte 0xaa
            0x00635ea0      .byte 0x00
            0x00635ea1      .byte 0x70
            0x00635ea2      .byte 0x00
            0x00635ea3      .byte 0x67
            0x00635ea4      .byte 0x00
            0x00635ea5      .byte 0xaf
            0x00635ea6      .byte 0x00
            0x00635ea7      .byte 0xab
            0x00635ea8      .byte 0x00
            0x00635ea9      .byte 0x51
            0x00635eaa      .byte 0x00
            0x00635eab      .byte 0x8d
            0x00635eac      .byte 0x00
            0x00635ead      .byte 0x7a
            0x00635eae      .byte 0x00
            0x00635eaf      .byte 0x6c
            0x00635eb0      .byte 0x00
            0x00635eb1      .byte 0x67
            0x00635eb2      .byte 0x00
            0x00635eb3      .byte 0x85
            0x00635eb4      .byte 0x00
            0x00635eb5      .byte 0x96
            0x00635eb6      .byte 0x00
            0x00635eb7      .byte 0x60
            0x00635eb8      .byte 0x00
            0x00635eb9      .byte 0x52
            0x00635eba      .byte 0x00
            0x00635ebb      .byte 0x9b
            0x00635ebc      .byte 0x00
            0x00635ebd      .byte 0x81
            0x00635ebe      .byte 0x00
            0x00635ebf      .byte 0xeb
            0x00635ec0      .byte 0x00
            0x00635ec1      .byte 0x80
            0x00635ec2      .byte 0x00
            0x00635ec3      .byte 0x80
            0x00635ec4      .byte 0x00
            0x00635ec5      .byte 0xeb
            0x00635ec6      .byte 0x00
            0x00635ec7      .byte 0x80
            0x00635ec8      .byte 0x00
            0x00635ec9      .byte 0x80
            0x00635eca      .byte 0x00
            0x00635ecb      .byte 0xb1
            0x00635ecc      .byte 0x00
            0x00635ecd      .byte 0x6c
            0x00635ece      .byte 0x00
            0x00635ecf      .byte 0x9a
            0x00635ed0      .byte 0x00
            0x00635ed1      .byte 0xa7
            0x00635ed2      .byte 0x00
            0x00635ed3      .byte 0x5c
            0x00635ed4      .byte 0x00
            0x00635ed5      .byte 0x97
            0x00635ed6      .byte 0x00
            0x00635ed7      .byte 0xa6
            0x00635ed8      .byte 0x00
            0x00635ed9      .byte 0x54
            0x00635eda      .byte 0x00
            0x00635edb      .byte 0xa8
            0x00635edc      .byte 0x00
            0x00635edd      .byte 0x9e
            0x00635ede      .byte 0x00
            0x00635edf      .byte 0x55
            0x00635ee0      .byte 0x00
            0x00635ee1      .byte 0x73
            0x00635ee2      .byte 0x00
            0x00635ee3      .byte 0xc8
            0x00635ee4      .byte 0x00
            0x00635ee5      .byte 0x85
            0x00635ee6      .byte 0x00
            0x00635ee7      .byte 0x78
            0x00635ee8      .byte 0x00
            0x00635ee9      .byte 0x50
            0x00635eea      .byte 0x00
            0x00635eeb      .byte 0x92
            0x00635eec      .byte 0x00
            0x00635eed      .byte 0x7a
            0x00635eee      .byte 0x00
            0x00635eef      .byte 0xeb
            0x00635ef0      .byte 0x00
            0x00635ef1      .byte 0x80
            0x00635ef2      .byte 0x00
            0x00635ef3      .byte 0x80
            0x00635ef4      .byte 0x00
            0x00635ef5      .byte 0xeb
            0x00635ef6      .byte 0x00
            0x00635ef7      .byte 0x80
            0x00635ef8      .byte 0x00
            0x00635ef9      .byte 0x80
            0x00635efa      .byte 0x00
            0x00635efb      .byte 0x74
            0x00635efc      .byte 0x00
            0x00635efd      .byte 0x62
            0x00635efe      .byte 0x00
            0x00635eff      .byte 0xaa
            0x00635f00      .byte 0x00
            0x00635f01      .byte 0x6d
            0x00635f02      .byte 0x00
            0x00635f03      .byte 0x62
            0x00635f04      .byte 0x00
            0x00635f05      .byte 0x98
            0x00635f06      .byte 0x00
            0x00635f07      .byte 0x98
            0x00635f08      .byte 0x00
            0x00635f09      .byte 0x38
            0x00635f0a      .byte 0x00
            0x00635f0b      .byte 0xab
            0x00635f0c      .byte 0x00
            0x00635f0d      .byte 0x69
            0x00635f0e      .byte 0x00
            0x00635f0f      .byte 0x62
            0x00635f10      .byte 0x00
            0x00635f11      .byte 0x6d
            0x00635f12      .byte 0x00
            0x00635f13      .byte 0xb1
            0x00635f14      .byte 0x00
            0x00635f15      .byte 0x90
            0x00635f16      .byte 0x00
            0x00635f17      .byte 0x6d
            0x00635f18      .byte 0x00
            0x00635f19      .byte 0x38
            0x00635f1a      .byte 0x00
            0x00635f1b      .byte 0x86
            0x00635f1c      .byte 0x00
            0x00635f1d      .byte 0x76
            0x00635f1e      .byte 0x00
            0x00635f1f      .byte 0xeb
            0x00635f20      .byte 0x00
            0x00635f21      .byte 0x80
            0x00635f22      .byte 0x00
            0x00635f23      .byte 0x80
            0x00635f24      .byte 0x00
            0x00635f25      .byte 0xeb
            0x00635f26      .byte 0x00
            0x00635f27      .byte 0x80
            0x00635f28      .byte 0x00
            0x00635f29      .byte 0x80
            0x00635f2a      .byte 0x00
            0x00635f2b      .byte 0x46
            0x00635f2c      .byte 0x00
            0x00635f2d      .byte 0x69
            0x00635f2e      .byte 0x00
            0x00635f2f      .byte 0x9e
            0x00635f30      .byte 0x00
            0x00635f31      .byte 0x35
            0x00635f32      .byte 0x00
            0x00635f33      .byte 0x6d
            0x00635f34      .byte 0x00
            0x00635f35      .byte 0x9b
            0x00635f36      .byte 0x00
            0x00635f37      .byte 0x77
            0x00635f38      .byte 0x00
            0x00635f39      .byte 0x49
            0x00635f3a      .byte 0x00
            0x00635f3b      .byte 0xc2
            0x00635f3c      .byte 0x00
            0x00635f3d      .byte 0x31
            0x00635f3e      .byte 0x00
            0x00635f3f      .byte 0x71
            0x00635f40      .byte 0x00
            0x00635f41      .byte 0x6f
            0x00635f42      .byte 0x00
            0x00635f43      .byte 0xa3
            0x00635f44      .byte 0x00
            0x00635f45      .byte 0x96
            0x00635f46      .byte 0x00
            0x00635f47      .byte 0x67
            0x00635f48      .byte 0x00
            0x00635f49      .byte 0x54
            0x00635f4a      .byte 0x00
            0x00635f4b      .byte 0x98
            0x00635f4c      .byte 0x00
            0x00635f4d      .byte 0x9c
            0x00635f4e      .byte 0x00
            0x00635f4f      .byte 0xeb
            0x00635f50      .byte 0x00
            0x00635f51      .byte 0x80
            0x00635f52      .byte 0x00
            0x00635f53      .byte 0x80
            0x00635f54      .byte 0x00
            0x00635f55      .byte 0xeb
            0x00635f56      .byte 0x00
            0x00635f57      .byte 0x80
            0x00635f58      .byte 0x00
            0x00635f59      .byte 0x80
            0x00635f5a      .byte 0x7e
            0x00635f5b      .byte 0x00
            0x00635f5c      .byte 0x00
            0x00635f5d      .byte 0x00
            0x00635f5e      .byte 0x00
            0x00635f5f      .byte 0x00
            0x00635f60      .byte 0x00
            0x00635f61      .byte 0x00
            0x00635f62      .byte 0x00
            0x00635f63      .byte 0x00
            0x00635f64      .byte 0x00
            0x00635f65      .byte 0x00
            0x00635f66      .byte 0x00
            0x00635f67      .byte 0x00
            0x00635f68      .byte 0x00
            0x00635f69      .byte 0x00
            0x00635f6a      .byte 0x00
            0x00635f6b      .byte 0x00
            0x00635f6c      .byte 0x00
            0x00635f6d      .byte 0x00
            0x00635f6e      .byte 0x00
            0x00635f6f      .byte 0x00
            0x00635f70      .byte 0x00
            0x00635f71      .byte 0x00
            0x00635f72      .byte 0x00
            0x00635f73      .byte 0x00
            0x00635f74      .byte 0x00
            0x00635f75      .byte 0x00
            0x00635f76      .byte 0x00
            0x00635f77      .byte 0x00
            0x00635f78      .byte 0x00
            0x00635f79      .byte 0x00
            0x00635f7a      .byte 0x00
            0x00635f7b      .byte 0x32
            0x00635f7c      .byte 0x00
            0x00635f7d      .byte 0x80
            0x00635f7e      .byte 0x00
            0x00635f7f      .byte 0x80
            0x00635f80      .byte 0x00
            0x00635f81      .byte 0xc8
            0x00635f82      .byte 0x00
            0x00635f83      .byte 0x0c
            0x00635f84      .byte 0x01
            0x00635f85      .byte 0xb8
            0x00635f86      .byte 0x00
            0x00635f87      .byte 0x6c
            0x00635f88      .byte 0x00
            0x00635f89      .byte 0x1a
            0x00635f8a      .byte 0x00
            0x00635f8b      .byte 0x16
            0x00635f8c      .byte 0xff
            0x00635f8d      .byte 0xf8
            0x00635f8e      .byte 0xff
            0x00635f8f      .byte 0xf6
            0x00635f90      .byte 0x00
            0x00635f91      .byte 0x02
            0x00635f92      .byte 0x00
            0x00635f93      .byte 0x02
            0x00635f94      .byte 0x1c
            0x00635f95     .string "set colours from old format." ; len=28
            0x00635fb1      .byte 0x1c
            0x00635fb2     .string "set colours from new format." ; len=28
            0x00635fce      .byte 0x35
            0x00635fcf     .string "Sampling problem during palette load. Try old format." ; len=53
            0x00636004      .byte 0x30
            0x00636005     .string "Sampling problem during old format palette load." ; len=48
            0x00636035      .byte 0x00
            0x00636036      .byte 0x3f
            0x00636037      .byte 0x80
            0x00636038      .byte 0x00
            0x00636039      .byte 0x00
            0x0063603a      .byte 0x3f
            0x0063603b      .byte 0x80
            0x0063603c      .byte 0x00
            0x0063603d      .byte 0x00
            0x0063603e      .byte 0xfe
            0x0063603f      .byte 0xff
            0x00636040      .byte 0xff
            0x00636041      .byte 0xff
            0x00636042      .byte 0xff
            0x00636043      .byte 0x07
            0x00636044      .byte 0x00
            0x00636045      .byte 0x00
            0x00636046      .byte 0x00
            0x00636047      .byte 0x00
            0x00636048      .byte 0x00
            0x00636049      .byte 0x00
            0x0063604a      .byte 0x00
            0x0063604b      .byte 0x00
            0x0063604c      .byte 0x00
            0x0063604d      .byte 0x00
            0x0063604e      .byte 0x00
            0x0063604f      .byte 0x00
            0x00636050      .byte 0x00
            0x00636051      .byte 0x00
            0x00636052      .byte 0x00
            0x00636053      .byte 0x00
            0x00636054      .byte 0x00
            0x00636055      .byte 0x00
            0x00636056      .byte 0x00
            0x00636057      .byte 0x00
            0x00636058      .byte 0x00
            0x00636059      .byte 0x00
            0x0063605a      .byte 0x00
            0x0063605b      .byte 0x00
            0x0063605c      .byte 0x00
            0x0063605d      .byte 0x00
            0x0063605e      .byte 0x03
            0x0063605f      .byte 0x79
            0x00636060      .byte 0x75
            0x00636061      .byte 0x76
            0x00636062      .byte 0x03
            0x00636063      .byte 0x68
            0x00636064      .byte 0x73
            0x00636065      .byte 0x6c
            0x00636066      .byte 0x03
            0x00636067      .byte 0x72
            0x00636068      .byte 0x67
            0x00636069      .byte 0x62
            0x0063606a      .byte 0x03
            0x0063606b      .byte 0x6c
            0x0063606c      .byte 0x61
            0x0063606d      .byte 0x62
            0x0063606e      .byte 0x03
            0x0063606f      .byte 0x63
            0x00636070      .byte 0x6d
            0x00636071      .byte 0x79
            0x00636072      .byte 0x03
            0x00636073      .byte 0x78
            0x00636074      .byte 0x79
            0x00636075      .byte 0x7a
            0x00636076      .byte 0x04
            0x00636077      .byte 0x73
            0x00636078      .byte 0x74
            0x00636079      .byte 0x65
            0x0063607a      .byte 0x6e
            0x0063607b      .byte 0x04
            0x0063607c      .byte 0x73
            0x0063607d      .byte 0x74
            0x0063607e      .byte 0x65
            0x0063607f      .byte 0x6e
            0x00636080      .byte 0x03
            0x00636081      .byte 0x17
            0x00636082     .string "don't know colour mode " ; len=23
            0x00636099      .byte 0x00
            0x0063609a      .byte 0x24
            0x0063609b      .byte 0x00
            0x0063609c      .byte 0x00
            0x0063609d      .byte 0x00
            0x0063609e      .byte 0x00
            0x0063609f      .byte 0x00
            0x006360a0      .byte 0x00
            0x006360a1      .byte 0x00
            0x006360a2      .byte 0x00
            0x006360a3      .byte 0x00
            0x006360a4      .byte 0x00
            0x006360a5      .byte 0x00
            0x006360a6      .byte 0x00
            0x006360a7      .byte 0x00
            0x006360a8      .byte 0x00
            0x006360a9      .byte 0x00
            0x006360aa      .byte 0x00
            0x006360ab      .byte 0x00
            0x006360ac      .byte 0x00
            0x006360ad      .byte 0x00
            0x006360ae      .byte 0x00
            0x006360af      .byte 0x00
            0x006360b0      .byte 0x00
            0x006360b1      .byte 0x00
            0x006360b2      .byte 0x00
            0x006360b3      .byte 0x00
            0x006360b4      .byte 0x00
            0x006360b5      .byte 0x00
            0x006360b6      .byte 0x00
            0x006360b7      .byte 0x00
            0x006360b8      .byte 0x00
            0x006360b9      .byte 0x00
            0x006360ba      .byte 0x04
            0x006360bb      .byte 0x73
            0x006360bc      .byte 0x74
            0x006360bd      .byte 0x65
            0x006360be      .byte 0x6e
            0x006360bf      .byte 0x00
            0x006360c0      .byte 0xfd
            0x006360c1      .byte 0xda
            0x006360c2      .byte 0x00
            0x006360c3      .byte 0x00
            0x006360c4      .byte 0x02
            0x006360c5      .byte 0x26
            0x006360c6      .byte 0x00
            0x006360c7      .byte 0x00
            0x006360c8      .byte 0x00
            0x006360c9      .byte 0x1a
            0x006360ca      .byte 0x00
            0x006360cb      .byte 0x14
            0x006360cc      .byte 0xff
            0x006360cd      .byte 0xf8
            0x006360ce      .byte 0xff
            0x006360cf      .byte 0xf0
            0x006360d0      .byte 0x00
            0x006360d1      .byte 0x02
            0x006360d2      .byte 0x00
            0x006360d3      .byte 0x02
            0x006360d4      .byte 0x00
            0x006360d5      .byte 0x26
            0x006360d6      .byte 0x00
            0x006360d7      .byte 0x18
            0x006360d8      .byte 0x00
            0x006360d9      .byte 0x08
            0x006360da      .byte 0x00
            0x006360db      .byte 0x80
            0x006360dc      .byte 0x07
            0x006360dd     .string "WELCOME" ; len=7
            0x006360e4      .byte 0x22
            0x006360e5      .byte 0x00
            0x006360e6      .byte 0x00
            0x006360e7      .byte 0x00
            0x006360e8      .byte 0x00
            0x006360e9      .byte 0x00
            0x006360ea      .byte 0x00
            0x006360eb      .byte 0x00
            0x006360ec      .byte 0x00
            0x006360ed      .byte 0x00
            0x006360ee      .byte 0x00
            0x006360ef      .byte 0x00
            0x006360f0      .byte 0x00
            0x006360f1      .byte 0x00
            0x006360f2      .byte 0x00
            0x006360f3      .byte 0x00
            0x006360f4      .byte 0x00
            0x006360f5      .byte 0x00
            0x006360f6      .byte 0x00
            0x006360f7      .byte 0x00
            0x006360f8      .byte 0x00
            0x006360f9      .byte 0x00
            0x006360fa      .byte 0x00
            0x006360fb      .byte 0x00
            0x006360fc      .byte 0x00
            0x006360fd      .byte 0x00
            0x006360fe      .byte 0x00
            0x006360ff      .byte 0x00
            0x00636100      .byte 0x00
            0x00636101      .byte 0x00
            0x00636102      .byte 0x00
            0x00636103      .byte 0x00
            0x00636104      .byte 0x00
            0x00636105      .byte 0x00
            0x00636106      .byte 0x00
            0x00636107      .byte 0x00
            0x00636108      .byte 0x00
            0x00636109      .byte 0x00
            0x0063610a      .byte 0x00
            0x0063610b      .byte 0x00
            0x0063610c      .byte 0x02
            0x0063610d      .byte 0x4f
            0x0063610e      .byte 0x4b
            0x0063610f      .byte 0x00
            0x00636110      .byte 0x00
            0x00636111      .byte 0x00
            0x00636112      .byte 0x00
            0x00636113      .byte 0x00
            0x00636114      .byte 0x00
            0x00636115      .byte 0x00
            0x00636116      .byte 0x00
            0x00636117      .byte 0x00
            0x00636118      .byte 0x02
            0x00636119      .byte 0x4f
            0x0063611a      .byte 0x4b
            0x0063611b      .byte 0x02
            0x0063611c      .byte 0x4f
            0x0063611d      .byte 0x4b
            0x0063611e      .byte 0x00
            0x0063611f      .byte 0x06
            0x00636120      .byte 0x00
            0x00636121      .byte 0x00
            0x00636122      .byte 0x09
            0x00636123     .string "*palette$" ; len=9
            0x0063612c      .byte 0x0e
            0x0063612d     .string "*palette dummy" ; len=14
            0x0063613b      .byte 0x05
            0x0063613c     .string "*pots" ; len=5
            0x00636141      .byte 0x02
            0x00636142      .byte 0x20
            0x00636143      .byte 0x20
            0x00636144      .byte 0x04
            0x00636145      .byte 0x70
            0x00636146      .byte 0x6f
            0x00636147      .byte 0x74
            0x00636148      .byte 0x20
            0x00636149      .byte 0x00
            0x0063614a      .byte 0x14
            0x0063614b      .byte 0x00
            0x0063614c      .byte 0x00
            0x0063614d      .byte 0x00
            0x0063614e      .byte 0x02
            0x0063614f      .byte 0x20
            0x00636150      .byte 0x20
            0x00636151      .byte 0x0b
            0x00636152     .string "mixing area" ; len=11
            0x0063615d      .byte 0x05
            0x0063615e     .string "*mode" ; len=5
            0x00636163      .byte 0x02
            0x00636164      .byte 0x3c
            0x00636165      .byte 0x3e
            0x00636166      .byte 0x05
            0x00636167     .string "val 1" ; len=5
            0x0063616c      .byte 0x02
            0x0063616d      .byte 0x3c
            0x0063616e      .byte 0x3e
            0x0063616f      .byte 0x05
            0x00636170     .string "val 2" ; len=5
            0x00636175      .byte 0x02
            0x00636176      .byte 0x3c
            0x00636177      .byte 0x3e
            0x00636178      .byte 0x05
            0x00636179     .string "val 3" ; len=5
            0x0063617e      .byte 0x00
            0x0063617f      .byte 0x04
            0x00636180      .byte 0x00
            0x00636181      .byte 0x00
            0x00636182      .byte 0x07
            0x00636183     .string "<un<d<o" ; len=7
            0x0063618a      .byte 0x00
            0x0063618b      .byte 0x08
            0x0063618c      .byte 0x00
            0x0063618d      .byte 0x00
            0x0063618e      .byte 0x05
            0x0063618f     .string "paint" ; len=5
            0x00636194      .byte 0x05
            0x00636195     .string "chalk" ; len=5
            0x0063619a      .byte 0x08
            0x0063619b     .string "airbrush" ; len=8
            0x006361a3      .byte 0x00
            0x006361a4      .byte 0x10
            0x006361a5      .byte 0x00
            0x006361a6      .byte 0x00
            0x006361a7      .byte 0x00
            0x006361a8      .byte 0x02
            0x006361a9      .byte 0x20
            0x006361aa      .byte 0x20
            0x006361ab      .byte 0x09
            0x006361ac     .string "indicator" ; len=9
            0x006361b5      .byte 0x00
            0x006361b6      .byte 0x01
            0x006361b7      .byte 0x00
            0x006361b8      .byte 0x00
            0x006361b9      .byte 0x00
            0x006361ba      .byte 0x02
            0x006361bb      .byte 0x20
            0x006361bc      .byte 0x20
            0x006361bd      .byte 0x05
            0x006361be     .string "size " ; len=5
            0x006361c3      .byte 0x00
            0x006361c4      .byte 0x10
            0x006361c5      .byte 0x00
            0x006361c6      .byte 0x00
            0x006361c7      .byte 0x00
            0x006361c8      .byte 0x02
            0x006361c9      .byte 0x20
            0x006361ca      .byte 0x20
            0x006361cb      .byte 0x0c
            0x006361cc     .string "size preview" ; len=12
            0x006361d8      .byte 0x02
            0x006361d9      .byte 0x3c
            0x006361da      .byte 0x3c
            0x006361db      .byte 0x08
            0x006361dc      .byte 0x73
            0x006361dd      .byte 0x69
            0x006361de      .byte 0x7a
            0x006361df      .byte 0x65
            0x006361e0      .byte 0x20
            0x006361e1      .byte 0x6e
            0x006361e2      .byte 0x75
            0x006361e3      .byte 0x6d
            ; XREFS: CALL 0x004dc8f6  CALL 0x004dcaae  CALL 0x004dcaf2  
            ; XREFS: CALL 0x00637ec4  CALL 0x00638adc  CALL 0x00740e6a  
            ; XREFS: CALL 0x00743d7c  
 38: PALETCOM.get_mix_area ();
           0x006361e4      4e56fffc       link.w a6, 0xfffc
           0x006361e8      bfd5           cmpa.l (a5), a7
       < 0x006361ea      6206           bhi.b 0x6361f2
          0x006361ec      44fc0002       move.w 0x2, ccr
          0x006361f0      4e76           trapv
       > 0x006361f2      defc0004       adda.w 0x4, a7
           0x006361f6      2d79008457a4.  move.l 0x8457a4, 0x8(a6)
           0x006361fe      2d79008457a8.  move.l 0x8457a8, 0xc(a6)
           0x00636206      4e5e           unlk a6
           0x00636208      4e75           rts
            ; CALL XREF from BRUSHESCOM.PAS.sel_multi_brush @ 0x631b5a
            ; CALL XREF from PALETCOM.draw_brush_size @ 0x636d0c
 150: PALETCOM.br_size ();
           0x0063620a      4e56ffe2       link.w a6, 0xffe2
           0x0063620e      bfd5           cmpa.l (a5), a7
       < 0x00636210      6206           bhi.b 0x636218
          0x00636212      44fc0002       move.w 0x2, ccr
          0x00636216      4e76           trapv
       > 0x00636218      defc001e       adda.w 0x1e, a7
           0x0063621c      48e788e0       movem.l d0/d4/a0-a2, -(a7)
           0x00636220      43f900480fc2   lea.l MENUCOM.get_boxon, a1
           0x00636226      45ee0008       lea.l 0x8(a6), a2
           0x0063622a      594f           subq.w 0x4, a7
           0x0063622c      3f3900845792   move.w 0x845792, -(a7)
           0x00636232      4eb90048d992   jsr MENU2COM.get_numeric_val
           0x00636238      544f           addq.w 0x2, a7
           0x0063623a      281f           move.l (a7)+, d4
           0x0063623c      4eb900408224   jsr fcn.00408224
           0x00636242      2d44000c       move.l d4, 0xc(a6)
           0x00636246      554f           subq.w 0x2, a7
           0x00636248      4eb9004755c2   jsr CONFIG.cfg_gender
           0x0063624e      101f           move.b (a7)+, d0
           0x00636250      0c000003       cmpi.b 0x3, d0
       < 0x00636254      6618           bne.b 0x63626e
          0x00636256      554f           subq.w 0x2, a7
          0x00636258      3f3c00db       move.w 0xdb, -(a7)
          0x0063625c      4e91           jsr (a1)                    ; fcn.0000000a
          0x0063625e      544f           addq.w 0x2, a7
          0x00636260      4a1f           tst.b (a7)+
      < 0x00636262      6708           beq.b 0x63626c
     > 0x00636264      2052           movea.l (a2), a0
        0x00636266      10bc0002       move.b 0x2, (a0)
    < 0x0063626a      602c           bra.b 0x636298
   > 0x0063626c      6026           bra.b 0x636294
    > 0x0063626e      554f           subq.w 0x2, a7
        0x00636270      3f3c0048       move.w 0x48, -(a7)
        0x00636274      4e91           jsr (a1)                    ; fcn.0000000a
        0x00636276      544f           addq.w 0x2, a7
        0x00636278      4a1f           tst.b (a7)+
    < 0x0063627a      6702           beq.b 0x63627e
   < 0x0063627c      60e6           bra.b 0x636264
     > 0x0063627e      554f           subq.w 0x2, a7
         0x00636280      3f3c0047       move.w 0x47, -(a7)
         0x00636284      4e91           jsr (a1)                    ; fcn.0000000a
         0x00636286      544f           addq.w 0x2, a7
         0x00636288      4a1f           tst.b (a7)+
     < 0x0063628a      6708           beq.b 0x636294
        0x0063628c      2052           movea.l (a2), a0
        0x0063628e      10bc0001       move.b 0x1, (a0)
    < 0x00636292      6004           bra.b 0x636298
   > 0x00636294      2052           movea.l (a2), a0
         0x00636296      4210           clr.b (a0)
    > 0x00636298      4cdf0711       movem.l (a7)+, d0/d4/a0-a2
           0x0063629c      4e5e           unlk a6
           0x0063629e      4e75           rts
            ; CALL XREF from MENURIGHTCOM.hit_brushsize @ 0x48fb88
 124: PALETCOM.set_br_size ();
           0x006362a0      4e56ffe2       link.w a6, 0xffe2
           0x006362a4      bfd5           cmpa.l (a5), a7
       < 0x006362a6      6206           bhi.b 0x6362ae
          0x006362a8      44fc0002       move.w 0x2, ccr
          0x006362ac      4e76           trapv
       > 0x006362ae      defc001e       adda.w 0x1e, a7
           0x006362b2      48e7c080       movem.l d0-d1/a0, -(a7)
           0x006362b6      302e0008       move.w 0x8(a6), d0
           0x006362ba      41fafc9e       lea.l 0x635f5a(pc), a0
           0x006362be      3200           move.w d0, d1
           0x006362c0      e649           lsr.w 0x3, d1
           0x006362c2      0c410020       cmpi.w 0x20, d1
       < 0x006362c6      6d04           blt.b 0x6362cc
          0x006362c8      7200           moveq 0x0, d1
      < 0x006362ca      6004           bra.b 0x6362d0
      > 0x006362cc      01301000       btst.l d0, (a0, d1.w)
      < 0x006362d0      6742           beq.b 0x636314
          0x006362d2      48c0           ext.l d0
          0x006362d4      2200           move.l d0, d1
          0x006362d6      5381           subq.l 0x1, d1
          0x006362d8      0c8100000005   cmpi.l 0x5, d1
      < 0x006362de      6302           bls.b 0x6362e2
         0x006362e0      4e4f           trap 0xf
      > 0x006362e2      e381           asl.l 0x1, d1
          0x006362e4      41f900845712   lea.l 0x845712, a0
          0x006362ea      554f           subq.w 0x2, a7
          0x006362ec      3f301874       move.w 0x74(a0, d1.l), -(a7)
          0x006362f0      4eb900480fc2   jsr MENUCOM.get_boxon
          0x006362f6      544f           addq.w 0x2, a7
          0x006362f8      4a1f           tst.b (a7)+
      < 0x006362fa      670c           beq.b 0x636308
         0x006362fc      3f301874       move.w 0x74(a0, d1.l), -(a7)
         0x00636300      4eb900481e2c   jsr MENUCOM.swtch_off_box
         0x00636306      544f           addq.w 0x2, a7
      > 0x00636308      3f301874       move.w 0x74(a0, d1.l), -(a7)
          0x0063630c      4eb9004836a4   jsr MENUCOM.push_box
          0x00636312      544f           addq.w 0x2, a7
       > 0x00636314      4cdf0103       movem.l (a7)+, d0-d1/a0
           0x00636318      4e5e           unlk a6
           0x0063631a      4e75           rts
 64: PALETCOM.set_br_radius ();
           0x0063631c      4e56ffee       link.w a6, 0xffee
           0x00636320      bfd5           cmpa.l (a5), a7
       < 0x00636322      6206           bhi.b 0x63632a
          0x00636324      44fc0002       move.w 0x2, ccr
          0x00636328      4e76           trapv
       > 0x0063632a      defc0012       adda.w 0x12, a7
           0x0063632e      48e70800       movem.l d4, -(a7)
           0x00636332      3f3900845792   move.w 0x845792, -(a7)
           0x00636338      382e0008       move.w 0x8(a6), d4
           0x0063633c      48c4           ext.l d4
           0x0063633e      4eb900408686   jsr fcn.00408686
           0x00636344      2f04           move.l d4, -(a7)
           0x00636346      4227           clr.b -(a7)
           0x00636348      4227           clr.b -(a7)
           0x0063634a      4eb90048da84   jsr MENU2COM.set_numeric_val
           0x00636350      defc000a       adda.w 0xa, a7
           0x00636354      4cdf0010       movem.l (a7)+, d4
           0x00636358      4e5e           unlk a6
           0x0063635a      4e75           rts
            ; CALL XREF from PALETCOM.pal_redraw @ 0x63688e
            ; CALL XREF from PALETCOM.pal_restore @ 0x63698e
 108: PALETCOM.pal_draw ();
           0x0063635c      4e56ffec       link.w a6, 0xffec
           0x00636360      bfd5           cmpa.l (a5), a7
       < 0x00636362      6206           bhi.b 0x63636a
          0x00636364      44fc0002       move.w 0x2, ccr
          0x00636368      4e76           trapv
       > 0x0063636a      defc0014       adda.w 0x14, a7
           0x0063636e      48e70080       movem.l a0, -(a7)
           0x00636372      41f90084571c   lea.l 0x84571c, a0
           0x00636378      4227           clr.b -(a7)
           0x0063637a      4eb900522436   jsr BRUSHCOM.set_write_en
           0x00636380      3e90           move.w (a0), (a7)
           0x00636382      4227           clr.b -(a7)
           0x00636384      4eb900483776   jsr MENUCOM.swtch_box
           0x0063638a      2ebaf6d8       move.l 0x635a64(pc), (a7)
           0x0063638e      3f3af6d2       move.w 0x635a62(pc), -(a7)
           0x00636392      4eb900520fa4   jsr BRUSHCOM.set_br_colour
           0x00636398      584f           addq.w 0x4, a7
           0x0063639a      1ebc0002       move.b 0x2, (a7)
           0x0063639e      4227           clr.b -(a7)
           0x006363a0      514f           subq.w 0x8, a7
           0x006363a2      4eb90063399c   jsr HANDCOM.get_palette_are
           0x006363a8      4eb9005213b4   jsr BRUSHCOM.br_wipe
           0x006363ae      defc000a       adda.w 0xa, a7
           0x006363b2      3e90           move.w (a0), (a7)
           0x006363b4      1f3c0001       move.b 0x1, -(a7)
           0x006363b8      4eb900483776   jsr MENUCOM.swtch_box
           0x006363be      584f           addq.w 0x4, a7
           0x006363c0      4cdf0100       movem.l (a7)+, a0
           0x006363c4      4e5e           unlk a6
           0x006363c6      4e75           rts
            ; CALL XREF from PALETCOM.pal_analyze_new @ 0x636584
            ; CALL XREF from PALETCOM.pal_analyze_old @ 0x6366f4
 266: PALETCOM.get_colour ();
           0x006363c8      4e56ffb4       link.w a6, 0xffb4
           0x006363cc      bfd5           cmpa.l (a5), a7
       < 0x006363ce      6206           bhi.b 0x6363d6
          0x006363d0      44fc0002       move.w 0x2, ccr
          0x006363d4      4e76           trapv
       > 0x006363d6      defc0048       adda.w 0x48, a7
           0x006363da      48e7fee0       movem.l d0-d6/a0-a2, -(a7)
           0x006363de      7402           moveq 0x2, d2
           0x006363e0      2a3cffff8000   move.l 0xffff8000, d5
           0x006363e6      7c0c           moveq 0xc, d6
           0x006363e8      302e0012       move.w 0x12(a6), d0
           0x006363ec      48c0           ext.l d0
           0x006363ee      81c2           divs.w d2, d0
           0x006363f0      322e000e       move.w 0xe(a6), d1
           0x006363f4      48c1           ext.l d1
           0x006363f6      48c0           ext.l d0
           0x006363f8      d081           add.l d1, d0
           0x006363fa      9085           sub.l d5, d0
           0x006363fc      0c800000ffff   cmpi.l 0xffff, d0
       < 0x00636402      6302           bls.b 0x636406
          0x00636404      4e4f           trap 0xf
       > 0x00636406      d085           add.l d5, d0
           0x00636408      3d40fffc       move.w d0, -0x4(a6)
           0x0063640c      302e0014       move.w 0x14(a6), d0
           0x00636410      48c0           ext.l d0
           0x00636412      81c2           divs.w d2, d0
           0x00636414      322e0010       move.w 0x10(a6), d1
           0x00636418      48c1           ext.l d1
           0x0063641a      48c0           ext.l d0
           0x0063641c      d081           add.l d1, d0
           0x0063641e      9085           sub.l d5, d0
           0x00636420      0c800000ffff   cmpi.l 0xffff, d0
       < 0x00636426      6302           bls.b 0x63642a
          0x00636428      4e4f           trap 0xf
       > 0x0063642a      d085           add.l d5, d0
           0x0063642c      3d40fffe       move.w d0, -0x2(a6)
           0x00636430      202e0008       move.l 0x8(a6), d0
           0x00636434      5380           subq.l 0x1, d0
           0x00636436      0c800000002f   cmpi.l 0x2f, d0
       < 0x0063643c      6302           bls.b 0x636440
          0x0063643e      4e4f           trap 0xf
       > 0x00636440      2800           move.l d0, d4
           0x00636442      7606           moveq 0x6, d3
           0x00636444      4eb900406a74   jsr fcn.00406a74
           0x0063644a      102e000c       move.b 0xc(a6), d0
           0x0063644e      4880           ext.w d0
           0x00636450      323c0120       move.w 0x120, d1
           0x00636454      c3c0           muls.w d0, d1
           0x00636456      41f41000       lea.l (a4, d1.w), a0
           0x0063645a      5d4f           subq.w 0x6, a7
           0x0063645c      1f02           move.b d2, -(a7)
           0x0063645e      4227           clr.b -(a7)
           0x00636460      2f2efffc       move.l -0x4(a6), -(a7)
           0x00636464      4eb900521048   jsr BRUSHCOM.br_get_colour
           0x0063646a      504f           addq.w 0x8, a7
           0x0063646c      43f04808       lea.l 0x8(a0, d4.l), a1
           0x00636470      244f           movea.l a7, a2
           0x00636472      7205           moveq 0x5, d1
       > 0x00636474      12da           move.b (a2)+, (a1)+
       < 0x00636476      51c9fffc       dbra d1, 0x636474
           0x0063647a      554f           subq.w 0x2, a7
           0x0063647c      224f           movea.l a7, a1
           0x0063647e      45f04808       lea.l 0x8(a0, d4.l), a2
           0x00636482      7205           moveq 0x5, d1
       > 0x00636484      12da           move.b (a2)+, (a1)+
       < 0x00636486      51c9fffc       dbra d1, 0x636484
           0x0063648a      2f3afaf0       move.l 0x635f7c(pc), -(a7)
           0x0063648e      3f3afaea       move.w 0x635f7a(pc), -(a7)
           0x00636492      4eb90063c2c0   jsr COLOURCOM.same_colour
           0x00636498      dec6           adda.w d6, a7
           0x0063649a      4a1f           tst.b (a7)+
       < 0x0063649c      6624           bne.b 0x6364c2
          0x0063649e      514f           subq.w 0x8, a7
          0x006364a0      224f           movea.l a7, a1
          0x006364a2      41f04808       lea.l 0x8(a0, d4.l), a0
          0x006364a6      7205           moveq 0x5, d1
      > 0x006364a8      12d8           move.b (a0)+, (a1)+
      < 0x006364aa      51c9fffc       dbra d1, 0x6364a8
          0x006364ae      2f3af5b4       move.l 0x635a64(pc), -(a7)
          0x006364b2      3f3af5ae       move.w 0x635a62(pc), -(a7)
          0x006364b6      4eb90063c2c0   jsr COLOURCOM.same_colour
          0x006364bc      dec6           adda.w d6, a7
          0x006364be      4a1f           tst.b (a7)+
      < 0x006364c0      6708           beq.b 0x6364ca
      > 0x006364c2      3200           move.w d0, d1
          0x006364c4      e541           asl.w 0x2, d1
          0x006364c6      52b41000       addq.l 0x1, (a4, d1.w)
      > 0x006364ca      4cdf077f       movem.l (a7)+, d0-d6/a0-a2
           0x006364ce      4e5e           unlk a6
           0x006364d0      4e75           rts
            ; CALL XREFS from PALETCOM.pal_redraw @ 0x63681e, 0x636826
 96: PALETCOM.init_colours ();
           0x006364d2      4e56ffd6       link.w a6, 0xffd6
           0x006364d6      bfd5           cmpa.l (a5), a7
       < 0x006364d8      6206           bhi.b 0x6364e0
          0x006364da      44fc0002       move.w 0x2, ccr
          0x006364de      4e76           trapv
       > 0x006364e0      defc0026       adda.w 0x26, a7
           0x006364e4      48e7d9c0       movem.l d0-d1/d3-d4/d7/a0-a1, -(a7)
           0x006364e8      102e0008       move.b 0x8(a6), d0
           0x006364ec      4880           ext.w d0
           0x006364ee      c1fc0120       muls.w 0x120, d0
           0x006364f2      7e01           moveq 0x1, d7
       > 0x006364f4      2207           move.l d7, d1
          0x006364f6      5381           subq.l 0x1, d1
          0x006364f8      0c810000002f   cmpi.l 0x2f, d1
      < 0x006364fe      6302           bls.b 0x636502
         0x00636500      4e4f           trap 0xf
      > 0x00636502      2801           move.l d1, d4
          0x00636504      7606           moveq 0x6, d3
          0x00636506      4eb900406a74   jsr fcn.00406a74
          0x0063650c      41f40000       lea.l (a4, d0.w), a0
          0x00636510      41f04808       lea.l 0x8(a0, d4.l), a0
          0x00636514      43faf5a0       lea.l 0x635ab6(pc), a1
          0x00636518      7205           moveq 0x5, d1
      > 0x0063651a      10d9           move.b (a1)+, (a0)+
      < 0x0063651c      51c9fffc       dbra d1, 0x63651a
          0x00636520      5287           addq.l 0x1, d7
          0x00636522      0c870000002a   cmpi.l 0x2a, d7
       < 0x00636528      6fca           ble.b 0x6364f4
           0x0063652a      4cdf039b       movem.l (a7)+, d0-d1/d3-d4/d7/a0-a1
           0x0063652e      4e5e           unlk a6
           0x00636530      4e75           rts
            ; CALL XREF from PALETCOM.pal_redraw @ 0x636832
 108: PALETCOM.pal_analyze_new ();
           0x00636532      4e56ffd6       link.w a6, 0xffd6
           0x00636536      bfd5           cmpa.l (a5), a7
       < 0x00636538      6206           bhi.b 0x636540
          0x0063653a      44fc0002       move.w 0x2, ccr
          0x0063653e      4e76           trapv
       > 0x00636540      defc001e       adda.w 0x1e, a7
           0x00636544      48e78180       movem.l d0/d7/a0, -(a7)
           0x00636548      7e01           moveq 0x1, d7
       > 0x0063654a      514f           subq.w 0x8, a7
          0x0063654c      2007           move.l d7, d0
          0x0063654e      5380           subq.l 0x1, d0
          0x00636550      0c800000002f   cmpi.l 0x2f, d0
      < 0x00636556      6302           bls.b 0x63655a
         0x00636558      4e4f           trap 0xf
      > 0x0063655a      e380           asl.l 0x1, d0
          0x0063655c      41f900845712   lea.l 0x845712, a0
          0x00636562      3f300814       move.w 0x14(a0, d0.l), -(a7)
          0x00636566      4eb9004811d6   jsr MENUCOM.get_boxarea
          0x0063656c      544f           addq.w 0x2, a7
          0x0063656e      2d5ffff8       move.l (a7)+, -0x8(a6)
          0x00636572      2d5ffffc       move.l (a7)+, -0x4(a6)
          0x00636576      2f2efffc       move.l -0x4(a6), -(a7)
          0x0063657a      2f2efff8       move.l -0x8(a6), -(a7)
          0x0063657e      1f3c0001       move.b 0x1, -(a7)
          0x00636582      2f07           move.l d7, -(a7)
          0x00636584      4ebafe42       jsr PALETCOM.get_colour(pc)
          0x00636588      defc000e       adda.w 0xe, a7
          0x0063658c      5287           addq.l 0x1, d7
          0x0063658e      0c870000002a   cmpi.l 0x2a, d7
       < 0x00636594      6fb4           ble.b 0x63654a
           0x00636596      4cdf0181       movem.l (a7)+, d0/d7/a0
           0x0063659a      4e5e           unlk a6
           0x0063659c      4e75           rts
            ; CALL XREF from PALETCOM.pal_analyze_old @ 0x6366de
 178: PALETCOM.pot_area ();
           ; var int32_t var_ch @ a6-0xc
           ; var int32_t var_8h @ a6-0x8
           0x0063659e      4e56ffe0       link.w a6, 0xffe0
           0x006365a2      bfd5           cmpa.l (a5), a7
       < 0x006365a4      6206           bhi.b 0x6365ac
          0x006365a6      44fc0002       move.w 0x2, ccr
          0x006365aa      4e76           trapv
       > 0x006365ac      defc0014       adda.w 0x14, a7
           0x006365b0      48e7f000       movem.l d0-d3, -(a7)
           0x006365b4      243cffff8000   move.l 0xffff8000, d2
           0x006365ba      263c0000ffff   move.l 0xffff, d3
           0x006365c0      302c0018       move.w 0x18(a4), d0
           0x006365c4      c1ee000e       muls.w 0xe(a6), d0
           0x006365c8      322c001c       move.w 0x1c(a4), d1
           0x006365cc      48c1           ext.l d1
           0x006365ce      d081           add.l d1, d0
           0x006365d0      9082           sub.l d2, d0
           0x006365d2      b083           cmp.l d3, d0
       < 0x006365d4      6302           bls.b 0x6365d8
          0x006365d6      4e4f           trap 0xf
       > 0x006365d8      d082           add.l d2, d0
           0x006365da      3d40fff4       move.w d0, -0xc(a6)
           0x006365de      302c001a       move.w 0x1a(a4), d0
           0x006365e2      c1ee000c       muls.w 0xc(a6), d0
           0x006365e6      322c001e       move.w 0x1e(a4), d1
           0x006365ea      48c1           ext.l d1
           0x006365ec      d081           add.l d1, d0
           0x006365ee      9082           sub.l d2, d0
           0x006365f0      b083           cmp.l d3, d0
       < 0x006365f2      6302           bls.b 0x6365f6
          0x006365f4      4e4f           trap 0xf
       > 0x006365f6      d082           add.l d2, d0
           0x006365f8      3d40fff6       move.w d0, -0xa(a6)
           0x006365fc      302c0018       move.w 0x18(a4), d0
           0x00636600      c1ee000a       muls.w 0xa(a6), d0
           0x00636604      322c0020       move.w 0x20(a4), d1
           0x00636608      48c1           ext.l d1
           0x0063660a      4481           neg.l d1
           0x0063660c      d280           add.l d0, d1
           0x0063660e      9282           sub.l d2, d1
           0x00636610      b283           cmp.l d3, d1
       < 0x00636612      6302           bls.b 0x636616
          0x00636614      4e4f           trap 0xf
       > 0x00636616      d282           add.l d2, d1
           0x00636618      3d41fff8       move.w d1, -0x8(a6)
           0x0063661c      302c001a       move.w 0x1a(a4), d0
           0x00636620      c1ee0008       muls.w 0x8(a6), d0
           0x00636624      322c0022       move.w 0x22(a4), d1
           0x00636628      48c1           ext.l d1
           0x0063662a      4481           neg.l d1
           0x0063662c      d280           add.l d0, d1
           0x0063662e      9282           sub.l d2, d1
           0x00636630      b283           cmp.l d3, d1
       < 0x00636632      6302           bls.b 0x636636
          0x00636634      4e4f           trap 0xf
       > 0x00636636      d282           add.l d2, d1
           0x00636638      3d41fffa       move.w d1, -0x6(a6)
           0x0063663c      2d6efff40010   move.l -0xc(a6), 0x10(a6)
           0x00636642      2d6efff80014   move.l -0x8(a6), 0x14(a6)
           0x00636648      4cdf000f       movem.l (a7)+, d0-d3
           0x0063664c      4e5e           unlk a6
           0x0063664e      4e75           rts
            ; CALL XREF from PALETCOM.pal_redraw @ 0x636856
 200: PALETCOM.pal_analyze_old ();
           ; var int32_t var_6fah @ a6-0x6fa
           ; var int32_t var_6f8h @ a6-0x6f8
           ; var int32_t var_6f6h @ a6-0x6f6
           0x00636650      4e56ff9c       link.w a6, 0xff9c
           0x00636654      bfd5           cmpa.l (a5), a7
       < 0x00636656      6206           bhi.b 0x63665e
          0x00636658      44fc0002       move.w 0x2, ccr
          0x0063665c      4e76           trapv
       > 0x0063665e      defc0040       adda.w 0x40, a7
           0x00636662      48e7ffc8       movem.l d0-d7/a0-a1/a4, -(a7)
           0x00636666      41eeffe8       lea.l -0x18(a6), a0
           0x0063666a      43eeffec       lea.l -0x14(a6), a1
           0x0063666e      243cffff8000   move.l 0xffff8000, d2
           0x00636674      263c0000ffff   move.l 0xffff, d3
           0x0063667a      7801           moveq 0x1, d4
           0x0063667c      2d7af90afff0   move.l 0x635f88(pc), -0x10(a6)
           0x00636682      2d7af908fff4   move.l 0x635f8c(pc), -0xc(a6)
           0x00636688      2d7af906fff8   move.l 0x635f90(pc), -0x8(a6)
           0x0063668e      20baf8f0       move.l 0x635f80(pc), (a0)
           0x00636692      22baf8f0       move.l 0x635f84(pc), (a1)
           0x00636696      302efff0       move.w -0x10(a6), d0
           0x0063669a      c1fc0008       muls.w 0x8, d0
           0x0063669e      3210           move.w (a0), d1
           0x006366a0      48c1           ext.l d1
           0x006366a2      4480           neg.l d0
           0x006366a4      d081           add.l d1, d0
           0x006366a6      9082           sub.l d2, d0
           0x006366a8      b083           cmp.l d3, d0
       < 0x006366aa      6302           bls.b 0x6366ae
          0x006366ac      4e4f           trap 0xf
       > 0x006366ae      d082           add.l d2, d0
           0x006366b0      3d40fff4       move.w d0, -0xc(a6)
           0x006366b4      7e00           moveq 0x0, d7
           0x006366b6      7a01           moveq 0x1, d5
       > 0x006366b8      7c01           moveq 0x1, d6
      > 0x006366ba      5287           addq.l 0x1, d7
         0x006366bc      514f           subq.w 0x8, a7
         0x006366be      9c82           sub.l d2, d6
         0x006366c0      bc83           cmp.l d3, d6
     < 0x006366c2      6302           bls.b 0x6366c6
        0x006366c4      4e4f           trap 0xf
     > 0x006366c6      dc82           add.l d2, d6
         0x006366c8      3f06           move.w d6, -(a7)
         0x006366ca      9a82           sub.l d2, d5
         0x006366cc      ba83           cmp.l d3, d5
     < 0x006366ce      6302           bls.b 0x6366d2
        0x006366d0      4e4f           trap 0xf
     > 0x006366d2      da82           add.l d2, d5
         0x006366d4      3f05           move.w d5, -(a7)
         0x006366d6      3f04           move.w d4, -(a7)
         0x006366d8      3f04           move.w d4, -(a7)
         0x006366da      49eeffd8       lea.l -0x28(a6), a4
         0x006366de      4ebafebe       jsr PALETCOM.pot_area(pc)
         0x006366e2      504f           addq.w 0x8, a7
         0x006366e4      286effd8       movea.l -0x28(a6), a4
         0x006366e8      209f           move.l (a7)+, (a0)
         0x006366ea      229f           move.l (a7)+, (a1)
         0x006366ec      2f11           move.l (a1), -(a7)
         0x006366ee      2f10           move.l (a0), -(a7)
         0x006366f0      4227           clr.b -(a7)
         0x006366f2      2f07           move.l d7, -(a7)
         0x006366f4      4ebafcd2       jsr PALETCOM.get_colour(pc)
         0x006366f8      defc000e       adda.w 0xe, a7
         0x006366fc      5286           addq.l 0x1, d6
         0x006366fe      0c8600000007   cmpi.l 0x7, d6
      < 0x00636704      6fb4           ble.b 0x6366ba
          0x00636706      5285           addq.l 0x1, d5
          0x00636708      0c8500000005   cmpi.l 0x5, d5
       < 0x0063670e      6fa8           ble.b 0x6366b8
           0x00636710      4cdf13ff       movem.l (a7)+, d0-d7/a0-a1/a4
           0x00636714      4e5e           unlk a6
           0x00636716      4e75           rts
            ; CALL XREF from PALETCOM.pal_redraw @ 0x636888
 214: PALETCOM.set_colours ();
           0x00636718      4e56ffbe       link.w a6, 0xffbe
           0x0063671c      bfd5           cmpa.l (a5), a7
       < 0x0063671e      6206           bhi.b 0x636726
          0x00636720      44fc0002       move.w 0x2, ccr
          0x00636724      4e76           trapv
       > 0x00636726      defc003e       adda.w 0x3e, a7
           0x0063672a      48e7d9f0       movem.l d0-d1/d3-d4/d7/a0-a3, -(a7)
           0x0063672e      47ee0008       lea.l 0x8(a6), a3
           0x00636732      4a13           tst.b (a3)
       < 0x00636734      670a           beq.b 0x636740
          0x00636736      1013           move.b (a3), d0
          0x00636738      0c000001       cmpi.b 0x1, d0
      < 0x0063673c      671e           beq.b 0x63675c
         0x0063673e      4e4e           trap 0xe
      > 0x00636740      487af853       pea.l 0x635f95(pc)
      > 0x00636744      4878001c       pea.l 0x1c
         0x00636748      2f17           move.l (a7), -(a7)
         0x0063674a      4eb9004047ea   jsr p_wts_o
         0x00636750      defc000c       adda.w 0xc, a7
         0x00636754      4eb900404946   jsr p_wtln_o
     < 0x0063675a      6006           bra.b 0x636762
     > 0x0063675c      487af854       pea.l 0x635fb2(pc)
      < 0x00636760      60e2           bra.b 0x636744
     > 0x00636762      1013           move.b (a3), d0
           0x00636764      4880           ext.w d0
           0x00636766      c1fc0120       muls.w 0x120, d0
           0x0063676a      7e01           moveq 0x1, d7
       > 0x0063676c      2207           move.l d7, d1
          0x0063676e      5381           subq.l 0x1, d1
          0x00636770      0c810000002f   cmpi.l 0x2f, d1
      < 0x00636776      6302           bls.b 0x63677a
         0x00636778      4e4f           trap 0xf
      > 0x0063677a      2801           move.l d1, d4
          0x0063677c      7606           moveq 0x6, d3
          0x0063677e      4eb900406a74   jsr fcn.00406a74
          0x00636784      41f40000       lea.l (a4, d0.w), a0
          0x00636788      e381           asl.l 0x1, d1
          0x0063678a      43f900845712   lea.l 0x845712, a1
          0x00636790      3f311814       move.w 0x14(a1, d1.l), -(a7)
          0x00636794      5d4f           subq.w 0x6, a7
          0x00636796      224f           movea.l a7, a1
          0x00636798      45f04808       lea.l 0x8(a0, d4.l), a2
          0x0063679c      7205           moveq 0x5, d1
      > 0x0063679e      12da           move.b (a2)+, (a1)+
      < 0x006367a0      51c9fffc       dbra d1, 0x63679e
          0x006367a4      4eb900484148   jsr MENUCOM.set_boxcol
          0x006367aa      504f           addq.w 0x8, a7
          0x006367ac      0487ffff8000   subi.l 0xffff8000, d7
          0x006367b2      0c870000ffff   cmpi.l 0xffff, d7
      < 0x006367b8      6302           bls.b 0x6367bc
         0x006367ba      4e4f           trap 0xf
      > 0x006367bc      0687ffff8000   addi.l 0xffff8000, d7
          0x006367c2      3f07           move.w d7, -(a7)
          0x006367c4      5d4f           subq.w 0x6, a7
          0x006367c6      224f           movea.l a7, a1
          0x006367c8      41f04808       lea.l 0x8(a0, d4.l), a0
          0x006367cc      7205           moveq 0x5, d1
      > 0x006367ce      12d8           move.b (a0)+, (a1)+
      < 0x006367d0      51c9fffc       dbra d1, 0x6367ce
          0x006367d4      4eb90048f6f6   jsr MENURIGHTCOM.set_potcol
          0x006367da      504f           addq.w 0x8, a7
          0x006367dc      5287           addq.l 0x1, d7
          0x006367de      0c870000002a   cmpi.l 0x2a, d7
       < 0x006367e4      6f86           ble.b 0x63676c
           0x006367e6      4cdf0f9b       movem.l (a7)+, d0-d1/d3-d4/d7/a0-a3
           0x006367ea      4e5e           unlk a6
           0x006367ec      4e75           rts
            ; CALL XREF from PALETCOM.fetch_welcome_p @ 0x638af4
            ; CALL XREF from K91_LIBOPS.fetch_palette @ 0x64dfc0
 172: PALETCOM.pal_redraw ();
           0x006367ee      4e56fd88       link.w a6, 0xfd88
           0x006367f2      bfd5           cmpa.l (a5), a7
       < 0x006367f4      6206           bhi.b 0x6367fc
          0x006367f6      44fc0002       move.w 0x2, ccr
          0x006367fa      4e76           trapv
       > 0x006367fc      defc0030       adda.w 0x30, a7
           0x00636800      48e7f0c8       movem.l d0-d3/a0-a1/a4, -(a7)
           0x00636804      41eefdb8       lea.l -0x248(a6), a0
           0x00636808      43eefdbc       lea.l -0x244(a6), a1
           0x0063680c      7201           moveq 0x1, d1
           0x0063680e      7403           moveq 0x3, d2
           0x00636810      760c           moveq 0xc, d3
           0x00636812      4227           clr.b -(a7)
           0x00636814      4eb900522436   jsr BRUSHCOM.set_write_en
           0x0063681a      4217           clr.b (a7)
           0x0063681c      2848           movea.l a0, a4
           0x0063681e      4ebafcb2       jsr PALETCOM.init_colours(pc)
           0x00636822      1e81           move.b d1, (a7)
           0x00636824      2848           movea.l a0, a4
           0x00636826      4ebafcaa       jsr PALETCOM.init_colours(pc)
           0x0063682a      544f           addq.w 0x2, a7
           0x0063682c      4291           clr.l (a1)
           0x0063682e      4290           clr.l (a0)
           0x00636830      2848           movea.l a0, a4
           0x00636832      4ebafcfe       jsr PALETCOM.pal_analyze_new(pc)
           0x00636836      2011           move.l (a1), d0
           0x00636838      b082           cmp.l d2, d0
       < 0x0063683a      6f48           ble.b 0x636884
          0x0063683c      487af791       pea.l 0x635fcf(pc)
          0x00636840      48780035       pea.l 0x35
          0x00636844      2f17           move.l (a7), -(a7)
          0x00636846      4eb9004047ea   jsr p_wts_o
          0x0063684c      dec3           adda.w d3, a7
          0x0063684e      4eb900404946   jsr p_wtln_o
          0x00636854      2848           movea.l a0, a4
          0x00636856      4ebafdf8       jsr PALETCOM.pal_analyze_old(pc)
          0x0063685a      2010           move.l (a0), d0
          0x0063685c      b082           cmp.l d2, d0
      < 0x0063685e      6f22           ble.b 0x636882
         0x00636860      487af7a3       pea.l 0x636005(pc)
         0x00636864      48780030       pea.l 0x30
         0x00636868      2f17           move.l (a7), -(a7)
         0x0063686a      4eb9004047ea   jsr p_wts_o
         0x00636870      dec3           adda.w d3, a7
         0x00636872      4eb900404946   jsr p_wtln_o
         0x00636878      b091           cmp.l (a1), d0
     < 0x0063687a      6c04           bge.b 0x636880
    > 0x0063687c      4227           clr.b -(a7)
   < 0x0063687e      6006           bra.b 0x636886
  > 0x00636880      6002           bra.b 0x636884
  > 0x00636882      60f8           bra.b 0x63687c
  > 0x00636884      1f01           move.b d1, -(a7)
   > 0x00636886      2848           movea.l a0, a4
           0x00636888      4ebafe8e       jsr PALETCOM.set_colours(pc)
           0x0063688c      544f           addq.w 0x2, a7
           0x0063688e      4ebafacc       jsr PALETCOM.pal_draw(pc)
           0x00636892      4cdf130f       movem.l (a7)+, d0-d3/a0-a1/a4
           0x00636896      4e5e           unlk a6
           0x00636898      4e75           rts
            ; CALL XREF from MENUFULLCOM.hit_restore_pal @ 0x4dc878
            ; CALL XREF from MAVIS_PAINT.cleanup_system @ 0x6d298c
 256: PALETCOM.pal_restore ();
           0x0063689a      4e56ffa8       link.w a6, 0xffa8
           0x0063689e      bfd5           cmpa.l (a5), a7
       < 0x006368a0      6206           bhi.b 0x6368a8
          0x006368a2      44fc0002       move.w 0x2, ccr
          0x006368a6      4e76           trapv
       > 0x006368a8      defc004c       adda.w 0x4c, a7
           0x006368ac      48e7ffe0       movem.l d0-d7/a0-a2, -(a7)
           0x006368b0      45f900406a74   lea.l fcn.00406a74, a2
           0x006368b6      3d7c0004fffc   move.w 0x4, -0x4(a6)
           0x006368bc      426efffe       clr.w -0x2(a6)
           0x006368c0      7a01           moveq 0x1, d5
       > 0x006368c2      48c5           ext.l d5
          0x006368c4      2005           move.l d5, d0
          0x006368c6      5380           subq.l 0x1, d0
          0x006368c8      2800           move.l d0, d4
          0x006368ca      7607           moveq 0x7, d3
          0x006368cc      4e92           jsr (a2)                    ; fcn.00000009+0x2
          0x006368ce      2f04           move.l d4, -(a7)
          0x006368d0      e780           asl.l 0x3, d0
          0x006368d2      7e01           moveq 0x1, d7
      > 0x006368d4      be6efffc       cmp.w -0x4(a6), d7
     < 0x006368d8      6e0000a8       bgt.w 0x636982
        0x006368dc      48c7           ext.l d7
        0x006368de      2204           move.l d4, d1
        0x006368e0      d287           add.l d7, d1
        0x006368e2      0481ffff8000   subi.l 0xffff8000, d1
        0x006368e8      0c810000ffff   cmpi.l 0xffff, d1
    < 0x006368ee      6302           bls.b 0x6368f2
       0x006368f0      4e4f           trap 0xf
    > 0x006368f2      0681ffff8000   addi.l 0xffff8000, d1
        0x006368f8      3c01           move.w d1, d6
        0x006368fa      322e0008       move.w 0x8(a6), d1
        0x006368fe      48c1           ext.l d1
        0x00636900      5381           subq.l 0x1, d1
        0x00636902      0c8100000002   cmpi.l 0x2, d1
    < 0x00636908      6302           bls.b 0x63690c
       0x0063690a      4e4f           trap 0xf
    > 0x0063690c      2801           move.l d1, d4
        0x0063690e      263c00000120   move.l 0x120, d3
        0x00636914      4e92           jsr (a2)                    ; fcn.00000009+0x2
        0x00636916      2f04           move.l d4, -(a7)
        0x00636918      48c7           ext.l d7
        0x0063691a      2200           move.l d0, d1
        0x0063691c      d287           add.l d7, d1
        0x0063691e      342efffe       move.w -0x2(a6), d2
        0x00636922      48c2           ext.l d2
        0x00636924      d481           add.l d1, d2
        0x00636926      5382           subq.l 0x1, d2
        0x00636928      0c820000002f   cmpi.l 0x2f, d2
    < 0x0063692e      6302           bls.b 0x636932
       0x00636930      4e4f           trap 0xf
    > 0x00636932      2802           move.l d2, d4
        0x00636934      7606           moveq 0x6, d3
        0x00636936      4e92           jsr (a2)                    ; fcn.00000009+0x2
        0x00636938      48c6           ext.l d6
        0x0063693a      2206           move.l d6, d1
        0x0063693c      5381           subq.l 0x1, d1
        0x0063693e      0c810000002f   cmpi.l 0x2f, d1
    < 0x00636944      6302           bls.b 0x636948
       0x00636946      4e4f           trap 0xf
    > 0x00636948      e381           asl.l 0x1, d1
        0x0063694a      41f900845712   lea.l 0x845712, a0
        0x00636950      3f301814       move.w 0x14(a0, d1.l), -(a7)
        0x00636954      222f0002       move.l 0x2(a7), d1
        0x00636958      41faf2a0       lea.l 0x635bfa(pc), a0
        0x0063695c      41f01800       lea.l (a0, d1.l), a0
        0x00636960      5d4f           subq.w 0x6, a7
        0x00636962      224f           movea.l a7, a1
        0x00636964      41f04800       lea.l (a0, d4.l), a0
        0x00636968      7205           moveq 0x5, d1
    > 0x0063696a      12d8           move.b (a0)+, (a1)+
    < 0x0063696c      51c9fffc       dbra d1, 0x63696a
        0x00636970      4eb900484148   jsr MENUCOM.set_boxcol
        0x00636976      defc000c       adda.w 0xc, a7
        0x0063697a      2817           move.l (a7), d4
        0x0063697c      5247           addq.w 0x1, d7
     < 0x0063697e      6800ff54       bvc.w 0x6368d4
     > 0x00636982      584f           addq.w 0x4, a7
          0x00636984      5245           addq.w 0x1, d5
          0x00636986      0c450006       cmpi.w 0x6, d5
       < 0x0063698a      6f00ff36       ble.w 0x6368c2
           0x0063698e      4ebaf9cc       jsr PALETCOM.pal_draw(pc)
           0x00636992      4cdf07ff       movem.l (a7)+, d0-d7/a0-a2
           0x00636996      4e5e           unlk a6
           0x00636998      4e75           rts
            ; CALL XREF from PALETCOM.set_colour @ 0x636f7a
 1028: PALETCOM.draw_brush_size (int32_t arg_16h, int32_t arg_17h, int32_t arg_18h, int32_t arg_19h);
           ; var int32_t var_f7ah @ a6-0xf7a
           ; var int32_t var_f78h @ a6-0xf78
           ; var int32_t var_f46h @ a6-0xf46
           ; var int32_t var_f44h @ a6-0xf44
           ; arg int32_t arg_16h @ a6+0x16
           ; arg int32_t arg_17h @ a6+0x17
           ; arg int32_t arg_18h @ a6+0x18
           ; arg int32_t arg_19h @ a6+0x19
           0x0063699a      4e56ff30       link.w a6, 0xff30
           0x0063699e      bfd5           cmpa.l (a5), a7
       < 0x006369a0      6206           bhi.b 0x6369a8
          0x006369a2      44fc0002       move.w 0x2, ccr
          0x006369a6      4e76           trapv
       > 0x006369a8      defc0074       adda.w 0x74, a7
           0x006369ac      48e7fff8       movem.l d0-d7/a0-a4, -(a7)
           0x006369b0      43eeffd8       lea.l -0x28(a6), a1
           0x006369b4      45eeffdc       lea.l -0x24(a6), a2
           0x006369b8      47eefff4       lea.l -0xc(a6), a3
           0x006369bc      7402           moveq 0x2, d2
           0x006369be      2a3cffff8000   move.l 0xffff8000, d5
           0x006369c4      514f           subq.w 0x8, a7
           0x006369c6      3f3900845794   move.w 0x845794, -(a7)
           0x006369cc      4eb9004811d6   jsr MENUCOM.get_boxarea
           0x006369d2      544f           addq.w 0x2, a7
           0x006369d4      229f           move.l (a7)+, (a1)
           0x006369d6      2497           move.l (a7), (a2)
           0x006369d8      554f           subq.w 0x2, a7
           0x006369da      4eb900636d9e   jsr PALETCOM.br_colour
           0x006369e0      269f           move.l (a7)+, (a3)
           0x006369e2      3d5ffff8       move.w (a7)+, -0x8(a6)
           0x006369e6      303af092       move.w 0x635a7a(pc), d0
           0x006369ea      e240           asr.w 0x1, d0
           0x006369ec      b053           cmp.w (a3), d0
       < 0x006369ee      6f0e           ble.b 0x6369fe
          0x006369f0      2d7af088fffa   move.l 0x635a7a(pc), -0x6(a6)
          0x006369f6      3d7af086fffe   move.w 0x635a7e(pc), -0x2(a6)
      < 0x006369fc      600c           bra.b 0x636a0a
      > 0x006369fe      2d7af0bcfffa   move.l 0x635abc(pc), -0x6(a6)
          0x00636a04      3d7af0bafffe   move.w 0x635ac0(pc), -0x2(a6)
      > 0x00636a0a      594f           subq.w 0x4, a7
           0x00636a0c      4eb900402e30   jsr p_Cur_Ticks
           0x00636a12      201f           move.l (a7)+, d0
           0x00636a14      b0b9008458f0   cmp.l 0x8458f0, d0
       < 0x00636a1a      660c           bne.b 0x636a28
          0x00636a1c      48780001       pea.l 0x1
          0x00636a20      4eb900402e42   jsr p_Delay
          0x00636a26      584f           addq.w 0x4, a7
       > 0x00636a28      594f           subq.w 0x4, a7
           0x00636a2a      4eb900402e30   jsr p_Cur_Ticks
           0x00636a30      23d7008458f0   move.l (a7), 0x8458f0
           0x00636a36      1f3c0007       move.b 0x7, -(a7)
           0x00636a3a      4eb900631bae   jsr BRUSHESCOM.PAS.get_br_data
           0x00636a40      544f           addq.w 0x2, a7
           0x00636a42      285f           movea.l (a7)+, a4
           0x00636a44      594f           subq.w 0x4, a7
           0x00636a46      48780001       pea.l 0x1
           0x00636a4a      4eb9004ac81e   jsr MENUZOOMCOM.r_main_scale
           0x00636a50      584f           addq.w 0x4, a7
           0x00636a52      281f           move.l (a7)+, d4
           0x00636a54      263c3f800000   move.l 0x3f800000, d3
           0x00636a5a      4eb900407dd4   jsr fcn.00407dd4
       < 0x00636a60      66000106       bne.w 0x636b68
          0x00636a64      3012           move.w (a2), d0
          0x00636a66      48c0           ext.l d0
          0x00636a68      81c2           divs.w d2, d0
          0x00636a6a      3211           move.w (a1), d1
          0x00636a6c      48c1           ext.l d1
          0x00636a6e      48c0           ext.l d0
          0x00636a70      d081           add.l d1, d0
          0x00636a72      e780           asl.l 0x3, d0
          0x00636a74      9085           sub.l d5, d0
          0x00636a76      0c800000ffff   cmpi.l 0xffff, d0
      < 0x00636a7c      6302           bls.b 0x636a80
         0x00636a7e      4e4f           trap 0xf
      > 0x00636a80      d085           add.l d5, d0
          0x00636a82      3d40ffb8       move.w d0, -0x48(a6)
          0x00636a86      302effde       move.w -0x22(a6), d0
          0x00636a8a      48c0           ext.l d0
          0x00636a8c      81c2           divs.w d2, d0
          0x00636a8e      322effda       move.w -0x26(a6), d1
          0x00636a92      48c1           ext.l d1
          0x00636a94      48c0           ext.l d0
          0x00636a96      d081           add.l d1, d0
          0x00636a98      e780           asl.l 0x3, d0
          0x00636a9a      9085           sub.l d5, d0
          0x00636a9c      0c800000ffff   cmpi.l 0xffff, d0
      < 0x00636aa2      6302           bls.b 0x636aa6
         0x00636aa4      4e4f           trap 0xf
      > 0x00636aa6      d085           add.l d5, d0
          0x00636aa8      3d40ffba       move.w d0, -0x46(a6)
          0x00636aac      1f02           move.b d2, -(a7)
          0x00636aae      2f12           move.l (a2), -(a7)
          0x00636ab0      2f11           move.l (a1), -(a7)
          0x00636ab2      4eb9005223fc   jsr BRUSHCOM.str_write_area
          0x00636ab8      5c4f           addq.w 0x6, a7
          0x00636aba      2eaefffc       move.l -0x4(a6), (a7)
          0x00636abe      3f2efffa       move.w -0x6(a6), -(a7)
          0x00636ac2      4eb900520fa4   jsr BRUSHCOM.set_br_colour
          0x00636ac8      584f           addq.w 0x4, a7
          0x00636aca      1e82           move.b d2, (a7)
          0x00636acc      4227           clr.b -(a7)
          0x00636ace      2f12           move.l (a2), -(a7)
          0x00636ad0      2f11           move.l (a1), -(a7)
          0x00636ad2      4eb9005213b4   jsr BRUSHCOM.br_wipe
          0x00636ad8      504f           addq.w 0x8, a7
          0x00636ada      2eaefff6       move.l -0xa(a6), (a7)
          0x00636ade      3f13           move.w (a3), -(a7)
          0x00636ae0      4eb900520fa4   jsr BRUSHCOM.set_br_colour
          0x00636ae6      584f           addq.w 0x4, a7
          0x00636ae8      3ebc4000       move.w 0x4000, (a7)
          0x00636aec      4eb900521034   jsr BRUSHCOM.br_pressure
          0x00636af2      1e82           move.b d2, (a7)
          0x00636af4      4227           clr.b -(a7)
          0x00636af6      4227           clr.b -(a7)
          0x00636af8      4227           clr.b -(a7)
          0x00636afa      1f3c0001       move.b 0x1, -(a7)
          0x00636afe      4eb900523ab6   jsr BRUSHCOM.set_stamp_mode
          0x00636b04      5c4f           addq.w 0x6, a7
          0x00636b06      2eaeffb8       move.l -0x48(a6), (a7)
          0x00636b0a      4eb90063553e   jsr asm_stamp
          0x00636b10      584f           addq.w 0x4, a7
          0x00636b12      2d51ffd0       move.l (a1), -0x30(a6)
          0x00636b16      2d52ffd4       move.l (a2), -0x2c(a6)
          0x00636b1a      302effd2       move.w -0x2e(a6), d0
          0x00636b1e      48c0           ext.l d0
          0x00636b20      322effd6       move.w -0x2a(a6), d1
          0x00636b24      48c1           ext.l d1
          0x00636b26      d280           add.l d0, d1
          0x00636b28      9285           sub.l d5, d1
          0x00636b2a      0c810000ffff   cmpi.l 0xffff, d1
      < 0x00636b30      6302           bls.b 0x636b34
         0x00636b32      4e4f           trap 0xf
      > 0x00636b34      d285           add.l d5, d1
          0x00636b36      3d41ffd2       move.w d1, -0x2e(a6)
          0x00636b3a      3d42ffd6       move.w d2, -0x2a(a6)
          0x00636b3e      2f3aef24       move.l 0x635a64(pc), -(a7)
          0x00636b42      3f3aef1e       move.w 0x635a62(pc), -(a7)
          0x00636b46      4eb900520fa4   jsr BRUSHCOM.set_br_colour
          0x00636b4c      584f           addq.w 0x4, a7
          0x00636b4e      1e82           move.b d2, (a7)
          0x00636b50      4227           clr.b -(a7)
          0x00636b52      2f2effd4       move.l -0x2c(a6), -(a7)
          0x00636b56      2f2effd0       move.l -0x30(a6), -(a7)
          0x00636b5a      4eb9005213b4   jsr BRUSHCOM.br_wipe
          0x00636b60      defc000c       adda.w 0xc, a7
      < 0x00636b64      600001a0       bra.w 0x636d06
      > 0x00636b68      b9ecfffc       cmpa.l -0x4(a4), a4
      < 0x00636b6c      6702           beq.b 0x636b70
         0x00636b6e      4e4d           trap 0xd
      > 0x00636b70      1d6c0016ffe0   move.b 0x16(a4), -0x20(a6)
          0x00636b76      1d6c0017ffe1   move.b 0x17(a4), -0x1f(a6)
          0x00636b7c      1d6c0018ffe2   move.b 0x18(a4), -0x1e(a6)
          0x00636b82      1d6c0019ffe3   move.b 0x19(a4), -0x1d(a6)
          0x00636b88      302c000a       move.w 0xa(a4), d0
          0x00636b8c      48c0           ext.l d0
          0x00636b8e      5e80           addq.l 0x7, d0
          0x00636b90      02800000fff8   andi.l 0xfff8, d0
          0x00636b96      9085           sub.l d5, d0
          0x00636b98      0c800000ffff   cmpi.l 0xffff, d0
      < 0x00636b9e      6302           bls.b 0x636ba2
         0x00636ba0      4e4f           trap 0xf
      > 0x00636ba2      d085           add.l d5, d0
          0x00636ba4      3d40ffe4       move.w d0, -0x1c(a6)
          0x00636ba8      302c000c       move.w 0xc(a4), d0
          0x00636bac      48c0           ext.l d0
          0x00636bae      5680           addq.l 0x3, d0
          0x00636bb0      02800000fffc   andi.l 0xfffc, d0
          0x00636bb6      9085           sub.l d5, d0
          0x00636bb8      0c800000ffff   cmpi.l 0xffff, d0
      < 0x00636bbe      6302           bls.b 0x636bc2
         0x00636bc0      4e4f           trap 0xf
      > 0x00636bc2      d085           add.l d5, d0
          0x00636bc4      3d40ffe6       move.w d0, -0x1a(a6)
          0x00636bc8      302c000e       move.w 0xe(a4), d0
          0x00636bcc      48c0           ext.l d0
          0x00636bce      4480           neg.l d0
          0x00636bd0      283c00002000   move.l 0x2000, d4
          0x00636bd6      2600           move.l d0, d3
          0x00636bd8      4eb900406a74   jsr fcn.00406a74
          0x00636bde      2d44ffc0       move.l d4, -0x40(a6)
          0x00636be2      302c0010       move.w 0x10(a4), d0
          0x00636be6      48c0           ext.l d0
          0x00636be8      4480           neg.l d0
          0x00636bea      283c00002000   move.l 0x2000, d4
          0x00636bf0      2600           move.l d0, d3
          0x00636bf2      4eb900406a74   jsr fcn.00406a74
          0x00636bf8      2d44ffc4       move.l d4, -0x3c(a6)
          0x00636bfc      3012           move.w (a2), d0
          0x00636bfe      48c0           ext.l d0
          0x00636c00      81c2           divs.w d2, d0
          0x00636c02      3211           move.w (a1), d1
          0x00636c04      48c1           ext.l d1
          0x00636c06      48c0           ext.l d0
          0x00636c08      d081           add.l d1, d0
          0x00636c0a      283c00010000   move.l 0x10000, d4
          0x00636c10      2600           move.l d0, d3
          0x00636c12      4eb900406a74   jsr fcn.00406a74
          0x00636c18      2d44ffc8       move.l d4, -0x38(a6)
          0x00636c1c      302effde       move.w -0x22(a6), d0
          0x00636c20      48c0           ext.l d0
          0x00636c22      81c2           divs.w d2, d0
          0x00636c24      322effda       move.w -0x26(a6), d1
          0x00636c28      48c1           ext.l d1
          0x00636c2a      48c0           ext.l d0
          0x00636c2c      d081           add.l d1, d0
          0x00636c2e      283c00010000   move.l 0x10000, d4
          0x00636c34      2600           move.l d0, d3
          0x00636c36      4eb900406a74   jsr fcn.00406a74
          0x00636c3c      2d44ffcc       move.l d4, -0x34(a6)
          0x00636c40      2d51ffe8       move.l (a1), -0x18(a6)
          0x00636c44      2d52ffec       move.l (a2), -0x14(a6)
          0x00636c48      3f3cffff       move.w 0xffff, -(a7)
          0x00636c4c      4227           clr.b -(a7)
          0x00636c4e      2f2effe4       move.l -0x1c(a6), -(a7)
          0x00636c52      2f2effe0       move.l -0x20(a6), -(a7)
          0x00636c56      2f2effc4       move.l -0x3c(a6), -(a7)
          0x00636c5a      2f2effc0       move.l -0x40(a6), -(a7)
          0x00636c5e      1f02           move.b d2, -(a7)
          0x00636c60      1f3c0001       move.b 0x1, -(a7)
          0x00636c64      2f2effcc       move.l -0x34(a6), -(a7)
          0x00636c68      2f2effc8       move.l -0x38(a6), -(a7)
          0x00636c6c      594f           subq.w 0x4, a7
          0x00636c6e      48780001       pea.l 0x1
          0x00636c72      4eb9004ac81e   jsr MENUZOOMCOM.r_main_scale
          0x00636c78      584f           addq.w 0x4, a7
          0x00636c7a      2617           move.l (a7), d3
          0x00636c7c      283c3f800000   move.l 0x3f800000, d4
          0x00636c82      4eb900407ff8   jsr fcn.00407ff8
          0x00636c88      2e84           move.l d4, (a7)
          0x00636c8a      48780000       pea.l 0x0
          0x00636c8e      2f3af3aa       move.l 0x63603a(pc), -(a7)
          0x00636c92      2f3af3a2       move.l 0x636036(pc), -(a7)
          0x00636c96      4227           clr.b -(a7)
          0x00636c98      4227           clr.b -(a7)
          0x00636c9a      486effe8       pea.l -0x18(a6)
          0x00636c9e      486efff0       pea.l -0x10(a6)
          0x00636ca2      4eb900526aa8   jsr BRUSH2COM.br_size_2d
          0x00636ca8      defc0038       adda.w 0x38, a7
          0x00636cac      2eaefffc       move.l -0x4(a6), (a7)
          0x00636cb0      3f2efffa       move.w -0x6(a6), -(a7)
          0x00636cb4      4eb900520fa4   jsr BRUSHCOM.set_br_colour
          0x00636cba      584f           addq.w 0x4, a7
          0x00636cbc      1e82           move.b d2, (a7)
          0x00636cbe      4227           clr.b -(a7)
          0x00636cc0      2f12           move.l (a2), -(a7)
          0x00636cc2      2f11           move.l (a1), -(a7)
          0x00636cc4      4eb9005213b4   jsr BRUSHCOM.br_wipe
          0x00636cca      504f           addq.w 0x8, a7
          0x00636ccc      2eaefff6       move.l -0xa(a6), (a7)
          0x00636cd0      3f13           move.w (a3), -(a7)
          0x00636cd2      4eb900520fa4   jsr BRUSHCOM.set_br_colour
          0x00636cd8      584f           addq.w 0x4, a7
          0x00636cda      3ebc4000       move.w 0x4000, (a7)
          0x00636cde      4eb900521034   jsr BRUSHCOM.br_pressure
          0x00636ce4      1e82           move.b d2, (a7)
          0x00636ce6      4227           clr.b -(a7)
          0x00636ce8      2f2effec       move.l -0x14(a6), -(a7)
          0x00636cec      2f2effe8       move.l -0x18(a6), -(a7)
          0x00636cf0      2f2effe8       move.l -0x18(a6), -(a7)
          0x00636cf4      1f02           move.b d2, -(a7)
          0x00636cf6      4227           clr.b -(a7)
          0x00636cf8      1f3c0001       move.b 0x1, -(a7)
          0x00636cfc      4eb9005233f0   jsr BRUSHCOM.br_paste
          0x00636d02      defc0016       adda.w 0x16, a7
      > 0x00636d06      594f           subq.w 0x4, a7
           0x00636d08      486efff1       pea.l -0xf(a6)
           0x00636d0c      4ebaf4fc       jsr PALETCOM.br_size(pc)
           0x00636d10      584f           addq.w 0x4, a7
           0x00636d12      2c1f           move.l (a7)+, d6
           0x00636d14      7e01           moveq 0x1, d7
       > 0x00636d16      554f           subq.w 0x2, a7
          0x00636d18      3f39008457a2   move.w 0x8457a2, -(a7)
          0x00636d1e      4eb900480fc2   jsr MENUCOM.get_boxon
          0x00636d24      544f           addq.w 0x2, a7
          0x00636d26      4a1f           tst.b (a7)+
      < 0x00636d28      672e           beq.b 0x636d58
         0x00636d2a      2007           move.l d7, d0
         0x00636d2c      5380           subq.l 0x1, d0
         0x00636d2e      0c8000000005   cmpi.l 0x5, d0
     < 0x00636d34      6302           bls.b 0x636d38
        0x00636d36      4e4f           trap 0xf
     > 0x00636d38      e380           asl.l 0x1, d0
         0x00636d3a      41f900845712   lea.l 0x845712, a0
         0x00636d40      3f300874       move.w 0x74(a0, d0.l), -(a7)
         0x00636d44      4227           clr.b -(a7)
         0x00636d46      41faeea6       lea.l 0x635bee(pc), a0
         0x00636d4a      32300800       move.w (a0, d0.l), d1
         0x00636d4e      48c1           ext.l d1
         0x00636d50      bc81           cmp.l d1, d6
     < 0x00636d52      6602           bne.b 0x636d56
        0x00636d54      5217           addq.b 0x1, (a7)
    > 0x00636d56      602c           bra.b 0x636d84
     > 0x00636d58      2007           move.l d7, d0
         0x00636d5a      5380           subq.l 0x1, d0
         0x00636d5c      0c8000000005   cmpi.l 0x5, d0
     < 0x00636d62      6302           bls.b 0x636d66
        0x00636d64      4e4f           trap 0xf
     > 0x00636d66      e380           asl.l 0x1, d0
         0x00636d68      41f900845712   lea.l 0x845712, a0
         0x00636d6e      3f300874       move.w 0x74(a0, d0.l), -(a7)
         0x00636d72      4227           clr.b -(a7)
         0x00636d74      41faee6c       lea.l 0x635be2(pc), a0
         0x00636d78      32300800       move.w (a0, d0.l), d1
         0x00636d7c      48c1           ext.l d1
         0x00636d7e      bc81           cmp.l d1, d6
     < 0x00636d80      6602           bne.b 0x636d84
        0x00636d82      5217           addq.b 0x1, (a7)
    > 0x00636d84      4eb900483776   jsr MENUCOM.swtch_box
          0x00636d8a      584f           addq.w 0x4, a7
          0x00636d8c      5287           addq.l 0x1, d7
          0x00636d8e      0c8700000006   cmpi.l 0x6, d7
       < 0x00636d94      6f80           ble.b 0x636d16
           0x00636d96      4cdf1fff       movem.l (a7)+, d0-d7/a0-a4
           0x00636d9a      4e5e           unlk a6
           0x00636d9c      4e75           rts
            ; XREFS(25)
 46: PALETCOM.br_colour ();
           0x00636d9e      4e56fff4       link.w a6, 0xfff4
           0x00636da2      bfd5           cmpa.l (a5), a7
       < 0x00636da4      6206           bhi.b 0x636dac
          0x00636da6      44fc0002       move.w 0x2, ccr
          0x00636daa      4e76           trapv
       > 0x00636dac      defc000c       adda.w 0xc, a7
           0x00636db0      5d4f           subq.w 0x6, a7
           0x00636db2      3f3900845722   move.w 0x845722, -(a7)
           0x00636db8      4eb900481196   jsr MENUCOM.get_boxcol
           0x00636dbe      544f           addq.w 0x2, a7
           0x00636dc0      2d5f0008       move.l (a7)+, 0x8(a6)
           0x00636dc4      3d5f000c       move.w (a7)+, 0xc(a6)
           0x00636dc8      4e5e           unlk a6
           0x00636dca      4e75           rts
            ; CALL XREF from PANEL.hit_clr_fadekey @ 0x775302
            ; CALL XREF from PANEL_TRANSIT.hit_bdr_col @ 0x79a528
            ; CALL XREF from PANEL_TRANSIT.do_pal_box @ 0x79a70c
 118: PALETCOM.get_pot_colour ();
           ; var int32_t var_1376h @ a6-0x1376
           ; var int32_t var_1374h @ a6-0x1374
           0x00636dcc      4e56ffe8       link.w a6, 0xffe8
           0x00636dd0      bfd5           cmpa.l (a5), a7
       < 0x00636dd2      6206           bhi.b 0x636dda
          0x00636dd4      44fc0002       move.w 0x2, ccr
          0x00636dd8      4e76           trapv
       > 0x00636dda      defc0018       adda.w 0x18, a7
           0x00636dde      48e7c080       movem.l d0-d1/a0, -(a7)
           0x00636de2      302e000a       move.w 0xa(a6), d0
           0x00636de6      41faf256       lea.l 0x63603e(pc), a0
           0x00636dea      3200           move.w d0, d1
           0x00636dec      e649           lsr.w 0x3, d1
           0x00636dee      0c410020       cmpi.w 0x20, d1
       < 0x00636df2      6d04           blt.b 0x636df8
          0x00636df4      7200           moveq 0x0, d1
      < 0x00636df6      6004           bra.b 0x636dfc
      > 0x00636df8      01301000       btst.l d0, (a0, d1.w)
      < 0x00636dfc      6730           beq.b 0x636e2e
          0x00636dfe      5d4f           subq.w 0x6, a7
          0x00636e00      202e0008       move.l 0x8(a6), d0
          0x00636e04      5380           subq.l 0x1, d0
          0x00636e06      0c800000002f   cmpi.l 0x2f, d0
      < 0x00636e0c      6302           bls.b 0x636e10
         0x00636e0e      4e4f           trap 0xf
      > 0x00636e10      e380           asl.l 0x1, d0
          0x00636e12      41f900845712   lea.l 0x845712, a0
          0x00636e18      3f300814       move.w 0x14(a0, d0.l), -(a7)
          0x00636e1c      4eb900481196   jsr MENUCOM.get_boxcol
          0x00636e22      544f           addq.w 0x2, a7
          0x00636e24      2d5f000c       move.l (a7)+, 0xc(a6)
          0x00636e28      3d5f0010       move.w (a7)+, 0x10(a6)
      < 0x00636e2c      600c           bra.b 0x636e3a
      > 0x00636e2e      2d7aec8c000c   move.l 0x635abc(pc), 0xc(a6)
          0x00636e34      3d7aec8a0010   move.w 0x635ac0(pc), 0x10(a6)
      > 0x00636e3a      4cdf0103       movem.l (a7)+, d0-d1/a0
           0x00636e3e      4e5e           unlk a6
           0x00636e40      4e75           rts
            ; CALL XREF from PANEL_UTILS.border_str @ 0x783458
            ; CALL XREF from PANEL_TRANSIT @ +0xca8
 206: PALETCOM.match_pot_colou ();
           0x00636e42      4e56ffd6       link.w a6, 0xffd6
           0x00636e46      bfd5           cmpa.l (a5), a7
       < 0x00636e48      6206           bhi.b 0x636e50
          0x00636e4a      44fc0002       move.w 0x2, ccr
          0x00636e4e      4e76           trapv
       > 0x00636e50      defc0020       adda.w 0x20, a7
           0x00636e54      48e783c0       movem.l d0/d6-d7/a0-a1, -(a7)
           0x00636e58      43ee000e       lea.l 0xe(a6), a1
           0x00636e5c      302e0008       move.w 0x8(a6), d0
           0x00636e60      b07aec5a       cmp.w 0x635abc(pc), d0
       < 0x00636e64      661a           bne.b 0x636e80
          0x00636e66      302e000a       move.w 0xa(a6), d0
          0x00636e6a      b07aec52       cmp.w 0x635abe(pc), d0
      < 0x00636e6e      6610           bne.b 0x636e80
         0x00636e70      302e000c       move.w 0xc(a6), d0
         0x00636e74      b07aec4a       cmp.w 0x635ac0(pc), d0
     < 0x00636e78      6606           bne.b 0x636e80
        0x00636e7a      4251           clr.w (a1)
    < 0x00636e7c      6000008a       bra.w 0x636f08
    > 0x00636e80      7e00           moveq 0x0, d7
          0x00636e82      7c00           moveq 0x0, d6
      > 0x00636e84      4a06           tst.b d6
     < 0x00636e86      6674           bne.b 0x636efc
        0x00636e88      0c47002a       cmpi.w 0x2a, d7
    < 0x00636e8c      6c6e           bge.b 0x636efc
       0x00636e8e      48c7           ext.l d7
       0x00636e90      2007           move.l d7, d0
       0x00636e92      5280           addq.l 0x1, d0
       0x00636e94      0480ffff8000   subi.l 0xffff8000, d0
       0x00636e9a      0c800000ffff   cmpi.l 0xffff, d0
   < 0x00636ea0      6302           bls.b 0x636ea4
      0x00636ea2      4e4f           trap 0xf
   > 0x00636ea4      0680ffff8000   addi.l 0xffff8000, d0
       0x00636eaa      3e00           move.w d0, d7
       0x00636eac      5d4f           subq.w 0x6, a7
       0x00636eae      48c7           ext.l d7
       0x00636eb0      2007           move.l d7, d0
       0x00636eb2      5380           subq.l 0x1, d0
       0x00636eb4      0c800000002f   cmpi.l 0x2f, d0
   < 0x00636eba      6302           bls.b 0x636ebe
      0x00636ebc      4e4f           trap 0xf
   > 0x00636ebe      e380           asl.l 0x1, d0
       0x00636ec0      41f900845712   lea.l 0x845712, a0
       0x00636ec6      3f300814       move.w 0x14(a0, d0.l), -(a7)
       0x00636eca      4eb900481196   jsr MENUCOM.get_boxcol
       0x00636ed0      544f           addq.w 0x2, a7
       0x00636ed2      2d5ffffa       move.l (a7)+, -0x6(a6)
       0x00636ed6      3d5ffffe       move.w (a7)+, -0x2(a6)
       0x00636eda      302e0008       move.w 0x8(a6), d0
       0x00636ede      b06efffa       cmp.w -0x6(a6), d0
   < 0x00636ee2      6616           bne.b 0x636efa
      0x00636ee4      302e000a       move.w 0xa(a6), d0
      0x00636ee8      b06efffc       cmp.w -0x4(a6), d0
  < 0x00636eec      660c           bne.b 0x636efa
     0x00636eee      302e000c       move.w 0xc(a6), d0
     0x00636ef2      b06efffe       cmp.w -0x2(a6), d0
 < 0x00636ef6      6602           bne.b 0x636efa
    0x00636ef8      7c01           moveq 0x1, d6
 < 0x00636efa      6088           bra.b 0x636e84
    > 0x00636efc      4a06           tst.b d6
      < 0x00636efe      6704           beq.b 0x636f04
         0x00636f00      3287           move.w d7, (a1)
     < 0x00636f02      6004           bra.b 0x636f08
     > 0x00636f04      32bcffff       move.w 0xffff, (a1)
    > 0x00636f08      4cdf03c1       movem.l (a7)+, d0/d6-d7/a0-a1
           0x00636f0c      4e5e           unlk a6
           0x00636f0e      4e75           rts
            ; CALL XREF from PALETCOM.set_cur_colour @ 0x637136
            ; CALL XREF from PALETCOM.pick_pot_colour @ 0x63744e
            ; CALL XREF from PALETCOM.pick_here @ 0x637b7e
            ; CALL XREFS from PALETCOM.pick_colour_fro @ 0x2a4e, 0x6386a8
 180: PALETCOM.set_colour ();
           0x00636f10      4e56ffac       link.w a6, 0xffac
           0x00636f14      bfd5           cmpa.l (a5), a7
       < 0x00636f16      6206           bhi.b 0x636f1e
          0x00636f18      44fc0002       move.w 0x2, ccr
          0x00636f1c      4e76           trapv
       > 0x00636f1e      defc004e       adda.w 0x4e, a7
           0x00636f22      48e7fff8       movem.l d0-d7/a0-a4, -(a7)
           0x00636f26      41f900408686   lea.l fcn.00408686, a0
           0x00636f2c      43f90048da84   lea.l MENU2COM.set_numeric_val, a1
           0x00636f32      45f900845798   lea.l 0x845798, a2
           0x00636f38      47f900407ff8   lea.l fcn.00407ff8, a3
           0x00636f3e      49f90084579a   lea.l 0x84579a, a4
           0x00636f44      7401           moveq 0x1, d2
           0x00636f46      7a0a           moveq 0xa, d5
           0x00636f48      2c3c000000ff   move.l 0xff, d6
           0x00636f4e      7e0e           moveq 0xe, d7
           0x00636f50      3f3900845722   move.w 0x845722, -(a7)
           0x00636f56      2f2e000c       move.l 0xc(a6), -(a7)
           0x00636f5a      3f2e000a       move.w 0xa(a6), -(a7)
           0x00636f5e      4eb900484148   jsr MENUCOM.set_boxcol
           0x00636f64      5c4f           addq.w 0x6, a7
           0x00636f66      3ebc00d3       move.w 0xd3, (a7)
           0x00636f6a      2f2e000c       move.l 0xc(a6), -(a7)
           0x00636f6e      3f2e000a       move.w 0xa(a6), -(a7)
           0x00636f72      4eb900484148   jsr MENUCOM.set_boxcol
           0x00636f78      504f           addq.w 0x8, a7
           0x00636f7a      4ebafa1e       jsr PALETCOM.draw_brush_size(pc)
           0x00636f7e      4a2e0008       tst.b 0x8(a6)
       < 0x00636f82      67000150       beq.w 0x6370d4
          0x00636f86      2f2e000c       move.l 0xc(a6), -(a7)
          0x00636f8a      3f2e000a       move.w 0xa(a6), -(a7)
          0x00636f8e      4227           clr.b -(a7)
          0x00636f90      1039008458e0   move.b 0x8458e0, d0
          0x00636f96      4880           ext.w d0
          0x00636f98      41bc0005       chk.w 0x5, d0
          0x00636f9c      1f00           move.b d0, -(a7)
          0x00636f9e      486efffa       pea.l -0x6(a6)
          0x00636fa2      4eb90063bff8   jsr COLOURCOM.convert_colour
          0x00636fa8      dec7           adda.w d7, a7
          0x00636faa      1039008458e0   move.b 0x8458e0, d0
          0x00636fb0      4880           ext.w d0
          0x00636fb2      0c400002       cmpi.w 0x2, d0
      < 0x00636fb6      6200011c       bhi.w 0x6370d4
         0x00636fba      d040           add.w d0, d0
         0x00636fbc      303b0006       move.w 0x636fc4(pc, d0.w), d0
         0x00636fc0      4efb0002       jmp 0x636fc4(pc, d0.w)
          0x00636fc4      007200b40006   ori.w 0xb4, 0x6(a2, d0.w)
          0x00636fca      303c0168       move.w 0x168, d0
          0x00636fce      c1eefffa       muls.w -0x6(a6), d0
          0x00636fd2      2806           move.l d6, d4
          0x00636fd4      4e90           jsr (a0)                    ; fcn.00000009
          0x00636fd6      2f04           move.l d4, -(a7)
          0x00636fd8      3f12           move.w (a2), -(a7)
          0x00636fda      2800           move.l d0, d4
          0x00636fdc      4e90           jsr (a0)                    ; fcn.00000009
          0x00636fde      594f           subq.w 0x4, a7
          0x00636fe0      202f0006       move.l 0x6(a7), d0
          0x00636fe4      2600           move.l d0, d3
          0x00636fe6      4e93           jsr (a3)                    ; fcn.0000000c
          0x00636fe8      2e84           move.l d4, (a7)
          0x00636fea      4227           clr.b -(a7)
          0x00636fec      1f02           move.b d2, -(a7)
          0x00636fee      4e91           jsr (a1)                    ; fcn.0000000a
          0x00636ff0      dec5           adda.w d5, a7
          0x00636ff2      7264           moveq 0x64, d1
          0x00636ff4      c3eefffc       muls.w -0x4(a6), d1
          0x00636ff8      3f14           move.w (a4), -(a7)
          0x00636ffa      48c1           ext.l d1
          0x00636ffc      2801           move.l d1, d4
          0x00636ffe      4e90           jsr (a0)                    ; fcn.00000009
          0x00637000      594f           subq.w 0x4, a7
          0x00637002      2600           move.l d0, d3
          0x00637004      4e93           jsr (a3)                    ; fcn.0000000c
          0x00637006      2e84           move.l d4, (a7)
          0x00637008      4227           clr.b -(a7)
          0x0063700a      1f02           move.b d2, -(a7)
          0x0063700c      4e91           jsr (a1)                    ; fcn.0000000a
          0x0063700e      dec5           adda.w d5, a7
          0x00637010      7264           moveq 0x64, d1
          0x00637012      c3eefffe       muls.w -0x2(a6), d1
          0x00637016      3f390084579c   move.w 0x84579c, -(a7)
          0x0063701c      48c1           ext.l d1
          0x0063701e      2801           move.l d1, d4
          0x00637020      4e90           jsr (a0)                    ; fcn.00000009
          0x00637022      594f           subq.w 0x4, a7
      > 0x00637024      2600           move.l d0, d3
         0x00637026      4e93           jsr (a3)                    ; fcn.0000000c
         0x00637028      2e84           move.l d4, (a7)
         0x0063702a      4227           clr.b -(a7)
         0x0063702c      1f02           move.b d2, -(a7)
         0x0063702e      4e91           jsr (a1)                    ; fcn.0000000a
         0x00637030      dec7           adda.w d7, a7
     < 0x00637032      600000a0       bra.w 0x6370d4
        0x00637036      3f12           move.w (a2), -(a7)
        0x00637038      382efffa       move.w -0x6(a6), d4
        0x0063703c      48c4           ext.l d4
        0x0063703e      4e90           jsr (a0)                    ; fcn.00000009
        0x00637040      2f04           move.l d4, -(a7)
        0x00637042      4227           clr.b -(a7)
        0x00637044      1f02           move.b d2, -(a7)
        0x00637046      4e91           jsr (a1)                    ; fcn.0000000a
        0x00637048      504f           addq.w 0x8, a7
        0x0063704a      3e94           move.w (a4), (a7)
        0x0063704c      382efffc       move.w -0x4(a6), d4
        0x00637050      48c4           ext.l d4
        0x00637052      4e90           jsr (a0)                    ; fcn.00000009
        0x00637054      2f04           move.l d4, -(a7)
        0x00637056      4227           clr.b -(a7)
        0x00637058      1f02           move.b d2, -(a7)
        0x0063705a      4e91           jsr (a1)                    ; fcn.0000000a
        0x0063705c      504f           addq.w 0x8, a7
        0x0063705e      3eb90084579c   move.w 0x84579c, (a7)
        0x00637064      382efffe       move.w -0x2(a6), d4
        0x00637068      48c4           ext.l d4
        0x0063706a      4e90           jsr (a0)                    ; fcn.00000009
        0x0063706c      2f04           move.l d4, -(a7)
        0x0063706e      4227           clr.b -(a7)
        0x00637070      1f02           move.b d2, -(a7)
        0x00637072      4e91           jsr (a1)                    ; fcn.0000000a
        0x00637074      dec5           adda.w d5, a7
    < 0x00637076      605c           bra.b 0x6370d4
       0x00637078      3006           move.w d6, d0
       0x0063707a      c1eefffa       muls.w -0x6(a6), d0
       0x0063707e      283c000000db   move.l 0xdb, d4
       0x00637084      4e90           jsr (a0)                    ; fcn.00000009
       0x00637086      2f04           move.l d4, -(a7)
       0x00637088      3f12           move.w (a2), -(a7)
       0x0063708a      2800           move.l d0, d4
       0x0063708c      4e90           jsr (a0)                    ; fcn.00000009
       0x0063708e      594f           subq.w 0x4, a7
       0x00637090      202f0006       move.l 0x6(a7), d0
       0x00637094      2600           move.l d0, d3
       0x00637096      4e93           jsr (a3)                    ; fcn.0000000c
       0x00637098      2e84           move.l d4, (a7)
       0x0063709a      4227           clr.b -(a7)
       0x0063709c      1f02           move.b d2, -(a7)
       0x0063709e      4e91           jsr (a1)                    ; fcn.0000000a
       0x006370a0      dec5           adda.w d5, a7
       0x006370a2      3206           move.w d6, d1
       0x006370a4      c3eefffc       muls.w -0x4(a6), d1
       0x006370a8      3f14           move.w (a4), -(a7)
       0x006370aa      2801           move.l d1, d4
       0x006370ac      4e90           jsr (a0)                    ; fcn.00000009
       0x006370ae      594f           subq.w 0x4, a7
       0x006370b0      2600           move.l d0, d3
       0x006370b2      4e93           jsr (a3)                    ; fcn.0000000c
       0x006370b4      2e84           move.l d4, (a7)
       0x006370b6      4227           clr.b -(a7)
       0x006370b8      1f02           move.b d2, -(a7)
       0x006370ba      4e91           jsr (a1)                    ; fcn.0000000a
       0x006370bc      dec5           adda.w d5, a7
       0x006370be      3206           move.w d6, d1
       0x006370c0      c3eefffe       muls.w -0x2(a6), d1
       0x006370c4      3f390084579c   move.w 0x84579c, -(a7)
       0x006370ca      2801           move.l d1, d4
       0x006370cc      4e90           jsr (a0)                    ; fcn.00000009
       0x006370ce      594f           subq.w 0x4, a7
    < 0x006370d0      6000ff52       bra.w 0x637024
    > 0x006370d4      554f           subq.w 0x2, a7
            0x006370d6      2f2e000c       move.l 0xc(a6), -(a7)
            0x006370da      3f2e000a       move.w 0xa(a6), -(a7)
            0x006370de      4eb90063c606   jsr COLOURCOM.legal_colour
            0x006370e4      5c4f           addq.w 0x6, a7
            0x006370e6      4a1f           tst.b (a7)+
        < 0x006370e8      6610           bne.b 0x6370fa
           0x006370ea      3f3900845796   move.w 0x845796, -(a7)
           0x006370f0      2f3ae966       move.l 0x635a58(pc), -(a7)
           0x006370f4      3f3ae960       move.w 0x635a56(pc), -(a7)
       < 0x006370f8      600e           bra.b 0x637108
       > 0x006370fa      3f3900845796   move.w 0x845796, -(a7)
           0x00637100      2f3ae97a       move.l 0x635a7c(pc), -(a7)
           0x00637104      3f3ae974       move.w 0x635a7a(pc), -(a7)
           ; CODE XREF from PALETCOM @ +0x16a2
       > 0x00637108      4eb900484148   jsr MENUCOM.set_boxcol
            0x0063710e      504f           addq.w 0x8, a7
            0x00637110      4cdf1fff       movem.l (a7)+, d0-d7/a0-a4
            0x00637114      4e5e           unlk a6
            0x00637116      4e75           rts
            ; CALL XREF from MENURIGHTCOM.hit_paintpot @ 0x48f8d0
            ; CALL XREF from MENUPAINTCOM.pick_colour @ 0x4ae920
            ; CALL XREF from MENUPAINTCOM.hit_rgb_boxes @ 0x4b07ee
 40: PALETCOM.set_cur_colour ();
           0x00637118      4e56fff4       link.w a6, 0xfff4
           0x0063711c      bfd5           cmpa.l (a5), a7
       < 0x0063711e      6206           bhi.b 0x637126
          0x00637120      44fc0002       move.w 0x2, ccr
          0x00637124      4e76           trapv
       > 0x00637126      defc000c       adda.w 0xc, a7
           0x0063712a      2f2e000a       move.l 0xa(a6), -(a7)
           0x0063712e      3f2e0008       move.w 0x8(a6), -(a7)
           0x00637132      1f3c0001       move.b 0x1, -(a7)
           0x00637136      4ebafdd8       jsr PALETCOM.set_colour(pc)
           0x0063713a      504f           addq.w 0x8, a7
           0x0063713c      4e5e           unlk a6
           0x0063713e      4e75           rts
            ; CALL XREF from PALETCOM.set_cur_sten @ 0x637182
 40: PALETCOM.set_stencil ();
           0x00637140      4e56fff6       link.w a6, 0xfff6
           0x00637144      bfd5           cmpa.l (a5), a7
       < 0x00637146      6206           bhi.b 0x63714e
          0x00637148      44fc0002       move.w 0x2, ccr
          0x0063714c      4e76           trapv
       > 0x0063714e      defc000a       adda.w 0xa, a7
           0x00637152      3f3900845722   move.w 0x845722, -(a7)
           0x00637158      2f2e000a       move.l 0xa(a6), -(a7)
           0x0063715c      4eb90048402c   jsr MENUCOM.set_b_id
           0x00637162      5c4f           addq.w 0x6, a7
           0x00637164      4e5e           unlk a6
           0x00637166      4e75           rts
            ; CALL XREF from MENUPAINTCOM.pick_colour @ 0x4ae9f2
            ; CALL XREF from MENUPAINTCOM.hit_rgb_boxes @ 0x4b06a4
            ; CALL XREF from PALETCOM.pick_pot_colour @ 0x6374d0
            ; CALL XREF from PALETCOM.pick_here @ 0x637c04
            ; CALL XREF from PALETCOM.pick_colour_fro @ 0x63871a
 36: PALETCOM.set_cur_sten ();
           0x00637168      4e56fff6       link.w a6, 0xfff6
           0x0063716c      bfd5           cmpa.l (a5), a7
       < 0x0063716e      6206           bhi.b 0x637176
          0x00637170      44fc0002       move.w 0x2, ccr
          0x00637174      4e76           trapv
       > 0x00637176      defc000a       adda.w 0xa, a7
           0x0063717a      2f2e0008       move.l 0x8(a6), -(a7)
           0x0063717e      1f3c0001       move.b 0x1, -(a7)
           0x00637182      4ebaffbc       jsr PALETCOM.set_stencil(pc)
           0x00637186      5c4f           addq.w 0x6, a7
           0x00637188      4e5e           unlk a6
           0x0063718a      4e75           rts
            ; CALL XREF from MENURIGHTCOM.hit_wipe_revers @ 0x4903be
            ; CALL XREF from fcn.004add0e @ 0x4adfe0
            ; CALL XREF from MENUPAINTCOM.update_rgb_box @ 0x4ae51a
            ; CALL XREF from MENUPAINTCOM.pick_colour @ 0x4ae954
 42: PALETCOM.get_sten_shade ();
           0x0063718c      4e56fff6       link.w a6, 0xfff6
           0x00637190      bfd5           cmpa.l (a5), a7
       < 0x00637192      6206           bhi.b 0x63719a
          0x00637194      44fc0002       move.w 0x2, ccr
          0x00637198      4e76           trapv
       > 0x0063719a      defc000a       adda.w 0xa, a7
           0x0063719e      594f           subq.w 0x4, a7
           0x006371a0      3f3900845722   move.w 0x845722, -(a7)
           0x006371a6      4eb90048406e   jsr MENUCOM.get_b_id
           0x006371ac      544f           addq.w 0x2, a7
           0x006371ae      2d5f0008       move.l (a7)+, 0x8(a6)
           0x006371b2      4e5e           unlk a6
           0x006371b4      4e75           rts
            ; CALL XREFS from PALETCOM.menu_pal_init @ 0x2822, 0x6398f2
 56: PALETCOM.do_mode ();
           0x006371b6      4e56ffe2       link.w a6, 0xffe2
           0x006371ba      bfd5           cmpa.l (a5), a7
       < 0x006371bc      6206           bhi.b 0x6371c4
          0x006371be      44fc0002       move.w 0x2, ccr
          0x006371c2      4e76           trapv
       > 0x006371c4      defc001e       adda.w 0x1e, a7
           0x006371c8      48e7c080       movem.l d0-d1/a0, -(a7)
           0x006371cc      41f9008458e0   lea.l 0x8458e0, a0
           0x006371d2      7201           moveq 0x1, d1
           0x006371d4      10ae0008       move.b 0x8(a6), (a0)
           0x006371d8      1010           move.b (a0), d0
           0x006371da      4880           ext.w d0
           0x006371dc      0c400005       cmpi.w 0x5, d0
       < 0x006371e0      6302           bls.b 0x6371e4
          0x006371e2      4e4e           trap 0xe
       > 0x006371e4      d040           add.w d0, d0
           0x006371e6      303b0006       move.w 0x6371ee(pc, d0.w), d0
           0x006371ea      4efb0002       jmp 0x6371ee(pc, d0.w)
            0x006371ee      000c004e       
            0x006371ef      0c004e00       cmpi.b 0x0, d0
            0x006371f3      3a00           move.w d0, d5
        < 0x006371f5      62007600       bhi.w 0x63e7f7
           0x006371f9      8a59           or.w (a1)+, d5
           0x006371fb      4f1e           chk.l (a6)+, d7
           0x006371fd      baee611f       cmpa.w 0x611f(a6), a5
           0x00637201      7aee           moveq 0xee, d5
           0x00637203      5e00           addq.b 0x7, d0
           0x00637205      011f           btst.l d0, (a7)+
           0x00637207      7aee           moveq 0xee, d5
           0x00637209      5900           subq.b 0x4, d0
           0x0063720b      023f3900       
   > 0x0063720c      3f3900845796   move.w 0x845796, -(a7)
      0x00637212      486f0002       pea.l 0x2(a7)
      0x00637216      3f01           move.w d1, -(a7)
      0x00637218      3f3c0003       move.w 0x3, -(a7)
      0x0063721c      4eb900483da2   jsr MENUCOM.set_boxtext
      0x00637222      defc000e       adda.w 0xe, a7
  < 0x00637226      6064           bra.b 0x63728c
     0x00637228      594f           subq.w 0x4, a7
     0x0063722a      1ebaee37       move.b 0x636063(pc), (a7)
     0x0063722e      1f7aee340001   move.b 0x636064(pc), 0x1(a7)
     0x00637234      1f7aee2f0002   move.b 0x636065(pc), 0x2(a7)
  < 0x0063723a      60d0           bra.b 0x63720c
      0x0063723c      594f           subq.w 0x4, a7
      0x0063723e      1ebaee27       move.b 0x636067(pc), (a7)
      0x00637242      1f7aee240001   move.b 0x636068(pc), 0x1(a7)
      0x00637248      1f7aee1f0002   move.b 0x636069(pc), 0x2(a7)
   < 0x0063724e      60bc           bra.b 0x63720c
       0x00637250      594f           subq.w 0x4, a7
       0x00637252      1ebaee17       move.b 0x63606b(pc), (a7)
       0x00637256      1f7aee140001   move.b 0x63606c(pc), 0x1(a7)
       0x0063725c      1f7aee0f0002   move.b 0x63606d(pc), 0x2(a7)
    < 0x00637262      60a8           bra.b 0x63720c
        0x00637264      594f           subq.w 0x4, a7
        0x00637266      1ebaee07       move.b 0x63606f(pc), (a7)
        0x0063726a      1f7aee040001   move.b 0x636070(pc), 0x1(a7)
        0x00637270      1f7aedff0002   move.b 0x636071(pc), 0x2(a7)
     < 0x00637276      6094           bra.b 0x63720c
         0x00637278      594f           subq.w 0x4, a7
         0x0063727a      1ebaedf7       move.b 0x636073(pc), (a7)
         0x0063727e      1f7aedf40001   move.b 0x636074(pc), 0x1(a7)
         0x00637284      1f7aedef0002   move.b 0x636075(pc), 0x2(a7)
      < 0x0063728a      6080           bra.b 0x63720c
  > 0x0063728c      5d4f           subq.w 0x6, a7
           0x0063728e      4ebafb0e       jsr PALETCOM.br_colour(pc)
           0x00637292      1f01           move.b d1, -(a7)
           0x00637294      4ebafc7a       jsr PALETCOM.set_colour(pc)
           0x00637298      504f           addq.w 0x8, a7
           0x0063729a      4cdf0103       movem.l (a7)+, d0-d1/a0
           0x0063729e      4e5e           unlk a6
           0x006372a0      4e75           rts
 30: PALETCOM.get_col_mode ();
          0x006372a2      4e56fffc       link.w a6, 0xfffc
          0x006372a6      bfd5           cmpa.l (a5), a7
      < 0x006372a8      6206           bhi.b 0x6372b0
         0x006372aa      44fc0002       move.w 0x2, ccr
         0x006372ae      4e76           trapv
      > 0x006372b0      defc0004       adda.w 0x4, a7
          0x006372b4      1d79008458e0.  move.b 0x8458e0, 0x8(a6)
          0x006372bc      4e5e           unlk a6
          0x006372be      4e75           rts
 200: PALETCOM.alt_draw_box (int32_t arg_8h);
          ; arg int32_t arg_8h @ a6+0x8
          0x006372c0      4e56ffd0       link.w a6, 0xffd0
          0x006372c4      bfd5           cmpa.l (a5), a7
      < 0x006372c6      6206           bhi.b 0x6372ce
         0x006372c8      44fc0002       move.w 0x2, ccr
         0x006372cc      4e76           trapv
      > 0x006372ce      defc0028       adda.w 0x28, a7
          0x006372d2      48e7e080       movem.l d0-d2/a0, -(a7)
          0x006372d6      7202           moveq 0x2, d1
          0x006372d8      243cffff8000   move.l 0xffff8000, d2
          0x006372de      1f01           move.b d1, -(a7)
          0x006372e0      4227           clr.b -(a7)
          0x006372e2      4eb900522512   jsr BRUSHCOM.br_write_prot
          0x006372e8      2eae000e       move.l 0xe(a6), (a7)
          0x006372ec      3f2e000c       move.w 0xc(a6), -(a7)
          0x006372f0      4eb900520fa4   jsr BRUSHCOM.set_br_colour
          0x006372f6      584f           addq.w 0x4, a7
          0x006372f8      1e81           move.b d1, (a7)
          0x006372fa      4227           clr.b -(a7)
          0x006372fc      2f2e0016       move.l 0x16(a6), -(a7)
          0x00637300      2f2e0012       move.l 0x12(a6), -(a7)
          0x00637304      4eb9005213b4   jsr BRUSHCOM.br_wipe
          0x0063730a      defc000c       adda.w 0xc, a7
          0x0063730e      302e0012       move.w 0x12(a6), d0
          0x00637312      48c0           ext.l d0
          0x00637314      5680           addq.l 0x3, d0
          0x00637316      9082           sub.l d2, d0
          0x00637318      0c800000ffff   cmpi.l 0xffff, d0
      < 0x0063731e      6302           bls.b 0x637322
         0x00637320      4e4f           trap 0xf
      > 0x00637322      d082           add.l d2, d0
          0x00637324      3d40fff8       move.w d0, -0x8(a6)
          0x00637328      302e0014       move.w 0x14(a6), d0
          0x0063732c      48c0           ext.l d0
          0x0063732e      5280           addq.l 0x1, d0
          0x00637330      9082           sub.l d2, d0
          0x00637332      0c800000ffff   cmpi.l 0xffff, d0
      < 0x00637338      6302           bls.b 0x63733c
         0x0063733a      4e4f           trap 0xf
      > 0x0063733c      d082           add.l d2, d0
          0x0063733e      3d40fffa       move.w d0, -0x6(a6)
          0x00637342      2d6e0008fffc   move.l 0x8(a6), -0x4(a6)
          0x00637348      4aae0008       tst.l 0x8(a6)
      < 0x0063734c      6724           beq.b 0x637372
         0x0063734e      1f01           move.b d1, -(a7)
         0x00637350      4227           clr.b -(a7)
         0x00637352      2f3ae710       move.l 0x635a64(pc), -(a7)
         0x00637356      3f3ae70a       move.w 0x635a62(pc), -(a7)
         0x0063735a      486efff8       pea.l -0x8(a6)
         0x0063735e      3f2e0016       move.w 0x16(a6), -(a7)
         0x00637362      206efffc       movea.l -0x4(a6), a0
         0x00637366      4850           pea.l (a0)
         0x00637368      4eb900525648   jsr BRUSH1COM.br_write_string
         0x0063736e      defc0014       adda.w 0x14, a7
      > 0x00637372      1f01           move.b d1, -(a7)
          0x00637374      1f3c0001       move.b 0x1, -(a7)
          0x00637378      4eb900522512   jsr BRUSHCOM.br_write_prot
          0x0063737e      584f           addq.w 0x4, a7
          0x00637380      4cdf0107       movem.l (a7)+, d0-d2/a0
          0x00637384      4e5e           unlk a6
          0x00637386      4e75           rts
           ; CALL XREF from MENUPAINTCOM.men_painting_bo @ 0x4b1220
 78: PALETCOM.make_brush_sibl ();
          0x00637388      4e56fff4       link.w a6, 0xfff4
          0x0063738c      bfd5           cmpa.l (a5), a7
      < 0x0063738e      6206           bhi.b 0x637396
         0x00637390      44fc0002       move.w 0x2, ccr
         0x00637394      4e76           trapv
      > 0x00637396      defc000c       adda.w 0xc, a7
          0x0063739a      48e70080       movem.l a0, -(a7)
          0x0063739e      41f900485acc   lea.l MENUCOM.make_sibling_bo, a0
          0x006373a4      3f390084579e   move.w 0x84579e, -(a7)
          0x006373aa      3f3c0046       move.w 0x46, -(a7)
          0x006373ae      4e90           jsr (a0)                    ; fcn.00000009
          0x006373b0      544f           addq.w 0x2, a7
          0x006373b2      3eb9008457a0   move.w 0x8457a0, (a7)
          0x006373b8      3f3c0047       move.w 0x47, -(a7)
          0x006373bc      4e90           jsr (a0)                    ; fcn.00000009
          0x006373be      544f           addq.w 0x2, a7
          0x006373c0      3eb9008457a2   move.w 0x8457a2, (a7)
          0x006373c6      3f3c0048       move.w 0x48, -(a7)
          0x006373ca      4e90           jsr (a0)                    ; fcn.00000009
          0x006373cc      584f           addq.w 0x4, a7
          0x006373ce      4cdf0100       movem.l (a7)+, a0
          0x006373d2      4e5e           unlk a6
          0x006373d4      4e75           rts
           ; CALL XREFS from PALETCOM.hit_undo @ 0x2746, 0x6384fc
 22: PALETCOM.do_undo ();
          0x006373d6      4e56fff8       link.w a6, 0xfff8
          0x006373da      bfd5           cmpa.l (a5), a7
      < 0x006373dc      6206           bhi.b 0x6373e4
         0x006373de      44fc0002       move.w 0x2, ccr
         0x006373e2      4e76           trapv
      > 0x006373e4      defc0004       adda.w 0x4, a7
          0x006373e8      4e5e           unlk a6
          0x006373ea      4e75           rts
           ; CALL XREF from PALETCOM @ +0x1c92
 242: PALETCOM.pick_pot_colour ();
          0x006373ec      4e56fed4       link.w a6, 0xfed4
          0x006373f0      bfd5           cmpa.l (a5), a7
      < 0x006373f2      6206           bhi.b 0x6373fa
         0x006373f4      44fc0002       move.w 0x2, ccr
         0x006373f8      4e76           trapv
      > 0x006373fa      defc0126       adda.w 0x126, a7
          0x006373fe      48e798e0       movem.l d0/d3-d4/a0-a2, -(a7)
          0x00637402      43eefffa       lea.l -0x6(a6), a1
          0x00637406      45f900408686   lea.l fcn.00408686, a2
          0x0063740c      9efc000c       suba.w 0xc, a7
          0x00637410      3f2c0014       move.w 0x14(a4), -(a7)
          0x00637414      4eb90048406e   jsr MENUCOM.get_b_id
          0x0063741a      544f           addq.w 0x2, a7
          0x0063741c      201f           move.l (a7)+, d0
          0x0063741e      5380           subq.l 0x1, d0
          0x00637420      0c800000002f   cmpi.l 0x2f, d0
      < 0x00637426      6302           bls.b 0x63742a
         0x00637428      4e4f           trap 0xf
      > 0x0063742a      e380           asl.l 0x1, d0
          0x0063742c      41f900845712   lea.l 0x845712, a0
          0x00637432      3eb00814       move.w 0x14(a0, d0.l), (a7)
          0x00637436      4eb900481196   jsr MENUCOM.get_boxcol
          0x0063743c      544f           addq.w 0x2, a7
          0x0063743e      229f           move.l (a7)+, (a1)
          0x00637440      3d5ffffe       move.w (a7)+, -0x2(a6)
          0x00637444      2f2efffc       move.l -0x4(a6), -(a7)
          0x00637448      3f11           move.w (a1), -(a7)
          0x0063744a      1f3c0001       move.b 0x1, -(a7)
          0x0063744e      4ebafac0       jsr PALETCOM.set_colour(pc)
          0x00637452      584f           addq.w 0x4, a7
          0x00637454      283c000000ff   move.l 0xff, d4
          0x0063745a      4e92           jsr (a2)                    ; fcn.00000009+0x2
          0x0063745c      594f           subq.w 0x4, a7
          0x0063745e      2f04           move.l d4, -(a7)
          0x00637460      283c000000db   move.l 0xdb, d4
          0x00637466      4e92           jsr (a2)                    ; fcn.00000009+0x2
          0x00637468      2604           move.l d4, d3
          0x0063746a      2817           move.l (a7), d4
          0x0063746c      4eb900407ff8   jsr fcn.00407ff8
          0x00637472      2e84           move.l d4, (a7)
          0x00637474      3011           move.w (a1), d0
          0x00637476      04400010       subi.w 0x10, d0
          0x0063747a      48c0           ext.l d0
          0x0063747c      2800           move.l d0, d4
          0x0063747e      4e92           jsr (a2)                    ; fcn.00000009+0x2
          0x00637480      2617           move.l (a7), d3
          0x00637482      4eb900407e92   jsr fcn.00407e92
          0x00637488      584f           addq.w 0x4, a7
          0x0063748a      4eb900408224   jsr fcn.00408224
          0x00637490      2e84           move.l d4, (a7)
          0x00637492      9efc00fc       suba.w 0xfc, a7
          0x00637496      2f3aebde       move.l 0x636076(pc), -(a7)
          0x0063749a      1f7aebde0004   move.b 0x63607a(pc), 0x4(a7)
          0x006374a0      4227           clr.b -(a7)
          0x006374a2      4eb900639c30   jsr COLOURCOM.legalize
          0x006374a8      defc0106       adda.w 0x106, a7
          0x006374ac      201f           move.l (a7)+, d0
          0x006374ae      0c80000000ff   cmpi.l 0xff, d0
      < 0x006374b4      6302           bls.b 0x6374b8
         0x006374b6      4e4f           trap 0xf
      > 0x006374b8      3280           move.w d0, (a1)
          0x006374ba      554f           subq.w 0x2, a7
          0x006374bc      3f3c001f       move.w 0x1f, -(a7)
          0x006374c0      4eb900480fc2   jsr MENUCOM.get_boxon
          0x006374c6      544f           addq.w 0x2, a7
          0x006374c8      4a1f           tst.b (a7)+
      < 0x006374ca      670a           beq.b 0x6374d6
         0x006374cc      48c0           ext.l d0
         0x006374ce      2f00           move.l d0, -(a7)
         0x006374d0      4ebafc96       jsr PALETCOM.set_cur_sten(pc)
         0x006374d4      584f           addq.w 0x4, a7
      > 0x006374d6      4cdf0719       movem.l (a7)+, d0/d3-d4/a0-a2
          0x006374da      4e5e           unlk a6
          0x006374dc      4e75           rts
           ; CALL XREF from PALETCOM @ +0x1c80
 134: PALETCOM.deposit_pot_col ();
          0x006374de      4e56ffec       link.w a6, 0xffec
          0x006374e2      bfd5           cmpa.l (a5), a7
      < 0x006374e4      6206           bhi.b 0x6374ec
         0x006374e6      44fc0002       move.w 0x2, ccr
         0x006374ea      4e76           trapv
      > 0x006374ec      defc0014       adda.w 0x14, a7
          0x006374f0      48e78080       movem.l d0/a0, -(a7)
          0x006374f4      5d4f           subq.w 0x6, a7
          0x006374f6      3f2c0014       move.w 0x14(a4), -(a7)
          0x006374fa      4eb90048406e   jsr MENUCOM.get_b_id
          0x00637500      544f           addq.w 0x2, a7
          0x00637502      201f           move.l (a7)+, d0
          0x00637504      0480ffff8000   subi.l 0xffff8000, d0
          0x0063750a      0c800000ffff   cmpi.l 0xffff, d0
      < 0x00637510      6302           bls.b 0x637514
         0x00637512      4e4f           trap 0xf
      > 0x00637514      0680ffff8000   addi.l 0xffff8000, d0
          0x0063751a      3e80           move.w d0, (a7)
          0x0063751c      5d4f           subq.w 0x6, a7
          0x0063751e      4ebaf87e       jsr PALETCOM.br_colour(pc)
          0x00637522      4eb90048f6f6   jsr MENURIGHTCOM.set_potcol
          0x00637528      3eac0014       move.w 0x14(a4), (a7)
          0x0063752c      4eb90048406e   jsr MENUCOM.get_b_id
          0x00637532      544f           addq.w 0x2, a7
          0x00637534      201f           move.l (a7)+, d0
          0x00637536      5380           subq.l 0x1, d0
          0x00637538      0c800000002f   cmpi.l 0x2f, d0
      < 0x0063753e      6302           bls.b 0x637542
         0x00637540      4e4f           trap 0xf
      > 0x00637542      e380           asl.l 0x1, d0
          0x00637544      41f900845712   lea.l 0x845712, a0
          0x0063754a      3eb00814       move.w 0x14(a0, d0.l), (a7)
          0x0063754e      5d4f           subq.w 0x6, a7
          0x00637550      4ebaf84c       jsr PALETCOM.br_colour(pc)
          0x00637554      4eb900484148   jsr MENUCOM.set_boxcol
          0x0063755a      504f           addq.w 0x8, a7
          0x0063755c      4cdf0101       movem.l (a7)+, d0/a0
          0x00637560      4e5e           unlk a6
          0x00637562      4e75           rts
 92: PALETCOM.hit_pot ();
          0x00637564      4e56ffb0       link.w a6, 0xffb0
          0x00637568      bfd5           cmpa.l (a5), a7
      < 0x0063756a      6206           bhi.b 0x637572
         0x0063756c      44fc0002       move.w 0x2, ccr
         0x00637570      4e76           trapv
      > 0x00637572      defc0046       adda.w 0x46, a7
          0x00637576      48e7fdf8       movem.l d0-d5/d7/a0-a4, -(a7)
          0x0063757a      43f900408686   lea.l fcn.00408686, a1
          0x00637580      45f9008457ae   lea.l 0x8457ae, a2
          0x00637586      47f900845712   lea.l 0x845712, a3
          0x0063758c      7202           moveq 0x2, d1
          0x0063758e      7407           moveq 0x7, d2
          0x00637590      7a01           moveq 0x1, d5
          0x00637592      302e0008       move.w 0x8(a6), d0
          0x00637596      b042           cmp.w d2, d0
      < 0x00637598      6d12           blt.b 0x6375ac
         0x0063759a      b042           cmp.w d2, d0
     < 0x0063759c      67000146       beq.w 0x6376e4
        0x006375a0      0c400015       cmpi.w 0x15, d0
    < 0x006375a4      670000a2       beq.w 0x637648
   < 0x006375a8      60000142       bra.w loc.006376ec
   > 0x006375ac      5740           subq.w 0x3, d0
       0x006375ae      0c400003       cmpi.w 0x3, d0
   < 0x006375b2      62000138       bhi.w loc.006376ec
      0x006375b6      d040           add.w d0, d0
      0x006375b8      303b0006       move.w 0x6375c0(pc, d0.w), d0
      0x006375bc      4efb0002       jmp 0x6375c0(pc, d0.w)
       0x006375c0      00080076       
       0x006375c1      08007601       
       0x006375c2      0076012c0088   ori.w 0x12c, -0x78(a6, d0.w)
       0x006375c8      9efc000c       suba.w 0xc, a7
       0x006375cc      3f2e000a       move.w 0xa(a6), -(a7)
       0x006375d0      4eb90048406e   jsr MENUCOM.get_b_id
       0x006375d6      544f           addq.w 0x2, a7
       0x006375d8      201f           move.l (a7)+, d0
       0x006375da      5380           subq.l 0x1, d0
       0x006375dc      0c800000002f   cmpi.l 0x2f, d0
   < 0x006375e2      6302           bls.b 0x6375e6
      0x006375e4      4e4f           trap 0xf
   > 0x006375e6      e380           asl.l 0x1, d0
       0x006375e8      204b           movea.l a3, a0
       0x006375ea      3eb00814       move.w 0x14(a0, d0.l), (a7)
       0x006375ee      4eb900481196   jsr MENUCOM.get_boxcol
       0x006375f4      544f           addq.w 0x2, a7
       0x006375f6      4eb900520fa4   jsr BRUSHCOM.set_br_colour
       0x006375fc      584f           addq.w 0x4, a7
       0x006375fe      1e81           move.b d1, (a7)
       0x00637600      4227           clr.b -(a7)
       0x00637602      4eb900522512   jsr BRUSHCOM.br_write_prot
       0x00637608      544f           addq.w 0x2, a7
       0x0063760a      1e81           move.b d1, (a7)
       0x0063760c      4227           clr.b -(a7)
       0x0063760e      514f           subq.w 0x8, a7
       0x00637610      3f2e000a       move.w 0xa(a6), -(a7)
       0x00637614      4eb9004811d6   jsr MENUCOM.get_boxarea
       0x0063761a      544f           addq.w 0x2, a7
       0x0063761c      4eb9005213b4   jsr BRUSHCOM.br_wipe
       0x00637622      defc000a       adda.w 0xa, a7
       0x00637626      1e81           move.b d1, (a7)
       0x00637628      1f05           move.b d5, -(a7)
       0x0063762a      4eb900522512   jsr BRUSHCOM.br_write_prot
       0x00637630      584f           addq.w 0x4, a7
   < 0x00637632      600000b8       bra.w loc.006376ec
      0x00637636      1f05           move.b d5, -(a7)
      0x00637638      4ebafd9c       jsr PALETCOM.do_undo(pc)
      0x0063763c      544f           addq.w 0x2, a7
      0x0063763e      7800           moveq 0x0, d4
      0x00637640      4e91           jsr (a1)                    ; fcn.0000000a
      0x00637642      2484           move.l d4, (a2)
  < 0x00637644      600000a6       bra.w loc.006376ec
  > 0x00637648      2053           movea.l (a3), a0
      0x0063764a      b1e8fffc       cmpa.l -0x4(a0), a0
  < 0x0063764e      6702           beq.b 0x637652
     0x00637650      4e4d           trap 0xd
  > 0x00637652      7808           moveq 0x8, d4
      0x00637654      4e91           jsr (a1)                    ; fcn.0000000a
      0x00637656      2f04           move.l d4, -(a7)
      0x00637658      3828000c       move.w 0xc(a0), d4
      0x0063765c      48c4           ext.l d4
      0x0063765e      4e91           jsr (a1)                    ; fcn.0000000a
      0x00637660      2017           move.l (a7), d0
      0x00637662      2600           move.l d0, d3
      0x00637664      4eb900407ff8   jsr fcn.00407ff8
      0x0063766a      4eb900408404   jsr fcn.00408404
      0x00637670      2f04           move.l d4, -(a7)
      0x00637672      3828000e       move.w 0xe(a0), d4
      0x00637676      48c4           ext.l d4
      0x00637678      4e91           jsr (a1)                    ; fcn.0000000a
      0x0063767a      2600           move.l d0, d3
      0x0063767c      4eb900407ff8   jsr fcn.00407ff8
      0x00637682      4eb900408404   jsr fcn.00408404
      0x00637688      2617           move.l (a7), d3
      0x0063768a      4eb900407ba8   jsr fcn.00407ba8
      0x00637690      2e84           move.l d4, (a7)
      0x00637692      4eb90040853e   jsr p_fsqrt
      0x00637698      584f           addq.w 0x4, a7
      0x0063769a      2e1f           move.l (a7)+, d7
      0x0063769c      7801           moveq 0x1, d4
      0x0063769e      4e91           jsr (a1)                    ; fcn.0000000a
      0x006376a0      2f04           move.l d4, -(a7)
      0x006376a2      2604           move.l d4, d3
      0x006376a4      2807           move.l d7, d4
      0x006376a6      4eb900407dd4   jsr fcn.00407dd4
  < 0x006376ac      6c04           bge.b 0x6376b2
     0x006376ae      2017           move.l (a7), d0
     0x006376b0      2e00           move.l d0, d7
  > 0x006376b2      584f           addq.w 0x4, a7
      0x006376b4      2812           move.l (a2), d4
      0x006376b6      2607           move.l d7, d3
      0x006376b8      4eb900407ba8   jsr fcn.00407ba8
      0x006376be      2484           move.l d4, (a2)
      0x006376c0      2f04           move.l d4, -(a7)
      0x006376c2      7823           moveq 0x23, d4
      0x006376c4      4e91           jsr (a1)                    ; fcn.0000000a
      0x006376c6      2604           move.l d4, d3
      0x006376c8      2817           move.l (a7), d4
      0x006376ca      4eb900407dd4   jsr fcn.00407dd4
  < 0x006376d0      6d08           blt.b 0x6376da
     0x006376d2      49eefff6       lea.l -0xa(a6), a4
     0x006376d6      4ebafe06       jsr PALETCOM.deposit_pot_col(pc)
  > 0x006376da      584f           addq.w 0x4, a7
      0x006376dc      4eb90047b9c8   jsr CNTLCOM.update_cursor
  < 0x006376e2      6008           bra.b loc.006376ec
  > 0x006376e4      49eefff6       lea.l -0xa(a6), a4
      0x006376e8      4ebafd02       jsr PALETCOM.pick_pot_colour(pc)
      ; CODE XREF from PALETCOM.hit_pot @ 0x6375a8
      ; CODE XREF from PALETCOM @ +0x1c8c
 8: loc.006376ec ();
 > 0x006376ec      4cdf1fbf       movem.l (a7)+, d0-d5/d7/a0-a4
          0x006376f0      4e5e           unlk a6
          0x006376f2      4e75           rts
           ; CALL XREF from PALETCOM.start_painting @ 0x63788e
           ; CALL XREF from PALETCOM.paint_here @ 0x6379bc
 84: PALETCOM.convert_to_stor ();
          0x006376f4      4e56ffea       link.w a6, 0xffea
          0x006376f8      bfd5           cmpa.l (a5), a7
      < 0x006376fa      6206           bhi.b 0x637702
         0x006376fc      44fc0002       move.w 0x2, ccr
         0x00637700      4e76           trapv
      > 0x00637702      defc0016       adda.w 0x16, a7
          0x00637706      48e7c080       movem.l d0-d1/a0, -(a7)
          0x0063770a      206e0008       movea.l 0x8(a6), a0
          0x0063770e      554f           subq.w 0x2, a7
          0x00637710      4eb90047ba34   jsr CNTLCOM.menu_start
          0x00637716      301f           move.w (a7)+, d0
          0x00637718      c1fc0008       muls.w 0x8, d0
          0x0063771c      32280002       move.w 0x2(a0), d1
          0x00637720      48c1           ext.l d1
          0x00637722      4480           neg.l d0
          0x00637724      d081           add.l d1, d0
          0x00637726      0480ffff8000   subi.l 0xffff8000, d0
          0x0063772c      0c800000ffff   cmpi.l 0xffff, d0
      < 0x00637732      6302           bls.b 0x637736
         0x00637734      4e4f           trap 0xf
      > 0x00637736      0680ffff8000   addi.l 0xffff8000, d0
          0x0063773c      31400002       move.w d0, 0x2(a0)
          0x00637740      4cdf0103       movem.l (a7)+, d0-d1/a0
          0x00637744      4e5e           unlk a6
          0x00637746      4e75           rts
           ; CALL XREF from PALETCOM @ +0x22e2
 436: PALETCOM.start_painting ();
          0x00637748      4e56ffba       link.w a6, 0xffba
          0x0063774c      bfd5           cmpa.l (a5), a7
      < 0x0063774e      6206           bhi.b 0x637756
         0x00637750      44fc0002       move.w 0x2, ccr
         0x00637754      4e76           trapv
      > 0x00637756      defc0038       adda.w 0x38, a7
          0x0063775a      48e7d9f8       movem.l d0-d1/d3-d4/d7/a0-a4, -(a7)
          0x0063775e      43f9008458e8   lea.l 0x8458e8, a1
          0x00637764      45eefff8       lea.l -0x8(a6), a2
          0x00637768      47f900480fc2   lea.l MENUCOM.get_boxon, a3
          0x0063776e      7201           moveq 0x1, d1
          0x00637770      554f           subq.w 0x2, a7
          0x00637772      4eb9004755c2   jsr CONFIG.cfg_gender
          0x00637778      101f           move.b (a7)+, d0
          0x0063777a      0c000003       cmpi.b 0x3, d0
      < 0x0063777e      6608           bne.b 0x637788
         0x00637780      554f           subq.w 0x2, a7
         0x00637782      3f3c00db       move.w 0xdb, -(a7)
     < 0x00637786      6006           bra.b 0x63778e
     > 0x00637788      554f           subq.w 0x2, a7
         0x0063778a      3f3c0048       move.w 0x48, -(a7)
     > 0x0063778e      4e93           jsr (a3)                    ; fcn.0000000c
          0x00637790      544f           addq.w 0x2, a7
          0x00637792      101f           move.b (a7)+, d0
          0x00637794      4880           ext.w d0
          0x00637796      4181           chk.w d1, d0
          0x00637798      13c0008458e2   move.b d0, 0x8458e2
          0x0063779e      594f           subq.w 0x4, a7
          0x006377a0      1f3c0007       move.b 0x7, -(a7)
          0x006377a4      4eb900631bae   jsr BRUSHESCOM.PAS.get_br_data
          0x006377aa      544f           addq.w 0x2, a7
          0x006377ac      285f           movea.l (a7)+, a4
          0x006377ae      b9ecfffc       cmpa.l -0x4(a4), a4
      < 0x006377b2      6702           beq.b 0x6377b6
         0x006377b4      4e4d           trap 0xd
      > 0x006377b6      4280           clr.l d0
          0x006377b8      302c0116       move.w 0x116(a4), d0
          0x006377bc      2280           move.l d0, (a1)
          0x006377be      13ec011e0084.  move.b 0x11e(a4), 0x8458e3.l
          0x006377c6      4a39008458e2   tst.b 0x8458e2
      < 0x006377cc      6754           beq.b 0x637822
         0x006377ce      594f           subq.w 0x4, a7
         0x006377d0      3f3c0049       move.w 0x49, -(a7)
         0x006377d4      4eb90048d992   jsr MENU2COM.get_numeric_val
         0x006377da      544f           addq.w 0x2, a7
         0x006377dc      281f           move.l (a7)+, d4
         0x006377de      4eb90040832a   jsr fcn.0040832a
         0x006377e4      4484           neg.l d4
         0x006377e6      068400000064   addi.l 0x64, d4
         0x006377ec      7602           moveq 0x2, d3
         0x006377ee      4eb900406b50   jsr fcn.00406b50
         0x006377f4      2f04           move.l d4, -(a7)
         0x006377f6      2811           move.l (a1), d4
         0x006377f8      4eb900408686   jsr fcn.00408686
         0x006377fe      2f04           move.l d4, -(a7)
         0x00637800      202f0004       move.l 0x4(a7), d0
         0x00637804      5280           addq.l 0x1, d0
         0x00637806      2800           move.l d0, d4
         0x00637808      4eb900408686   jsr fcn.00408686
         0x0063780e      2604           move.l d4, d3
         0x00637810      2817           move.l (a7), d4
         0x00637812      4eb900407ff8   jsr fcn.00407ff8
         0x00637818      504f           addq.w 0x8, a7
         0x0063781a      4eb900408224   jsr fcn.00408224
         0x00637820      2284           move.l d4, (a1)
      > 0x00637822      1f01           move.b d1, -(a7)
          0x00637824      2f39008457a8   move.l 0x8457a8, -(a7)
          0x0063782a      2f39008457a4   move.l 0x8457a4, -(a7)
          0x00637830      4eb9005223fc   jsr BRUSHCOM.str_write_area
          0x00637836      5c4f           addq.w 0x6, a7
          0x00637838      3ebc004a       move.w 0x4a, (a7)
          0x0063783c      4e93           jsr (a3)                    ; fcn.0000000c
          0x0063783e      544f           addq.w 0x2, a7
          0x00637840      4a1f           tst.b (a7)+
      < 0x00637842      6704           beq.b 0x637848
         0x00637844      7e03           moveq 0x3, d7
     < 0x00637846      6014           bra.b 0x63785c
     > 0x00637848      554f           subq.w 0x2, a7
         0x0063784a      3f3c004b       move.w 0x4b, -(a7)
         0x0063784e      4e93           jsr (a3)                    ; fcn.0000000c
         0x00637850      544f           addq.w 0x2, a7
         0x00637852      4a1f           tst.b (a7)+
     < 0x00637854      6704           beq.b 0x63785a
        0x00637856      7e02           moveq 0x2, d7
    < 0x00637858      6002           bra.b 0x63785c
    > 0x0063785a      7e00           moveq 0x0, d7
    > 0x0063785c      4a2c011d       tst.b 0x11d(a4)
      < 0x00637860      660a           bne.b 0x63786c
         0x00637862      1f01           move.b d1, -(a7)
         0x00637864      4eb90047ae9c   jsr CNTLCOM.sel_buffered_co
         0x0063786a      544f           addq.w 0x2, a7
      > 0x0063786c      1f01           move.b d1, -(a7)
          0x0063786e      4887           ext.w d7
          0x00637870      4fbc0004       chk.w 0x4, d7
          0x00637874      1f07           move.b d7, -(a7)
          0x00637876      4227           clr.b -(a7)
          0x00637878      4227           clr.b -(a7)
          0x0063787a      1f01           move.b d1, -(a7)
          0x0063787c      4eb900523ab6   jsr BRUSHCOM.set_stamp_mode
          0x00637882      5c4f           addq.w 0x6, a7
          0x00637884      4eb90047b72c   jsr CNTLCOM.get_pen_abs
          0x0063788a      249f           move.l (a7)+, (a2)
          0x0063788c      4852           pea.l (a2)
          0x0063788e      4ebafe64       jsr PALETCOM.convert_to_stor(pc)
          0x00637892      554f           subq.w 0x2, a7
          0x00637894      4ebaf508       jsr PALETCOM.br_colour(pc)
          0x00637898      4eb900520fa4   jsr BRUSHCOM.set_br_colour
          0x0063789e      5c4f           addq.w 0x6, a7
          0x006378a0      207900845712   movea.l 0x845712, a0
          0x006378a6      b1e8fffc       cmpa.l -0x4(a0), a0
      < 0x006378aa      6702           beq.b 0x6378ae
         0x006378ac      4e4d           trap 0xd
      > 0x006378ae      38280010       move.w 0x10(a0), d4
          0x006378b2      48c4           ext.l d4
          0x006378b4      2611           move.l (a1), d3
          0x006378b6      4eb900406a74   jsr fcn.00406a74
          0x006378bc      0484ffff8000   subi.l 0xffff8000, d4
          0x006378c2      0c840000ffff   cmpi.l 0xffff, d4
      < 0x006378c8      6302           bls.b 0x6378cc
         0x006378ca      4e4f           trap 0xf
      > 0x006378cc      0684ffff8000   addi.l 0xffff8000, d4
          0x006378d2      3f04           move.w d4, -(a7)
          0x006378d4      4eb900521034   jsr BRUSHCOM.br_pressure
          0x006378da      544f           addq.w 0x2, a7
          0x006378dc      2f12           move.l (a2), -(a7)
          0x006378de      4eb90063553e   jsr asm_stamp
          0x006378e4      2e92           move.l (a2), (a7)
          0x006378e6      4eb900635510   jsr asm_start_line
          0x006378ec      584f           addq.w 0x4, a7
          0x006378ee      23c1008458e4   move.l d1, 0x8458e4
          0x006378f4      4cdf1f9b       movem.l (a7)+, d0-d1/d3-d4/d7/a0-a4
          0x006378f8      4e5e           unlk a6
          0x006378fa      4e75           rts
           ; CALL XREF from PALETCOM.paint_here @ 0x637a46
 76: PALETCOM.random_pressure ();
          0x006378fc      4e56ffec       link.w a6, 0xffec
          0x00637900      bfd5           cmpa.l (a5), a7
      < 0x00637902      6206           bhi.b 0x63790a
         0x00637904      44fc0002       move.w 0x2, ccr
         0x00637908      4e76           trapv
      > 0x0063790a      defc0014       adda.w 0x14, a7
          0x0063790e      48e71880       movem.l d3-d4/a0, -(a7)
          0x00637912      41f900845716   lea.l 0x845716, a0
          0x00637918      2810           move.l (a0), d4
          0x0063791a      263c00006255   move.l 0x6255, d3
          0x00637920      4eb900406a74   jsr fcn.00406a74
          0x00637926      068400003619   addi.l 0x3619, d4
          0x0063792c      02840000ffff   andi.l 0xffff, d4
          0x00637932      2084           move.l d4, (a0)
          0x00637934      02840000ff00   andi.l 0xff00, d4
          0x0063793a      e084           asr.l 0x8, d4
          0x0063793c      3d440008       move.w d4, 0x8(a6)
          0x00637940      4cdf0118       movem.l (a7)+, d3-d4/a0
          0x00637944      4e5e           unlk a6
          0x00637946      4e75           rts
           ; CALL XREF from PALETCOM @ +0x22e6
 372: PALETCOM.paint_here (int32_t arg_1h, int32_t arg_2h, int32_t arg_3h);
          ; arg int32_t arg_1h @ a6+0x1
          ; arg int32_t arg_2h @ a6+0x2
          ; arg int32_t arg_3h @ a6+0x3
          0x00637948      4e56ffc2       link.w a6, 0xffc2
          0x0063794c      bfd5           cmpa.l (a5), a7
      < 0x0063794e      6206           bhi.b 0x637956
         0x00637950      44fc0002       move.w 0x2, ccr
         0x00637954      4e76           trapv
      > 0x00637956      defc0038       adda.w 0x38, a7
          0x0063795a      48e7f9f8       movem.l d0-d4/d7/a0-a4, -(a7)
          0x0063795e      43eefffc       lea.l -0x4(a6), a1
          0x00637962      45f9008458e4   lea.l 0x8458e4, a2
          0x00637968      47f900521034   lea.l BRUSHCOM.br_pressure, a3
          0x0063796e      49f900406a74   lea.l fcn.00406a74, a4
          0x00637974      243cffff8000   move.l 0xffff8000, d2
          0x0063797a      207900845712   movea.l 0x845712, a0
          0x00637980      b1e8fffc       cmpa.l -0x4(a0), a0
      < 0x00637984      6702           beq.b 0x637988
         0x00637986      4e4d           trap 0xd
      > 0x00637988      1290           move.b (a0), (a1)
          0x0063798a      1d680001fffd   move.b 0x1(a0), -0x3(a6)
          0x00637990      1d680002fffe   move.b 0x2(a0), -0x2(a6)
          0x00637996      1d680003ffff   move.b 0x3(a0), -0x1(a6)
          0x0063799c      38280010       move.w 0x10(a0), d4
          0x006379a0      48c4           ext.l d4
          0x006379a2      2639008458e8   move.l 0x8458e8, d3
          0x006379a8      4e94           jsr (a4)                    ; fcn.0000000d
          0x006379aa      9882           sub.l d2, d4
          0x006379ac      0c840000ffff   cmpi.l 0xffff, d4
      < 0x006379b2      6302           bls.b 0x6379b6
         0x006379b4      4e4f           trap 0xf
      > 0x006379b6      d882           add.l d2, d4
          0x006379b8      3e04           move.w d4, d7
          0x006379ba      4851           pea.l (a1)
          0x006379bc      4ebafd36       jsr PALETCOM.convert_to_stor(pc)
          0x006379c0      584f           addq.w 0x4, a7
          0x006379c2      4a39008458e2   tst.b 0x8458e2
      < 0x006379c8      670000d2       beq.w 0x637a9c
         0x006379cc      4a39008458e3   tst.b 0x8458e3
     < 0x006379d2      661c           bne.b 0x6379f0
        0x006379d4      3f07           move.w d7, -(a7)
        0x006379d6      4e93           jsr (a3)                    ; fcn.0000000c
        0x006379d8      544f           addq.w 0x2, a7
        0x006379da      2f11           move.l (a1), -(a7)
        0x006379dc      4227           clr.b -(a7)
        0x006379de      4eb9006355c0   jsr asm_paint_draw_to
        0x006379e4      5c4f           addq.w 0x6, a7
    > 0x006379e6      24bc00000001   move.l 0x1, (a2)
   < 0x006379ec      600000c0       bra.w 0x637aae
   > 0x006379f0      3039008458ec   move.w 0x8458ec, d0
       0x006379f6      48c0           ext.l d0
       0x006379f8      3211           move.w (a1), d1
       0x006379fa      48c1           ext.l d1
       0x006379fc      4481           neg.l d1
       0x006379fe      d280           add.l d0, d1
   < 0x00637a00      6a02           bpl.b 0x637a04
      0x00637a02      4481           neg.l d1
   > 0x00637a04      2801           move.l d1, d4
       0x00637a06      2604           move.l d4, d3
       0x00637a08      4e94           jsr (a4)                    ; fcn.0000000d
       0x00637a0a      2f04           move.l d4, -(a7)
       0x00637a0c      3039008458ee   move.w 0x8458ee, d0
       0x00637a12      48c0           ext.l d0
       0x00637a14      322efffe       move.w -0x2(a6), d1
       0x00637a18      48c1           ext.l d1
       0x00637a1a      4481           neg.l d1
       0x00637a1c      d280           add.l d0, d1
   < 0x00637a1e      6a02           bpl.b 0x637a22
      0x00637a20      4481           neg.l d1
   > 0x00637a22      2801           move.l d1, d4
       0x00637a24      2604           move.l d4, d3
       0x00637a26      4e94           jsr (a4)                    ; fcn.0000000d
       0x00637a28      2017           move.l (a7), d0
       0x00637a2a      d880           add.l d0, d4
       0x00637a2c      584f           addq.w 0x4, a7
       0x00637a2e      0c8400000100   cmpi.l 0x100, d4
   < 0x00637a34      6c56           bge.b 0x637a8c
      0x00637a36      2812           move.l (a2), d4
      0x00637a38      7603           moveq 0x3, d3
      0x00637a3a      4eb900406b50   jsr fcn.00406b50
      0x00637a40      4a83           tst.l d3
  < 0x00637a42      6644           bne.b 0x637a88
     0x00637a44      554f           subq.w 0x2, a7
     0x00637a46      4ebafeb4       jsr PALETCOM.random_pressure(pc)
     0x00637a4a      48c7           ext.l d7
     0x00637a4c      4280           clr.l d0
     0x00637a4e      301f           move.w (a7)+, d0
     0x00637a50      d087           add.l d7, d0
     0x00637a52      9082           sub.l d2, d0
     0x00637a54      0c800000ffff   cmpi.l 0xffff, d0
 < 0x00637a5a      6302           bls.b 0x637a5e
    0x00637a5c      4e4f           trap 0xf
 > 0x00637a5e      d082           add.l d2, d0
     0x00637a60      3e00           move.w d0, d7
     0x00637a62      0c474000       cmpi.w 0x4000, d7
 < 0x00637a66      6f04           ble.b 0x637a6c
    0x00637a68      3e3c4000       move.w 0x4000, d7
 > 0x00637a6c      3f07           move.w d7, -(a7)
     0x00637a6e      4e93           jsr (a3)                    ; fcn.0000000c
     0x00637a70      544f           addq.w 0x2, a7
     0x00637a72      2f11           move.l (a1), -(a7)
     0x00637a74      4eb90063553e   jsr asm_stamp
     0x00637a7a      2e91           move.l (a1), (a7)
     0x00637a7c      4eb900635510   jsr asm_start_line
 > 0x00637a82      584f           addq.w 0x4, a7
 < 0x00637a84      6000ff60       bra.w 0x6379e6
 > 0x00637a88      5292           addq.l 0x1, (a2)
  < 0x00637a8a      6022           bra.b 0x637aae
  > 0x00637a8c      3f07           move.w d7, -(a7)
      0x00637a8e      4e93           jsr (a3)                    ; fcn.0000000c
      0x00637a90      544f           addq.w 0x2, a7
      0x00637a92      2f11           move.l (a1), -(a7)
      0x00637a94      4eb90063553e   jsr asm_stamp
 < 0x00637a9a      60e6           bra.b 0x637a82
    > 0x00637a9c      3f07           move.w d7, -(a7)
        0x00637a9e      4e93           jsr (a3)                    ; fcn.0000000c
        0x00637aa0      544f           addq.w 0x2, a7
        0x00637aa2      2f11           move.l (a1), -(a7)
        0x00637aa4      4227           clr.b -(a7)
        0x00637aa6      4eb9006355c0   jsr asm_paint_draw_to
        0x00637aac      5c4f           addq.w 0x6, a7
   > 0x00637aae      23d1008458ec   move.l (a1), 0x8458ec
          0x00637ab4      4cdf1f9f       movem.l (a7)+, d0-d4/d7/a0-a4
          0x00637ab8      4e5e           unlk a6
          0x00637aba      4e75           rts
           ; CALL XREF from PALETCOM @ +0x22f4
 48: PALETCOM.finish_painting ();
          0x00637abc      4e56fffa       link.w a6, 0xfffa
          0x00637ac0      bfd5           cmpa.l (a5), a7
      < 0x00637ac2      6206           bhi.b 0x637aca
         0x00637ac4      44fc0002       move.w 0x2, ccr
         0x00637ac8      4e76           trapv
      > 0x00637aca      defc0006       adda.w 0x6, a7
          0x00637ace      4227           clr.b -(a7)
          0x00637ad0      4eb90047ae9c   jsr CNTLCOM.sel_buffered_co
          0x00637ad6      544f           addq.w 0x2, a7
          0x00637ad8      4eb90051f298   jsr BRUSHCOM.brush_wait
          0x00637ade      4227           clr.b -(a7)
          0x00637ae0      4eb900522436   jsr BRUSHCOM.set_write_en
          0x00637ae6      544f           addq.w 0x2, a7
          0x00637ae8      4e5e           unlk a6
          0x00637aea      4e75           rts
           ; CALL XREF from PALETCOM @ +0x22fe
 294: PALETCOM.pick_here ();
          0x00637aec      4e56fec4       link.w a6, 0xfec4
          0x00637af0      bfd5           cmpa.l (a5), a7
      < 0x00637af2      6206           bhi.b 0x637afa
         0x00637af4      44fc0002       move.w 0x2, ccr
         0x00637af8      4e76           trapv
      > 0x00637afa      defc0132       adda.w 0x132, a7
          0x00637afe      48e7f8f0       movem.l d0-d4/a0-a3, -(a7)
          0x00637b02      45eefffa       lea.l -0x6(a6), a2
          0x00637b06      47f900408686   lea.l fcn.00408686, a3
          0x00637b0c      7408           moveq 0x8, d2
          0x00637b0e      207900845712   movea.l 0x845712, a0
          0x00637b14      b1e8fffc       cmpa.l -0x4(a0), a0
      < 0x00637b18      6702           beq.b 0x637b1c
         0x00637b1a      4e4d           trap 0xd
      > 0x00637b1c      3010           move.w (a0), d0
          0x00637b1e      48c0           ext.l d0
          0x00637b20      81c2           divs.w d2, d0
          0x00637b22      3d40fff6       move.w d0, -0xa(a6)
          0x00637b26      30280002       move.w 0x2(a0), d0
          0x00637b2a      48c0           ext.l d0
          0x00637b2c      81c2           divs.w d2, d0
          0x00637b2e      554f           subq.w 0x2, a7
          0x00637b30      4eb90047ba34   jsr CNTLCOM.menu_start
          0x00637b36      48c0           ext.l d0
          0x00637b38      321f           move.w (a7)+, d1
          0x00637b3a      48c1           ext.l d1
          0x00637b3c      4481           neg.l d1
          0x00637b3e      d280           add.l d0, d1
          0x00637b40      0481ffff8000   subi.l 0xffff8000, d1
          0x00637b46      0c810000ffff   cmpi.l 0xffff, d1
      < 0x00637b4c      6302           bls.b 0x637b50
         0x00637b4e      4e4f           trap 0xf
      > 0x00637b50      0681ffff8000   addi.l 0xffff8000, d1
          0x00637b56      3d41fff8       move.w d1, -0x8(a6)
          0x00637b5a      5d4f           subq.w 0x6, a7
          0x00637b5c      1f3c0002       move.b 0x2, -(a7)
          0x00637b60      4227           clr.b -(a7)
          0x00637b62      2f2efff6       move.l -0xa(a6), -(a7)
          0x00637b66      4eb900521048   jsr BRUSHCOM.br_get_colour
          0x00637b6c      504f           addq.w 0x8, a7
          0x00637b6e      249f           move.l (a7)+, (a2)
          0x00637b70      3d5ffffe       move.w (a7)+, -0x2(a6)
          0x00637b74      2f2efffc       move.l -0x4(a6), -(a7)
          0x00637b78      3f12           move.w (a2), -(a7)
          0x00637b7a      1f3c0001       move.b 0x1, -(a7)
          0x00637b7e      4ebaf390       jsr PALETCOM.set_colour(pc)
          0x00637b82      584f           addq.w 0x4, a7
          0x00637b84      283c000000ff   move.l 0xff, d4
          0x00637b8a      4e93           jsr (a3)                    ; fcn.0000000c
          0x00637b8c      594f           subq.w 0x4, a7
          0x00637b8e      2f04           move.l d4, -(a7)
          0x00637b90      283c000000db   move.l 0xdb, d4
          0x00637b96      4e93           jsr (a3)                    ; fcn.0000000c
          0x00637b98      2604           move.l d4, d3
          0x00637b9a      2817           move.l (a7), d4
          0x00637b9c      4eb900407ff8   jsr fcn.00407ff8
          0x00637ba2      2e84           move.l d4, (a7)
          0x00637ba4      3012           move.w (a2), d0
          0x00637ba6      04400010       subi.w 0x10, d0
          0x00637baa      48c0           ext.l d0
          0x00637bac      2800           move.l d0, d4
          0x00637bae      4e93           jsr (a3)                    ; fcn.0000000c
          0x00637bb0      2617           move.l (a7), d3
          0x00637bb2      4eb900407e92   jsr fcn.00407e92
          0x00637bb8      584f           addq.w 0x4, a7
          0x00637bba      4eb900408224   jsr fcn.00408224
          0x00637bc0      2e84           move.l d4, (a7)
          0x00637bc2      9efc0100       suba.w 0x100, a7
          0x00637bc6      204f           movea.l a7, a0
          0x00637bc8      43fae4b1       lea.l 0x63607b(pc), a1
          0x00637bcc      7004           moveq 0x4, d0
      > 0x00637bce      10d9           move.b (a1)+, (a0)+
      < 0x00637bd0      51c8fffc       dbra d0, 0x637bce
          0x00637bd4      4227           clr.b -(a7)
          0x00637bd6      4eb900639c30   jsr COLOURCOM.legalize
          0x00637bdc      defc0106       adda.w 0x106, a7
          0x00637be0      201f           move.l (a7)+, d0
          0x00637be2      0c80000000ff   cmpi.l 0xff, d0
      < 0x00637be8      6302           bls.b 0x637bec
         0x00637bea      4e4f           trap 0xf
      > 0x00637bec      3480           move.w d0, (a2)
          0x00637bee      554f           subq.w 0x2, a7
          0x00637bf0      3f3c001f       move.w 0x1f, -(a7)
          0x00637bf4      4eb900480fc2   jsr MENUCOM.get_boxon
          0x00637bfa      544f           addq.w 0x2, a7
          0x00637bfc      4a1f           tst.b (a7)+
      < 0x00637bfe      670a           beq.b 0x637c0a
         0x00637c00      48c0           ext.l d0
         0x00637c02      2f00           move.l d0, -(a7)
         0x00637c04      4ebaf562       jsr PALETCOM.set_cur_sten(pc)
         0x00637c08      584f           addq.w 0x4, a7
      > 0x00637c0a      4cdf0f1f       movem.l (a7)+, d0-d4/a0-a3
          0x00637c0e      4e5e           unlk a6
          0x00637c10      4e75           rts
 140: PALETCOM.hit_mix ();
          0x00637c12      4e56ffa4       link.w a6, 0xffa4
          0x00637c16      bfd5           cmpa.l (a5), a7
      < 0x00637c18      6206           bhi.b 0x637c20
         0x00637c1a      44fc0002       move.w 0x2, ccr
         0x00637c1e      4e76           trapv
      > 0x00637c20      defc0050       adda.w 0x50, a7
          0x00637c24      48e7fef8       movem.l d0-d6/a0-a4, -(a7)
          0x00637c28      41f9008457ac   lea.l 0x8457ac, a0
          0x00637c2e      43f9008457b6   lea.l 0x8457b6, a1
          0x00637c34      45fae5ae       lea.l PALETCOM.get_mix_area(pc), a2
          0x00637c38      47f900521974   lea.l BRUSHCOM.br_computer_tra, a3
          0x00637c3e      49f90047b9c8   lea.l CNTLCOM.update_cursor, a4
          0x00637c44      7202           moveq 0x2, d1
          0x00637c46      7401           moveq 0x1, d2
          0x00637c48      7612           moveq 0x12, d3
          0x00637c4a      782c           moveq 0x2c, d4
          0x00637c4c      7a2a           moveq 0x2a, d5
          0x00637c4e      7c07           moveq 0x7, d6
          0x00637c50      302e0008       move.w 0x8(a6), d0
          0x00637c54      b044           cmp.w d4, d0
      < 0x00637c56      6c0c           bge.b 0x637c64
         0x00637c58      b045           cmp.w d5, d0
     < 0x00637c5a      6d18           blt.b 0x637c74
        0x00637c5c      b045           cmp.w d5, d0
    < 0x00637c5e      675a           beq.b 0x637cba
   < 0x00637c60      600000fe       bra.w loc.00637d60
   > 0x00637c64      b044           cmp.w d4, d0
   < 0x00637c66      6700009a       beq.w 0x637d02
      0x00637c6a      0c400036       cmpi.w 0x36, d0
  < 0x00637c6e      676a           beq.b 0x637cda
 < 0x00637c70      600000ee       bra.w loc.00637d60
 > 0x00637c74      b046           cmp.w d6, d0
 < 0x00637c76      6d12           blt.b 0x637c8a
    0x00637c78      b046           cmp.w d6, d0
 < 0x00637c7a      670000c6       beq.w 0x637d42
    0x00637c7e      0c400015       cmpi.w 0x15, d0
 < 0x00637c82      670000a6       beq.w 0x637d2a
 < 0x00637c86      600000d8       bra.w loc.00637d60
 > 0x00637c8a      5740           subq.w 0x3, d0
     0x00637c8c      0c400003       cmpi.w 0x3, d0
 < 0x00637c90      620000ce       bhi.w loc.00637d60
    0x00637c94      d040           add.w d0, d0
    0x00637c96      303b0006       move.w 0x637c9e(pc, d0.w), d0
    0x00637c9a      4efb0002       jmp 0x637c9e(pc, d0.w)
     0x00637c9e      0008006c       
     0x00637c9f      08006c00       
     0x00637ca0      006c00c2007a   ori.w 0xc2, 0x7a(a4)
     0x00637ca6      1f02           move.b d2, -(a7)
     0x00637ca8      1f01           move.b d1, -(a7)
     0x00637caa      4227           clr.b -(a7)
     0x00637cac      514f           subq.w 0x8, a7
     0x00637cae      4e92           jsr (a2)                    ; fcn.00000009+0x2
     0x00637cb0      2f11           move.l (a1), -(a7)
     0x00637cb2      4e93           jsr (a3)                    ; fcn.0000000c
     0x00637cb4      dec3           adda.w d3, a7
  < 0x00637cb6      600000a8       bra.w loc.00637d60
  > 0x00637cba      48780001       pea.l 0x1
      0x00637cbe      2011           move.l (a1), d0
      0x00637cc0      b097           cmp.l (a7), d0
  < 0x00637cc2      6710           beq.b 0x637cd4
     0x00637cc4      4227           clr.b -(a7)
     0x00637cc6      1f01           move.b d1, -(a7)
     0x00637cc8      4227           clr.b -(a7)
     0x00637cca      514f           subq.w 0x8, a7
     0x00637ccc      4e92           jsr (a2)                    ; fcn.00000009+0x2
     0x00637cce      2f00           move.l d0, -(a7)
     0x00637cd0      4e93           jsr (a3)                    ; fcn.0000000c
     0x00637cd2      dec3           adda.w d3, a7
  > 0x00637cd4      584f           addq.w 0x4, a7
  < 0x00637cd6      60000088       bra.w loc.00637d60
  > 0x00637cda      554f           subq.w 0x2, a7
      0x00637cdc      3f2e000a       move.w 0xa(a6), -(a7)
      0x00637ce0      1f3c0011       move.b 0x11, -(a7)
      0x00637ce4      4eb9004868ae   jsr MENUCOM.get_menu_flag
      0x00637cea      584f           addq.w 0x4, a7
      0x00637cec      4a1f           tst.b (a7)+
  < 0x00637cee      6610           bne.b 0x637d00
     0x00637cf0      4227           clr.b -(a7)
     0x00637cf2      1f01           move.b d1, -(a7)
     0x00637cf4      4227           clr.b -(a7)
     0x00637cf6      514f           subq.w 0x8, a7
     0x00637cf8      4e92           jsr (a2)                    ; fcn.00000009+0x2
     0x00637cfa      2f11           move.l (a1), -(a7)
     0x00637cfc      4e93           jsr (a3)                    ; fcn.0000000c
     0x00637cfe      dec3           adda.w d3, a7
  > 0x00637d00      605e           bra.b loc.00637d60
   > 0x00637d02      4eb90047df6c   jsr CNTLCOM.paint_pen_switc
   < 0x00637d08      6056           bra.b loc.00637d60
      0x00637d0a      1f02           move.b d2, -(a7)
      0x00637d0c      4ebaf6c8       jsr PALETCOM.do_undo(pc)
      0x00637d10      544f           addq.w 0x2, a7
      0x00637d12      4210           clr.b (a0)
  > 0x00637d14      4e94           jsr (a4)                    ; fcn.0000000d
  < 0x00637d16      6048           bra.b loc.00637d60
     0x00637d18      1f01           move.b d1, -(a7)
     0x00637d1a      4eb90047bcfa   jsr CNTLCOM.set_moved_dist
     0x00637d20      544f           addq.w 0x2, a7
     0x00637d22      4a10           tst.b (a0)
  < 0x00637d24      6602           bne.b 0x637d28
     0x00637d26      1082           move.b d2, (a0)
  < 0x00637d28      60ea           bra.b 0x637d14
  > 0x00637d2a      4e94           jsr (a4)                    ; fcn.0000000d
      0x00637d2c      1010           move.b (a0), d0
      0x00637d2e      4880           ext.w d0
      0x00637d30      013ae34e       btst.l d0, 0x636080(pc)
  < 0x00637d34      6706           beq.b 0x637d3c
     0x00637d36      1081           move.b d1, (a0)
     0x00637d38      4ebafa0e       jsr PALETCOM.start_painting(pc)
  > 0x00637d3c      4ebafc0a       jsr PALETCOM.paint_here(pc)
  < 0x00637d40      601e           bra.b loc.00637d60
  > 0x00637d42      4e94           jsr (a4)                    ; fcn.0000000d
     0x00637d44      1010           move.b (a0), d0
     0x00637d46      b001           cmp.b d1, d0
  < 0x00637d48      6606           bne.b 0x637d50
     0x00637d4a      4ebafd70       jsr PALETCOM.finish_painting(pc)
  < 0x00637d4e      6008           bra.b 0x637d58
  > 0x00637d50      b002           cmp.b d2, d0
  < 0x00637d52      6604           bne.b 0x637d58
     0x00637d54      4ebafd96       jsr PALETCOM.pick_here(pc)
     ; CODE XREF from PALETCOM @ +0x22f8
  > 0x00637d58      4210           clr.b (a0)
     0x00637d5a      4eb90047df10   jsr CNTLCOM.set_pen_switch
     ; XREFS: CODE 0x00637c60  CODE 0x00637c70  CODE 0x00637c86  
     ; XREFS: CODE 0x00637cd6  CODE 0x00637d00  CODE 0x00637d08  
     ; XREFS: CODE 0x00637d40  
 8: loc.00637d60 ();
 > 0x00637d60      4cdf1f7f       movem.l (a7)+, d0-d6/a0-a4
          0x00637d64      4e5e           unlk a6
          0x00637d66      4e75           rts
 92: PALETCOM.hit_indicator ();
          0x00637d68      4e56ffb2       link.w a6, 0xffb2
          0x00637d6c      bfd5           cmpa.l (a5), a7
      < 0x00637d6e      6206           bhi.b 0x637d76
         0x00637d70      44fc0002       move.w 0x2, ccr
         0x00637d74      4e76           trapv
      > 0x00637d76      defc004a       adda.w 0x4a, a7
          0x00637d7a      48e7fff0       movem.l d0-d7/a0-a3, -(a7)
          0x00637d7e      43f900408686   lea.l fcn.00408686, a1
          0x00637d84      45f9008457ae   lea.l 0x8457ae, a2
          0x00637d8a      47f900522512   lea.l BRUSHCOM.br_write_prot, a3
          0x00637d90      7202           moveq 0x2, d1
          0x00637d92      7401           moveq 0x1, d2
          0x00637d94      7a07           moveq 0x7, d5
          0x00637d96      7c0a           moveq 0xa, d6
          0x00637d98      302e0008       move.w 0x8(a6), d0
          0x00637d9c      b045           cmp.w d5, d0
      < 0x00637d9e      6d10           blt.b 0x637db0
         0x00637da0      b045           cmp.w d5, d0
     < 0x00637da2      6700013e       beq.w 0x637ee2
        0x00637da6      0c400015       cmpi.w 0x15, d0
    < 0x00637daa      676e           beq.b 0x637e1a
   < 0x00637dac      6000013a       bra.w loc.00637ee8
   > 0x00637db0      5740           subq.w 0x3, d0
       0x00637db2      0c400003       cmpi.w 0x3, d0
   < 0x00637db6      62000130       bhi.w loc.00637ee8
      0x00637dba      d040           add.w d0, d0
      0x00637dbc      303b0006       move.w 0x637dc4(pc, d0.w), d0
      0x00637dc0      4efb0002       jmp 0x637dc4(pc, d0.w)
       0x00637dc4      00080044       
       0x00637dc5      08004401       
       0x00637dc6      00440124       ori.w 0x124, d4
       0x00637dca      00565d4f       ori.w 0x5d4f, (a6)
       0x00637dce      4ebaefce       jsr PALETCOM.br_colour(pc)
       0x00637dd2      4eb900520fa4   jsr BRUSHCOM.set_br_colour
       0x00637dd8      584f           addq.w 0x4, a7
       0x00637dda      1e81           move.b d1, (a7)
       0x00637ddc      4227           clr.b -(a7)
       0x00637dde      4e93           jsr (a3)                    ; fcn.0000000c
       0x00637de0      544f           addq.w 0x2, a7
       0x00637de2      1e81           move.b d1, (a7)
       0x00637de4      4227           clr.b -(a7)
       0x00637de6      514f           subq.w 0x8, a7
       0x00637de8      3f2e000a       move.w 0xa(a6), -(a7)
       0x00637dec      4eb9004811d6   jsr MENUCOM.get_boxarea
       0x00637df2      544f           addq.w 0x2, a7
       0x00637df4      4eb9005213b4   jsr BRUSHCOM.br_wipe
       0x00637dfa      dec6           adda.w d6, a7
       0x00637dfc      1e81           move.b d1, (a7)
       0x00637dfe      1f02           move.b d2, -(a7)
       0x00637e00      4e93           jsr (a3)                    ; fcn.0000000c
       0x00637e02      584f           addq.w 0x4, a7
   < 0x00637e04      600000e2       bra.w loc.00637ee8
      0x00637e08      1f02           move.b d2, -(a7)
      0x00637e0a      4ebaf5ca       jsr PALETCOM.do_undo(pc)
      0x00637e0e      544f           addq.w 0x2, a7
      0x00637e10      7800           moveq 0x0, d4
      0x00637e12      4e91           jsr (a1)                    ; fcn.0000000a
      0x00637e14      2484           move.l d4, (a2)
  < 0x00637e16      600000d0       bra.w loc.00637ee8
  > 0x00637e1a      207900845712   movea.l 0x845712, a0
      0x00637e20      b1e8fffc       cmpa.l -0x4(a0), a0
  < 0x00637e24      6702           beq.b 0x637e28
     0x00637e26      4e4d           trap 0xd
  > 0x00637e28      7808           moveq 0x8, d4
      0x00637e2a      4e91           jsr (a1)                    ; fcn.0000000a
      0x00637e2c      2f04           move.l d4, -(a7)
      0x00637e2e      3828000c       move.w 0xc(a0), d4
      0x00637e32      48c4           ext.l d4
      0x00637e34      4e91           jsr (a1)                    ; fcn.0000000a
      0x00637e36      2017           move.l (a7), d0
      0x00637e38      2600           move.l d0, d3
      0x00637e3a      4eb900407ff8   jsr fcn.00407ff8
      0x00637e40      4eb900408404   jsr fcn.00408404
      0x00637e46      2f04           move.l d4, -(a7)
      0x00637e48      3828000e       move.w 0xe(a0), d4
      0x00637e4c      48c4           ext.l d4
      0x00637e4e      4e91           jsr (a1)                    ; fcn.0000000a
      0x00637e50      2600           move.l d0, d3
      0x00637e52      4eb900407ff8   jsr fcn.00407ff8
      0x00637e58      4eb900408404   jsr fcn.00408404
      0x00637e5e      2617           move.l (a7), d3
      0x00637e60      4eb900407ba8   jsr fcn.00407ba8
      0x00637e66      2e84           move.l d4, (a7)
      0x00637e68      4eb90040853e   jsr p_fsqrt
      0x00637e6e      584f           addq.w 0x4, a7
      0x00637e70      2e1f           move.l (a7)+, d7
      0x00637e72      7801           moveq 0x1, d4
      0x00637e74      4e91           jsr (a1)                    ; fcn.0000000a
      0x00637e76      2f04           move.l d4, -(a7)
      0x00637e78      2604           move.l d4, d3
      0x00637e7a      2807           move.l d7, d4
      0x00637e7c      4eb900407dd4   jsr fcn.00407dd4
  < 0x00637e82      6c04           bge.b 0x637e88
     0x00637e84      2017           move.l (a7), d0
     0x00637e86      2e00           move.l d0, d7
  > 0x00637e88      584f           addq.w 0x4, a7
      0x00637e8a      2812           move.l (a2), d4
      0x00637e8c      2607           move.l d7, d3
      0x00637e8e      4eb900407ba8   jsr fcn.00407ba8
      0x00637e94      2484           move.l d4, (a2)
      0x00637e96      2f04           move.l d4, -(a7)
      0x00637e98      7823           moveq 0x23, d4
      0x00637e9a      4e91           jsr (a1)                    ; fcn.0000000a
      0x00637e9c      2604           move.l d4, d3
      0x00637e9e      2817           move.l (a7), d4
      0x00637ea0      4eb900407dd4   jsr fcn.00407dd4
  < 0x00637ea6      6d30           blt.b 0x637ed8
     0x00637ea8      5d4f           subq.w 0x6, a7
     0x00637eaa      4ebaeef2       jsr PALETCOM.br_colour(pc)
     0x00637eae      4eb900520fa4   jsr BRUSHCOM.set_br_colour
     0x00637eb4      584f           addq.w 0x4, a7
     0x00637eb6      1e81           move.b d1, (a7)
     0x00637eb8      4227           clr.b -(a7)
     0x00637eba      4e93           jsr (a3)                    ; fcn.0000000c
     0x00637ebc      544f           addq.w 0x2, a7
     0x00637ebe      1e81           move.b d1, (a7)
     0x00637ec0      4227           clr.b -(a7)
     0x00637ec2      514f           subq.w 0x8, a7
     0x00637ec4      4ebae31e       jsr PALETCOM.get_mix_area(pc)
     0x00637ec8      4eb9005213b4   jsr BRUSHCOM.br_wipe
     0x00637ece      dec6           adda.w d6, a7
     0x00637ed0      1e81           move.b d1, (a7)
     0x00637ed2      1f02           move.b d2, -(a7)
     0x00637ed4      4e93           jsr (a3)                    ; fcn.0000000c
     0x00637ed6      584f           addq.w 0x4, a7
  > 0x00637ed8      584f           addq.w 0x4, a7
      0x00637eda      4eb90047b9c8   jsr CNTLCOM.update_cursor
  < 0x00637ee0      6006           bra.b loc.00637ee8
  > 0x00637ee2      4eb90047b9c8   jsr CNTLCOM.update_cursor
      ; CODE XREF from PALETCOM.hit_indicator @ 0x637dac
      ; CODE XREF from PALETCOM @ +0x248a
 8: loc.00637ee8 ();
 > 0x00637ee8      4cdf0fff       movem.l (a7)+, d0-d7/a0-a3
          0x00637eec      4e5e           unlk a6
          0x00637eee      4e75           rts
 338: PALETCOM.draw_black_spot ();
          0x00637ef0      4e56ffac       link.w a6, 0xffac
          0x00637ef4      bfd5           cmpa.l (a5), a7
      < 0x00637ef6      6206           bhi.b 0x637efe
         0x00637ef8      44fc0002       move.w 0x2, ccr
         0x00637efc      4e76           trapv
      > 0x00637efe      defc0040       adda.w 0x40, a7
          0x00637f02      48e7ffc0       movem.l d0-d7/a0-a1, -(a7)
          0x00637f06      41eefff0       lea.l -0x10(a6), a0
          0x00637f0a      43eefff4       lea.l -0xc(a6), a1
          0x00637f0e      2a3cffff8000   move.l 0xffff8000, d5
          0x00637f14      7c02           moveq 0x2, d6
          0x00637f16      2e3c0000ffff   move.l 0xffff, d7
          0x00637f1c      4280           clr.l d0
          0x00637f1e      302e0008       move.w 0x8(a6), d0
          0x00637f22      9085           sub.l d5, d0
          0x00637f24      b087           cmp.l d7, d0
      < 0x00637f26      6302           bls.b 0x637f2a
         0x00637f28      4e4f           trap 0xf
      > 0x00637f2a      d085           add.l d5, d0
          0x00637f2c      514f           subq.w 0x8, a7
          0x00637f2e      3f00           move.w d0, -(a7)
          0x00637f30      4eb9004811d6   jsr MENUCOM.get_boxarea
          0x00637f36      544f           addq.w 0x2, a7
          0x00637f38      209f           move.l (a7)+, (a0)
          0x00637f3a      2297           move.l (a7), (a1)
          0x00637f3c      3f00           move.w d0, -(a7)
          0x00637f3e      4eb90048406e   jsr MENUCOM.get_b_id
          0x00637f44      544f           addq.w 0x2, a7
          0x00637f46      261f           move.l (a7)+, d3
          0x00637f48      7802           moveq 0x2, d4
          0x00637f4a      4eb900406a74   jsr fcn.00406a74
          0x00637f50      9885           sub.l d5, d4
          0x00637f52      b887           cmp.l d7, d4
      < 0x00637f54      6302           bls.b 0x637f58
         0x00637f56      4e4f           trap 0xf
      > 0x00637f58      d885           add.l d5, d4
          0x00637f5a      3d44ffee       move.w d4, -0x12(a6)
          0x00637f5e      3d44ffec       move.w d4, -0x14(a6)
          0x00637f62      3211           move.w (a1), d1
          0x00637f64      48c1           ext.l d1
          0x00637f66      48c4           ext.l d4
          0x00637f68      2f04           move.l d4, -(a7)
          0x00637f6a      9284           sub.l d4, d1
          0x00637f6c      2801           move.l d1, d4
          0x00637f6e      7602           moveq 0x2, d3
          0x00637f70      4eb900406b50   jsr fcn.00406b50
          0x00637f76      3210           move.w (a0), d1
          0x00637f78      48c1           ext.l d1
          0x00637f7a      d881           add.l d1, d4
          0x00637f7c      9885           sub.l d5, d4
          0x00637f7e      b887           cmp.l d7, d4
      < 0x00637f80      6302           bls.b 0x637f84
         0x00637f82      4e4f           trap 0xf
      > 0x00637f84      d885           add.l d5, d4
          0x00637f86      3d44fff8       move.w d4, -0x8(a6)
          0x00637f8a      322efff6       move.w -0xa(a6), d1
          0x00637f8e      48c1           ext.l d1
          0x00637f90      342effee       move.w -0x12(a6), d2
          0x00637f94      48c2           ext.l d2
          0x00637f96      9282           sub.l d2, d1
          0x00637f98      2801           move.l d1, d4
          0x00637f9a      7602           moveq 0x2, d3
          0x00637f9c      4eb900406b50   jsr fcn.00406b50
          0x00637fa2      322efff2       move.w -0xe(a6), d1
          0x00637fa6      48c1           ext.l d1
          0x00637fa8      d881           add.l d1, d4
          0x00637faa      9885           sub.l d5, d4
          0x00637fac      b887           cmp.l d7, d4
      < 0x00637fae      6302           bls.b 0x637fb2
         0x00637fb0      4e4f           trap 0xf
      > 0x00637fb2      d885           add.l d5, d4
          0x00637fb4      3d44fffa       move.w d4, -0x6(a6)
          0x00637fb8      2217           move.l (a7), d1
          0x00637fba      3d41fffc       move.w d1, -0x4(a6)
          0x00637fbe      3d42fffe       move.w d2, -0x2(a6)
          0x00637fc2      544f           addq.w 0x2, a7
          0x00637fc4      1e86           move.b d6, (a7)
          0x00637fc6      4227           clr.b -(a7)
          0x00637fc8      4eb900522512   jsr BRUSHCOM.br_write_prot
          0x00637fce      3e80           move.w d0, (a7)
          0x00637fd0      4eb900480fc2   jsr MENUCOM.get_boxon
          0x00637fd6      544f           addq.w 0x2, a7
          0x00637fd8      4a1f           tst.b (a7)+
      < 0x00637fda      670a           beq.b 0x637fe6
         0x00637fdc      2f3ada98       move.l 0x635a76(pc), -(a7)
         0x00637fe0      3f3ada92       move.w 0x635a74(pc), -(a7)
     < 0x00637fe4      6008           bra.b 0x637fee
     > 0x00637fe6      2f3ada94       move.l 0x635a7c(pc), -(a7)
         0x00637fea      3f3ada8e       move.w 0x635a7a(pc), -(a7)
     > 0x00637fee      4eb900520fa4   jsr BRUSHCOM.set_br_colour
          0x00637ff4      5c4f           addq.w 0x6, a7
          0x00637ff6      1f06           move.b d6, -(a7)
          0x00637ff8      4227           clr.b -(a7)
          0x00637ffa      2f11           move.l (a1), -(a7)
          0x00637ffc      2f10           move.l (a0), -(a7)
          0x00637ffe      4eb9005213b4   jsr BRUSHCOM.br_wipe
          0x00638004      504f           addq.w 0x8, a7
          0x00638006      2ebada68       move.l 0x635a70(pc), (a7)
          0x0063800a      3f3ada62       move.w 0x635a6e(pc), -(a7)
          0x0063800e      4eb900520fa4   jsr BRUSHCOM.set_br_colour
          0x00638014      584f           addq.w 0x4, a7
          0x00638016      1e86           move.b d6, (a7)
          0x00638018      4227           clr.b -(a7)
          0x0063801a      2f2efffc       move.l -0x4(a6), -(a7)
          0x0063801e      2f2efff8       move.l -0x8(a6), -(a7)
          0x00638022      4eb9005213b4   jsr BRUSHCOM.br_wipe
          0x00638028      defc000a       adda.w 0xa, a7
          0x0063802c      1e86           move.b d6, (a7)
          0x0063802e      1f3c0001       move.b 0x1, -(a7)
          0x00638032      4eb900522512   jsr BRUSHCOM.br_write_prot
          0x00638038      584f           addq.w 0x4, a7
          0x0063803a      4cdf03ff       movem.l (a7)+, d0-d7/a0-a1
          0x0063803e      4e5e           unlk a6
          0x00638040      4e75           rts
 94: PALETCOM.hit_size ();
          0x00638042      4e56ffb0       link.w a6, 0xffb0
          0x00638046      bfd5           cmpa.l (a5), a7
      < 0x00638048      6206           bhi.b 0x638050
         0x0063804a      44fc0002       move.w 0x2, ccr
         0x0063804e      4e76           trapv
      > 0x00638050      defc0048       adda.w 0x48, a7
          0x00638054      48e7fff8       movem.l d0-d7/a0-a4, -(a7)
          0x00638058      43f900845792   lea.l 0x845792, a1
          0x0063805e      45fae93a       lea.l PALETCOM.draw_brush_size(pc), a2
          0x00638062      47ee000a       lea.l 0xa(a6), a3
          0x00638066      49f900631aee   lea.l BRUSHESCOM.PAS.sel_brush, a4
          0x0063806c      7407           moveq 0x7, d2
          0x0063806e      7a06           moveq 0x6, d5
          0x00638070      7c01           moveq 0x1, d6
          0x00638072      302e0008       move.w 0x8(a6), d0
          0x00638076      b045           cmp.w d5, d0
      < 0x00638078      6d12           blt.b 0x63808c
         0x0063807a      b045           cmp.w d5, d0
     < 0x0063807c      6700011c       beq.w 0x63819a
        0x00638080      0c400015       cmpi.w 0x15, d0
    < 0x00638084      6700011e       beq.w 0x6381a4
   < 0x00638088      60000192       bra.w loc.0063821c
   > 0x0063808c      5340           subq.w 0x1, d0
       0x0063808e      0c400004       cmpi.w 0x4, d0
   < 0x00638092      62000188       bhi.w loc.0063821c
      0x00638096      d040           add.w d0, d0
      0x00638098      303b0006       move.w 0x6380a0(pc, d0.w), d0
      0x0063809c      4efb0002       jmp 0x6380a0(pc, d0.w)
       0x006380a0      002c00ee000a   ori.b 0xee, 0xa(a4)
       0x006380a6      017c00ee       
       0x006380a7      7c00           moveq 0x0, d6
       0x006380a9      ee30           roxr.l 0x7, d0
       0x006380ab      13b079008457   move.b (a0, d7.l), 0x57(a1, a0.w)
       0x006380b1      9466           sub.w -(a6), d2
       0x006380b3      044e9260       
       0x006380b4      4e92           jsr (a2)                    ; fcn.00000009+0x2
   < 0x006380b6      6010           bra.b 0x6380c8
      0x006380b8      0c40ffff       cmpi.w 0xffff, d0
  < 0x006380bc      6302           bls.b 0x6380c0
     0x006380be      4e4f           trap 0xf
  > 0x006380c0      3f00           move.w d0, -(a7)
      0x006380c2      4ebafe2c       jsr PALETCOM.draw_black_spot(pc)
      ; CODE XREF from PALETCOM @ +0x274a
  > 0x006380c6      544f           addq.w 0x2, a7
  > 0x006380c8      60000152       bra.w loc.0063821c
      0x006380cc      7e01           moveq 0x1, d7
  > 0x006380ce      2007           move.l d7, d0
     0x006380d0      5380           subq.l 0x1, d0
     0x006380d2      0c8000000005   cmpi.l 0x5, d0
  < 0x006380d8      6302           bls.b 0x6380dc
     0x006380da      4e4f           trap 0xf
  > 0x006380dc      e380           asl.l 0x1, d0
     0x006380de      41f900845712   lea.l 0x845712, a0
     0x006380e4      3213           move.w (a3), d1
     0x006380e6      b2700874       cmp.w 0x74(a0, d0.l), d1
  < 0x006380ea      6674           bne.b 0x638160
     0x006380ec      554f           subq.w 0x2, a7
     0x006380ee      3f39008457a2   move.w 0x8457a2, -(a7)
     0x006380f4      4eb900480fc2   jsr MENUCOM.get_boxon
     0x006380fa      544f           addq.w 0x2, a7
     0x006380fc      4a1f           tst.b (a7)+
  < 0x006380fe      6622           bne.b 0x638122
     0x00638100      554f           subq.w 0x2, a7
     0x00638102      4eb9004755c2   jsr CONFIG.cfg_gender
     0x00638108      121f           move.b (a7)+, d1
     0x0063810a      0c010003       cmpi.b 0x3, d1
  < 0x0063810e      661a           bne.b 0x63812a
     0x00638110      554f           subq.w 0x2, a7
     0x00638112      3f3c00db       move.w 0xdb, -(a7)
     0x00638116      4eb900480fc2   jsr MENUCOM.get_boxon
     0x0063811c      544f           addq.w 0x2, a7
     0x0063811e      4a1f           tst.b (a7)+
  < 0x00638120      6708           beq.b 0x63812a
  > 0x00638122      3f11           move.w (a1), -(a7)
     0x00638124      41fadac8       lea.l 0x635bee(pc), a0
  < 0x00638128      6006           bra.b 0x638130
  > 0x0063812a      3f11           move.w (a1), -(a7)
     0x0063812c      41fadab4       lea.l 0x635be2(pc), a0
  > 0x00638130      38300800       move.w (a0, d0.l), d4
     0x00638134      48c4           ext.l d4
     0x00638136      4eb900408686   jsr fcn.00408686
     0x0063813c      2f04           move.l d4, -(a7)
     0x0063813e      4227           clr.b -(a7)
     0x00638140      1f06           move.b d6, -(a7)
     0x00638142      4eb90048da84   jsr MENU2COM.set_numeric_val
     0x00638148      defc000a       adda.w 0xa, a7
     0x0063814c      1f02           move.b d2, -(a7)
     0x0063814e      4e94           jsr (a4)                    ; fcn.0000000d
     0x00638150      4eb9004755c2   jsr CONFIG.cfg_gender
     0x00638156      121f           move.b (a7)+, d1
     0x00638158      0c010003       cmpi.b 0x3, d1
  < 0x0063815c      6702           beq.b 0x638160
     0x0063815e      4e92           jsr (a2)                    ; fcn.00000009+0x2
  > 0x00638160      5287           addq.l 0x1, d7
     0x00638162      be85           cmp.l d5, d7
  < 0x00638164      6f00ff68       ble.w 0x6380ce
      0x00638168      3013           move.w (a3), d0
      0x0063816a      b0790084579e   cmp.w 0x84579e, d0
  < 0x00638170      6710           beq.b 0x638182
     0x00638172      b079008457a0   cmp.w 0x8457a0, d0
  < 0x00638178      6708           beq.b 0x638182
     0x0063817a      b079008457a2   cmp.w 0x8457a2, d0
  < 0x00638180      6608           bne.b 0x63818a
  > 0x00638182      1f02           move.b d2, -(a7)
      0x00638184      4e94           jsr (a4)                    ; fcn.0000000d
      0x00638186      544f           addq.w 0x2, a7
      0x00638188      4e92           jsr (a2)                    ; fcn.00000009+0x2
  < 0x0063818a      60000090       bra.w loc.0063821c
     0x0063818e      1f02           move.b d2, -(a7)
     0x00638190      4e94           jsr (a4)                    ; fcn.0000000d
     0x00638192      544f           addq.w 0x2, a7
     0x00638194      4e92           jsr (a2)                    ; fcn.00000009+0x2
  < 0x00638196      60000084       bra.w loc.0063821c
  > 0x0063819a      1f06           move.b d6, -(a7)
      0x0063819c      4ebaf238       jsr PALETCOM.do_undo(pc)
  < 0x006381a0      6000ff24       bra.w 0x6380c6
   > 0x006381a4      3013           move.w (a3), d0
        0x006381a6      b07900845794   cmp.w 0x845794, d0
    < 0x006381ac      6668           bne.b 0x638216
       0x006381ae      4eb9004558e4   jsr CURSORCOM.cursor_off
       0x006381b4      207900845712   movea.l 0x845712, a0
       0x006381ba      b1e8fffc       cmpa.l -0x4(a0), a0
   < 0x006381be      6702           beq.b 0x6381c2
      0x006381c0      4e4d           trap 0xd
   > 0x006381c2      38280014       move.w 0x14(a0), d4
       0x006381c6      48c4           ext.l d4
       0x006381c8      4eb900408686   jsr fcn.00408686
       0x006381ce      2f04           move.l d4, -(a7)
       0x006381d0      7808           moveq 0x8, d4
       0x006381d2      4eb900408686   jsr fcn.00408686
       0x006381d8      2604           move.l d4, d3
       0x006381da      2817           move.l (a7), d4
       0x006381dc      4eb900407ff8   jsr fcn.00407ff8
       0x006381e2      584f           addq.w 0x4, a7
       0x006381e4      2e04           move.l d4, d7
       0x006381e6      3f11           move.w (a1), -(a7)
       0x006381e8      594f           subq.w 0x4, a7
       0x006381ea      3f11           move.w (a1), -(a7)
       0x006381ec      4eb90048d992   jsr MENU2COM.get_numeric_val
       0x006381f2      544f           addq.w 0x2, a7
       0x006381f4      2817           move.l (a7), d4
       0x006381f6      2607           move.l d7, d3
       0x006381f8      4eb900407ba8   jsr fcn.00407ba8
       0x006381fe      2e84           move.l d4, (a7)
       0x00638200      4227           clr.b -(a7)
       0x00638202      1f06           move.b d6, -(a7)
       0x00638204      4eb90048da84   jsr MENU2COM.set_numeric_val
       0x0063820a      504f           addq.w 0x8, a7
       0x0063820c      1e82           move.b d2, (a7)
       0x0063820e      4e94           jsr (a4)                    ; fcn.0000000d
       0x00638210      544f           addq.w 0x2, a7
       0x00638212      4e92           jsr (a2)                    ; fcn.00000009+0x2
   < 0x00638214      6006           bra.b loc.0063821c
   > 0x00638216      4eb90047b9c8   jsr CNTLCOM.update_cursor
       ; CODE XREF from PALETCOM.hit_size @ 0x638088
       ; CODE XREFS from PALETCOM @ +0x2672, +0x27be
 8: loc.0063821c ();
 > 0x0063821c      4cdf1fff       movem.l (a7)+, d0-d7/a0-a4
          0x00638220      4e5e           unlk a6
          0x00638222      4e75           rts
 58: PALETCOM.hit_mode ();
          0x00638224      4e56ffe0       link.w a6, 0xffe0
          0x00638228      bfd5           cmpa.l (a5), a7
      < 0x0063822a      6206           bhi.b 0x638232
         0x0063822c      44fc0002       move.w 0x2, ccr
         0x00638230      4e76           trapv
      > 0x00638232      defc0020       adda.w 0x20, a7
          0x00638236      48e7e080       movem.l d0-d2/a0, -(a7)
          0x0063823a      41f9008458e0   lea.l 0x8458e0, a0
          0x00638240      7201           moveq 0x1, d1
          0x00638242      7402           moveq 0x2, d2
          0x00638244      302e0008       move.w 0x8(a6), d0
          0x00638248      b041           cmp.w d1, d0
      < 0x0063824a      6660           bne.b 0x6382ac
         0x0063824c      1010           move.b (a0), d0
         0x0063824e      4880           ext.w d0
         0x00638250      b042           cmp.w d2, d0
     < 0x00638252      6222           bhi.b 0x638276
        0x00638254      d040           add.w d0, d0
        0x00638256      303b0006       move.w 0x63825e(pc, d0.w), d0
        0x0063825a      4efb0002       jmp 0x63825e(pc, d0.w)
         0x0063825e      00100006       ori.b 0x6, (a0)
         0x00638262      00144227       ori.b 0x27, (a4)
    > 0x00638266      4ebaef4e       jsr PALETCOM.do_mode(pc)
       0x0063826a      544f           addq.w 0x2, a7
   < 0x0063826c      603e           bra.b 0x6382ac
      0x0063826e      1f02           move.b d2, -(a7)
   < 0x00638270      60f4           bra.b 0x638266
       0x00638272      1f01           move.b d1, -(a7)
    < 0x00638274      60f0           bra.b 0x638266
     > 0x00638276      1f01           move.b d1, -(a7)
         0x00638278      4ebaef3c       jsr PALETCOM.do_mode(pc)
         0x0063827c      544f           addq.w 0x2, a7
         0x0063827e      487ade02       pea.l 0x636082(pc)
         0x00638282      48780017       pea.l 0x17
         0x00638286      2f17           move.l (a7), -(a7)
         0x00638288      4eb9004047ea   jsr p_wts_o
         0x0063828e      defc000c       adda.w 0xc, a7
         0x00638292      1010           move.b (a0), d0
         0x00638294      4880           ext.w d0
         0x00638296      48c0           ext.l d0
         0x00638298      2f00           move.l d0, -(a7)
         0x0063829a      48780000       pea.l 0x0
         0x0063829e      4eb9004070e4   jsr p_wti_o
         0x006382a4      504f           addq.w 0x8, a7
         0x006382a6      4eb900404946   jsr p_wtln_o
   > 0x006382ac      4cdf0107       movem.l (a7)+, d0-d2/a0
           0x006382b0      4e5e           unlk a6
           0x006382b2      4e75           rts
 190: PALETCOM.limit ();
          0x006382b4      4e56ffce       link.w a6, 0xffce
          0x006382b8      bfd5           cmpa.l (a5), a7
      < 0x006382ba      6206           bhi.b 0x6382c2
         0x006382bc      44fc0002       move.w 0x2, ccr
         0x006382c0      4e76           trapv
      > 0x006382c2      defc002e       adda.w 0x2e, a7
          0x006382c6      48e7d9c0       movem.l d0-d1/d3-d4/d7/a0-a1, -(a7)
          0x006382ca      41ee000c       lea.l 0xc(a6), a0
          0x006382ce      43ee000e       lea.l 0xe(a6), a1
          0x006382d2      7001           moveq 0x1, d0
          0x006382d4      223c000000ff   move.l 0xff, d1
          0x006382da      594f           subq.w 0x4, a7
          0x006382dc      3f10           move.w (a0), -(a7)
          0x006382de      4eb90048d992   jsr MENU2COM.get_numeric_val
          0x006382e4      544f           addq.w 0x2, a7
          0x006382e6      281f           move.l (a7)+, d4
          0x006382e8      262e0008       move.l 0x8(a6), d3
          0x006382ec      4eb900407e92   jsr fcn.00407e92
          0x006382f2      2e04           move.l d4, d7
          0x006382f4      2807           move.l d7, d4
          0x006382f6      7600           moveq 0x0, d3
          0x006382f8      4eb900407dd4   jsr fcn.00407dd4
      < 0x006382fe      6c1e           bge.b 0x63831e
         0x00638300      4251           clr.w (a1)
         0x00638302      3f10           move.w (a0), -(a7)
         0x00638304      7800           moveq 0x0, d4
         0x00638306      4eb900408686   jsr fcn.00408686
         0x0063830c      2f04           move.l d4, -(a7)
         0x0063830e      4227           clr.b -(a7)
         0x00638310      1f00           move.b d0, -(a7)
         0x00638312      4eb90048da84   jsr MENU2COM.set_numeric_val
         0x00638318      defc000a       adda.w 0xa, a7
     < 0x0063831c      604c           bra.b 0x63836a
     > 0x0063831e      2801           move.l d1, d4
         0x00638320      4eb900408686   jsr fcn.00408686
         0x00638326      2f04           move.l d4, -(a7)
         0x00638328      2604           move.l d4, d3
         0x0063832a      2807           move.l d7, d4
         0x0063832c      4eb900407dd4   jsr fcn.00407dd4
     < 0x00638332      6f24           ble.b 0x638358
        0x00638334      3281           move.w d1, (a1)
        0x00638336      3f10           move.w (a0), -(a7)
        0x00638338      282f0002       move.l 0x2(a7), d4
        0x0063833c      262e0008       move.l 0x8(a6), d3
        0x00638340      4eb900407ff8   jsr fcn.00407ff8
        0x00638346      2f04           move.l d4, -(a7)
        0x00638348      4227           clr.b -(a7)
        0x0063834a      1f00           move.b d0, -(a7)
        0x0063834c      4eb90048da84   jsr MENU2COM.set_numeric_val
        0x00638352      defc000e       adda.w 0xe, a7
    < 0x00638356      6012           bra.b 0x63836a
    > 0x00638358      2807           move.l d7, d4
        0x0063835a      4eb900408224   jsr fcn.00408224
        0x00638360      b881           cmp.l d1, d4
    < 0x00638362      6302           bls.b 0x638366
       0x00638364      4e4f           trap 0xf
    > 0x00638366      3284           move.w d4, (a1)
        0x00638368      584f           addq.w 0x4, a7
    > 0x0063836a      4cdf039b       movem.l (a7)+, d0-d1/d3-d4/d7/a0-a1
          0x0063836e      4e5e           unlk a6
          0x00638370      4e75           rts
 102: PALETCOM.hit_val ();
          0x00638372      4e56ffb8       link.w a6, 0xffb8
          0x00638376      bfd5           cmpa.l (a5), a7
      < 0x00638378      6206           bhi.b 0x638380
         0x0063837a      44fc0002       move.w 0x2, ccr
         0x0063837e      4e76           trapv
      > 0x00638380      defc003c       adda.w 0x3c, a7
          0x00638384      48e7f8f8       movem.l d0-d4/a0-a4, -(a7)
          0x00638388      43f900408686   lea.l fcn.00408686, a1
          0x0063838e      45faff24       lea.l PALETCOM.limit(pc), a2
          0x00638392      47f9008458e0   lea.l 0x8458e0, a3
          0x00638398      49f900845798   lea.l 0x845798, a4
          0x0063839e      243c000000ff   move.l 0xff, d2
          0x006383a4      302e0008       move.w 0x8(a6), d0
          0x006383a8      41fadcf0       lea.l 0x63609a(pc), a0
          0x006383ac      3200           move.w d0, d1
          0x006383ae      e649           lsr.w 0x3, d1
          0x006383b0      0c410020       cmpi.w 0x20, d1
      < 0x006383b4      6d04           blt.b 0x6383ba
         0x006383b6      7200           moveq 0x0, d1
     < 0x006383b8      6004           bra.b 0x6383be
     > 0x006383ba      01301000       btst.l d0, (a0, d1.w)
     < 0x006383be      670000ea       beq.w 0x6384aa
         0x006383c2      1013           move.b (a3), d0
         0x006383c4      4880           ext.w d0
         0x006383c6      0c400002       cmpi.w 0x2, d0
     < 0x006383ca      620000b4       bhi.w 0x638480
        0x006383ce      d040           add.w d0, d0
        0x006383d0      303b0006       move.w 0x6383d8(pc, d0.w), d0
        0x006383d4      4efb0002       jmp 0x6383d8(pc, d0.w)
         0x006383d8      0074008c0006   ori.w 0x8c, 0x6(a4, d0.w)
         0x006383de      2802           move.l d2, d4
         0x006383e0      4e91           jsr (a1)                    ; fcn.0000000a
         0x006383e2      2f04           move.l d4, -(a7)
         0x006383e4      554f           subq.w 0x2, a7
         0x006383e6      3f14           move.w (a4), -(a7)
         0x006383e8      283c00000168   move.l 0x168, d4
         0x006383ee      4e91           jsr (a1)                    ; fcn.0000000a
         0x006383f0      594f           subq.w 0x4, a7
         0x006383f2      2604           move.l d4, d3
         0x006383f4      202f0008       move.l 0x8(a7), d0
         0x006383f8      2800           move.l d0, d4
         0x006383fa      4eb900407ff8   jsr fcn.00407ff8
         0x00638400      2e84           move.l d4, (a7)
         0x00638402      4e92           jsr (a2)                    ; fcn.00000009+0x2
         0x00638404      5c4f           addq.w 0x6, a7
         0x00638406      321f           move.w (a7)+, d1
         0x00638408      4382           chk.w d2, d1
         0x0063840a      3d41fffa       move.w d1, -0x6(a6)
         0x0063840e      7864           moveq 0x64, d4
         0x00638410      4e91           jsr (a1)                    ; fcn.0000000a
         0x00638412      2604           move.l d4, d3
         0x00638414      2800           move.l d0, d4
         0x00638416      4eb900407ff8   jsr fcn.00407ff8
         0x0063841c      584f           addq.w 0x4, a7
     > 0x0063841e      554f           subq.w 0x2, a7
        0x00638420      3f390084579a   move.w 0x84579a, -(a7)
        0x00638426      2f04           move.l d4, -(a7)
        0x00638428      4e92           jsr (a2)                    ; fcn.00000009+0x2
        0x0063842a      5c4f           addq.w 0x6, a7
        0x0063842c      301f           move.w (a7)+, d0
        0x0063842e      4182           chk.w d2, d0
        0x00638430      3d40fffc       move.w d0, -0x4(a6)
        0x00638434      554f           subq.w 0x2, a7
        0x00638436      3f390084579c   move.w 0x84579c, -(a7)
        0x0063843c      2f04           move.l d4, -(a7)
        0x0063843e      4e92           jsr (a2)                    ; fcn.00000009+0x2
        0x00638440      5c4f           addq.w 0x6, a7
        0x00638442      301f           move.w (a7)+, d0
        0x00638444      4182           chk.w d2, d0
        0x00638446      3d40fffe       move.w d0, -0x2(a6)
    < 0x0063844a      6034           bra.b 0x638480
       0x0063844c      7801           moveq 0x1, d4
       0x0063844e      4e91           jsr (a1)                    ; fcn.0000000a
   > 0x00638450      554f           subq.w 0x2, a7
      0x00638452      3f14           move.w (a4), -(a7)
      0x00638454      2f04           move.l d4, -(a7)
      0x00638456      4e92           jsr (a2)                    ; fcn.00000009+0x2
      0x00638458      5c4f           addq.w 0x6, a7
      0x0063845a      301f           move.w (a7)+, d0
      0x0063845c      4182           chk.w d2, d0
      0x0063845e      3d40fffa       move.w d0, -0x6(a6)
   < 0x00638462      60ba           bra.b 0x63841e
       0x00638464      283c000000db   move.l 0xdb, d4
       0x0063846a      4e91           jsr (a1)                    ; fcn.0000000a
       0x0063846c      2f04           move.l d4, -(a7)
       0x0063846e      2802           move.l d2, d4
       0x00638470      4e91           jsr (a1)                    ; fcn.0000000a
       0x00638472      2604           move.l d4, d3
       0x00638474      2817           move.l (a7), d4
       0x00638476      4eb900407ff8   jsr fcn.00407ff8
       0x0063847c      584f           addq.w 0x4, a7
   < 0x0063847e      60d0           bra.b 0x638450
    > 0x00638480      2f2efffc       move.l -0x4(a6), -(a7)
          0x00638484      3f2efffa       move.w -0x6(a6), -(a7)
          0x00638488      1f13           move.b (a3), -(a7)
          0x0063848a      4227           clr.b -(a7)
          0x0063848c      486efff4       pea.l -0xc(a6)
          0x00638490      4eb90063bff8   jsr COLOURCOM.convert_colour
          0x00638496      defc000a       adda.w 0xa, a7
          0x0063849a      2eaefff6       move.l -0xa(a6), (a7)
          0x0063849e      3f2efff4       move.w -0xc(a6), -(a7)
          0x006384a2      4227           clr.b -(a7)
          0x006384a4      4ebaea6a       jsr PALETCOM.set_colour(pc)
          0x006384a8      504f           addq.w 0x8, a7
       > 0x006384aa      4cdf1f1f       movem.l (a7)+, d0-d4/a0-a4
           0x006384ae      4e5e           unlk a6
           0x006384b0      4e75           rts
           ; CALL XREF from MENUFULLCOM.hit_restore_pal @ 0x4dc820
 40: PALETCOM.pal_set_save ();
          0x006384b2      4e56fff8       link.w a6, 0xfff8
          0x006384b6      bfd5           cmpa.l (a5), a7
      < 0x006384b8      6206           bhi.b 0x6384c0
         0x006384ba      44fc0002       move.w 0x2, ccr
         0x006384be      4e76           trapv
      > 0x006384c0      defc0008       adda.w 0x8, a7
          0x006384c4      3f390084571e   move.w 0x84571e, -(a7)
          0x006384ca      1f3c0001       move.b 0x1, -(a7)
          0x006384ce      4eb900483776   jsr MENUCOM.swtch_box
          0x006384d4      584f           addq.w 0x4, a7
          0x006384d6      4e5e           unlk a6
          0x006384d8      4e75           rts
 48: PALETCOM.hit_undo ();
          0x006384da      4e56fff6       link.w a6, 0xfff6
          0x006384de      bfd5           cmpa.l (a5), a7
      < 0x006384e0      6206           bhi.b 0x6384e8
         0x006384e2      44fc0002       move.w 0x2, ccr
         0x006384e6      4e76           trapv
      > 0x006384e8      defc000a       adda.w 0xa, a7
          0x006384ec      48e78000       movem.l d0, -(a7)
          0x006384f0      302e0008       move.w 0x8(a6), d0
          0x006384f4      0c400001       cmpi.w 0x1, d0
      < 0x006384f8      6608           bne.b 0x638502
         0x006384fa      4227           clr.b -(a7)
         0x006384fc      4ebaeed8       jsr PALETCOM.do_undo(pc)
         0x00638500      544f           addq.w 0x2, a7
      > 0x00638502      4cdf0001       movem.l (a7)+, d0
          0x00638506      4e5e           unlk a6
          0x00638508      4e75           rts
 542: PALETCOM.pick_colour_fro ();
          0x0063850a      4e56fea6       link.w a6, 0xfea6
          0x0063850e      bfd5           cmpa.l (a5), a7
      < 0x00638510      6206           bhi.b 0x638518
         0x00638512      44fc0002       move.w 0x2, ccr
         0x00638516      4e76           trapv
      > 0x00638518      defc013e       adda.w 0x13e, a7
          0x0063851c      48e7fdf8       movem.l d0-d5/d7/a0-a4, -(a7)
          0x00638520      43f900408686   lea.l fcn.00408686, a1
          0x00638526      45f900407e92   lea.l fcn.00407e92, a2
          0x0063852c      47eefff0       lea.l -0x10(a6), a3
          0x00638530      49f900408224   lea.l fcn.00408224, a4
          0x00638536      243c000000ff   move.l 0xff, d2
          0x0063853c      7a08           moveq 0x8, d5
          0x0063853e      4eb90047b9c8   jsr CNTLCOM.update_cursor
          0x00638544      594f           subq.w 0x4, a7
          0x00638546      4eb900633af6   jsr HANDCOM.get_pic_offset
          0x0063854c      2d57ffe4       move.l (a7), -0x1c(a6)
          0x00638550      4eb90047b72c   jsr CNTLCOM.get_pen_abs
          0x00638556      2d5ffffc       move.l (a7)+, -0x4(a6)
          0x0063855a      486efffc       pea.l -0x4(a6)
          0x0063855e      4eb9004ac46a   jsr MENUZOOMCOM.zoom_screen_pos
          0x00638564      584f           addq.w 0x4, a7
          0x00638566      302efffc       move.w -0x4(a6), d0
          0x0063856a      48c0           ext.l d0
          0x0063856c      81c5           divs.w d5, d0
          0x0063856e      3d40ffe8       move.w d0, -0x18(a6)
          0x00638572      302efffe       move.w -0x2(a6), d0
          0x00638576      48c0           ext.l d0
          0x00638578      81c5           divs.w d5, d0
          0x0063857a      48c0           ext.l d0
          0x0063857c      322effe6       move.w -0x1a(a6), d1
          0x00638580      48c1           ext.l d1
          0x00638582      d280           add.l d0, d1
          0x00638584      0481ffff8000   subi.l 0xffff8000, d1
          0x0063858a      0c810000ffff   cmpi.l 0xffff, d1
      < 0x00638590      6302           bls.b 0x638594
         0x00638592      4e4f           trap 0xf
      > 0x00638594      0681ffff8000   addi.l 0xffff8000, d1
          0x0063859a      3d41ffea       move.w d1, -0x16(a6)
          0x0063859e      5d4f           subq.w 0x6, a7
          0x006385a0      1f3c0002       move.b 0x2, -(a7)
          0x006385a4      4227           clr.b -(a7)
          0x006385a6      2f2effe8       move.l -0x18(a6), -(a7)
          0x006385aa      4eb900521048   jsr BRUSHCOM.br_get_colour
          0x006385b0      504f           addq.w 0x8, a7
          0x006385b2      2d5ffff6       move.l (a7)+, -0xa(a6)
          0x006385b6      3d5ffffa       move.w (a7)+, -0x6(a6)
          0x006385ba      4a2e0008       tst.b 0x8(a6)
      < 0x006385be      6708           beq.b 0x6385c8
         0x006385c0      2e3c3f800000   move.l 0x3f800000, d7
     < 0x006385c6      602a           bra.b 0x6385f2
     > 0x006385c8      207900845712   movea.l 0x845712, a0
         0x006385ce      b1e8fffc       cmpa.l -0x4(a0), a0
     < 0x006385d2      6702           beq.b 0x6385d6
        0x006385d4      4e4d           trap 0xd
     > 0x006385d6      38280010       move.w 0x10(a0), d4
         0x006385da      48c4           ext.l d4
         0x006385dc      4e91           jsr (a1)                    ; fcn.0000000a
         0x006385de      263c437f0000   move.l 0x437f0000, d3
         0x006385e4      4eb900407ff8   jsr fcn.00407ff8
         0x006385ea      4eb900408404   jsr fcn.00408404
         0x006385f0      2e04           move.l d4, d7
     > 0x006385f2      5d4f           subq.w 0x6, a7
          0x006385f4      4ebae7a8       jsr PALETCOM.br_colour(pc)
          0x006385f8      269f           move.l (a7)+, (a3)
          0x006385fa      3d5ffff4       move.w (a7)+, -0xc(a6)
          0x006385fe      283c3f800000   move.l 0x3f800000, d4
          0x00638604      2607           move.l d7, d3
          0x00638606      4eb900407b44   jsr fcn.00407b44
          0x0063860c      2f04           move.l d4, -(a7)
          0x0063860e      382efff6       move.w -0xa(a6), d4
          0x00638612      48c4           ext.l d4
          0x00638614      4e91           jsr (a1)                    ; fcn.0000000a
          0x00638616      2607           move.l d7, d3
          0x00638618      4e92           jsr (a2)                    ; fcn.00000009+0x2
          0x0063861a      2f04           move.l d4, -(a7)
          0x0063861c      3813           move.w (a3), d4
          0x0063861e      48c4           ext.l d4
          0x00638620      4e91           jsr (a1)                    ; fcn.0000000a
          0x00638622      202f0004       move.l 0x4(a7), d0
          0x00638626      2600           move.l d0, d3
          0x00638628      4e92           jsr (a2)                    ; fcn.00000009+0x2
          0x0063862a      2617           move.l (a7), d3
          0x0063862c      4eb900407ba8   jsr fcn.00407ba8
          0x00638632      584f           addq.w 0x4, a7
          0x00638634      4e94           jsr (a4)                    ; fcn.0000000d
          0x00638636      b882           cmp.l d2, d4
      < 0x00638638      6302           bls.b 0x63863c
         0x0063863a      4e4f           trap 0xf
      > 0x0063863c      3684           move.w d4, (a3)
          0x0063863e      382efff8       move.w -0x8(a6), d4
          0x00638642      48c4           ext.l d4
          0x00638644      4e91           jsr (a1)                    ; fcn.0000000a
          0x00638646      2607           move.l d7, d3
          0x00638648      4e92           jsr (a2)                    ; fcn.00000009+0x2
          0x0063864a      2f04           move.l d4, -(a7)
          0x0063864c      382efff2       move.w -0xe(a6), d4
          0x00638650      48c4           ext.l d4
          0x00638652      4e91           jsr (a1)                    ; fcn.0000000a
          0x00638654      2600           move.l d0, d3
          0x00638656      4e92           jsr (a2)                    ; fcn.00000009+0x2
          0x00638658      2617           move.l (a7), d3
          0x0063865a      4eb900407ba8   jsr fcn.00407ba8
          0x00638660      584f           addq.w 0x4, a7
          0x00638662      4e94           jsr (a4)                    ; fcn.0000000d
          0x00638664      b882           cmp.l d2, d4
      < 0x00638666      6302           bls.b 0x63866a
         0x00638668      4e4f           trap 0xf
      > 0x0063866a      3d44fff2       move.w d4, -0xe(a6)
          0x0063866e      382efffa       move.w -0x6(a6), d4
          0x00638672      48c4           ext.l d4
          0x00638674      4e91           jsr (a1)                    ; fcn.0000000a
          0x00638676      2607           move.l d7, d3
          0x00638678      4e92           jsr (a2)                    ; fcn.00000009+0x2
          0x0063867a      2f04           move.l d4, -(a7)
          0x0063867c      382efff4       move.w -0xc(a6), d4
          0x00638680      48c4           ext.l d4
          0x00638682      4e91           jsr (a1)                    ; fcn.0000000a
          0x00638684      2600           move.l d0, d3
          0x00638686      4e92           jsr (a2)                    ; fcn.00000009+0x2
          0x00638688      2617           move.l (a7), d3
          0x0063868a      4eb900407ba8   jsr fcn.00407ba8
          0x00638690      504f           addq.w 0x8, a7
          0x00638692      4e94           jsr (a4)                    ; fcn.0000000d
          0x00638694      b882           cmp.l d2, d4
      < 0x00638696      6302           bls.b 0x63869a
         0x00638698      4e4f           trap 0xf
      > 0x0063869a      3d44fff4       move.w d4, -0xc(a6)
          0x0063869e      2f2efff2       move.l -0xe(a6), -(a7)
          0x006386a2      3f13           move.w (a3), -(a7)
          0x006386a4      1f3c0001       move.b 0x1, -(a7)
          0x006386a8      4ebae866       jsr PALETCOM.set_colour(pc)
          0x006386ac      584f           addq.w 0x4, a7
          0x006386ae      3ebc001f       move.w 0x1f, (a7)
          0x006386b2      4eb900480fc2   jsr MENUCOM.get_boxon
          0x006386b8      544f           addq.w 0x2, a7
          0x006386ba      4a1f           tst.b (a7)+
      < 0x006386bc      6762           beq.b 0x638720
         0x006386be      594f           subq.w 0x4, a7
         0x006386c0      2802           move.l d2, d4
         0x006386c2      4e91           jsr (a1)                    ; fcn.0000000a
         0x006386c4      594f           subq.w 0x4, a7
         0x006386c6      2f04           move.l d4, -(a7)
         0x006386c8      283c000000db   move.l 0xdb, d4
         0x006386ce      4e91           jsr (a1)                    ; fcn.0000000a
         0x006386d0      2604           move.l d4, d3
         0x006386d2      2817           move.l (a7), d4
         0x006386d4      4eb900407ff8   jsr fcn.00407ff8
         0x006386da      2e84           move.l d4, (a7)
         0x006386dc      3013           move.w (a3), d0
         0x006386de      04400010       subi.w 0x10, d0
         0x006386e2      48c0           ext.l d0
         0x006386e4      2800           move.l d0, d4
         0x006386e6      4e91           jsr (a1)                    ; fcn.0000000a
         0x006386e8      2617           move.l (a7), d3
         0x006386ea      4e92           jsr (a2)                    ; fcn.00000009+0x2
         0x006386ec      584f           addq.w 0x4, a7
         0x006386ee      4e94           jsr (a4)                    ; fcn.0000000d
         0x006386f0      2e84           move.l d4, (a7)
         0x006386f2      9efc00fc       suba.w 0xfc, a7
         0x006386f6      2f3ad9c2       move.l 0x6360ba(pc), -(a7)
         0x006386fa      1f7ad9c20004   move.b 0x6360be(pc), 0x4(a7)
         0x00638700      4227           clr.b -(a7)
         0x00638702      4eb900639c30   jsr COLOURCOM.legalize
         0x00638708      defc0106       adda.w 0x106, a7
         0x0063870c      201f           move.l (a7)+, d0
         0x0063870e      b082           cmp.l d2, d0
     < 0x00638710      6302           bls.b 0x638714
        0x00638712      4e4f           trap 0xf
     > 0x00638714      3680           move.w d0, (a3)
         0x00638716      48c0           ext.l d0
         0x00638718      2f00           move.l d0, -(a7)
         0x0063871a      4ebaea4c       jsr PALETCOM.set_cur_sten(pc)
         0x0063871e      584f           addq.w 0x4, a7
      > 0x00638720      4cdf1fbf       movem.l (a7)+, d0-d5/d7/a0-a4
          0x00638724      4e5e           unlk a6
          0x00638726      4e75           rts
 96: PALETCOM.hit_palette ();
          0x00638728      4e56ffbc       link.w a6, 0xffbc
          0x0063872c      bfd5           cmpa.l (a5), a7
      < 0x0063872e      6206           bhi.b 0x638736
         0x00638730      44fc0002       move.w 0x2, ccr
         0x00638734      4e76           trapv
      > 0x00638736      defc0038       adda.w 0x38, a7
          0x0063873a      48e7fcf0       movem.l d0-d5/a0-a3, -(a7)
          0x0063873e      43f90048f0ee   lea.l MENURIGHTCOM.get_rh_mode, a1
          0x00638744      45f9004822b8   lea.l MENUCOM.get_crnt_right_, a2
          0x0063874a      47f90047df10   lea.l CNTLCOM.set_pen_switch, a3
          0x00638750      7401           moveq 0x1, d2
          0x00638752      761d           moveq 0x1d, d3
          0x00638754      7812           moveq 0x12, d4
          0x00638756      7a08           moveq 0x8, d5
          0x00638758      302e0008       move.w 0x8(a6), d0
          0x0063875c      b043           cmp.w d3, d0
      < 0x0063875e      6d12           blt.b 0x638772
         0x00638760      b043           cmp.w d3, d0
     < 0x00638762      6700010e       beq.w 0x638872
        0x00638766      0c400024       cmpi.w 0x24, d0
    < 0x0063876a      670000ac       beq.w 0x638818
   < 0x0063876e      600001ca       bra.w loc.0063893a
   > 0x00638772      3200           move.w d0, d1
       0x00638774      5141           subq.w 0x8, d1
       0x00638776      0c41000c       cmpi.w 0xc, d1
   < 0x0063877a      620001be       bhi.w loc.0063893a
      0x0063877e      d241           add.w d1, d1
      0x00638780      323b1006       move.w 0x638788(pc, d1.w), d1
      0x00638784      4efb1002       jmp 0x638788(pc, d1.w)
       0x00638788      0146           bchg.b d0, d6
       0x0063878a      0170019601b2   bchg.b d0, ([], d0.w, 0x1b2)
       0x00638790      001a01b2       ori.b 0xb2, (a2)+
       0x00638794      01b201b201b2.  bclr.b d0, ([0x1b201b2, d0.w], 0x1b2)
       0x0063879e      00d400de       
       0x0063879f      d400           add.b d0, d2
       0x006387a1      de55           add.w (a5), d7
       0x006387a3      4f4e914a       
       0x006387a4      4e91           jsr (a1)                    ; fcn.0000000a
       0x006387a6      4a1f           tst.b (a7)+
   < 0x006387a8      6714           beq.b 0x6387be
      0x006387aa      554f           subq.w 0x2, a7
      0x006387ac      4e92           jsr (a2)                    ; fcn.00000009+0x2
      0x006387ae      4a5f           tst.w (a7)+
  < 0x006387b0      670c           beq.b 0x6387be
     0x006387b2      554f           subq.w 0x2, a7
     0x006387b4      4e92           jsr (a2)                    ; fcn.00000009+0x2
     0x006387b6      4eb9004836a4   jsr MENUCOM.push_box
     0x006387bc      544f           addq.w 0x2, a7
  > 0x006387be      4267           clr.w -(a7)
       0x006387c0      1f04           move.b d4, -(a7)
       0x006387c2      1f02           move.b d2, -(a7)
       0x006387c4      4eb900486936   jsr MENUCOM.set_menu_flag
       0x006387ca      544f           addq.w 0x2, a7
       0x006387cc      2ebad8f2       move.l 0x6360c0(pc), (a7)
       0x006387d0      1f02           move.b d2, -(a7)
       0x006387d2      4eb90049bec0   jsr MENUNUMPADCOM.move_numpad
       0x006387d8      584f           addq.w 0x4, a7
       0x006387da      4217           clr.b (a7)
       0x006387dc      4eb900522436   jsr BRUSHCOM.set_write_en
       0x006387e2      1ebc0007       move.b 0x7, (a7)
       0x006387e6      4eb900631aee   jsr BRUSHESCOM.PAS.sel_brush
       0x006387ec      1eb9008458e0   move.b 0x8458e0, (a7)
       0x006387f2      4ebae9c2       jsr PALETCOM.do_mode(pc)
       0x006387f6      3eb90084571e   move.w 0x84571e, (a7)
       0x006387fc      1f02           move.b d2, -(a7)
       0x006387fe      4eb900483776   jsr MENUCOM.swtch_box
       0x00638804      544f           addq.w 0x2, a7
       0x00638806      3eb900845794   move.w 0x845794, (a7)
       0x0063880c      4eb900481472   jsr MENUCOM.draw_box
       0x00638812      544f           addq.w 0x2, a7
   < 0x00638814      60000146       bra.w 0x63895c              ; loc.0063893a+0x22
   > 0x00638818      554f           subq.w 0x2, a7
       0x0063881a      4e91           jsr (a1)                    ; fcn.0000000a
       0x0063881c      4a1f           tst.b (a7)+
   < 0x0063881e      6714           beq.b 0x638834
      0x00638820      554f           subq.w 0x2, a7
      0x00638822      4e92           jsr (a2)                    ; fcn.00000009+0x2
      0x00638824      4a5f           tst.w (a7)+
  < 0x00638826      670c           beq.b 0x638834
     0x00638828      554f           subq.w 0x2, a7
     0x0063882a      4e92           jsr (a2)                    ; fcn.00000009+0x2
     0x0063882c      4eb9004836a4   jsr MENUCOM.push_box
     0x00638832      544f           addq.w 0x2, a7
  > 0x00638834      2f3ad88e       move.l 0x6360c4(pc), -(a7)
       0x00638838      4227           clr.b -(a7)
       0x0063883a      4eb90049bec0   jsr MENUNUMPADCOM.move_numpad
       0x00638840      584f           addq.w 0x4, a7
       0x00638842      4257           clr.w (a7)
       0x00638844      1f04           move.b d4, -(a7)
       0x00638846      4227           clr.b -(a7)
       0x00638848      4eb900486936   jsr MENUCOM.set_menu_flag
       0x0063884e      5c4f           addq.w 0x6, a7
       0x00638850      4eb900486e34   jsr MENUCOM.redraw_all_boxe
       0x00638856      4e93           jsr (a3)                    ; fcn.0000000c
   < 0x00638858      60000102       bra.w 0x63895c              ; loc.0063893a+0x22
      0x0063885c      4eb90047b9c8   jsr CNTLCOM.update_cursor
  < 0x00638862      600000f8       bra.w 0x63895c              ; loc.0063893a+0x22
     0x00638866      4e93           jsr (a3)                    ; fcn.0000000c
     0x00638868      4eb9004558e4   jsr CURSORCOM.cursor_off
  < 0x0063886e      600000ec       bra.w 0x63895c              ; loc.0063893a+0x22
  > 0x00638872      207900845712   movea.l 0x845712, a0
      0x00638878      b1e8fffc       cmpa.l -0x4(a0), a0
  < 0x0063887c      6702           beq.b 0x638880
     0x0063887e      4e4d           trap 0xd
  > 0x00638880      3210           move.w (a0), d1
      0x00638882      48c1           ext.l d1
      0x00638884      83c5           divs.w d5, d1
      0x00638886      3d41fffc       move.w d1, -0x4(a6)
      0x0063888a      32280002       move.w 0x2(a0), d1
      0x0063888e      48c1           ext.l d1
      0x00638890      83c5           divs.w d5, d1
      0x00638892      3d41fffe       move.w d1, -0x2(a6)
      0x00638896      554f           subq.w 0x2, a7
      0x00638898      2f2efffc       move.l -0x4(a6), -(a7)
      0x0063889c      4879008457a4   pea.l 0x8457a4
      0x006388a2      4eb90047bafa   jsr CNTLCOM.inside
      0x006388a8      504f           addq.w 0x8, a7
      0x006388aa      4a1f           tst.b (a7)+
  < 0x006388ac      671a           beq.b 0x6388c8
     0x006388ae      3f3900845720   move.w 0x845720, -(a7)
     0x006388b4      3f3900845720   move.w 0x845720, -(a7)
     0x006388ba      3f3c002c       move.w 0x2c, -(a7)
     0x006388be      4eb90048128c   jsr MENUCOM.box_action
     0x006388c4      5c4f           addq.w 0x6, a7
  < 0x006388c6      6002           bra.b 0x6388ca
  > 0x006388c8      4e93           jsr (a3)                    ; fcn.0000000c
      ; CODE XREF from PALETCOM @ +0x2e70
  < 0x006388ca      60000090       bra.w 0x63895c              ; loc.0063893a+0x22
     0x006388ce      1f02           move.b d2, -(a7)
     0x006388d0      4ebaeb04       jsr PALETCOM.do_undo(pc)
     0x006388d4      4e91           jsr (a1)                    ; fcn.0000000a
     0x006388d6      121f           move.b (a7)+, d1
     0x006388d8      b202           cmp.b d2, d1
  < 0x006388da      6612           bne.b 0x6388ee
     0x006388dc      1f02           move.b d2, -(a7)
     0x006388de      3f2e000a       move.w 0xa(a6), -(a7)
     0x006388e2      3f00           move.w d0, -(a7)
     0x006388e4      4eb90048f67e   jsr MENURIGHTCOM.rh_act
     0x006388ea      5c4f           addq.w 0x6, a7
  < 0x006388ec      6008           bra.b 0x6388f6
  > 0x006388ee      1f02           move.b d2, -(a7)
     0x006388f0      4ebafc18       jsr PALETCOM.pick_colour_fro(pc)
     0x006388f4      544f           addq.w 0x2, a7
  < 0x006388f6      6064           bra.b 0x63895c              ; loc.0063893a+0x22
     0x006388f8      554f           subq.w 0x2, a7
     0x006388fa      4e91           jsr (a1)                    ; fcn.0000000a
     0x006388fc      121f           move.b (a7)+, d1
     0x006388fe      b202           cmp.b d2, d1
  < 0x00638900      6612           bne.b 0x638914
     0x00638902      1f02           move.b d2, -(a7)
     0x00638904      3f2e000a       move.w 0xa(a6), -(a7)
     0x00638908      3f00           move.w d0, -(a7)
     0x0063890a      4eb90048f67e   jsr MENURIGHTCOM.rh_act
     0x00638910      5c4f           addq.w 0x6, a7
  < 0x00638912      6008           bra.b 0x63891c
  > 0x00638914      4227           clr.b -(a7)
     0x00638916      4ebafbf2       jsr PALETCOM.pick_colour_fro(pc)
     0x0063891a      544f           addq.w 0x2, a7
  < 0x0063891c      603e           bra.b 0x63895c              ; loc.0063893a+0x22
     0x0063891e      554f           subq.w 0x2, a7
     0x00638920      4e91           jsr (a1)                    ; fcn.0000000a
     0x00638922      121f           move.b (a7)+, d1
     0x00638924      b202           cmp.b d2, d1
  < 0x00638926      6610           bne.b 0x638938
     0x00638928      1f02           move.b d2, -(a7)
     0x0063892a      3f2e000a       move.w 0xa(a6), -(a7)
     0x0063892e      3f00           move.w d0, -(a7)
     0x00638930      4eb90048f67e   jsr MENURIGHTCOM.rh_act
     0x00638936      5c4f           addq.w 0x6, a7
  > 0x00638938      6022           bra.b 0x63895c              ; loc.0063893a+0x22
     ; CODE XREF from PALETCOM.hit_palette @ 0x63876e
 42: loc.0063893a ();
 > 0x0063893a      3200           move.w d0, d1
      0x0063893c      02411000       andi.w 0x1000, d1
  < 0x00638940      671a           beq.b 0x63895c
     0x00638942      554f           subq.w 0x2, a7
     0x00638944      4e91           jsr (a1)                    ; fcn.0000000a
     0x00638946      121f           move.b (a7)+, d1
     0x00638948      b202           cmp.b d2, d1
 < 0x0063894a      6610           bne.b 0x63895c
    0x0063894c      1f02           move.b d2, -(a7)
    0x0063894e      3f2e000a       move.w 0xa(a6), -(a7)
    0x00638952      3f00           move.w d0, -(a7)
    0x00638954      4eb90048f67e   jsr MENURIGHTCOM.rh_act
    0x0063895a      5c4f           addq.w 0x6, a7
    ; CODE XREFS from PALETCOM @ +0x2e02, +0x2e74
 > 0x0063895c      4cdf0f3f       movem.l (a7)+, d0-d5/a0-a3
          0x00638960      4e5e           unlk a6
          0x00638962      4e75           rts
           ; CALL XREF from PALETCOM.menu_pal_init @ 0x639170
 90: PALETCOM.multi_mem_fill ();
          0x00638964      4e56ffe0       link.w a6, 0xffe0
          0x00638968      bfd5           cmpa.l (a5), a7
      < 0x0063896a      6206           bhi.b 0x638972
         0x0063896c      44fc0002       move.w 0x2, ccr
         0x00638970      4e76           trapv
      > 0x00638972      defc0020       adda.w 0x20, a7
          0x00638976      48e7c080       movem.l d0-d1/a0, -(a7)
          0x0063897a      41ee000c       lea.l 0xc(a6), a0
          0x0063897e      223c00007ffc   move.l 0x7ffc, d1
      > 0x00638984      4a90           tst.l (a0)
     < 0x00638986      6f2e           ble.b 0x6389b6
        0x00638988      2010           move.l (a0), d0
        0x0063898a      b081           cmp.l d1, d0
    < 0x0063898c      6f0a           ble.b 0x638998
       0x0063898e      2f2e0010       move.l 0x10(a6), -(a7)
       0x00638992      48787ffc       pea.l 0x7ffc
   < 0x00638996      6006           bra.b 0x63899e
   > 0x00638998      2f2e0010       move.l 0x10(a6), -(a7)
       0x0063899c      2f00           move.l d0, -(a7)
   > 0x0063899e      2f2e0008       move.l 0x8(a6), -(a7)
        0x006389a2      4eb9006d1d32   jsr MEM_FILL
        0x006389a8      defc000c       adda.w 0xc, a7
        0x006389ac      9081           sub.l d1, d0
        0x006389ae      2080           move.l d0, (a0)
        0x006389b0      d3ae0008       add.l d1, 0x8(a6)
     < 0x006389b4      60ce           bra.b 0x638984
     > 0x006389b6      4cdf0103       movem.l (a7)+, d0-d1/a0
          0x006389ba      4e5e           unlk a6
          0x006389bc      4e75           rts
           ; CALL XREF from PALETCOM.menu_pal_init @ 0x6398c6
 342: PALETCOM.fetch_welcome_p ();
          0x006389be      4e56fee0       link.w a6, 0xfee0
          0x006389c2      bfd5           cmpa.l (a5), a7
      < 0x006389c4      6206           bhi.b 0x6389cc
         0x006389c6      44fc0002       move.w 0x2, ccr
         0x006389ca      4e76           trapv
      > 0x006389cc      defc008e       adda.w 0x8e, a7
          0x006389d0      48e7e0f8       movem.l d0-d2/a0-a4, -(a7)
          0x006389d4      45eefffe       lea.l -0x2(a6), a2
          0x006389d8      47eeff6e       lea.l -0x92(a6), a3
          0x006389dc      49eeffc6       lea.l -0x3a(a6), a4
          0x006389e0      7201           moveq 0x1, d1
          0x006389e2      7402           moveq 0x2, d2
          0x006389e4      2681           move.l d1, (a3)
          0x006389e6      426effc4       clr.w -0x3c(a6)
          0x006389ea      1d7c0007ffc3   move.b 0x7, -0x3d(a6)
          0x006389f0      514f           subq.w 0x8, a7
          0x006389f2      204f           movea.l a7, a0
          0x006389f4      43fad6e7       lea.l 0x6360dd(pc), a1
          0x006389f8      7006           moveq 0x6, d0
      > 0x006389fa      10d9           move.b (a1)+, (a0)+
      < 0x006389fc      51c8fffc       dbra d0, 0x6389fa
          0x00638a00      486eff72       pea.l -0x8e(a6)
          0x00638a04      48780000       pea.l 0x0
          0x00638a08      48780050       pea.l 0x50
          0x00638a0c      486f000c       pea.l 0xc(a7)
          0x00638a10      48780001       pea.l 0x1
          0x00638a14      48780007       pea.l 0x7
          0x00638a18      4eb9006a3982   jsr TEXTCOM.assign_str
          0x00638a1e      defc0020       adda.w 0x20, a7
          0x00638a22      4214           clr.b (a4)
          0x00638a24      41eeffd0       lea.l -0x30(a6), a0
          0x00638a28      43fad136       lea.l 0x635b60(pc), a1
          0x00638a2c      700a           moveq 0xa, d0
      > 0x00638a2e      20d9           move.l (a1)+, (a0)+
      < 0x00638a30      51c8fffc       dbra d0, 0x638a2e
          0x00638a34      30d9           move.w (a1)+, (a0)+
          0x00638a36      1d7c0003ffec   move.b 0x3, -0x14(a6)
          0x00638a3c      554f           subq.w 0x2, a7
          0x00638a3e      204c           movea.l a4, a0
          0x00638a40      7014           moveq 0x14, d0
      > 0x00638a42      2f20           move.l -(a0), -(a7)
      < 0x00638a44      51c8fffc       dbra d0, 0x638a42
          0x00638a48      2f3ad69e       move.l 0x6360e8(pc), -(a7)
          0x00638a4c      2f3ad696       move.l 0x6360e4(pc), -(a7)
          0x00638a50      2f3ad69e       move.l 0x6360f0(pc), -(a7)
          0x00638a54      2f3ad696       move.l 0x6360ec(pc), -(a7)
          0x00638a58      4853           pea.l (a3)
          0x00638a5a      4eb900597358   jsr K0_DISKMGR.k_find_file
          0x00638a60      defc0068       adda.w 0x68, a7
          0x00638a64      349f           move.w (a7)+, (a2)
          0x00638a66      1012           move.b (a2), d0
          0x00638a68      b03ad6a3       cmp.b 0x63610d(pc), d0
      < 0x00638a6c      6608           bne.b 0x638a76
         0x00638a6e      102effff       move.b -0x1(a6), d0
         0x00638a72      b03ad69a       cmp.b 0x63610e(pc), d0
     > 0x00638a76      6638           bne.b 0x638ab0
         0x00638a78      554f           subq.w 0x2, a7
         0x00638a7a      4853           pea.l (a3)
         0x00638a7c      2f3ad696       move.l 0x636114(pc), -(a7)
         0x00638a80      2f3ad68e       move.l 0x636110(pc), -(a7)
         0x00638a84      2f2effcc       move.l -0x34(a6), -(a7)
         0x00638a88      2f2effc8       move.l -0x38(a6), -(a7)
         0x00638a8c      3f14           move.w (a4), -(a7)
         0x00638a8e      1f02           move.b d2, -(a7)
         0x00638a90      4227           clr.b -(a7)
         0x00638a92      514f           subq.w 0x8, a7
         0x00638a94      1f3c0008       move.b 0x8, -(a7)
         0x00638a98      4eb9006336ea   jsr HANDCOM.get_area
         0x00638a9e      544f           addq.w 0x2, a7
         0x00638aa0      486effd0       pea.l -0x30(a6)
         0x00638aa4      4eb9005a9f3c   jsr K05_LOADSAVE.k_load
         0x00638aaa      defc0026       adda.w 0x26, a7
         0x00638aae      349f           move.w (a7)+, (a2)
     > 0x00638ab0      1012           move.b (a2), d0
          0x00638ab2      b03ad665       cmp.b 0x636119(pc), d0
      < 0x00638ab6      6608           bne.b 0x638ac0
         0x00638ab8      102effff       move.b -0x1(a6), d0
         0x00638abc      b03ad65c       cmp.b 0x63611a(pc), d0
     > 0x00638ac0      662a           bne.b 0x638aec
         0x00638ac2      48780001       pea.l 0x1
         0x00638ac6      2039008457b6   move.l 0x8457b6, d0
         0x00638acc      b097           cmp.l (a7), d0
     < 0x00638ace      6604           bne.b 0x638ad4
        0x00638ad0      584f           addq.w 0x4, a7
    < 0x00638ad2      6018           bra.b 0x638aec
    > 0x00638ad4      4227           clr.b -(a7)
        0x00638ad6      1f02           move.b d2, -(a7)
        0x00638ad8      4227           clr.b -(a7)
        0x00638ada      514f           subq.w 0x8, a7
        0x00638adc      4ebad706       jsr PALETCOM.get_mix_area(pc)
        0x00638ae0      2f00           move.l d0, -(a7)
        0x00638ae2      4eb900521974   jsr BRUSHCOM.br_computer_tra
        0x00638ae8      defc0016       adda.w 0x16, a7
    > 0x00638aec      3012           move.w (a2), d0
          0x00638aee      b07ad62c       cmp.w 0x63611c(pc), d0
      < 0x00638af2      6604           bne.b 0x638af8
         0x00638af4      4ebadcf8       jsr PALETCOM.pal_redraw(pc)
      > 0x00638af8      2053           movea.l (a3), a0
          0x00638afa      b0c1           cmpa.w d1, a0
      < 0x00638afc      670e           beq.b 0x638b0c
         0x00638afe      554f           subq.w 0x2, a7
         0x00638b00      4853           pea.l (a3)
         0x00638b02      4eb900594e02   jsr K0_DISKMGR.k_lose_ref
         0x00638b08      584f           addq.w 0x4, a7
         0x00638b0a      349f           move.w (a7)+, (a2)
      > 0x00638b0c      4cdf1f07       movem.l (a7)+, d0-d2/a0-a4
          0x00638b10      4e5e           unlk a6
          0x00638b12      4e75           rts
           ; CALL XREF from MENUINITCOM.menu_def_boxes @ 0x48e8ce
 3576: PALETCOM.menu_pal_init ();
          0x00638b14      4e56fd56       link.w a6, 0xfd56
          0x00638b18      bfd5           cmpa.l (a5), a7
      < 0x00638b1a      6206           bhi.b 0x638b22
         0x00638b1c      44fc0002       move.w 0x2, ccr
         0x00638b20      4e76           trapv
      > 0x00638b22      defc0142       adda.w 0x142, a7
          0x00638b26      48e7fff8       movem.l d0-d7/a0-a4, -(a7)
          0x00638b2a      47ed0010       lea.l 0x10(a5), a3
          0x00638b2e      42b9008458f0   clr.l 0x8458f0
          0x00638b34      42b900845716   clr.l 0x845716
          0x00638b3a      594f           subq.w 0x4, a7
          0x00638b3c      4eb90047b70e   jsr CNTLCOM.get_pen_info_pt
          0x00638b42      23df00845712   move.l (a7)+, 0x845712
          0x00638b48      42390084571b   clr.b 0x84571b
          0x00638b4e      554f           subq.w 0x2, a7
          0x00638b50      4eb900478be0   jsr CONFIGCOM.cfg_vo_type
          0x00638b56      101f           move.b (a7)+, d0
          0x00638b58      0c000006       cmpi.b 0x6, d0
      < 0x00638b5c      6606           bne.b 0x638b64
         0x00638b5e      52390084571b   addq.b 0x1, 0x84571b.l
      > 0x00638b64      42390084571a   clr.b 0x84571a
          0x00638b6a      554f           subq.w 0x2, a7
          0x00638b6c      4eb9004755c2   jsr CONFIG.cfg_gender
          0x00638b72      101f           move.b (a7)+, d0
          0x00638b74      4880           ext.w d0
          0x00638b76      41fad5a6       lea.l 0x63611e(pc), a0
          0x00638b7a      3200           move.w d0, d1
          0x00638b7c      e649           lsr.w 0x3, d1
          0x00638b7e      01301000       btst.l d0, (a0, d1.w)
      < 0x00638b82      6706           beq.b 0x638b8a
         0x00638b84      52390084571a   addq.b 0x1, 0x84571a.l
      > 0x00638b8a      4267           clr.w -(a7)
          0x00638b8c      1f3c0012       move.b 0x12, -(a7)
          0x00638b90      1f3c0001       move.b 0x1, -(a7)
          0x00638b94      4eb900486936   jsr MENUCOM.set_menu_flag
          0x00638b9a      5c4f           addq.w 0x6, a7
          0x00638b9c      4853           pea.l (a3)
          0x00638b9e      487ae720       pea.l PALETCOM.alt_draw_box(pc)
          0x00638ba2      4eb900485c3a   jsr MENUCOM.set_alt_draw_pr
          0x00638ba8      504f           addq.w 0x8, a7
          0x00638baa      486effec       pea.l -0x14(a6)
          0x00638bae      4eb900486a4e   jsr MENUCOM.get_menu_grid
          0x00638bb4      584f           addq.w 0x4, a7
          0x00638bb6      41eeffd8       lea.l -0x28(a6), a0
          0x00638bba      43fad50c       lea.l 0x6360c8(pc), a1
          0x00638bbe      7004           moveq 0x4, d0
      > 0x00638bc0      20d9           move.l (a1)+, (a0)+
      < 0x00638bc2      51c8fffc       dbra d0, 0x638bc0
          0x00638bc6      3d7c0012ffd8   move.w 0x12, -0x28(a6)
          0x00638bcc      2d7c0000001c.  move.l 0x1c, -0x14e(a6)
          0x00638bd4      514f           subq.w 0x8, a7
          0x00638bd6      4eb900633a48   jsr HANDCOM.get_screen_area
          0x00638bdc      2d5ffed0       move.l (a7)+, -0x130(a6)
          0x00638be0      2d5ffed4       move.l (a7)+, -0x12c(a6)
          0x00638be4      302efed4       move.w -0x12c(a6), d0
          0x00638be8      48c0           ext.l d0
          0x00638bea      81fc0002       divs.w 0x2, d0
          0x00638bee      322efed0       move.w -0x130(a6), d1
          0x00638bf2      48c1           ext.l d1
          0x00638bf4      48c0           ext.l d0
          0x00638bf6      d081           add.l d1, d0
          0x00638bf8      283c000002d0   move.l 0x2d0, d4
          0x00638bfe      7602           moveq 0x2, d3
          0x00638c00      4eb900406b50   jsr fcn.00406b50
          0x00638c06      4484           neg.l d4
          0x00638c08      d880           add.l d0, d4
          0x00638c0a      0484ffff8000   subi.l 0xffff8000, d4
          0x00638c10      0c840000ffff   cmpi.l 0xffff, d4
      < 0x00638c16      6302           bls.b 0x638c1a
         0x00638c18      4e4f           trap 0xf
      > 0x00638c1a      0684ffff8000   addi.l 0xffff8000, d4
          0x00638c20      3d44ffdc       move.w d4, -0x24(a6)
          0x00638c24      48c4           ext.l d4
          0x00638c26      0284fffffff8   andi.l 0xfffffff8, d4
          0x00638c2c      0484ffff8000   subi.l 0xffff8000, d4
          0x00638c32      0c840000ffff   cmpi.l 0xffff, d4
      < 0x00638c38      6302           bls.b 0x638c3c
         0x00638c3a      4e4f           trap 0xf
      > 0x00638c3c      0684ffff8000   addi.l 0xffff8000, d4
          0x00638c42      3d44ffdc       move.w d4, -0x24(a6)
          0x00638c46      41eeffec       lea.l -0x14(a6), a0
          0x00638c4a      7004           moveq 0x4, d0
      > 0x00638c4c      2f20           move.l -(a0), -(a7)
      < 0x00638c4e      51c8fffc       dbra d0, 0x638c4c
          0x00638c52      4eb900486a7e   jsr MENUCOM.set_menu_grid
          0x00638c58      defc000a       adda.w 0xa, a7
          0x00638c5c      204f           movea.l a7, a0
          0x00638c5e      43fad4c3       lea.l 0x636123(pc), a1
          0x00638c62      7008           moveq 0x8, d0
      > 0x00638c64      10d9           move.b (a1)+, (a0)+
      < 0x00638c66      51c8fffc       dbra d0, 0x638c64
          0x00638c6a      3f3c0068       move.w 0x68, -(a7)
          0x00638c6e      4267           clr.w -(a7)
          0x00638c70      4267           clr.w -(a7)
          0x00638c72      4267           clr.w -(a7)
          0x00638c74      4267           clr.w -(a7)
          0x00638c76      1f3c0002       move.b 0x2, -(a7)
          0x00638c7a      1f3c0003       move.b 0x3, -(a7)
          0x00638c7e      3f3c00e5       move.w 0xe5, -(a7)
          0x00638c82      4267           clr.w -(a7)
          0x00638c84      2f3ad466       move.l 0x6360ec(pc), -(a7)
          0x00638c88      486f0016       pea.l 0x16(a7)
          0x00638c8c      48780001       pea.l 0x1
          0x00638c90      48780009       pea.l 0x9
          0x00638c94      4853           pea.l (a3)
          0x00638c96      487afa90       pea.l PALETCOM.hit_palette(pc)
          0x00638c9a      4eb900487686   jsr MENUCOM.def_box
          0x00638ca0      defc0026       adda.w 0x26, a7
          0x00638ca4      204f           movea.l a7, a0
          0x00638ca6      43fad485       lea.l 0x63612d(pc), a1
          0x00638caa      700d           moveq 0xd, d0
      > 0x00638cac      10d9           move.b (a1)+, (a0)+
      < 0x00638cae      51c8fffc       dbra d0, 0x638cac
          0x00638cb2      48790084571c   pea.l 0x84571c
          0x00638cb8      4267           clr.w -(a7)
          0x00638cba      4267           clr.w -(a7)
          0x00638cbc      4267           clr.w -(a7)
          0x00638cbe      4267           clr.w -(a7)
          0x00638cc0      1f3c0002       move.b 0x2, -(a7)
          0x00638cc4      1f3c0003       move.b 0x3, -(a7)
          0x00638cc8      3f3c00e5       move.w 0xe5, -(a7)
          0x00638ccc      4267           clr.w -(a7)
          0x00638cce      2f3ad41c       move.l 0x6360ec(pc), -(a7)
          0x00638cd2      486f0018       pea.l 0x18(a7)
          0x00638cd6      48780001       pea.l 0x1
          0x00638cda      4878000e       pea.l 0xe
          0x00638cde      4853           pea.l (a3)
          0x00638ce0      487afa46       pea.l PALETCOM.hit_palette(pc)
          0x00638ce4      4eb900487aa6   jsr MENUCOM.new_box
          0x00638cea      defc0034       adda.w 0x34, a7
          0x00638cee      2ebad44c       move.l 0x63613c(pc), (a7)
          0x00638cf2      1f7ad44c0004   move.b 0x636140(pc), 0x4(a7)
          0x00638cf8      48790084571e   pea.l 0x84571e
          0x00638cfe      4267           clr.w -(a7)
          0x00638d00      4267           clr.w -(a7)
          0x00638d02      4267           clr.w -(a7)
          0x00638d04      4267           clr.w -(a7)
          0x00638d06      1f3c0013       move.b 0x13, -(a7)
          0x00638d0a      1f3c0003       move.b 0x3, -(a7)
          0x00638d0e      3f390084571c   move.w 0x84571c, -(a7)
          0x00638d14      4267           clr.w -(a7)
          0x00638d16      2f3ad3d4       move.l 0x6360ec(pc), -(a7)
          0x00638d1a      486f0018       pea.l 0x18(a7)
          0x00638d1e      48780001       pea.l 0x1
          0x00638d22      48780005       pea.l 0x5
          0x00638d26      4853           pea.l (a3)
          0x00638d28      487900481fee   pea.l MENUCOM.hit_nothing
          0x00638d2e      4eb900487aa6   jsr MENUCOM.new_box
          0x00638d34      defc0032       adda.w 0x32, a7
          0x00638d38      7e00           moveq 0x0, d7
          0x00638d3a      7c00           moveq 0x0, d6
          0x00638d3c      4a390084571a   tst.b 0x84571a
      < 0x00638d42      670a           beq.b 0x638d4e
         0x00638d44      2d7c00000003.  move.l 0x3, -0x146(a6)
     < 0x00638d4c      6008           bra.b 0x638d56
     > 0x00638d4e      2d7c00000001.  move.l 0x1, -0x146(a6)
     > 0x00638d56      7001           moveq 0x1, d0
      > 0x00638d58      2d40feae       move.l d0, -0x152(a6)
         0x00638d5c      7a01           moveq 0x1, d5
     > 0x00638d5e      5287           addq.l 0x1, d7
        0x00638d60      2807           move.l d7, d4
        0x00638d62      7607           moveq 0x7, d3
        0x00638d64      4eb900406b50   jsr fcn.00406b50
        0x00638d6a      4a83           tst.l d3
    < 0x00638d6c      6602           bne.b 0x638d70
       0x00638d6e      5286           addq.l 0x1, d6
    > 0x00638d70      2207           move.l d7, d1
        0x00638d72      d286           add.l d6, d1
        0x00638d74      5381           subq.l 0x1, d1
        0x00638d76      0c810000002f   cmpi.l 0x2f, d1
    < 0x00638d7c      6302           bls.b 0x638d80
       0x00638d7e      4e4f           trap 0xf
    > 0x00638d80      2801           move.l d1, d4
        0x00638d82      7606           moveq 0x6, d3
        0x00638d84      4eb900406a74   jsr fcn.00406a74
        0x00638d8a      2f04           move.l d4, -(a7)
        0x00638d8c      222efeba       move.l -0x146(a6), d1
        0x00638d90      5381           subq.l 0x1, d1
        0x00638d92      0c8100000002   cmpi.l 0x2, d1
    < 0x00638d98      6302           bls.b 0x638d9c
       0x00638d9a      4e4f           trap 0xf
    > 0x00638d9c      2801           move.l d1, d4
        0x00638d9e      263c00000120   move.l 0x120, d3
        0x00638da4      4eb900406a74   jsr fcn.00406a74
        0x00638daa      41face4e       lea.l 0x635bfa(pc), a0
        0x00638dae      221f           move.l (a7)+, d1
        0x00638db0      41f04800       lea.l (a0, d4.l), a0
        0x00638db4      43eefec2       lea.l -0x13e(a6), a1
        0x00638db8      41f01800       lea.l (a0, d1.l), a0
        0x00638dbc      7205           moveq 0x5, d1
    > 0x00638dbe      12d8           move.b (a0)+, (a1)+
    < 0x00638dc0      51c9fffc       dbra d1, 0x638dbe
        0x00638dc4      2207           move.l d7, d1
        0x00638dc6      5381           subq.l 0x1, d1
        0x00638dc8      0c810000002f   cmpi.l 0x2f, d1
    < 0x00638dce      6302           bls.b 0x638dd2
       0x00638dd0      4e4f           trap 0xf
    > 0x00638dd2      e381           asl.l 0x1, d1
        0x00638dd4      41f900845712   lea.l 0x845712, a0
        0x00638dda      3f3ad366       move.w 0x636142(pc), -(a7)
        0x00638dde      48701814       pea.l 0x14(a0, d1.l)
        0x00638de2      0485ffff8000   subi.l 0xffff8000, d5
        0x00638de8      0c850000ffff   cmpi.l 0xffff, d5
    < 0x00638dee      6302           bls.b 0x638df2
       0x00638df0      4e4f           trap 0xf
    > 0x00638df2      0685ffff8000   addi.l 0xffff8000, d5
        0x00638df8      3f05           move.w d5, -(a7)
        0x00638dfa      0480ffff8000   subi.l 0xffff8000, d0
        0x00638e00      0c800000ffff   cmpi.l 0xffff, d0
    < 0x00638e06      6302           bls.b 0x638e0a
       0x00638e08      4e4f           trap 0xf
    > 0x00638e0a      0680ffff8000   addi.l 0xffff8000, d0
        0x00638e10      3f00           move.w d0, -(a7)
        0x00638e12      3f3c0001       move.w 0x1, -(a7)
        0x00638e16      3f3c0001       move.w 0x1, -(a7)
        0x00638e1a      1f3c0010       move.b 0x10, -(a7)
        0x00638e1e      1f3c0006       move.b 0x6, -(a7)
        0x00638e22      3f390084571e   move.w 0x84571e, -(a7)
        0x00638e28      4267           clr.w -(a7)
        0x00638e2a      2f3ad2c0       move.l 0x6360ec(pc), -(a7)
        0x00638e2e      486f0018       pea.l 0x18(a7)
        0x00638e32      48780001       pea.l 0x1
        0x00638e36      48780002       pea.l 0x2
        0x00638e3a      4853           pea.l (a3)
        0x00638e3c      487ae726       pea.l PALETCOM.hit_pot(pc)
        0x00638e40      4eb900487aa6   jsr MENUCOM.new_box
        0x00638e46      defc002c       adda.w 0x2c, a7
        0x00638e4a      3eb01814       move.w 0x14(a0, d1.l), (a7)
        0x00638e4e      2f2efec4       move.l -0x13c(a6), -(a7)
        0x00638e52      3f2efec2       move.w -0x13e(a6), -(a7)
        0x00638e56      4eb900484148   jsr MENUCOM.set_boxcol
        0x00638e5c      5c4f           addq.w 0x6, a7
        0x00638e5e      3eb01814       move.w 0x14(a0, d1.l), (a7)
        0x00638e62      2f07           move.l d7, -(a7)
        0x00638e64      4eb90048402c   jsr MENUCOM.set_b_id
        0x00638e6a      544f           addq.w 0x2, a7
        0x00638e6c      2e87           move.l d7, (a7)
        0x00638e6e      48780000       pea.l 0x0
        0x00638e72      486efed8       pea.l -0x128(a6)
        0x00638e76      3f3c00ff       move.w 0xff, -(a7)
        0x00638e7a      4eb900406e56   jsr p_strI1
        0x00638e80      defc000c       adda.w 0xc, a7
        0x00638e84      3eb01814       move.w 0x14(a0, d1.l), (a7)
        0x00638e88      9efc0100       suba.w 0x100, a7
        0x00638e8c      7403           moveq 0x3, d2
        0x00638e8e      43ef0001       lea.l 0x1(a7), a1
        0x00638e92      45fad2b1       lea.l 0x636145(pc), a2
    > 0x00638e96      12da           move.b (a2)+, (a1)+
    < 0x00638e98      51cafffc       dbra d2, 0x638e96
        0x00638e9c      4242           clr.w d2
        0x00638e9e      142efed8       move.b -0x128(a6), d2
        0x00638ea2      5802           addq.b 0x4, d2
    < 0x00638ea4      6406           bcc.b 0x638eac
       0x00638ea6      4eb900406c8a   jsr p_strovr
    > 0x00638eac      4242           clr.w d2
        0x00638eae      142efed8       move.b -0x128(a6), d2
        0x00638eb2      363c00ff       move.w 0xff, d3
        0x00638eb6      5943           subq.w 0x4, d3
        0x00638eb8      b443           cmp.w d3, d2
    < 0x00638eba      6302           bls.b 0x638ebe
       0x00638ebc      3403           move.w d3, d2
    > 0x00638ebe      1ebc0004       move.b 0x4, (a7)
        0x00638ec2      d517           add.b d2, (a7)
        0x00638ec4      5302           subq.b 0x1, d2
    < 0x00638ec6      650a           bcs.b 0x638ed2
       0x00638ec8      45eefed9       lea.l -0x127(a6), a2
   > 0x00638ecc      12da           move.b (a2)+, (a1)+
   < 0x00638ece      51cafffc       dbra d2, 0x638ecc
    > 0x00638ed2      4eb90048442e   jsr MENUCOM.set_box_macro_n
        0x00638ed8      defc0100       adda.w 0x100, a7
        0x00638edc      3eb01814       move.w 0x14(a0, d1.l), (a7)
        0x00638ee0      1f3c0004       move.b 0x4, -(a7)
        0x00638ee4      1f3c0001       move.b 0x1, -(a7)
        0x00638ee8      4eb900486936   jsr MENUCOM.set_menu_flag
        0x00638eee      5c4f           addq.w 0x6, a7
        0x00638ef0      0487ffff8000   subi.l 0xffff8000, d7
        0x00638ef6      0c870000ffff   cmpi.l 0xffff, d7
    < 0x00638efc      6302           bls.b 0x638f00
       0x00638efe      4e4f           trap 0xf
    > 0x00638f00      0687ffff8000   addi.l 0xffff8000, d7
        0x00638f06      3f07           move.w d7, -(a7)
        0x00638f08      2f2efec4       move.l -0x13c(a6), -(a7)
        0x00638f0c      3f2efec2       move.w -0x13e(a6), -(a7)
        0x00638f10      4eb90048f6f6   jsr MENURIGHTCOM.set_potcol
        0x00638f16      504f           addq.w 0x8, a7
        0x00638f18      5285           addq.l 0x1, d5
        0x00638f1a      0c8500000007   cmpi.l 0x7, d5
     < 0x00638f20      6f00fe3c       ble.w 0x638d5e
         0x00638f24      5280           addq.l 0x1, d0
         0x00638f26      0c8000000006   cmpi.l 0x6, d0
      < 0x00638f2c      6f00fe2a       ble.w 0x638d58
          0x00638f30      3d7c0008fec8   move.w 0x8, -0x138(a6)
          0x00638f36      3d7c0001feca   move.w 0x1, -0x136(a6)
          0x00638f3c      202efeb2       move.l -0x14e(a6), d0
          0x00638f40      0480ffff8000   subi.l 0xffff8000, d0
          0x00638f46      0c800000ffff   cmpi.l 0xffff, d0
      < 0x00638f4c      6302           bls.b 0x638f50
         0x00638f4e      4e4f           trap 0xf
      > 0x00638f50      0680ffff8000   addi.l 0xffff8000, d0
          0x00638f56      3d40fecc       move.w d0, -0x134(a6)
          0x00638f5a      3d7c0005fece   move.w 0x5, -0x132(a6)
          0x00638f60      554f           subq.w 0x2, a7
          0x00638f62      1ebad1eb       move.b 0x63614f(pc), (a7)
          0x00638f66      1f7ad1e80001   move.b 0x636150(pc), 0x1(a7)
          0x00638f6c      487900845720   pea.l 0x845720
          0x00638f72      3f2efec8       move.w -0x138(a6), -(a7)
          0x00638f76      3f2efeca       move.w -0x136(a6), -(a7)
          0x00638f7a      3f2efecc       move.w -0x134(a6), -(a7)
          0x00638f7e      3f2efece       move.w -0x132(a6), -(a7)
          0x00638f82      1f3c0010       move.b 0x10, -(a7)
          0x00638f86      1f3c0006       move.b 0x6, -(a7)
          0x00638f8a      3f390084571c   move.w 0x84571c, -(a7)
          0x00638f90      4267           clr.w -(a7)
          0x00638f92      2f3ad1b6       move.l 0x63614a(pc), -(a7)
          0x00638f96      486f0018       pea.l 0x18(a7)
          0x00638f9a      48780001       pea.l 0x1
          0x00638f9e      48780002       pea.l 0x2
          0x00638fa2      4853           pea.l (a3)
          0x00638fa4      487aec6c       pea.l PALETCOM.hit_mix(pc)
          0x00638fa8      4eb900487aa6   jsr MENUCOM.new_box
          0x00638fae      defc002c       adda.w 0x2c, a7
          0x00638fb2      3eb900845720   move.w 0x845720, (a7)
          0x00638fb8      2f3acafe       move.l 0x635ab8(pc), -(a7)
          0x00638fbc      3f3acaf8       move.w 0x635ab6(pc), -(a7)
          0x00638fc0      4eb900484148   jsr MENUCOM.set_boxcol
          0x00638fc6      5c4f           addq.w 0x6, a7
          0x00638fc8      3eb900845720   move.w 0x845720, (a7)
          0x00638fce      9efc0100       suba.w 0x100, a7
          0x00638fd2      204f           movea.l a7, a0
          0x00638fd4      43fad17b       lea.l 0x636151(pc), a1
          0x00638fd8      700b           moveq 0xb, d0
      > 0x00638fda      10d9           move.b (a1)+, (a0)+
      < 0x00638fdc      51c8fffc       dbra d0, 0x638fda
          0x00638fe0      4eb90048442e   jsr MENUCOM.set_box_macro_n
          0x00638fe6      defc00f8       adda.w 0xf8, a7
          0x00638fea      3eb900845720   move.w 0x845720, (a7)
          0x00638ff0      4eb9004811d6   jsr MENUCOM.get_boxarea
          0x00638ff6      544f           addq.w 0x2, a7
          0x00638ff8      2d5ffec8       move.l (a7)+, -0x138(a6)
          0x00638ffc      2d5ffecc       move.l (a7)+, -0x134(a6)
          0x00639000      42aefebe       clr.l -0x142(a6)
          0x00639004      302efec8       move.w -0x138(a6), d0
          0x00639008      48c0           ext.l d0
          0x0063900a      81fc0008       divs.w 0x8, d0
          0x0063900e      4840           swap d0
          0x00639010      4a40           tst.w d0
      < 0x00639012      6c02           bge.b 0x639016
         0x00639014      5040           addq.w 0x8, d0
      > 0x00639016      4a40           tst.w d0
      < 0x00639018      674c           beq.b 0x639066
         0x0063901a      7208           moveq 0x8, d1
         0x0063901c      9240           sub.w d0, d1
         0x0063901e      48c1           ext.l d1
         0x00639020      2c01           move.l d1, d6
         0x00639022      322efec8       move.w -0x138(a6), d1
         0x00639026      48c1           ext.l d1
         0x00639028      d286           add.l d6, d1
         0x0063902a      0481ffff8000   subi.l 0xffff8000, d1
         0x00639030      0c810000ffff   cmpi.l 0xffff, d1
     < 0x00639036      6302           bls.b 0x63903a
        0x00639038      4e4f           trap 0xf
     > 0x0063903a      0681ffff8000   addi.l 0xffff8000, d1
         0x00639040      3d41fec8       move.w d1, -0x138(a6)
         0x00639044      322efecc       move.w -0x134(a6), d1
         0x00639048      48c1           ext.l d1
         0x0063904a      9286           sub.l d6, d1
         0x0063904c      0481ffff8000   subi.l 0xffff8000, d1
         0x00639052      0c810000ffff   cmpi.l 0xffff, d1
     < 0x00639058      6302           bls.b 0x63905c
        0x0063905a      4e4f           trap 0xf
     > 0x0063905c      0681ffff8000   addi.l 0xffff8000, d1
         0x00639062      3d41fecc       move.w d1, -0x134(a6)
      > 0x00639066      302efecc       move.w -0x134(a6), d0
          0x0063906a      48c0           ext.l d0
          0x0063906c      81fc0008       divs.w 0x8, d0
          0x00639070      4840           swap d0
          0x00639072      4a40           tst.w d0
      < 0x00639074      6c02           bge.b 0x639078
         0x00639076      5040           addq.w 0x8, d0
      > 0x00639078      4a40           tst.w d0
      < 0x0063907a      672c           beq.b 0x6390a8
         0x0063907c      3200           move.w d0, d1
         0x0063907e      48c1           ext.l d1
         0x00639080      2c01           move.l d1, d6
         0x00639082      322efecc       move.w -0x134(a6), d1
         0x00639086      48c1           ext.l d1
         0x00639088      9286           sub.l d6, d1
         0x0063908a      0481ffff8000   subi.l 0xffff8000, d1
         0x00639090      0c810000ffff   cmpi.l 0xffff, d1
     < 0x00639096      6302           bls.b 0x63909a
        0x00639098      4e4f           trap 0xf
     > 0x0063909a      0681ffff8000   addi.l 0xffff8000, d1
         0x006390a0      3d41fecc       move.w d1, -0x134(a6)
         0x006390a4      2d46febe       move.l d6, -0x142(a6)
      > 0x006390a8      302efeca       move.w -0x136(a6), d0
          0x006390ac      48c0           ext.l d0
          0x006390ae      81fc0004       divs.w 0x4, d0
          0x006390b2      4840           swap d0
          0x006390b4      4a40           tst.w d0
      < 0x006390b6      6c02           bge.b 0x6390ba
         0x006390b8      5840           addq.w 0x4, d0
      > 0x006390ba      4a40           tst.w d0
      < 0x006390bc      674c           beq.b 0x63910a
         0x006390be      7204           moveq 0x4, d1
         0x006390c0      9240           sub.w d0, d1
         0x006390c2      48c1           ext.l d1
         0x006390c4      2c01           move.l d1, d6
         0x006390c6      322efeca       move.w -0x136(a6), d1
         0x006390ca      48c1           ext.l d1
         0x006390cc      d286           add.l d6, d1
         0x006390ce      0481ffff8000   subi.l 0xffff8000, d1
         0x006390d4      0c810000ffff   cmpi.l 0xffff, d1
     < 0x006390da      6302           bls.b 0x6390de
        0x006390dc      4e4f           trap 0xf
     > 0x006390de      0681ffff8000   addi.l 0xffff8000, d1
         0x006390e4      3d41feca       move.w d1, -0x136(a6)
         0x006390e8      322efece       move.w -0x132(a6), d1
         0x006390ec      48c1           ext.l d1
         0x006390ee      9286           sub.l d6, d1
         0x006390f0      0481ffff8000   subi.l 0xffff8000, d1
         0x006390f6      0c810000ffff   cmpi.l 0xffff, d1
     < 0x006390fc      6302           bls.b 0x639100
        0x006390fe      4e4f           trap 0xf
     > 0x00639100      0681ffff8000   addi.l 0xffff8000, d1
         0x00639106      3d41fece       move.w d1, -0x132(a6)
      > 0x0063910a      302efece       move.w -0x132(a6), d0
          0x0063910e      48c0           ext.l d0
          0x00639110      81fc0004       divs.w 0x4, d0
          0x00639114      4840           swap d0
          0x00639116      4a40           tst.w d0
      < 0x00639118      6c02           bge.b 0x63911c
         0x0063911a      5840           addq.w 0x4, d0
      > 0x0063911c      4a40           tst.w d0
      < 0x0063911e      6728           beq.b 0x639148
         0x00639120      3200           move.w d0, d1
         0x00639122      48c1           ext.l d1
         0x00639124      2c01           move.l d1, d6
         0x00639126      322efece       move.w -0x132(a6), d1
         0x0063912a      48c1           ext.l d1
         0x0063912c      9286           sub.l d6, d1
         0x0063912e      0481ffff8000   subi.l 0xffff8000, d1
         0x00639134      0c810000ffff   cmpi.l 0xffff, d1
     < 0x0063913a      6302           bls.b 0x63913e
        0x0063913c      4e4f           trap 0xf
     > 0x0063913e      0681ffff8000   addi.l 0xffff8000, d1
         0x00639144      3d41fece       move.w d1, -0x132(a6)
      > 0x00639148      302efece       move.w -0x132(a6), d0
          0x0063914c      c1eefecc       muls.w -0x134(a6), d0
          0x00639150      e380           asl.l 0x1, d0
          0x00639152      4879008457b6   pea.l 0x8457b6
          0x00639158      2f00           move.l d0, -(a7)
          0x0063915a      4eb900403a92   jsr p_New
          0x00639160      584f           addq.w 0x4, a7
          0x00639162      2ebc80eb80eb   move.l 0x80eb80eb, (a7)
          0x00639168      2f00           move.l d0, -(a7)
          0x0063916a      2f39008457b6   move.l 0x8457b6, -(a7)
          0x00639170      4ebaf7f2       jsr PALETCOM.multi_mem_fill(pc)
          0x00639174      defc000a       adda.w 0xa, a7
          0x00639178      3eb900845720   move.w 0x845720, (a7)
          0x0063917e      2f2efecc       move.l -0x134(a6), -(a7)
          0x00639182      2f2efec8       move.l -0x138(a6), -(a7)
          0x00639186      4eb9004841ca   jsr MENUCOM.set_box_area
          0x0063918c      defc000a       adda.w 0xa, a7
          0x00639190      23eefec80084.  move.l -0x138(a6), 0x8457a4.l
          0x00639198      23eefecc0084.  move.l -0x134(a6), 0x8457a8.l
          0x006391a0      554f           subq.w 0x2, a7
          0x006391a2      2f3acfba       move.l 0x63615e(pc), -(a7)
          0x006391a6      1f7acfba0004   move.b 0x636162(pc), 0x4(a7)
          0x006391ac      487900845796   pea.l 0x845796
          0x006391b2      3f3c0008       move.w 0x8, -(a7)
          0x006391b6      3f3c0006       move.w 0x6, -(a7)
          0x006391ba      3f3c0002       move.w 0x2, -(a7)
          0x006391be      3f3c0001       move.w 0x1, -(a7)
          0x006391c2      1f3c0005       move.b 0x5, -(a7)
          0x006391c6      4227           clr.b -(a7)
          0x006391c8      3f390084571c   move.w 0x84571c, -(a7)
          0x006391ce      4267           clr.w -(a7)
          0x006391d0      2f3acf1a       move.l 0x6360ec(pc), -(a7)
          0x006391d4      486f0018       pea.l 0x18(a7)
          0x006391d8      48780001       pea.l 0x1
          0x006391dc      48780005       pea.l 0x5
          0x006391e0      4853           pea.l (a3)
          0x006391e2      487af040       pea.l PALETCOM.hit_mode(pc)
          0x006391e6      4eb900487aa6   jsr MENUCOM.new_box
          0x006391ec      defc0030       adda.w 0x30, a7
          0x006391f0      3ebacf72       move.w 0x636164(pc), (a7)
          0x006391f4      487900845798   pea.l 0x845798
          0x006391fa      3f3c000a       move.w 0xa, -(a7)
          0x006391fe      3f3c0006       move.w 0x6, -(a7)
          0x00639202      3f3c0002       move.w 0x2, -(a7)
          0x00639206      3f3c0001       move.w 0x1, -(a7)
          0x0063920a      1f3c0008       move.b 0x8, -(a7)
          0x0063920e      4227           clr.b -(a7)
          0x00639210      3f390084571c   move.w 0x84571c, -(a7)
          0x00639216      4267           clr.w -(a7)
          0x00639218      2f3aced2       move.l 0x6360ec(pc), -(a7)
          0x0063921c      486f0018       pea.l 0x18(a7)
          0x00639220      48780001       pea.l 0x1
          0x00639224      48780002       pea.l 0x2
          0x00639228      4853           pea.l (a3)
          0x0063922a      487af146       pea.l PALETCOM.hit_val(pc)
          0x0063922e      4eb900487aa6   jsr MENUCOM.new_box
          0x00639234      defc002c       adda.w 0x2c, a7
          0x00639238      3eb900845798   move.w 0x845798, (a7)
          0x0063923e      9efc00fc       suba.w 0xfc, a7
          0x00639242      2f3acf22       move.l 0x636166(pc), -(a7)
          0x00639246      3f7acf220004   move.w 0x63616a(pc), 0x4(a7)
          0x0063924c      4eb90048442e   jsr MENUCOM.set_box_macro_n
          0x00639252      defc0100       adda.w 0x100, a7
          0x00639256      3eb900845798   move.w 0x845798, (a7)
          0x0063925c      48780001       pea.l 0x1
          0x00639260      4eb90048402c   jsr MENUCOM.set_b_id
          0x00639266      5c4f           addq.w 0x6, a7
          0x00639268      7800           moveq 0x0, d4
          0x0063926a      4eb900408686   jsr fcn.00408686
          0x00639270      2f04           move.l d4, -(a7)
          0x00639272      283c00000168   move.l 0x168, d4
          0x00639278      4eb900408686   jsr fcn.00408686
          0x0063927e      3f3900845798   move.w 0x845798, -(a7)
          0x00639284      202f0002       move.l 0x2(a7), d0
          0x00639288      2f00           move.l d0, -(a7)
          0x0063928a      202f0006       move.l 0x6(a7), d0
          0x0063928e      2f00           move.l d0, -(a7)
          0x00639290      2f04           move.l d4, -(a7)
          0x00639292      3f3cfffd       move.w 0xfffd, -(a7)
          0x00639296      4267           clr.w -(a7)
          0x00639298      4eb90048d4ae   jsr MENU2COM.make_numeric_bo
          0x0063929e      defc0010       adda.w 0x10, a7
          0x006392a2      1ebacec9       move.b 0x63616d(pc), (a7)
          0x006392a6      1f7acec60001   move.b 0x63616e(pc), 0x1(a7)
          0x006392ac      48790084579a   pea.l 0x84579a
          0x006392b2      3f3c000c       move.w 0xc, -(a7)
          0x006392b6      3f3c0006       move.w 0x6, -(a7)
          0x006392ba      3f3c0002       move.w 0x2, -(a7)
          0x006392be      3f3c0001       move.w 0x1, -(a7)
          0x006392c2      1f3c0008       move.b 0x8, -(a7)
          0x006392c6      4227           clr.b -(a7)
          0x006392c8      3f390084571c   move.w 0x84571c, -(a7)
          0x006392ce      3f3900845798   move.w 0x845798, -(a7)
          0x006392d4      2f3ace16       move.l 0x6360ec(pc), -(a7)
          0x006392d8      486f0018       pea.l 0x18(a7)
          0x006392dc      48780001       pea.l 0x1
          0x006392e0      48780002       pea.l 0x2
          0x006392e4      4853           pea.l (a3)
          0x006392e6      487af08a       pea.l PALETCOM.hit_val(pc)
          0x006392ea      4eb900487aa6   jsr MENUCOM.new_box
          0x006392f0      defc002c       adda.w 0x2c, a7
          0x006392f4      3eb90084579a   move.w 0x84579a, (a7)
          0x006392fa      9efc0100       suba.w 0x100, a7
          0x006392fe      204f           movea.l a7, a0
          0x00639300      43face6d       lea.l 0x63616f(pc), a1
          0x00639304      7005           moveq 0x5, d0
      > 0x00639306      10d9           move.b (a1)+, (a0)+
      < 0x00639308      51c8fffc       dbra d0, 0x639306
          0x0063930c      4eb90048442e   jsr MENUCOM.set_box_macro_n
          0x00639312      defc0100       adda.w 0x100, a7
          0x00639316      3eb90084579a   move.w 0x84579a, (a7)
          0x0063931c      48780002       pea.l 0x2
          0x00639320      4eb90048402c   jsr MENUCOM.set_b_id
          0x00639326      584f           addq.w 0x4, a7
          0x00639328      3eb90084579a   move.w 0x84579a, (a7)
          0x0063932e      202f0002       move.l 0x2(a7), d0
          0x00639332      2f00           move.l d0, -(a7)
          0x00639334      202f0006       move.l 0x6(a7), d0
          0x00639338      2f00           move.l d0, -(a7)
          0x0063933a      2f04           move.l d4, -(a7)
          0x0063933c      3f3cfffd       move.w 0xfffd, -(a7)
          0x00639340      4267           clr.w -(a7)
          0x00639342      4eb90048d4ae   jsr MENU2COM.make_numeric_bo
          0x00639348      defc0010       adda.w 0x10, a7
          0x0063934c      3ebace28       move.w 0x636176(pc), (a7)
          0x00639350      48790084579c   pea.l 0x84579c
          0x00639356      3f3c000e       move.w 0xe, -(a7)
          0x0063935a      3f3c0006       move.w 0x6, -(a7)
          0x0063935e      3f3c0002       move.w 0x2, -(a7)
          0x00639362      3f3c0001       move.w 0x1, -(a7)
          0x00639366      1f3c0008       move.b 0x8, -(a7)
          0x0063936a      4227           clr.b -(a7)
          0x0063936c      3f390084571c   move.w 0x84571c, -(a7)
          0x00639372      3f390084579a   move.w 0x84579a, -(a7)
          0x00639378      2f3acd72       move.l 0x6360ec(pc), -(a7)
          0x0063937c      486f0018       pea.l 0x18(a7)
          0x00639380      48780001       pea.l 0x1
          0x00639384      48780002       pea.l 0x2
          0x00639388      4853           pea.l (a3)
          0x0063938a      487aefe6       pea.l PALETCOM.hit_val(pc)
          0x0063938e      4eb900487aa6   jsr MENUCOM.new_box
          0x00639394      defc002c       adda.w 0x2c, a7
          0x00639398      3eb90084579c   move.w 0x84579c, (a7)
          0x0063939e      9efc00fc       suba.w 0xfc, a7
          0x006393a2      2f3acdd4       move.l 0x636178(pc), -(a7)
          0x006393a6      3f7acdd40004   move.w 0x63617c(pc), 0x4(a7)
          0x006393ac      4eb90048442e   jsr MENUCOM.set_box_macro_n
          0x006393b2      defc0100       adda.w 0x100, a7
          0x006393b6      3eb90084579c   move.w 0x84579c, (a7)
          0x006393bc      48780003       pea.l 0x3
          0x006393c0      4eb90048402c   jsr MENUCOM.set_b_id
          0x006393c6      584f           addq.w 0x4, a7
          0x006393c8      3eb90084579c   move.w 0x84579c, (a7)
          0x006393ce      202f0002       move.l 0x2(a7), d0
          0x006393d2      2f00           move.l d0, -(a7)
          0x006393d4      202f0006       move.l 0x6(a7), d0
          0x006393d8      2f00           move.l d0, -(a7)
          0x006393da      2f04           move.l d4, -(a7)
          0x006393dc      3f3cfffd       move.w 0xfffd, -(a7)
          0x006393e0      4267           clr.w -(a7)
          0x006393e2      4eb90048d4ae   jsr MENU2COM.make_numeric_bo
          0x006393e8      defc000e       adda.w 0xe, a7
          0x006393ec      204f           movea.l a7, a0
          0x006393ee      43facd93       lea.l 0x636183(pc), a1
          0x006393f2      7006           moveq 0x6, d0
      > 0x006393f4      10d9           move.b (a1)+, (a0)+
      < 0x006393f6      51c8fffc       dbra d0, 0x6393f4
          0x006393fa      487900845724   pea.l 0x845724
          0x00639400      3f3c0011       move.w 0x11, -(a7)
          0x00639404      3f3c0006       move.w 0x6, -(a7)
          0x00639408      3f3c0002       move.w 0x2, -(a7)
          0x0063940c      3f3c0001       move.w 0x1, -(a7)
          0x00639410      1f3c0005       move.b 0x5, -(a7)
          0x00639414      4227           clr.b -(a7)
          0x00639416      3f390084571c   move.w 0x84571c, -(a7)
          0x0063941c      4267           clr.w -(a7)
          0x0063941e      2f3acd5e       move.l 0x63617e(pc), -(a7)
          0x00639422      486f0018       pea.l 0x18(a7)
          0x00639426      48780001       pea.l 0x1
          0x0063942a      48780007       pea.l 0x7
          0x0063942e      4853           pea.l (a3)
          0x00639430      487af0a8       pea.l PALETCOM.hit_undo(pc)
          0x00639434      4eb900487aa6   jsr MENUCOM.new_box
          0x0063943a      defc0034       adda.w 0x34, a7
          0x0063943e      302effdc       move.w -0x24(a6), d0
          0x00639442      48c0           ext.l d0
          0x00639444      90aefebe       sub.l -0x142(a6), d0
          0x00639448      0480ffff8000   subi.l 0xffff8000, d0
          0x0063944e      0c800000ffff   cmpi.l 0xffff, d0
      < 0x00639454      6302           bls.b 0x639458
         0x00639456      4e4f           trap 0xf
      > 0x00639458      0680ffff8000   addi.l 0xffff8000, d0
          0x0063945e      3d40ffdc       move.w d0, -0x24(a6)
          0x00639462      41eeffec       lea.l -0x14(a6), a0
          0x00639466      7004           moveq 0x4, d0
      > 0x00639468      2f20           move.l -(a0), -(a7)
      < 0x0063946a      51c8fffc       dbra d0, 0x639468
          0x0063946e      4eb900486a7e   jsr MENUCOM.set_menu_grid
          0x00639474      defc000e       adda.w 0xe, a7
          0x00639478      204f           movea.l a7, a0
          0x0063947a      43facd13       lea.l 0x63618f(pc), a1
          0x0063947e      7004           moveq 0x4, d0
      > 0x00639480      10d9           move.b (a1)+, (a0)+
      < 0x00639482      51c8fffc       dbra d0, 0x639480
          0x00639486      48790084579e   pea.l 0x84579e
          0x0063948c      3f3c001b       move.w 0x1b, -(a7)
          0x00639490      3f3c0006       move.w 0x6, -(a7)
          0x00639494      3f3c0003       move.w 0x3, -(a7)
          0x00639498      3f3c0001       move.w 0x1, -(a7)
          0x0063949c      1f3c0001       move.b 0x1, -(a7)
          0x006394a0      4227           clr.b -(a7)
          0x006394a2      3f390084571c   move.w 0x84571c, -(a7)
          0x006394a8      4267           clr.w -(a7)
          0x006394aa      2f3accde       move.l 0x63618a(pc), -(a7)
          0x006394ae      486f0018       pea.l 0x18(a7)
          0x006394b2      48780001       pea.l 0x1
          0x006394b6      48780005       pea.l 0x5
          0x006394ba      4853           pea.l (a3)
          0x006394bc      487aeb84       pea.l PALETCOM.hit_size(pc)
          0x006394c0      4eb900487aa6   jsr MENUCOM.new_box
          0x006394c6      defc002c       adda.w 0x2c, a7
          0x006394ca      204f           movea.l a7, a0
          0x006394cc      43faccc7       lea.l 0x636195(pc), a1
          0x006394d0      7004           moveq 0x4, d0
      > 0x006394d2      10d9           move.b (a1)+, (a0)+
      < 0x006394d4      51c8fffc       dbra d0, 0x6394d2
          0x006394d8      4879008457a0   pea.l 0x8457a0
          0x006394de      3f3c001e       move.w 0x1e, -(a7)
          0x006394e2      3f3c0006       move.w 0x6, -(a7)
          0x006394e6      3f3c0003       move.w 0x3, -(a7)
          0x006394ea      3f3c0001       move.w 0x1, -(a7)
          0x006394ee      1f3c0001       move.b 0x1, -(a7)
          0x006394f2      4227           clr.b -(a7)
          0x006394f4      3f390084571c   move.w 0x84571c, -(a7)
          0x006394fa      3f390084579e   move.w 0x84579e, -(a7)
          0x00639500      2f3acbea       move.l 0x6360ec(pc), -(a7)
          0x00639504      486f0018       pea.l 0x18(a7)
          0x00639508      48780001       pea.l 0x1
          0x0063950c      48780005       pea.l 0x5
          0x00639510      4853           pea.l (a3)
          0x00639512      487aeb2e       pea.l PALETCOM.hit_size(pc)
          0x00639516      4eb900487aa6   jsr MENUCOM.new_box
          0x0063951c      defc002a       adda.w 0x2a, a7
          0x00639520      204f           movea.l a7, a0
          0x00639522      43facc77       lea.l 0x63619b(pc), a1
          0x00639526      7007           moveq 0x7, d0
      > 0x00639528      10d9           move.b (a1)+, (a0)+
      < 0x0063952a      51c8fffc       dbra d0, 0x639528
          0x0063952e      4879008457a2   pea.l 0x8457a2
          0x00639534      3f3c0021       move.w 0x21, -(a7)
          0x00639538      3f3c0006       move.w 0x6, -(a7)
          0x0063953c      3f3c0004       move.w 0x4, -(a7)
          0x00639540      3f3c0001       move.w 0x1, -(a7)
          0x00639544      1f3c0001       move.b 0x1, -(a7)
          0x00639548      4227           clr.b -(a7)
          0x0063954a      3f390084571c   move.w 0x84571c, -(a7)
          0x00639550      3f390084579e   move.w 0x84579e, -(a7)
          0x00639556      2f3acb94       move.l 0x6360ec(pc), -(a7)
          0x0063955a      486f0018       pea.l 0x18(a7)
          0x0063955e      48780001       pea.l 0x1
          0x00639562      48780008       pea.l 0x8
          0x00639566      4853           pea.l (a3)
          0x00639568      487aead8       pea.l PALETCOM.hit_size(pc)
          0x0063956c      4eb900487aa6   jsr MENUCOM.new_box
          0x00639572      defc0034       adda.w 0x34, a7
          0x00639576      7008           moveq 0x8, d0
          0x00639578      d0aefeb2       add.l -0x14e(a6), d0
          0x0063957c      0480ffff8000   subi.l 0xffff8000, d0
          0x00639582      0c800000ffff   cmpi.l 0xffff, d0
      < 0x00639588      6302           bls.b 0x63958c
         0x0063958a      4e4f           trap 0xf
      > 0x0063958c      0680ffff8000   addi.l 0xffff8000, d0
          0x00639592      3d40fe9a       move.w d0, -0x166(a6)
          0x00639596      554f           subq.w 0x2, a7
          0x00639598      1ebacc0f       move.b 0x6361a9(pc), (a7)
          0x0063959c      1f7acc0c0001   move.b 0x6361aa(pc), 0x1(a7)
          0x006395a2      487900845722   pea.l 0x845722
          0x006395a8      3f00           move.w d0, -(a7)
          0x006395aa      3f3c0001       move.w 0x1, -(a7)
          0x006395ae      3f3c0001       move.w 0x1, -(a7)
          0x006395b2      3f3c0005       move.w 0x5, -(a7)
          0x006395b6      1f3c0010       move.b 0x10, -(a7)
          0x006395ba      1f3c0006       move.b 0x6, -(a7)
          0x006395be      3f390084571c   move.w 0x84571c, -(a7)
          0x006395c4      4267           clr.w -(a7)
          0x006395c6      2f3acbdc       move.l 0x6361a4(pc), -(a7)
          0x006395ca      486f0018       pea.l 0x18(a7)
          0x006395ce      48780001       pea.l 0x1
          0x006395d2      48780002       pea.l 0x2
          0x006395d6      4853           pea.l (a3)
          0x006395d8      487ae78e       pea.l PALETCOM.hit_indicator(pc)
          0x006395dc      4eb900487aa6   jsr MENUCOM.new_box
          0x006395e2      defc002c       adda.w 0x2c, a7
          0x006395e6      3eb900845722   move.w 0x845722, (a7)
          0x006395ec      2f3ac482       move.l 0x635a70(pc), -(a7)
          0x006395f0      3f3ac47c       move.w 0x635a6e(pc), -(a7)
          0x006395f4      4eb900484148   jsr MENUCOM.set_boxcol
          0x006395fa      5c4f           addq.w 0x6, a7
          0x006395fc      3eb900845722   move.w 0x845722, (a7)
          0x00639602      9efc0100       suba.w 0x100, a7
          0x00639606      204f           movea.l a7, a0
          0x00639608      43facba1       lea.l 0x6361ab(pc), a1
          0x0063960c      7009           moveq 0x9, d0
      > 0x0063960e      10d9           move.b (a1)+, (a0)+
      < 0x00639610      51c8fffc       dbra d0, 0x63960e
          0x00639614      4eb90048442e   jsr MENUCOM.set_box_macro_n
          0x0063961a      defc0100       adda.w 0x100, a7
          0x0063961e      3eb900845722   move.w 0x845722, (a7)
          0x00639624      48780000       pea.l 0x0
          0x00639628      4eb90048402c   jsr MENUCOM.set_b_id
          0x0063962e      5c4f           addq.w 0x6, a7
          0x00639630      7009           moveq 0x9, d0
          0x00639632      d0aefeb2       add.l -0x14e(a6), d0
          0x00639636      0480ffff8000   subi.l 0xffff8000, d0
          0x0063963c      0c800000ffff   cmpi.l 0xffff, d0
      < 0x00639642      6302           bls.b 0x639646
         0x00639644      4e4f           trap 0xf
      > 0x00639646      0680ffff8000   addi.l 0xffff8000, d0
          0x0063964c      3a00           move.w d0, d5
          0x0063964e      7e00           moveq 0x0, d7
          0x00639650      7c00           moveq 0x0, d6
          0x00639652      7001           moveq 0x1, d0
      > 0x00639654      2d40feae       move.l d0, -0x152(a6)
         0x00639658      5287           addq.l 0x1, d7
         0x0063965a      2207           move.l d7, d1
         0x0063965c      5381           subq.l 0x1, d1
         0x0063965e      0c8100000005   cmpi.l 0x5, d1
     < 0x00639664      6302           bls.b 0x639668
        0x00639666      4e4f           trap 0xf
     > 0x00639668      e381           asl.l 0x1, d1
         0x0063966a      41f900845712   lea.l 0x845712, a0
         0x00639670      554f           subq.w 0x2, a7
         0x00639672      1ebacb47       move.b 0x6361bb(pc), (a7)
         0x00639676      1f7acb440001   move.b 0x6361bc(pc), 0x1(a7)
         0x0063967c      48701874       pea.l 0x74(a0, d1.l)
         0x00639680      3f05           move.w d5, -(a7)
         0x00639682      0480ffff8000   subi.l 0xffff8000, d0
         0x00639688      0c800000ffff   cmpi.l 0xffff, d0
     < 0x0063968e      6302           bls.b 0x639692
        0x00639690      4e4f           trap 0xf
     > 0x00639692      0680ffff8000   addi.l 0xffff8000, d0
         0x00639698      3f00           move.w d0, -(a7)
         0x0063969a      3f3c0001       move.w 0x1, -(a7)
         0x0063969e      3f3c0001       move.w 0x1, -(a7)
         0x006396a2      1f3c0002       move.b 0x2, -(a7)
         0x006396a6      4227           clr.b -(a7)
         0x006396a8      3f390084571c   move.w 0x84571c, -(a7)
         0x006396ae      3f06           move.w d6, -(a7)
         0x006396b0      2f3acb04       move.l 0x6361b6(pc), -(a7)
         0x006396b4      486f0018       pea.l 0x18(a7)
         0x006396b8      48780001       pea.l 0x1
         0x006396bc      48780002       pea.l 0x2
         0x006396c0      4853           pea.l (a3)
         0x006396c2      487ae97e       pea.l PALETCOM.hit_size(pc)
         0x006396c6      4eb900487aa6   jsr MENUCOM.new_box
         0x006396cc      defc002c       adda.w 0x2c, a7
         0x006396d0      3eb01874       move.w 0x74(a0, d1.l), (a7)
         0x006396d4      2f07           move.l d7, -(a7)
         0x006396d6      4eb90048402c   jsr MENUCOM.set_b_id
         0x006396dc      544f           addq.w 0x2, a7
         0x006396de      2e87           move.l d7, (a7)
         0x006396e0      48780000       pea.l 0x0
         0x006396e4      486efed8       pea.l -0x128(a6)
         0x006396e8      3f3c00ff       move.w 0xff, -(a7)
         0x006396ec      4eb900406e56   jsr p_strI1
         0x006396f2      defc000c       adda.w 0xc, a7
         0x006396f6      3eb01874       move.w 0x74(a0, d1.l), (a7)
         0x006396fa      9efc0100       suba.w 0x100, a7
         0x006396fe      7404           moveq 0x4, d2
         0x00639700      43ef0001       lea.l 0x1(a7), a1
         0x00639704      45facab8       lea.l 0x6361be(pc), a2
     > 0x00639708      12da           move.b (a2)+, (a1)+
     < 0x0063970a      51cafffc       dbra d2, 0x639708
         0x0063970e      4242           clr.w d2
         0x00639710      142efed8       move.b -0x128(a6), d2
         0x00639714      5a02           addq.b 0x5, d2
     < 0x00639716      6406           bcc.b 0x63971e
        0x00639718      4eb900406c8a   jsr p_strovr
     > 0x0063971e      4242           clr.w d2
         0x00639720      142efed8       move.b -0x128(a6), d2
         0x00639724      363c00ff       move.w 0xff, d3
         0x00639728      5b43           subq.w 0x5, d3
         0x0063972a      b443           cmp.w d3, d2
     < 0x0063972c      6302           bls.b 0x639730
        0x0063972e      3403           move.w d3, d2
     > 0x00639730      1ebc0005       move.b 0x5, (a7)
         0x00639734      d517           add.b d2, (a7)
         0x00639736      5302           subq.b 0x1, d2
     < 0x00639738      650a           bcs.b 0x639744
        0x0063973a      45eefed9       lea.l -0x127(a6), a2
    > 0x0063973e      12da           move.b (a2)+, (a1)+
    < 0x00639740      51cafffc       dbra d2, 0x63973e
     > 0x00639744      4eb90048442e   jsr MENUCOM.set_box_macro_n
         0x0063974a      defc0102       adda.w 0x102, a7
         0x0063974e      3c301874       move.w 0x74(a0, d1.l), d6
         0x00639752      5280           addq.l 0x1, d0
         0x00639754      0c8000000006   cmpi.l 0x6, d0
      < 0x0063975a      6f00fef8       ble.w 0x639654
          0x0063975e      554f           subq.w 0x2, a7
          0x00639760      1ebaca67       move.b 0x6361c9(pc), (a7)
          0x00639764      1f7aca640001   move.b 0x6361ca(pc), 0x1(a7)
          0x0063976a      487900845794   pea.l 0x845794
          0x00639770      3f3c02ae       move.w 0x2ae, -(a7)
          0x00639774      3f3c0001       move.w 0x1, -(a7)
          0x00639778      3f3c0020       move.w 0x20, -(a7)
          0x0063977c      3f3c0005       move.w 0x5, -(a7)
          0x00639780      1f3c0010       move.b 0x10, -(a7)
          0x00639784      4227           clr.b -(a7)
          0x00639786      3f390084571c   move.w 0x84571c, -(a7)
          0x0063978c      4267           clr.w -(a7)
          0x0063978e      2f3aca34       move.l 0x6361c4(pc), -(a7)
          0x00639792      486f0018       pea.l 0x18(a7)
          0x00639796      48780001       pea.l 0x1
          0x0063979a      48780002       pea.l 0x2
          0x0063979e      4853           pea.l (a3)
          0x006397a0      487ae8a0       pea.l PALETCOM.hit_size(pc)
          0x006397a4      4eb900487aa6   jsr MENUCOM.new_box
          0x006397aa      defc002c       adda.w 0x2c, a7
          0x006397ae      3eb900845794   move.w 0x845794, (a7)
          0x006397b4      9efc0100       suba.w 0x100, a7
          0x006397b8      204f           movea.l a7, a0
          0x006397ba      43faca0f       lea.l 0x6361cb(pc), a1
          0x006397be      700c           moveq 0xc, d0
      > 0x006397c0      10d9           move.b (a1)+, (a0)+
      < 0x006397c2      51c8fffc       dbra d0, 0x6397c0
          0x006397c6      4eb90048442e   jsr MENUCOM.set_box_macro_n
          0x006397cc      defc0100       adda.w 0x100, a7
          0x006397d0      1ebaca07       move.b 0x6361d9(pc), (a7)
          0x006397d4      1f7aca040001   move.b 0x6361da(pc), 0x1(a7)
          0x006397da      487900845792   pea.l 0x845792
          0x006397e0      3f3c02ae       move.w 0x2ae, -(a7)
          0x006397e4      3f3c0006       move.w 0x6, -(a7)
          0x006397e8      3f3c0020       move.w 0x20, -(a7)
          0x006397ec      3f3c0001       move.w 0x1, -(a7)
          0x006397f0      1f3c0008       move.b 0x8, -(a7)
          0x006397f4      4227           clr.b -(a7)
          0x006397f6      3f390084571c   move.w 0x84571c, -(a7)
          0x006397fc      4267           clr.w -(a7)
          0x006397fe      2f3ac8ec       move.l 0x6360ec(pc), -(a7)
          0x00639802      486f0018       pea.l 0x18(a7)
          0x00639806      48780001       pea.l 0x1
          0x0063980a      48780002       pea.l 0x2
          0x0063980e      4853           pea.l (a3)
          0x00639810      487ae830       pea.l PALETCOM.hit_size(pc)
          0x00639814      4eb900487aa6   jsr MENUCOM.new_box
          0x0063981a      defc002c       adda.w 0x2c, a7
          0x0063981e      3eb900845792   move.w 0x845792, (a7)
          0x00639824      9efc0100       suba.w 0x100, a7
          0x00639828      204f           movea.l a7, a0
          0x0063982a      43fac9af       lea.l 0x6361db(pc), a1
          0x0063982e      7008           moveq 0x8, d0
      > 0x00639830      10d9           move.b (a1)+, (a0)+
      < 0x00639832      51c8fffc       dbra d0, 0x639830
          0x00639836      4eb90048442e   jsr MENUCOM.set_box_macro_n
          0x0063983c      defc0100       adda.w 0x100, a7
          0x00639840      3eb900845792   move.w 0x845792, (a7)
          0x00639846      7807           moveq 0x7, d4
          0x00639848      4eb900408686   jsr fcn.00408686
          0x0063984e      2f04           move.l d4, -(a7)
          0x00639850      7801           moveq 0x1, d4
          0x00639852      4eb900408686   jsr fcn.00408686
          0x00639858      2f04           move.l d4, -(a7)
          0x0063985a      7864           moveq 0x64, d4
          0x0063985c      4eb900408686   jsr fcn.00408686
          0x00639862      2f04           move.l d4, -(a7)
          0x00639864      3f3cfffd       move.w 0xfffd, -(a7)
          0x00639868      4267           clr.w -(a7)
          0x0063986a      4eb90048d4ae   jsr MENU2COM.make_numeric_bo
          0x00639870      defc0010       adda.w 0x10, a7
          0x00639874      4217           clr.b (a7)
          0x00639876      4eb900522436   jsr BRUSHCOM.set_write_en
          0x0063987c      544f           addq.w 0x2, a7
          0x0063987e      2f3ac1e4       move.l 0x635a64(pc), -(a7)
          0x00639882      3f3ac1de       move.w 0x635a62(pc), -(a7)
          0x00639886      4eb900520fa4   jsr BRUSHCOM.set_br_colour
          0x0063988c      584f           addq.w 0x4, a7
          0x0063988e      1ebc0002       move.b 0x2, (a7)
          0x00639892      4227           clr.b -(a7)
          0x00639894      514f           subq.w 0x8, a7
          0x00639896      4eb90063399c   jsr HANDCOM.get_palette_are
          0x0063989c      4eb9005213b4   jsr BRUSHCOM.br_wipe
          0x006398a2      defc000a       adda.w 0xa, a7
          0x006398a6      4eb9004755c2   jsr CONFIG.cfg_gender
          0x006398ac      101f           move.b (a7)+, d0
          0x006398ae      0c000003       cmpi.b 0x3, d0
      < 0x006398b2      6712           beq.b 0x6398c6
         0x006398b4      3f390084571c   move.w 0x84571c, -(a7)
         0x006398ba      1f3c0001       move.b 0x1, -(a7)
         0x006398be      4eb900483776   jsr MENUCOM.swtch_box
         0x006398c4      584f           addq.w 0x4, a7
      > 0x006398c6      4ebaf0f6       jsr PALETCOM.fetch_welcome_p(pc)
          0x006398ca      204e           movea.l a6, a0
          0x006398cc      7004           moveq 0x4, d0
      > 0x006398ce      2f20           move.l -(a0), -(a7)
      < 0x006398d0      51c8fffc       dbra d0, 0x6398ce
          0x006398d4      4eb900486a7e   jsr MENUCOM.set_menu_grid
          0x006398da      defc0012       adda.w 0x12, a7
          0x006398de      4257           clr.w (a7)
          0x006398e0      1f3c0012       move.b 0x12, -(a7)
          0x006398e4      4227           clr.b -(a7)
          0x006398e6      4eb900486936   jsr MENUCOM.set_menu_flag
          0x006398ec      584f           addq.w 0x4, a7
          0x006398ee      1ebc0001       move.b 0x1, (a7)
          0x006398f2      4ebad8c2       jsr PALETCOM.do_mode(pc)
          0x006398f6      3eb90084578c   move.w 0x84578c, (a7)
          0x006398fc      4eb9004836a4   jsr MENUCOM.push_box
          0x00639902      544f           addq.w 0x2, a7
          0x00639904      4cdf1fff       movem.l (a7)+, d0-d7/a0-a4
          0x00639908      4e5e           unlk a6
