            ;-- PANEL_STACK:
            0x0077769c      .byte 0x00
            0x0077769d      .byte 0x00
            0x0077769e      .byte 0x00
            0x0077769f      .byte 0x00
            0x007776a0      .byte 0x00
            0x007776a1      .byte 0x00
            0x007776a2      .byte 0x00
            0x007776a3      .byte 0x00
            0x007776a4      .byte 0x00
            0x007776a5      .byte 0x00
            0x007776a6      .byte 0x00
            0x007776a7      .byte 0x88
            0x007776a8      .byte 0x00
            0x007776a9      .byte 0x46
            0x007776aa      .byte 0x00
            0x007776ab      .byte 0xd2
            0x007776ac      .byte 0x00
            0x007776ad      .byte 0x51
            0x007776ae      .byte 0x00
            0x007776af      .byte 0x80
            0x007776b0      .byte 0x00
            0x007776b1      .byte 0x80
            0x007776b2      .byte 0x00
            0x007776b3      .byte 0x3c
            0x007776b4      .byte 0x00
            0x007776b5      .byte 0x80
            0x007776b6      .byte 0x00
            0x007776b7      .byte 0x80
            0x007776b8      .byte 0x00
            0x007776b9      .byte 0x32
            0x007776ba      .byte 0x00
            0x007776bb      .byte 0x80
            0x007776bc      .byte 0x00
            0x007776bd      .byte 0x80
            0x007776be      .byte 0x00
            0x007776bf      .byte 0x10
            0x007776c0      .byte 0x00
            0x007776c1      .byte 0x80
            0x007776c2      .byte 0x00
            0x007776c3      .byte 0x80
            0x007776c4      .byte 0x00
            0x007776c5      .byte 0xa7
            0x007776c6      .byte 0x00
            0x007776c7      .byte 0x72
            0x007776c8      .byte 0x00
            0x007776c9      .byte 0x9e
            0x007776ca      .byte 0x00
            0x007776cb      .byte 0xbf
            0x007776cc      .byte 0x00
            0x007776cd      .byte 0x80
            0x007776ce      .byte 0x00
            0x007776cf      .byte 0x80
            0x007776d0      .byte 0x00
            0x007776d1      .byte 0xa0
            0x007776d2      .byte 0x00
            0x007776d3      .byte 0x96
            0x007776d4      .byte 0x00
            0x007776d5      .byte 0x74
            0x007776d6      .byte 0x00
            0x007776d7      .byte 0x23
            0x007776d8      .byte 0x00
            0x007776d9      .byte 0xf0
            0x007776da      .byte 0x00
            0x007776db      .byte 0x6e
            0x007776dc      .byte 0x00
            0x007776dd      .byte 0x8c
            0x007776de      .byte 0x00
            0x007776df      .byte 0x6e
            0x007776e0      .byte 0x00
            0x007776e1      .byte 0x6e
            0x007776e2      .byte 0x00
            0x007776e3      .byte 0xc4
            0x007776e4      .byte 0x00
            0x007776e5      .byte 0x31
            0x007776e6      .byte 0x00
            0x007776e7      .byte 0x8c
            0x007776e8      .byte 0x00
            0x007776e9      .byte 0xa8
            0x007776ea      .byte 0x00
            0x007776eb      .byte 0x28
            0x007776ec      .byte 0x00
            0x007776ed      .byte 0xb1
            0x007776ee      .byte 0x00
            0x007776ef      .byte 0x00
            0x007776f0      .byte 0x00
            0x007776f1      .byte 0x80
            0x007776f2      .byte 0x00
            0x007776f3      .byte 0x80
            0x007776f4      .byte 0x00
            0x007776f5      .byte 0xff
            0x007776f6      .byte 0x00
            0x007776f7      .byte 0x80
            0x007776f8      .byte 0x00
            0x007776f9      .byte 0x80
            0x007776fa      .byte 0x00
            0x007776fb      .byte 0xcc
            0x007776fc      .byte 0x00
            0x007776fd      .byte 0x80
            0x007776fe      .byte 0x00
            0x007776ff      .byte 0x80
            0x00777700      .byte 0x00
            0x00777701      .byte 0xad
            0x00777702      .byte 0x00
            0x00777703      .byte 0x80
            0x00777704      .byte 0x00
            0x00777705      .byte 0x80
            0x00777706      .byte 0x00
            0x00777707      .byte 0xeb
            0x00777708      .byte 0x00
            0x00777709      .byte 0x80
            0x0077770a      .byte 0x00
            0x0077770b      .byte 0x80
            0x0077770c      .byte 0x00
            0x0077770d      .byte 0x10
            0x0077770e      .byte 0x00
            0x0077770f      .byte 0x80
            0x00777710      .byte 0x00
            0x00777711      .byte 0x80
            0x00777712      .byte 0x00
            0x00777713      .byte 0x80
            0x00777714      .byte 0x00
            0x00777715      .byte 0x80
            0x00777716      .byte 0x00
            0x00777717      .byte 0x80
            0x00777718      .byte 0x00
            0x00777719      .byte 0x51
            0x0077771a      .byte 0x00
            0x0077771b      .byte 0x5a
            0x0077771c      .byte 0x00
            0x0077771d      .byte 0xf0
            0x0077771e      .byte 0x00
            0x0077771f      .byte 0xd2
            0x00777720      .byte 0x00
            0x00777721      .byte 0x10
            0x00777722      .byte 0x00
            0x00777723      .byte 0x92
            0x00777724      .byte 0x00
            0x00777725      .byte 0x29
            0x00777726      .byte 0x00
            0x00777727      .byte 0xf0
            0x00777728      .byte 0x00
            0x00777729      .byte 0x6e
            0x0077772a      .byte 0x00
            0x0077772b      .byte 0x91
            0x0077772c      .byte 0x00
            0x0077772d      .byte 0x36
            0x0077772e      .byte 0x00
            0x0077772f      .byte 0x22
            0x00777730      .byte 0x00
            0x00777731      .byte 0xa2
            0x00777732      .byte 0x00
            0x00777733      .byte 0x2c
            0x00777734      .byte 0x00
            0x00777735      .byte 0x8e
            0x00777736      .byte 0x00
            0x00777737      .byte 0x83
            0x00777738      .byte 0x00
            0x00777739      .byte 0x9c
            0x0077773a      .byte 0x00
            0x0077773b      .byte 0x2c
            0x0077773c      .byte 0x00
            0x0077773d      .byte 0x70
            0x0077773e      .byte 0x00
            0x0077773f      .byte 0x48
            0x00777740      .byte 0x00
            0x00777741      .byte 0x3a
            0x00777742      .byte 0x00
            0x00777743      .byte 0x54
            0x00777744      .byte 0x00
            0x00777745      .byte 0xb8
            0x00777746      .byte 0x00
            0x00777747      .byte 0xc6
            0x00777748      .byte 0x00
            0x00777749      .byte 0x41
            0x0077774a      .byte 0x00
            0x0077774b      .byte 0x64
            0x0077774c      .byte 0x00
            0x0077774d      .byte 0xd4
            0x0077774e      .byte 0x00
            0x0077774f      .byte 0x23
            0x00777750      .byte 0x00
            0x00777751      .byte 0xd4
            0x00777752      .byte 0x00
            0x00777753      .byte 0x72
            0x00777754      .byte 0x00
            0x00777755      .byte 0xd2
            0x00777756      .byte 0x00
            0x00777757      .byte 0x10
            0x00777758      .byte 0x00
            0x00777759      .byte 0x92
            0x0077775a      .byte 0x00
            0x0077775b      .byte 0xaa
            0x0077775c      .byte 0x00
            0x0077775d      .byte 0xa6
            0x0077775e      .byte 0x00
            0x0077775f      .byte 0x10
            0x00777760      .byte 0x00
            0x00777761      .byte 0x91
            0x00777762      .byte 0x00
            0x00777763      .byte 0x36
            0x00777764      .byte 0x00
            0x00777765      .byte 0x22
            0x00777766      .byte 0x00
            0x00777767      .byte 0x6a
            0x00777768      .byte 0x00
            0x00777769      .byte 0xca
            0x0077776a      .byte 0x00
            0x0077776b      .byte 0xde
            0x0077776c      .byte 0x00
            0x0077776d      .byte 0x51
            0x0077776e      .byte 0x00
            0x0077776f      .byte 0x5a
            0x00777770      .byte 0x00
            0x00777771      .byte 0xf0
            0x00777772      .byte 0x00
            0x00777773      .byte 0x29
            0x00777774      .byte 0x00
            0x00777775      .byte 0xf0
            0x00777776      .byte 0x00
            0x00777777      .byte 0x6e
            0x00777778      .byte 0x07
            0x00777779     .string "DEFAULT" ; len=7
            0x00777780      .byte 0xff
            0x00777781      .byte 0xff
            0x00777782      .byte 0xff
            0x00777783      .byte 0xfd
            0x00777784      .byte 0x00
            0x00777785      .byte 0x00
            0x00777786      .byte 0x00
            0x00777787      .byte 0x00
            0x00777788      .byte 0x00
            0x00777789      .byte 0x00
            0x0077778a      .byte 0x00
            0x0077778b      .byte 0x00
            0x0077778c      .byte 0x00
            0x0077778d      .byte 0x00
            0x0077778e      .byte 0x00
            0x0077778f      .byte 0x00
            0x00777790      .byte 0x00
            0x00777791      .byte 0x00
            0x00777792      .byte 0x00
            0x00777793      .byte 0x00
            0x00777794      .byte 0x00
            0x00777795      .byte 0x00
            0x00777796      .byte 0x00
            0x00777797      .byte 0x00
            0x00777798      .byte 0x00
            0x00777799      .byte 0x00
            0x0077779a      .byte 0x06
            0x0077779b     .string "nobody" ; len=6
            0x007777a1      .byte 0x00
            0x007777a2      .byte 0x00
            0x007777a3      .byte 0x00
            0x007777a4      .byte 0x00
            0x007777a5      .byte 0x00
            0x007777a6      .byte 0x00
            0x007777a7      .byte 0x00
            0x007777a8      .byte 0x00
            0x007777a9      .byte 0x02
            0x007777aa      .byte 0x02
            0x007777ab      .byte 0x02
            0x007777ac      .byte 0x02
            0x007777ad      .byte 0x00
            0x007777ae      .byte 0x00
            0x007777af      .byte 0x00
            0x007777b0      .byte 0x00
            0x007777b1      .byte 0x1f
            0x007777b2     .string "Matte - picture & stencil black" ; len=31
            0x007777d1      .byte 0x11
            0x007777d2     .string "Original size/pos" ; len=17
            0x007777e3      .byte 0x0a
            0x007777e4     .string "don't care" ; len=10
            0x007777ee      .byte 0x17
            0x007777ef     .string "#F #N saved at #T on #D" ; len=23
            0x00777806      .byte 0x0f
            0x00777807     .string "Preset position" ; len=15
            0x00777816      .byte 0x2c
            0x00777817     .string "& stencil black;" ; len=16
            0x00777827      .byte 0x0b
            0x00777828     .string "Preset size" ; len=11
            0x00777833      .byte 0x2c
            0x00777834     .string "at #T on #D;" ; len=12
            0x00777840      .byte 0x00
            0x00777841      .byte 0x00
            0x00777842      .byte 0x00
            0x00777843      .byte 0x00
            0x00777844      .byte 0x00
            0x00777845      .byte 0x00
            0x00777846      .byte 0x00
            0x00777847      .byte 0x00
            0x00777848      .byte 0x02
            0x00777849     .string "??" ; len=2
            0x0077784b      .byte 0x29
            0x0077784c     .string "set position,& stencil black;" ; len=29
            0x00777869      .byte 0x1c
            0x0077786a     .string "? error checking mail box - " ; len=28
            0x00777886      .byte 0x16
            0x00777887     .string "error checking mailbox" ; len=22
            0x0077789d      .byte 0x0f
            0x0077789e     .string "new mail (type " ; len=15
            0x007778ad      .byte 0x1d
            0x007778ae     .string ") on picturebox from station " ; len=29
            0x007778cb      .byte 0x09
            0x007778cc     .string ", 1 entry" ; len=9
            0x007778d5      .byte 0x02
            0x007778d6      .byte 0x2c
            0x007778d7      .byte 0x20
            0x007778d8      .byte 0x08
            0x007778d9     .string " entries" ; len=8
            0x007778e1      .byte 0x09
            0x007778e2     .string " received" ; len=9
            0x007778eb      .byte 0x0d
            0x007778ec     .string "from station " ; len=13
            0x007778f9      .byte 0x06
            0x007778fa     .string "stack " ; len=6
            0x00777900      .byte 0x08
            0x00777901     .string "picture " ; len=8
            0x00777909      .byte 0x08
            0x0077790a     .string "stencil " ; len=8
            0x00777912      .byte 0x07
            0x00777913     .string "cutout " ; len=7
            0x0077791a      .byte 0x05
            0x0077791b     .string "mail " ; len=5
            0x00777920      .byte 0x17
            0x00777921     .string " items mailed from stn " ; len=23
            0x00777938      .byte 0x0b
            0x00777939     .string "first item " ; len=11
            0x00777944      .byte 0x25
            0x00777945     .string "? error checking specific mail box - " ; len=37
            0x0077796a      .byte 0x10
            0x0077796b     .string "no mail received" ; len=16
            0x0077797b      .byte 0x00
            0x0077797c      .byte 0x00
            0x0077797d      .byte 0x02
            0x0077797e      .byte 0x20
            0x0077797f      .byte 0x4d
            0x00777980      .byte 0x02
            0x00777981      .byte 0x20
            0x00777982      .byte 0x20
            0x00777983      .byte 0x0d
            0x00777984     .string ", Orig aspect" ; len=13
            0x00777991      .byte 0x06
            0x00777992     .string ",Matte" ; len=6
            0x00777998      .byte 0x0c
            0x00777999     .string ", over Matte" ; len=12
            0x007779a5      .byte 0x01
            0x007779a6      .byte 0x20
            0x007779a7      .byte 0x00
            0x007779a8      .byte 0x09
            0x007779a9      .byte 0x08
            0x007779aa     .string "fade key" ; len=8
            0x007779b2      .byte 0x0a
            0x007779b3     .string "fade video" ; len=10
            0x007779bd      .byte 0x11
            0x007779be     .string ", stack converted" ; len=17
            0x007779cf      .byte 0x0b
            0x007779d0     .string ", stk cvted" ; len=11
            0x007779db      .byte 0x0f
            0x007779dc     .string "sequential @D01" ; len=15
            0x007779eb      .byte 0x11
            0x007779ec     .string ", stack converted" ; len=17
            0x007779fd      .byte 0x11
            0x007779fe     .string ", stack converted" ; len=17
            0x00777a0f      .byte 0x04
            0x00777a10      .byte 0x6c
            0x00777a11      .byte 0x61
            0x00777a12      .byte 0x73
            0x00777a13      .byte 0x74
            0x00777a14      .byte 0x04
            0x00777a15      .byte 0x73
            0x00777a16      .byte 0x74
            0x00777a17      .byte 0x63
            0x00777a18      .byte 0x6b
            0x00777a19      .byte 0x04
            0x00777a1a      .byte 0x6c
            0x00777a1b      .byte 0x6f
            0x00777a1c      .byte 0x61
            0x00777a1d      .byte 0x64
            0x00777a1e      .byte 0x04
            0x00777a1f      .byte 0x20
            0x00777a20      .byte 0x77
            0x00777a21      .byte 0x61
            0x00777a22      .byte 0x73
            0x00777a23      .byte 0x04
            0x00777a24      .byte 0x20
            0x00777a25      .byte 0x6e
            0x00777a26      .byte 0x75
            0x00777a27      .byte 0x6d
            0x00777a28      .byte 0x00
            0x00777a29      .byte 0x00
            0x00777a2a      .byte 0x00
            0x00777a2b      .byte 0x00
            0x00777a2c      .byte 0x19
            0x00777a2d     .string "make_current: setting to " ; len=25
            0x00777a46      .byte 0x08
            0x00777a47     .string "? what ?" ; len=8
            0x00777a4f      .byte 0x0c
            0x00777a50     .string "don't care !" ; len=12
            0x00777a5c      .byte 0x02
            0x00777a5d      .byte 0x02
            0x00777a5e      .byte 0x02
            0x00777a5f      .byte 0x02
            0x00777a60      .byte 0x00
            0x00777a61      .byte 0x00
            0x00777a62      .byte 0x00
            0x00777a63      .byte 0x00
            0x00777a64     .string "$make_editonly: dont care setting to " ; len=37
            0x00777a89      .byte 0x15
            0x00777a8a     .string "Setting Crnt to FADE " ; len=21
            0x00777a9f      .byte 0x08
            0x00777aa0     .string " fields." ; len=8
            0x00777aa8      .byte 0x14
            0x00777aa9     .string "Setting Crnt to ALT " ; len=20
            0x00777abd      .byte 0x1f
            0x00777abe     .string "? not setting sequence as bad: " ; len=31
            0x00777add      .byte 0x1a
            0x00777ade     .string "Setting Crnt to DONT CARE " ; len=26
            0x00777af8      .byte 0x2b
            0x00777af9     .string "? cannot set Crnt from unknown output type " ; len=43
            0x00777b24      .byte 0x5a
            0x00777b25      .byte 0x03
            0x00777b26      .byte 0x0d
            0x00777b27     .string "Last_entry = " ; len=13
            0x00777b34      .byte 0x5a
            0x00777b35      .byte 0x03
            0x00777b36      .byte 0x04
            0x00777b37      .byte 0x5f
            0x00777b38      .byte 0x5f
            0x00777b39      .byte 0x5f
            0x00777b3a      .byte 0x5f
            0x00777b3b      .byte 0x04
            0x00777b3c      .byte 0x2b
            0x00777b3d      .byte 0x2b
            0x00777b3e      .byte 0x2b
            0x00777b3f      .byte 0x2b
            0x00777b40      .byte 0x1d
            0x00777b41     .string "next entry in saved stack is " ; len=29
            0x00777b5e      .byte 0x04
            0x00777b5f      .byte 0x6d
            0x00777b60      .byte 0x6f
            0x00777b61      .byte 0x72
            0x00777b62      .byte 0x65
            0x00777b63      .byte 0x04
            0x00777b64      .byte 0x20
            0x00777b65      .byte 0x20
            0x00777b66      .byte 0x20
            0x00777b67      .byte 0x20
            0x00777b68      .byte 0x06
            0x00777b69      .byte 0x04
            0x00777b6a      .byte 0x77
            0x00777b6b      .byte 0x69
            0x00777b6c      .byte 0x70
            0x00777b6d      .byte 0x65
            0x00777b6e      .byte 0x02
            0x00777b6f      .byte 0x20
            0x00777b70      .byte 0x4d
            0x00777b71      .byte 0x04
            0x00777b72      .byte 0x77
            0x00777b73      .byte 0x6f
            0x00777b74      .byte 0x74
            0x00777b75      .byte 0x3f
            0x00777b76      .byte 0x0d
            0x00777b77     .string "PUSHing stack" ; len=13
            0x00777b84      .byte 0x2c
            0x00777b85     .string "? serious error, no heap space for new stack" ; len=44
            0x00777bb1      .byte 0x00
            0x00777bb2      .byte 0x00
            0x00777bb3      .byte 0x00
            0x00777bb4      .byte 0x00
            0x00777bb5      .byte 0x00
            0x00777bb6     .string "2? too many saved stacks: not saving previous stack" ; len=51
            0x00777be9      .byte 0x0d
            0x00777bea     .string "PULLing stack" ; len=13
            0x00777bf7      .byte 0x07
            0x00777bf8     .string " frozen" ; len=7
            0x00777bff      .byte 0x05
            0x00777c00     .string " live" ; len=5
            0x00777c05      .byte 0x0e
            0x00777c06     .string " - not present" ; len=14
            0x00777c14      .byte 0x09
            0x00777c15     .string "TOS ready" ; len=9
            0x00777c1e      .byte 0x26
            0x00777c1f     .string "Prefetch store empty - Waiting for TOS" ; len=38
            0x00777c45      .byte 0x25
            0x00777c46     .string "Waited for top of stack to no avail !" ; len=37
            0x00777c6b      .byte 0x1e
            0x00777c6c     .string "Got top of stack after waiting" ; len=30
            0x00777c8a      .byte 0x18
            0x00777c8b     .string "bad file in number table" ; len=24
            0x00777ca3      .byte 0x1c
            0x00777ca4     .string "picture mail not arrived yet" ; len=28
            0x00777cc0      .byte 0x0a
            0x00777cc1     .string "Pre_fetch:" ; len=10
            0x00777ccb      .byte 0x00
            0x00777ccc      .byte 0x00
            0x00777ccd     .string "#? Serious error: No picture to TAKE.pre_fetch: Stamping picture into preview store" ; len=83
            0x00777d20      .byte 0x13
            0x00777d21     .string "P_F: Crnt.preset = " ; len=19
            0x00777d34      .byte 0x0d
            0x00777d35     .string "Auto_matte = " ; len=13
            0x00777d42      .byte 0x20
            0x00777d43     .string " saved pvw prefetch, tgt_dest = " ; len=32
            0x00777d63      .byte 0x09
            0x00777d64     .string "  ref pt " ; len=9
            0x00777d6d      .byte 0x0b
            0x00777d6e     .string " stamp done" ; len=11
            0x00777d79      .byte 0x19
            0x00777d7a     .string "prefetched fade picture /" ; len=25
            0x00777d93      .byte 0x18
            0x00777d94     .string "prefetched alt picture /" ; len=24
            0x00777dac      .byte 0x28
            0x00777dad     .string "dont know what to do with a don't care !" ; len=40
            0x00777dd5      .byte 0x10
            0x00777dd6     .string "get stack title " ; len=16
            0x00777de6      .byte 0x19
            0x00777de7     .string "Next stack entry is empty" ; len=25
            0x00777e00      .byte 0x0f
            0x00777e01     .string "Prefetched wipe" ; len=15
            0x00777e10      .byte 0x11
            0x00777e11     .string "Prefetched preset" ; len=17
            0x00777e22      .byte 0x0b
            0x00777e23     .string "Pre_fetch: " ; len=11
            0x00777e2e      .byte 0x02
            0x00777e2f      .byte 0x02
            0x00777e30      .byte 0x04
            0x00777e31      .byte 0x01
            0x00777e32      .byte 0x00
            0x00777e33      .byte 0x00
            0x00777e34      .byte 0x14
            0x00777e35     .string "using panel counter " ; len=20
            0x00777e49      .byte 0x14
            0x00777e4a     .string "using stack counter " ; len=20
            0x00777e5e      .byte 0x0c
            0x00777e5f     .string "digit pushed" ; len=12
            0x00777e6b      .byte 0x0f
            0x00777e6c     .string "No digit pushed" ; len=15
            0x00777e7b      .byte 0x0b
            0x00777e7c     .string "? Warning: " ; len=11
            0x00777e87      .byte 0x0f
            0x00777e88     .string " illegal store " ; len=15
            0x00777e97      .byte 0x0c
            0x00777e98     .string ", Sequence: " ; len=12
            0x00777ea4      .byte 0x0f
            0x00777ea5     .string "bad output @D01" ; len=15
            0x00777eb4      .byte 0x17
            0x00777eb5     .string "Taketoair: output mode " ; len=23
            0x00777ecc      .byte 0x04
            0x00777ecd      .byte 0x46
            0x00777ece      .byte 0x41
            0x00777ecf      .byte 0x44
            0x00777ed0      .byte 0x45
            0x00777ed1      .byte 0x09
            0x00777ed2     .string "ALTERNATE" ; len=9
            0x00777edb      .byte 0x0a
            0x00777edc     .string "DON'T CARE" ; len=10
            0x00777ee6      .byte 0x07
            0x00777ee7     .string "UNKNOWN" ; len=7
            0x00777eee      .byte 0x26
            0x00777eef     .string "Setting stack counter to Crnt counter " ; len=38
            0x00777f15      .byte 0x06
            0x00777f16     .string ", was " ; len=6
            0x00777f1c      .byte 0x02
            0x00777f1d      .byte 0x02
            0x00777f1e      .byte 0x15
            0x00777f1f     .string "take sees tgt_dest = " ; len=21
            0x00777f34      .byte 0x09
            0x00777f35     .string "  ref pt " ; len=9
            0x00777f3e      .byte 0x11
            0x00777f3f     .string "passing new area " ; len=17
            0x00777f50      .byte 0x1a
            0x00777f51      .byte 0x02
            0x00777f52      .byte 0x0f
            0x00777f53     .string "Taking to air /" ; len=15
            0x00777f62      .byte 0x0f
            0x00777f63     .string "taking pictures" ; len=15
            0x00777f72      .byte 0x06
            0x00777f73     .string "wiping" ; len=6
            0x00777f79      .byte 0x1d
            0x00777f7a     .string "alt: cannot take to air type " ; len=29
            0x00777f97      .byte 0x1e
            0x00777f98     .string "I don't care to take it to air" ; len=30
            0x00777fb6      .byte 0x00
            0x00777fb7     .string " incrementing Crnt sequence count(incrementing stack & Crnt sequence count" ; len=74
            0x00778001      .byte 0x1e
            0x00778002     .string "Prefetch_early: first entries " ; len=30
            0x00778020      .byte 0x06
            0x00778021     .string ", and " ; len=6
            0x00778027      .byte 0x00
            0x00778028      .byte 0x5a
            0x00778029      .byte 0x02
            0x0077802a      .byte 0x1a
            0x0077802b      .byte 0x02
            0x0077802c      .byte 0x08
            0x0077802d     .string "prefetch" ; len=8
            0x00778035      .byte 0x04
            0x00778036      .byte 0x20
            0x00778037      .byte 0x4e
            0x00778038      .byte 0x4f
            0x00778039      .byte 0x54
            0x0077803a      .byte 0x0e
            0x0077803b     .string " required, and" ; len=14
            0x00778049      .byte 0x04
            0x0077804a      .byte 0x20
            0x0077804b      .byte 0x4e
            0x0077804c      .byte 0x4f
            0x0077804d      .byte 0x54
            0x0077804e      .byte 0x08
            0x0077804f     .string " aquired" ; len=8
            0x00778057      .byte 0x14
            0x00778058     .string "Item alternate mode " ; len=20
            0x0077806c      .byte 0x0b
            0x0077806d     .string "Items UnC: " ; len=11
            0x00778078      .byte 0x04
            0x00778079      .byte 0x2c
            0x0077807a      .byte 0x20
            0x0077807b      .byte 0x43
            0x0077807c      .byte 0x3a
            0x0077807d      .byte 0x0a
            0x0077807e     .string "Condition " ; len=10
            0x00778088      .byte 0x37
            0x00778089     .string "This entry ALT, next entry ALT and cutout or preset etc" ; len=55
            0x007780c0      .byte 0x24
            0x007780c1     .string "Nothing interesting coming up (item " ; len=36
            0x007780e5      .byte 0x19
            0x007780e6     .string ") so treating as separate" ; len=25
            0x007780ff      .byte 0x1f
            0x00778100     .string "Search for a stack from number " ; len=31
            0x0077811f      .byte 0x0b
            0x00778120     .string " - got one " ; len=11
            0x0077812b      .byte 0x14
            0x0077812c     .string " - couldn't find one" ; len=20
            0x00778140      .byte 0x5a
            0x00778141      .byte 0x06
            0x00778142      .byte 0x1f
            0x00778143     .string "Just inserted item - will fetch" ; len=31
            0x00778162      .byte 0x26
            0x00778163     .string "null or dunno entry, ripple stack by 1" ; len=38
            0x00778189      .byte 0x10
            0x0077818a     .string "Null stack entry" ; len=16
            0x0077819a      .byte 0x00
            0x0077819b      .byte 0x0b
            0x0077819c     .string "just taken " ; len=11
            0x007781a7      .byte 0x1f
            0x007781a8     .string "NOT incrementing sequence count" ; len=31
            0x007781c7      .byte 0x24
            0x007781c8     .string "NOT prefetched so cannot TAKE to air" ; len=36
            0x007781ec      .byte 0x0a
            0x007781ed     .string "Can't take" ; len=10
            0x007781f7      .byte 0x16
            0x007781f8     .string "recue clip from frame " ; len=22
            0x0077820e      .byte 0x18
            0x0077820f     .string "TAKEing a stack directly" ; len=24
            0x00778227      .byte 0x22
            0x00778228     .string "Pushing stack and fetching new one" ; len=34
            0x0077824a      .byte 0x18
            0x0077824b     .string "? failed to fetch stack " ; len=24
            0x00778263      .byte 0x18
            0x00778264     .string "Fetching whole new stack" ; len=24
            0x0077827c      .byte 0x00
            0x0077827d      .byte 0x00
            0x0077827e      .byte 0x08
            0x0077827f      .byte 0x01
            0x00778280      .byte 0x02
            0x00778281      .byte 0x02
            0x00778282      .byte 0x14
            0x00778283     .string "going for next item " ; len=20
            0x00778297      .byte 0x0a
            0x00778298     .string " from wipe" ; len=10
            0x007782a2      .byte 0x00
            0x007782a3      .byte 0x0b
            0x007782a4     .string "set preset " ; len=11
            0x007782af      .byte 0x04
            0x007782b0      .byte 0x70
            0x007782b1      .byte 0x6f
            0x007782b2      .byte 0x73
            0x007782b3      .byte 0x20
            0x007782b4      .byte 0x05
            0x007782b5     .string "size " ; len=5
            0x007782ba      .byte 0x02
            0x007782bb      .byte 0x2c
            0x007782bc      .byte 0x20
            0x007782bd      .byte 0x12
            0x007782be     .string "?? set preset d = " ; len=18
            0x007782d0      .byte 0x07
            0x007782d1     .string " Matte " ; len=7
            0x007782d8      .byte 0x18
            0x007782d9      .byte 0x00
            0x007782da      .byte 0x02
            0x007782db      .byte 0x02
            0x007782dc      .byte 0x14
            0x007782dd     .string "going for next item " ; len=20
            0x007782f1      .byte 0x15
            0x007782f2     .string " from preset position" ; len=21
            0x00778307      .byte 0x22
            0x00778308     .string "? TAKE don't know what to do with " ; len=34
            0x0077832a      .byte 0x2a
            0x0077832b     .string "get prefetch for next_on_air in loop_round" ; len=42
            0x00778355      .byte 0x1c
            0x00778356     .string "Couldn't get next on air (1)" ; len=28
            0x00778372      .byte 0x11
            0x00778373     .string "look ahead..type " ; len=17
            0x00778384      .byte 0x1b
            0x00778385     .string "$dunno entry next in stack " ; len=27
            0x007783a0      .byte 0x1c
            0x007783a1     .string "newly discovered entry type " ; len=28
            0x007783bd      .byte 0x1e
            0x007783be     .string "stack rippled into next window" ; len=30
            0x007783dc      .byte 0x18
            0x007783dd     .string "Fetching whole new stack" ; len=24
            0x007783f5      .byte 0x28
            0x007783f6     .string "cur stack is empty - moving down a level" ; len=40
            0x0077841e      .byte 0x08
            0x0077841f      .byte 0x01
            0x00778420      .byte 0x02
            0x00778421      .byte 0x02
            0x00778422      .byte 0x27
            0x00778423     .string "Leaving prewipe look ahead with expand " ; len=39
            0x0077844a      .byte 0x18
            0x0077844b     .string "look ahead found preset " ; len=24
            0x00778463      .byte 0x26
            0x00778464     .string "Leaving preset look ahead with expand " ; len=38
            0x0077848a      .byte 0x1c
            0x0077848b     .string "get prefetch for next_on_air" ; len=28
            0x007784a7      .byte 0x1c
            0x007784a8     .string "Couldn't get next on air (3)" ; len=28
            0x007784c4      .byte 0x31
            0x007784c5     .string "next item going to output 0 using panel counter (" ; len=49
            0x007784f6      .byte 0x21
            0x007784f7     .string "forcing to start of sequence o/p " ; len=33
            0x00778518      .byte 0x4e
            0x00778519     .string "next item going to output 0 using stack counter, forcing to start of sequence " ; len=78
            0x00778567      .byte 0x25
            0x00778568     .string "Couldn't prefetch after backward take" ; len=37
            0x0077858d      .byte 0x11
            0x0077858e     .string "Nothing to recall" ; len=17
            0x0077859f      .byte 0x0a
            0x007785a0     .string "Lastentry " ; len=10
            0x007785aa      .byte 0x04
            0x007785ab      .byte 0x77
            0x007785ac      .byte 0x61
            0x007785ad      .byte 0x69
            0x007785ae      .byte 0x74
            0x007785af      .byte 0x1e
            0x007785b0     .string "recording stack to shared exch" ; len=30
            0x007785ce      .byte 0x1e
            0x007785cf     .string "recording stack to shared disk" ; len=30
            0x007785ed      .byte 0x1b
            0x007785ee     .string "recording stack to net exch" ; len=27
            0x00778609      .byte 0x1b
            0x0077860a     .string "recording stack to net disk" ; len=27
            0x00778625      .byte 0x1c
            0x00778626     .string "recording stack to exch disk" ; len=28
            0x00778642      .byte 0x0f
            0x00778643     .string "recording stack" ; len=15
            0x00778652      .byte 0x18
            0x00778653     .string "saving stack from entry " ; len=24
            0x0077866b      .byte 0x1e
            0x0077866c     .string "S @D03 recorded to shared exch" ; len=30
            0x0077868a      .byte 0x1e
            0x0077868b     .string "S @D03 recorded to shared disk" ; len=30
            0x007786a9      .byte 0x1c
            0x007786aa     .string "S @D03 recorded to exch disk" ; len=28
            0x007786c6      .byte 0x0f
            0x007786c7     .string "S @D03 recorded" ; len=15
            0x007786d6      .byte 0x24
            0x007786d7     .string "? failed to deindex file after error" ; len=36
            0x007786fb      .byte 0x13
            0x007786fc     .string "Not setting preset!" ; len=19
            0x0077870f      .byte 0x00
            0x00778710      .byte 0xfc
            0x00778711      .byte 0x03
            0x00778712      .byte 0x00
            0x00778713      .byte 0x00
            0x00778714      .byte 0x00
            0x00778715      .byte 0x00
            0x00778716      .byte 0x00
            0x00778717      .byte 0x00
            0x00778718      .byte 0x00
            0x00778719      .byte 0x00
            0x0077871a      .byte 0x00
            0x0077871b      .byte 0x00
            0x0077871c      .byte 0x00
            0x0077871d      .byte 0x00
            0x0077871e      .byte 0x00
            0x0077871f      .byte 0x00
            0x00778720      .byte 0x00
            0x00778721      .byte 0x00
            0x00778722      .byte 0x00
            0x00778723      .byte 0x00
            0x00778724      .byte 0x00
            0x00778725      .byte 0x00
            0x00778726      .byte 0x00
            0x00778727      .byte 0x00
            0x00778728      .byte 0x00
            0x00778729      .byte 0x00
            0x0077872a      .byte 0x00
            0x0077872b      .byte 0x00
            0x0077872c      .byte 0x00
            0x0077872d      .byte 0x00
            0x0077872e      .byte 0x00
            0x0077872f      .byte 0x00
            0x00778730      .byte 0x04
            0x00778731      .byte 0x20
            0x00778732      .byte 0x73
            0x00778733      .byte 0x65
            0x00778734      .byte 0x74
            0x00778735      .byte 0x00
            0x00778736      .byte 0xfe
            0x00778737      .byte 0x03
            0x00778738      .byte 0x00
            0x00778739      .byte 0x00
            0x0077873a      .byte 0x00
            0x0077873b      .byte 0x00
            0x0077873c      .byte 0x00
            0x0077873d      .byte 0x00
            0x0077873e      .byte 0x00
            0x0077873f      .byte 0x00
            0x00778740      .byte 0x00
            0x00778741      .byte 0x00
            0x00778742      .byte 0x00
            0x00778743      .byte 0x00
            0x00778744      .byte 0x00
            0x00778745      .byte 0x00
            0x00778746      .byte 0x00
            0x00778747      .byte 0x00
            0x00778748      .byte 0x00
            0x00778749      .byte 0x00
            0x0077874a      .byte 0x00
            0x0077874b      .byte 0x00
            0x0077874c      .byte 0x00
            0x0077874d      .byte 0x00
            0x0077874e      .byte 0x00
            0x0077874f      .byte 0x00
            0x00778750      .byte 0x00
            0x00778751      .byte 0x00
            0x00778752      .byte 0x00
            0x00778753      .byte 0x00
            0x00778754      .byte 0x00
            0x00778755      .byte 0x00
            0x00778756      .byte 0x04
            0x00778757      .byte 0x70
            0x00778758      .byte 0x69
            0x00778759      .byte 0x63
            0x0077875a      .byte 0x20
            0x0077875b      .byte 0x05
            0x0077875c     .string "sten " ; len=5
            0x00778761      .byte 0x07
            0x00778762     .string "cutout " ; len=7
            0x00778769      .byte 0x05
            0x0077876a     .string "exch " ; len=5
            0x0077876f      .byte 0x01
            0x00778770      .byte 0x20
            0x00778771      .byte 0x0a
            0x00778772     .string "recording " ; len=10
            0x0077877c      .byte 0x03
            0x0077877d      .byte 0x74
            0x0077877e      .byte 0x6f
            0x0077877f      .byte 0x20
            0x00778780      .byte 0x0d
            0x00778781     .string "created file " ; len=13
            0x0077878e      .byte 0x1d
            0x0077878f     .string "Failed to number picture @D01" ; len=29
            0x007787ac      .byte 0x38
            0x007787ad     .string "? failed to remove number from bitmap after number fail " ; len=56
            0x007787e5      .byte 0x09
            0x007787e6     .string "numbered " ; len=9
            0x007787ef      .byte 0x0d
            0x007787f0     .string "record failed" ; len=13
            0x007787fd      .byte 0x16
            0x007787fe     .string "failed to free number " ; len=22
            0x00778814      .byte 0x10
            0x00778815     .string "after bad record" ; len=16
            0x00778825      .byte 0x04
            0x00778826      .byte 0x40
            0x00778827      .byte 0x44
            0x00778828      .byte 0x30
            0x00778829      .byte 0x32
            0x0077882a      .byte 0x09
            0x0077882b     .string " recorded" ; len=9
            0x00778834      .byte 0x00
            0x00778835     .string "+? panel.do_record: failed to get crnt owner8? panel.do_record: failed to set crnt owner for picture " ; len=101
            0x0077889a      .byte 0x17
            0x0077889b     .string "? failed to index file " ; len=23
            0x007788b2      .byte 0x24
            0x007788b3     .string "? failed to deindex file after error" ; len=36
            0x007788d7      .byte 0x19
            0x007788d8     .string "? failed to deindex file " ; len=25
            0x007788f1      .byte 0x1e
            0x007788f2     .string "? failed to delete stack file " ; len=30
            0x00778910      .byte 0x1d
            0x00778911     .string "S@D03 erased from shared exch" ; len=29
            0x0077892e      .byte 0x1d
            0x0077892f     .string "S@D03 erased from shared disk" ; len=29
            0x0077894c      .byte 0x1b
            0x0077894d     .string "S@D03 erased from exch disk" ; len=27
            0x00778968      .byte 0x0c
            0x00778969     .string "S@D03 erased" ; len=12
            0x00778975      .byte 0x19
            0x00778976     .string "? failed to deindex file " ; len=25
            0x0077898f      .byte 0x1e
            0x00778990     .string "someone else has item nunbered" ; len=30
            0x007789ae      .byte 0x1c
            0x007789af     .string "@D04 erased from shared exch" ; len=28
            0x007789cb      .byte 0x1c
            0x007789cc     .string "@D04 erased from shared disk" ; len=28
            0x007789e8      .byte 0x1a
            0x007789e9     .string "@D04 erased from exch disk" ; len=26
            0x00778a03      .byte 0x0b
            0x00778a04     .string "@D04 erased" ; len=11
            0x00778a0f      .byte 0x20
            0x00778a10     .string "Extracted move values from entry" ; len=32
            0x00778a30      .byte 0x5a
            0x00778a31      .byte 0x06
            0x00778a32      .byte 0x0e
            0x00778a33     .string "set entry num " ; len=14
            0x00778a41      .byte 0x09
            0x00778a42     .string " to fade " ; len=9
            0x00778a4b      .byte 0x00
            0x00778a4c      .byte 0x5a
            0x00778a4d      .byte 0x06
            0x00778a4e      .byte 0x0e
            0x00778a4f     .string "set entry num " ; len=14
            0x00778a5d      .byte 0x08
            0x00778a5e     .string " to seq " ; len=8
            0x00778a66      .byte 0x11
            0x00778a67     .string "bad sequence @D01" ; len=17
            0x00778a78      .byte 0x0b
            0x00778a79     .string "enter item " ; len=11
            0x00778a84      .byte 0x0b
            0x00778a85     .string " in window " ; len=11
            0x00778a90      .byte 0x09
            0x00778a91     .string " region: " ; len=9
            0x00778a9a      .byte 0x12
            0x00778a9b     .string "Couldn't prefetch " ; len=18
            0x00778aad      .byte 0x06
            0x00778aae     .string " item " ; len=6
            0x00778ab4      .byte 0x03
            0x00778ab5      .byte 0x42
            0x00778ab6      .byte 0x41
            0x00778ab7      .byte 0x44
            0x00778ab8      .byte 0x03
            0x00778ab9      .byte 0x00
            0x00778aba      .byte 0x00
            0x00778abb      .byte 0x00
            0x00778abc      .byte 0x00
            0x00778abd      .byte 0x00
            0x00778abe      .byte 0x00
            0x00778abf      .byte 0x00
            0x00778ac0      .byte 0x00
            0x00778ac1      .byte 0x00
            0x00778ac2      .byte 0x00
            0x00778ac3      .byte 0x00
            0x00778ac4      .byte 0x00
            0x00778ac5      .byte 0x00
            0x00778ac6      .byte 0x00
            0x00778ac7      .byte 0x00
            0x00778ac8      .byte 0x00
            0x00778ac9      .byte 0x00
            0x00778aca      .byte 0x00
            0x00778acb      .byte 0x00
            0x00778acc      .byte 0x00
            0x00778acd      .byte 0x00
            0x00778ace      .byte 0x00
            0x00778acf      .byte 0x00
            0x00778ad0      .byte 0x00
            0x00778ad1      .byte 0x00
            0x00778ad2      .byte 0x00
            0x00778ad3      .byte 0x00
            0x00778ad4      .byte 0x00
            0x00778ad5      .byte 0x00
            0x00778ad6      .byte 0x00
            0x00778ad7      .byte 0x00
            0x00778ad8      .byte 0x0a
            0x00778ad9     .string "do_window " ; len=10
            0x00778ae3      .byte 0x00
            0x00778ae4      .byte 0x00
            0x00778ae5      .byte 0x00
            0x00778ae6      .byte 0x01
            0x00778ae7      .byte 0x2c
            0x00778ae8      .byte 0x05
            0x00778ae9     .string " bdr " ; len=5
            0x00778aee      .byte 0x0d
            0x00778aef     .string "sequence @D01" ; len=13
            0x00778afc      .byte 0x4a
            0x00778afd      .byte 0x02
            0x00778afe      .byte 0x00
            0x00778aff      .byte 0x0f
            0x00778b00     .string ", prewipe black" ; len=15
            0x00778b0f      .byte 0x0f
            0x00778b10     .string "prewipe to @D01" ; len=15
            0x00778b1f      .byte 0x01
            0x00778b20      .byte 0x2d
            0x00778b21      .byte 0x00
            0x00778b22      .byte 0x10
            0x00778b23     .string "get stack title " ; len=16
            0x00778b33      .byte 0x00
            0x00778b34      .byte 0x00
            0x00778b35      .byte 0x01
            0x00778b36      .byte 0x2d
            0x00778b37      .byte 0x00
            0x00778b38      .byte 0x00
            0x00778b39      .byte 0x00
            0x00778b3a      .byte 0x19
            0x00778b3b     .string "Don't know what this is !" ; len=25
            0x00778b54      .byte 0x00
            0x00778b55      .byte 0x00
            0x00778b56      .byte 0x07
            0x00778b57     .string "Failed " ; len=7
            0x00778b5e      .byte 0x06
            0x00778b5f     .string " item " ; len=6
            0x00778b65      .byte 0x00
            0x00778b66      .byte 0x00
            0x00778b67      .byte 0x00
            0x00778b68      .byte 0x11
            0x00778b69     .string "Couldn't prefetch" ; len=17
            0x00778b7a      .byte 0x03
            0x00778b7b      .byte 0x42
            0x00778b7c      .byte 0x41
            0x00778b7d      .byte 0x44
            0x00778b7e      .byte 0x1b
            0x00778b7f     .string "? need to show_temp here ??" ; len=27
            0x00778b9a      .byte 0x03
            0x00778b9b      .byte 0x00
            0x00778b9c      .byte 0x00
            0x00778b9d      .byte 0x00
            0x00778b9e      .byte 0x00
            0x00778b9f      .byte 0x00
            0x00778ba0      .byte 0x00
            0x00778ba1      .byte 0x00
            0x00778ba2      .byte 0x00
            0x00778ba3      .byte 0x00
            0x00778ba4      .byte 0x00
            0x00778ba5      .byte 0x00
            0x00778ba6      .byte 0x00
            0x00778ba7      .byte 0x00
            0x00778ba8      .byte 0x00
            0x00778ba9      .byte 0x00
            0x00778baa      .byte 0x00
            0x00778bab      .byte 0x00
            0x00778bac      .byte 0x00
            0x00778bad      .byte 0x00
            0x00778bae      .byte 0x00
            0x00778baf      .byte 0x00
            0x00778bb0      .byte 0x00
            0x00778bb1      .byte 0x00
            0x00778bb2      .byte 0x00
            0x00778bb3      .byte 0x00
            0x00778bb4      .byte 0x00
            0x00778bb5      .byte 0x00
            0x00778bb6      .byte 0x00
            0x00778bb7      .byte 0x00
            0x00778bb8      .byte 0x00
            0x00778bb9      .byte 0x00
            0x00778bba      .byte 0x04
            0x00778bbb      .byte 0x01
            0x00778bbc      .byte 0x00
            0x00778bbd      .byte 0x00
            0x00778bbe      .byte 0xfe
            0x00778bbf      .byte 0x03
            0x00778bc0      .byte 0x00
            0x00778bc1      .byte 0x00
            0x00778bc2      .byte 0x00
            0x00778bc3      .byte 0x00
            0x00778bc4      .byte 0x00
            0x00778bc5      .byte 0x00
            0x00778bc6      .byte 0x00
            0x00778bc7      .byte 0x00
            0x00778bc8      .byte 0x00
            0x00778bc9      .byte 0x00
            0x00778bca      .byte 0x00
            0x00778bcb      .byte 0x00
            0x00778bcc      .byte 0x00
            0x00778bcd      .byte 0x00
            0x00778bce      .byte 0x00
            0x00778bcf      .byte 0x00
            0x00778bd0      .byte 0x00
            0x00778bd1      .byte 0x00
            0x00778bd2      .byte 0x00
            0x00778bd3      .byte 0x00
            0x00778bd4      .byte 0x00
            0x00778bd5      .byte 0x00
            0x00778bd6      .byte 0x00
            0x00778bd7      .byte 0x00
            0x00778bd8      .byte 0x00
            0x00778bd9      .byte 0x00
            0x00778bda      .byte 0x00
            0x00778bdb      .byte 0x00
            0x00778bdc      .byte 0x00
            0x00778bdd      .byte 0x00
            0x00778bde      .byte 0x14
            0x00778bdf     .string "D presets for entry " ; len=20
            0x00778bf3      .byte 0x17
            0x00778bf4     .string "no file in number table" ; len=23
            0x00778c0b      .byte 0x19
            0x00778c0c     .string "picture mail not here yet" ; len=25
            0x00778c25      .byte 0x00
            0x00778c26      .byte 0x0a
            0x00778c27      .byte 0x00
            0x00778c28      .byte 0x0f
            0x00778c29     .string "no input option" ; len=15
            0x00778c38      .byte 0x08
            0x00778c39     .string "grabbing" ; len=8
            0x00778c41      .byte 0x05
            0x00778c42     .string "G@D03" ; len=5
            0x00778c47      .byte 0x0f
            0x00778c48     .string "no input option" ; len=15
            0x00778c57      .byte 0x16
            0x00778c58     .string "clearing grab buffer.." ; len=22
            0x00778c6e      .byte 0x02
            0x00778c6f      .byte 0x6f
            0x00778c70      .byte 0x6b
            0x00778c71      .byte 0x0f
            0x00778c72     .string "no input option" ; len=15
            0x00778c81      .byte 0x11
            0x00778c82     .string "Grab buffer empty" ; len=17
            0x00778c93      .byte 0x05
            0x00778c94     .string "G@D03" ; len=5
            0x00778c99      .byte 0x0c
            0x00778c9a     .string "grab picture" ; len=12
            0x00778ca6      .byte 0x0f
            0x00778ca7     .string "no input option" ; len=15
            0x00778cb6      .byte 0x0f
            0x00778cb7     .string "no input option" ; len=15
            0x00778cc6      .byte 0x1b
            0x00778cc7     .string "Input video, record Picture" ; len=27
            0x00778ce2      .byte 0x19
            0x00778ce3     .string "Input key, record Stencil" ; len=25
            0x00778cfc      .byte 0x1e
            0x00778cfd     .string "Input video+key, record Cutout" ; len=30
            0x00778d1b      .byte 0x19
            0x00778d1c     .string "unknown input/record type" ; len=25
            0x00778d35      .byte 0x0f
            0x00778d36     .string "no input option" ; len=15
            0x00778d45      .byte 0x04
            0x00778d46      .byte 0x6e
            0x00778d47      .byte 0x75
            0x00778d48      .byte 0x6d
            0x00778d49      .byte 0x20
            0x00778d4a      .byte 0x06
            0x00778d4b      .byte 0x00
            0x00778d4c      .byte 0x00
            0x00778d4d      .byte 0x00
            0x00778d4e      .byte 0x00
            0x00778d4f      .byte 0x00
            0x00778d50      .byte 0x00
            0x00778d51      .byte 0x00
            0x00778d52      .byte 0x00
            0x00778d53      .byte 0x00
            0x00778d54      .byte 0x00
            0x00778d55      .byte 0x00
            0x00778d56      .byte 0x00
            0x00778d57      .byte 0x00
            0x00778d58      .byte 0x00
            0x00778d59      .byte 0x00
            0x00778d5a      .byte 0x00
            0x00778d5b      .byte 0x00
            0x00778d5c      .byte 0x00
            0x00778d5d      .byte 0x00
            0x00778d5e      .byte 0x00
            0x00778d5f      .byte 0x00
            0x00778d60      .byte 0x00
            0x00778d61      .byte 0x00
            0x00778d62      .byte 0x00
            0x00778d63      .byte 0x00
            0x00778d64      .byte 0x00
            0x00778d65      .byte 0x00
            0x00778d66      .byte 0x00
            0x00778d67      .byte 0x00
            0x00778d68      .byte 0x00
            0x00778d69      .byte 0x00
            0x00778d6a      .byte 0x16
            0x00778d6b     .string "Update remaining stack" ; len=22
            0x00778d81      .byte 0x2f
            0x00778d82     .string "unexpected update sent to transit setup update " ; len=47
            0x00778db1      .byte 0x00
            0x00778db2      .byte 0x0a
            0x00778db3      .byte 0x00
            0x00778db4      .byte 0x00
            0x00778db5      .byte 0x00
            0x00778db6      .byte 0x00
            0x00778db7      .byte 0x00
            0x00778db8      .byte 0x00
            0x00778db9      .byte 0x00
            0x00778dba      .byte 0x00
            0x00778dbb      .byte 0x00
            0x00778dbc      .byte 0x00
            0x00778dbd      .byte 0x00
            0x00778dbe      .byte 0x0f
            0x00778dbf     .string "no stack loaded" ; len=15
            0x00778dce      .byte 0x00
            0x00778dcf      .byte 0x00
            0x00778dd0      .byte 0x00
            0x00778dd1      .byte 0x00
            0x00778dd2      .byte 0x00
            0x00778dd3      .byte 0x00
            0x00778dd4      .byte 0x03
            0x00778dd5      .byte 0x00
            0x00778dd6      .byte 0x00
            0x00778dd7      .byte 0x00
            0x00778dd8      .byte 0x00
            0x00778dd9      .byte 0x00
            0x00778dda      .byte 0x00
            0x00778ddb      .byte 0x00
            0x00778ddc      .byte 0x00
            0x00778ddd      .byte 0x00
            0x00778dde      .byte 0x00
            0x00778ddf      .byte 0x00
            0x00778de0      .byte 0x00
            0x00778de1      .byte 0x00
            0x00778de2      .byte 0x00
            0x00778de3      .byte 0x00
            0x00778de4     .string "(? serious error: no heap space for stack" ; len=41
            0x00778e0d      .byte 0x0a
            0x00778e0e     .string "rm preset " ; len=10
            0x00778e18      .byte 0x0e
            0x00778e19     .string "aspect correct" ; len=14
            0x00778e27      .byte 0x05
            0x00778e28     .string "from " ; len=5
            0x00778e2d      .byte 0x03
            0x00778e2e      .byte 0x74
            0x00778e2f      .byte 0x6f
            0x00778e30      .byte 0x20
            0x00778e31      .byte 0x0f
            0x00778e32     .string "setting preset " ; len=15
            0x00778e41      .byte 0x05
            0x00778e42     .string " D = " ; len=5
            0x00778e47      .byte 0x17
            0x00778e48     .string "Position values clipped" ; len=23
            0x00778e5f      .byte 0x02
            0x00778e60      .byte 0x3f
            0x00778e61      .byte 0x20
            0x00778e62      .byte 0x01
            0x00778e63      .byte 0x54
            0x00778e64      .byte 0x01
            0x00778e65      .byte 0x50
            0x00778e66      .byte 0x02
            0x00778e67      .byte 0x56
            0x00778e68      .byte 0x20
            0x00778e69      .byte 0x02
            0x00778e6a      .byte 0x47
            0x00778e6b      .byte 0x20
            0x00778e6c      .byte 0x02
            0x00778e6d      .byte 0x49
            0x00778e6e      .byte 0x20
            0x00778e6f      .byte 0x00
            0x00778e70      .byte 0x06
            0x00778e71     .string "      " ; len=6
            0x00778e77      .byte 0x01
            0x00778e78      .byte 0x20
            0x00778e79      .byte 0x06
            0x00778e7a     .string "      " ; len=6
            0x00778e80      .byte 0x01
            0x00778e81      .byte 0x20
            0x00778e82      .byte 0x04
            0x00778e83      .byte 0x53
            0x00778e84      .byte 0x54
            0x00778e85      .byte 0x51
            0x00778e86      .byte 0x20
            0x00778e87      .byte 0x01
            0x00778e88      .byte 0x20
            0x00778e89      .byte 0x00
            0x00778e8a      .byte 0x04
            0x00778e8b      .byte 0x4e
            0x00778e8c      .byte 0x75
            0x00778e8d      .byte 0x6c
            0x00778e8e      .byte 0x6c
            0x00778e8f      .byte 0x01
            0x00778e90      .byte 0x20
            0x00778e91      .byte 0x00
            0x00778e92      .byte 0x5a
            0x00778e93      .byte 0x02
            0x00778e94      .byte 0x04
            0x00778e95      .byte 0x46
            0x00778e96      .byte 0x41
            0x00778e97      .byte 0x44
            0x00778e98      .byte 0x4b
            0x00778e99      .byte 0x04
            0x00778e9a      .byte 0x46
            0x00778e9b      .byte 0x41
            0x00778e9c      .byte 0x44
            0x00778e9d      .byte 0x56
            0x00778e9e      .byte 0x04
            0x00778e9f      .byte 0x20
            0x00778ea0      .byte 0x4f
            0x00778ea1      .byte 0x55
            0x00778ea2      .byte 0x54
            0x00778ea3      .byte 0x04
            0x00778ea4      .byte 0x44
            0x00778ea5      .byte 0x4f
            0x00778ea6      .byte 0x4e
            0x00778ea7      .byte 0x54
            0x00778ea8      .byte 0x04
            0x00778ea9      .byte 0x20
            0x00778eaa      .byte 0x3f
            0x00778eab      .byte 0x3f
            0x00778eac      .byte 0x3f
            0x00778ead      .byte 0x03
            0x00778eae      .byte 0x20
            0x00778eaf      .byte 0x20
            0x00778eb0      .byte 0x20
            0x00778eb1      .byte 0x01
            0x00778eb2      .byte 0x20
            0x00778eb3      .byte 0x01
            0x00778eb4      .byte 0x20
            0x00778eb5      .byte 0x0a
            0x00778eb6     .string "          " ; len=10
            0x00778ec0      .byte 0x4e
            0x00778ec1      .byte 0x06
            0x00778ec2      .byte 0x04
            0x00778ec3      .byte 0x21
            0x00778ec4      .byte 0x21
            0x00778ec5      .byte 0x21
            0x00778ec6      .byte 0x20
            0x00778ec7      .byte 0x69
            ; CALL XREF from PANEL.hit_clr_digit @ 0x774c34
 1570: PANEL_STACK.show_mailbox ();
           ; var int32_t var_1b36h @ a6-0x1b36
           ; var int32_t var_1b34h @ a6-0x1b34
           ; var int32_t var_1b32h @ a6-0x1b32
           ; var int32_t var_1b30h @ a6-0x1b30
           ; var int32_t var_8h @ a7+0x8
           0x00778ec8      4e56fc9a       link.w a6, 0xfc9a
           0x00778ecc      bfd5           cmpa.l (a5), a7
       < 0x00778ece      6206           bhi.b 0x778ed6
          0x00778ed0      44fc0002       move.w 0x2, ccr
          0x00778ed4      4e76           trapv
       > 0x00778ed6      defc0144       adda.w 0x144, a7
           0x00778eda      48e7fff8       movem.l d0-d7/a0-a4, -(a7)
           0x00778ede      45eefdde       lea.l -0x222(a6), a2
           0x00778ee2      47eefede       lea.l -0x122(a6), a3
           0x00778ee6      49f9004047ea   lea.l p_wts_o, a4
           0x00778eec      383c0100       move.w 0x100, d4
           0x00778ef0      3a3c00ff       move.w 0xff, d5
           0x00778ef4      3c3c0102       move.w 0x102, d6
           0x00778ef8      554f           subq.w 0x2, a7
           0x00778efa      48780000       pea.l 0x0
           0x00778efe      4227           clr.b -(a7)
           0x00778f00      486efff2       pea.l -0xe(a6)
           0x00778f04      486efff6       pea.l -0xa(a6)
           0x00778f08      486efffa       pea.l -0x6(a6)
           0x00778f0c      486efffe       pea.l -0x2(a6)
           0x00778f10      4eb90066d2a2   jsr N5_PICTURENET.n5_get_info
           0x00778f16      defc0016       adda.w 0x16, a7
           0x00778f1a      4a1f           tst.b (a7)+
       < 0x00778f1c      66000090       bne.w 0x778fae
          0x00778f20      9ec4           suba.w d4, a7
          0x00778f22      4eb900408ec0   jsr p_err_string
          0x00778f28      487ae940       pea.l 0x77786a(pc)
          0x00778f2c      4878001c       pea.l 0x1c
          0x00778f30      2f17           move.l (a7), -(a7)
          0x00778f32      4e94           jsr (a4)                    ; fcn.0000000d
          0x00778f34      defc000c       adda.w 0xc, a7
          0x00778f38      486f0001       pea.l 0x1(a7)
          0x00778f3c      42a7           clr.l -(a7)
          0x00778f3e      1f6f00080003   move.b 0x8(a7), 0x3(a7)
          0x00778f44      2f17           move.l (a7), -(a7)
          0x00778f46      4e94           jsr (a4)                    ; fcn.0000000d
          0x00778f48      defc010c       adda.w 0x10c, a7
          0x00778f4c      4eb900404946   jsr p_wtln_o
          0x00778f52      204a           movea.l a2, a0
          0x00778f54      43fae930       lea.l 0x777886(pc), a1
          0x00778f58      7004           moveq 0x4, d0
      > 0x00778f5a      20d9           move.l (a1)+, (a0)+
      < 0x00778f5c      51c8fffc       dbra d0, 0x778f5a
          0x00778f60      30d9           move.w (a1)+, (a0)+
          0x00778f62      10d9           move.b (a1)+, (a0)+
          0x00778f64      9ec4           suba.w d4, a7
          0x00778f66      4eb900408ec0   jsr p_err_string
          0x00778f6c      204b           movea.l a3, a0
          0x00778f6e      703f           moveq 0x3f, d0
      > 0x00778f70      20df           move.l (a7)+, (a0)+
      < 0x00778f72      51c8fffc       dbra d0, 0x778f70
          0x00778f76      9ec4           suba.w d4, a7
          0x00778f78      204f           movea.l a7, a0
          0x00778f7a      224a           movea.l a2, a1
          0x00778f7c      703f           moveq 0x3f, d0
      > 0x00778f7e      20d9           move.l (a1)+, (a0)+
      < 0x00778f80      51c8fffc       dbra d0, 0x778f7e
          0x00778f84      1f06           move.b d6, -(a7)
          0x00778f86      4eb900779912   jsr PANEL_STACK.set_on_air
          0x00778f8c      544f           addq.w 0x2, a7
          0x00778f8e      204f           movea.l a7, a0
          0x00778f90      224b           movea.l a3, a1
          0x00778f92      703f           moveq 0x3f, d0
      > 0x00778f94      20d9           move.l (a1)+, (a0)+
      < 0x00778f96      51c8fffc       dbra d0, 0x778f94
          0x00778f9a      1f06           move.b d6, -(a7)
          0x00778f9c      4eb90077999e   jsr PANEL_STACK.set_next_on_air
          0x00778fa2      dec6           adda.w d6, a7
      > 0x00778fa4      4eb900404188   jsr p_Unlink
     < 0x00778faa      6000053a       bra.w 0x7794e6
     > 0x00778fae      4aaefff2       tst.l -0xe(a6)
     < 0x00778fb2      6f0004e4       ble.w 0x779498
        0x00778fb6      554f           subq.w 0x2, a7
        0x00778fb8      48780001       pea.l 0x1
        0x00778fbc      4227           clr.b -(a7)
        0x00778fbe      486efff2       pea.l -0xe(a6)
        0x00778fc2      486efff6       pea.l -0xa(a6)
        0x00778fc6      486efffa       pea.l -0x6(a6)
        0x00778fca      486efffe       pea.l -0x2(a6)
        0x00778fce      4eb90066d2a2   jsr N5_PICTURENET.n5_get_info
        0x00778fd4      defc0016       adda.w 0x16, a7
        0x00778fd8      4a1f           tst.b (a7)+
    < 0x00778fda      67000486       beq.w 0x779462
       0x00778fde      9ec4           suba.w d4, a7
       0x00778fe0      3f2efffe       move.w -0x2(a6), -(a7)
       0x00778fe4      4eb90066ea9c   jsr N10_UTILS.n_stn_str
       0x00778fea      544f           addq.w 0x2, a7
       0x00778fec      487ae8b0       pea.l 0x77789e(pc)
       0x00778ff0      4878000f       pea.l 0xf
       0x00778ff4      2f17           move.l (a7), -(a7)
       0x00778ff6      4e94           jsr (a4)                    ; fcn.0000000d
       0x00778ff8      504f           addq.w 0x8, a7
       0x00778ffa      2eaefffa       move.l -0x6(a6), (a7)
       0x00778ffe      48780000       pea.l 0x0
       0x00779002      4eb9004070e4   jsr p_wti_o
       0x00779008      504f           addq.w 0x8, a7
       0x0077900a      487ae8a2       pea.l 0x7778ae(pc)
       0x0077900e      4878001d       pea.l 0x1d
       0x00779012      2f17           move.l (a7), -(a7)
       0x00779014      4e94           jsr (a4)                    ; fcn.0000000d
       0x00779016      defc000c       adda.w 0xc, a7
       0x0077901a      486f0001       pea.l 0x1(a7)
       0x0077901e      42a7           clr.l -(a7)
       0x00779020      1f6f00080003   move.b 0x8(a7), 0x3(a7)
       0x00779026      2f17           move.l (a7), -(a7)
       0x00779028      4e94           jsr (a4)                    ; fcn.0000000d
       0x0077902a      defc010c       adda.w 0x10c, a7
       0x0077902e      202efff2       move.l -0xe(a6), d0
       0x00779032      0c8000000001   cmpi.l 0x1, d0
   < 0x00779038      660a           bne.b 0x779044
      0x0077903a      487ae890       pea.l 0x7778cc(pc)
      0x0077903e      48780009       pea.l 0x9
  < 0x00779042      6024           bra.b 0x779068
  > 0x00779044      487ae890       pea.l 0x7778d6(pc)
      0x00779048      48780002       pea.l 0x2
      0x0077904c      2f17           move.l (a7), -(a7)
      0x0077904e      4e94           jsr (a4)                    ; fcn.0000000d
      0x00779050      504f           addq.w 0x8, a7
      0x00779052      2e80           move.l d0, (a7)
      0x00779054      48780000       pea.l 0x0
      0x00779058      4eb9004070e4   jsr p_wti_o
      0x0077905e      504f           addq.w 0x8, a7
      0x00779060      487ae877       pea.l 0x7778d9(pc)
      0x00779064      48780008       pea.l 0x8
  > 0x00779068      2f17           move.l (a7), -(a7)
       0x0077906a      4e94           jsr (a4)                    ; fcn.0000000d
       0x0077906c      defc000c       adda.w 0xc, a7
       0x00779070      4eb900404946   jsr p_wtln_o
       0x00779076      0c8000000001   cmpi.l 0x1, d0
   < 0x0077907c      6600027c       bne.w 0x7792fa
      0x00779080      2f2efff6       move.l -0xa(a6), -(a7)
      0x00779084      48780000       pea.l 0x0
      0x00779088      4852           pea.l (a2)
      0x0077908a      3f05           move.w d5, -(a7)
      0x0077908c      4eb900406e56   jsr p_strI1
      0x00779092      defc000e       adda.w 0xe, a7
      0x00779096      4281           clr.l d1
      0x00779098      122effff       move.b -0x1(a6), d1
      0x0077909c      2f01           move.l d1, -(a7)
      0x0077909e      48780000       pea.l 0x0
      0x007790a2      4853           pea.l (a3)
      0x007790a4      3f05           move.w d5, -(a7)
      0x007790a6      4eb900406e56   jsr p_strI1
      0x007790ac      defc000e       adda.w 0xe, a7
      0x007790b0      4241           clr.w d1
      0x007790b2      1212           move.b (a2), d1
      0x007790b4      41eefddf       lea.l -0x221(a6), a0
      0x007790b8      d0c1           adda.w d1, a0
      0x007790ba      7409           moveq 0x9, d2
      0x007790bc      d401           add.b d1, d2
  < 0x007790be      6406           bcc.b 0x7790c6
     0x007790c0      4eb900406c8a   jsr p_strovr
  > 0x007790c6      7409           moveq 0x9, d2
      0x007790c8      3605           move.w d5, d3
      0x007790ca      9641           sub.w d1, d3
      0x007790cc      b443           cmp.w d3, d2
  < 0x007790ce      6302           bls.b 0x7790d2
     0x007790d0      3403           move.w d3, d2
  > 0x007790d2      d512           add.b d2, (a2)
      0x007790d4      43fae80c       lea.l 0x7778e2(pc), a1
  > 0x007790d8      10d9           move.b (a1)+, (a0)+
  < 0x007790da      51cafffc       dbra d2, 0x7790d8
      0x007790de      9ec4           suba.w d4, a7
      0x007790e0      720c           moveq 0xc, d1
      0x007790e2      41ef0001       lea.l 0x1(a7), a0
      0x007790e6      43fae804       lea.l 0x7778ec(pc), a1
  > 0x007790ea      10d9           move.b (a1)+, (a0)+
  < 0x007790ec      51c9fffc       dbra d1, 0x7790ea
      0x007790f0      4241           clr.w d1
      0x007790f2      1213           move.b (a3), d1
      0x007790f4      0601000d       addi.b 0xd, d1
  < 0x007790f8      6406           bcc.b 0x779100
     0x007790fa      4eb900406c8a   jsr p_strovr
  > 0x00779100      4241           clr.w d1
      0x00779102      1213           move.b (a3), d1
      0x00779104      3405           move.w d5, d2
      0x00779106      0442000d       subi.w 0xd, d2
      0x0077910a      b242           cmp.w d2, d1
  < 0x0077910c      6302           bls.b 0x779110
     0x0077910e      3202           move.w d2, d1
  > 0x00779110      1ebc000d       move.b 0xd, (a7)
      0x00779114      d317           add.b d1, (a7)
      0x00779116      5301           subq.b 0x1, d1
  < 0x00779118      650a           bcs.b 0x779124
     0x0077911a      43eefedf       lea.l -0x121(a6), a1
 > 0x0077911e      10d9           move.b (a1)+, (a0)+
 < 0x00779120      51c9fffc       dbra d1, 0x77911e
  > 0x00779124      204b           movea.l a3, a0
      0x00779126      723f           moveq 0x3f, d1
  > 0x00779128      20df           move.l (a7)+, (a0)+
  < 0x0077912a      51c9fffc       dbra d1, 0x779128
      0x0077912e      222efffa       move.l -0x6(a6), d1
      0x00779132      0c810000012e   cmpi.l 0x12e, d1
  < 0x00779138      6d16           blt.b 0x779150
     0x0077913a      0c810000012e   cmpi.l 0x12e, d1
 < 0x00779140      67000114       beq.w 0x779256
    0x00779144      0c810000014a   cmpi.l 0x14a, d1
 < 0x0077914a      671a           beq.b 0x779166
 < 0x0077914c      60000158       bra.w 0x7792a6
 > 0x00779150      0c810000012c   cmpi.l 0x12c, d1
 < 0x00779156      675e           beq.b 0x7791b6
    0x00779158      0c810000012d   cmpi.l 0x12d, d1
 < 0x0077915e      670000a6       beq.w 0x779206
 < 0x00779162      60000142       bra.w 0x7792a6
 > 0x00779166      9ec4           suba.w d4, a7
    0x00779168      7205           moveq 0x5, d1
    0x0077916a      41ef0001       lea.l 0x1(a7), a0
    0x0077916e      43fae78a       lea.l 0x7778fa(pc), a1
 > 0x00779172      10d9           move.b (a1)+, (a0)+
 < 0x00779174      51c9fffc       dbra d1, 0x779172
    0x00779178      4241           clr.w d1
    0x0077917a      1212           move.b (a2), d1
    0x0077917c      5c01           addq.b 0x6, d1
 < 0x0077917e      6406           bcc.b 0x779186
    0x00779180      4eb900406c8a   jsr p_strovr
 > 0x00779186      4241           clr.w d1
    0x00779188      1212           move.b (a2), d1
    0x0077918a      3405           move.w d5, d2
    0x0077918c      5d42           subq.w 0x6, d2
    0x0077918e      b242           cmp.w d2, d1
 < 0x00779190      6302           bls.b 0x779194
    0x00779192      3202           move.w d2, d1
 > 0x00779194      1ebc0006       move.b 0x6, (a7)
    0x00779198      d317           add.b d1, (a7)
    0x0077919a      5301           subq.b 0x1, d1
 < 0x0077919c      650a           bcs.b 0x7791a8
    0x0077919e      43eefddf       lea.l -0x221(a6), a1
 > 0x007791a2      10d9           move.b (a1)+, (a0)+
 < 0x007791a4      51c9fffc       dbra d1, 0x7791a2
 > 0x007791a8      204a           movea.l a2, a0
    0x007791aa      723f           moveq 0x3f, d1
 > 0x007791ac      20df           move.l (a7)+, (a0)+
 < 0x007791ae      51c9fffc       dbra d1, 0x7791ac
 < 0x007791b2      60000246       bra.w 0x7793fa
 > 0x007791b6      9ec4           suba.w d4, a7
     0x007791b8      7207           moveq 0x7, d1
     0x007791ba      41ef0001       lea.l 0x1(a7), a0
     0x007791be      43fae741       lea.l 0x777901(pc), a1
 > 0x007791c2      10d9           move.b (a1)+, (a0)+
 < 0x007791c4      51c9fffc       dbra d1, 0x7791c2
     0x007791c8      4241           clr.w d1
     0x007791ca      1212           move.b (a2), d1
     0x007791cc      5001           addq.b 0x8, d1
 < 0x007791ce      6406           bcc.b 0x7791d6
    0x007791d0      4eb900406c8a   jsr p_strovr
 > 0x007791d6      4241           clr.w d1
     0x007791d8      1212           move.b (a2), d1
     0x007791da      3405           move.w d5, d2
     0x007791dc      5142           subq.w 0x8, d2
     0x007791de      b242           cmp.w d2, d1
 < 0x007791e0      6302           bls.b 0x7791e4
    0x007791e2      3202           move.w d2, d1
 > 0x007791e4      1ebc0008       move.b 0x8, (a7)
     0x007791e8      d317           add.b d1, (a7)
     0x007791ea      5301           subq.b 0x1, d1
 < 0x007791ec      650a           bcs.b 0x7791f8
    0x007791ee      43eefddf       lea.l -0x221(a6), a1
 > 0x007791f2      10d9           move.b (a1)+, (a0)+
 < 0x007791f4      51c9fffc       dbra d1, 0x7791f2
 > 0x007791f8      204a           movea.l a2, a0
     0x007791fa      723f           moveq 0x3f, d1
 > 0x007791fc      20df           move.l (a7)+, (a0)+
 < 0x007791fe      51c9fffc       dbra d1, 0x7791fc
 < 0x00779202      600001f6       bra.w 0x7793fa
 > 0x00779206      9ec4           suba.w d4, a7
    0x00779208      7207           moveq 0x7, d1
    0x0077920a      41ef0001       lea.l 0x1(a7), a0
    0x0077920e      43fae6fa       lea.l 0x77790a(pc), a1
 > 0x00779212      10d9           move.b (a1)+, (a0)+
 < 0x00779214      51c9fffc       dbra d1, 0x779212
    0x00779218      4241           clr.w d1
    0x0077921a      1212           move.b (a2), d1
    0x0077921c      5001           addq.b 0x8, d1
 < 0x0077921e      6406           bcc.b 0x779226
    0x00779220      4eb900406c8a   jsr p_strovr
 > 0x00779226      4241           clr.w d1
    0x00779228      1212           move.b (a2), d1
    0x0077922a      3405           move.w d5, d2
    0x0077922c      5142           subq.w 0x8, d2
    0x0077922e      b242           cmp.w d2, d1
 < 0x00779230      6302           bls.b 0x779234
    0x00779232      3202           move.w d2, d1
 > 0x00779234      1ebc0008       move.b 0x8, (a7)
    0x00779238      d317           add.b d1, (a7)
    0x0077923a      5301           subq.b 0x1, d1
 < 0x0077923c      650a           bcs.b 0x779248
    0x0077923e      43eefddf       lea.l -0x221(a6), a1
 > 0x00779242      10d9           move.b (a1)+, (a0)+
 < 0x00779244      51c9fffc       dbra d1, 0x779242
 > 0x00779248      204a           movea.l a2, a0
    0x0077924a      723f           moveq 0x3f, d1
 > 0x0077924c      20df           move.l (a7)+, (a0)+
 < 0x0077924e      51c9fffc       dbra d1, 0x77924c
 < 0x00779252      600001a6       bra.w 0x7793fa
 > 0x00779256      9ec4           suba.w d4, a7
     0x00779258      7206           moveq 0x6, d1
     0x0077925a      41ef0001       lea.l 0x1(a7), a0
     0x0077925e      43fae6b3       lea.l 0x777913(pc), a1
 > 0x00779262      10d9           move.b (a1)+, (a0)+
 < 0x00779264      51c9fffc       dbra d1, 0x779262
     0x00779268      4241           clr.w d1
     0x0077926a      1212           move.b (a2), d1
     0x0077926c      5e01           addq.b 0x7, d1
 < 0x0077926e      6406           bcc.b 0x779276
    0x00779270      4eb900406c8a   jsr p_strovr
 > 0x00779276      4241           clr.w d1
     0x00779278      1212           move.b (a2), d1
     0x0077927a      3405           move.w d5, d2
     0x0077927c      5f42           subq.w 0x7, d2
     0x0077927e      b242           cmp.w d2, d1
 < 0x00779280      6302           bls.b 0x779284
    0x00779282      3202           move.w d2, d1
 > 0x00779284      1ebc0007       move.b 0x7, (a7)
     0x00779288      d317           add.b d1, (a7)
     0x0077928a      5301           subq.b 0x1, d1
 < 0x0077928c      650a           bcs.b 0x779298
    0x0077928e      43eefddf       lea.l -0x221(a6), a1
 > 0x00779292      10d9           move.b (a1)+, (a0)+
 < 0x00779294      51c9fffc       dbra d1, 0x779292
 > 0x00779298      204a           movea.l a2, a0
     0x0077929a      723f           moveq 0x3f, d1
 > 0x0077929c      20df           move.l (a7)+, (a0)+
 < 0x0077929e      51c9fffc       dbra d1, 0x77929c
 < 0x007792a2      60000156       bra.w 0x7793fa
 > 0x007792a6      9ec4           suba.w d4, a7
    0x007792a8      7204           moveq 0x4, d1
    0x007792aa      41ef0001       lea.l 0x1(a7), a0
    0x007792ae      43fae66b       lea.l 0x77791b(pc), a1
 > 0x007792b2      10d9           move.b (a1)+, (a0)+
 < 0x007792b4      51c9fffc       dbra d1, 0x7792b2
    0x007792b8      4241           clr.w d1
    0x007792ba      1212           move.b (a2), d1
    0x007792bc      5a01           addq.b 0x5, d1
 < 0x007792be      6406           bcc.b 0x7792c6
    0x007792c0      4eb900406c8a   jsr p_strovr
 > 0x007792c6      4241           clr.w d1
    0x007792c8      1212           move.b (a2), d1
    0x007792ca      3405           move.w d5, d2
    0x007792cc      5b42           subq.w 0x5, d2
    0x007792ce      b242           cmp.w d2, d1
 < 0x007792d0      6302           bls.b 0x7792d4
    0x007792d2      3202           move.w d2, d1
 > 0x007792d4      1ebc0005       move.b 0x5, (a7)
    0x007792d8      d317           add.b d1, (a7)
    0x007792da      5301           subq.b 0x1, d1
 < 0x007792dc      650a           bcs.b 0x7792e8
    0x007792de      43eefddf       lea.l -0x221(a6), a1
 > 0x007792e2      10d9           move.b (a1)+, (a0)+
 < 0x007792e4      51c9fffc       dbra d1, 0x7792e2
 > 0x007792e8      204a           movea.l a2, a0
    0x007792ea      723f           moveq 0x3f, d1
 > 0x007792ec      20df           move.l (a7)+, (a0)+
 < 0x007792ee      51c9fffc       dbra d1, 0x7792ec
 < 0x007792f2      60000106       bra.w 0x7793fa
  < 0x007792f6      60000102       bra.w 0x7793fa              ; PANEL_STACK.show_mailbox+0x532
 > 0x007792fa      2f00           move.l d0, -(a7)
     0x007792fc      48780000       pea.l 0x0
     0x00779300      4852           pea.l (a2)
     0x00779302      3f05           move.w d5, -(a7)
     0x00779304      4eb900406e56   jsr p_strI1
     0x0077930a      defc000a       adda.w 0xa, a7
     0x0077930e      2eaefff6       move.l -0xa(a6), (a7)
     0x00779312      48780000       pea.l 0x0
     0x00779316      4853           pea.l (a3)
     0x00779318      3f05           move.w d5, -(a7)
     0x0077931a      4eb900406e56   jsr p_strI1
     0x00779320      defc000e       adda.w 0xe, a7
     0x00779324      4281           clr.l d1
     0x00779326      122effff       move.b -0x1(a6), d1
     0x0077932a      2f01           move.l d1, -(a7)
     0x0077932c      48780000       pea.l 0x0
     0x00779330      486effde       pea.l -0x22(a6)
     0x00779334      3f3c000a       move.w 0xa, -(a7)
     0x00779338      4eb900406e56   jsr p_strI1
     0x0077933e      defc000e       adda.w 0xe, a7
     0x00779342      4241           clr.w d1
     0x00779344      1212           move.b (a2), d1
     0x00779346      41eefddf       lea.l -0x221(a6), a0
     0x0077934a      d0c1           adda.w d1, a0
     0x0077934c      7417           moveq 0x17, d2
     0x0077934e      d401           add.b d1, d2
 < 0x00779350      6406           bcc.b 0x779358
    0x00779352      4eb900406c8a   jsr p_strovr
 > 0x00779358      7417           moveq 0x17, d2
     0x0077935a      3605           move.w d5, d3
     0x0077935c      9641           sub.w d1, d3
     0x0077935e      b443           cmp.w d3, d2
 < 0x00779360      6302           bls.b 0x779364
    0x00779362      3403           move.w d3, d2
 > 0x00779364      d512           add.b d2, (a2)
     0x00779366      43fae5b9       lea.l 0x777921(pc), a1
 > 0x0077936a      10d9           move.b (a1)+, (a0)+
 < 0x0077936c      51cafffc       dbra d2, 0x77936a
     0x00779370      4241           clr.w d1
     0x00779372      1212           move.b (a2), d1
     0x00779374      41eefddf       lea.l -0x221(a6), a0
     0x00779378      d0c1           adda.w d1, a0
     0x0077937a      4242           clr.w d2
     0x0077937c      142effde       move.b -0x22(a6), d2
     0x00779380      d401           add.b d1, d2
 < 0x00779382      6406           bcc.b 0x77938a
    0x00779384      4eb900406c8a   jsr p_strovr
 > 0x0077938a      4242           clr.w d2
     0x0077938c      142effde       move.b -0x22(a6), d2
     0x00779390      3605           move.w d5, d3
     0x00779392      9641           sub.w d1, d3
     0x00779394      b443           cmp.w d3, d2
 < 0x00779396      6302           bls.b 0x77939a
    0x00779398      3403           move.w d3, d2
 > 0x0077939a      d512           add.b d2, (a2)
     0x0077939c      5302           subq.b 0x1, d2
 < 0x0077939e      650a           bcs.b 0x7793aa
    0x007793a0      43eeffdf       lea.l -0x21(a6), a1
 > 0x007793a4      10d9           move.b (a1)+, (a0)+
 < 0x007793a6      51cafffc       dbra d2, 0x7793a4
 > 0x007793aa      9ec4           suba.w d4, a7
     0x007793ac      720a           moveq 0xa, d1
     0x007793ae      41ef0001       lea.l 0x1(a7), a0
     0x007793b2      43fae585       lea.l 0x777939(pc), a1
 > 0x007793b6      10d9           move.b (a1)+, (a0)+
 < 0x007793b8      51c9fffc       dbra d1, 0x7793b6
     0x007793bc      4241           clr.w d1
     0x007793be      1213           move.b (a3), d1
     0x007793c0      0601000b       addi.b 0xb, d1
 < 0x007793c4      6406           bcc.b 0x7793cc
    0x007793c6      4eb900406c8a   jsr p_strovr
 > 0x007793cc      4241           clr.w d1
     0x007793ce      1213           move.b (a3), d1
     0x007793d0      3405           move.w d5, d2
     0x007793d2      0442000b       subi.w 0xb, d2
     0x007793d6      b242           cmp.w d2, d1
 < 0x007793d8      6302           bls.b 0x7793dc
    0x007793da      3202           move.w d2, d1
 > 0x007793dc      1ebc000b       move.b 0xb, (a7)
     0x007793e0      d317           add.b d1, (a7)
     0x007793e2      5301           subq.b 0x1, d1
 < 0x007793e4      650a           bcs.b 0x7793f0
    0x007793e6      43eefedf       lea.l -0x121(a6), a1
 > 0x007793ea      10d9           move.b (a1)+, (a0)+
 < 0x007793ec      51c9fffc       dbra d1, 0x7793ea
 > 0x007793f0      204b           movea.l a3, a0
     0x007793f2      723f           moveq 0x3f, d1
 > 0x007793f4      20df           move.l (a7)+, (a0)+
 < 0x007793f6      51c9fffc       dbra d1, 0x7793f4
 > 0x007793fa      9ec4           suba.w d4, a7
       0x007793fc      204f           movea.l a7, a0
       0x007793fe      224a           movea.l a2, a1
       0x00779400      723f           moveq 0x3f, d1
   > 0x00779402      20d9           move.l (a1)+, (a0)+
   < 0x00779404      51c9fffc       dbra d1, 0x779402
       0x00779408      1f06           move.b d6, -(a7)
       0x0077940a      4eb900779912   jsr PANEL_STACK.set_on_air
       0x00779410      544f           addq.w 0x2, a7
       0x00779412      204f           movea.l a7, a0
       0x00779414      224b           movea.l a3, a1
       0x00779416      723f           moveq 0x3f, d1
   > 0x00779418      20d9           move.l (a1)+, (a0)+
   < 0x0077941a      51c9fffc       dbra d1, 0x779418
       0x0077941e      1f06           move.b d6, -(a7)
       0x00779420      4eb90077999e   jsr PANEL_STACK.set_next_on_air
       0x00779426      defc00fe       adda.w 0xfe, a7
       0x0077942a      2e80           move.l d0, (a7)
       0x0077942c      7e01           moveq 0x1, d7
   > 0x0077942e      be97           cmp.l (a7), d7
  < 0x00779430      6e2a           bgt.b 0x77945c
     0x00779432      554f           subq.w 0x2, a7
     0x00779434      48780001       pea.l 0x1
     0x00779438      1f3c0001       move.b 0x1, -(a7)
     0x0077943c      486effea       pea.l -0x16(a6)
     0x00779440      486efff6       pea.l -0xa(a6)
     0x00779444      486efffa       pea.l -0x6(a6)
     0x00779448      486efffe       pea.l -0x2(a6)
     0x0077944c      4eb90066d2a2   jsr N5_PICTURENET.n5_get_info
     0x00779452      defc0016       adda.w 0x16, a7
     0x00779456      4a1f           tst.b (a7)+
     0x00779458      5287           addq.l 0x1, d7
  < 0x0077945a      68d2           bvc.b 0x77942e
  > 0x0077945c      584f           addq.w 0x4, a7
   < 0x0077945e      60000086       bra.w 0x7794e6
   > 0x00779462      9ec4           suba.w d4, a7
       0x00779464      4eb900408ec0   jsr p_err_string
       0x0077946a      487ae4d9       pea.l 0x777945(pc)
       0x0077946e      48780025       pea.l 0x25
       0x00779472      2f17           move.l (a7), -(a7)
       0x00779474      4e94           jsr (a4)                    ; fcn.0000000d
       0x00779476      defc000c       adda.w 0xc, a7
       0x0077947a      486f0001       pea.l 0x1(a7)
       0x0077947e      42a7           clr.l -(a7)
       0x00779480      1f6f00080003   move.b 0x8(a7), 0x3(a7)
       0x00779486      2f17           move.l (a7), -(a7)
       0x00779488      4e94           jsr (a4)                    ; fcn.0000000d
       0x0077948a      defc010c       adda.w 0x10c, a7
       0x0077948e      4eb900404946   jsr p_wtln_o
    < 0x00779494      6000fb0e       bra.w 0x778fa4
     > 0x00779498      24bae4d0       move.l 0x77796a(pc), (a2)
         0x0077949c      2d7ae4d0fde2   move.l 0x77796e(pc), -0x21e(a6)
         0x007794a2      2d7ae4cefde6   move.l 0x777972(pc), -0x21a(a6)
         0x007794a8      2d7ae4ccfdea   move.l 0x777976(pc), -0x216(a6)
         0x007794ae      1d7ae4cafdee   move.b 0x77797a(pc), -0x212(a6)
         0x007794b4      16bae4c5       move.b 0x77797b(pc), (a3)
         0x007794b8      9ec4           suba.w d4, a7
         0x007794ba      204f           movea.l a7, a0
         0x007794bc      224a           movea.l a2, a1
         0x007794be      703f           moveq 0x3f, d0
     > 0x007794c0      20d9           move.l (a1)+, (a0)+
     < 0x007794c2      51c8fffc       dbra d0, 0x7794c0
         0x007794c6      1f06           move.b d6, -(a7)
         0x007794c8      4eb900779912   jsr PANEL_STACK.set_on_air
         0x007794ce      544f           addq.w 0x2, a7
         0x007794d0      204f           movea.l a7, a0
         0x007794d2      224b           movea.l a3, a1
         0x007794d4      703f           moveq 0x3f, d0
     > 0x007794d6      20d9           move.l (a1)+, (a0)+
     < 0x007794d8      51c8fffc       dbra d0, 0x7794d6
         0x007794dc      1f06           move.b d6, -(a7)
         0x007794de      4eb90077999e   jsr PANEL_STACK.set_next_on_air
         0x007794e4      dec6           adda.w d6, a7
   > 0x007794e6      4cdf1fff       movem.l (a7)+, d0-d7/a0-a4
           0x007794ea      4e5e           unlk a6
           0x007794ec      4e75           rts
            ; CALL XREF from PANEL.enter_panel @ 0x775c94
 152: PANEL_STACK.panel_activated ();
           0x007794ee      4e56ffe8       link.w a6, 0xffe8
           0x007794f2      bfd5           cmpa.l (a5), a7
       < 0x007794f4      6206           bhi.b 0x7794fc
          0x007794f6      44fc0002       move.w 0x2, ccr
          0x007794fa      4e76           trapv
       > 0x007794fc      defc0018       adda.w 0x18, a7
           0x00779500      48e780e0       movem.l d0/a0-a2, -(a7)
           0x00779504      45f90086eb42   lea.l 0x86eb42, a2
           0x0077950a      4eb90079f5b2   jsr PANEL_CURSOR.forceoff_cursor
           0x00779510      42390086eb1e   clr.b 0x86eb1e
           0x00779516      48780001       pea.l 0x1
           0x0077951a      4eb900402e42   jsr p_Delay
           0x00779520      584f           addq.w 0x4, a7
           0x00779522      13fc00010086.  move.b 0x1, 0x86eb1f.l
           0x0077952a      48780000       pea.l 0x0
           0x0077952e      4eb90078e24e   jsr PANEL_PREFETCH.wipe_prefetch
           0x00779534      544f           addq.w 0x2, a7
           0x00779536      4eb9004755c2   jsr CONFIG.cfg_gender
           0x0077953c      101f           move.b (a7)+, d0
           0x0077953e      0c000003       cmpi.b 0x3, d0
       < 0x00779542      660a           bne.b 0x77954e
          0x00779544      4852           pea.l (a2)
          0x00779546      4eb9007a46c6   jsr PICBOX_DUMMY.get_default_tit
          0x0077954c      584f           addq.w 0x4, a7
       > 0x0077954e      4240           clr.w d0
           0x00779550      1012           move.b (a2), d0
       < 0x00779552      6302           bls.b 0x779556
          0x00779554      7000           moveq 0x0, d0
       > 0x00779556      5300           subq.b 0x1, d0
       < 0x00779558      6512           bcs.b 0x77956c
          0x0077955a      41f90086eb43   lea.l 0x86eb43, a0
          0x00779560      43fae41b       lea.l 0x77797d(pc), a1
      > 0x00779564      b109           cmpm.b (a1)+, (a0)+
      < 0x00779566      56c8fffc       dbne d0, 0x779564
      < 0x0077956a      6602           bne.b 0x77956e
      > 0x0077956c      1012           move.b (a2), d0
      < 0x0077956e      660e           bne.b 0x77957e
          0x00779570      204a           movea.l a2, a0
          0x00779572      43fae27a       lea.l 0x7777ee(pc), a1
          0x00779576      7005           moveq 0x5, d0
      > 0x00779578      20d9           move.l (a1)+, (a0)+
      < 0x0077957a      51c8fffc       dbra d0, 0x779578
       > 0x0077957e      4cdf0701       movem.l (a7)+, d0/a0-a2
           0x00779582      4e5e           unlk a6
           0x00779584      4e75           rts
            ; XREFS: CALL 0x00783a3c  CALL 0x007846f0  CALL 0x0078489c  
            ; XREFS: CALL 0x00784a86  CALL 0x00784d20  CALL 0x00784f98  
            ; XREFS: CALL 0x007867bc  CALL 0x0078df84  
 30: PANEL_STACK.get_cur_stack_p ();
           0x00779586      4e56fffc       link.w a6, 0xfffc
           0x0077958a      bfd5           cmpa.l (a5), a7
       < 0x0077958c      6206           bhi.b 0x779594
          0x0077958e      44fc0002       move.w 0x2, ccr
          0x00779592      4e76           trapv
       > 0x00779594      defc0004       adda.w 0x4, a7
           0x00779598      2d790086eb32.  move.l 0x86eb32, 0x8(a6)
           0x007795a0      4e5e           unlk a6
           0x007795a2      4e75           rts
            ; XREFS(25)
 72: PANEL_STACK.getset_crnt ();
           0x007795a4      4e56ffec       link.w a6, 0xffec
           0x007795a8      bfd5           cmpa.l (a5), a7
       < 0x007795aa      6206           bhi.b 0x7795b2
          0x007795ac      44fc0002       move.w 0x2, ccr
          0x007795b0      4e76           trapv
       > 0x007795b2      defc0014       adda.w 0x14, a7
           0x007795b6      48e780e0       movem.l d0/a0-a2, -(a7)
           0x007795ba      45f900871002   lea.l 0x871002, a2
           0x007795c0      4a2e0008       tst.b 0x8(a6)
       < 0x007795c4      6610           bne.b 0x7795d6
          0x007795c6      206e000a       movea.l 0xa(a6), a0
          0x007795ca      224a           movea.l a2, a1
          0x007795cc      7024           moveq 0x24, d0
      > 0x007795ce      10d9           move.b (a1)+, (a0)+
      < 0x007795d0      51c8fffc       dbra d0, 0x7795ce
      < 0x007795d4      600e           bra.b 0x7795e4
      > 0x007795d6      206e000a       movea.l 0xa(a6), a0
          0x007795da      224a           movea.l a2, a1
          0x007795dc      7024           moveq 0x24, d0
      > 0x007795de      12d8           move.b (a0)+, (a1)+
      < 0x007795e0      51c8fffc       dbra d0, 0x7795de
      > 0x007795e4      4cdf0701       movem.l (a7)+, d0/a0-a2
           0x007795e8      4e5e           unlk a6
           0x007795ea      4e75           rts
            ; CALL XREF from PANEL.clear_temp @ 0x7748c2
            ; CALL XREFS from PANEL.hit_clr_remote @ 0x7758e8, 0x775980, 0x77599c, 0x7759be
 98: PANEL_STACK.getset_def_regi ();
           0x007795ec      4e56ffe8       link.w a6, 0xffe8
           0x007795f0      bfd5           cmpa.l (a5), a7
       < 0x007795f2      6206           bhi.b 0x7795fa
          0x007795f4      44fc0002       move.w 0x2, ccr
          0x007795f8      4e76           trapv
       > 0x007795fa      defc0018       adda.w 0x18, a7
           0x007795fe      48e700f8       movem.l a0-a4, -(a7)
           0x00779602      43f90086f7be   lea.l 0x86f7be, a1
           0x00779608      45f90086f7bf   lea.l 0x86f7bf, a2
           0x0077960e      47f90086f7c0   lea.l 0x86f7c0, a3
           0x00779614      49f90086f7c1   lea.l 0x86f7c1, a4
           0x0077961a      4a2e0008       tst.b 0x8(a6)
       < 0x0077961e      6614           bne.b 0x779634
          0x00779620      206e000a       movea.l 0xa(a6), a0
          0x00779624      1091           move.b (a1), (a0)
          0x00779626      11520001       move.b (a2), 0x1(a0)
          0x0077962a      11530002       move.b (a3), 0x2(a0)
          0x0077962e      11540003       move.b (a4), 0x3(a0)
      < 0x00779632      6012           bra.b 0x779646
      > 0x00779634      206e000a       movea.l 0xa(a6), a0
          0x00779638      1290           move.b (a0), (a1)
          0x0077963a      14a80001       move.b 0x1(a0), (a2)
          0x0077963e      16a80002       move.b 0x2(a0), (a3)
          0x00779642      18a80003       move.b 0x3(a0), (a4)
      > 0x00779646      4cdf1f00       movem.l (a7)+, a0-a4
           0x0077964a      4e5e           unlk a6
           0x0077964c      4e75           rts
            ; CALL XREF from PANEL_CMDS.show_crnt_comma @ 0x7875b0
 50: PANEL_STACK.get_crnt ();
           0x0077964e      4e56fff0       link.w a6, 0xfff0
           0x00779652      bfd5           cmpa.l (a5), a7
       < 0x00779654      6206           bhi.b 0x77965c
          0x00779656      44fc0002       move.w 0x2, ccr
          0x0077965a      4e76           trapv
       > 0x0077965c      defc0010       adda.w 0x10, a7
           0x00779660      48e780c0       movem.l d0/a0-a1, -(a7)
           0x00779664      41ee0008       lea.l 0x8(a6), a0
           0x00779668      43f900871002   lea.l 0x871002, a1
           0x0077966e      7008           moveq 0x8, d0
       > 0x00779670      20d9           move.l (a1)+, (a0)+
       < 0x00779672      51c8fffc       dbra d0, 0x779670
           0x00779676      10d9           move.b (a1)+, (a0)+
           0x00779678      4cdf0301       movem.l (a7)+, d0/a0-a1
           0x0077967c      4e5e           unlk a6
           0x0077967e      4e75           rts
            ; CALL XREF from PANEL.panel_debug @ 0x77682a
 30: PANEL_STACK.ps_debug ();
           0x00779680      4e56fffc       link.w a6, 0xfffc
           0x00779684      bfd5           cmpa.l (a5), a7
       < 0x00779686      6206           bhi.b 0x77968e
          0x00779688      44fc0002       move.w 0x2, ccr
          0x0077968c      4e76           trapv
       > 0x0077968e      defc0004       adda.w 0x4, a7
           0x00779692      13ee00080086.  move.b 0x8(a6), 0x86eb1a.l
           0x0077969a      4e5e           unlk a6
           0x0077969c      4e75           rts
            ; XREFS: CALL 0x00779a7e  CALL 0x00779b14  CALL 0x0077b130  
            ; XREFS: CALL 0x0077df80  CALL 0x0077e078  CALL 0x0077e0cc  
            ; XREFS: CALL 0x007805a4  CALL 0x00780cec  
 56: PANEL_STACK.set_last_error ();
           0x0077969e      4e56fff0       link.w a6, 0xfff0
           0x007796a2      bfd5           cmpa.l (a5), a7
       < 0x007796a4      6206           bhi.b 0x7796ac
          0x007796a6      44fc0002       move.w 0x2, ccr
          0x007796aa      4e76           trapv
       > 0x007796ac      defc0010       adda.w 0x10, a7
           0x007796b0      48e780c0       movem.l d0/a0-a1, -(a7)
           0x007796b4      33ee01080087.  move.w 0x108(a6), 0x87105c.l
           0x007796bc      41f90087105e   lea.l 0x87105e, a0
           0x007796c2      43ee0008       lea.l 0x8(a6), a1
           0x007796c6      703f           moveq 0x3f, d0
       > 0x007796c8      20d9           move.l (a1)+, (a0)+
       < 0x007796ca      51c8fffc       dbra d0, 0x7796c8
           0x007796ce      4cdf0301       movem.l (a7)+, d0/a0-a1
           0x007796d2      4e5e           unlk a6
           0x007796d4      4e75           rts
            ; CALL XREF from PANEL_STACK.show_cur_setup @ 0x779f64
            ; CALL XREF from PANEL_STACK.do_view @ 0x780a68
 478: PANEL_STACK.preset_display_ ();
           0x007796d6      4e56ff42       link.w a6, 0xff42
           0x007796da      bfd5           cmpa.l (a5), a7
       < 0x007796dc      6206           bhi.b 0x7796e4
          0x007796de      44fc0002       move.w 0x2, ccr
          0x007796e2      4e76           trapv
       > 0x007796e4      defc0042       adda.w 0x42, a7
           0x007796e8      48e7fef8       movem.l d0-d6/a0-a4, -(a7)
           0x007796ec      47eeffc1       lea.l -0x3f(a6), a3
           0x007796f0      49eeff84       lea.l -0x7c(a6), a4
           0x007796f4      7a02           moveq 0x2, d5
           0x007796f6      7c15           moveq 0x15, d6
           0x007796f8      302e000a       move.w 0xa(a6), d0
           0x007796fc      48c0           ext.l d0
           0x007796fe      2f00           move.l d0, -(a7)
           0x00779700      48780002       pea.l 0x2
           0x00779704      4854           pea.l (a4)
           0x00779706      3f3c003c       move.w 0x3c, -(a7)
           0x0077970a      4eb900406e56   jsr p_strI1
           0x00779710      defc000e       adda.w 0xe, a7
           0x00779714      1d7c0050ff85   move.b 0x50, -0x7b(a6)
           0x0077971a      4a2e0008       tst.b 0x8(a6)
       < 0x0077971e      6722           beq.b 0x779742
          0x00779720      4240           clr.w d0
          0x00779722      1014           move.b (a4), d0
          0x00779724      41f60085       lea.l -0x7b(a6, d0.w), a0
          0x00779728      7202           moveq 0x2, d1
          0x0077972a      743c           moveq 0x3c, d2
          0x0077972c      9440           sub.w d0, d2
          0x0077972e      b242           cmp.w d2, d1
      < 0x00779730      6302           bls.b 0x779734
         0x00779732      3202           move.w d2, d1
      > 0x00779734      d314           add.b d1, (a4)
          0x00779736      43fae246       lea.l 0x77797e(pc), a1
      > 0x0077973a      10d9           move.b (a1)+, (a0)+
      < 0x0077973c      51c9fffc       dbra d1, 0x77973a
      < 0x00779740      6020           bra.b 0x779762
      > 0x00779742      4240           clr.w d0
          0x00779744      1014           move.b (a4), d0
          0x00779746      41f60085       lea.l -0x7b(a6, d0.w), a0
          0x0077974a      7202           moveq 0x2, d1
          0x0077974c      743c           moveq 0x3c, d2
          0x0077974e      9440           sub.w d0, d2
          0x00779750      b242           cmp.w d2, d1
      < 0x00779752      6302           bls.b 0x779756
         0x00779754      3202           move.w d2, d1
      > 0x00779756      d314           add.b d1, (a4)
          0x00779758      43fae227       lea.l 0x777981(pc), a1
      > 0x0077975c      10d9           move.b (a1)+, (a0)+
      < 0x0077975e      51c9fffc       dbra d1, 0x77975c
      > 0x00779762      302e000a       move.w 0xa(a6), d0
           0x00779766      41bc0009       chk.w 0x9, d0
           0x0077976a      c1fc0012       muls.w 0x12, d0
           0x0077976e      20790086eb32   movea.l 0x86eb32, a0
           0x00779774      b1e8fffc       cmpa.l -0x4(a0), a0
       < 0x00779778      6702           beq.b 0x77977c
          0x0077977a      4e4d           trap 0xd
       > 0x0077977c      41f00800       lea.l (a0, d0.l), a0
           0x00779780      302e000a       move.w 0xa(a6), d0
           0x00779784      0c400001       cmpi.w 0x1, d0
       < 0x00779788      6610           bne.b 0x77979a
          0x0077978a      224b           movea.l a3, a1
          0x0077978c      45fae043       lea.l 0x7777d1(pc), a2
          0x00779790      7011           moveq 0x11, d0
      > 0x00779792      12da           move.b (a2)+, (a1)+
      < 0x00779794      51c8fffc       dbra d0, 0x779792
      < 0x00779798      6056           bra.b 0x7797f0
      > 0x0077979a      30282a3a       move.w 0x2a3a(a0), d0
          0x0077979e      48c0           ext.l d0
          0x007797a0      2200           move.l d0, d1
          0x007797a2      5381           subq.l 0x1, d1
          0x007797a4      b285           cmp.l d5, d1
      < 0x007797a6      6302           bls.b 0x7797aa
         0x007797a8      4e4f           trap 0xf
      > 0x007797aa      2801           move.l d1, d4
          0x007797ac      7621           moveq 0x21, d3
          0x007797ae      4eb900406a74   jsr fcn.00406a74
          0x007797b4      43fae050       lea.l 0x777806(pc), a1
          0x007797b8      244b           movea.l a3, a2
          0x007797ba      43f14800       lea.l (a1, d4.l), a1
          0x007797be      7220           moveq 0x20, d1
      > 0x007797c0      14d9           move.b (a1)+, (a2)+
      < 0x007797c2      51c9fffc       dbra d1, 0x7797c0
          0x007797c6      b045           cmp.w d5, d0
      < 0x007797c8      6626           bne.b 0x7797f0
         0x007797ca      4a682a44       tst.w 0x2a44(a0)
     < 0x007797ce      6620           bne.b 0x7797f0
        0x007797d0      4240           clr.w d0
        0x007797d2      1013           move.b (a3), d0
        0x007797d4      43f600c2       lea.l -0x3e(a6, d0.w), a1
        0x007797d8      720d           moveq 0xd, d1
        0x007797da      743c           moveq 0x3c, d2
        0x007797dc      9440           sub.w d0, d2
        0x007797de      b242           cmp.w d2, d1
    < 0x007797e0      6302           bls.b 0x7797e4
       0x007797e2      3202           move.w d2, d1
    > 0x007797e4      d313           add.b d1, (a3)
        0x007797e6      45fae19c       lea.l 0x777984(pc), a2
    > 0x007797ea      12da           move.b (a2)+, (a1)+
    < 0x007797ec      51c9fffc       dbra d1, 0x7797ea
     > 0x007797f0      4a2e0008       tst.b 0x8(a6)
       < 0x007797f4      6750           beq.b 0x779846
          0x007797f6      1013           move.b (a3), d0
          0x007797f8      0c000011       cmpi.b 0x11, d0
      < 0x007797fc      6528           bcs.b 0x779826
         0x007797fe      b006           cmp.b d6, d0
     < 0x00779800      6302           bls.b 0x779804
        0x00779802      1686           move.b d6, (a3)
     > 0x00779804      4241           clr.w d1
         0x00779806      1213           move.b (a3), d1
         0x00779808      43f610c2       lea.l -0x3e(a6, d1.w), a1
         0x0077980c      7406           moveq 0x6, d2
         0x0077980e      763c           moveq 0x3c, d3
         0x00779810      9641           sub.w d1, d3
         0x00779812      b443           cmp.w d3, d2
     < 0x00779814      6302           bls.b 0x779818
        0x00779816      3403           move.w d3, d2
     > 0x00779818      d513           add.b d2, (a3)
         0x0077981a      45fae176       lea.l 0x777992(pc), a2
     > 0x0077981e      12da           move.b (a2)+, (a1)+
     < 0x00779820      51cafffc       dbra d2, 0x77981e
     < 0x00779824      6020           bra.b 0x779846
     > 0x00779826      4240           clr.w d0
         0x00779828      1013           move.b (a3), d0
         0x0077982a      43f600c2       lea.l -0x3e(a6, d0.w), a1
         0x0077982e      720c           moveq 0xc, d1
         0x00779830      743c           moveq 0x3c, d2
         0x00779832      9440           sub.w d0, d2
         0x00779834      b242           cmp.w d2, d1
     < 0x00779836      6302           bls.b 0x77983a
        0x00779838      3202           move.w d2, d1
     > 0x0077983a      d313           add.b d1, (a3)
         0x0077983c      45fae15b       lea.l 0x777999(pc), a2
     > 0x00779840      12da           move.b (a2)+, (a1)+
     < 0x00779842      51c9fffc       dbra d1, 0x779840
     > 0x00779846      4240           clr.w d0
           0x00779848      1014           move.b (a4), d0
           0x0077984a      3200           move.w d0, d1
           0x0077984c      41ee000d       lea.l 0xd(a6), a0
           0x00779850      5301           subq.b 0x1, d1
       < 0x00779852      650a           bcs.b 0x77985e
          0x00779854      43eeff85       lea.l -0x7b(a6), a1
      > 0x00779858      10d9           move.b (a1)+, (a0)+
      < 0x0077985a      51c9fffc       dbra d1, 0x779858
       > 0x0077985e      1d40000c       move.b d0, 0xc(a6)
           0x00779862      522e000c       addq.b 0x1, 0xc(a6)
           0x00779866      7200           moveq 0x0, d1
           0x00779868      43fae13c       lea.l 0x7779a6(pc), a1
       > 0x0077986c      10d9           move.b (a1)+, (a0)+
       < 0x0077986e      51c9fffc       dbra d1, 0x77986c
           0x00779872      4240           clr.w d0
           0x00779874      102e000c       move.b 0xc(a6), d0
           0x00779878      41f6000d       lea.l 0xd(a6, d0.w), a0
           0x0077987c      4241           clr.w d1
           0x0077987e      1213           move.b (a3), d1
           0x00779880      d200           add.b d0, d1
       < 0x00779882      6406           bcc.b 0x77988a
          0x00779884      4eb900406c8a   jsr p_strovr
       > 0x0077988a      4241           clr.w d1
           0x0077988c      1213           move.b (a3), d1
           0x0077988e      343c00ff       move.w 0xff, d2
           0x00779892      9440           sub.w d0, d2
           0x00779894      b242           cmp.w d2, d1
       < 0x00779896      6302           bls.b 0x77989a
          0x00779898      3202           move.w d2, d1
       > 0x0077989a      d32e000c       add.b d1, 0xc(a6)
           0x0077989e      5301           subq.b 0x1, d1
       < 0x007798a0      650a           bcs.b 0x7798ac
          0x007798a2      43eeffc2       lea.l -0x3e(a6), a1
      > 0x007798a6      10d9           move.b (a1)+, (a0)+
      < 0x007798a8      51c9fffc       dbra d1, 0x7798a6
       > 0x007798ac      4cdf1f7f       movem.l (a7)+, d0-d6/a0-a4
           0x007798b0      4e5e           unlk a6
           0x007798b2      4e75           rts
            ; CALL XREF from PANEL.clear_temp @ 0x7748f6
 64: PANEL_STACK.clr_temp ();
           0x007798b4      4e56ffec       link.w a6, 0xffec
           0x007798b8      bfd5           cmpa.l (a5), a7
       < 0x007798ba      6206           bhi.b 0x7798c2
          0x007798bc      44fc0002       move.w 0x2, ccr
          0x007798c0      4e76           trapv
       > 0x007798c2      defc0014       adda.w 0x14, a7
           0x007798c6      48e780e0       movem.l d0/a0-a2, -(a7)
           0x007798ca      45f90087104d   lea.l 0x87104d, a2
           0x007798d0      4a12           tst.b (a2)
       < 0x007798d2      6718           beq.b 0x7798ec
          0x007798d4      41f900871002   lea.l 0x871002, a0
          0x007798da      43f900871028   lea.l 0x871028, a1
          0x007798e0      7008           moveq 0x8, d0
      > 0x007798e2      20d9           move.l (a1)+, (a0)+
      < 0x007798e4      51c8fffc       dbra d0, 0x7798e2
          0x007798e8      10d9           move.b (a1)+, (a0)+
          0x007798ea      4212           clr.b (a2)
       > 0x007798ec      4cdf0701       movem.l (a7)+, d0/a0-a2
           0x007798f0      4e5e           unlk a6
           0x007798f2      4e75           rts
            ; CALL XREF from PANEL.hit_clr_digit @ 0x774c2c
 30: PANEL_STACK.refresh_reqd ();
           0x007798f4      4e56fffc       link.w a6, 0xfffc
           0x007798f8      bfd5           cmpa.l (a5), a7
       < 0x007798fa      6206           bhi.b 0x779902
          0x007798fc      44fc0002       move.w 0x2, ccr
          0x00779900      4e76           trapv
       > 0x00779902      defc0004       adda.w 0x4, a7
           0x00779906      13fc00010087.  move.b 0x1, 0x870fca.l
           0x0077990e      4e5e           unlk a6
           0x00779910      4e75           rts
            ; XREFS(30)
 140: PANEL_STACK.set_on_air ();
           0x00779912      4e56ffd6       link.w a6, 0xffd6
           0x00779916      bfd5           cmpa.l (a5), a7
       < 0x00779918      6206           bhi.b 0x779920
          0x0077991a      44fc0002       move.w 0x2, ccr
          0x0077991e      4e76           trapv
       > 0x00779920      defc002a       adda.w 0x2a, a7
           0x00779924      48e7e0f0       movem.l d0-d2/a0-a3, -(a7)
           0x00779928      45ee000a       lea.l 0xa(a6), a2
           0x0077992c      47f90086eb1b   lea.l 0x86eb1b, a3
           0x00779932      7403           moveq 0x3, d2
           0x00779934      102e0008       move.b 0x8(a6), d0
           0x00779938      4880           ext.w d0
           0x0077993a      013ae06c       btst.l d0, 0x7779a8(pc)
       < 0x0077993e      6712           beq.b 0x779952
          0x00779940      41f90086ee42   lea.l 0x86ee42, a0
          0x00779946      224a           movea.l a2, a1
          0x00779948      723f           moveq 0x3f, d1
      > 0x0077994a      20d9           move.l (a1)+, (a0)+
      < 0x0077994c      51c9fffc       dbra d1, 0x77994a
      < 0x00779950      6010           bra.b 0x779962
      > 0x00779952      41f90086ef42   lea.l 0x86ef42, a0
          0x00779958      224a           movea.l a2, a1
          0x0077995a      723f           moveq 0x3f, d1
      > 0x0077995c      20d9           move.l (a1)+, (a0)+
      < 0x0077995e      51c9fffc       dbra d1, 0x77995c
      > 0x00779962      b002           cmp.b d2, d0
       < 0x00779964      6604           bne.b 0x77996a
          0x00779966      4213           clr.b (a3)
      < 0x00779968      6002           bra.b 0x77996c
      > 0x0077996a      1680           move.b d0, (a3)
      > 0x0077996c      b002           cmp.b d2, d0
       < 0x0077996e      660e           bne.b 0x77997e
          0x00779970      48780000       pea.l 0x0
          0x00779974      4852           pea.l (a2)
          0x00779976      4eb9007a202a   jsr SERIAL.write_ttwindow
      < 0x0077997c      600c           bra.b 0x77998a
      > 0x0077997e      48780000       pea.l 0x0
          0x00779982      4852           pea.l (a2)
          0x00779984      4eb9007a1f06   jsr SERIAL.write_window
      > 0x0077998a      504f           addq.w 0x8, a7
           0x0077998c      23fcfffffffb.  move.l 0xfffffffb, 0x86eb20.l
           0x00779996      4cdf0f07       movem.l (a7)+, d0-d2/a0-a3
           0x0077999a      4e5e           unlk a6
           0x0077999c      4e75           rts
            ; XREFS: CALL 0x00775b32  CALL 0x00778f9c  CALL 0x00779420  
            ; XREFS: CALL 0x007794de  CALL 0x00779b28  CALL 0x00779f86  
            ; XREFS: CALL 0x0077a816  CALL 0x0077c898  CALL 0x0077e098  
            ; XREFS: CALL 0x0077e142  CALL 0x0077fb90  CALL 0x00780580  
            ; XREFS: CALL 0x007805e6  CALL 0x0078079c  CALL 0x00781478  
 78: PANEL_STACK.set_next_on_air ();
           0x0077999e      4e56ffe8       link.w a6, 0xffe8
           0x007799a2      bfd5           cmpa.l (a5), a7
       < 0x007799a4      6206           bhi.b 0x7799ac
          0x007799a6      44fc0002       move.w 0x2, ccr
          0x007799aa      4e76           trapv
       > 0x007799ac      defc0018       adda.w 0x18, a7
           0x007799b0      48e780c0       movem.l d0/a0-a1, -(a7)
           0x007799b4      4a2e0008       tst.b 0x8(a6)
       < 0x007799b8      6612           bne.b 0x7799cc
          0x007799ba      41f90086f242   lea.l 0x86f242, a0
          0x007799c0      43ee000a       lea.l 0xa(a6), a1
          0x007799c4      703f           moveq 0x3f, d0
      > 0x007799c6      20d9           move.l (a1)+, (a0)+
      < 0x007799c8      51c8fffc       dbra d0, 0x7799c6
       > 0x007799cc      13ee00080086.  move.b 0x8(a6), 0x86f7bc.l
           0x007799d4      48780001       pea.l 0x1
           0x007799d8      486e000a       pea.l 0xa(a6)
           0x007799dc      4eb9007a1f06   jsr SERIAL.write_window
           0x007799e2      504f           addq.w 0x8, a7
           0x007799e4      4cdf0301       movem.l (a7)+, d0/a0-a1
           0x007799e8      4e5e           unlk a6
           0x007799ea      4e75           rts
            ; XREFS: CALL 0x00779ca8  CALL 0x0077a738  CALL 0x0077a8f6  
            ; XREFS: CALL 0x0077c884  CALL 0x0077cf88  CALL 0x0078062a  
 78: PANEL_STACK.set_output ();
           0x007799ec      4e56ffe8       link.w a6, 0xffe8
           0x007799f0      bfd5           cmpa.l (a5), a7
       < 0x007799f2      6206           bhi.b 0x7799fa
          0x007799f4      44fc0002       move.w 0x2, ccr
          0x007799f8      4e76           trapv
       > 0x007799fa      defc0018       adda.w 0x18, a7
           0x007799fe      48e780c0       movem.l d0/a0-a1, -(a7)
           0x00779a02      4a2e0008       tst.b 0x8(a6)
       < 0x00779a06      6612           bne.b 0x779a1a
          0x00779a08      41f90086f142   lea.l 0x86f142, a0
          0x00779a0e      43ee000a       lea.l 0xa(a6), a1
          0x00779a12      703f           moveq 0x3f, d0
      > 0x00779a14      20d9           move.l (a1)+, (a0)+
      < 0x00779a16      51c8fffc       dbra d0, 0x779a14
       > 0x00779a1a      13ee00080086.  move.b 0x8(a6), 0x86f7bb.l
           0x00779a22      48780009       pea.l 0x9
           0x00779a26      486e000a       pea.l 0xa(a6)
           0x00779a2a      4eb9007a1f06   jsr SERIAL.write_window
           0x00779a30      504f           addq.w 0x8, a7
           0x00779a32      4cdf0301       movem.l (a7)+, d0/a0-a1
           0x00779a36      4e5e           unlk a6
           0x00779a38      4e75           rts
            ; XREFS: CALL 0x00774b2e  CALL 0x00774b48  CALL 0x00774d4a  
            ; XREFS: CALL 0x007751f0  CALL 0x0077553a  CALL 0x00775d50  
            ; XREFS: CALL 0x0077af06  CALL 0x0077cff0  CALL 0x0077d89e  
            ; XREFS: CALL 0x00780e98  CALL 0x00780f7c  CALL 0x00781118  
 150: PANEL_STACK.error_on_air ();
           0x00779a3a      4e56feea       link.w a6, 0xfeea
           0x00779a3e      bfd5           cmpa.l (a5), a7
       < 0x00779a40      6206           bhi.b 0x779a48
          0x00779a42      44fc0002       move.w 0x2, ccr
          0x00779a46      4e76           trapv
       > 0x00779a48      defc0116       adda.w 0x116, a7
           0x00779a4c      48e780e0       movem.l d0/a0-a2, -(a7)
           0x00779a50      45f90086f442   lea.l 0x86f442, a2
           0x00779a56      9efc0100       suba.w 0x100, a7
           0x00779a5a      4eb900408ec0   jsr p_err_string
           0x00779a60      204a           movea.l a2, a0
           0x00779a62      703f           moveq 0x3f, d0
       > 0x00779a64      20df           move.l (a7)+, (a0)+
       < 0x00779a66      51c8fffc       dbra d0, 0x779a64
           0x00779a6a      3f3c0002       move.w 0x2, -(a7)
           0x00779a6e      9efc0100       suba.w 0x100, a7
           0x00779a72      204f           movea.l a7, a0
           0x00779a74      224a           movea.l a2, a1
           0x00779a76      703f           moveq 0x3f, d0
       > 0x00779a78      20d9           move.l (a1)+, (a0)+
       < 0x00779a7a      51c8fffc       dbra d0, 0x779a78
           0x00779a7e      4ebafc1e       jsr PANEL_STACK.set_last_error(pc)
           0x00779a82      544f           addq.w 0x2, a7
           0x00779a84      204f           movea.l a7, a0
           0x00779a86      224a           movea.l a2, a1
           0x00779a88      703f           moveq 0x3f, d0
       > 0x00779a8a      20d9           move.l (a1)+, (a0)+
       < 0x00779a8c      51c8fffc       dbra d0, 0x779a8a
           0x00779a90      1f3c0001       move.b 0x1, -(a7)
           0x00779a94      4ebafe7c       jsr PANEL_STACK.set_on_air(pc)
           0x00779a98      defc0102       adda.w 0x102, a7
           0x00779a9c      4a390086eb1a   tst.b 0x86eb1a
       < 0x00779aa2      671e           beq.b 0x779ac2
          0x00779aa4      48790086f443   pea.l 0x86f443
          0x00779aaa      42a7           clr.l -(a7)
          0x00779aac      1f520003       move.b (a2), 0x3(a7)
          0x00779ab0      2f17           move.l (a7), -(a7)
          0x00779ab2      4eb9004047ea   jsr p_wts_o
          0x00779ab8      defc000c       adda.w 0xc, a7
          0x00779abc      4eb900404946   jsr p_wtln_o
       > 0x00779ac2      4eb900404188   jsr p_Unlink
           0x00779ac8      4cdf0701       movem.l (a7)+, d0/a0-a2
           0x00779acc      4e5e           unlk a6
           0x00779ace      4e75           rts
            ; CALL XREFS from PANEL_STACK.do_clear_window @ 0x3864, 0x6710, 0x780758
 148: PANEL_STACK.error_next_on_a ();
           0x00779ad0      4e56fee6       link.w a6, 0xfee6
           0x00779ad4      bfd5           cmpa.l (a5), a7
       < 0x00779ad6      6206           bhi.b 0x779ade
          0x00779ad8      44fc0002       move.w 0x2, ccr
          0x00779adc      4e76           trapv
       > 0x00779ade      defc011a       adda.w 0x11a, a7
           0x00779ae2      48e7c0e0       movem.l d0-d1/a0-a2, -(a7)
           0x00779ae6      45f90086f442   lea.l 0x86f442, a2
           0x00779aec      7201           moveq 0x1, d1
           0x00779aee      9efc0100       suba.w 0x100, a7
           0x00779af2      4eb900408ec0   jsr p_err_string
           0x00779af8      204a           movea.l a2, a0
           0x00779afa      703f           moveq 0x3f, d0
       > 0x00779afc      20df           move.l (a7)+, (a0)+
       < 0x00779afe      51c8fffc       dbra d0, 0x779afc
           0x00779b02      3f01           move.w d1, -(a7)
           0x00779b04      9efc0100       suba.w 0x100, a7
           0x00779b08      204f           movea.l a7, a0
           0x00779b0a      224a           movea.l a2, a1
           0x00779b0c      703f           moveq 0x3f, d0
       > 0x00779b0e      20d9           move.l (a1)+, (a0)+
       < 0x00779b10      51c8fffc       dbra d0, 0x779b0e
           0x00779b14      4ebafb88       jsr PANEL_STACK.set_last_error(pc)
           0x00779b18      544f           addq.w 0x2, a7
           0x00779b1a      204f           movea.l a7, a0
           0x00779b1c      224a           movea.l a2, a1
           0x00779b1e      703f           moveq 0x3f, d0
       > 0x00779b20      20d9           move.l (a1)+, (a0)+
       < 0x00779b22      51c8fffc       dbra d0, 0x779b20
           0x00779b26      1f01           move.b d1, -(a7)
           0x00779b28      4ebafe74       jsr PANEL_STACK.set_next_on_air(pc)
           0x00779b2c      defc0102       adda.w 0x102, a7
           0x00779b30      4a390086eb1a   tst.b 0x86eb1a
       < 0x00779b36      671e           beq.b 0x779b56
          0x00779b38      48790086f443   pea.l 0x86f443
          0x00779b3e      42a7           clr.l -(a7)
          0x00779b40      1f520003       move.b (a2), 0x3(a7)
          0x00779b44      2f17           move.l (a7), -(a7)
          0x00779b46      4eb9004047ea   jsr p_wts_o
          0x00779b4c      defc000c       adda.w 0xc, a7
          0x00779b50      4eb900404946   jsr p_wtln_o
       > 0x00779b56      4eb900404188   jsr p_Unlink
           0x00779b5c      4cdf0703       movem.l (a7)+, d0-d1/a0-a2
           0x00779b60      4e5e           unlk a6
           0x00779b62      4e75           rts
            ; XREFS: CALL 0x00774a7e  CALL 0x007756f6  CALL 0x0077665c  
            ; XREFS: CALL 0x00779e64  CALL 0x0077bef6  CALL 0x0077e4d6  
            ; XREFS: CALL 0x0077f3b6  CALL 0x0077f5ee  CALL 0x0077f8ca  
            ; XREFS: CALL 0x00780dbe  CALL 0x00780e8e  CALL 0x00780f1c  
            ; XREFS: CALL 0x00780f72  CALL 0x007810e6  
 172: PANEL_STACK.format_on_air ();
           0x00779b64      4e56fce0       link.w a6, 0xfce0
           0x00779b68      bfd5           cmpa.l (a5), a7
       < 0x00779b6a      6206           bhi.b 0x779b72
          0x00779b6c      44fc0002       move.w 0x2, ccr
          0x00779b70      4e76           trapv
       > 0x00779b72      defc0220       adda.w 0x220, a7
           0x00779b76      48e7c0e0       movem.l d0-d1/a0-a2, -(a7)
           0x00779b7a      45eeff00       lea.l -0x100(a6), a2
           0x00779b7e      323c0100       move.w 0x100, d1
           0x00779b82      4eb900404154   jsr p_Link
           0x00779b88      2f2e010a       move.l 0x10a(a6), -(a7)
           0x00779b8c      4eb900404012   jsr p_Push
           0x00779b92      9efc00fc       suba.w 0xfc, a7
           0x00779b96      204f           movea.l a7, a0
           0x00779b98      43ee000a       lea.l 0xa(a6), a1
           0x00779b9c      703f           moveq 0x3f, d0
       > 0x00779b9e      20d9           move.l (a1)+, (a0)+
       < 0x00779ba0      51c8fffc       dbra d0, 0x779b9e
           0x00779ba4      9ec1           suba.w d1, a7
           0x00779ba6      486f0100       pea.l 0x100(a7)
           0x00779baa      4267           clr.w -(a7)
           0x00779bac      3f3c00ff       move.w 0xff, -(a7)
           0x00779bb0      4eb900408dda   jsr p_format
           0x00779bb6      504f           addq.w 0x8, a7
           0x00779bb8      204a           movea.l a2, a0
           0x00779bba      703f           moveq 0x3f, d0
       > 0x00779bbc      20df           move.l (a7)+, (a0)+
       < 0x00779bbe      51c8fffc       dbra d0, 0x779bbc
           0x00779bc2      dec1           adda.w d1, a7
           0x00779bc4      4a390086eb1a   tst.b 0x86eb1a
       < 0x00779bca      671c           beq.b 0x779be8
          0x00779bcc      486eff01       pea.l -0xff(a6)
          0x00779bd0      42a7           clr.l -(a7)
          0x00779bd2      1f520003       move.b (a2), 0x3(a7)
          0x00779bd6      2f17           move.l (a7), -(a7)
          0x00779bd8      4eb9004047ea   jsr p_wts_o
          0x00779bde      defc000c       adda.w 0xc, a7
          0x00779be2      4eb900404946   jsr p_wtln_o
       > 0x00779be8      9ec1           suba.w d1, a7
           0x00779bea      204f           movea.l a7, a0
           0x00779bec      224a           movea.l a2, a1
           0x00779bee      703f           moveq 0x3f, d0
       > 0x00779bf0      20d9           move.l (a1)+, (a0)+
       < 0x00779bf2      51c8fffc       dbra d0, 0x779bf0
           0x00779bf6      1f2e0008       move.b 0x8(a6), -(a7)
           0x00779bfa      4ebafd16       jsr PANEL_STACK.set_on_air(pc)
           0x00779bfe      defc0102       adda.w 0x102, a7
           0x00779c02      4eb900404188   jsr p_Unlink
           0x00779c08      4cdf0703       movem.l (a7)+, d0-d1/a0-a2
           0x00779c0c      4e5e           unlk a6
           0x00779c0e      4e75           rts
            ; XREFS: CALL 0x007749b4  CALL 0x00775206  CALL 0x00775244  
            ; XREFS: CALL 0x007754a2  CALL 0x00779f2a  CALL 0x007815d4  
 166: PANEL_STACK.show_fade ();
           0x00779c10      4e56fdda       link.w a6, 0xfdda
           0x00779c14      bfd5           cmpa.l (a5), a7
       < 0x00779c16      6206           bhi.b 0x779c1e
          0x00779c18      44fc0002       move.w 0x2, ccr
          0x00779c1c      4e76           trapv
       > 0x00779c1e      defc0126       adda.w 0x126, a7
           0x00779c22      48e7c0f0       movem.l d0-d1/a0-a3, -(a7)
           0x00779c26      45eeff00       lea.l -0x100(a6), a2
           0x00779c2a      47f900871002   lea.l 0x871002, a3
           0x00779c30      323c0102       move.w 0x102, d1
           0x00779c34      9efc0100       suba.w 0x100, a7
           0x00779c38      2f13           move.l (a3), -(a7)
           0x00779c3a      103900871006   move.b 0x871006, d0
           0x00779c40      4880           ext.w d0
           0x00779c42      41bc0002       chk.w 0x2, d0
           0x00779c46      1f00           move.b d0, -(a7)
           0x00779c48      4227           clr.b -(a7)
           0x00779c4a      1f2e0008       move.b 0x8(a6), -(a7)
           0x00779c4e      4eb9007994cc   jsr PANEL_TRANSIT.transit_string
           0x00779c54      defc000a       adda.w 0xa, a7
           0x00779c58      204a           movea.l a2, a0
           0x00779c5a      703f           moveq 0x3f, d0
       > 0x00779c5c      20df           move.l (a7)+, (a0)+
       < 0x00779c5e      51c8fffc       dbra d0, 0x779c5c
           0x00779c62      9efc0100       suba.w 0x100, a7
           0x00779c66      204f           movea.l a7, a0
           0x00779c68      224a           movea.l a2, a1
           0x00779c6a      703f           moveq 0x3f, d0
       > 0x00779c6c      20d9           move.l (a1)+, (a0)+
       < 0x00779c6e      51c8fffc       dbra d0, 0x779c6c
           0x00779c72      1f2e000a       move.b 0xa(a6), -(a7)
           0x00779c76      4ebafc9a       jsr PANEL_STACK.set_on_air(pc)
           0x00779c7a      dec1           adda.w d1, a7
           0x00779c7c      4852           pea.l (a2)
           0x00779c7e      103900871014   move.b 0x871014, d0
           0x00779c84      4880           ext.w d0
           0x00779c86      41bc0003       chk.w 0x3, d0
           0x00779c8a      1f00           move.b d0, -(a7)
           0x00779c8c      2f13           move.l (a3), -(a7)
           0x00779c8e      4227           clr.b -(a7)
           0x00779c90      4eb900783fb2   jsr PANEL_UTILS.op_string
           0x00779c96      9efc00f4       suba.w 0xf4, a7
           0x00779c9a      204f           movea.l a7, a0
           0x00779c9c      224a           movea.l a2, a1
           0x00779c9e      703f           moveq 0x3f, d0
       > 0x00779ca0      20d9           move.l (a1)+, (a0)+
       < 0x00779ca2      51c8fffc       dbra d0, 0x779ca0
           0x00779ca6      1f01           move.b d1, -(a7)
           0x00779ca8      4ebafd42       jsr PANEL_STACK.set_output(pc)
           0x00779cac      dec1           adda.w d1, a7
           0x00779cae      4cdf0f03       movem.l (a7)+, d0-d1/a0-a3
           0x00779cb2      4e5e           unlk a6
           0x00779cb4      4e75           rts
            ; CALL XREF from PANEL.hit_stack_fadek @ 0x775544
 280: PANEL_STACK.show_aux_fade ();
           ; var int32_t var_237ah @ a6-0x237a
           ; var int32_t var_2376h @ a6-0x2376
           ; var int32_t var_2374h @ a6-0x2374
           0x00779cb6      4e56fddc       link.w a6, 0xfddc
           0x00779cba      bfd5           cmpa.l (a5), a7
       < 0x00779cbc      6206           bhi.b 0x779cc4
          0x00779cbe      44fc0002       move.w 0x2, ccr
          0x00779cc2      4e76           trapv
       > 0x00779cc4      defc0124       adda.w 0x124, a7
           0x00779cc8      48e7e0e0       movem.l d0-d2/a0-a2, -(a7)
           0x00779ccc      45eeff00       lea.l -0x100(a6), a2
           0x00779cd0      203900871002   move.l 0x871002, d0
           0x00779cd6      0c80000003e8   cmpi.l 0x3e8, d0
       < 0x00779cdc      6f2a           ble.b 0x779d08
          0x00779cde      9efc0100       suba.w 0x100, a7
          0x00779ce2      3f3900871024   move.w 0x871024, -(a7)
          0x00779ce8      2f3900871020   move.l 0x871020, -(a7)
          0x00779cee      3f390087101e   move.w 0x87101e, -(a7)
          0x00779cf4      4eb9007833f8   jsr PANEL_UTILS.border_str
          0x00779cfa      504f           addq.w 0x8, a7
          0x00779cfc      204a           movea.l a2, a0
          0x00779cfe      703f           moveq 0x3f, d0
      > 0x00779d00      20df           move.l (a7)+, (a0)+
      < 0x00779d02      51c8fffc       dbra d0, 0x779d00
      < 0x00779d06      6032           bra.b 0x779d3a
      > 0x00779d08      103900871006   move.b 0x871006, d0
          0x00779d0e      0c000001       cmpi.b 0x1, d0
      < 0x00779d12      6610           bne.b 0x779d24
         0x00779d14      204a           movea.l a2, a0
         0x00779d16      43fadc91       lea.l 0x7779a9(pc), a1
         0x00779d1a      7008           moveq 0x8, d0
     > 0x00779d1c      10d9           move.b (a1)+, (a0)+
     < 0x00779d1e      51c8fffc       dbra d0, 0x779d1c
     < 0x00779d22      6016           bra.b 0x779d3a
     > 0x00779d24      24badc8c       move.l 0x7779b2(pc), (a2)
         0x00779d28      2d7adc8cff04   move.l 0x7779b6(pc), -0xfc(a6)
         0x00779d2e      3d7adc8aff08   move.w 0x7779ba(pc), -0xf8(a6)
         0x00779d34      1d7adc86ff0a   move.b 0x7779bc(pc), -0xf6(a6)
     > 0x00779d3a      4a2e0008       tst.b 0x8(a6)
       < 0x00779d3e      676a           beq.b 0x779daa
          0x00779d40      1012           move.b (a2), d0
          0x00779d42      0c00000f       cmpi.b 0xf, d0
      < 0x00779d46      6232           bhi.b 0x779d7a
         0x00779d48      4240           clr.w d0
         0x00779d4a      1012           move.b (a2), d0
         0x00779d4c      41eeff01       lea.l -0xff(a6), a0
         0x00779d50      d0c0           adda.w d0, a0
         0x00779d52      7211           moveq 0x11, d1
         0x00779d54      d200           add.b d0, d1
     < 0x00779d56      6406           bcc.b 0x779d5e
        0x00779d58      4eb900406c8a   jsr p_strovr
     > 0x00779d5e      7211           moveq 0x11, d1
         0x00779d60      343c00ff       move.w 0xff, d2
         0x00779d64      9440           sub.w d0, d2
         0x00779d66      b242           cmp.w d2, d1
     < 0x00779d68      6302           bls.b 0x779d6c
        0x00779d6a      3202           move.w d2, d1
     > 0x00779d6c      d312           add.b d1, (a2)
         0x00779d6e      43fadc4e       lea.l 0x7779be(pc), a1
     > 0x00779d72      10d9           move.b (a1)+, (a0)+
     < 0x00779d74      51c9fffc       dbra d1, 0x779d72
     < 0x00779d78      6030           bra.b 0x779daa
     > 0x00779d7a      4240           clr.w d0
         0x00779d7c      1012           move.b (a2), d0
         0x00779d7e      41eeff01       lea.l -0xff(a6), a0
         0x00779d82      d0c0           adda.w d0, a0
         0x00779d84      720b           moveq 0xb, d1
         0x00779d86      d200           add.b d0, d1
     < 0x00779d88      6406           bcc.b 0x779d90
        0x00779d8a      4eb900406c8a   jsr p_strovr
     > 0x00779d90      720b           moveq 0xb, d1
         0x00779d92      343c00ff       move.w 0xff, d2
         0x00779d96      9440           sub.w d0, d2
         0x00779d98      b242           cmp.w d2, d1
     < 0x00779d9a      6302           bls.b 0x779d9e
        0x00779d9c      3202           move.w d2, d1
     > 0x00779d9e      d312           add.b d1, (a2)
         0x00779da0      43fadc2e       lea.l 0x7779d0(pc), a1
     > 0x00779da4      10d9           move.b (a1)+, (a0)+
     < 0x00779da6      51c9fffc       dbra d1, 0x779da4
     > 0x00779daa      9efc0100       suba.w 0x100, a7
           0x00779dae      204f           movea.l a7, a0
           0x00779db0      224a           movea.l a2, a1
           0x00779db2      703f           moveq 0x3f, d0
       > 0x00779db4      20d9           move.l (a1)+, (a0)+
       < 0x00779db6      51c8fffc       dbra d0, 0x779db4
           0x00779dba      1f2e000a       move.b 0xa(a6), -(a7)
           0x00779dbe      4ebafb52       jsr PANEL_STACK.set_on_air(pc)
           0x00779dc2      defc0102       adda.w 0x102, a7
           0x00779dc6      4cdf0707       movem.l (a7)+, d0-d2/a0-a2
           0x00779dca      4e5e           unlk a6
           0x00779dcc      4e75           rts
            ; CALL XREF from PANEL.hit_take @ 0x774a58
            ; CALL XREF from PANEL.hit_output @ 0x7756c8
            ; CALL XREF from PANEL_STACK.show_cur_setup @ 0x779f3a
            ; CALL XREF from PANEL_STACK.do_show_output @ 0x78145c
 166: PANEL_STACK.show_alt_seq ();
           0x00779dce      4e56fcda       link.w a6, 0xfcda
           0x00779dd2      bfd5           cmpa.l (a5), a7
       < 0x00779dd4      6206           bhi.b 0x779ddc
          0x00779dd6      44fc0002       move.w 0x2, ccr
          0x00779dda      4e76           trapv
       > 0x00779ddc      defc0122       adda.w 0x122, a7
           0x00779de0      48e7e0e0       movem.l d0-d2/a0-a2, -(a7)
           0x00779de4      45eefdfc       lea.l -0x204(a6), a2
           0x00779de8      9efc000c       suba.w 0xc, a7
           0x00779dec      204f           movea.l a7, a0
           0x00779dee      43f900871007   lea.l 0x871007, a1
           0x00779df4      7007           moveq 0x7, d0
       > 0x00779df6      10d9           move.b (a1)+, (a0)+
       < 0x00779df8      51c8fffc       dbra d0, 0x779df6
           0x00779dfc      4eb900783e1c   jsr PANEL_UTILS.alt_seq_number
           0x00779e02      504f           addq.w 0x8, a7
           0x00779e04      2d5ffffc       move.l (a7)+, -0x4(a6)
           0x00779e08      204a           movea.l a2, a0
           0x00779e0a      43fadbcf       lea.l 0x7779db(pc), a1
           0x00779e0e      700f           moveq 0xf, d0
       > 0x00779e10      10d9           move.b (a1)+, (a0)+
       < 0x00779e12      51c8fffc       dbra d0, 0x779e10
           0x00779e16      4a2e0008       tst.b 0x8(a6)
       < 0x00779e1a      6730           beq.b 0x779e4c
          0x00779e1c      4240           clr.w d0
          0x00779e1e      1012           move.b (a2), d0
          0x00779e20      41eefdfd       lea.l -0x203(a6), a0
          0x00779e24      d0c0           adda.w d0, a0
          0x00779e26      7211           moveq 0x11, d1
          0x00779e28      d200           add.b d0, d1
      < 0x00779e2a      6406           bcc.b 0x779e32
         0x00779e2c      4eb900406c8a   jsr p_strovr
      > 0x00779e32      7211           moveq 0x11, d1
          0x00779e34      343c00ff       move.w 0xff, d2
          0x00779e38      9440           sub.w d0, d2
          0x00779e3a      b242           cmp.w d2, d1
      < 0x00779e3c      6302           bls.b 0x779e40
         0x00779e3e      3202           move.w d2, d1
      > 0x00779e40      d312           add.b d1, (a2)
          0x00779e42      43fadba8       lea.l 0x7779ec(pc), a1
      > 0x00779e46      10d9           move.b (a1)+, (a0)+
      < 0x00779e48      51c9fffc       dbra d1, 0x779e46
       > 0x00779e4c      2f2efffc       move.l -0x4(a6), -(a7)
           0x00779e50      9efc0100       suba.w 0x100, a7
           0x00779e54      204f           movea.l a7, a0
           0x00779e56      224a           movea.l a2, a1
           0x00779e58      703f           moveq 0x3f, d0
       > 0x00779e5a      20d9           move.l (a1)+, (a0)+
       < 0x00779e5c      51c8fffc       dbra d0, 0x779e5a
           0x00779e60      1f2e000a       move.b 0xa(a6), -(a7)
           0x00779e64      4ebafcfe       jsr PANEL_STACK.format_on_air(pc)
           0x00779e68      defc0106       adda.w 0x106, a7
           0x00779e6c      4cdf0707       movem.l (a7)+, d0-d2/a0-a2
           0x00779e70      4e5e           unlk a6
           0x00779e72      4e75           rts
            ; CALL XREF from PANEL.hit_take @ 0x774978
            ; CALL XREF from PANEL.hit_fadekey @ 0x77514a
            ; CALL XREF from PANEL.hit_output @ 0x7755ce
            ; CALL XREF from PANEL_STACK.show_cur_setup @ 0x779f48
 130: PANEL_STACK.show_dontcare ();
           0x00779e74      4e56fcde       link.w a6, 0xfcde
           0x00779e78      bfd5           cmpa.l (a5), a7
       < 0x00779e7a      6206           bhi.b 0x779e82
          0x00779e7c      44fc0002       move.w 0x2, ccr
          0x00779e80      4e76           trapv
       > 0x00779e82      defc011e       adda.w 0x11e, a7
           0x00779e86      48e7e0e0       movem.l d0-d2/a0-a2, -(a7)
           0x00779e8a      45eefdfc       lea.l -0x204(a6), a2
           0x00779e8e      204a           movea.l a2, a0
           0x00779e90      43fad951       lea.l 0x7777e3(pc), a1
           0x00779e94      700a           moveq 0xa, d0
       > 0x00779e96      10d9           move.b (a1)+, (a0)+
       < 0x00779e98      51c8fffc       dbra d0, 0x779e96
           0x00779e9c      4a2e0008       tst.b 0x8(a6)
       < 0x00779ea0      6730           beq.b 0x779ed2
          0x00779ea2      4240           clr.w d0
          0x00779ea4      1012           move.b (a2), d0
          0x00779ea6      41eefdfd       lea.l -0x203(a6), a0
          0x00779eaa      d0c0           adda.w d0, a0
          0x00779eac      7211           moveq 0x11, d1
          0x00779eae      d200           add.b d0, d1
      < 0x00779eb0      6406           bcc.b 0x779eb8
         0x00779eb2      4eb900406c8a   jsr p_strovr
      > 0x00779eb8      7211           moveq 0x11, d1
          0x00779eba      343c00ff       move.w 0xff, d2
          0x00779ebe      9440           sub.w d0, d2
          0x00779ec0      b242           cmp.w d2, d1
      < 0x00779ec2      6302           bls.b 0x779ec6
         0x00779ec4      3202           move.w d2, d1
      > 0x00779ec6      d312           add.b d1, (a2)
          0x00779ec8      43fadb34       lea.l 0x7779fe(pc), a1
      > 0x00779ecc      10d9           move.b (a1)+, (a0)+
      < 0x00779ece      51c9fffc       dbra d1, 0x779ecc
       > 0x00779ed2      9efc0100       suba.w 0x100, a7
           0x00779ed6      204f           movea.l a7, a0
           0x00779ed8      224a           movea.l a2, a1
           0x00779eda      703f           moveq 0x3f, d0
       > 0x00779edc      20d9           move.l (a1)+, (a0)+
       < 0x00779ede      51c8fffc       dbra d0, 0x779edc
           0x00779ee2      1f2e000a       move.b 0xa(a6), -(a7)
           0x00779ee6      4ebafa2a       jsr PANEL_STACK.set_on_air(pc)
           0x00779eea      defc0102       adda.w 0x102, a7
           0x00779eee      4cdf0707       movem.l (a7)+, d0-d2/a0-a2
           0x00779ef2      4e5e           unlk a6
           0x00779ef4      4e75           rts
            ; CALL XREF from PANEL.hit_clr_digit @ 0x774c26
 342: PANEL_STACK.show_cur_setup ();
           ; var int32_t var_25ceh @ a6-0x25ce
           ; var int32_t var_25ach @ a6-0x25ac
           0x00779ef6      4e56fdd8       link.w a6, 0xfdd8
           0x00779efa      bfd5           cmpa.l (a5), a7
       < 0x00779efc      6206           bhi.b 0x779f04
          0x00779efe      44fc0002       move.w 0x2, ccr
          0x00779f02      4e76           trapv
       > 0x00779f04      defc0128       adda.w 0x128, a7
           0x00779f08      48e7e0f8       movem.l d0-d2/a0-a4, -(a7)
           0x00779f0c      45eeff00       lea.l -0x100(a6), a2
           0x00779f10      47f9007a1f06   lea.l SERIAL.write_window, a3
           0x00779f16      49f900871014   lea.l 0x871014, a4
           0x00779f1c      323c0102       move.w 0x102, d1
           0x00779f20      7401           moveq 0x1, d2
           0x00779f22      4a14           tst.b (a4)
       < 0x00779f24      660a           bne.b 0x779f30
          0x00779f26      1f01           move.b d1, -(a7)
          0x00779f28      4227           clr.b -(a7)
          0x00779f2a      4ebafce4       jsr PANEL_STACK.show_fade(pc)
      < 0x00779f2e      601c           bra.b 0x779f4c
      > 0x00779f30      1014           move.b (a4), d0
          0x00779f32      b002           cmp.b d2, d0
      < 0x00779f34      660a           bne.b 0x779f40
         0x00779f36      1f01           move.b d1, -(a7)
         0x00779f38      4227           clr.b -(a7)
         0x00779f3a      4ebafe92       jsr PANEL_STACK.show_alt_seq(pc)
     < 0x00779f3e      600c           bra.b 0x779f4c
     > 0x00779f40      b001           cmp.b d1, d0
     < 0x00779f42      660a           bne.b 0x779f4e
        0x00779f44      1f01           move.b d1, -(a7)
        0x00779f46      4227           clr.b -(a7)
        0x00779f48      4ebaff2a       jsr PANEL_STACK.show_dontcare(pc)
     > 0x00779f4c      584f           addq.w 0x4, a7
       > 0x00779f4e      9efc0100       suba.w 0x100, a7
           0x00779f52      3f390087101c   move.w 0x87101c, -(a7)
           0x00779f58      103900871026   move.b 0x871026, d0
           0x00779f5e      4880           ext.w d0
           0x00779f60      4182           chk.w d2, d0
           0x00779f62      1f00           move.b d0, -(a7)
           0x00779f64      4ebaf770       jsr PANEL_STACK.preset_display_(pc)
           0x00779f68      584f           addq.w 0x4, a7
           0x00779f6a      204a           movea.l a2, a0
           0x00779f6c      703f           moveq 0x3f, d0
       > 0x00779f6e      20df           move.l (a7)+, (a0)+
       < 0x00779f70      51c8fffc       dbra d0, 0x779f6e
           0x00779f74      9efc0100       suba.w 0x100, a7
           0x00779f78      204f           movea.l a7, a0
           0x00779f7a      224a           movea.l a2, a1
           0x00779f7c      703f           moveq 0x3f, d0
       > 0x00779f7e      20d9           move.l (a1)+, (a0)+
       < 0x00779f80      51c8fffc       dbra d0, 0x779f7e
           0x00779f84      1f01           move.b d1, -(a7)
           0x00779f86      4ebafa16       jsr PANEL_STACK.set_next_on_air(pc)
           0x00779f8a      dec1           adda.w d1, a7
           0x00779f8c      20390087104e   move.l 0x87104e, d0
           0x00779f92      0c807fffffff   cmpi.l 0x7fffffff, d0
       < 0x00779f98      670000aa       beq.w 0x77a044
          0x00779f9c      1f02           move.b d2, -(a7)
          0x00779f9e      4eb9007a22bc   jsr SERIAL.set_test_mode
          0x00779fa4      544f           addq.w 0x2, a7
          0x00779fa6      204a           movea.l a2, a0
          0x00779fa8      43fada65       lea.l 0x777a0f(pc), a1
          0x00779fac      7004           moveq 0x4, d0
      > 0x00779fae      10d9           move.b (a1)+, (a0)+
      < 0x00779fb0      51c8fffc       dbra d0, 0x779fae
          0x00779fb4      48780002       pea.l 0x2
          0x00779fb8      4852           pea.l (a2)
          0x00779fba      4e93           jsr (a3)                    ; fcn.0000000c
          0x00779fbc      504f           addq.w 0x8, a7
          0x00779fbe      24bada54       move.l 0x777a14(pc), (a2)
          0x00779fc2      1d7ada54ff04   move.b 0x777a18(pc), -0xfc(a6)
          0x00779fc8      48780003       pea.l 0x3
          0x00779fcc      4852           pea.l (a2)
          0x00779fce      4e93           jsr (a3)                    ; fcn.0000000c
          0x00779fd0      504f           addq.w 0x8, a7
          0x00779fd2      204a           movea.l a2, a0
          0x00779fd4      43fada43       lea.l 0x777a19(pc), a1
          0x00779fd8      7004           moveq 0x4, d0
      > 0x00779fda      10d9           move.b (a1)+, (a0)+
      < 0x00779fdc      51c8fffc       dbra d0, 0x779fda
          0x00779fe0      48780004       pea.l 0x4
          0x00779fe4      4852           pea.l (a2)
          0x00779fe6      4e93           jsr (a3)                    ; fcn.0000000c
          0x00779fe8      504f           addq.w 0x8, a7
          0x00779fea      24bada32       move.l 0x777a1e(pc), (a2)
          0x00779fee      1d7ada32ff04   move.b 0x777a22(pc), -0xfc(a6)
          0x00779ff4      48780005       pea.l 0x5
          0x00779ff8      4852           pea.l (a2)
          0x00779ffa      4e93           jsr (a3)                    ; fcn.0000000c
          0x00779ffc      504f           addq.w 0x8, a7
          0x00779ffe      204a           movea.l a2, a0
          0x0077a000      43fada21       lea.l 0x777a23(pc), a1
          0x0077a004      7004           moveq 0x4, d0
      > 0x0077a006      10d9           move.b (a1)+, (a0)+
      < 0x0077a008      51c8fffc       dbra d0, 0x77a006
          0x0077a00c      48780006       pea.l 0x6
          0x0077a010      4852           pea.l (a2)
          0x0077a012      4e93           jsr (a3)                    ; fcn.0000000c
          0x0077a014      584f           addq.w 0x4, a7
          0x0077a016      2eb90087104e   move.l 0x87104e, (a7)
          0x0077a01c      48780004       pea.l 0x4
          0x0077a020      4852           pea.l (a2)
          0x0077a022      3f3c00ff       move.w 0xff, -(a7)
          0x0077a026      4eb900406e56   jsr p_strI1
          0x0077a02c      defc000e       adda.w 0xe, a7
          0x0077a030      48780007       pea.l 0x7
          0x0077a034      4852           pea.l (a2)
          0x0077a036      4e93           jsr (a3)                    ; fcn.0000000c
          0x0077a038      5c4f           addq.w 0x6, a7
          0x0077a03a      4217           clr.b (a7)
          0x0077a03c      4eb9007a22bc   jsr SERIAL.set_test_mode
          0x0077a042      544f           addq.w 0x2, a7
       > 0x0077a044      4cdf1f07       movem.l (a7)+, d0-d2/a0-a4
           0x0077a048      4e5e           unlk a6
           0x0077a04a      4e75           rts
            ; CALL XREF from PANEL_STACK.pre_fetch @ 0x77b3f8
            ; CALL XREF from loc.0077bf92 @ 0x77bfb4
            ; CALL XREF from PANEL_STACK.do_take @ 0x77cf02
            ; CALL XREF from PANEL_STACK.do_wdw_digit_pu @ 0x77fa18
            ; CALL XREF from PANEL_STACK.rm_set_stack @ 0x781e2e
 484: PANEL_STACK.make_current ();
           ; var int32_t var_275ah @ a6-0x275a
           ; var int32_t var_2758h @ a6-0x2758
           ; var int32_t var_2756h @ a6-0x2756
           0x0077a04c      4e56fec0       link.w a6, 0xfec0
           0x0077a050      bfd5           cmpa.l (a5), a7
       < 0x0077a052      6206           bhi.b 0x77a05a
          0x0077a054      44fc0002       move.w 0x2, ccr
          0x0077a058      4e76           trapv
       > 0x0077a05a      defc0040       adda.w 0x40, a7
           0x0077a05e      48e7f8f0       movem.l d0-d4/a0-a3, -(a7)
           0x0077a062      47f900871016   lea.l 0x871016, a3
           0x0077a068      7401           moveq 0x1, d2
           0x0077a06a      760c           moveq 0xc, d3
           0x0077a06c      7802           moveq 0x2, d4
           0x0077a06e      206e000a       movea.l 0xa(a6), a0
           0x0077a072      103900871014   move.b 0x871014, d0
           0x0077a078      4880           ext.w d0
           0x0077a07a      41bc0003       chk.w 0x3, d0
           0x0077a07e      11400002       move.b d0, 0x2(a0)
           0x0077a082      4a00           tst.b d0
       < 0x0077a084      665a           bne.b 0x77a0e0
          0x0077a086      223900871002   move.l 0x871002, d1
          0x0077a08c      0481ffff8000   subi.l 0xffff8000, d1
          0x0077a092      0c810000ffff   cmpi.l 0xffff, d1
      < 0x0077a098      6302           bls.b 0x77a09c
         0x0077a09a      4e4f           trap 0xf
      > 0x0077a09c      0681ffff8000   addi.l 0xffff8000, d1
          0x0077a0a2      31410004       move.w d1, 0x4(a0)
          0x0077a0a6      123900871006   move.b 0x871006, d1
          0x0077a0ac      4881           ext.w d1
          0x0077a0ae      4384           chk.w d4, d1
          0x0077a0b0      11410006       move.b d1, 0x6(a0)
          0x0077a0b4      43e80007       lea.l 0x7(a0), a1
          0x0077a0b8      45fad6e7       lea.l 0x7777a1(pc), a2
          0x0077a0bc      7207           moveq 0x7, d1
      > 0x0077a0be      12da           move.b (a2)+, (a1)+
      < 0x0077a0c0      51c9fffc       dbra d1, 0x77a0be
          0x0077a0c4      43e80016       lea.l 0x16(a0), a1
          0x0077a0c8      45f90087101e   lea.l 0x87101e, a2
          0x0077a0ce      7205           moveq 0x5, d1
      > 0x0077a0d0      12da           move.b (a2)+, (a1)+
      < 0x0077a0d2      51c9fffc       dbra d1, 0x77a0d0
          0x0077a0d6      317900871024.  move.w 0x871024, 0x14(a0)
      < 0x0077a0de      601e           bra.b 0x77a0fe
      > 0x0077a0e0      b002           cmp.b d2, d0
      < 0x0077a0e2      661a           bne.b 0x77a0fe
         0x0077a0e4      42680004       clr.w 0x4(a0)
         0x0077a0e8      42280006       clr.b 0x6(a0)
         0x0077a0ec      43e80007       lea.l 0x7(a0), a1
         0x0077a0f0      45f900871007   lea.l 0x871007, a2
         0x0077a0f6      7207           moveq 0x7, d1
     > 0x0077a0f8      12da           move.b (a2)+, (a1)+
     < 0x0077a0fa      51c9fffc       dbra d1, 0x77a0f8
      > 0x0077a0fe      4a2e0008       tst.b 0x8(a6)
       < 0x0077a102      677a           beq.b 0x77a17e
          0x0077a104      11530010       move.b (a3), 0x10(a0)
          0x0077a108      117900871017.  move.b 0x871017, 0x11(a0)
          0x0077a110      117900871018.  move.b 0x871018, 0x12(a0)
          0x0077a118      117900871019.  move.b 0x871019, 0x13(a0)
          0x0077a120      10280024       move.b 0x24(a0), d0
          0x0077a124      0c000004       cmpi.b 0x4, d0
      < 0x0077a128      6708           beq.b 0x77a132
         0x0077a12a      0c000008       cmpi.b 0x8, d0
     < 0x0077a12e      670c           beq.b 0x77a13c
    < 0x0077a130      604c           bra.b 0x77a17e
    > 0x0077a132      31790087101a.  move.w 0x87101a, 0x26(a0)
    < 0x0077a13a      6042           bra.b 0x77a17e
    > 0x0077a13c      117ad8ea0010   move.b 0x777a28(pc), 0x10(a0)
        0x0077a142      117ad8e50011   move.b 0x777a29(pc), 0x11(a0)
        0x0077a148      117ad8e00012   move.b 0x777a2a(pc), 0x12(a0)
        0x0077a14e      117ad8db0013   move.b 0x777a2b(pc), 0x13(a0)
        0x0077a154      554f           subq.w 0x2, a7
        0x0077a156      4eb9007a292c   jsr SERIAL.computer_contro
        0x0077a15c      4a1f           tst.b (a7)+
    < 0x0077a15e      670e           beq.b 0x77a16e
       0x0077a160      1013           move.b (a3), d0
       0x0077a162      b002           cmp.b d2, d0
   < 0x0077a164      6606           bne.b 0x77a16c
  > 0x0077a166      31420026       move.w d2, 0x26(a0)
 < 0x0077a16a      6012           bra.b 0x77a17e
 > 0x0077a16c      600c           bra.b 0x77a17a
  > 0x0077a16e      1013           move.b (a3), d0
      0x0077a170      b0390086f7be   cmp.b 0x86f7be, d0
  < 0x0077a176      6702           beq.b 0x77a17a
 < 0x0077a178      60ec           bra.b 0x77a166
 > 0x0077a17a      42680026       clr.w 0x26(a0)
 > 0x0077a17e      4a390086eb1a   tst.b 0x86eb1a
       < 0x0077a184      670000a2       beq.w 0x77a228
          0x0077a188      487ad8a3       pea.l 0x777a2d(pc)
          0x0077a18c      48780019       pea.l 0x19
          0x0077a190      2f17           move.l (a7), -(a7)
          0x0077a192      4eb9004047ea   jsr p_wts_o
          0x0077a198      dec3           adda.w d3, a7
          0x0077a19a      2d7ad8aaff00   move.l 0x777a46(pc), -0x100(a6)
          0x0077a1a0      2d7ad8a8ff04   move.l 0x777a4a(pc), -0xfc(a6)
          0x0077a1a6      1d7ad8a6ff08   move.b 0x777a4e(pc), -0xf8(a6)
          0x0077a1ac      4a280002       tst.b 0x2(a0)
      < 0x0077a1b0      661c           bne.b 0x77a1ce
         0x0077a1b2      486eff00       pea.l -0x100(a6)
         0x0077a1b6      1f280002       move.b 0x2(a0), -(a7)
         0x0077a1ba      30280004       move.w 0x4(a0), d0
         0x0077a1be      48c0           ext.l d0
         0x0077a1c0      2f00           move.l d0, -(a7)
         0x0077a1c2      1f02           move.b d2, -(a7)
     > 0x0077a1c4      4eb900783fb2   jsr PANEL_UTILS.op_string
        0x0077a1ca      dec3           adda.w d3, a7
    < 0x0077a1cc      603e           bra.b 0x77a20c
    > 0x0077a1ce      10280002       move.b 0x2(a0), d0
        0x0077a1d2      b002           cmp.b d2, d0
    < 0x0077a1d4      6622           bne.b 0x77a1f8
       0x0077a1d6      486eff00       pea.l -0x100(a6)
       0x0077a1da      1f00           move.b d0, -(a7)
       0x0077a1dc      9ec3           suba.w d3, a7
       0x0077a1de      224f           movea.l a7, a1
       0x0077a1e0      45e80007       lea.l 0x7(a0), a2
       0x0077a1e4      7207           moveq 0x7, d1
   > 0x0077a1e6      12da           move.b (a2)+, (a1)+
   < 0x0077a1e8      51c9fffc       dbra d1, 0x77a1e6
       0x0077a1ec      4eb900783e1c   jsr PANEL_UTILS.alt_seq_number
       0x0077a1f2      5c4f           addq.w 0x6, a7
       0x0077a1f4      4217           clr.b (a7)
    < 0x0077a1f6      60cc           bra.b 0x77a1c4
     > 0x0077a1f8      b004           cmp.b d4, d0
     < 0x0077a1fa      6610           bne.b 0x77a20c
        0x0077a1fc      43eeff00       lea.l -0x100(a6), a1
        0x0077a200      45fad84d       lea.l 0x777a4f(pc), a2
        0x0077a204      720c           moveq 0xc, d1
    > 0x0077a206      12da           move.b (a2)+, (a1)+
    < 0x0077a208      51c9fffc       dbra d1, 0x77a206
    > 0x0077a20c      486eff01       pea.l -0xff(a6)
          0x0077a210      42a7           clr.l -(a7)
          0x0077a212      1f6eff000003   move.b -0x100(a6), 0x3(a7)
          0x0077a218      2f17           move.l (a7), -(a7)
          0x0077a21a      4eb9004047ea   jsr p_wts_o
          0x0077a220      dec3           adda.w d3, a7
          0x0077a222      4eb900404946   jsr p_wtln_o
       > 0x0077a228      4cdf0f1f       movem.l (a7)+, d0-d4/a0-a3
           0x0077a22c      4e5e           unlk a6
           0x0077a22e      4e75           rts
            ; CALL XREF from PANEL_STACK.pre_fetch @ 0x77b40a
            ; CALL XREF from loc.0077bf92 @ 0x77c03e
            ; CALL XREF from PANEL_STACK.initialise_glob @ 0x781ad8
 182: PANEL_STACK.make_editonly ();
           0x0077a230      4e56fed2       link.w a6, 0xfed2
           0x0077a234      bfd5           cmpa.l (a5), a7
       < 0x0077a236      6206           bhi.b 0x77a23e
          0x0077a238      44fc0002       move.w 0x2, ccr
          0x0077a23c      4e76           trapv
       > 0x0077a23e      defc002e       adda.w 0x2e, a7
           0x0077a242      48e7c0e0       movem.l d0-d1/a0-a2, -(a7)
           0x0077a246      720c           moveq 0xc, d1
           0x0077a248      206e0008       movea.l 0x8(a6), a0
           0x0077a24c      117c00010002   move.b 0x1, 0x2(a0)
           0x0077a252      42680004       clr.w 0x4(a0)
           0x0077a256      42280006       clr.b 0x6(a0)
           0x0077a25a      43e80007       lea.l 0x7(a0), a1
           0x0077a25e      45fad7fc       lea.l 0x777a5c(pc), a2
           0x0077a262      7007           moveq 0x7, d0
       > 0x0077a264      12da           move.b (a2)+, (a1)+
       < 0x0077a266      51c8fffc       dbra d0, 0x77a264
           0x0077a26a      10280024       move.b 0x24(a0), d0
           0x0077a26e      0c000004       cmpi.b 0x4, d0
       < 0x0077a272      6702           beq.b 0x77a276
      < 0x0077a274      6008           bra.b 0x77a27e
      > 0x0077a276      31790087101a.  move.w 0x87101a, 0x26(a0)
      > 0x0077a27e      4a390086eb1a   tst.b 0x86eb1a
       < 0x0077a284      6758           beq.b 0x77a2de
          0x0077a286      487ad7dd       pea.l 0x777a65(pc)
          0x0077a28a      48780024       pea.l 0x24
          0x0077a28e      2f17           move.l (a7), -(a7)
          0x0077a290      4eb9004047ea   jsr p_wts_o
          0x0077a296      dec1           adda.w d1, a7
          0x0077a298      486eff00       pea.l -0x100(a6)
          0x0077a29c      1f280002       move.b 0x2(a0), -(a7)
          0x0077a2a0      9ec1           suba.w d1, a7
          0x0077a2a2      224f           movea.l a7, a1
          0x0077a2a4      45e80007       lea.l 0x7(a0), a2
          0x0077a2a8      7007           moveq 0x7, d0
      > 0x0077a2aa      12da           move.b (a2)+, (a1)+
      < 0x0077a2ac      51c8fffc       dbra d0, 0x77a2aa
          0x0077a2b0      4eb900783e1c   jsr PANEL_UTILS.alt_seq_number
          0x0077a2b6      5c4f           addq.w 0x6, a7
          0x0077a2b8      4217           clr.b (a7)
          0x0077a2ba      4eb900783fb2   jsr PANEL_UTILS.op_string
          0x0077a2c0      dec1           adda.w d1, a7
          0x0077a2c2      486eff01       pea.l -0xff(a6)
          0x0077a2c6      42a7           clr.l -(a7)
          0x0077a2c8      1f6eff000003   move.b -0x100(a6), 0x3(a7)
          0x0077a2ce      2f17           move.l (a7), -(a7)
          0x0077a2d0      4eb9004047ea   jsr p_wts_o
          0x0077a2d6      dec1           adda.w d1, a7
          0x0077a2d8      4eb900404946   jsr p_wtln_o
       > 0x0077a2de      4cdf0703       movem.l (a7)+, d0-d1/a0-a2
           0x0077a2e2      4e5e           unlk a6
           0x0077a2e4      4e75           rts
            ; CALL XREFS from PANEL_STACK.do_get_crnt @ 0x3804, 0x77f626
 596: PANEL_STACK.set_crnt_from_e ();
           ; var int32_t var_8h @ a7+0x8
           0x0077a2e6      4e56feaa       link.w a6, 0xfeaa
           0x0077a2ea      bfd5           cmpa.l (a5), a7
       < 0x0077a2ec      6206           bhi.b 0x77a2f4
          0x0077a2ee      44fc0002       move.w 0x2, ccr
          0x0077a2f2      4e76           trapv
       > 0x0077a2f4      defc0156       adda.w 0x156, a7
           0x0077a2f8      48e7fff8       movem.l d0-d7/a0-a4, -(a7)
           0x0077a2fc      47f9004047ea   lea.l p_wts_o, a3
           0x0077a302      49f90086eb1a   lea.l 0x86eb1a, a4
           0x0077a308      740c           moveq 0xc, d2
           0x0077a30a      7a03           moveq 0x3, d5
           0x0077a30c      7c01           moveq 0x1, d6
           0x0077a30e      7e02           moveq 0x2, d7
           0x0077a310      202e0008       move.l 0x8(a6), d0
           0x0077a314      0480ffffff9c   subi.l 0xffffff9c, d0
           0x0077a31a      0c80000000c7   cmpi.l 0xc7, d0
       < 0x0077a320      6302           bls.b 0x77a324
          0x0077a322      4e4f           trap 0xf
       > 0x0077a324      2800           move.l d0, d4
           0x0077a326      7636           moveq 0x36, d3
           0x0077a328      4eb900406a74   jsr fcn.00406a74
           0x0077a32e      20790086eb32   movea.l 0x86eb32, a0
           0x0077a334      b1e8fffc       cmpa.l -0x4(a0), a0
       < 0x0077a338      6702           beq.b 0x77a33c
          0x0077a33a      4e4d           trap 0xd
       > 0x0077a33c      4a30480c       tst.b 0xc(a0, d4.l)
       < 0x0077a340      660000a6       bne.w 0x77a3e8
          0x0077a344      4a14           tst.b (a4)
      < 0x0077a346      6736           beq.b 0x77a37e
         0x0077a348      487ad740       pea.l 0x777a8a(pc)
         0x0077a34c      48780015       pea.l 0x15
         0x0077a350      2f17           move.l (a7), -(a7)
         0x0077a352      4e93           jsr (a3)                    ; fcn.0000000c
         0x0077a354      dec2           adda.w d2, a7
         0x0077a356      3030480e       move.w 0xe(a0, d4.l), d0
         0x0077a35a      48c0           ext.l d0
         0x0077a35c      2f00           move.l d0, -(a7)
         0x0077a35e      48780000       pea.l 0x0
         0x0077a362      4eb9004070e4   jsr p_wti_o
         0x0077a368      504f           addq.w 0x8, a7
         0x0077a36a      487ad734       pea.l 0x777aa0(pc)
         0x0077a36e      48780008       pea.l 0x8
         0x0077a372      2f17           move.l (a7), -(a7)
         0x0077a374      4e93           jsr (a3)                    ; fcn.0000000c
         0x0077a376      dec2           adda.w d2, a7
         0x0077a378      4eb900404946   jsr p_wtln_o
      > 0x0077a37e      1030480c       move.b 0xc(a0, d4.l), d0
          0x0077a382      4880           ext.w d0
          0x0077a384      4185           chk.w d5, d0
          0x0077a386      13c000871014   move.b d0, 0x871014
          0x0077a38c      10304810       move.b 0x10(a0, d4.l), d0
          0x0077a390      4880           ext.w d0
          0x0077a392      4187           chk.w d7, d0
          0x0077a394      13c000871006   move.b d0, 0x871006
          0x0077a39a      3030480e       move.w 0xe(a0, d4.l), d0
          0x0077a39e      48c0           ext.l d0
          0x0077a3a0      23c000871002   move.l d0, 0x871002
          0x0077a3a6      3030481e       move.w 0x1e(a0, d4.l), d0
          0x0077a3aa      41bc00ff       chk.w 0xff, d0
          0x0077a3ae      33c000871024   move.w d0, 0x871024
          0x0077a3b4      30304820       move.w 0x20(a0, d4.l), d0
          0x0077a3b8      0c400010       cmpi.w 0x10, d0
      < 0x0077a3bc      6c14           bge.b 0x77a3d2
         0x0077a3be      23fad34c0087.  move.l 0x77770c(pc), 0x87101e.l
         0x0077a3c6      33fad3480087.  move.w 0x777710(pc), 0x871022.l
     < 0x0077a3ce      60000162       bra.w 0x77a532
     > 0x0077a3d2      43f90087101e   lea.l 0x87101e, a1
         0x0077a3d8      45f04820       lea.l 0x20(a0, d4.l), a2
         0x0077a3dc      7005           moveq 0x5, d0
     > 0x0077a3de      12da           move.b (a2)+, (a1)+
     < 0x0077a3e0      51c8fffc       dbra d0, 0x77a3de
     < 0x0077a3e4      6000014c       bra.w 0x77a532
     > 0x0077a3e8      1030480c       move.b 0xc(a0, d4.l), d0
         0x0077a3ec      b006           cmp.b d6, d0
     < 0x0077a3ee      660000d2       bne.w 0x77a4c2
        0x0077a3f2      4a14           tst.b (a4)
    < 0x0077a3f4      6742           beq.b 0x77a438
       0x0077a3f6      9efc0108       suba.w 0x108, a7
       0x0077a3fa      224f           movea.l a7, a1
       0x0077a3fc      45f04811       lea.l 0x11(a0, d4.l), a2
       0x0077a400      7207           moveq 0x7, d1
   > 0x0077a402      12da           move.b (a2)+, (a1)+
   < 0x0077a404      51c9fffc       dbra d1, 0x77a402
       0x0077a408      4eb900783224   jsr PANEL_UTILS.alt_seq_str
       0x0077a40e      504f           addq.w 0x8, a7
       0x0077a410      487ad697       pea.l 0x777aa9(pc)
       0x0077a414      48780014       pea.l 0x14
       0x0077a418      2f17           move.l (a7), -(a7)
       0x0077a41a      4e93           jsr (a3)                    ; fcn.0000000c
       0x0077a41c      dec2           adda.w d2, a7
       0x0077a41e      486f0001       pea.l 0x1(a7)
       0x0077a422      42a7           clr.l -(a7)
       0x0077a424      1f6f00080003   move.b 0x8(a7), 0x3(a7)
       0x0077a42a      2f17           move.l (a7), -(a7)
       0x0077a42c      4e93           jsr (a3)                    ; fcn.0000000c
       0x0077a42e      defc010c       adda.w 0x10c, a7
       0x0077a432      4eb900404946   jsr p_wtln_o
    > 0x0077a438      1230480c       move.b 0xc(a0, d4.l), d1
        0x0077a43c      4881           ext.w d1
        0x0077a43e      4385           chk.w d5, d1
        0x0077a440      13c100871014   move.b d1, 0x871014
        0x0077a446      9efc000a       suba.w 0xa, a7
        0x0077a44a      224f           movea.l a7, a1
        0x0077a44c      45f04811       lea.l 0x11(a0, d4.l), a2
        0x0077a450      7207           moveq 0x7, d1
    > 0x0077a452      12da           move.b (a2)+, (a1)+
    < 0x0077a454      51c9fffc       dbra d1, 0x77a452
        0x0077a458      4eb900784428   jsr PANEL_UTILS.sequence_ok
        0x0077a45e      504f           addq.w 0x8, a7
        0x0077a460      4a1f           tst.b (a7)+
    < 0x0077a462      6714           beq.b 0x77a478
       0x0077a464      43f900871007   lea.l 0x871007, a1
       0x0077a46a      45f04811       lea.l 0x11(a0, d4.l), a2
       0x0077a46e      7207           moveq 0x7, d1
   > 0x0077a470      12da           move.b (a2)+, (a1)+
   < 0x0077a472      51c9fffc       dbra d1, 0x77a470
   < 0x0077a476      6042           bra.b 0x77a4ba
   > 0x0077a478      9efc0108       suba.w 0x108, a7
       0x0077a47c      224f           movea.l a7, a1
       0x0077a47e      45f04811       lea.l 0x11(a0, d4.l), a2
       0x0077a482      7207           moveq 0x7, d1
   > 0x0077a484      12da           move.b (a2)+, (a1)+
   < 0x0077a486      51c9fffc       dbra d1, 0x77a484
       0x0077a48a      4eb900783224   jsr PANEL_UTILS.alt_seq_str
       0x0077a490      504f           addq.w 0x8, a7
       0x0077a492      487ad62a       pea.l 0x777abe(pc)
       0x0077a496      4878001f       pea.l 0x1f
       0x0077a49a      2f17           move.l (a7), -(a7)
       0x0077a49c      4e93           jsr (a3)                    ; fcn.0000000c
       0x0077a49e      dec2           adda.w d2, a7
       0x0077a4a0      486f0001       pea.l 0x1(a7)
       0x0077a4a4      42a7           clr.l -(a7)
       0x0077a4a6      1f6f00080003   move.b 0x8(a7), 0x3(a7)
       0x0077a4ac      2f17           move.l (a7), -(a7)
       0x0077a4ae      4e93           jsr (a3)                    ; fcn.0000000c
       0x0077a4b0      defc010c       adda.w 0x10c, a7
       0x0077a4b4      4eb900404946   jsr p_wtln_o
   > 0x0077a4ba      23c600871010   move.l d6, 0x871010
    < 0x0077a4c0      6070           bra.b 0x77a532
    > 0x0077a4c2      b007           cmp.b d7, d0
    < 0x0077a4c4      6634           bne.b 0x77a4fa
       0x0077a4c6      4a14           tst.b (a4)
   < 0x0077a4c8      6714           beq.b 0x77a4de
      0x0077a4ca      487ad612       pea.l 0x777ade(pc)
      0x0077a4ce      4878001a       pea.l 0x1a
      0x0077a4d2      2f17           move.l (a7), -(a7)
      0x0077a4d4      4e93           jsr (a3)                    ; fcn.0000000c
      0x0077a4d6      dec2           adda.w d2, a7
      0x0077a4d8      4eb900404946   jsr p_wtln_o
   > 0x0077a4de      1230480c       move.b 0xc(a0, d4.l), d1
       0x0077a4e2      4881           ext.w d1
       0x0077a4e4      4385           chk.w d5, d1
       0x0077a4e6      13c100871014   move.b d1, 0x871014
       0x0077a4ec      33c60087101c   move.w d6, 0x87101c
       0x0077a4f2      423900871026   clr.b 0x871026
   < 0x0077a4f8      6038           bra.b 0x77a532
   > 0x0077a4fa      9efc0100       suba.w 0x100, a7
       0x0077a4fe      1f30480c       move.b 0xc(a0, d4.l), -(a7)
       0x0077a502      4eb900783192   jsr PANEL_UTILS.op_mode_str
       0x0077a508      544f           addq.w 0x2, a7
       0x0077a50a      487ad5ed       pea.l 0x777af9(pc)
       0x0077a50e      4878002b       pea.l 0x2b
       0x0077a512      2f17           move.l (a7), -(a7)
       0x0077a514      4e93           jsr (a3)                    ; fcn.0000000c
       0x0077a516      dec2           adda.w d2, a7
       0x0077a518      486f0001       pea.l 0x1(a7)
       0x0077a51c      42a7           clr.l -(a7)
       0x0077a51e      1f6f00080003   move.b 0x8(a7), 0x3(a7)
       0x0077a524      2f17           move.l (a7), -(a7)
       0x0077a526      4e93           jsr (a3)                    ; fcn.0000000c
       0x0077a528      defc010c       adda.w 0x10c, a7
       0x0077a52c      4eb900404946   jsr p_wtln_o
   > 0x0077a532      4cdf1fff       movem.l (a7)+, d0-d7/a0-a4
           0x0077a536      4e5e           unlk a6
           0x0077a538      4e75           rts
            ; CALL XREF from PANEL_STACK.rebuild_prefetc @ 0x77bb82
            ; CALL XREFS from PANEL_STACK.do_take @ 0x77cea6, 0x77d004
            ; CALL XREF from PANEL_STACK.do_clear_take @ 0x77dfcc
            ; CALL XREF from PANEL_STACK.do_wdw_digit_pu @ 0x77f9c2
 290: PANEL_STACK.ripple_stack ();
           0x0077a53a      4e56ffb8       link.w a6, 0xffb8
           0x0077a53e      bfd5           cmpa.l (a5), a7
       < 0x0077a540      6206           bhi.b 0x77a548
          0x0077a542      44fc0002       move.w 0x2, ccr
          0x0077a546      4e76           trapv
       > 0x0077a548      defc0044       adda.w 0x44, a7
           0x0077a54c      48e7fdf8       movem.l d0-d5/d7/a0-a4, -(a7)
           0x0077a550      47ee000c       lea.l 0xc(a6), a3
           0x0077a554      49f900406a74   lea.l fcn.00406a74, a4
           0x0077a55a      729c           moveq 0x9c, d1
           0x0077a55c      243c000000c7   move.l 0xc7, d2
           0x0077a562      7a01           moveq 0x1, d5
           0x0077a564      20790086eb32   movea.l 0x86eb32, a0
           0x0077a56a      b1e8fffc       cmpa.l -0x4(a0), a0
       < 0x0077a56e      6702           beq.b 0x77a572
          0x0077a570      4e4d           trap 0xd
       > 0x0077a572      4a2e000a       tst.b 0xa(a6)
       < 0x0077a576      6648           bne.b 0x77a5c0
          0x0077a578      2f13           move.l (a3), -(a7)
          0x0077a57a      5397           subq.l 0x1, (a7)
          0x0077a57c      7e9c           moveq 0x9c, d7
      > 0x0077a57e      be97           cmp.l (a7), d7
     < 0x0077a580      6e3a           bgt.b 0x77a5bc
        0x0077a582      2007           move.l d7, d0
        0x0077a584      9081           sub.l d1, d0
        0x0077a586      b082           cmp.l d2, d0
    < 0x0077a588      6302           bls.b 0x77a58c
       0x0077a58a      4e4f           trap 0xf
    > 0x0077a58c      2800           move.l d0, d4
        0x0077a58e      7636           moveq 0x36, d3
        0x0077a590      4e94           jsr (a4)                    ; fcn.0000000d
        0x0077a592      2007           move.l d7, d0
        0x0077a594      5280           addq.l 0x1, d0
        0x0077a596      9081           sub.l d1, d0
        0x0077a598      b082           cmp.l d2, d0
    < 0x0077a59a      6302           bls.b 0x77a59e
       0x0077a59c      4e4f           trap 0xf
    > 0x0077a59e      2f04           move.l d4, -(a7)
        0x0077a5a0      2800           move.l d0, d4
        0x0077a5a2      7636           moveq 0x36, d3
        0x0077a5a4      4e94           jsr (a4)                    ; fcn.0000000d
        0x0077a5a6      201f           move.l (a7)+, d0
        0x0077a5a8      43f0080a       lea.l 0xa(a0, d0.l), a1
        0x0077a5ac      45f0480a       lea.l 0xa(a0, d4.l), a2
        0x0077a5b0      7035           moveq 0x35, d0
    > 0x0077a5b2      12da           move.b (a2)+, (a1)+
    < 0x0077a5b4      51c8fffc       dbra d0, 0x77a5b2
        0x0077a5b8      5287           addq.l 0x1, d7
     < 0x0077a5ba      68c2           bvc.b 0x77a57e
     > 0x0077a5bc      584f           addq.w 0x4, a7
      < 0x0077a5be      6040           bra.b 0x77a600
      > 0x0077a5c0      7e62           moveq 0x62, d7
      > 0x0077a5c2      be93           cmp.l (a3), d7
     < 0x0077a5c4      6d3a           blt.b 0x77a600
        0x0077a5c6      2007           move.l d7, d0
        0x0077a5c8      5280           addq.l 0x1, d0
        0x0077a5ca      9081           sub.l d1, d0
        0x0077a5cc      b082           cmp.l d2, d0
    < 0x0077a5ce      6302           bls.b 0x77a5d2
       0x0077a5d0      4e4f           trap 0xf
    > 0x0077a5d2      2800           move.l d0, d4
        0x0077a5d4      7636           moveq 0x36, d3
        0x0077a5d6      4e94           jsr (a4)                    ; fcn.0000000d
        0x0077a5d8      2007           move.l d7, d0
        0x0077a5da      9081           sub.l d1, d0
        0x0077a5dc      b082           cmp.l d2, d0
    < 0x0077a5de      6302           bls.b 0x77a5e2
       0x0077a5e0      4e4f           trap 0xf
    > 0x0077a5e2      2f04           move.l d4, -(a7)
        0x0077a5e4      2800           move.l d0, d4
        0x0077a5e6      7636           moveq 0x36, d3
        0x0077a5e8      4e94           jsr (a4)                    ; fcn.0000000d
        0x0077a5ea      201f           move.l (a7)+, d0
        0x0077a5ec      43f0080a       lea.l 0xa(a0, d0.l), a1
        0x0077a5f0      45f0480a       lea.l 0xa(a0, d4.l), a2
        0x0077a5f4      7035           moveq 0x35, d0
    > 0x0077a5f6      12da           move.b (a2)+, (a1)+
    < 0x0077a5f8      51c8fffc       dbra d0, 0x77a5f6
        0x0077a5fc      5387           subq.l 0x1, d7
     < 0x0077a5fe      68c2           bvc.b 0x77a5c2
     > 0x0077a600      2013           move.l (a3), d0
           0x0077a602      9081           sub.l d1, d0
           0x0077a604      b082           cmp.l d2, d0
       < 0x0077a606      6302           bls.b 0x77a60a
          0x0077a608      4e4f           trap 0xf
       > 0x0077a60a      2800           move.l d0, d4
           0x0077a60c      7636           moveq 0x36, d3
           0x0077a60e      4e94           jsr (a4)                    ; fcn.0000000d
           0x0077a610      43f0480a       lea.l 0xa(a0, d4.l), a1
           0x0077a614      45f900870fcc   lea.l 0x870fcc, a2
           0x0077a61a      7034           moveq 0x34, d0
       > 0x0077a61c      12da           move.b (a2)+, (a1)+
       < 0x0077a61e      51c8fffc       dbra d0, 0x77a61c
           0x0077a622      102e0008       move.b 0x8(a6), d0
           0x0077a626      b005           cmp.b d5, d0
       < 0x0077a628      660c           bne.b 0x77a636
          0x0077a62a      4227           clr.b -(a7)
      > 0x0077a62c      4eb90078e276   jsr PANEL_PREFETCH.ripple_prefetch
         0x0077a632      544f           addq.w 0x2, a7
     < 0x0077a634      601e           bra.b 0x77a654
     > 0x0077a636      0c000002       cmpi.b 0x2, d0
     < 0x0077a63a      6604           bne.b 0x77a640
        0x0077a63c      1f05           move.b d5, -(a7)
     < 0x0077a63e      60ec           bra.b 0x77a62c
      > 0x0077a640      4a93           tst.l (a3)
      < 0x0077a642      6c06           bge.b 0x77a64a
         0x0077a644      48780000       pea.l 0x0
     < 0x0077a648      6002           bra.b 0x77a64c
     > 0x0077a64a      2f13           move.l (a3), -(a7)
     > 0x0077a64c      4eb90078e24e   jsr PANEL_PREFETCH.wipe_prefetch
          0x0077a652      584f           addq.w 0x4, a7
     > 0x0077a654      4cdf1fbf       movem.l (a7)+, d0-d5/d7/a0-a4
           0x0077a658      4e5e           unlk a6
           0x0077a65a      4e75           rts
            ; XREFS: CALL 0x00774980  CALL 0x00774a60  CALL 0x00775156  
            ; XREFS: CALL 0x007751f8  CALL 0x007754b0  CALL 0x007755da  
            ; XREFS: CALL 0x007756ba  CALL 0x0077a900  CALL 0x0078147e  
            ; XREFS: CALL 0x007815cc  CALL 0x00781652  
 236: PANEL_STACK.display_next_ou ();
           0x0077a65c      4e56fdd4       link.w a6, 0xfdd4
           0x0077a660      bfd5           cmpa.l (a5), a7
       < 0x0077a662      6206           bhi.b 0x77a66a
          0x0077a664      44fc0002       move.w 0x2, ccr
          0x0077a668      4e76           trapv
       > 0x0077a66a      defc0126       adda.w 0x126, a7
           0x0077a66e      48e7f3c0       movem.l d0-d3/d6-d7/a0-a1, -(a7)
           0x0077a672      7403           moveq 0x3, d2
           0x0077a674      7607           moveq 0x7, d3
           0x0077a676      20790086eb32   movea.l 0x86eb32, a0
           0x0077a67c      b1e8fffc       cmpa.l -0x4(a0), a0
       < 0x0077a680      6702           beq.b 0x77a684
          0x0077a682      4e4d           trap 0xd
       > 0x0077a684      10281546       move.b 0x1546(a0), d0
           0x0077a688      4880           ext.w d0
           0x0077a68a      43fad498       lea.l 0x777b24(pc), a1
           0x0077a68e      3200           move.w d0, d1
           0x0077a690      e649           lsr.w 0x3, d1
           0x0077a692      01311000       btst.l d0, (a1, d1.w)
       < 0x0077a696      673e           beq.b 0x77a6d6
          0x0077a698      10281524       move.b 0x1524(a0), d0
          0x0077a69c      4880           ext.w d0
          0x0077a69e      4182           chk.w d2, d0
          0x0077a6a0      1c00           move.b d0, d6
      < 0x0077a6a2      6606           bne.b 0x77a6aa
         0x0077a6a4      30281526       move.w 0x1526(a0), d0
     < 0x0077a6a8      6062           bra.b 0x77a70c
     > 0x0077a6aa      0c060001       cmpi.b 0x1, d6
     < 0x0077a6ae      661c           bne.b 0x77a6cc
        0x0077a6b0      20280006       move.l 0x6(a0), d0
        0x0077a6b4      5380           subq.l 0x1, d0
        0x0077a6b6      b083           cmp.l d3, d0
    < 0x0077a6b8      6302           bls.b 0x77a6bc
       0x0077a6ba      4e4f           trap 0xf
    > 0x0077a6bc      43e81522       lea.l 0x1522(a0), a1
        0x0077a6c0      12310807       move.b 0x7(a1, d0.l), d1
        0x0077a6c4      4881           ext.w d1
        0x0077a6c6      48c1           ext.l d1
        0x0077a6c8      2e01           move.l d1, d7
    < 0x0077a6ca      6044           bra.b 0x77a710
    > 0x0077a6cc      0c060002       cmpi.b 0x2, d6
    < 0x0077a6d0      663e           bne.b 0x77a710
       0x0077a6d2      7e00           moveq 0x0, d7
   < 0x0077a6d4      603a           bra.b 0x77a710
   > 0x0077a6d6      103900871014   move.b 0x871014, d0
       0x0077a6dc      4880           ext.w d0
       0x0077a6de      4182           chk.w d2, d0
       0x0077a6e0      1c00           move.b d0, d6
       0x0077a6e2      4a40           tst.w d0
   < 0x0077a6e4      6608           bne.b 0x77a6ee
      0x0077a6e6      2e3900871002   move.l 0x871002, d7
  < 0x0077a6ec      6022           bra.b 0x77a710
  > 0x0077a6ee      203900871010   move.l 0x871010, d0
      0x0077a6f4      5380           subq.l 0x1, d0
      0x0077a6f6      b083           cmp.l d3, d0
  < 0x0077a6f8      6302           bls.b 0x77a6fc
     0x0077a6fa      4e4f           trap 0xf
  > 0x0077a6fc      43f90086eb1a   lea.l 0x86eb1a, a1
      0x0077a702      43f10800       lea.l (a1, d0.l), a1
      0x0077a706      102924ed       move.b 0x24ed(a1), d0
      0x0077a70a      4880           ext.w d0
  > 0x0077a70c      48c0           ext.l d0
       0x0077a70e      2e00           move.l d0, d7
  > 0x0077a710      486efefe       pea.l -0x102(a6)
           0x0077a714      4886           ext.w d6
           0x0077a716      4d82           chk.w d2, d6
           0x0077a718      1f06           move.b d6, -(a7)
           0x0077a71a      2f07           move.l d7, -(a7)
           0x0077a71c      4227           clr.b -(a7)
           0x0077a71e      4eb900783fb2   jsr PANEL_UTILS.op_string
           0x0077a724      9efc00f4       suba.w 0xf4, a7
           0x0077a728      204f           movea.l a7, a0
           0x0077a72a      43eefefe       lea.l -0x102(a6), a1
           0x0077a72e      703f           moveq 0x3f, d0
       > 0x0077a730      20d9           move.l (a1)+, (a0)+
       < 0x0077a732      51c8fffc       dbra d0, 0x77a730
           0x0077a736      4227           clr.b -(a7)
           0x0077a738      4ebaf2b2       jsr PANEL_STACK.set_output(pc)
           0x0077a73c      defc0102       adda.w 0x102, a7
           0x0077a740      4cdf03cf       movem.l (a7)+, d0-d3/d6-d7/a0-a1
           0x0077a744      4e5e           unlk a6
           0x0077a746      4e75           rts
            ; XREFS: CALL 0x00774b58  CALL 0x007751de  CALL 0x00775528  
            ; XREFS: CALL 0x007756ae  CALL 0x00775d30  CALL 0x0077bb90  
            ; XREFS: CALL 0x0077df06  CALL 0x0077e012  CALL 0x0077f14c  
            ; XREFS: CALL 0x0077fa72  CALL 0x007807d8  
 522: PANEL_STACK.refresh_stack ();
           0x0077a748      4e56fdb4       link.w a6, 0xfdb4
           0x0077a74c      bfd5           cmpa.l (a5), a7
       < 0x0077a74e      6206           bhi.b 0x77a756
          0x0077a750      44fc0002       move.w 0x2, ccr
          0x0077a754      4e76           trapv
       > 0x0077a756      defc013e       adda.w 0x13e, a7
           0x0077a75a      48e7fff8       movem.l d0-d7/a0-a4, -(a7)
           0x0077a75e      47f90086eb3e   lea.l 0x86eb3e, a3
           0x0077a764      49eefefa       lea.l -0x106(a6), a4
           0x0077a768      2a3c0000ffff   move.l 0xffff, d5
           0x0077a76e      26bc00000063   move.l 0x63, (a3)
       > 0x0077a774      2013           move.l (a3), d0
          0x0077a776      0480ffffff9c   subi.l 0xffffff9c, d0
          0x0077a77c      0c80000000c7   cmpi.l 0xc7, d0
      < 0x0077a782      6302           bls.b 0x77a786
         0x0077a784      4e4f           trap 0xf
      > 0x0077a786      2800           move.l d0, d4
          0x0077a788      7636           moveq 0x36, d3
          0x0077a78a      4eb900406a74   jsr fcn.00406a74
          0x0077a790      20790086eb32   movea.l 0x86eb32, a0
          0x0077a796      b1e8fffc       cmpa.l -0x4(a0), a0
      < 0x0077a79a      6702           beq.b 0x77a79e
         0x0077a79c      4e4d           trap 0xd
      > 0x0077a79e      4a30482e       tst.b 0x2e(a0, d4.l)
      < 0x0077a7a2      6608           bne.b 0x77a7ac
         0x0077a7a4      4a93           tst.l (a3)
     < 0x0077a7a6      6d04           blt.b 0x77a7ac
        0x0077a7a8      5393           subq.l 0x1, (a3)
     < 0x0077a7aa      60c8           bra.b 0x77a774
     > 0x0077a7ac      4a390086eb1a   tst.b 0x86eb1a
       < 0x0077a7b2      6726           beq.b 0x77a7da
          0x0077a7b4      487ad371       pea.l 0x777b27(pc)
          0x0077a7b8      4878000d       pea.l 0xd
          0x0077a7bc      2f17           move.l (a7), -(a7)
          0x0077a7be      4eb9004047ea   jsr p_wts_o
          0x0077a7c4      504f           addq.w 0x8, a7
          0x0077a7c6      2e93           move.l (a3), (a7)
          0x0077a7c8      48780003       pea.l 0x3
          0x0077a7cc      4eb9004070e4   jsr p_wti_o
          0x0077a7d2      504f           addq.w 0x8, a7
          0x0077a7d4      4eb900404946   jsr p_wtln_o
       > 0x0077a7da      4aae000e       tst.l 0xe(a6)
       < 0x0077a7de      6c04           bge.b 0x77a7e4
          0x0077a7e0      42ae000e       clr.l 0xe(a6)
       > 0x0077a7e4      202e000a       move.l 0xa(a6), d0
           0x0077a7e8      0c8000000005   cmpi.l 0x5, d0
       < 0x0077a7ee      6f08           ble.b 0x77a7f8
          0x0077a7f0      2d7c00000005.  move.l 0x5, 0xa(a6)
       > 0x0077a7f8      4aae000e       tst.l 0xe(a6)
       < 0x0077a7fc      66000106       bne.w 0x77a904
          0x0077a800      9efc0100       suba.w 0x100, a7
          0x0077a804      204f           movea.l a7, a0
          0x0077a806      43f90086f342   lea.l 0x86f342, a1
          0x0077a80c      703f           moveq 0x3f, d0
      > 0x0077a80e      20d9           move.l (a1)+, (a0)+
      < 0x0077a810      51c8fffc       dbra d0, 0x77a80e
          0x0077a814      4227           clr.b -(a7)
          0x0077a816      4ebaf186       jsr PANEL_STACK.set_next_on_air(pc)
          0x0077a81a      defc0102       adda.w 0x102, a7
          0x0077a81e      20790086eb32   movea.l 0x86eb32, a0
          0x0077a824      b1e8fffc       cmpa.l -0x4(a0), a0
      < 0x0077a828      6702           beq.b 0x77a82c
         0x0077a82a      4e4d           trap 0xd
      > 0x0077a82c      10281546       move.b 0x1546(a0), d0
          0x0077a830      4880           ext.w d0
          0x0077a832      43fad300       lea.l 0x777b34(pc), a1
          0x0077a836      3200           move.w d0, d1
          0x0077a838      e649           lsr.w 0x3, d1
          0x0077a83a      01311000       btst.l d0, (a1, d1.w)
      < 0x0077a83e      670000c0       beq.w 0x77a900
         0x0077a842      10281524       move.b 0x1524(a0), d0
         0x0077a846      4880           ext.w d0
         0x0077a848      41bc0003       chk.w 0x3, d0
         0x0077a84c      1e00           move.b d0, d7
     < 0x0077a84e      660a           bne.b 0x77a85a
        0x0077a850      30281526       move.w 0x1526(a0), d0
    > 0x0077a854      48c0           ext.l d0
       0x0077a856      2c00           move.l d0, d6
   < 0x0077a858      6070           bra.b 0x77a8ca
   > 0x0077a85a      0c070001       cmpi.b 0x1, d7
   < 0x0077a85e      6620           bne.b 0x77a880
      0x0077a860      20280006       move.l 0x6(a0), d0
      0x0077a864      5380           subq.l 0x1, d0
      0x0077a866      0c8000000007   cmpi.l 0x7, d0
  < 0x0077a86c      6302           bls.b 0x77a870
     0x0077a86e      4e4f           trap 0xf
  > 0x0077a870      43e81522       lea.l 0x1522(a0), a1
      0x0077a874      12310807       move.b 0x7(a1, d0.l), d1
      0x0077a878      4881           ext.w d1
      0x0077a87a      48c1           ext.l d1
      0x0077a87c      2c01           move.l d1, d6
  < 0x0077a87e      604a           bra.b 0x77a8ca
  > 0x0077a880      0c070002       cmpi.b 0x2, d7
  < 0x0077a884      6644           bne.b 0x77a8ca
     0x0077a886      4a2e0008       tst.b 0x8(a6)
 < 0x0077a88a      673c           beq.b 0x77a8c8
    0x0077a88c      103900871014   move.b 0x871014, d0
    0x0077a892      4880           ext.w d0
    0x0077a894      41bc0003       chk.w 0x3, d0
    0x0077a898      1e00           move.b d0, d7
 < 0x0077a89a      6608           bne.b 0x77a8a4
    0x0077a89c      2c3900871002   move.l 0x871002, d6
 < 0x0077a8a2      6026           bra.b 0x77a8ca
 > 0x0077a8a4      203900871010   move.l 0x871010, d0
    0x0077a8aa      5380           subq.l 0x1, d0
    0x0077a8ac      0c8000000007   cmpi.l 0x7, d0
 < 0x0077a8b2      6302           bls.b 0x77a8b6
    0x0077a8b4      4e4f           trap 0xf
 > 0x0077a8b6      43f90086eb1a   lea.l 0x86eb1a, a1
    0x0077a8bc      43f10800       lea.l (a1, d0.l), a1
    0x0077a8c0      102924ed       move.b 0x24ed(a1), d0
    0x0077a8c4      4880           ext.w d0
 < 0x0077a8c6      608c           bra.b 0x77a854
 > 0x0077a8c8      7c00           moveq 0x0, d6
 > 0x0077a8ca      486efeff       pea.l -0x101(a6)
         0x0077a8ce      4887           ext.w d7
         0x0077a8d0      4fbc0003       chk.w 0x3, d7
         0x0077a8d4      1f07           move.b d7, -(a7)
         0x0077a8d6      2f06           move.l d6, -(a7)
         0x0077a8d8      4227           clr.b -(a7)
         0x0077a8da      4eb900783fb2   jsr PANEL_UTILS.op_string
         0x0077a8e0      9efc00f4       suba.w 0xf4, a7
         0x0077a8e4      224f           movea.l a7, a1
         0x0077a8e6      45eefeff       lea.l -0x101(a6), a2
         0x0077a8ea      303c00ff       move.w 0xff, d0
     > 0x0077a8ee      12da           move.b (a2)+, (a1)+
     < 0x0077a8f0      51c8fffc       dbra d0, 0x77a8ee
         0x0077a8f4      4227           clr.b -(a7)
         0x0077a8f6      4ebaf0f4       jsr PANEL_STACK.set_output(pc)
         0x0077a8fa      defc0102       adda.w 0x102, a7
     < 0x0077a8fe      6004           bra.b 0x77a904
     > 0x0077a900      4ebafd5a       jsr PANEL_STACK.display_next_ou(pc)
     > 0x0077a904      2e2e000e       move.l 0xe(a6), d7
       > 0x0077a908      beae000a       cmp.l 0xa(a6), d7
      < 0x0077a90c      6e000216       bgt.w 0x77ab24
         0x0077a910      2007           move.l d7, d0
         0x0077a912      0480ffffff9c   subi.l 0xffffff9c, d0
         0x0077a918      0c80000000c7   cmpi.l 0xc7, d0
     < 0x0077a91e      6302           bls.b 0x77a922
        0x0077a920      4e4f           trap 0xf
     > 0x0077a922      2800           move.l d0, d4
         0x0077a924      7636           moveq 0x36, d3
         0x0077a926      4eb900406a74   jsr fcn.00406a74
         0x0077a92c      20790086eb32   movea.l 0x86eb32, a0
         0x0077a932      b1e8fffc       cmpa.l -0x4(a0), a0
     < 0x0077a936      6702           beq.b 0x77a93a
        0x0077a938      4e4d           trap 0xd
     > 0x0077a93a      1030482e       move.b 0x2e(a0, d4.l), d0
         0x0077a93e      4880           ext.w d0
         0x0077a940      0c40000a       cmpi.w 0xa, d0
     < 0x0077a944      620001bc       bhi.w 0x77ab02
        0x0077a948      d040           add.w d0, d0
        0x0077a94a      303b0006       move.w 0x77a952(pc, d0.w), d0
        0x0077a94e      4efb0002       jmp 0x77a952(pc, d0.w)
         0x0077a952      001600ac       ori.b 0xac, (a6)
         0x0077a956      010e00ac       movep.w 0xac(a6), d0
         0x0077a95a      0154           bchg.b d0, (a4)
         0x0077a95c      01b000ac       bclr.b d0, -0x54(a0, d0.w)
         0x0077a960      01b0016400ac   bclr.b d0, 0xac(a0, invalid.w)
         0x0077a966      00ac20135280.  ori.l 0x20135280, -0x4180(a4)
     < 0x0077a96e      6664           bne.b 0x77a9d4
        0x0077a970      30280004       move.w 0x4(a0), d0
        0x0077a974      0c400001       cmpi.w 0x1, d0
    < 0x0077a978      640c           bcc.b 0x77a986
       0x0077a97a      28bad1ba       move.l 0x777b36(pc), (a4)
       0x0077a97e      1d7ad1bafefe   move.b 0x777b3a(pc), -0x102(a6)
   < 0x0077a984      6074           bra.b 0x77a9fa
   > 0x0077a986      224c           movea.l a4, a1
       0x0077a988      45fad1b1       lea.l 0x777b3b(pc), a2
       0x0077a98c      7004           moveq 0x4, d0
   > 0x0077a98e      12da           move.b (a2)+, (a1)+
   < 0x0077a990      51c8fffc       dbra d0, 0x77a98e
       0x0077a994      2250           movea.l (a0), a1
       0x0077a996      b2fc0001       cmpa.w 0x1, a1
   < 0x0077a99a      675e           beq.b 0x77a9fa
      0x0077a99c      487ad1a3       pea.l 0x777b41(pc)
      0x0077a9a0      4878001d       pea.l 0x1d
      0x0077a9a4      2f17           move.l (a7), -(a7)
      0x0077a9a6      4eb9004047ea   jsr p_wts_o
      0x0077a9ac      defc000c       adda.w 0xc, a7
      0x0077a9b0      b3e9fffc       cmpa.l -0x4(a1), a1
  < 0x0077a9b4      6702           beq.b 0x77a9b8
     0x0077a9b6      4e4d           trap 0xd
  > 0x0077a9b8      4280           clr.l d0
      0x0077a9ba      30291558       move.w 0x1558(a1), d0
      0x0077a9be      2f00           move.l d0, -(a7)
      0x0077a9c0      48780000       pea.l 0x0
      0x0077a9c4      4eb9004070e4   jsr p_wti_o
      0x0077a9ca      504f           addq.w 0x8, a7
      0x0077a9cc      4eb900404946   jsr p_wtln_o
  < 0x0077a9d2      6026           bra.b 0x77a9fa
  > 0x0077a9d4      0c8700000005   cmpi.l 0x5, d7
  < 0x0077a9da      6610           bne.b 0x77a9ec
     0x0077a9dc      be93           cmp.l (a3), d7
  < 0x0077a9de      6c0c           bge.b 0x77a9ec
     0x0077a9e0      28bad17c       move.l 0x777b5e(pc), (a4)
     0x0077a9e4      1d7ad17cfefe   move.b 0x777b62(pc), -0x102(a6)
  < 0x0077a9ea      600e           bra.b 0x77a9fa
  > 0x0077a9ec      224c           movea.l a4, a1
      0x0077a9ee      45fad173       lea.l 0x777b63(pc), a2
      0x0077a9f2      7004           moveq 0x4, d0
  > 0x0077a9f4      12da           move.b (a2)+, (a1)+
  < 0x0077a9f6      51c8fffc       dbra d0, 0x77a9f4
  < 0x0077a9fa      60000114       bra.w 0x77ab10
        0x0077a9fe      3030480a       move.w 0xa(a0, d4.l), d0
        0x0077aa02      0c4003e8       cmpi.w 0x3e8, d0
    < 0x0077aa06      643c           bcc.b 0x77aa44
       0x0077aa08      1230481a       move.b 0x1a(a0, d4.l), d1
       0x0077aa0c      0c010001       cmpi.b 0x1, d1
   < 0x0077aa10      6608           bne.b 0x77aa1a
      0x0077aa12      c085           and.l d5, d0
      0x0077aa14      2f00           move.l d0, -(a7)
      0x0077aa16      4497           neg.l (a7)
  < 0x0077aa18      602e           bra.b 0x77aa48
  > 0x0077aa1a      0c010002       cmpi.b 0x2, d1
  < 0x0077aa1e      6620           bne.b 0x77aa40
     0x0077aa20      c085           and.l d5, d0
     0x0077aa22      2f00           move.l d0, -(a7)
     0x0077aa24      48780004       pea.l 0x4
     0x0077aa28      4854           pea.l (a4)
     0x0077aa2a      3f3c0004       move.w 0x4, -(a7)
     0x0077aa2e      4eb900406e56   jsr p_strI1
     0x0077aa34      defc000e       adda.w 0xe, a7
     0x0077aa38      1d7c002bfefb   move.b 0x2b, -0x105(a6)
  < 0x0077aa3e      601c           bra.b 0x77aa5c
  > 0x0077aa40      4a01           tst.b d1
  < 0x0077aa42      6618           bne.b 0x77aa5c
  > 0x0077aa44      c085           and.l d5, d0
      0x0077aa46      2f00           move.l d0, -(a7)
  > 0x0077aa48      48780004       pea.l 0x4
       0x0077aa4c      4854           pea.l (a4)
       0x0077aa4e      3f3c0004       move.w 0x4, -(a7)
       0x0077aa52      4eb900406e56   jsr p_strI1
       0x0077aa58      defc000e       adda.w 0xe, a7
  < 0x0077aa5c      600000b2       bra.w 0x77ab10
       0x0077aa60      1030481a       move.b 0x1a(a0, d4.l), d0
       0x0077aa64      4880           ext.w d0
       0x0077aa66      013ad100       btst.l d0, 0x777b68(pc)
   < 0x0077aa6a      6716           beq.b 0x77aa82
      0x0077aa6c      3030480a       move.w 0xa(a0, d4.l), d0
      0x0077aa70      0c4003e8       cmpi.w 0x3e8, d0
  < 0x0077aa74      640c           bcc.b 0x77aa82
     0x0077aa76      3030480a       move.w 0xa(a0, d4.l), d0
     0x0077aa7a      c085           and.l d5, d0
     0x0077aa7c      4480           neg.l d0
     0x0077aa7e      2f00           move.l d0, -(a7)
  < 0x0077aa80      6008           bra.b 0x77aa8a
  > 0x0077aa82      3030480a       move.w 0xa(a0, d4.l), d0
       0x0077aa86      c085           and.l d5, d0
       0x0077aa88      2f00           move.l d0, -(a7)
  > 0x0077aa8a      48780004       pea.l 0x4
       0x0077aa8e      4854           pea.l (a4)
       0x0077aa90      3f3c0004       move.w 0x4, -(a7)
       0x0077aa94      4eb900406e56   jsr p_strI1
       0x0077aa9a      defc000e       adda.w 0xe, a7
       0x0077aa9e      1d7c0053fefb   move.b 0x53, -0x105(a6)
   < 0x0077aaa4      606a           bra.b 0x77ab10
      0x0077aaa6      224c           movea.l a4, a1
      0x0077aaa8      45fad0bf       lea.l 0x777b69(pc), a2
      0x0077aaac      7004           moveq 0x4, d0
  > 0x0077aaae      12da           move.b (a2)+, (a1)+
  < 0x0077aab0      51c8fffc       dbra d0, 0x77aaae
  < 0x0077aab4      605a           bra.b 0x77ab10
     0x0077aab6      3030480a       move.w 0xa(a0, d4.l), d0
     0x0077aaba      c085           and.l d5, d0
     0x0077aabc      2f00           move.l d0, -(a7)
     0x0077aabe      48780002       pea.l 0x2
     0x0077aac2      4854           pea.l (a4)
     0x0077aac4      3f3c0004       move.w 0x4, -(a7)
     0x0077aac8      4eb900406e56   jsr p_strI1
     0x0077aace      defc000e       adda.w 0xe, a7
     0x0077aad2      1d7c0050fefb   move.b 0x50, -0x105(a6)
     0x0077aad8      4a704830       tst.w 0x30(a0, d4.l)
  < 0x0077aadc      6f22           ble.b 0x77ab00
     0x0077aade      4240           clr.w d0
     0x0077aae0      1014           move.b (a4), d0
     0x0077aae2      43eefefb       lea.l -0x105(a6), a1
     0x0077aae6      d2c0           adda.w d0, a1
     0x0077aae8      7202           moveq 0x2, d1
     0x0077aaea      7404           moveq 0x4, d2
     0x0077aaec      9440           sub.w d0, d2
     0x0077aaee      b242           cmp.w d2, d1
  < 0x0077aaf0      6302           bls.b 0x77aaf4
     0x0077aaf2      3202           move.w d2, d1
  > 0x0077aaf4      d314           add.b d1, (a4)
     0x0077aaf6      45fad077       lea.l 0x777b6f(pc), a2
  > 0x0077aafa      12da           move.b (a2)+, (a1)+
  < 0x0077aafc      51c9fffc       dbra d1, 0x77aafa
  > 0x0077ab00      600e           bra.b 0x77ab10
  > 0x0077ab02      224c           movea.l a4, a1
      0x0077ab04      45fad06b       lea.l 0x777b71(pc), a2
      0x0077ab08      7004           moveq 0x4, d0
  > 0x0077ab0a      12da           move.b (a2)+, (a1)+
  < 0x0077ab0c      51c8fffc       dbra d0, 0x77ab0a
  > 0x0077ab10      2f07           move.l d7, -(a7)
          0x0077ab12      5497           addq.l 0x2, (a7)
          0x0077ab14      4854           pea.l (a4)
          0x0077ab16      4eb9007a1f06   jsr SERIAL.write_window
          0x0077ab1c      504f           addq.w 0x8, a7
          0x0077ab1e      5287           addq.l 0x1, d7
       < 0x0077ab20      6800fde6       bvc.w 0x77a908              ; PANEL_STACK.refresh_stack+0x1c0
       > 0x0077ab24      4cdf1fff       movem.l (a7)+, d0-d7/a0-a4
            0x0077ab28      4e5e           unlk a6
            0x0077ab2a      4e75           rts
            ; CALL XREF from PANEL_STACK.fetch_stack @ 0x77ad26
 282: PANEL_STACK.push_stack ();
           0x0077ab2c      4e56ffac       link.w a6, 0xffac
           0x0077ab30      bfd5           cmpa.l (a5), a7
       < 0x0077ab32      6206           bhi.b 0x77ab3a
          0x0077ab34      44fc0002       move.w 0x2, ccr
          0x0077ab38      4e76           trapv
       > 0x0077ab3a      defc004c       adda.w 0x4c, a7
           0x0077ab3e      48e7fdf8       movem.l d0-d5/d7/a0-a4, -(a7)
           0x0077ab42      49f9004047ea   lea.l p_wts_o, a4
           0x0077ab48      720c           moveq 0xc, d1
           0x0077ab4a      7401           moveq 0x1, d2
           0x0077ab4c      7a09           moveq 0x9, d5
           0x0077ab4e      4a390086eb1a   tst.b 0x86eb1a
       < 0x0077ab54      6714           beq.b 0x77ab6a
          0x0077ab56      487ad01f       pea.l 0x777b77(pc)
          0x0077ab5a      4878000d       pea.l 0xd
          0x0077ab5e      2f17           move.l (a7), -(a7)
          0x0077ab60      4e94           jsr (a4)                    ; fcn.0000000d
          0x0077ab62      dec1           adda.w d1, a7
          0x0077ab64      4eb900404946   jsr p_wtln_o
       > 0x0077ab6a      20790086eb32   movea.l 0x86eb32, a0
           0x0077ab70      b1e8fffc       cmpa.l -0x4(a0), a0
       < 0x0077ab74      6702           beq.b 0x77ab78
          0x0077ab76      4e4d           trap 0xd
       > 0x0077ab78      30280004       move.w 0x4(a0), d0
           0x0077ab7c      0c400005       cmpi.w 0x5, d0
       < 0x0077ab80      640000a8       bcc.w 0x77ac2a
          0x0077ab84      486efff8       pea.l -0x8(a6)
          0x0077ab88      48782d22       pea.l 0x2d22
          0x0077ab8c      4eb900403a92   jsr p_New
          0x0077ab92      504f           addq.w 0x8, a7
          0x0077ab94      226efff8       movea.l -0x8(a6), a1
          0x0077ab98      b2c2           cmpa.w d2, a1
      < 0x0077ab9a      6614           bne.b 0x77abb0
         0x0077ab9c      487acfe7       pea.l 0x777b85(pc)
         0x0077aba0      4878002c       pea.l 0x2c
         0x0077aba4      2f17           move.l (a7), -(a7)
         0x0077aba6      4e94           jsr (a4)                    ; fcn.0000000d
         0x0077aba8      dec1           adda.w d1, a7
         0x0077abaa      4eb900404946   jsr p_wtln_o
      > 0x0077abb0      b3e9fffc       cmpa.l -0x4(a1), a1
      < 0x0077abb4      6702           beq.b 0x77abb8
         0x0077abb6      4e4d           trap 0xd
      > 0x0077abb8      2449           movea.l a1, a2
          0x0077abba      2648           movea.l a0, a3
          0x0077abbc      303c2d21       move.w 0x2d21, d0
      > 0x0077abc0      14db           move.b (a3)+, (a2)+
      < 0x0077abc2      51c8fffc       dbra d0, 0x77abc0
          0x0077abc6      2089           move.l a1, (a0)
          0x0077abc8      30280004       move.w 0x4(a0), d0
          0x0077abcc      02800000ffff   andi.l 0xffff, d0
          0x0077abd2      5280           addq.l 0x1, d0
          0x0077abd4      0c800000ffff   cmpi.l 0xffff, d0
      < 0x0077abda      6302           bls.b 0x77abde
         0x0077abdc      4e4f           trap 0xf
      > 0x0077abde      31400004       move.w d0, 0x4(a0)
          0x0077abe2      7e00           moveq 0x0, d7
      > 0x0077abe4      be85           cmp.l d5, d7
     < 0x0077abe6      6302           bls.b 0x77abea
        0x0077abe8      4e4f           trap 0xf
     > 0x0077abea      2807           move.l d7, d4
         0x0077abec      7612           moveq 0x12, d3
         0x0077abee      4eb900406a74   jsr fcn.00406a74
         0x0077abf4      22790086eb32   movea.l 0x86eb32, a1
         0x0077abfa      b3e9fffc       cmpa.l -0x4(a1), a1
     < 0x0077abfe      6702           beq.b 0x77ac02
        0x0077ac00      4e4d           trap 0xd
     > 0x0077ac02      43f14800       lea.l (a1, d4.l), a1
         0x0077ac06      33422a3a       move.w d2, 0x2a3a(a1)
         0x0077ac0a      137acfa62a3c   move.b 0x777bb2(pc), 0x2a3c(a1)
         0x0077ac10      137acfa12a3d   move.b 0x777bb3(pc), 0x2a3d(a1)
         0x0077ac16      137acf9c2a3e   move.b 0x777bb4(pc), 0x2a3e(a1)
         0x0077ac1c      137acf972a3f   move.b 0x777bb5(pc), 0x2a3f(a1)
         0x0077ac22      5287           addq.l 0x1, d7
         0x0077ac24      be85           cmp.l d5, d7
      < 0x0077ac26      6fbc           ble.b 0x77abe4
      < 0x0077ac28      6014           bra.b 0x77ac3e
      > 0x0077ac2a      487acf8b       pea.l 0x777bb7(pc)
          0x0077ac2e      48780032       pea.l 0x32
          0x0077ac32      2f17           move.l (a7), -(a7)
          0x0077ac34      4e94           jsr (a4)                    ; fcn.0000000d
          0x0077ac36      dec1           adda.w d1, a7
          0x0077ac38      4eb900404946   jsr p_wtln_o
      > 0x0077ac3e      4cdf1fbf       movem.l (a7)+, d0-d5/d7/a0-a4
           0x0077ac42      4e5e           unlk a6
           0x0077ac44      4e75           rts
            ; CALL XREFS from PANEL_STACK.clear_current_s @ 0x3856, 0x77c7d8
 134: PANEL_STACK.pull_stack ();
           0x0077ac46      4e56ffd0       link.w a6, 0xffd0
           0x0077ac4a      bfd5           cmpa.l (a5), a7
       < 0x0077ac4c      6206           bhi.b 0x77ac54
          0x0077ac4e      44fc0002       move.w 0x2, ccr
          0x0077ac52      4e76           trapv
       > 0x0077ac54      defc0028       adda.w 0x28, a7
           0x0077ac58      48e780f0       movem.l d0/a0-a3, -(a7)
           0x0077ac5c      4a390086eb1a   tst.b 0x86eb1a
       < 0x0077ac62      671a           beq.b 0x77ac7e
          0x0077ac64      487acf84       pea.l 0x777bea(pc)
          0x0077ac68      4878000d       pea.l 0xd
          0x0077ac6c      2f17           move.l (a7), -(a7)
          0x0077ac6e      4eb9004047ea   jsr p_wts_o
          0x0077ac74      defc000c       adda.w 0xc, a7
          0x0077ac78      4eb900404946   jsr p_wtln_o
       > 0x0077ac7e      20790086eb32   movea.l 0x86eb32, a0
           0x0077ac84      b1e8fffc       cmpa.l -0x4(a0), a0
       < 0x0077ac88      6702           beq.b 0x77ac8c
          0x0077ac8a      4e4d           trap 0xd
       > 0x0077ac8c      2250           movea.l (a0), a1
           0x0077ac8e      b2fc0001       cmpa.w 0x1, a1
       < 0x0077ac92      6730           beq.b 0x77acc4
          0x0077ac94      2d49fff8       move.l a1, -0x8(a6)
          0x0077ac98      b3e9fffc       cmpa.l -0x4(a1), a1
      < 0x0077ac9c      6702           beq.b 0x77aca0
         0x0077ac9e      4e4d           trap 0xd
      > 0x0077aca0      236800060006   move.l 0x6(a0), 0x6(a1)
          0x0077aca6      2448           movea.l a0, a2
          0x0077aca8      2649           movea.l a1, a3
          0x0077acaa      303c2d21       move.w 0x2d21, d0
      > 0x0077acae      14db           move.b (a3)+, (a2)+
      < 0x0077acb0      51c8fffc       dbra d0, 0x77acae
          0x0077acb4      486efff8       pea.l -0x8(a6)
          0x0077acb8      48782d22       pea.l 0x2d22
          0x0077acbc      4eb900403b98   jsr p_Dispos
          0x0077acc2      504f           addq.w 0x8, a7
       > 0x0077acc4      4cdf0f01       movem.l (a7)+, d0/a0-a3
           0x0077acc8      4e5e           unlk a6
           0x0077acca      4e75           rts
 340: PANEL_STACK.fetch_stack ();
           ; var int32_t var_3694h @ a6-0x3694
           ; var int32_t var_3692h @ a6-0x3692
           ; var int32_t var_3690h @ a6-0x3690
           0x0077accc      4e56ff3e       link.w a6, 0xff3e
           0x0077acd0      bfd5           cmpa.l (a5), a7
       < 0x0077acd2      6206           bhi.b 0x77acda
          0x0077acd4      44fc0002       move.w 0x2, ccr
          0x0077acd8      4e76           trapv
       > 0x0077acda      defc0060       adda.w 0x60, a7
           0x0077acde      48e7fff8       movem.l d0-d7/a0-a4, -(a7)
           0x0077ace2      45f90086eb32   lea.l 0x86eb32, a2
           0x0077ace8      47ee000a       lea.l 0xa(a6), a3
           0x0077acec      49eeff9e       lea.l -0x62(a6), a4
           0x0077acf0      7401           moveq 0x1, d2
           0x0077acf2      7a9c           moveq 0x9c, d5
           0x0077acf4      7c02           moveq 0x2, d6
           0x0077acf6      554f           subq.w 0x2, a7
           0x0077acf8      1f13           move.b (a3), -(a7)
           0x0077acfa      4eb9006ba282   jsr USER1_UTILS.scope_ok
           0x0077ad00      544f           addq.w 0x2, a7
           0x0077ad02      1017           move.b (a7), d0
           0x0077ad04      4880           ext.w d0
           0x0077ad06      4182           chk.w d2, d0
           0x0077ad08      1e80           move.b d0, (a7)
           0x0077ad0a      4eb90040452a   jsr p_Assert
           0x0077ad10      4854           pea.l (a4)
           0x0077ad12      4eb900404434   jsr fcn.00404434
           0x0077ad18      584f           addq.w 0x4, a7
           0x0077ad1a      4a1f           tst.b (a7)+
       < 0x0077ad1c      670001ce       beq.w 0x77aeec
          0x0077ad20      4a2e0008       tst.b 0x8(a6)
      < 0x0077ad24      6704           beq.b 0x77ad2a
         0x0077ad26      4ebafe04       jsr PANEL_STACK.push_stack(pc)
      > 0x0077ad2a      2d7ac970ffec   move.l 0x77769c(pc), -0x14(a6)
          0x0077ad30      2d7ac96efff0   move.l 0x7776a0(pc), -0x10(a6)
          0x0077ad36      3d7ac96cfff4   move.w 0x7776a4(pc), -0xc(a6)
          0x0077ad3c      302e000e       move.w 0xe(a6), d0
          0x0077ad40      48c0           ext.l d0
          0x0077ad42      2200           move.l d0, d1
      < 0x0077ad44      6a02           bpl.b 0x77ad48
         0x0077ad46      4481           neg.l d1
      > 0x0077ad48      3d41fff6       move.w d1, -0xa(a6)
          0x0077ad4c      554f           subq.w 0x2, a7
          0x0077ad4e      4227           clr.b -(a7)
          0x0077ad50      486efff6       pea.l -0xa(a6)
          0x0077ad54      1f02           move.b d2, -(a7)
          0x0077ad56      2f13           move.l (a3), -(a7)
          0x0077ad58      486effec       pea.l -0x14(a6)
          0x0077ad5c      4eb9006b05ba   jsr USER.get_snum
          0x0077ad62      defc0010       adda.w 0x10, a7
          0x0077ad66      4a1f           tst.b (a7)+
      < 0x0077ad68      660a           bne.b 0x77ad74
         0x0077ad6a      4854           pea.l (a4)
         0x0077ad6c      4eb900404468   jsr fcn.00404468
         0x0077ad72      584f           addq.w 0x4, a7
      > 0x0077ad74      554f           subq.w 0x2, a7
          0x0077ad76      2052           movea.l (a2), a0
          0x0077ad78      b1e8fffc       cmpa.l -0x4(a0), a0
      < 0x0077ad7c      6702           beq.b 0x77ad80
         0x0077ad7e      4e4d           trap 0xd
      > 0x0077ad80      41e81522       lea.l 0x1522(a0), a0
          0x0077ad84      2f08           move.l a0, -(a7)
          0x0077ad86      1f02           move.b d2, -(a7)
          0x0077ad88      48790086f042   pea.l 0x86f042
          0x0077ad8e      2f2efff2       move.l -0xe(a6), -(a7)
          0x0077ad92      2f2effee       move.l -0x12(a6), -(a7)
          0x0077ad96      3f2effec       move.w -0x14(a6), -(a7)
          0x0077ad9a      4eb9006b276e   jsr USER.load_stack
          0x0077ada0      defc0014       adda.w 0x14, a7
          0x0077ada4      4a1f           tst.b (a7)+
      < 0x0077ada6      661a           bne.b 0x77adc2
         0x0077ada8      4878000a       pea.l 0xa
         0x0077adac      0c40ffff       cmpi.w 0xffff, d0
     < 0x0077adb0      6302           bls.b 0x77adb4
        0x0077adb2      4e4f           trap 0xf
     > 0x0077adb4      3f00           move.w d0, -(a7)
         0x0077adb6      4854           pea.l (a4)
         0x0077adb8      4eb9007835b0   jsr PANEL_UTILS.panel_error
         0x0077adbe      defc000a       adda.w 0xa, a7
      > 0x0077adc2      23c00086eb36   move.l d0, 0x86eb36
          0x0077adc8      23d30086eb3a   move.l (a3), 0x86eb3a
          0x0077adce      7e9d           moveq 0x9d, d7
      > 0x0077add0      2007           move.l d7, d0
         0x0077add2      9085           sub.l d5, d0
         0x0077add4      0c80000000c7   cmpi.l 0xc7, d0
     < 0x0077adda      6302           bls.b 0x77adde
        0x0077addc      4e4f           trap 0xf
     > 0x0077adde      2800           move.l d0, d4
         0x0077ade0      7636           moveq 0x36, d3
         0x0077ade2      4eb900406a74   jsr fcn.00406a74
         0x0077ade8      2052           movea.l (a2), a0
         0x0077adea      b1e8fffc       cmpa.l -0x4(a0), a0
     < 0x0077adee      6702           beq.b 0x77adf2
        0x0077adf0      4e4d           trap 0xd
     > 0x0077adf2      4230482e       clr.b 0x2e(a0, d4.l)
         0x0077adf6      5287           addq.l 0x1, d7
         0x0077adf8      4a87           tst.l d7
      < 0x0077adfa      6dd4           blt.b 0x77add0
          0x0077adfc      554f           subq.w 0x2, a7
          0x0077adfe      4eb900784a68   jsr PANEL_UTILS.cur_stack_type
          0x0077ae04      101f           move.b (a7)+, d0
          0x0077ae06      b006           cmp.b d6, d0
      < 0x0077ae08      665e           bne.b 0x77ae68
         0x0077ae0a      103900871014   move.b 0x871014, d0
         0x0077ae10      4880           ext.w d0
         0x0077ae12      b046           cmp.w d6, d0
     < 0x0077ae14      624e           bhi.b 0x77ae64
        0x0077ae16      d040           add.w d0, d0
        0x0077ae18      303b0006       move.w 0x77ae20(pc, d0.w), d0
        0x0077ae1c      4efb0002       jmp 0x77ae20(pc, d0.w)
         0x0077ae20      0006002c       ori.b 0x2c, d6
         0x0077ae24      00429efc       ori.w 0x9efc, d2
         0x0077ae28      0026204f       ori.b 0x4f, -(a6)
         0x0077ae2c      43f900871002   lea.l 0x871002, a1
         0x0077ae32      7008           moveq 0x8, d0
     > 0x0077ae34      20d9           move.l (a1)+, (a0)+
     < 0x0077ae36      51c8fffc       dbra d0, 0x77ae34
     > 0x0077ae3a      10d9           move.b (a1)+, (a0)+
        0x0077ae3c      3f3c000f       move.w 0xf, -(a7)
        0x0077ae40      4eb9007847c2   jsr PANEL_UTILS.convert_cur_sta
        0x0077ae46      defc0028       adda.w 0x28, a7
    < 0x0077ae4a      6074           bra.b 0x77aec0
       0x0077ae4c      9efc0026       suba.w 0x26, a7
       0x0077ae50      204f           movea.l a7, a0
       0x0077ae52      43f900871002   lea.l 0x871002, a1
       0x0077ae58      7008           moveq 0x8, d0
   > 0x0077ae5a      20d9           move.l (a1)+, (a0)+
   < 0x0077ae5c      51c8fffc       dbra d0, 0x77ae5a
    < 0x0077ae60      60d8           bra.b 0x77ae3a
    < 0x0077ae62      605c           bra.b 0x77aec0
   > 0x0077ae64      605a           bra.b 0x77aec0
   < 0x0077ae66      6058           bra.b 0x77aec0
   > 0x0077ae68      7e00           moveq 0x0, d7
       ; CODE XREF from PANEL_STACK @ +0x3800
   > 0x0077ae6a      2007           move.l d7, d0
      0x0077ae6c      9085           sub.l d5, d0
      0x0077ae6e      0c80000000c7   cmpi.l 0xc7, d0
  < 0x0077ae74      6302           bls.b 0x77ae78
     0x0077ae76      4e4f           trap 0xf
  > 0x0077ae78      2800           move.l d0, d4
      0x0077ae7a      7636           moveq 0x36, d3
      0x0077ae7c      4eb900406a74   jsr fcn.00406a74
      0x0077ae82      2052           movea.l (a2), a0
      0x0077ae84      b1e8fffc       cmpa.l -0x4(a0), a0
  < 0x0077ae88      6702           beq.b 0x77ae8c
     0x0077ae8a      4e4d           trap 0xd
  > 0x0077ae8c      4a30482e       tst.b 0x2e(a0, d4.l)
  < 0x0077ae90      660c           bne.b 0x77ae9e
     0x0077ae92      0c8700000063   cmpi.l 0x63, d7
  < 0x0077ae98      6c04           bge.b 0x77ae9e
     0x0077ae9a      5287           addq.l 0x1, d7
  < 0x0077ae9c      60cc           bra.b 0x77ae6a
  > 0x0077ae9e      2f07           move.l d7, -(a7)
       0x0077aea0      4ebaf444       jsr PANEL_STACK.set_crnt_from_e(pc)
       0x0077aea4      544f           addq.w 0x2, a7
       0x0077aea6      4eb900784a68   jsr PANEL_UTILS.cur_stack_type
       0x0077aeac      101f           move.b (a7)+, d0
       0x0077aeae      b002           cmp.b d2, d0
   < 0x0077aeb0      660e           bne.b 0x77aec0
      0x0077aeb2      2052           movea.l (a2), a0
      0x0077aeb4      b1e8fffc       cmpa.l -0x4(a0), a0
  < 0x0077aeb8      6702           beq.b 0x77aebc
     0x0077aeba      4e4d           trap 0xd
  > 0x0077aebc      21420006       move.l d2, 0x6(a0)
      ; CODE XREF from PANEL_STACK @ +0x37c8
   > 0x0077aec0      4eb900784cfc   jsr PANEL_UTILS.upd_unknown_ent
           0x0077aec6      4a13           tst.b (a3)
       < 0x0077aec8      660e           bne.b 0x77aed8
          0x0077aeca      302e000e       move.w 0xe(a6), d0
          0x0077aece      48c0           ext.l d0
          0x0077aed0      23c00087104e   move.l d0, 0x87104e
      < 0x0077aed6      600e           bra.b 0x77aee6
      > 0x0077aed8      302e000e       move.w 0xe(a6), d0
          0x0077aedc      48c0           ext.l d0
          0x0077aede      4480           neg.l d0
          0x0077aee0      23c00087104e   move.l d0, 0x87104e
          ; CODE XREF from PANEL_STACK @ +0x383a
      > 0x0077aee6      1d420010       move.b d2, 0x10(a6)
       < 0x0077aeea      601e           bra.b 0x77af0a
       > 0x0077aeec      4a2e0008       tst.b 0x8(a6)
       < 0x0077aef0      6704           beq.b 0x77aef6
          0x0077aef2      4ebafd52       jsr PANEL_STACK.pull_stack(pc)
       > 0x0077aef6      422e0010       clr.b 0x10(a6)
           0x0077aefa      4a2e0008       tst.b 0x8(a6)
       < 0x0077aefe      6706           beq.b 0x77af06
          0x0077af00      4ebaebce       jsr PANEL_STACK.error_next_on_a(pc)
      < 0x0077af04      6004           bra.b 0x77af0a
      > 0x0077af06      4ebaeb32       jsr PANEL_STACK.error_on_air(pc)
          ; CODE XREFS from PANEL_STACK @ +0x384e, +0x3868
      > 0x0077af0a      4cdf1fff       movem.l (a7)+, d0-d7/a0-a4
            0x0077af0e      4e5e           unlk a6
            0x0077af10      4e75           rts
            ; XREFS: CALL 0x0077626a  CALL 0x007772de  CALL 0x0077cd66  
            ; XREFS: CALL 0x0077e852  CALL 0x0077f9b0  CALL 0x007806ea  
            ; XREFS: CALL 0x007808c6  CALL 0x00780dd0  CALL 0x00781006  
            ; XREFS: CALL 0x00781264  CALL 0x007817ac  
 256: PANEL_STACK.get_frozen ();
           0x0077af12      4e56fdd8       link.w a6, 0xfdd8
           0x0077af16      bfd5           cmpa.l (a5), a7
       < 0x0077af18      6206           bhi.b 0x77af20
          0x0077af1a      44fc0002       move.w 0x2, ccr
          0x0077af1e      4e76           trapv
       > 0x0077af20      defc0128       adda.w 0x128, a7
           0x0077af24      48e7f0f0       movem.l d0-d3/a0-a3, -(a7)
           0x0077af28      45eeff00       lea.l -0x100(a6), a2
           0x0077af2c      47f90086eb1f   lea.l 0x86eb1f, a3
           0x0077af32      7601           moveq 0x1, d3
           0x0077af34      4a13           tst.b (a3)
       < 0x0077af36      660000d2       bne.w 0x77b00a
          0x0077af3a      4eb900798360   jsr PANEL_VIDEO.freeze
          0x0077af40      1683           move.b d3, (a3)
          0x0077af42      4a2e0008       tst.b 0x8(a6)
      < 0x0077af46      670000c2       beq.w 0x77b00a
         0x0077af4a      9efc0100       suba.w 0x100, a7
         0x0077af4e      20390086eb24   move.l 0x86eb24, d0
         0x0077af54      0c800000ffff   cmpi.l 0xffff, d0
     < 0x0077af5a      6302           bls.b 0x77af5e
        0x0077af5c      4e4f           trap 0xf
     > 0x0077af5e      3f00           move.w d0, -(a7)
         0x0077af60      10390086eb28   move.b 0x86eb28, d0
         0x0077af66      4880           ext.w d0
         0x0077af68      41bc0004       chk.w 0x4, d0
         0x0077af6c      1f00           move.b d0, -(a7)
         0x0077af6e      4eb90078f39e   jsr PANEL_INPUT.input_name
         0x0077af74      584f           addq.w 0x4, a7
         0x0077af76      4240           clr.w d0
         0x0077af78      1017           move.b (a7), d0
         0x0077af7a      3200           move.w d0, d1
         0x0077af7c      41eeff01       lea.l -0xff(a6), a0
         0x0077af80      5301           subq.b 0x1, d1
     < 0x0077af82      650a           bcs.b 0x77af8e
        0x0077af84      43ef0001       lea.l 0x1(a7), a1
    > 0x0077af88      10d9           move.b (a1)+, (a0)+
    < 0x0077af8a      51c9fffc       dbra d1, 0x77af88
     > 0x0077af8e      7207           moveq 0x7, d1
         0x0077af90      d200           add.b d0, d1
     < 0x0077af92      6406           bcc.b 0x77af9a
        0x0077af94      4eb900406c8a   jsr p_strovr
     > 0x0077af9a      7207           moveq 0x7, d1
         0x0077af9c      343c00ff       move.w 0xff, d2
         0x0077afa0      9440           sub.w d0, d2
         0x0077afa2      b242           cmp.w d2, d1
     < 0x0077afa4      6302           bls.b 0x77afa8
        0x0077afa6      3202           move.w d2, d1
     > 0x0077afa8      1480           move.b d0, (a2)
         0x0077afaa      d312           add.b d1, (a2)
         0x0077afac      43facc4a       lea.l 0x777bf8(pc), a1
     > 0x0077afb0      10d9           move.b (a1)+, (a0)+
     < 0x0077afb2      51c9fffc       dbra d1, 0x77afb0
         0x0077afb6      204f           movea.l a7, a0
         0x0077afb8      224a           movea.l a2, a1
         0x0077afba      703f           moveq 0x3f, d0
     > 0x0077afbc      20d9           move.l (a1)+, (a0)+
     < 0x0077afbe      51c8fffc       dbra d0, 0x77afbc
         0x0077afc2      1f03           move.b d3, -(a7)
         0x0077afc4      4ebae94c       jsr PANEL_STACK.set_on_air(pc)
         0x0077afc8      defc0102       adda.w 0x102, a7
         0x0077afcc      13fc00050086.  move.b 0x5, 0x86f67c.l
         0x0077afd4      41f90086f6b3   lea.l 0x86f6b3, a0
         0x0077afda      224a           movea.l a2, a1
         0x0077afdc      303c00ff       move.w 0xff, d0
     > 0x0077afe0      10d9           move.b (a1)+, (a0)+
     < 0x0077afe2      51c8fffc       dbra d0, 0x77afe0
         0x0077afe6      42390086f6a2   clr.b 0x86f6a2
         0x0077afec      42790086f67e   clr.w 0x86f67e
         0x0077aff2      23fac6a80087.  move.l 0x77769c(pc), 0x871052.l
         0x0077affa      23fac6a40087.  move.l 0x7776a0(pc), 0x871056.l
         0x0077b002      33fac6a00087.  move.w 0x7776a4(pc), 0x87105a.l
      > 0x0077b00a      4cdf0f0f       movem.l (a7)+, d0-d3/a0-a3
           0x0077b00e      4e5e           unlk a6
           0x0077b010      4e75           rts
            ; CALL XREF from PANEL.rem_live @ 0x7772a0
            ; CALL XREF from PANEL_STACK.do_grab @ 0x780e68
            ; CALL XREF from PANEL_STACK.do_freeze @ 0x781254
            ; CALL XREF from PANEL_STACK.do_sel_input @ 0x781304
            ; CALL XREF from PANEL_STACK.do_sel_plane @ 0x781430
 302: PANEL_STACK.get_live ();
           0x0077b012      4e56fdce       link.w a6, 0xfdce
           0x0077b016      bfd5           cmpa.l (a5), a7
       < 0x0077b018      6206           bhi.b 0x77b020
          0x0077b01a      44fc0002       move.w 0x2, ccr
          0x0077b01e      4e76           trapv
       > 0x0077b020      defc0130       adda.w 0x130, a7
           0x0077b024      48e7f8f8       movem.l d0-d4/a0-a4, -(a7)
           0x0077b028      45eefefe       lea.l -0x102(a6), a2
           0x0077b02c      47f90086eb24   lea.l 0x86eb24, a3
           0x0077b032      49eefffe       lea.l -0x2(a6), a4
           0x0077b036      363c0100       move.w 0x100, d3
           0x0077b03a      383c00ff       move.w 0xff, d4
           0x0077b03e      4aae000a       tst.l 0xa(a6)
       < 0x0077b042      6d04           blt.b 0x77b048
          0x0077b044      26ae000a       move.l 0xa(a6), (a3)
       > 0x0077b048      2f13           move.l (a3), -(a7)
           0x0077b04a      1f2e0008       move.b 0x8(a6), -(a7)
           0x0077b04e      4854           pea.l (a4)
           0x0077b050      4eb900798274   jsr PANEL_VIDEO.go_live
           0x0077b056      defc000a       adda.w 0xa, a7
           0x0077b05a      42390086eb1f   clr.b 0x86eb1f
           0x0077b060      9ec3           suba.w d3, a7
           0x0077b062      2013           move.l (a3), d0
           0x0077b064      0c800000ffff   cmpi.l 0xffff, d0
       < 0x0077b06a      6302           bls.b 0x77b06e
          0x0077b06c      4e4f           trap 0xf
       > 0x0077b06e      3f00           move.w d0, -(a7)
           0x0077b070      1f2e0008       move.b 0x8(a6), -(a7)
           0x0077b074      4eb90078f39e   jsr PANEL_INPUT.input_name
           0x0077b07a      584f           addq.w 0x4, a7
           0x0077b07c      204a           movea.l a2, a0
           0x0077b07e      703f           moveq 0x3f, d0
       > 0x0077b080      20df           move.l (a7)+, (a0)+
       < 0x0077b082      51c8fffc       dbra d0, 0x77b080
           0x0077b086      4a14           tst.b (a4)
       < 0x0077b088      6730           beq.b 0x77b0ba
          0x0077b08a      4240           clr.w d0
          0x0077b08c      1012           move.b (a2), d0
          0x0077b08e      41eefeff       lea.l -0x101(a6), a0
          0x0077b092      d0c0           adda.w d0, a0
          0x0077b094      7205           moveq 0x5, d1
          0x0077b096      d200           add.b d0, d1
      < 0x0077b098      6406           bcc.b 0x77b0a0
         0x0077b09a      4eb900406c8a   jsr p_strovr
      > 0x0077b0a0      7205           moveq 0x5, d1
          0x0077b0a2      3404           move.w d4, d2
          0x0077b0a4      9440           sub.w d0, d2
          0x0077b0a6      b242           cmp.w d2, d1
      < 0x0077b0a8      6302           bls.b 0x77b0ac
         0x0077b0aa      3202           move.w d2, d1
      > 0x0077b0ac      d312           add.b d1, (a2)
          0x0077b0ae      43facb50       lea.l 0x777c00(pc), a1
      > 0x0077b0b2      10d9           move.b (a1)+, (a0)+
      < 0x0077b0b4      51c9fffc       dbra d1, 0x77b0b2
      < 0x0077b0b8      602e           bra.b 0x77b0e8
      > 0x0077b0ba      4240           clr.w d0
          0x0077b0bc      1012           move.b (a2), d0
          0x0077b0be      41eefeff       lea.l -0x101(a6), a0
          0x0077b0c2      d0c0           adda.w d0, a0
          0x0077b0c4      720e           moveq 0xe, d1
          0x0077b0c6      d200           add.b d0, d1
      < 0x0077b0c8      6406           bcc.b 0x77b0d0
         0x0077b0ca      4eb900406c8a   jsr p_strovr
      > 0x0077b0d0      720e           moveq 0xe, d1
          0x0077b0d2      3404           move.w d4, d2
          0x0077b0d4      9440           sub.w d0, d2
          0x0077b0d6      b242           cmp.w d2, d1
      < 0x0077b0d8      6302           bls.b 0x77b0dc
         0x0077b0da      3202           move.w d2, d1
      > 0x0077b0dc      d312           add.b d1, (a2)
          0x0077b0de      43facb26       lea.l 0x777c06(pc), a1
      > 0x0077b0e2      10d9           move.b (a1)+, (a0)+
      < 0x0077b0e4      51c9fffc       dbra d1, 0x77b0e2
      > 0x0077b0e8      9ec3           suba.w d3, a7
           0x0077b0ea      204f           movea.l a7, a0
           0x0077b0ec      224a           movea.l a2, a1
           0x0077b0ee      703f           moveq 0x3f, d0
       > 0x0077b0f0      20d9           move.l (a1)+, (a0)+
       < 0x0077b0f2      51c8fffc       dbra d0, 0x77b0f0
           0x0077b0f6      1f3c0001       move.b 0x1, -(a7)
           0x0077b0fa      4ebae816       jsr PANEL_STACK.set_on_air(pc)
           0x0077b0fe      defc0102       adda.w 0x102, a7
           0x0077b102      13fc00050086.  move.b 0x5, 0x86f67c.l
           0x0077b10a      41f90086f6b3   lea.l 0x86f6b3, a0
           0x0077b110      224a           movea.l a2, a1
           0x0077b112      3004           move.w d4, d0
       > 0x0077b114      10d9           move.b (a1)+, (a0)+
       < 0x0077b116      51c8fffc       dbra d0, 0x77b114
           0x0077b11a      4a14           tst.b (a4)
       < 0x0077b11c      661a           bne.b 0x77b138
          0x0077b11e      3f3c0002       move.w 0x2, -(a7)
          0x0077b122      9ec3           suba.w d3, a7
          0x0077b124      204f           movea.l a7, a0
          0x0077b126      224a           movea.l a2, a1
          0x0077b128      703f           moveq 0x3f, d0
      > 0x0077b12a      20d9           move.l (a1)+, (a0)+
      < 0x0077b12c      51c8fffc       dbra d0, 0x77b12a
          0x0077b130      4ebae56c       jsr PANEL_STACK.set_last_error(pc)
          0x0077b134      defc0102       adda.w 0x102, a7
       > 0x0077b138      4cdf1f1f       movem.l (a7)+, d0-d4/a0-a4
           0x0077b13c      4e5e           unlk a6
           0x0077b13e      4e75           rts
 286: PANEL_STACK.got_next_item (int32_t arg_1533h, int32_t arg_1534h, int32_t arg_1535h);
           ; arg int32_t arg_1533h @ a7+0x1533
           ; arg int32_t arg_1534h @ a7+0x1534
           ; arg int32_t arg_1535h @ a7+0x1535
           0x0077b140      4e56ffc6       link.w a6, 0xffc6
           0x0077b144      bfd5           cmpa.l (a5), a7
       < 0x0077b146      6206           bhi.b 0x77b14e
          0x0077b148      44fc0002       move.w 0x2, ccr
          0x0077b14c      4e76           trapv
       > 0x0077b14e      defc0036       adda.w 0x36, a7
           0x0077b152      48e7e1f0       movem.l d0-d2/d7/a0-a3, -(a7)
           0x0077b156      43f90086eb1a   lea.l 0x86eb1a, a1
           0x0077b15c      45f9004047ea   lea.l p_wts_o, a2
           0x0077b162      47f900404946   lea.l p_wtln_o, a3
           0x0077b168      720c           moveq 0xc, d1
           0x0077b16a      7401           moveq 0x1, d2
           0x0077b16c      554f           subq.w 0x2, a7
           0x0077b16e      4227           clr.b -(a7)
           0x0077b170      4eb90078e2fe   jsr PANEL_PREFETCH.got_top_of_stac
           0x0077b176      544f           addq.w 0x2, a7
           0x0077b178      4a1f           tst.b (a7)+
       < 0x0077b17a      671c           beq.b 0x77b198
          0x0077b17c      7e01           moveq 0x1, d7
          0x0077b17e      4a11           tst.b (a1)
      < 0x0077b180      670000cc       beq.w 0x77b24e
         0x0077b184      487aca8f       pea.l 0x777c15(pc)
         0x0077b188      48780009       pea.l 0x9
         0x0077b18c      2f17           move.l (a7), -(a7)
         0x0077b18e      4e92           jsr (a2)                    ; fcn.00000009+0x2
         0x0077b190      dec1           adda.w d1, a7
         0x0077b192      4e93           jsr (a3)                    ; fcn.0000000c
     < 0x0077b194      600000b8       bra.w 0x77b24e
     > 0x0077b198      20790086eb32   movea.l 0x86eb32, a0
         0x0077b19e      b1e8fffc       cmpa.l -0x4(a0), a0
     < 0x0077b1a2      6702           beq.b 0x77b1a6
        0x0077b1a4      4e4d           trap 0xd
     > 0x0077b1a6      30281522       move.w 0x1522(a0), d0
         0x0077b1aa      02800000ffff   andi.l 0xffff, d0
         0x0077b1b0      0480ffff8000   subi.l 0xffff8000, d0
         0x0077b1b6      0c800000ffff   cmpi.l 0xffff, d0
     < 0x0077b1bc      6302           bls.b 0x77b1c0
        0x0077b1be      4e4f           trap 0xf
     > 0x0077b1c0      0680ffff8000   addi.l 0xffff8000, d0
         0x0077b1c6      3d40fffe       move.w d0, -0x2(a6)
         0x0077b1ca      554f           subq.w 0x2, a7
         0x0077b1cc      48c0           ext.l d0
     < 0x0077b1ce      6a02           bpl.b 0x77b1d2
        0x0077b1d0      4480           neg.l d0
     > 0x0077b1d2      3f00           move.w d0, -(a7)
         0x0077b1d4      594f           subq.w 0x4, a7
         0x0077b1d6      1ea81532       move.b 0x1532(a0), (a7)
         0x0077b1da      1f6815330001   move.b 0x1533(a0), 0x1(a7)
         0x0077b1e0      1f6815340002   move.b 0x1534(a0), 0x2(a7)
         0x0077b1e6      1f6815350003   move.b 0x1535(a0), 0x3(a7)
         0x0077b1ec      4eb90079441a   jsr PANEL_VIDEO.picnum_used
         0x0077b1f2      5c4f           addq.w 0x6, a7
         0x0077b1f4      4a1f           tst.b (a7)+
     < 0x0077b1f6      6754           beq.b 0x77b24c
        0x0077b1f8      4eb9007a2562   jsr SERIAL.temp_wait
        0x0077b1fe      4a11           tst.b (a1)
    < 0x0077b200      6710           beq.b 0x77b212
       0x0077b202      487aca1b       pea.l 0x777c1f(pc)
       0x0077b206      48780026       pea.l 0x26
       0x0077b20a      2f17           move.l (a7), -(a7)
       0x0077b20c      4e92           jsr (a2)                    ; fcn.00000009+0x2
       0x0077b20e      dec1           adda.w d1, a7
       0x0077b210      4e93           jsr (a3)                    ; fcn.0000000c
    > 0x0077b212      554f           subq.w 0x2, a7
        0x0077b214      1f02           move.b d2, -(a7)
        0x0077b216      4eb90078e2fe   jsr PANEL_PREFETCH.got_top_of_stac
        0x0077b21c      544f           addq.w 0x2, a7
        0x0077b21e      4a1f           tst.b (a7)+
    < 0x0077b220      6612           bne.b 0x77b234
       0x0077b222      487aca22       pea.l 0x777c46(pc)
       0x0077b226      48780025       pea.l 0x25
       0x0077b22a      2f17           move.l (a7), -(a7)
       0x0077b22c      4e92           jsr (a2)                    ; fcn.00000009+0x2
       0x0077b22e      dec1           adda.w d1, a7
       0x0077b230      4e93           jsr (a3)                    ; fcn.0000000c
   < 0x0077b232      6018           bra.b 0x77b24c
   > 0x0077b234      4a11           tst.b (a1)
   < 0x0077b236      6710           beq.b 0x77b248
      0x0077b238      487aca32       pea.l 0x777c6c(pc)
      0x0077b23c      4878001e       pea.l 0x1e
      0x0077b240      2f17           move.l (a7), -(a7)
      0x0077b242      4e92           jsr (a2)                    ; fcn.00000009+0x2
      0x0077b244      dec1           adda.w d1, a7
      0x0077b246      4e93           jsr (a3)                    ; fcn.0000000c
   > 0x0077b248      7e01           moveq 0x1, d7
   < 0x0077b24a      6002           bra.b 0x77b24e
   > 0x0077b24c      7e00           moveq 0x0, d7
    > 0x0077b24e      4887           ext.w d7
           0x0077b250      4f82           chk.w d2, d7
           0x0077b252      1d470008       move.b d7, 0x8(a6)
           0x0077b256      4cdf0f87       movem.l (a7)+, d0-d2/d7/a0-a3
           0x0077b25a      4e5e           unlk a6
           0x0077b25c      4e75           rts
 22: PANEL_STACK.do_nothing ();
           0x0077b25e      4e56fffc       link.w a6, 0xfffc
           0x0077b262      bfd5           cmpa.l (a5), a7
       < 0x0077b264      6206           bhi.b 0x77b26c
          0x0077b266      44fc0002       move.w 0x2, ccr
          0x0077b26a      4e76           trapv
       > 0x0077b26c      defc0004       adda.w 0x4, a7
           0x0077b270      4e5e           unlk a6
           0x0077b272      4e75           rts
 218: PANEL_STACK.check_entry_ok ();
           0x0077b274      4e56fed6       link.w a6, 0xfed6
           0x0077b278      bfd5           cmpa.l (a5), a7
       < 0x0077b27a      6206           bhi.b 0x77b282
          0x0077b27c      44fc0002       move.w 0x2, ccr
          0x0077b280      4e76           trapv
       > 0x0077b282      defc0120       adda.w 0x120, a7
           0x0077b286      48e7e0e0       movem.l d0-d2/a0-a2, -(a7)
           0x0077b28a      45eefff6       lea.l -0xa(a6), a2
           0x0077b28e      7201           moveq 0x1, d1
           0x0077b290      7414           moveq 0x14, d2
           0x0077b292      554f           subq.w 0x2, a7
           0x0077b294      4227           clr.b -(a7)
           0x0077b296      486e0008       pea.l 0x8(a6)
           0x0077b29a      1f01           move.b d1, -(a7)
           0x0077b29c      2f2c016a       move.l 0x16a(a4), -(a7)
           0x0077b2a0      1f01           move.b d1, -(a7)
           0x0077b2a2      4852           pea.l (a2)
           0x0077b2a4      4eb9006b0530   jsr USER.get_pnum
           0x0077b2aa      defc0012       adda.w 0x12, a7
           0x0077b2ae      4a1f           tst.b (a7)+
       < 0x0077b2b0      660a           bne.b 0x77b2bc
          0x0077b2b2      4854           pea.l (a4)
          0x0077b2b4      4eb900404468   jsr fcn.00404468
          0x0077b2ba      584f           addq.w 0x4, a7
       > 0x0077b2bc      554f           subq.w 0x2, a7
           0x0077b2be      2f2efffc       move.l -0x4(a6), -(a7)
           0x0077b2c2      2f2efff8       move.l -0x8(a6), -(a7)
           0x0077b2c6      3f12           move.w (a2), -(a7)
           0x0077b2c8      2f3ac3d8       move.l 0x7776a2(pc), -(a7)
           0x0077b2cc      2f3ac3d0       move.l 0x77769e(pc), -(a7)
           0x0077b2d0      3f3ac3ca       move.w 0x77769c(pc), -(a7)
           0x0077b2d4      4eb9005ef3d2   jsr F2_UTILITY.f_fids_eq
           0x0077b2da      dec2           adda.w d2, a7
           0x0077b2dc      4a1f           tst.b (a7)+
       < 0x0077b2de      6722           beq.b 0x77b302
          0x0077b2e0      9efc0100       suba.w 0x100, a7
          0x0077b2e4      204f           movea.l a7, a0
          0x0077b2e6      43fac9a2       lea.l 0x777c8a(pc), a1
          0x0077b2ea      7005           moveq 0x5, d0
      > 0x0077b2ec      20d9           move.l (a1)+, (a0)+
      < 0x0077b2ee      51c8fffc       dbra d0, 0x77b2ec
          0x0077b2f2      10d9           move.b (a1)+, (a0)+
          0x0077b2f4      204c           movea.l a4, a0
          0x0077b2f6      2f08           move.l a0, -(a7)
          0x0077b2f8      4eb900408e0e   jsr p_error
          0x0077b2fe      defc0104       adda.w 0x104, a7
       > 0x0077b302      554f           subq.w 0x2, a7
           0x0077b304      2f2efffc       move.l -0x4(a6), -(a7)
           0x0077b308      2f2efff8       move.l -0x8(a6), -(a7)
           0x0077b30c      3f12           move.w (a2), -(a7)
           0x0077b30e      2f3ac476       move.l 0x777786(pc), -(a7)
           0x0077b312      2f3ac46e       move.l 0x777782(pc), -(a7)
           0x0077b316      3f3ac468       move.w 0x777780(pc), -(a7)
           0x0077b31a      4eb9005ef3d2   jsr F2_UTILITY.f_fids_eq
           0x0077b320      dec2           adda.w d2, a7
           0x0077b322      4a1f           tst.b (a7)+
       < 0x0077b324      6720           beq.b 0x77b346
          0x0077b326      9efc0100       suba.w 0x100, a7
          0x0077b32a      204f           movea.l a7, a0
          0x0077b32c      43fac975       lea.l 0x777ca3(pc), a1
          0x0077b330      701c           moveq 0x1c, d0
      > 0x0077b332      10d9           move.b (a1)+, (a0)+
      < 0x0077b334      51c8fffc       dbra d0, 0x77b332
          0x0077b338      204c           movea.l a4, a0
          0x0077b33a      2f08           move.l a0, -(a7)
          0x0077b33c      4eb900408e0e   jsr p_error
          0x0077b342      defc0104       adda.w 0x104, a7
       > 0x0077b346      4cdf0707       movem.l (a7)+, d0-d2/a0-a2
           0x0077b34a      4e5e           unlk a6
           0x0077b34c      4e75           rts
            ; XREFS: CALL 0x007751e6  CALL 0x00775530  CALL 0x00775d46  
            ; XREFS: CALL 0x0077bb9e  CALL 0x0077cfce  CALL 0x0077d87a  
            ; XREFS: CALL 0x0077dd88  CALL 0x0077e02c  CALL 0x00780718  
 248: PANEL_STACK.pre_fetch ();
           ; var int32_t var_36h @ a6-0x36
           ; var int32_t var_8h @ a7+0x8
           0x0077b34e      4e56fc26       link.w a6, 0xfc26
           0x0077b352      bfd5           cmpa.l (a5), a7
       < 0x0077b354      6206           bhi.b 0x77b35c
          0x0077b356      44fc0002       move.w 0x2, ccr
          0x0077b35a      4e76           trapv
       > 0x0077b35c      defc024a       adda.w 0x24a, a7
           0x0077b360      48e7fff8       movem.l d0-d7/a0-a4, -(a7)
           0x0077b364      45f9004047ea   lea.l p_wts_o, a2
           0x0077b36a      47f90086ed42   lea.l 0x86ed42, a3
           0x0077b370      740c           moveq 0xc, d2
           0x0077b372      7601           moveq 0x1, d3
           0x0077b374      383c0100       move.w 0x100, d4
           0x0077b378      7a0a           moveq 0xa, d5
           0x0077b37a      7c02           moveq 0x2, d6
           0x0077b37c      7e3a           moveq 0x3a, d7
           0x0077b37e      4a390086eb1a   tst.b 0x86eb1a
       < 0x0077b384      673a           beq.b 0x77b3c0
          0x0077b386      487ac939       pea.l 0x777cc1(pc)
          0x0077b38a      4878000a       pea.l 0xa
          0x0077b38e      2f17           move.l (a7), -(a7)
          0x0077b390      4e92           jsr (a2)                    ; fcn.00000009+0x2
          0x0077b392      dec2           adda.w d2, a7
          0x0077b394      20790086eb32   movea.l 0x86eb32, a0
          0x0077b39a      b1e8fffc       cmpa.l -0x4(a0), a0
      < 0x0077b39e      6702           beq.b 0x77b3a2
         0x0077b3a0      4e4d           trap 0xd
      > 0x0077b3a2      9efc0036       suba.w 0x36, a7
          0x0077b3a6      224f           movea.l a7, a1
          0x0077b3a8      41e81522       lea.l 0x1522(a0), a0
          0x0077b3ac      7034           moveq 0x34, d0
      > 0x0077b3ae      12d8           move.b (a0)+, (a1)+
      < 0x0077b3b0      51c8fffc       dbra d0, 0x77b3ae
          0x0077b3b4      48780000       pea.l 0x0
          0x0077b3b8      4eb9006b8ae4   jsr USER1_UTILS.show_entry
          0x0077b3be      dec7           adda.w d7, a7
       > 0x0077b3c0      16bac909       move.b 0x777ccb(pc), (a3)
           0x0077b3c4      13fac9060086.  move.b 0x777ccc(pc), 0x86f342.l
           0x0077b3cc      20790086eb32   movea.l 0x86eb32, a0
           0x0077b3d2      b1e8fffc       cmpa.l -0x4(a0), a0
       < 0x0077b3d6      6702           beq.b 0x77b3da
          0x0077b3d8      4e4d           trap 0xd
       > 0x0077b3da      43eeffca       lea.l -0x36(a6), a1
           0x0077b3de      41e81522       lea.l 0x1522(a0), a0
           0x0077b3e2      7034           moveq 0x34, d0
       > 0x0077b3e4      12d8           move.b (a0)+, (a1)+
       < 0x0077b3e6      51c8fffc       dbra d0, 0x77b3e4
           0x0077b3ea      102effcc       move.b -0x34(a6), d0
           0x0077b3ee      b006           cmp.b d6, d0
       < 0x0077b3f0      660c           bne.b 0x77b3fe
          0x0077b3f2      486effca       pea.l -0x36(a6)
          0x0077b3f6      1f03           move.b d3, -(a7)
          0x0077b3f8      4ebaec52       jsr PANEL_STACK.make_current(pc)
          0x0077b3fc      5c4f           addq.w 0x6, a7
       > 0x0077b3fe      102effcc       move.b -0x34(a6), d0
           0x0077b402      b006           cmp.b d6, d0
       < 0x0077b404      660a           bne.b 0x77b410
          0x0077b406      486effca       pea.l -0x36(a6)
          0x0077b40a      4ebaee24       jsr PANEL_STACK.make_editonly(pc)
          0x0077b40e      584f           addq.w 0x4, a7
       > 0x0077b410      4a2effee       tst.b -0x12(a6)
       < 0x0077b414      6706           beq.b 0x77b41c
          0x0077b416      3d6effcafeba   move.w -0x36(a6), -0x146(a6)
       > 0x0077b41c      554f           subq.w 0x2, a7
           0x0077b41e      486efe70       pea.l -0x190(a6)
           0x0077b422      4eb900404434   jsr fcn.00404434
           0x0077b428      584f           addq.w 0x4, a7
           0x0077b42a      4a1f           tst.b (a7)+
       < 0x0077b42c      670005c0       beq.w 0x77b9ee
          0x0077b430      102effee       move.b -0x12(a6), d0
          0x0077b434      4880           ext.w d0
          0x0077b436      b045           cmp.w d5, d0
      < 0x0077b438      6302           bls.b 0x77b43c
         0x0077b43a      4e4e           trap 0xe
      > 0x0077b43c      d040           add.w d0, d0
          0x0077b43e      303b0006       move.w 0x77b446(pc, d0.w), d0
          0x0077b442      4efb0002       jmp 0x77b446(pc, d0.w)
           0x0077b446      04a8002403c6.  subi.l 0x2403c6, 0x24(a0)
           0x0077b44e      04f4fff4       
           0x0077b44f      f4ff           cpusha 0x3
           0x0077b451      f400           invalid
           0x0077b453      16fff405       
           0x0077b454      fff4           invalid
           0x0077b456      05360024       btst.l d2, 0x24(a6, d0.w)
           0x0077b45a      00244227       ori.b 0x27, -(a4)
           0x0077b45e      4eb90040452a   jsr p_Assert
           0x0077b464      544f           addq.w 0x2, a7
       < 0x0077b466      60000580       bra.w 0x77b9e8
          0x0077b46a      3f2efeba       move.w -0x146(a6), -(a7)
          0x0077b46e      49eefe70       lea.l -0x190(a6), a4
          0x0077b472      4ebafe00       jsr PANEL_STACK.check_entry_ok(pc)
          0x0077b476      4ebafcc8       jsr PANEL_STACK.got_next_item(pc)
          0x0077b47a      101f           move.b (a7)+, d0
          0x0077b47c      4880           ext.w d0
          0x0077b47e      4183           chk.w d3, d0
          0x0077b480      13c00086eb1d   move.b d0, 0x86eb1d
          0x0077b486      4a00           tst.b d0
      < 0x0077b488      662c           bne.b 0x77b4b6
         0x0077b48a      487ac842       pea.l 0x777cce(pc)
         0x0077b48e      48780023       pea.l 0x23
         0x0077b492      2f17           move.l (a7), -(a7)
         0x0077b494      4e92           jsr (a2)                    ; fcn.00000009+0x2
         0x0077b496      dec2           adda.w d2, a7
         0x0077b498      4eb900404946   jsr p_wtln_o
         0x0077b49e      48780009       pea.l 0x9
         0x0077b4a2      3f2efeba       move.w -0x146(a6), -(a7)
         0x0077b4a6      486efe70       pea.l -0x190(a6)
         0x0077b4aa      4eb9007835b0   jsr PANEL_UTILS.panel_error
         0x0077b4b0      dec5           adda.w d5, a7
     < 0x0077b4b2      60000354       bra.w 0x77b808
     > 0x0077b4b6      102effcc       move.b -0x34(a6), d0
         0x0077b4ba      4880           ext.w d0
         0x0077b4bc      b046           cmp.w d6, d0
     < 0x0077b4be      62000342       bhi.w 0x77b802
        0x0077b4c2      d040           add.w d0, d0
        0x0077b4c4      303b0006       move.w 0x77b4cc(pc, d0.w), d0
        0x0077b4c8      4efb0002       jmp 0x77b4cc(pc, d0.w)
        0x0077b4cc      00060262       ori.b 0x62, d6
        0x0077b4d0      030a4a39       movep.w 0x4a39(a2), d1
        0x0077b4d4      0086eb1a6764   ori.l 0xeb1a6764, d6
        0x0077b4da      487ac816       pea.l 0x777cf2(pc)
        0x0077b4de      4878002e       pea.l 0x2e
        0x0077b4e2      2f17           move.l (a7), -(a7)
        0x0077b4e4      4e92           jsr (a2)                    ; fcn.00000009+0x2
        0x0077b4e6      dec2           adda.w d2, a7
        0x0077b4e8      4eb900404946   jsr p_wtln_o
        0x0077b4ee      487ac831       pea.l 0x777d21(pc)
        0x0077b4f2      48780013       pea.l 0x13
        0x0077b4f6      2f17           move.l (a7), -(a7)
        0x0077b4f8      4e92           jsr (a2)                    ; fcn.00000009+0x2
        0x0077b4fa      dec2           adda.w d2, a7
        0x0077b4fc      30390087101c   move.w 0x87101c, d0
        0x0077b502      48c0           ext.l d0
        0x0077b504      2f00           move.l d0, -(a7)
        0x0077b506      48780000       pea.l 0x0
        0x0077b50a      4eb9004070e4   jsr p_wti_o
        0x0077b510      504f           addq.w 0x8, a7
        0x0077b512      4eb900404946   jsr p_wtln_o
        0x0077b518      487ac81b       pea.l 0x777d35(pc)
        0x0077b51c      4878000d       pea.l 0xd
        0x0077b520      2f17           move.l (a7), -(a7)
        0x0077b522      4e92           jsr (a2)                    ; fcn.00000009+0x2
        0x0077b524      dec5           adda.w d5, a7
        0x0077b526      1eb900871026   move.b 0x871026, (a7)
        0x0077b52c      48780005       pea.l 0x5
        0x0077b530      4eb90040718c   jsr p_wtb_o
        0x0077b536      5c4f           addq.w 0x6, a7
        0x0077b538      4eb900404946   jsr p_wtln_o
        0x0077b53e      30390087101c   move.w 0x87101c, d0
        0x0077b544      41bc0009       chk.w 0x9, d0
        0x0077b548      c1fc0012       muls.w 0x12, d0
        0x0077b54c      9efc0036       suba.w 0x36, a7
        0x0077b550      204f           movea.l a7, a0
        0x0077b552      43eeffca       lea.l -0x36(a6), a1
        0x0077b556      720c           moveq 0xc, d1
    > 0x0077b558      20d9           move.l (a1)+, (a0)+
    < 0x0077b55a      51c9fffc       dbra d1, 0x77b558
        0x0077b55e      10d9           move.b (a1)+, (a0)+
        0x0077b560      4267           clr.w -(a7)
        0x0077b562      48780001       pea.l 0x1
        0x0077b566      123900871026   move.b 0x871026, d1
        0x0077b56c      4881           ext.w d1
        0x0077b56e      4383           chk.w d3, d1
        0x0077b570      1f01           move.b d1, -(a7)
        0x0077b572      4227           clr.b -(a7)
        0x0077b574      32390087101c   move.w 0x87101c, d1
        0x0077b57a      b243           cmp.w d3, d1
    < 0x0077b57c      6702           beq.b 0x77b580
       0x0077b57e      5217           addq.b 0x1, (a7)
    > 0x0077b580      20790086eb32   movea.l 0x86eb32, a0
        0x0077b586      b1e8fffc       cmpa.l -0x4(a0), a0
    < 0x0077b58a      6702           beq.b 0x77b58e
       0x0077b58c      4e4d           trap 0xd
    > 0x0077b58e      41f00800       lea.l (a0, d0.l), a0
        0x0077b592      9efc0012       suba.w 0x12, a7
        0x0077b596      224f           movea.l a7, a1
        0x0077b598      41e82a3a       lea.l 0x2a3a(a0), a0
        0x0077b59c      7011           moveq 0x11, d0
    > 0x0077b59e      12d8           move.b (a0)+, (a1)+
    < 0x0077b5a0      51c8fffc       dbra d0, 0x77b59e
        0x0077b5a4      487900871266   pea.l 0x871266
        0x0077b5aa      4eb900797092   jsr PANEL_VIDEO.stamp_prefetch
        0x0077b5b0      9efc00aa       suba.w 0xaa, a7
        0x0077b5b4      48780001       pea.l 0x1
        0x0077b5b8      4eb90078c1a4   jsr PANEL_PREFETCH.pf_title
        0x0077b5be      584f           addq.w 0x4, a7
        0x0077b5c0      41eefec0       lea.l -0x140(a6), a0
        0x0077b5c4      703f           moveq 0x3f, d0
    > 0x0077b5c6      20df           move.l (a7)+, (a0)+
    < 0x0077b5c8      51c8fffc       dbra d0, 0x77b5c6
        0x0077b5cc      4a390086eb1a   tst.b 0x86eb1a
    < 0x0077b5d2      6770           beq.b 0x77b644
       0x0077b5d4      9ec4           suba.w d4, a7
       0x0077b5d6      2f3900871388   move.l 0x871388, -(a7)
       0x0077b5dc      48780001       pea.l 0x1
       0x0077b5e0      4eb90044dd86   jsr SYSTEM_STRING.point_str
       0x0077b5e6      9efc00f8       suba.w 0xf8, a7
       0x0077b5ea      2f3900871272   move.l 0x871272, -(a7)
       0x0077b5f0      48780001       pea.l 0x1
       0x0077b5f4      4eb90044dd86   jsr SYSTEM_STRING.point_str
       0x0077b5fa      504f           addq.w 0x8, a7
       0x0077b5fc      487ac745       pea.l 0x777d43(pc)
       0x0077b600      48780020       pea.l 0x20
       0x0077b604      2f17           move.l (a7), -(a7)
       0x0077b606      4e92           jsr (a2)                    ; fcn.00000009+0x2
       0x0077b608      dec2           adda.w d2, a7
       0x0077b60a      486f0101       pea.l 0x101(a7)
       0x0077b60e      42a7           clr.l -(a7)
       0x0077b610      1f6f01080003   move.b 0x108(a7), 0x3(a7)
       0x0077b616      2f17           move.l (a7), -(a7)
       0x0077b618      4e92           jsr (a2)                    ; fcn.00000009+0x2
       0x0077b61a      dec2           adda.w d2, a7
       0x0077b61c      487ac746       pea.l 0x777d64(pc)
       0x0077b620      48780009       pea.l 0x9
       0x0077b624      2f17           move.l (a7), -(a7)
       0x0077b626      4e92           jsr (a2)                    ; fcn.00000009+0x2
       0x0077b628      dec2           adda.w d2, a7
       0x0077b62a      486f0001       pea.l 0x1(a7)
       0x0077b62e      42a7           clr.l -(a7)
       0x0077b630      1f6f00080003   move.b 0x8(a7), 0x3(a7)
       0x0077b636      2f17           move.l (a7), -(a7)
       0x0077b638      4e92           jsr (a2)                    ; fcn.00000009+0x2
       0x0077b63a      defc020c       adda.w 0x20c, a7
       0x0077b63e      4eb900404946   jsr p_wtln_o
    > 0x0077b644      41f90086f6b3   lea.l 0x86f6b3, a0
        0x0077b64a      43eefec0       lea.l -0x140(a6), a1
        0x0077b64e      303c00ff       move.w 0xff, d0
    > 0x0077b652      10d9           move.b (a1)+, (a0)+
    < 0x0077b654      51c8fffc       dbra d0, 0x77b652
        0x0077b658      13c60086f67c   move.b d6, 0x86f67c
        0x0077b65e      41f90086f67e   lea.l 0x86f67e, a0
        0x0077b664      43eeffca       lea.l -0x36(a6), a1
        0x0077b668      700c           moveq 0xc, d0
    > 0x0077b66a      20d9           move.l (a1)+, (a0)+
    < 0x0077b66c      51c8fffc       dbra d0, 0x77b66a
        0x0077b670      10d9           move.b (a1)+, (a0)+
        0x0077b672      33f90087101c.  move.w 0x87101c, 0x86f7b4.l
        0x0077b67c      9ec4           suba.w d4, a7
        0x0077b67e      4280           clr.l d0
        0x0077b680      302efeba       move.w -0x146(a6), d0
        0x0077b684      2f00           move.l d0, -(a7)
        0x0077b686      486efec0       pea.l -0x140(a6)
        0x0077b68a      4eb900783670   jsr PANEL_UTILS.format_title
        0x0077b690      504f           addq.w 0x8, a7
        0x0077b692      204b           movea.l a3, a0
        0x0077b694      703f           moveq 0x3f, d0
    > 0x0077b696      20df           move.l (a7)+, (a0)+
    < 0x0077b698      51c8fffc       dbra d0, 0x77b696
        0x0077b69c      9efc0136       suba.w 0x136, a7
        0x0077b6a0      204f           movea.l a7, a0
        0x0077b6a2      43eeffca       lea.l -0x36(a6), a1
        0x0077b6a6      700c           moveq 0xc, d0
    > 0x0077b6a8      20d9           move.l (a1)+, (a0)+
    < 0x0077b6aa      51c8fffc       dbra d0, 0x77b6a8
        0x0077b6ae      10d9           move.b (a1)+, (a0)+
        0x0077b6b0      486efec0       pea.l -0x140(a6)
        0x0077b6b4      4eb9007836f2   jsr PANEL_UTILS.format_next_tit
        0x0077b6ba      dec7           adda.w d7, a7
        0x0077b6bc      41f90086f342   lea.l 0x86f342, a0
        0x0077b6c2      703f           moveq 0x3f, d0
    > 0x0077b6c4      20df           move.l (a7)+, (a0)+
    < 0x0077b6c6      51c8fffc       dbra d0, 0x77b6c4
        0x0077b6ca      4a390086eb1a   tst.b 0x86eb1a
    < 0x0077b6d0      6714           beq.b 0x77b6e6
       0x0077b6d2      487ac69a       pea.l 0x777d6e(pc)
       0x0077b6d6      4878000b       pea.l 0xb
       0x0077b6da      2f17           move.l (a7), -(a7)
       0x0077b6dc      4e92           jsr (a2)                    ; fcn.00000009+0x2
       0x0077b6de      dec2           adda.w d2, a7
       0x0077b6e0      4eb900404946   jsr p_wtln_o
    > 0x0077b6e6      42390086eb1c   clr.b 0x86eb1c
        0x0077b6ec      4a390086eb1a   tst.b 0x86eb1a
    < 0x0077b6f2      6736           beq.b 0x77b72a
       0x0077b6f4      487ac684       pea.l 0x777d7a(pc)
       0x0077b6f8      48780019       pea.l 0x19
       0x0077b6fc      2f17           move.l (a7), -(a7)
       0x0077b6fe      4e92           jsr (a2)                    ; fcn.00000009+0x2
       0x0077b700      dec2           adda.w d2, a7
       0x0077b702      486efec1       pea.l -0x13f(a6)
       0x0077b706      42a7           clr.l -(a7)
       0x0077b708      1f6efec00003   move.b -0x140(a6), 0x3(a7)
       0x0077b70e      2f17           move.l (a7), -(a7)
       0x0077b710      4e92           jsr (a2)                    ; fcn.00000009+0x2
       0x0077b712      dec5           adda.w d5, a7
       0x0077b714      1ebc002f       move.b 0x2f, (a7)
       0x0077b718      48780001       pea.l 0x1
       0x0077b71c      4eb9004048b4   jsr p_wtc_o
       0x0077b722      5c4f           addq.w 0x6, a7
       0x0077b724      4eb900404946   jsr p_wtln_o
   > 0x0077b72a      600000dc       bra.w 0x77b808
       0x0077b72e      9ec4           suba.w d4, a7
       0x0077b730      48780001       pea.l 0x1
       0x0077b734      4eb90078c1a4   jsr PANEL_PREFETCH.pf_title
       0x0077b73a      584f           addq.w 0x4, a7
       0x0077b73c      41eefec0       lea.l -0x140(a6), a0
       0x0077b740      703f           moveq 0x3f, d0
   > 0x0077b742      20df           move.l (a7)+, (a0)+
   < 0x0077b744      51c8fffc       dbra d0, 0x77b742
       0x0077b748      9ec4           suba.w d4, a7
       0x0077b74a      4280           clr.l d0
       0x0077b74c      302efeba       move.w -0x146(a6), d0
       0x0077b750      2f00           move.l d0, -(a7)
       0x0077b752      486efec0       pea.l -0x140(a6)
       0x0077b756      4eb900783670   jsr PANEL_UTILS.format_title
       0x0077b75c      504f           addq.w 0x8, a7
       0x0077b75e      204b           movea.l a3, a0
       0x0077b760      703f           moveq 0x3f, d0
   > 0x0077b762      20df           move.l (a7)+, (a0)+
   < 0x0077b764      51c8fffc       dbra d0, 0x77b762
       0x0077b768      9efc0136       suba.w 0x136, a7
       0x0077b76c      204f           movea.l a7, a0
       0x0077b76e      43eeffca       lea.l -0x36(a6), a1
       0x0077b772      700c           moveq 0xc, d0
   > 0x0077b774      20d9           move.l (a1)+, (a0)+
   < 0x0077b776      51c8fffc       dbra d0, 0x77b774
       0x0077b77a      10d9           move.b (a1)+, (a0)+
       0x0077b77c      486efec0       pea.l -0x140(a6)
       0x0077b780      4eb9007836f2   jsr PANEL_UTILS.format_next_tit
       0x0077b786      dec7           adda.w d7, a7
       0x0077b788      41f90086f342   lea.l 0x86f342, a0
       0x0077b78e      703f           moveq 0x3f, d0
   > 0x0077b790      20df           move.l (a7)+, (a0)+
   < 0x0077b792      51c8fffc       dbra d0, 0x77b790
       0x0077b796      4a390086eb1a   tst.b 0x86eb1a
   < 0x0077b79c      6736           beq.b 0x77b7d4
      0x0077b79e      487ac5f4       pea.l 0x777d94(pc)
      0x0077b7a2      48780018       pea.l 0x18
      0x0077b7a6      2f17           move.l (a7), -(a7)
      0x0077b7a8      4e92           jsr (a2)                    ; fcn.00000009+0x2
      0x0077b7aa      dec2           adda.w d2, a7
      0x0077b7ac      486efec1       pea.l -0x13f(a6)
      0x0077b7b0      42a7           clr.l -(a7)
      0x0077b7b2      1f6efec00003   move.b -0x140(a6), 0x3(a7)
      0x0077b7b8      2f17           move.l (a7), -(a7)
      0x0077b7ba      4e92           jsr (a2)                    ; fcn.00000009+0x2
      0x0077b7bc      dec5           adda.w d5, a7
      0x0077b7be      1ebc002f       move.b 0x2f, (a7)
      0x0077b7c2      48780001       pea.l 0x1
      0x0077b7c6      4eb9004048b4   jsr p_wtc_o
      0x0077b7cc      5c4f           addq.w 0x6, a7
      0x0077b7ce      4eb900404946   jsr p_wtln_o
  > 0x0077b7d4      6032           bra.b 0x77b808
      0x0077b7d6      1f3c0007       move.b 0x7, -(a7)
      0x0077b7da      48780001       pea.l 0x1
      0x0077b7de      4eb9004048b4   jsr p_wtc_o
      0x0077b7e4      5c4f           addq.w 0x6, a7
      0x0077b7e6      487ac5c5       pea.l 0x777dad(pc)
      0x0077b7ea      48780028       pea.l 0x28
      0x0077b7ee      2f17           move.l (a7), -(a7)
      0x0077b7f0      4e92           jsr (a2)                    ; fcn.00000009+0x2
      0x0077b7f2      dec2           adda.w d2, a7
      0x0077b7f4      4eb900404946   jsr p_wtln_o
      0x0077b7fa      4eb900401620   jsr p_walkback
  < 0x0077b800      6006           bra.b 0x77b808
  > 0x0077b802      4eb900401620   jsr p_walkback
  < 0x0077b808      600001de       bra.w 0x77b9e8
         0x0077b80c      42390086eb1d   clr.b 0x86eb1d
         0x0077b812      2d7abe88ffc0   move.l 0x77769c(pc), -0x40(a6)
         0x0077b818      2d7abe86ffc4   move.l 0x7776a0(pc), -0x3c(a6)
         0x0077b81e      3d7abe84ffc8   move.w 0x7776a4(pc), -0x38(a6)
         0x0077b824      554f           subq.w 0x2, a7
         0x0077b826      4227           clr.b -(a7)
         0x0077b828      486efeba       pea.l -0x146(a6)
         0x0077b82c      1f03           move.b d3, -(a7)
         0x0077b82e      2f2effda       move.l -0x26(a6), -(a7)
         0x0077b832      486effc0       pea.l -0x40(a6)
         0x0077b836      4eb9006b05ba   jsr USER.get_snum
         0x0077b83c      defc0010       adda.w 0x10, a7
         0x0077b840      4a1f           tst.b (a7)+
     < 0x0077b842      660c           bne.b 0x77b850
        0x0077b844      486efe70       pea.l -0x190(a6)
        0x0077b848      4eb900404468   jsr fcn.00404468
        0x0077b84e      584f           addq.w 0x4, a7
     > 0x0077b850      554f           subq.w 0x2, a7
         0x0077b852      2f2effc6       move.l -0x3a(a6), -(a7)
         0x0077b856      2f2effc2       move.l -0x3e(a6), -(a7)
         0x0077b85a      3f2effc0       move.w -0x40(a6), -(a7)
         0x0077b85e      486efec0       pea.l -0x140(a6)
         0x0077b862      4eb9005e688c   jsr FILER_UTILITIES.fu_get_title
         0x0077b868      defc000e       adda.w 0xe, a7
         0x0077b86c      4a1f           tst.b (a7)+
     < 0x0077b86e      664a           bne.b 0x77b8ba
        0x0077b870      9ec4           suba.w d4, a7
        0x0077b872      4eb900408ec0   jsr p_err_string
        0x0077b878      487ac55c       pea.l 0x777dd6(pc)
        0x0077b87c      48780010       pea.l 0x10
        0x0077b880      2f17           move.l (a7), -(a7)
        0x0077b882      4e92           jsr (a2)                    ; fcn.00000009+0x2
        0x0077b884      dec2           adda.w d2, a7
        0x0077b886      486f0001       pea.l 0x1(a7)
        0x0077b88a      42a7           clr.l -(a7)
        0x0077b88c      1f6f00080003   move.b 0x8(a7), 0x3(a7)
        0x0077b892      2f17           move.l (a7), -(a7)
        0x0077b894      4e92           jsr (a2)                    ; fcn.00000009+0x2
        0x0077b896      defc010c       adda.w 0x10c, a7
        0x0077b89a      4eb900404946   jsr p_wtln_o
        0x0077b8a0      4eb900404188   jsr p_Unlink
        0x0077b8a6      4878000a       pea.l 0xa
        0x0077b8aa      3f2efeba       move.w -0x146(a6), -(a7)
        0x0077b8ae      486efe70       pea.l -0x190(a6)
        0x0077b8b2      4eb9007835b0   jsr PANEL_UTILS.panel_error
        0x0077b8b8      dec5           adda.w d5, a7
     > 0x0077b8ba      9ec4           suba.w d4, a7
         0x0077b8bc      4280           clr.l d0
         0x0077b8be      302efeba       move.w -0x146(a6), d0
         0x0077b8c2      2f00           move.l d0, -(a7)
         0x0077b8c4      486efec0       pea.l -0x140(a6)
         0x0077b8c8      4eb900783840   jsr PANEL_UTILS.format_stack
         0x0077b8ce      504f           addq.w 0x8, a7
         0x0077b8d0      204b           movea.l a3, a0
         0x0077b8d2      703f           moveq 0x3f, d0
     > 0x0077b8d4      20df           move.l (a7)+, (a0)+
     < 0x0077b8d6      51c8fffc       dbra d0, 0x77b8d4
         0x0077b8da      41f90086f342   lea.l 0x86f342, a0
         0x0077b8e0      224b           movea.l a3, a1
         0x0077b8e2      703f           moveq 0x3f, d0
     > 0x0077b8e4      20d9           move.l (a1)+, (a0)+
     < 0x0077b8e6      51c8fffc       dbra d0, 0x77b8e4
     < 0x0077b8ea      600000fc       bra.w 0x77b9e8
        0x0077b8ee      42390086eb1d   clr.b 0x86eb1d
        0x0077b8f4      4ab90086eb3e   tst.l 0x86eb3e
    < 0x0077b8fa      6f3a           ble.b 0x77b936
       0x0077b8fc      30390087105c   move.w 0x87105c, d0
       0x0077b902      b043           cmp.w d3, d0
   < 0x0077b904      6e30           bgt.b 0x77b936
      0x0077b906      41f90086f442   lea.l 0x86f442, a0
      0x0077b90c      43fac4d8       lea.l 0x777de6(pc), a1
      0x0077b910      7005           moveq 0x5, d0
  > 0x0077b912      20d9           move.l (a1)+, (a0)+
  < 0x0077b914      51c8fffc       dbra d0, 0x77b912
      0x0077b918      30d9           move.w (a1)+, (a0)+
      0x0077b91a      3f03           move.w d3, -(a7)
      0x0077b91c      9ec4           suba.w d4, a7
      0x0077b91e      204f           movea.l a7, a0
      0x0077b920      43f90086f442   lea.l 0x86f442, a1
      0x0077b926      703f           moveq 0x3f, d0
  > 0x0077b928      20d9           move.l (a1)+, (a0)+
  < 0x0077b92a      51c8fffc       dbra d0, 0x77b928
      0x0077b92e      4ebadd6e       jsr PANEL_STACK.set_last_error(pc)
      0x0077b932      defc0102       adda.w 0x102, a7
  > 0x0077b936      600000b0       bra.w 0x77b9e8
       0x0077b93a      4a390086eb1a   tst.b 0x86eb1a
   < 0x0077b940      6714           beq.b 0x77b956
      0x0077b942      487ac4bd       pea.l 0x777e01(pc)
      0x0077b946      4878000f       pea.l 0xf
      0x0077b94a      2f17           move.l (a7), -(a7)
      0x0077b94c      4e92           jsr (a2)                    ; fcn.00000009+0x2
      0x0077b94e      dec2           adda.w d2, a7
      0x0077b950      4eb900404946   jsr p_wtln_o
   > 0x0077b956      13c30086eb1d   move.b d3, 0x86eb1d
       0x0077b95c      204b           movea.l a3, a0
       0x0077b95e      43fabe51       lea.l 0x7777b1(pc), a1
       0x0077b962      701f           moveq 0x1f, d0
   > 0x0077b964      10d9           move.b (a1)+, (a0)+
   < 0x0077b966      51c8fffc       dbra d0, 0x77b964
       0x0077b96a      41f90086f342   lea.l 0x86f342, a0
       0x0077b970      224b           movea.l a3, a1
       0x0077b972      703f           moveq 0x3f, d0
   > 0x0077b974      20d9           move.l (a1)+, (a0)+
   < 0x0077b976      51c8fffc       dbra d0, 0x77b974
   < 0x0077b97a      606c           bra.b 0x77b9e8
      0x0077b97c      4a390086eb1a   tst.b 0x86eb1a
  < 0x0077b982      6714           beq.b 0x77b998
     0x0077b984      487ac48b       pea.l 0x777e11(pc)
     0x0077b988      48780011       pea.l 0x11
     0x0077b98c      2f17           move.l (a7), -(a7)
     0x0077b98e      4e92           jsr (a2)                    ; fcn.00000009+0x2
     0x0077b990      dec2           adda.w d2, a7
     0x0077b992      4eb900404946   jsr p_wtln_o
  > 0x0077b998      13c30086eb1d   move.b d3, 0x86eb1d
      0x0077b99e      9ec4           suba.w d4, a7
      0x0077b9a0      4280           clr.l d0
      0x0077b9a2      302efeba       move.w -0x146(a6), d0
      0x0077b9a6      0480ffff8000   subi.l 0xffff8000, d0
      0x0077b9ac      0c800000ffff   cmpi.l 0xffff, d0
  < 0x0077b9b2      6302           bls.b 0x77b9b6
     0x0077b9b4      4e4f           trap 0xf
  > 0x0077b9b6      0680ffff8000   addi.l 0xffff8000, d0
      0x0077b9bc      3f00           move.w d0, -(a7)
      0x0077b9be      4227           clr.b -(a7)
      0x0077b9c0      4a6efff0       tst.w -0x10(a6)
  < 0x0077b9c4      6f02           ble.b 0x77b9c8
     0x0077b9c6      5217           addq.b 0x1, (a7)
  > 0x0077b9c8      4ebadd0c       jsr PANEL_STACK.preset_display_(pc)
      0x0077b9cc      584f           addq.w 0x4, a7
      0x0077b9ce      204b           movea.l a3, a0
      0x0077b9d0      703f           moveq 0x3f, d0
  > 0x0077b9d2      20df           move.l (a7)+, (a0)+
  < 0x0077b9d4      51c8fffc       dbra d0, 0x77b9d2
      0x0077b9d8      41f90086f342   lea.l 0x86f342, a0
      0x0077b9de      224b           movea.l a3, a1
      0x0077b9e0      703f           moveq 0x3f, d0
  > 0x0077b9e2      20d9           move.l (a1)+, (a0)+
  < 0x0077b9e4      51c8fffc       dbra d0, 0x77b9e2
  > 0x0077b9e8      1d430008       move.b d3, 0x8(a6)
       < 0x0077b9ec      6064           bra.b 0x77ba52
       > 0x0077b9ee      42390086eb1d   clr.b 0x86eb1d
           0x0077b9f4      422e0008       clr.b 0x8(a6)
           0x0077b9f8      9ec4           suba.w d4, a7
           0x0077b9fa      4eb900408ec0   jsr p_err_string
           0x0077ba00      487ac421       pea.l 0x777e23(pc)
           0x0077ba04      4878000b       pea.l 0xb
           0x0077ba08      2f17           move.l (a7), -(a7)
           0x0077ba0a      4e92           jsr (a2)                    ; fcn.00000009+0x2
           0x0077ba0c      dec2           adda.w d2, a7
           0x0077ba0e      486f0001       pea.l 0x1(a7)
           0x0077ba12      42a7           clr.l -(a7)
           0x0077ba14      1f6f00080003   move.b 0x8(a7), 0x3(a7)
           0x0077ba1a      2f17           move.l (a7), -(a7)
           0x0077ba1c      4e92           jsr (a2)                    ; fcn.00000009+0x2
           0x0077ba1e      defc010c       adda.w 0x10c, a7
           0x0077ba22      4eb900404946   jsr p_wtln_o
           0x0077ba28      9ec4           suba.w d4, a7
           0x0077ba2a      4eb900408ec0   jsr p_err_string
           0x0077ba30      41f90086f342   lea.l 0x86f342, a0
           0x0077ba36      703f           moveq 0x3f, d0
       > 0x0077ba38      20df           move.l (a7)+, (a0)+
       < 0x0077ba3a      51c8fffc       dbra d0, 0x77ba38
           0x0077ba3e      41f90087115e   lea.l 0x87115e, a0
           0x0077ba44      43f90086f342   lea.l 0x86f342, a1
           0x0077ba4a      703f           moveq 0x3f, d0
       > 0x0077ba4c      20d9           move.l (a1)+, (a0)+
       < 0x0077ba4e      51c8fffc       dbra d0, 0x77ba4c
       > 0x0077ba52      4cdf1fff       movem.l (a7)+, d0-d7/a0-a4
            0x0077ba56      4e5e           unlk a6
            0x0077ba58      4e75           rts
            ; CALL XREF from PANEL_STACK.do_take @ 0x77cfd8
            ; CALL XREF from PANEL_STACK.update_stack @ 0x77fa86
 346: PANEL_STACK.rebuild_prefetc ();
           0x0077ba5a      4e56ffb8       link.w a6, 0xffb8
           0x0077ba5e      bfd5           cmpa.l (a5), a7
       < 0x0077ba60      6206           bhi.b 0x77ba68
          0x0077ba62      44fc0002       move.w 0x2, ccr
          0x0077ba66      4e76           trapv
       > 0x0077ba68      defc0048       adda.w 0x48, a7
           0x0077ba6c      48e7fcf8       movem.l d0-d5/a0-a4, -(a7)
           0x0077ba70      47f90086eb32   lea.l 0x86eb32, a3
           0x0077ba76      49f80000       lea.l 0x0, a4
           0x0077ba7a      7601           moveq 0x1, d3
           0x0077ba7c      7804           moveq 0x4, d4
           0x0077ba7e      7a08           moveq 0x8, d5
           0x0077ba80      2053           movea.l (a3), a0
           0x0077ba82      b1e8fffc       cmpa.l -0x4(a0), a0
       < 0x0077ba86      6702           beq.b 0x77ba8a
          0x0077ba88      4e4d           trap 0xd
       > 0x0077ba8a      4a281524       tst.b 0x1524(a0)
       < 0x0077ba8e      6600010c       bne.w 0x77bb9c
          0x0077ba92      10281510       move.b 0x1510(a0), d0
          0x0077ba96      b004           cmp.b d4, d0
      < 0x0077ba98      6610           bne.b 0x77baaa
         0x0077ba9a      3f281512       move.w 0x1512(a0), -(a7)
         0x0077ba9e      4854           pea.l (a4)
         0x0077baa0      4eb9007949f4   jsr PANEL_VIDEO.wipe_matte
         0x0077baa6      5c4f           addq.w 0x6, a7
     < 0x0077baa8      6006           bra.b 0x77bab0
     > 0x0077baaa      4eb900794cc2   jsr PANEL_VIDEO.copy_back
     > 0x0077bab0      4a2e0008       tst.b 0x8(a6)
      < 0x0077bab4      670000e6       beq.w 0x77bb9c
     > 0x0077bab8      2253           movea.l (a3), a1
        0x0077baba      b3e9fffc       cmpa.l -0x4(a1), a1
    < 0x0077babe      6702           beq.b 0x77bac2
       0x0077bac0      4e4d           trap 0xd
    > 0x0077bac2      30390087101c   move.w 0x87101c, d0
        0x0077bac8      41bc0009       chk.w 0x9, d0
        0x0077bacc      c1fc0012       muls.w 0x12, d0
        0x0077bad0      12291546       move.b 0x1546(a1), d1
        0x0077bad4      b205           cmp.b d5, d1
    < 0x0077bad6      6734           beq.b 0x77bb0c
       0x0077bad8      b204           cmp.b d4, d1
   < 0x0077bada      660000c0       bne.w 0x77bb9c
      0x0077bade      1229157c       move.b 0x157c(a1), d1
      0x0077bae2      0c010003       cmpi.b 0x3, d1
  < 0x0077bae6      6724           beq.b 0x77bb0c
     0x0077bae8      1229157c       move.b 0x157c(a1), d1
     0x0077baec      4881           ext.w d1
     0x0077baee      45fac33e       lea.l 0x777e2e(pc), a2
     0x0077baf2      3401           move.w d1, d2
     0x0077baf4      e64a           lsr.w 0x3, d2
     0x0077baf6      03322000       btst.l d1, (a2, d2.w)
 < 0x0077bafa      670000a0       beq.w 0x77bb9c
    0x0077bafe      45f10800       lea.l (a1, d0.l), a2
    0x0077bb02      302a2a3a       move.w 0x2a3a(a2), d0
    0x0077bb06      b043           cmp.w d3, d0
 < 0x0077bb08      6f000092       ble.w 0x77bb9c
 > 0x0077bb0c      1029157c       move.b 0x157c(a1), d0
      0x0077bb10      0c000006       cmpi.b 0x6, d0
  < 0x0077bb14      6606           bne.b 0x77bb1c
     0x0077bb16      4eb900401620   jsr p_walkback
  > 0x0077bb1c      2453           movea.l (a3), a2
      0x0077bb1e      b5eafffc       cmpa.l -0x4(a2), a2
  < 0x0077bb22      6702           beq.b 0x77bb26
     0x0077bb24      4e4d           trap 0xd
  > 0x0077bb26      102a1546       move.b 0x1546(a2), d0
      0x0077bb2a      b005           cmp.b d5, d0
  < 0x0077bb2c      6636           bne.b 0x77bb64
     0x0077bb2e      4280           clr.l d0
     0x0077bb30      302a1522       move.w 0x1522(a2), d0
     0x0077bb34      0480ffff8000   subi.l 0xffff8000, d0
     0x0077bb3a      0c800000ffff   cmpi.l 0xffff, d0
 < 0x0077bb40      6302           bls.b 0x77bb44
    0x0077bb42      4e4f           trap 0xf
 > 0x0077bb44      0680ffff8000   addi.l 0xffff8000, d0
     0x0077bb4a      33c00087101c   move.w d0, 0x87101c
     0x0077bb50      423900871026   clr.b 0x871026
     0x0077bb56      4a6a1548       tst.w 0x1548(a2)
 < 0x0077bb5a      6f06           ble.b 0x77bb62
    0x0077bb5c      523900871026   addq.b 0x1, 0x871026.l
 > 0x0077bb62      6014           bra.b 0x77bb78
  > 0x0077bb64      3f2a1548       move.w 0x1548(a2), -(a7)
      0x0077bb68      4854           pea.l (a4)
      0x0077bb6a      4eb9007949f4   jsr PANEL_VIDEO.wipe_matte
      0x0077bb70      5c4f           addq.w 0x6, a7
      0x0077bb72      13c300871001   move.b d3, 0x871001
 > 0x0077bb78      48780063       pea.l 0x63
      0x0077bb7c      4227           clr.b -(a7)
      0x0077bb7e      1f3c0002       move.b 0x2, -(a7)
      0x0077bb82      4ebae9b6       jsr PANEL_STACK.ripple_stack(pc)
      0x0077bb86      504f           addq.w 0x8, a7
      0x0077bb88      4854           pea.l (a4)
      0x0077bb8a      48780063       pea.l 0x63
      0x0077bb8e      4227           clr.b -(a7)
      0x0077bb90      4ebaebb6       jsr PANEL_STACK.refresh_stack(pc)
      0x0077bb94      defc000a       adda.w 0xa, a7
   < 0x0077bb98      6000ff1e       bra.w 0x77bab8
 > 0x0077bb9c      554f           subq.w 0x2, a7
           0x0077bb9e      4ebaf7ae       jsr PANEL_STACK.pre_fetch(pc)
           0x0077bba2      101f           move.b (a7)+, d0
           0x0077bba4      4880           ext.w d0
           0x0077bba6      4183           chk.w d3, d0
           0x0077bba8      1d40000a       move.b d0, 0xa(a6)
           0x0077bbac      4cdf1f3f       movem.l (a7)+, d0-d5/a0-a4
           0x0077bbb0      4e5e           unlk a6
           0x0077bbb2      4e75           rts
            ; CALL XREFS from PANEL_STACK.get_storenum @ 0x77bcea, 0x77bd88
            ; CALL XREF from PANEL_STACK.increment_seque @ 0x77c8e4
            ; CALL XREF from PANEL_STACK @ +0x6760
 54: PANEL_STACK.use_panel_count ();
           0x0077bbb4      4e56fff8       link.w a6, 0xfff8
           0x0077bbb8      bfd5           cmpa.l (a5), a7
       < 0x0077bbba      6206           bhi.b 0x77bbc2
          0x0077bbbc      44fc0002       move.w 0x2, ccr
          0x0077bbc0      4e76           trapv
       > 0x0077bbc2      defc0008       adda.w 0x8, a7
           0x0077bbc6      48e78000       movem.l d0, -(a7)
           0x0077bbca      422e0040       clr.b 0x40(a6)
           0x0077bbce      4a2e0008       tst.b 0x8(a6)
       < 0x0077bbd2      660a           bne.b 0x77bbde
          0x0077bbd4      102e000c       move.b 0xc(a6), d0
          0x0077bbd8      0c000002       cmpi.b 0x2, d0
      < 0x0077bbdc      6604           bne.b 0x77bbe2
      > 0x0077bbde      522e0040       addq.b 0x1, 0x40(a6)
      > 0x0077bbe2      4cdf0001       movem.l (a7)+, d0
           0x0077bbe6      4e5e           unlk a6
           0x0077bbe8      4e75           rts
 136: PANEL_STACK.play_update_abo ();
           0x0077bbea      4e56ffd8       link.w a6, 0xffd8
           0x0077bbee      bfd5           cmpa.l (a5), a7
       < 0x0077bbf0      6206           bhi.b 0x77bbf8
          0x0077bbf2      44fc0002       move.w 0x2, ccr
          0x0077bbf6      4e76           trapv
       > 0x0077bbf8      defc0024       adda.w 0x24, a7
           0x0077bbfc      48e7e0e0       movem.l d0-d2/a0-a2, -(a7)
           0x0077bc00      43f9008713c8   lea.l 0x8713c8, a1
           0x0077bc06      45ee0008       lea.l 0x8(a6), a2
           0x0077bc0a      7401           moveq 0x1, d2
           0x0077bc0c      554f           subq.w 0x2, a7
           0x0077bc0e      4eb9007a292c   jsr SERIAL.computer_contro
           0x0077bc14      4a1f           tst.b (a7)+
       < 0x0077bc16      6712           beq.b 0x77bc2a
          0x0077bc18      554f           subq.w 0x2, a7
          0x0077bc1a      4eb9007a4fa8   jsr REMOTE_DUMMY.remote_aborted
          0x0077bc20      101f           move.b (a7)+, d0
          0x0077bc22      4880           ext.w d0
          0x0077bc24      4182           chk.w d2, d0
          0x0077bc26      1480           move.b d0, (a2)
      < 0x0077bc28      6040           bra.b 0x77bc6a
      > 0x0077bc2a      48780000       pea.l 0x0
          0x0077bc2e      4851           pea.l (a1)
          0x0077bc30      4eb9007a35bc   jsr SERIAL.get_token_set
          0x0077bc36      504f           addq.w 0x8, a7
          0x0077bc38      1011           move.b (a1), d0
          0x0077bc3a      4880           ext.w d0
          0x0077bc3c      41fac1f2       lea.l 0x777e30(pc), a0
          0x0077bc40      3200           move.w d0, d1
          0x0077bc42      e649           lsr.w 0x3, d1
          0x0077bc44      01301000       btst.l d0, (a0, d1.w)
      < 0x0077bc48      6704           beq.b 0x77bc4e
         0x0077bc4a      1482           move.b d2, (a2)
     < 0x0077bc4c      601c           bra.b 0x77bc6a
     > 0x0077bc4e      4212           clr.b (a2)
         0x0077bc50      0c00000d       cmpi.b 0xd, d0
     < 0x0077bc54      6714           beq.b 0x77bc6a
        0x0077bc56      554f           subq.w 0x2, a7
        0x0077bc58      2f11           move.l (a1), -(a7)
        0x0077bc5a      1f79008713cc.  move.b 0x8713cc, 0x4(a7)
        0x0077bc62      4eb9007a2816   jsr SERIAL.put_sml_token
        0x0077bc68      5c4f           addq.w 0x6, a7
     > 0x0077bc6a      4cdf0707       movem.l (a7)+, d0-d2/a0-a2
           0x0077bc6e      4e5e           unlk a6
           0x0077bc70      4e75           rts
 36: PANEL_STACK.do_do_clip ();
           0x0077bc72      4e56fff8       link.w a6, 0xfff8
           0x0077bc76      bfd5           cmpa.l (a5), a7
       < 0x0077bc78      6206           bhi.b 0x77bc80
          0x0077bc7a      44fc0002       move.w 0x2, ccr
          0x0077bc7e      4e76           trapv
       > 0x0077bc80      defc0008       adda.w 0x8, a7
           0x0077bc84      4879008713ac   pea.l 0x8713ac
           0x0077bc8a      4eb90040234e   jsr p_Signal
           0x0077bc90      584f           addq.w 0x4, a7
           0x0077bc92      4e5e           unlk a6
           0x0077bc94      4e75           rts
            0x0077bc96      4e56fffc       link.w a6, 0xfffc
            0x0077bc9a      bfd5           cmpa.l (a5), a7
        < 0x0077bc9c      6206           bhi.b 0x77bca4
           0x0077bc9e      44fc0002       move.w 0x2, ccr
           0x0077bca2      4e76           trapv
        > 0x0077bca4      defc0004       adda.w 0x4, a7
            0x0077bca8      4e5e           unlk a6
            0x0077bcaa      4e75           rts
 328: PANEL_STACK.get_storenum ();
           0x0077bcac      4e56ff98       link.w a6, 0xff98
           0x0077bcb0      bfd5           cmpa.l (a5), a7
       < 0x0077bcb2      6206           bhi.b 0x77bcba
          0x0077bcb4      44fc0002       move.w 0x2, ccr
          0x0077bcb8      4e76           trapv
       > 0x0077bcba      defc0066       adda.w 0x66, a7
           0x0077bcbe      48e7f9f0       movem.l d0-d4/d7/a0-a3, -(a7)
           0x0077bcc2      45f900871010   lea.l 0x871010, a2
           0x0077bcc8      47f90086eb32   lea.l 0x86eb32, a3
           0x0077bcce      7438           moveq 0x38, d2
           0x0077bcd0      760c           moveq 0xc, d3
           0x0077bcd2      7807           moveq 0x7, d4
           0x0077bcd4      9ec2           suba.w d2, a7
           0x0077bcd6      204f           movea.l a7, a0
           0x0077bcd8      43ee0008       lea.l 0x8(a6), a1
           0x0077bcdc      700c           moveq 0xc, d0
       > 0x0077bcde      20d9           move.l (a1)+, (a0)+
       < 0x0077bce0      51c8fffc       dbra d0, 0x77bcde
           0x0077bce4      10d9           move.b (a1)+, (a0)+
           0x0077bce6      1f2c0050       move.b 0x50(a4), -(a7)
           0x0077bcea      4ebafec8       jsr PANEL_STACK.use_panel_count(pc)
           0x0077bcee      dec2           adda.w d2, a7
           0x0077bcf0      4a1f           tst.b (a7)+
       < 0x0077bcf2      672e           beq.b 0x77bd22
          0x0077bcf4      4a390086eb1a   tst.b 0x86eb1a
      < 0x0077bcfa      671a           beq.b 0x77bd16
         0x0077bcfc      514f           subq.w 0x8, a7
         0x0077bcfe      204f           movea.l a7, a0
         0x0077bd00      43ee0045       lea.l 0x45(a6), a1
         0x0077bd04      7007           moveq 0x7, d0
     > 0x0077bd06      10d9           move.b (a1)+, (a0)+
     < 0x0077bd08      51c8fffc       dbra d0, 0x77bd06
         0x0077bd0c      2f12           move.l (a2), -(a7)
         0x0077bd0e      4eb90078330a   jsr PANEL_UTILS.write_alt_seq
         0x0077bd14      dec3           adda.w d3, a7
      > 0x0077bd16      2012           move.l (a2), d0
          0x0077bd18      5380           subq.l 0x1, d0
          0x0077bd1a      b084           cmp.l d4, d0
      < 0x0077bd1c      6302           bls.b 0x77bd20
         0x0077bd1e      4e4f           trap 0xf
     > 0x0077bd20      6044           bra.b 0x77bd66
      > 0x0077bd22      4a390086eb1a   tst.b 0x86eb1a
      < 0x0077bd28      6726           beq.b 0x77bd50
         0x0077bd2a      514f           subq.w 0x8, a7
         0x0077bd2c      204f           movea.l a7, a0
         0x0077bd2e      43ee0045       lea.l 0x45(a6), a1
         0x0077bd32      7007           moveq 0x7, d0
     > 0x0077bd34      10d9           move.b (a1)+, (a0)+
     < 0x0077bd36      51c8fffc       dbra d0, 0x77bd34
         0x0077bd3a      2053           movea.l (a3), a0
         0x0077bd3c      b1e8fffc       cmpa.l -0x4(a0), a0
     < 0x0077bd40      6702           beq.b 0x77bd44
        0x0077bd42      4e4d           trap 0xd
     > 0x0077bd44      2f280006       move.l 0x6(a0), -(a7)
         0x0077bd48      4eb90078330a   jsr PANEL_UTILS.write_alt_seq
         0x0077bd4e      dec3           adda.w d3, a7
      > 0x0077bd50      2053           movea.l (a3), a0
          0x0077bd52      b1e8fffc       cmpa.l -0x4(a0), a0
      < 0x0077bd56      6702           beq.b 0x77bd5a
         0x0077bd58      4e4d           trap 0xd
      > 0x0077bd5a      20280006       move.l 0x6(a0), d0
          0x0077bd5e      5380           subq.l 0x1, d0
          0x0077bd60      b084           cmp.l d4, d0
      < 0x0077bd62      6302           bls.b 0x77bd66
         0x0077bd64      4e4f           trap 0xf
     > 0x0077bd66      12360845       move.b 0x45(a6, d0.l), d1
           0x0077bd6a      4881           ext.w d1
           0x0077bd6c      3e01           move.w d1, d7
           0x0077bd6e      4a47           tst.w d7
       < 0x0077bd70      6668           bne.b 0x77bdda
          0x0077bd72      9ec2           suba.w d2, a7
          0x0077bd74      204f           movea.l a7, a0
          0x0077bd76      43ee0008       lea.l 0x8(a6), a1
          0x0077bd7a      700c           moveq 0xc, d0
      > 0x0077bd7c      20d9           move.l (a1)+, (a0)+
      < 0x0077bd7e      51c8fffc       dbra d0, 0x77bd7c
          0x0077bd82      10d9           move.b (a1)+, (a0)+
          0x0077bd84      1f2c0050       move.b 0x50(a4), -(a7)
          0x0077bd88      4ebafe2a       jsr PANEL_STACK.use_panel_count(pc)
          0x0077bd8c      dec2           adda.w d2, a7
          0x0077bd8e      4a1f           tst.b (a7)+
      < 0x0077bd90      6716           beq.b 0x77bda8
         0x0077bd92      487ac0a1       pea.l 0x777e35(pc)
         0x0077bd96      48780014       pea.l 0x14
         0x0077bd9a      2f17           move.l (a7), -(a7)
         0x0077bd9c      4eb9004047ea   jsr p_wts_o
         0x0077bda2      504f           addq.w 0x8, a7
         0x0077bda4      2e92           move.l (a2), (a7)
     < 0x0077bda6      6020           bra.b 0x77bdc8
     > 0x0077bda8      487ac0a0       pea.l 0x777e4a(pc)
         0x0077bdac      48780014       pea.l 0x14
         0x0077bdb0      2f17           move.l (a7), -(a7)
         0x0077bdb2      4eb9004047ea   jsr p_wts_o
         0x0077bdb8      dec3           adda.w d3, a7
         0x0077bdba      2053           movea.l (a3), a0
         0x0077bdbc      b1e8fffc       cmpa.l -0x4(a0), a0
     < 0x0077bdc0      6702           beq.b 0x77bdc4
        0x0077bdc2      4e4d           trap 0xd
     > 0x0077bdc4      2f280006       move.l 0x6(a0), -(a7)
     > 0x0077bdc8      48780000       pea.l 0x0
          0x0077bdcc      4eb9004070e4   jsr p_wti_o
          0x0077bdd2      504f           addq.w 0x8, a7
          0x0077bdd4      4eb900404946   jsr p_wtln_o
       > 0x0077bdda      554f           subq.w 0x2, a7
           0x0077bddc      4eb900478d56   jsr CONFIGCOM.cfg_vo_single
           0x0077bde2      4a1f           tst.b (a7)+
       < 0x0077bde4      6702           beq.b 0x77bde8
          0x0077bde6      7e01           moveq 0x1, d7
       > 0x0077bde8      3d470074       move.w d7, 0x74(a6)
           0x0077bdec      4cdf0f9f       movem.l (a7)+, d0-d4/d7/a0-a3
           0x0077bdf0      4e5e           unlk a6
           0x0077bdf2      4e75           rts
 274: PANEL_STACK.bad_store ();
           ; var int32_t var_ah @ a7+0xa
           0x0077bdf4      4e56feda       link.w a6, 0xfeda
           0x0077bdf8      bfd5           cmpa.l (a5), a7
       < 0x0077bdfa      6206           bhi.b 0x77be02
          0x0077bdfc      44fc0002       move.w 0x2, ccr
          0x0077be00      4e76           trapv
       > 0x0077be02      defc0122       adda.w 0x122, a7
           0x0077be06      48e7e1c0       movem.l d0-d2/d7/a0-a1, -(a7)
           0x0077be0a      43f9004047ea   lea.l p_wts_o, a1
           0x0077be10      740c           moveq 0xc, d2
           0x0077be12      4a2c0050       tst.b 0x50(a4)
       < 0x0077be16      670a           beq.b 0x77be22
          0x0077be18      487ac045       pea.l 0x777e5f(pc)
          0x0077be1c      4878000c       pea.l 0xc
      < 0x0077be20      6008           bra.b 0x77be2a
      > 0x0077be22      487ac048       pea.l 0x777e6c(pc)
          0x0077be26      4878000f       pea.l 0xf
      > 0x0077be2a      2f17           move.l (a7), -(a7)
           0x0077be2c      4e91           jsr (a1)                    ; fcn.0000000a
           0x0077be2e      dec2           adda.w d2, a7
           0x0077be30      4eb900404946   jsr p_wtln_o
           0x0077be36      487ac044       pea.l 0x777e7c(pc)
           0x0077be3a      4878000b       pea.l 0xb
           0x0077be3e      2f17           move.l (a7), -(a7)
           0x0077be40      4e91           jsr (a1)                    ; fcn.0000000a
           0x0077be42      dec2           adda.w d2, a7
           0x0077be44      486e000b       pea.l 0xb(a6)
           0x0077be48      42a7           clr.l -(a7)
           0x0077be4a      1f6e000a0003   move.b 0xa(a6), 0x3(a7)
           0x0077be50      2f17           move.l (a7), -(a7)
           0x0077be52      4e91           jsr (a1)                    ; fcn.0000000a
           0x0077be54      dec2           adda.w d2, a7
           0x0077be56      487ac030       pea.l 0x777e88(pc)
           0x0077be5a      4878000f       pea.l 0xf
           0x0077be5e      2f17           move.l (a7), -(a7)
           0x0077be60      4e91           jsr (a1)                    ; fcn.0000000a
           0x0077be62      dec2           adda.w d2, a7
           0x0077be64      302e0008       move.w 0x8(a6), d0
           0x0077be68      48c0           ext.l d0
           0x0077be6a      2f00           move.l d0, -(a7)
           0x0077be6c      48780000       pea.l 0x0
           0x0077be70      4eb9004070e4   jsr p_wti_o
           0x0077be76      504f           addq.w 0x8, a7
           0x0077be78      487ac01e       pea.l 0x777e98(pc)
           0x0077be7c      4878000c       pea.l 0xc
           0x0077be80      2f17           move.l (a7), -(a7)
           0x0077be82      4e91           jsr (a1)                    ; fcn.0000000a
           0x0077be84      dec2           adda.w d2, a7
           0x0077be86      206c0052       movea.l 0x52(a4), a0
           0x0077be8a      7e01           moveq 0x1, d7
       > 0x0077be8c      2007           move.l d7, d0
          0x0077be8e      5380           subq.l 0x1, d0
          0x0077be90      0c8000000007   cmpi.l 0x7, d0
      < 0x0077be96      6302           bls.b 0x77be9a
         0x0077be98      4e4f           trap 0xf
      > 0x0077be9a      12300807       move.b 0x7(a0, d0.l), d1
          0x0077be9e      4881           ext.w d1
          0x0077bea0      48c1           ext.l d1
          0x0077bea2      2f01           move.l d1, -(a7)
          0x0077bea4      48780000       pea.l 0x0
          0x0077bea8      4eb9004070e4   jsr p_wti_o
          0x0077beae      5c4f           addq.w 0x6, a7
          0x0077beb0      1ebc0020       move.b 0x20, (a7)
          0x0077beb4      48780001       pea.l 0x1
          0x0077beb8      4eb9004048b4   jsr p_wtc_o
          0x0077bebe      5c4f           addq.w 0x6, a7
          0x0077bec0      5287           addq.l 0x1, d7
          0x0077bec2      0c8700000008   cmpi.l 0x8, d7
       < 0x0077bec8      6fc2           ble.b 0x77be8c
           0x0077beca      4eb900404946   jsr p_wtln_o
           0x0077bed0      302e0008       move.w 0x8(a6), d0
           0x0077bed4      48c0           ext.l d0
           0x0077bed6      2f00           move.l d0, -(a7)
           0x0077bed8      9efc00fc       suba.w 0xfc, a7
           0x0077bedc      2f3abfc6       move.l 0x777ea4(pc), -(a7)
           0x0077bee0      2f7abfc60004   move.l 0x777ea8(pc), 0x4(a7)
           0x0077bee6      2f7abfc40008   move.l 0x777eac(pc), 0x8(a7)
           0x0077beec      2f7abfc2000c   move.l 0x777eb0(pc), 0xc(a7)
           0x0077bef2      1f3c0001       move.b 0x1, -(a7)
           0x0077bef6      4ebadc6c       jsr PANEL_STACK.format_on_air(pc)
           0x0077befa      defc0106       adda.w 0x106, a7
           0x0077befe      4cdf0387       movem.l (a7)+, d0-d2/d7/a0-a1
           0x0077bf02      4e5e           unlk a6
           0x0077bf04      4e75           rts
 96: PANEL_STACK.taketoair (int32_t arg_2a3dh, int32_t arg_2a3eh, int32_t arg_2a3fh, int32_t arg_2a41h, int32_t arg_2a42h, int32_t arg_2a43h);
           ; var int32_t var_8h @ a7+0x8
           ; var int32_t var_108h @ a7+0x108
           ; arg int32_t arg_2a3dh @ a7+0x2a3d
           ; arg int32_t arg_2a3eh @ a7+0x2a3e
           ; arg int32_t arg_2a3fh @ a7+0x2a3f
           ; arg int32_t arg_2a41h @ a7+0x2a41
           ; arg int32_t arg_2a42h @ a7+0x2a42
           ; arg int32_t arg_2a43h @ a7+0x2a43
           0x0077bf06      4e56fd6e       link.w a6, 0xfd6e
           0x0077bf0a      bfd5           cmpa.l (a5), a7
       < 0x0077bf0c      6206           bhi.b 0x77bf14
          0x0077bf0e      44fc0002       move.w 0x2, ccr
          0x0077bf12      4e76           trapv
       > 0x0077bf14      defc024e       adda.w 0x24e, a7
           0x0077bf18      48e7fff8       movem.l d0-d7/a0-a4, -(a7)
           0x0077bf1c      7a0c           moveq 0xc, d5
           0x0077bf1e      7c01           moveq 0x1, d6
           0x0077bf20      4a390086eb1a   tst.b 0x86eb1a
       < 0x0077bf26      676a           beq.b loc.0077bf92
          0x0077bf28      487abf8b       pea.l 0x777eb5(pc)
          0x0077bf2c      48780017       pea.l 0x17
          0x0077bf30      2f17           move.l (a7), -(a7)
          0x0077bf32      4eb9004047ea   jsr p_wts_o
          0x0077bf38      dec5           adda.w d5, a7
          0x0077bf3a      206e000e       movea.l 0xe(a6), a0
          0x0077bf3e      10280002       move.b 0x2(a0), d0
          0x0077bf42      4880           ext.w d0
          0x0077bf44      0c400002       cmpi.w 0x2, d0
      < 0x0077bf48      623e           bhi.b 0x77bf88
         0x0077bf4a      d040           add.w d0, d0
         0x0077bf4c      303b0006       move.w 0x77bf54(pc, d0.w), d0
         0x0077bf50      4efb0002       jmp 0x77bf54(pc, d0.w)
          0x0077bf54      00060020       ori.b 0x20, d6
          0x0077bf58      002a487abf71   ori.b 0x7a, -0x408f(a2)
          0x0077bf5e      48780004       pea.l 0x4
         ; CODE XREF from PANEL_STACK @ +0x48f4
   > 0x0077bf62      2f17           move.l (a7), -(a7)
      0x0077bf64      4eb9004047ea   jsr p_wts_o
      0x0077bf6a      dec5           adda.w d5, a7
      0x0077bf6c      4eb900404946   jsr p_wtln_o
  < 0x0077bf72      601e           bra.b loc.0077bf92
      0x0077bf74      487abf5c       pea.l 0x777ed2(pc)
      0x0077bf78      48780009       pea.l 0x9
   < 0x0077bf7c      60e4           bra.b 0x77bf62              ; PANEL_STACK.taketoair+0x5c
       0x0077bf7e      487abf5c       pea.l 0x777edc(pc)
       0x0077bf82      4878000a       pea.l 0xa
    < 0x0077bf86      60da           bra.b 0x77bf62              ; PANEL_STACK.taketoair+0x5c
     > 0x0077bf88      487abf5d       pea.l 0x777ee7(pc)
         0x0077bf8c      48780007       pea.l 0x7
     < 0x0077bf90      60d0           bra.b 0x77bf62              ; PANEL_STACK.taketoair+0x5c
          ; CODE XREF from PANEL_STACK.taketoair @ 0x77bf72
 1066: loc.0077bf92 (int32_t arg_8h, int32_t arg_108h, int32_t arg_2a3dh, int32_t arg_2a3eh, int32_t arg_2a3fh, int32_t arg_2a41h, int32_t arg_2a42h, int32_t arg_2a43h);
         ; arg int32_t arg_8h @ a7+0x8
         ; arg int32_t arg_108h @ a7+0x108
         ; arg int32_t arg_2a3dh @ a7+0x2a3d
         ; arg int32_t arg_2a3eh @ a7+0x2a3e
         ; arg int32_t arg_2a3fh @ a7+0x2a3f
         ; arg int32_t arg_2a41h @ a7+0x2a41
         ; arg int32_t arg_2a42h @ a7+0x2a42
         ; arg int32_t arg_2a43h @ a7+0x2a43
  > 0x0077bf92      206e000e       movea.l 0xe(a6), a0
           0x0077bf96      43eeffc2       lea.l -0x3e(a6), a1
           0x0077bf9a      2448           movea.l a0, a2
           0x0077bf9c      7034           moveq 0x34, d0
       > 0x0077bf9e      12da           move.b (a2)+, (a1)+
       < 0x0077bfa0      51c8fffc       dbra d0, 0x77bf9e
           0x0077bfa4      10280002       move.b 0x2(a0), d0
           0x0077bfa8      0c000002       cmpi.b 0x2, d0
       < 0x0077bfac      66000084       bne.w 0x77c032
          0x0077bfb0      4850           pea.l (a0)
          0x0077bfb2      1f06           move.b d6, -(a7)
          0x0077bfb4      4ebae096       jsr PANEL_STACK.make_current(pc)
          0x0077bfb8      5c4f           addq.w 0x6, a7
          0x0077bfba      4a390086eb1a   tst.b 0x86eb1a
      < 0x0077bfc0      675a           beq.b 0x77c01c
         0x0077bfc2      487abf2b       pea.l 0x777eef(pc)
         0x0077bfc6      48780026       pea.l 0x26
         0x0077bfca      2f17           move.l (a7), -(a7)
         0x0077bfcc      4eb9004047ea   jsr p_wts_o
         0x0077bfd2      504f           addq.w 0x8, a7
         0x0077bfd4      2eb900871010   move.l 0x871010, (a7)
         0x0077bfda      48780000       pea.l 0x0
         0x0077bfde      4eb9004070e4   jsr p_wti_o
         0x0077bfe4      504f           addq.w 0x8, a7
         0x0077bfe6      487abf2e       pea.l 0x777f16(pc)
         0x0077bfea      48780006       pea.l 0x6
         0x0077bfee      2f17           move.l (a7), -(a7)
         0x0077bff0      4eb9004047ea   jsr p_wts_o
         0x0077bff6      dec5           adda.w d5, a7
         0x0077bff8      22790086eb32   movea.l 0x86eb32, a1
         0x0077bffe      b3e9fffc       cmpa.l -0x4(a1), a1
     < 0x0077c002      6702           beq.b 0x77c006
        0x0077c004      4e4d           trap 0xd
     > 0x0077c006      2f290006       move.l 0x6(a1), -(a7)
         0x0077c00a      48780000       pea.l 0x0
         0x0077c00e      4eb9004070e4   jsr p_wti_o
         0x0077c014      504f           addq.w 0x8, a7
         0x0077c016      4eb900404946   jsr p_wtln_o
      > 0x0077c01c      22790086eb32   movea.l 0x86eb32, a1
          0x0077c022      b3e9fffc       cmpa.l -0x4(a1), a1
      < 0x0077c026      6702           beq.b 0x77c02a
         0x0077c028      4e4d           trap 0xd
      > 0x0077c02a      237900871010.  move.l 0x871010, 0x6(a1)
       > 0x0077c032      10280002       move.b 0x2(a0), d0
           0x0077c036      0c000002       cmpi.b 0x2, d0
       < 0x0077c03a      6608           bne.b 0x77c044
          0x0077c03c      4850           pea.l (a0)
          0x0077c03e      4ebae1f0       jsr PANEL_STACK.make_editonly(pc)
          0x0077c042      584f           addq.w 0x4, a7
       > 0x0077c044      226e0008       movea.l 0x8(a6), a1
           0x0077c048      4291           clr.l (a1)
           0x0077c04a      10280024       move.b 0x24(a0), d0
           0x0077c04e      0c000006       cmpi.b 0x6, d0
       < 0x0077c052      660e           bne.b 0x77c062
          0x0077c054      4227           clr.b -(a7)
          0x0077c056      4eb90040452a   jsr p_Assert
          0x0077c05c      544f           addq.w 0x2, a7
      < 0x0077c05e      6000067c       bra.w loc.0077c6dc
      > 0x0077c062      4a280002       tst.b 0x2(a0)
      < 0x0077c066      66000332       bne.w 0x77c39a
         0x0077c06a      0c000004       cmpi.b 0x4, d0
     < 0x0077c06e      6610           bne.b 0x77c080
        0x0077c070      3f280026       move.w 0x26(a0), -(a7)
        0x0077c074      48780000       pea.l 0x0
        0x0077c078      4eb9007949f4   jsr PANEL_VIDEO.wipe_matte
        0x0077c07e      5c4f           addq.w 0x6, a7
     > 0x0077c080      7e00           moveq 0x0, d7
         0x0077c082      22790086eb32   movea.l 0x86eb32, a1
         0x0077c088      b3e9fffc       cmpa.l -0x4(a1), a1
     < 0x0077c08c      6702           beq.b 0x77c090
        0x0077c08e      4e4d           trap 0xd
     > 0x0077c090      2f09           move.l a1, -(a7)
         0x0077c092      32390087101c   move.w 0x87101c, d1
         0x0077c098      43bc0009       chk.w 0x9, d1
         0x0077c09c      c3fc0012       muls.w 0x12, d1
         0x0077c0a0      143900871026   move.b 0x871026, d2
         0x0077c0a6      4402           neg.b d2
         0x0077c0a8      5202           addq.b 0x1, d2
     < 0x0077c0aa      673e           beq.b 0x77c0ea
        0x0077c0ac      4a7900871280   tst.w 0x871280
    < 0x0077c0b2      6636           bne.b 0x77c0ea
       0x0077c0b4      14291510       move.b 0x1510(a1), d2
       0x0077c0b8      0c020004       cmpi.b 0x4, d2
   < 0x0077c0bc      6608           bne.b 0x77c0c6
      0x0077c0be      4a3900871001   tst.b 0x871001
  < 0x0077c0c4      6624           bne.b 0x77c0ea
  > 0x0077c0c6      4880           ext.w d0
      0x0077c0c8      45fabe52       lea.l 0x777f1c(pc), a2
      0x0077c0cc      3400           move.w d0, d2
      0x0077c0ce      e64a           lsr.w 0x3, d2
      0x0077c0d0      01322000       btst.l d0, (a2, d2.w)
  < 0x0077c0d4      670c           beq.b 0x77c0e2
     0x0077c0d6      43f11800       lea.l (a1, d1.l), a1
     0x0077c0da      34292a3a       move.w 0x2a3a(a1), d2
     0x0077c0de      b446           cmp.w d6, d2
 < 0x0077c0e0      6e06           bgt.b 0x77c0e8
 > 0x0077c0e2      0c000003       cmpi.b 0x3, d0
 < 0x0077c0e6      6602           bne.b 0x77c0ea
 > 0x0077c0e8      5207           addq.b 0x1, d7
  > 0x0077c0ea      2257           movea.l (a7), a1
         0x0077c0ec      43f11800       lea.l (a1, d1.l), a1
         0x0077c0f0      584f           addq.w 0x4, a7
         0x0077c0f2      4a07           tst.b d7
     < 0x0077c0f4      661c           bne.b 0x77c112
        0x0077c0f6      426efff8       clr.w -0x8(a6)
        0x0077c0fa      426efffa       clr.w -0x6(a6)
        0x0077c0fe      3d7900870fc6.  move.w 0x870fc6, -0x4(a6)
        0x0077c106      3d7900870fc8.  move.w 0x870fc8, -0x2(a6)
    < 0x0077c10e      60000198       bra.w 0x77c2a8
    > 0x0077c112      32292a3a       move.w 0x2a3a(a1), d1
        0x0077c116      0c410002       cmpi.w 0x2, d1
    < 0x0077c11a      6644           bne.b 0x77c160
       0x0077c11c      9ec5           suba.w d5, a7
       0x0077c11e      1ea92a3c       move.b 0x2a3c(a1), (a7)
       0x0077c122      1f692a3d0001   move.b 0x2a3d(a1), 0x1(a7)
       0x0077c128      1f692a3e0002   move.b 0x2a3e(a1), 0x2(a7)
       0x0077c12e      1f692a3f0003   move.b 0x2a3f(a1), 0x3(a7)
       0x0077c134      594f           subq.w 0x4, a7
       0x0077c136      1ea92a40       move.b 0x2a40(a1), (a7)
       0x0077c13a      1f692a410001   move.b 0x2a41(a1), 0x1(a7)
       0x0077c140      1f692a420002   move.b 0x2a42(a1), 0x2(a7)
       0x0077c146      1f692a430003   move.b 0x2a43(a1), 0x3(a7)
       0x0077c14c      4eb900784e62   jsr PANEL_UTILS.area_enclosed
       0x0077c152      504f           addq.w 0x8, a7
       0x0077c154      2d5ffff8       move.l (a7)+, -0x8(a6)
       0x0077c158      2d5ffffc       move.l (a7)+, -0x4(a6)
   < 0x0077c15c      6000014a       bra.w 0x77c2a8
   > 0x0077c160      4a390086eb1a   tst.b 0x86eb1a
   < 0x0077c166      67000084       beq.w 0x77c1ec
      0x0077c16a      9efc0100       suba.w 0x100, a7
      0x0077c16e      2f3900871388   move.l 0x871388, -(a7)
      0x0077c174      48780001       pea.l 0x1
      0x0077c178      4eb90044dd86   jsr SYSTEM_STRING.point_str
      0x0077c17e      9efc00f8       suba.w 0xf8, a7
      0x0077c182      2f3900871272   move.l 0x871272, -(a7)
      0x0077c188      48780001       pea.l 0x1
      0x0077c18c      4eb90044dd86   jsr SYSTEM_STRING.point_str
      0x0077c192      504f           addq.w 0x8, a7
      0x0077c194      487abd89       pea.l 0x777f1f(pc)
      0x0077c198      48780015       pea.l 0x15
      0x0077c19c      2f17           move.l (a7), -(a7)
      0x0077c19e      4eb9004047ea   jsr p_wts_o
      0x0077c1a4      dec5           adda.w d5, a7
      0x0077c1a6      486f0101       pea.l 0x101(a7)
      0x0077c1aa      42a7           clr.l -(a7)
      0x0077c1ac      1f6f01080003   move.b 0x108(a7), 0x3(a7)
      0x0077c1b2      2f17           move.l (a7), -(a7)
      0x0077c1b4      4eb9004047ea   jsr p_wts_o
      0x0077c1ba      dec5           adda.w d5, a7
      0x0077c1bc      487abd77       pea.l 0x777f35(pc)
      0x0077c1c0      48780009       pea.l 0x9
      0x0077c1c4      2f17           move.l (a7), -(a7)
      0x0077c1c6      4eb9004047ea   jsr p_wts_o
      0x0077c1cc      dec5           adda.w d5, a7
      0x0077c1ce      486f0001       pea.l 0x1(a7)
      0x0077c1d2      42a7           clr.l -(a7)
      0x0077c1d4      1f6f00080003   move.b 0x8(a7), 0x3(a7)
      0x0077c1da      2f17           move.l (a7), -(a7)
      0x0077c1dc      4eb9004047ea   jsr p_wts_o
      0x0077c1e2      defc020c       adda.w 0x20c, a7
      0x0077c1e6      4eb900404946   jsr p_wtln_o
   > 0x0077c1ec      323900871388   move.w 0x871388, d1
       0x0077c1f2      48c1           ext.l d1
       0x0077c1f4      343900871272   move.w 0x871272, d2
       0x0077c1fa      48c2           ext.l d2
       0x0077c1fc      4482           neg.l d2
       0x0077c1fe      d481           add.l d1, d2
       0x0077c200      0482ffff8000   subi.l 0xffff8000, d2
       0x0077c206      0c820000ffff   cmpi.l 0xffff, d2
   < 0x0077c20c      6302           bls.b 0x77c210
      0x0077c20e      4e4f           trap 0xf
   > 0x0077c210      0682ffff8000   addi.l 0xffff8000, d2
       0x0077c216      3d42fff8       move.w d2, -0x8(a6)
       0x0077c21a      32390087138a   move.w 0x87138a, d1
       0x0077c220      48c1           ext.l d1
       0x0077c222      343900871274   move.w 0x871274, d2
       0x0077c228      48c2           ext.l d2
       0x0077c22a      4482           neg.l d2
       0x0077c22c      d481           add.l d1, d2
       0x0077c22e      0482ffff8000   subi.l 0xffff8000, d2
       0x0077c234      0c820000ffff   cmpi.l 0xffff, d2
   < 0x0077c23a      6302           bls.b 0x77c23e
      0x0077c23c      4e4f           trap 0xf
   > 0x0077c23e      0682ffff8000   addi.l 0xffff8000, d2
       0x0077c244      3d42fffa       move.w d2, -0x6(a6)
       0x0077c248      3d790087126a.  move.w 0x87126a, -0x4(a6)
       0x0077c250      3d790087126c.  move.w 0x87126c, -0x2(a6)
       0x0077c258      4a390086eb1a   tst.b 0x86eb1a
   < 0x0077c25e      6748           beq.b 0x77c2a8
      0x0077c260      9efc0100       suba.w 0x100, a7
      0x0077c264      2f2efffc       move.l -0x4(a6), -(a7)
      0x0077c268      2f2efff8       move.l -0x8(a6), -(a7)
      0x0077c26c      48780001       pea.l 0x1
      0x0077c270      4eb90044d9f2   jsr SYSTEM_STRING.area_str
      0x0077c276      dec5           adda.w d5, a7
      0x0077c278      487abcc5       pea.l 0x777f3f(pc)
      0x0077c27c      48780011       pea.l 0x11
      0x0077c280      2f17           move.l (a7), -(a7)
      0x0077c282      4eb9004047ea   jsr p_wts_o
      0x0077c288      dec5           adda.w d5, a7
      0x0077c28a      486f0001       pea.l 0x1(a7)
      0x0077c28e      42a7           clr.l -(a7)
      0x0077c290      1f6f00080003   move.b 0x8(a7), 0x3(a7)
      0x0077c296      2f17           move.l (a7), -(a7)
      0x0077c298      4eb9004047ea   jsr p_wts_o
      0x0077c29e      defc010c       adda.w 0x10c, a7
      0x0077c2a2      4eb900404946   jsr p_wtln_o
   > 0x0077c2a8      32390087101c   move.w 0x87101c, d1
         0x0077c2ae      43bc0009       chk.w 0x9, d1
         0x0077c2b2      c3fc0012       muls.w 0x12, d1
         0x0077c2b6      34280004       move.w 0x4(a0), d2
         0x0077c2ba      48c2           ext.l d2
         0x0077c2bc      2f02           move.l d2, -(a7)
         0x0077c2be      1f280006       move.b 0x6(a0), -(a7)
         0x0077c2c2      4887           ext.w d7
         0x0077c2c4      4f86           chk.w d6, d7
         0x0077c2c6      1f07           move.b d7, -(a7)
         0x0077c2c8      4227           clr.b -(a7)
         0x0077c2ca      0c000003       cmpi.b 0x3, d0
     < 0x0077c2ce      6602           bne.b 0x77c2d2
        0x0077c2d0      5217           addq.b 0x1, (a7)
     > 0x0077c2d2      4227           clr.b -(a7)
         0x0077c2d4      22790086eb32   movea.l 0x86eb32, a1
         0x0077c2da      b3e9fffc       cmpa.l -0x4(a1), a1
     < 0x0077c2de      6702           beq.b 0x77c2e2
        0x0077c2e0      4e4d           trap 0xd
     > 0x0077c2e2      43f11800       lea.l (a1, d1.l), a1
         0x0077c2e6      32292a3a       move.w 0x2a3a(a1), d1
         0x0077c2ea      b246           cmp.w d6, d1
     < 0x0077c2ec      6f02           ble.b 0x77c2f0
        0x0077c2ee      5217           addq.b 0x1, (a7)
     > 0x0077c2f0      2f2efffc       move.l -0x4(a6), -(a7)
         0x0077c2f4      2f2efff8       move.l -0x8(a6), -(a7)
         0x0077c2f8      5d4f           subq.w 0x6, a7
         0x0077c2fa      224f           movea.l a7, a1
         0x0077c2fc      45e80016       lea.l 0x16(a0), a2
         0x0077c300      7205           moveq 0x5, d1
     > 0x0077c302      12da           move.b (a2)+, (a1)+
     < 0x0077c304      51c9fffc       dbra d1, 0x77c302
         0x0077c308      3f280014       move.w 0x14(a0), -(a7)
         0x0077c30c      4eb9007933ce   jsr PANEL_OUTPUT.take_transition
         0x0077c312      defc001c       adda.w 0x1c, a7
         0x0077c316      423900871001   clr.b 0x871001
         0x0077c31c      4eb900794dea   jsr PANEL_VIDEO.copy_forward
         0x0077c322      4eb900790674   jsr PANEL_OUTPUT.normal_output
         0x0077c328      48780001       pea.l 0x1
         0x0077c32c      4eb900402e42   jsr p_Delay
         0x0077c332      584f           addq.w 0x4, a7
         0x0077c334      4880           ext.w d0
         0x0077c336      43fabc18       lea.l 0x777f50(pc), a1
         0x0077c33a      3200           move.w d0, d1
         0x0077c33c      e649           lsr.w 0x3, d1
         0x0077c33e      01311000       btst.l d0, (a1, d1.w)
     < 0x0077c342      674a           beq.b 0x77c38e
        0x0077c344      13c60086f542   move.b d6, 0x86f542
        0x0077c34a      9efc0100       suba.w 0x100, a7
        0x0077c34e      48780001       pea.l 0x1
        0x0077c352      4eb90078c1a4   jsr PANEL_PREFETCH.pf_title
        0x0077c358      584f           addq.w 0x4, a7
        0x0077c35a      43f90086f579   lea.l 0x86f579, a1
        0x0077c360      244f           movea.l a7, a2
        0x0077c362      323c00ff       move.w 0xff, d1
    > 0x0077c366      12da           move.b (a2)+, (a1)+
    < 0x0077c368      51c9fffc       dbra d1, 0x77c366
        0x0077c36c      defc0100       adda.w 0x100, a7
        0x0077c370      33f90087101c.  move.w 0x87101c, 0x86f67a.l
        0x0077c37a      43f90086f544   lea.l 0x86f544, a1
        0x0077c380      2448           movea.l a0, a2
        0x0077c382      7234           moveq 0x34, d1
    > 0x0077c384      12da           move.b (a2)+, (a1)+
    < 0x0077c386      51c9fffc       dbra d1, 0x77c384
    < 0x0077c38a      60000350       bra.w loc.0077c6dc
    > 0x0077c38e      0c000006       cmpi.b 0x6, d0
    < 0x0077c392      66000348       bne.w loc.0077c6dc
   < 0x0077c396      6000033e       bra.w loc.0077c6d6
   > 0x0077c39a      12280002       move.b 0x2(a0), d1
       0x0077c39e      b206           cmp.b d6, d1
   < 0x0077c3a0      66000306       bne.w 0x77c6a8
      0x0077c3a4      4880           ext.w d0
      0x0077c3a6      3400           move.w d0, d2
      0x0077c3a8      5342           subq.w 0x1, d2
      0x0077c3aa      0c420008       cmpi.w 0x8, d2
  < 0x0077c3ae      620002a8       bhi.w 0x77c658
     0x0077c3b2      d442           add.w d2, d2
     0x0077c3b4      343b2006       move.w 0x77c3bc(pc, d2.w), d2
     0x0077c3b8      4efb2002       jmp 0x77c3bc(pc, d2.w)
      0x0077c3bc      0012029c       ori.b 0x9c, (a2)
      0x0077c3c0      001201ce       ori.b 0xce, (a2)
      0x0077c3c4      029c01ca029c   andi.l 0x1ca029c, (a4)+
      0x0077c3ca      029c00129efc   andi.l 0x129efc, (a4)+
      0x0077c3d0      0038224f2448   ori.b 0x4f, 0x2448.w
      0x0077c3d6      7434           moveq 0x34, d2
  > 0x0077c3d8      12da           move.b (a2)+, (a1)+
  < 0x0077c3da      51cafffc       dbra d2, 0x77c3d8
      0x0077c3de      9efc0036       suba.w 0x36, a7
      0x0077c3e2      224f           movea.l a7, a1
      0x0077c3e4      45eeffc2       lea.l -0x3e(a6), a2
      0x0077c3e8      740c           moveq 0xc, d2
  > 0x0077c3ea      22da           move.l (a2)+, (a1)+
  < 0x0077c3ec      51cafffc       dbra d2, 0x77c3ea
      0x0077c3f0      12da           move.b (a2)+, (a1)+
      0x0077c3f2      49eeffbc       lea.l -0x44(a6), a4
      0x0077c3f6      4ebaf8b4       jsr PANEL_STACK.get_storenum(pc)
      0x0077c3fa      defc006c       adda.w 0x6c, a7
      0x0077c3fe      3e17           move.w (a7), d7
      0x0077c400      3f07           move.w d7, -(a7)
      0x0077c402      4eb9007841ec   jsr PANEL_UTILS.store_valid
      0x0077c408      544f           addq.w 0x2, a7
      0x0077c40a      4a1f           tst.b (a7)+
  < 0x0077c40c      6700014c       beq.w 0x77c55a
     0x0077c410      34390087101c   move.w 0x87101c, d2
     0x0077c416      45bc0009       chk.w 0x9, d2
     0x0077c41a      c5fc0012       muls.w 0x12, d2
     0x0077c41e      9efc0036       suba.w 0x36, a7
     0x0077c422      224f           movea.l a7, a1
     0x0077c424      2448           movea.l a0, a2
     0x0077c426      7634           moveq 0x34, d3
  > 0x0077c428      12da           move.b (a2)+, (a1)+
  < 0x0077c42a      51cbfffc       dbra d3, 0x77c428
     0x0077c42e      0447ff80       subi.w 0xff80, d7
     0x0077c432      4fbc00ff       chk.w 0xff, d7
     0x0077c436      0647ff80       addi.w 0xff80, d7
     0x0077c43a      3f07           move.w d7, -(a7)
     0x0077c43c      48780001       pea.l 0x1
     0x0077c440      163900871026   move.b 0x871026, d3
     0x0077c446      4883           ext.w d3
     0x0077c448      4786           chk.w d6, d3
     0x0077c44a      1f03           move.b d3, -(a7)
     0x0077c44c      4227           clr.b -(a7)
     0x0077c44e      36390087101c   move.w 0x87101c, d3
     0x0077c454      b646           cmp.w d6, d3
  < 0x0077c456      6702           beq.b 0x77c45a
     0x0077c458      5217           addq.b 0x1, (a7)
  > 0x0077c45a      22790086eb32   movea.l 0x86eb32, a1
     0x0077c460      b3e9fffc       cmpa.l -0x4(a1), a1
  < 0x0077c464      6702           beq.b 0x77c468
     0x0077c466      4e4d           trap 0xd
  > 0x0077c468      43f12800       lea.l (a1, d2.l), a1
     0x0077c46c      9efc0012       suba.w 0x12, a7
     0x0077c470      244f           movea.l a7, a2
     0x0077c472      43e92a3a       lea.l 0x2a3a(a1), a1
     0x0077c476      7411           moveq 0x11, d2
  > 0x0077c478      14d9           move.b (a1)+, (a2)+
  < 0x0077c47a      51cafffc       dbra d2, 0x77c478
     0x0077c47e      487900871266   pea.l 0x871266
     0x0077c484      4eb900797092   jsr PANEL_VIDEO.stamp_prefetch
     0x0077c48a      defc0056       adda.w 0x56, a7
     0x0077c48e      48c7           ext.l d7
     0x0077c490      2407           move.l d7, d2
     0x0077c492      5382           subq.l 0x1, d2
     0x0077c494      b486           cmp.l d6, d2
  < 0x0077c496      6302           bls.b 0x77c49a
     0x0077c498      4e4f           trap 0xf
  > 0x0077c49a      2802           move.l d2, d4
     0x0077c49c      263c0000013a   move.l 0x13a, d3
     0x0077c4a2      4eb900406a74   jsr fcn.00406a74
     0x0077c4a8      43f90086eb1a   lea.l 0x86eb1a, a1
     0x0077c4ae      43f14800       lea.l (a1, d4.l), a1
     0x0077c4b2      2f09           move.l a1, -(a7)
     0x0077c4b4      13460a28       move.b d6, 0xa28(a1)
     0x0077c4b8      9efc0100       suba.w 0x100, a7
     0x0077c4bc      48780001       pea.l 0x1
     0x0077c4c0      4eb90078c1a4   jsr PANEL_PREFETCH.pf_title
     0x0077c4c6      584f           addq.w 0x4, a7
     0x0077c4c8      45e90a5f       lea.l 0xa5f(a1), a2
     0x0077c4cc      264f           movea.l a7, a3
     0x0077c4ce      343c00ff       move.w 0xff, d2
  > 0x0077c4d2      14db           move.b (a3)+, (a2)+
  < 0x0077c4d4      51cafffc       dbra d2, 0x77c4d2
     0x0077c4d8      defc0100       adda.w 0x100, a7
     0x0077c4dc      33790087101c.  move.w 0x87101c, 0xb60(a1)
     0x0077c4e4      2457           movea.l (a7), a2
     0x0077c4e6      45ea0a2a       lea.l 0xa2a(a2), a2
     0x0077c4ea      2648           movea.l a0, a3
     0x0077c4ec      7434           moveq 0x34, d2
  > 0x0077c4ee      14db           move.b (a3)+, (a2)+
  < 0x0077c4f0      51cafffc       dbra d2, 0x77c4ee
     0x0077c4f4      4a390086eb1a   tst.b 0x86eb1a
  < 0x0077c4fa      6606           bne.b 0x77c502
     0x0077c4fc      584f           addq.w 0x4, a7
  < 0x0077c4fe      60000082       bra.w 0x77c582
  > 0x0077c502      487aba4f       pea.l 0x777f53(pc)
     0x0077c506      4878000f       pea.l 0xf
     0x0077c50a      2f17           move.l (a7), -(a7)
     0x0077c50c      4eb9004047ea   jsr p_wts_o
     0x0077c512      dec5           adda.w d5, a7
     0x0077c514      4282           clr.l d2
     0x0077c516      34290a2a       move.w 0xa2a(a1), d2
     0x0077c51a      2f02           move.l d2, -(a7)
     0x0077c51c      48780004       pea.l 0x4
     0x0077c520      4eb9004070e4   jsr p_wti_o
     0x0077c526      504f           addq.w 0x8, a7
     0x0077c528      48690a60       pea.l 0xa60(a1)
     0x0077c52c      42a7           clr.l -(a7)
     0x0077c52e      1f690a5f0003   move.b 0xa5f(a1), 0x3(a7)
     0x0077c534      2f17           move.l (a7), -(a7)
     0x0077c536      4eb9004047ea   jsr p_wts_o
     0x0077c53c      defc000a       adda.w 0xa, a7
     0x0077c540      1ebc002f       move.b 0x2f, (a7)
     0x0077c544      48780001       pea.l 0x1
     0x0077c548      4eb9004048b4   jsr p_wtc_o
     0x0077c54e      5c4f           addq.w 0x6, a7
     0x0077c550      4eb900404946   jsr p_wtln_o
     0x0077c556      584f           addq.w 0x4, a7
  < 0x0077c558      6028           bra.b 0x77c582
  > 0x0077c55a      9efc00fc       suba.w 0xfc, a7
      0x0077c55e      2f3aba02       move.l 0x777f62(pc), -(a7)
      0x0077c562      2f7aba020004   move.l 0x777f66(pc), 0x4(a7)
      0x0077c568      2f7aba000008   move.l 0x777f6a(pc), 0x8(a7)
      0x0077c56e      2f7ab9fe000c   move.l 0x777f6e(pc), 0xc(a7)
      0x0077c574      3f07           move.w d7, -(a7)
      0x0077c576      49eeffbc       lea.l -0x44(a6), a4
      0x0077c57a      4ebaf878       jsr PANEL_STACK.bad_store(pc)
      0x0077c57e      defc0102       adda.w 0x102, a7
  < 0x0077c582      60000158       bra.w loc.0077c6dc
  < 0x0077c586      6000014e       bra.w loc.0077c6d6
     0x0077c58a      9efc0038       suba.w 0x38, a7
     0x0077c58e      224f           movea.l a7, a1
     0x0077c590      2448           movea.l a0, a2
     0x0077c592      7434           moveq 0x34, d2
  > 0x0077c594      12da           move.b (a2)+, (a1)+
  < 0x0077c596      51cafffc       dbra d2, 0x77c594
     0x0077c59a      9efc0036       suba.w 0x36, a7
     0x0077c59e      224f           movea.l a7, a1
     0x0077c5a0      45eeffc2       lea.l -0x3e(a6), a2
     0x0077c5a4      740c           moveq 0xc, d2
  > 0x0077c5a6      22da           move.l (a2)+, (a1)+
  < 0x0077c5a8      51cafffc       dbra d2, 0x77c5a6
     0x0077c5ac      12da           move.b (a2)+, (a1)+
     0x0077c5ae      49eeffbc       lea.l -0x44(a6), a4
     0x0077c5b2      4ebaf6f8       jsr PANEL_STACK.get_storenum(pc)
     0x0077c5b6      defc006c       adda.w 0x6c, a7
     0x0077c5ba      3e17           move.w (a7), d7
     0x0077c5bc      3f07           move.w d7, -(a7)
     0x0077c5be      4eb9007841ec   jsr PANEL_UTILS.store_valid
     0x0077c5c4      544f           addq.w 0x2, a7
     0x0077c5c6      4a1f           tst.b (a7)+
  < 0x0077c5c8      6768           beq.b 0x77c632
     0x0077c5ca      3f280026       move.w 0x26(a0), -(a7)
     0x0077c5ce      48c7           ext.l d7
     0x0077c5d0      2f07           move.l d7, -(a7)
     0x0077c5d2      1f280002       move.b 0x2(a0), -(a7)
     0x0077c5d6      4eb900794afe   jsr PANEL_VIDEO.stamp_matte
     0x0077c5dc      504f           addq.w 0x8, a7
     0x0077c5de      48c7           ext.l d7
     0x0077c5e0      2407           move.l d7, d2
     0x0077c5e2      5382           subq.l 0x1, d2
     0x0077c5e4      b486           cmp.l d6, d2
  < 0x0077c5e6      6302           bls.b 0x77c5ea
     0x0077c5e8      4e4f           trap 0xf
  > 0x0077c5ea      2802           move.l d2, d4
     0x0077c5ec      263c0000013a   move.l 0x13a, d3
     0x0077c5f2      4eb900406a74   jsr fcn.00406a74
     0x0077c5f8      43f90086eb1a   lea.l 0x86eb1a, a1
     0x0077c5fe      43f14800       lea.l (a1, d4.l), a1
     0x0077c602      2f09           move.l a1, -(a7)
     0x0077c604      13460a28       move.b d6, 0xa28(a1)
     0x0077c608      45e90a5f       lea.l 0xa5f(a1), a2
     0x0077c60c      47fab1a3       lea.l 0x7777b1(pc), a3
     0x0077c610      741f           moveq 0x1f, d2
  > 0x0077c612      14db           move.b (a3)+, (a2)+
  < 0x0077c614      51cafffc       dbra d2, 0x77c612
     0x0077c618      33790087101c.  move.w 0x87101c, 0xb60(a1)
     0x0077c620      225f           movea.l (a7)+, a1
     0x0077c622      43e90a2a       lea.l 0xa2a(a1), a1
     0x0077c626      2448           movea.l a0, a2
     0x0077c628      7434           moveq 0x34, d2
  > 0x0077c62a      12da           move.b (a2)+, (a1)+
  < 0x0077c62c      51cafffc       dbra d2, 0x77c62a
  < 0x0077c630      6022           bra.b 0x77c654
  > 0x0077c632      9efc00fc       suba.w 0xfc, a7
     0x0077c636      2f3ab93a       move.l 0x777f72(pc), -(a7)
     0x0077c63a      3f7ab93a0004   move.w 0x777f76(pc), 0x4(a7)
     0x0077c640      1f7ab9360006   move.b 0x777f78(pc), 0x6(a7)
     0x0077c646      3f07           move.w d7, -(a7)
     0x0077c648      49eeffbc       lea.l -0x44(a6), a4
     0x0077c64c      4ebaf7a6       jsr PANEL_STACK.bad_store(pc)
     0x0077c650      defc0102       adda.w 0x102, a7
  < 0x0077c654      60000086       bra.w loc.0077c6dc
  > 0x0077c658      9efc0100       suba.w 0x100, a7
      0x0077c65c      1f00           move.b d0, -(a7)
      0x0077c65e      4eb9006b835c   jsr USER1_UTILS.entry_t_str
      0x0077c664      1ebc0007       move.b 0x7, (a7)
      0x0077c668      48780001       pea.l 0x1
      0x0077c66c      4eb9004048b4   jsr p_wtc_o
      0x0077c672      5c4f           addq.w 0x6, a7
      0x0077c674      487ab904       pea.l 0x777f7a(pc)
      0x0077c678      4878001d       pea.l 0x1d
      0x0077c67c      2f17           move.l (a7), -(a7)
      0x0077c67e      4eb9004047ea   jsr p_wts_o
      0x0077c684      dec5           adda.w d5, a7
      0x0077c686      486f0001       pea.l 0x1(a7)
      0x0077c68a      42a7           clr.l -(a7)
      0x0077c68c      1f6f00080003   move.b 0x8(a7), 0x3(a7)
      0x0077c692      2f17           move.l (a7), -(a7)
      0x0077c694      4eb9004047ea   jsr p_wts_o
      0x0077c69a      defc010c       adda.w 0x10c, a7
      0x0077c69e      4eb900404946   jsr p_wtln_o
  < 0x0077c6a4      6036           bra.b loc.0077c6dc
  < 0x0077c6a6      6034           bra.b loc.0077c6dc
  > 0x0077c6a8      0c010002       cmpi.b 0x2, d1
  < 0x0077c6ac      662e           bne.b loc.0077c6dc
     0x0077c6ae      1f3c0007       move.b 0x7, -(a7)
     0x0077c6b2      48780001       pea.l 0x1
     0x0077c6b6      4eb9004048b4   jsr p_wtc_o
     0x0077c6bc      5c4f           addq.w 0x6, a7
     0x0077c6be      487ab8d8       pea.l 0x777f98(pc)
     0x0077c6c2      4878001e       pea.l 0x1e
     0x0077c6c6      2f17           move.l (a7), -(a7)
     0x0077c6c8      4eb9004047ea   jsr p_wts_o
     0x0077c6ce      dec5           adda.w d5, a7
     0x0077c6d0      4eb900404946   jsr p_wtln_o
     ; CODE XREF from loc.0077bf92 @ 0x77c396
 6: loc.0077c6d6 ();
 > 0x0077c6d6      4eb900401620   jsr p_walkback
      ; CODE XREFS from loc.0077bf92 @ 0x77c05e, 0x77c38a
      ; CODE XREF from PANEL_STACK @ +0x5008
 14: loc.0077c6dc ();
 > 0x0077c6dc      42390086eb1d   clr.b 0x86eb1d
           0x0077c6e2      4cdf1fff       movem.l (a7)+, d0-d7/a0-a4
           0x0077c6e6      4e5e           unlk a6
           0x0077c6e8      4e75           rts
            ; CALL XREF from PANEL.hit_release @ 0x775058
 176: PANEL_STACK.do_release ();
           0x0077c6ea      4e56ffd8       link.w a6, 0xffd8
           0x0077c6ee      bfd5           cmpa.l (a5), a7
       < 0x0077c6f0      6206           bhi.b 0x77c6f8
          0x0077c6f2      44fc0002       move.w 0x2, ccr
          0x0077c6f6      4e76           trapv
       > 0x0077c6f8      defc0028       adda.w 0x28, a7
           0x0077c6fc      48e7c0f8       movem.l d0-d1/a0-a4, -(a7)
           0x0077c700      41f900870fca   lea.l 0x870fca, a0
           0x0077c706      43f90086eb1b   lea.l 0x86eb1b, a1
           0x0077c70c      45f9007a1f06   lea.l SERIAL.write_window, a2
           0x0077c712      47f90086f7bb   lea.l 0x86f7bb, a3
           0x0077c718      49f90086f7bc   lea.l 0x86f7bc, a4
           0x0077c71e      7202           moveq 0x2, d1
           0x0077c720      4a10           tst.b (a0)
       < 0x0077c722      670a           beq.b 0x77c72e
          0x0077c724      4eb9007a221a   jsr SERIAL.refresh_windows
          0x0077c72a      4210           clr.b (a0)
      < 0x0077c72c      6048           bra.b 0x77c776
      > 0x0077c72e      4a2e0008       tst.b 0x8(a6)
      < 0x0077c732      6606           bne.b 0x77c73a
         0x0077c734      1011           move.b (a1), d0
         0x0077c736      b001           cmp.b d1, d0
     < 0x0077c738      6d10           blt.b 0x77c74a
     > 0x0077c73a      4211           clr.b (a1)
         0x0077c73c      48780000       pea.l 0x0
         0x0077c740      48790086ee42   pea.l 0x86ee42
         0x0077c746      4e92           jsr (a2)                    ; fcn.00000009+0x2
         0x0077c748      504f           addq.w 0x8, a7
     > 0x0077c74a      1013           move.b (a3), d0
          0x0077c74c      b001           cmp.b d1, d0
      < 0x0077c74e      6610           bne.b 0x77c760
         0x0077c750      4213           clr.b (a3)
         0x0077c752      48780009       pea.l 0x9
         0x0077c756      48790086f142   pea.l 0x86f142
         0x0077c75c      4e92           jsr (a2)                    ; fcn.00000009+0x2
         0x0077c75e      504f           addq.w 0x8, a7
      > 0x0077c760      1014           move.b (a4), d0
          0x0077c762      b001           cmp.b d1, d0
      < 0x0077c764      6610           bne.b 0x77c776
         0x0077c766      4214           clr.b (a4)
         0x0077c768      48780001       pea.l 0x1
         0x0077c76c      48790086f242   pea.l 0x86f242
         0x0077c772      4e92           jsr (a2)                    ; fcn.00000009+0x2
         0x0077c774      504f           addq.w 0x8, a7
      > 0x0077c776      102e000c       move.b 0xc(a6), d0
           0x0077c77a      b001           cmp.b d1, d0
       < 0x0077c77c      6708           beq.b 0x77c786
          0x0077c77e      4a390086eb1e   tst.b 0x86eb1e
      < 0x0077c784      670c           beq.b 0x77c792
      > 0x0077c786      4eb90079f5b2   jsr PANEL_CURSOR.forceoff_cursor
          0x0077c78c      42390086eb1e   clr.b 0x86eb1e
      > 0x0077c792      4cdf1f03       movem.l (a7)+, d0-d1/a0-a4
           0x0077c796      4e5e           unlk a6
           0x0077c798      4e75           rts
            ; CALL XREF from PANEL_STACK.do_take @ 0x77cd78
            ; CALL XREF from PANEL_STACK.do_clear_stack @ 0x77f132
 270: PANEL_STACK.clear_current_s ();
           0x0077c79a      4e56fdd2       link.w a6, 0xfdd2
           0x0077c79e      bfd5           cmpa.l (a5), a7
       < 0x0077c7a0      6206           bhi.b 0x77c7a8
          0x0077c7a2      44fc0002       move.w 0x2, ccr
          0x0077c7a6      4e76           trapv
       > 0x0077c7a8      defc012a       adda.w 0x12a, a7
           0x0077c7ac      48e7d9f0       movem.l d0-d1/d3-d4/d7/a0-a3, -(a7)
           0x0077c7b0      45f90086eb32   lea.l 0x86eb32, a2
           0x0077c7b6      47eeff00       lea.l -0x100(a6), a3
           0x0077c7ba      7201           moveq 0x1, d1
           0x0077c7bc      4eb90078ddba   jsr PANEL_PREFETCH.unfetch_clip
           0x0077c7c2      4239008713cd   clr.b 0x8713cd
       > 0x0077c7c8      2052           movea.l (a2), a0
          0x0077c7ca      b1e8fffc       cmpa.l -0x4(a0), a0
      < 0x0077c7ce      6702           beq.b 0x77c7d2
         0x0077c7d0      4e4d           trap 0xd
      > 0x0077c7d2      2050           movea.l (a0), a0
          0x0077c7d4      b0c1           cmpa.w d1, a0
      < 0x0077c7d6      6706           beq.b 0x77c7de
         0x0077c7d8      4ebae46c       jsr PANEL_STACK.pull_stack(pc)
      < 0x0077c7dc      60ea           bra.b 0x77c7c8
      > 0x0077c7de      7e9c           moveq 0x9c, d7
       > 0x0077c7e0      2007           move.l d7, d0
          0x0077c7e2      0480ffffff9c   subi.l 0xffffff9c, d0
          0x0077c7e8      0c80000000c7   cmpi.l 0xc7, d0
      < 0x0077c7ee      6302           bls.b 0x77c7f2
         0x0077c7f0      4e4f           trap 0xf
      > 0x0077c7f2      2800           move.l d0, d4
          0x0077c7f4      7636           moveq 0x36, d3
          0x0077c7f6      4eb900406a74   jsr fcn.00406a74
          0x0077c7fc      2052           movea.l (a2), a0
          0x0077c7fe      b1e8fffc       cmpa.l -0x4(a0), a0
      < 0x0077c802      6702           beq.b 0x77c806
         0x0077c804      4e4d           trap 0xd
      > 0x0077c806      41f0480a       lea.l 0xa(a0, d4.l), a0
          0x0077c80a      43f900870fcc   lea.l 0x870fcc, a1
          0x0077c810      7034           moveq 0x34, d0
      > 0x0077c812      10d9           move.b (a1)+, (a0)+
      < 0x0077c814      51c8fffc       dbra d0, 0x77c812
          0x0077c818      5287           addq.l 0x1, d7
          0x0077c81a      0c8700000063   cmpi.l 0x63, d7
       < 0x0077c820      6fbe           ble.b 0x77c7e0
           0x0077c822      4a2e0008       tst.b 0x8(a6)
       < 0x0077c826      6714           beq.b 0x77c83c
          0x0077c828      2052           movea.l (a2), a0
          0x0077c82a      b1e8fffc       cmpa.l -0x4(a0), a0
      < 0x0077c82e      6702           beq.b 0x77c832
         0x0077c830      4e4d           trap 0xd
      > 0x0077c832      21410006       move.l d1, 0x6(a0)
          0x0077c836      23c100871010   move.l d1, 0x871010
       > 0x0077c83c      48780000       pea.l 0x0
           0x0077c840      4eb90078e24e   jsr PANEL_PREFETCH.wipe_prefetch
           0x0077c846      584f           addq.w 0x4, a7
           0x0077c848      16bab76c       move.b 0x777fb6(pc), (a3)
           0x0077c84c      41f90086ed42   lea.l 0x86ed42, a0
           0x0077c852      224b           movea.l a3, a1
           0x0077c854      703f           moveq 0x3f, d0
       > 0x0077c856      20d9           move.l (a1)+, (a0)+
       < 0x0077c858      51c8fffc       dbra d0, 0x77c856
           0x0077c85c      41f90086f342   lea.l 0x86f342, a0
           0x0077c862      224b           movea.l a3, a1
           0x0077c864      703f           moveq 0x3f, d0
       > 0x0077c866      20d9           move.l (a1)+, (a0)+
       < 0x0077c868      51c8fffc       dbra d0, 0x77c866
           0x0077c86c      4a2e000a       tst.b 0xa(a6)
       < 0x0077c870      672e           beq.b 0x77c8a0
          0x0077c872      9efc0100       suba.w 0x100, a7
          0x0077c876      204f           movea.l a7, a0
          0x0077c878      224b           movea.l a3, a1
          0x0077c87a      703f           moveq 0x3f, d0
      > 0x0077c87c      20d9           move.l (a1)+, (a0)+
      < 0x0077c87e      51c8fffc       dbra d0, 0x77c87c
          0x0077c882      4227           clr.b -(a7)
          0x0077c884      4ebad166       jsr PANEL_STACK.set_output(pc)
          0x0077c888      544f           addq.w 0x2, a7
          0x0077c88a      204f           movea.l a7, a0
          0x0077c88c      224b           movea.l a3, a1
          0x0077c88e      703f           moveq 0x3f, d0
      > 0x0077c890      20d9           move.l (a1)+, (a0)+
      < 0x0077c892      51c8fffc       dbra d0, 0x77c890
          0x0077c896      4227           clr.b -(a7)
          0x0077c898      4ebad104       jsr PANEL_STACK.set_next_on_air(pc)
          0x0077c89c      defc0102       adda.w 0x102, a7
       > 0x0077c8a0      4cdf0f9b       movem.l (a7)+, d0-d1/d3-d4/d7/a0-a3
           0x0077c8a4      4e5e           unlk a6
           0x0077c8a6      4e75           rts
            ; CALL XREF from PANEL_STACK.take_next_item @ 0x77cd1c
 216: PANEL_STACK.increment_seque ();
           0x0077c8a8      4e56ffa2       link.w a6, 0xffa2
           0x0077c8ac      bfd5           cmpa.l (a5), a7
       < 0x0077c8ae      6206           bhi.b 0x77c8b6
          0x0077c8b0      44fc0002       move.w 0x2, ccr
          0x0077c8b4      4e76           trapv
       > 0x0077c8b6      defc005e       adda.w 0x5e, a7
           0x0077c8ba      48e7e0f8       movem.l d0-d2/a0-a4, -(a7)
           0x0077c8be      47f900871010   lea.l 0x871010, a3
           0x0077c8c4      49f90086eb1a   lea.l 0x86eb1a, a4
           0x0077c8ca      7238           moveq 0x38, d1
           0x0077c8cc      7410           moveq 0x10, d2
           0x0077c8ce      9ec1           suba.w d1, a7
           0x0077c8d0      204f           movea.l a7, a0
           0x0077c8d2      43ee000a       lea.l 0xa(a6), a1
           0x0077c8d6      700c           moveq 0xc, d0
       > 0x0077c8d8      20d9           move.l (a1)+, (a0)+
       < 0x0077c8da      51c8fffc       dbra d0, 0x77c8d8
           0x0077c8de      10d9           move.b (a1)+, (a0)+
           0x0077c8e0      1f2e0008       move.b 0x8(a6), -(a7)
           0x0077c8e4      4ebaf2ce       jsr PANEL_STACK.use_panel_count(pc)
           0x0077c8e8      dec1           adda.w d1, a7
           0x0077c8ea      4a1f           tst.b (a7)+
       < 0x0077c8ec      6734           beq.b 0x77c922
          0x0077c8ee      594f           subq.w 0x4, a7
          0x0077c8f0      2f13           move.l (a3), -(a7)
          0x0077c8f2      48780001       pea.l 0x1
          0x0077c8f6      514f           subq.w 0x8, a7
          0x0077c8f8      204f           movea.l a7, a0
          0x0077c8fa      43f900871007   lea.l 0x871007, a1
          0x0077c900      7007           moveq 0x7, d0
      > 0x0077c902      10d9           move.b (a1)+, (a0)+
      < 0x0077c904      51c8fffc       dbra d0, 0x77c902
          0x0077c908      4eb9006b9034   jsr USER1_UTILS.next_seq_num
          0x0077c90e      dec2           adda.w d2, a7
          0x0077c910      269f           move.l (a7)+, (a3)
          0x0077c912      4a14           tst.b (a4)
      < 0x0077c914      6762           beq.b 0x77c978
         0x0077c916      487ab6a0       pea.l 0x777fb8(pc)
         0x0077c91a      48780020       pea.l 0x20
         0x0077c91e      2f17           move.l (a7), -(a7)
     < 0x0077c920      6046           bra.b 0x77c968
     > 0x0077c922      20790086eb32   movea.l 0x86eb32, a0
         0x0077c928      b1e8fffc       cmpa.l -0x4(a0), a0
     < 0x0077c92c      6702           beq.b 0x77c930
        0x0077c92e      4e4d           trap 0xd
     > 0x0077c930      594f           subq.w 0x4, a7
         0x0077c932      2f280006       move.l 0x6(a0), -(a7)
         0x0077c936      48780001       pea.l 0x1
         0x0077c93a      514f           subq.w 0x8, a7
         0x0077c93c      224f           movea.l a7, a1
         0x0077c93e      45e81529       lea.l 0x1529(a0), a2
         0x0077c942      7007           moveq 0x7, d0
     > 0x0077c944      12da           move.b (a2)+, (a1)+
     < 0x0077c946      51c8fffc       dbra d0, 0x77c944
         0x0077c94a      4eb9006b9034   jsr USER1_UTILS.next_seq_num
         0x0077c950      dec2           adda.w d2, a7
         0x0077c952      215f0006       move.l (a7)+, 0x6(a0)
         0x0077c956      26a80006       move.l 0x6(a0), (a3)
         0x0077c95a      4a14           tst.b (a4)
     < 0x0077c95c      671a           beq.b 0x77c978
        0x0077c95e      487ab679       pea.l 0x777fd9(pc)
        0x0077c962      48780028       pea.l 0x28
        0x0077c966      2f17           move.l (a7), -(a7)
     > 0x0077c968      4eb9004047ea   jsr p_wts_o
         0x0077c96e      defc000c       adda.w 0xc, a7
         0x0077c972      4eb900404946   jsr p_wtln_o
      > 0x0077c978      4cdf1f07       movem.l (a7)+, d0-d2/a0-a4
           0x0077c97c      4e5e           unlk a6
           0x0077c97e      4e75           rts
            ; CALL XREF from PANEL_STACK.do_take @ 0x77d014
            ; CALL XREFS from PANEL_STACK.do_clear_take @ 0x685a, 0x77e0e4
            ; CALL XREF from PANEL_STACK.update_stack @ 0x77fbbc
            ; CALL XREF from PANEL_STACK.do_clear_window @ 0x7807cc
 408: PANEL_STACK.prefetch_early ();
           0x0077c980      4e56ff52       link.w a6, 0xff52
           0x0077c984      bfd5           cmpa.l (a5), a7
       < 0x0077c986      6206           bhi.b 0x77c98e
          0x0077c988      44fc0002       move.w 0x2, ccr
          0x0077c98c      4e76           trapv
       > 0x0077c98e      defc0034       adda.w 0x34, a7
           0x0077c992      48e7f0f8       movem.l d0-d3/a0-a4, -(a7)
           0x0077c996      47f9008713ce   lea.l 0x8713ce, a3
           0x0077c99c      49f9004047ea   lea.l p_wts_o, a4
           0x0077c9a2      740c           moveq 0xc, d2
           0x0077c9a4      7606           moveq 0x6, d3
           0x0077c9a6      20790086eb32   movea.l 0x86eb32, a0
           0x0077c9ac      b1e8fffc       cmpa.l -0x4(a0), a0
       < 0x0077c9b0      6702           beq.b 0x77c9b4
          0x0077c9b2      4e4d           trap 0xd
       > 0x0077c9b4      43eeff86       lea.l -0x7a(a6), a1
           0x0077c9b8      45e81522       lea.l 0x1522(a0), a2
           0x0077c9bc      7034           moveq 0x34, d0
       > 0x0077c9be      12da           move.b (a2)+, (a1)+
       < 0x0077c9c0      51c8fffc       dbra d0, 0x77c9be
           0x0077c9c4      43eeffbc       lea.l -0x44(a6), a1
           0x0077c9c8      41e81558       lea.l 0x1558(a0), a0
           0x0077c9cc      7034           moveq 0x34, d0
       > 0x0077c9ce      12d8           move.b (a0)+, (a1)+
       < 0x0077c9d0      51c8fffc       dbra d0, 0x77c9ce
           0x0077c9d4      4a390086eb1a   tst.b 0x86eb1a
       < 0x0077c9da      674a           beq.b 0x77ca26
          0x0077c9dc      487ab624       pea.l 0x778002(pc)
          0x0077c9e0      4878001e       pea.l 0x1e
          0x0077c9e4      2f17           move.l (a7), -(a7)
          0x0077c9e6      4e94           jsr (a4)                    ; fcn.0000000d
          0x0077c9e8      dec2           adda.w d2, a7
          0x0077c9ea      4280           clr.l d0
          0x0077c9ec      302eff86       move.w -0x7a(a6), d0
          0x0077c9f0      2f00           move.l d0, -(a7)
          0x0077c9f2      48780000       pea.l 0x0
          0x0077c9f6      4eb9004070e4   jsr p_wti_o
          0x0077c9fc      504f           addq.w 0x8, a7
          0x0077c9fe      487ab621       pea.l 0x778021(pc)
          0x0077ca02      48780006       pea.l 0x6
          0x0077ca06      2f17           move.l (a7), -(a7)
          0x0077ca08      4e94           jsr (a4)                    ; fcn.0000000d
          0x0077ca0a      dec2           adda.w d2, a7
          0x0077ca0c      4280           clr.l d0
          0x0077ca0e      302effbc       move.w -0x44(a6), d0
          0x0077ca12      2f00           move.l d0, -(a7)
          0x0077ca14      48780000       pea.l 0x0
          0x0077ca18      4eb9004070e4   jsr p_wti_o
          0x0077ca1e      504f           addq.w 0x8, a7
          0x0077ca20      4eb900404946   jsr p_wtln_o
       > 0x0077ca26      4213           clr.b (a3)
           0x0077ca28      102effaa       move.b -0x56(a6), d0
           0x0077ca2c      b003           cmp.b d3, d0
       < 0x0077ca2e      663e           bne.b 0x77ca6e
          0x0077ca30      102effe0       move.b -0x20(a6), d0
          0x0077ca34      4880           ext.w d0
          0x0077ca36      41fab5f0       lea.l 0x778028(pc), a0
          0x0077ca3a      3200           move.w d0, d1
          0x0077ca3c      e649           lsr.w 0x3, d1
          0x0077ca3e      01301000       btst.l d0, (a0, d1.w)
      < 0x0077ca42      672a           beq.b 0x77ca6e
         0x0077ca44      4a2eff88       tst.b -0x78(a6)
     < 0x0077ca48      6624           bne.b 0x77ca6e
        0x0077ca4a      594f           subq.w 0x4, a7
        0x0077ca4c      48780001       pea.l 0x1
        0x0077ca50      4eb90078c28a   jsr PANEL_PREFETCH.pf_clip_length
        0x0077ca56      584f           addq.w 0x4, a7
        0x0077ca58      302eff8a       move.w -0x76(a6), d0
        0x0077ca5c      48c0           ext.l d0
        0x0077ca5e      4480           neg.l d0
        0x0077ca60      d09f           add.l (a7)+, d0
        0x0077ca62      0c8000000008   cmpi.l 0x8, d0
    < 0x0077ca68      6f04           ble.b 0x77ca6e
       0x0077ca6a      16bc0001       move.b 0x1, (a3)
    > 0x0077ca6e      4a39008713cd   tst.b 0x8713cd
       < 0x0077ca74      6710           beq.b 0x77ca86
          0x0077ca76      4a13           tst.b (a3)
      < 0x0077ca78      660c           bne.b 0x77ca86
         0x0077ca7a      4eb90078ddba   jsr PANEL_PREFETCH.unfetch_clip
         0x0077ca80      4239008713cd   clr.b 0x8713cd
      > 0x0077ca86      102effe0       move.b -0x20(a6), d0
           0x0077ca8a      4880           ext.w d0
           0x0077ca8c      41fab59c       lea.l 0x77802a(pc), a0
           0x0077ca90      3200           move.w d0, d1
           0x0077ca92      e649           lsr.w 0x3, d1
           0x0077ca94      01301000       btst.l d0, (a0, d1.w)
       < 0x0077ca98      6708           beq.b 0x77caa2
          0x0077ca9a      13d3008713cd   move.b (a3), 0x8713cd
      < 0x0077caa0      600e           bra.b 0x77cab0
      > 0x0077caa2      b003           cmp.b d3, d0
      < 0x0077caa4      660a           bne.b 0x77cab0
         0x0077caa6      4227           clr.b -(a7)
         0x0077caa8      4eb90040452a   jsr p_Assert
         0x0077caae      544f           addq.w 0x2, a7
      > 0x0077cab0      4a390086eb1a   tst.b 0x86eb1a
       < 0x0077cab6      6758           beq.b 0x77cb10
          0x0077cab8      487ab573       pea.l 0x77802d(pc)
          0x0077cabc      48780008       pea.l 0x8
          0x0077cac0      2f17           move.l (a7), -(a7)
          0x0077cac2      4e94           jsr (a4)                    ; fcn.0000000d
          0x0077cac4      dec2           adda.w d2, a7
          0x0077cac6      4a13           tst.b (a3)
      < 0x0077cac8      660e           bne.b 0x77cad8
         0x0077caca      487ab56a       pea.l 0x778036(pc)
         0x0077cace      48780004       pea.l 0x4
         0x0077cad2      2f17           move.l (a7), -(a7)
         0x0077cad4      4e94           jsr (a4)                    ; fcn.0000000d
         0x0077cad6      dec2           adda.w d2, a7
      > 0x0077cad8      487ab561       pea.l 0x77803b(pc)
          0x0077cadc      4878000e       pea.l 0xe
          0x0077cae0      2f17           move.l (a7), -(a7)
          0x0077cae2      4e94           jsr (a4)                    ; fcn.0000000d
          0x0077cae4      dec2           adda.w d2, a7
          0x0077cae6      4a39008713cd   tst.b 0x8713cd
      < 0x0077caec      660e           bne.b 0x77cafc
         0x0077caee      487ab55a       pea.l 0x77804a(pc)
         0x0077caf2      48780004       pea.l 0x4
         0x0077caf6      2f17           move.l (a7), -(a7)
         0x0077caf8      4e94           jsr (a4)                    ; fcn.0000000d
         0x0077cafa      dec2           adda.w d2, a7
      > 0x0077cafc      487ab551       pea.l 0x77804f(pc)
          0x0077cb00      48780008       pea.l 0x8
          0x0077cb04      2f17           move.l (a7), -(a7)
          0x0077cb06      4e94           jsr (a4)                    ; fcn.0000000d
          0x0077cb08      dec2           adda.w d2, a7
          0x0077cb0a      4eb900404946   jsr p_wtln_o
       > 0x0077cb10      4cdf1f0f       movem.l (a7)+, d0-d3/a0-a4
           0x0077cb14      4e5e           unlk a6
           0x0077cb16      4e75           rts
            ; CALL XREFS from PANEL_STACK.take_next_item @ 0x77cbb2, 0x77cc6e
            ; CALL XREF from PANEL_STACK @ +0x673c
 64: PANEL_STACK.alternate_mode ();
           0x0077cb18      4e56fff2       link.w a6, 0xfff2
           0x0077cb1c      bfd5           cmpa.l (a5), a7
       < 0x0077cb1e      6206           bhi.b 0x77cb26
          0x0077cb20      44fc0002       move.w 0x2, ccr
          0x0077cb24      4e76           trapv
       > 0x0077cb26      defc000e       adda.w 0xe, a7
           0x0077cb2a      48e7c000       movem.l d0-d1, -(a7)
           0x0077cb2e      7201           moveq 0x1, d1
           0x0077cb30      422e003e       clr.b 0x3e(a6)
           0x0077cb34      102e000a       move.b 0xa(a6), d0
           0x0077cb38      b001           cmp.b d1, d0
       < 0x0077cb3a      6710           beq.b 0x77cb4c
          0x0077cb3c      0c000002       cmpi.b 0x2, d0
      < 0x0077cb40      660e           bne.b 0x77cb50
         0x0077cb42      103900871014   move.b 0x871014, d0
         0x0077cb48      b001           cmp.b d1, d0
     < 0x0077cb4a      6604           bne.b 0x77cb50
     > 0x0077cb4c      522e003e       addq.b 0x1, 0x3e(a6)
     > 0x0077cb50      4cdf0003       movem.l (a7)+, d0-d1
           0x0077cb54      4e5e           unlk a6
           0x0077cb56      4e75           rts
 466: PANEL_STACK.take_next_item ();
           0x0077cb58      4e56ff98       link.w a6, 0xff98
           0x0077cb5c      bfd5           cmpa.l (a5), a7
       < 0x0077cb5e      6206           bhi.b 0x77cb66
          0x0077cb60      44fc0002       move.w 0x2, ccr
          0x0077cb64      4e76           trapv
       > 0x0077cb66      defc0068       adda.w 0x68, a7
           0x0077cb6a      48e7fcf0       movem.l d0-d5/a0-a3, -(a7)
           0x0077cb6e      47f9004047ea   lea.l p_wts_o, a3
           0x0077cb74      7436           moveq 0x36, d2
           0x0077cb76      760a           moveq 0xa, d3
           0x0077cb78      780c           moveq 0xc, d4
           0x0077cb7a      7a38           moveq 0x38, d5
           0x0077cb7c      4a390086eb1a   tst.b 0x86eb1a
       < 0x0077cb82      670000cc       beq.w 0x77cc50
          0x0077cb86      20790086eb32   movea.l 0x86eb32, a0
          0x0077cb8c      b1e8fffc       cmpa.l -0x4(a0), a0
      < 0x0077cb90      6702           beq.b 0x77cb94
         0x0077cb92      4e4d           trap 0xd
      > 0x0077cb94      487ab4c2       pea.l 0x778058(pc)
          0x0077cb98      48780014       pea.l 0x14
          0x0077cb9c      2f17           move.l (a7), -(a7)
          0x0077cb9e      4e93           jsr (a3)                    ; fcn.0000000c
          0x0077cba0      9efc002c       suba.w 0x2c, a7
          0x0077cba4      224f           movea.l a7, a1
          0x0077cba6      45e81558       lea.l 0x1558(a0), a2
          0x0077cbaa      7034           moveq 0x34, d0
      > 0x0077cbac      12da           move.b (a2)+, (a1)+
      < 0x0077cbae      51c8fffc       dbra d0, 0x77cbac
          0x0077cbb2      4ebaff64       jsr PANEL_STACK.alternate_mode(pc)
          0x0077cbb6      dec2           adda.w d2, a7
          0x0077cbb8      48780005       pea.l 0x5
          0x0077cbbc      4eb90040718c   jsr p_wtb_o
          0x0077cbc2      5c4f           addq.w 0x6, a7
          0x0077cbc4      4eb900404946   jsr p_wtln_o
          0x0077cbca      487ab4a1       pea.l 0x77806d(pc)
          0x0077cbce      4878000b       pea.l 0xb
          0x0077cbd2      2f17           move.l (a7), -(a7)
          0x0077cbd4      4e93           jsr (a3)                    ; fcn.0000000c
          0x0077cbd6      dec3           adda.w d3, a7
          0x0077cbd8      4217           clr.b (a7)
          0x0077cbda      1028157c       move.b 0x157c(a0), d0
          0x0077cbde      4880           ext.w d0
          0x0077cbe0      3200           move.w d0, d1
          0x0077cbe2      e649           lsr.w 0x3, d1
          0x0077cbe4      0136100c       btst.l d0, 0xc(a6, d1.w)
      < 0x0077cbe8      6702           beq.b 0x77cbec
         0x0077cbea      5217           addq.b 0x1, (a7)
      > 0x0077cbec      48780005       pea.l 0x5
          0x0077cbf0      4eb90040718c   jsr p_wtb_o
          0x0077cbf6      5c4f           addq.w 0x6, a7
          0x0077cbf8      487ab47f       pea.l 0x778079(pc)
          0x0077cbfc      48780004       pea.l 0x4
          0x0077cc00      2f17           move.l (a7), -(a7)
          0x0077cc02      4e93           jsr (a3)                    ; fcn.0000000c
          0x0077cc04      dec3           adda.w d3, a7
          0x0077cc06      4217           clr.b (a7)
          0x0077cc08      1028157c       move.b 0x157c(a0), d0
          0x0077cc0c      4880           ext.w d0
          0x0077cc0e      3200           move.w d0, d1
          0x0077cc10      e649           lsr.w 0x3, d1
          0x0077cc12      0136100a       btst.l d0, 0xa(a6, d1.w)
      < 0x0077cc16      6702           beq.b 0x77cc1a
         0x0077cc18      5217           addq.b 0x1, (a7)
      > 0x0077cc1a      48780005       pea.l 0x5
          0x0077cc1e      4eb90040718c   jsr p_wtb_o
          0x0077cc24      5c4f           addq.w 0x6, a7
          0x0077cc26      4eb900404946   jsr p_wtln_o
          0x0077cc2c      487ab450       pea.l 0x77807e(pc)
          0x0077cc30      4878000a       pea.l 0xa
          0x0077cc34      2f17           move.l (a7), -(a7)
          0x0077cc36      4e93           jsr (a3)                    ; fcn.0000000c
          0x0077cc38      dec3           adda.w d3, a7
          0x0077cc3a      1eae0008       move.b 0x8(a6), (a7)
          0x0077cc3e      48780005       pea.l 0x5
          0x0077cc42      4eb90040718c   jsr p_wtb_o
          0x0077cc48      5c4f           addq.w 0x6, a7
          0x0077cc4a      4eb900404946   jsr p_wtln_o
       > 0x0077cc50      20790086eb32   movea.l 0x86eb32, a0
           0x0077cc56      b1e8fffc       cmpa.l -0x4(a0), a0
       < 0x0077cc5a      6702           beq.b 0x77cc5e
          0x0077cc5c      4e4d           trap 0xd
       > 0x0077cc5e      9ec5           suba.w d5, a7
           0x0077cc60      224f           movea.l a7, a1
           0x0077cc62      45e81558       lea.l 0x1558(a0), a2
           0x0077cc66      7034           moveq 0x34, d0
       > 0x0077cc68      12da           move.b (a2)+, (a1)+
       < 0x0077cc6a      51c8fffc       dbra d0, 0x77cc68
           0x0077cc6e      4ebafea8       jsr PANEL_STACK.alternate_mode(pc)
           0x0077cc72      dec2           adda.w d2, a7
           0x0077cc74      4a1f           tst.b (a7)+
       < 0x0077cc76      674a           beq.b 0x77ccc2
          0x0077cc78      1028157c       move.b 0x157c(a0), d0
          0x0077cc7c      4880           ext.w d0
          0x0077cc7e      3200           move.w d0, d1
          0x0077cc80      e649           lsr.w 0x3, d1
          0x0077cc82      0136100c       btst.l d0, 0xc(a6, d1.w)
      < 0x0077cc86      6616           bne.b 0x77cc9e
         0x0077cc88      1028157c       move.b 0x157c(a0), d0
         0x0077cc8c      4880           ext.w d0
         0x0077cc8e      3200           move.w d0, d1
         0x0077cc90      e649           lsr.w 0x3, d1
         0x0077cc92      0136100a       btst.l d0, 0xa(a6, d1.w)
     < 0x0077cc96      672a           beq.b 0x77ccc2
        0x0077cc98      4a2e0008       tst.b 0x8(a6)
    < 0x0077cc9c      6724           beq.b 0x77ccc2
    > 0x0077cc9e      1d7c0001000e   move.b 0x1, 0xe(a6)
        0x0077cca4      4a390086eb1a   tst.b 0x86eb1a
    < 0x0077ccaa      6776           beq.b 0x77cd22
       0x0077ccac      487ab3db       pea.l 0x778089(pc)
       0x0077ccb0      48780037       pea.l 0x37
       0x0077ccb4      2f17           move.l (a7), -(a7)
       0x0077ccb6      4e93           jsr (a3)                    ; fcn.0000000c
       0x0077ccb8      dec4           adda.w d4, a7
       0x0077ccba      4eb900404946   jsr p_wtln_o
   < 0x0077ccc0      6060           bra.b 0x77cd22
   > 0x0077ccc2      4a390086eb1a   tst.b 0x86eb1a
     < 0x0077ccc8      673a           beq.b 0x77cd04
        0x0077ccca      487ab3f5       pea.l 0x7780c1(pc)
        0x0077ccce      48780024       pea.l 0x24
        0x0077ccd2      2f17           move.l (a7), -(a7)
        0x0077ccd4      4e93           jsr (a3)                    ; fcn.0000000c
        0x0077ccd6      dec4           adda.w d4, a7
        0x0077ccd8      30281558       move.w 0x1558(a0), d0
        0x0077ccdc      02800000ffff   andi.l 0xffff, d0
        0x0077cce2      2f00           move.l d0, -(a7)
        0x0077cce4      48780000       pea.l 0x0
        0x0077cce8      4eb9004070e4   jsr p_wti_o
        0x0077ccee      504f           addq.w 0x8, a7
        0x0077ccf0      487ab3f4       pea.l 0x7780e6(pc)
        0x0077ccf4      48780019       pea.l 0x19
        0x0077ccf8      2f17           move.l (a7), -(a7)
        0x0077ccfa      4e93           jsr (a3)                    ; fcn.0000000c
        0x0077ccfc      dec4           adda.w d4, a7
        0x0077ccfe      4eb900404946   jsr p_wtln_o
     > 0x0077cd04      422e000e       clr.b 0xe(a6)
         0x0077cd08      9ec2           suba.w d2, a7
         0x0077cd0a      224f           movea.l a7, a1
         0x0077cd0c      45e81522       lea.l 0x1522(a0), a2
         0x0077cd10      7034           moveq 0x34, d0
     > 0x0077cd12      12da           move.b (a2)+, (a1)+
     < 0x0077cd14      51c8fffc       dbra d0, 0x77cd12
         0x0077cd18      1f2c02f6       move.b 0x2f6(a4), -(a7)
         0x0077cd1c      4ebafb8a       jsr PANEL_STACK.increment_seque(pc)
         0x0077cd20      dec5           adda.w d5, a7
   > 0x0077cd22      4cdf0f3f       movem.l (a7)+, d0-d5/a0-a3
           0x0077cd26      4e5e           unlk a6
           0x0077cd28      4e75           rts
            ; CALL XREF from PANEL.hit_take @ 0x774aa2
 806: PANEL_STACK.do_take ();
           ; var int32_t var_5726h @ a6-0x5726
           ; var int32_t var_5724h @ a6-0x5724
           ; var int32_t var_5722h @ a6-0x5722
           ; var int32_t var_8h @ a7+0x8
           0x0077cd2a      4e56faca       link.w a6, 0xfaca
           0x0077cd2e      bfd5           cmpa.l (a5), a7
       < 0x0077cd30      6206           bhi.b 0x77cd38
          0x0077cd32      44fc0002       move.w 0x2, ccr
          0x0077cd36      4e76           trapv
       > 0x0077cd38      defc024c       adda.w 0x24c, a7
           0x0077cd3c      48e7fff8       movem.l d0-d7/a0-a4, -(a7)
           0x0077cd40      47f90086eb1a   lea.l 0x86eb1a, a3
           0x0077cd46      7a0c           moveq 0xc, d5
           0x0077cd48      7c00           moveq 0x0, d6
           0x0077cd4a      1d7c00010010   move.b 0x1, 0x10(a6)
           0x0077cd50      554f           subq.w 0x2, a7
           0x0077cd52      486efd98       pea.l -0x268(a6)
           0x0077cd56      4eb900404434   jsr fcn.00404434
           0x0077cd5c      584f           addq.w 0x4, a7
           0x0077cd5e      4a1f           tst.b (a7)+
       < 0x0077cd60      670011ae       beq.w 0x77df10
          0x0077cd64      4227           clr.b -(a7)
          0x0077cd66      4ebae1aa       jsr PANEL_STACK.get_frozen(pc)
          0x0077cd6a      544f           addq.w 0x2, a7
          0x0077cd6c      4a2e000e       tst.b 0xe(a6)
      < 0x0077cd70      67000108       beq.w 0x77ce7a
         0x0077cd74      4227           clr.b -(a7)
         0x0077cd76      4227           clr.b -(a7)
         0x0077cd78      4ebafa20       jsr PANEL_STACK.clear_current_s(pc)
         0x0077cd7c      584f           addq.w 0x4, a7
         0x0077cd7e      4a2e000c       tst.b 0xc(a6)
     < 0x0077cd82      660000e4       bne.w 0x77ce68
        0x0077cd86      4a13           tst.b (a3)
    < 0x0077cd88      6732           beq.b 0x77cdbc
       0x0077cd8a      487ab374       pea.l 0x778100(pc)
       0x0077cd8e      4878001f       pea.l 0x1f
       0x0077cd92      2f17           move.l (a7), -(a7)
       0x0077cd94      4eb9004047ea   jsr p_wts_o
       0x0077cd9a      dec5           adda.w d5, a7
       0x0077cd9c      30390086eb2e   move.w 0x86eb2e, d0
       0x0077cda2      02800000ffff   andi.l 0xffff, d0
       0x0077cda8      2f00           move.l d0, -(a7)
       0x0077cdaa      48780000       pea.l 0x0
       0x0077cdae      4eb9004070e4   jsr p_wti_o
       0x0077cdb4      504f           addq.w 0x8, a7
       0x0077cdb6      4eb900404946   jsr p_wtln_o
    > 0x0077cdbc      2d7aa8deffec   move.l 0x77769c(pc), -0x14(a6)
        0x0077cdc2      2d7aa8dcfff0   move.l 0x7776a0(pc), -0x10(a6)
        0x0077cdc8      3d7aa8dafff4   move.w 0x7776a4(pc), -0xc(a6)
        0x0077cdce      554f           subq.w 0x2, a7
        0x0077cdd0      4227           clr.b -(a7)
        0x0077cdd2      48790086eb2e   pea.l 0x86eb2e
        0x0077cdd8      4227           clr.b -(a7)
        0x0077cdda      2f3900871016   move.l 0x871016, -(a7)
        0x0077cde0      486effec       pea.l -0x14(a6)
        0x0077cde4      4eb9006b05ba   jsr USER.get_snum
        0x0077cdea      defc0010       adda.w 0x10, a7
        0x0077cdee      4a1f           tst.b (a7)+
    < 0x0077cdf0      674e           beq.b 0x77ce40
       0x0077cdf2      4a13           tst.b (a3)
   < 0x0077cdf4      6732           beq.b 0x77ce28
      0x0077cdf6      487ab328       pea.l 0x778120(pc)
      0x0077cdfa      4878000b       pea.l 0xb
      0x0077cdfe      2f17           move.l (a7), -(a7)
      0x0077ce00      4eb9004047ea   jsr p_wts_o
      0x0077ce06      dec5           adda.w d5, a7
      0x0077ce08      30390086eb2e   move.w 0x86eb2e, d0
      0x0077ce0e      02800000ffff   andi.l 0xffff, d0
      0x0077ce14      2f00           move.l d0, -(a7)
      0x0077ce16      48780000       pea.l 0x0
      0x0077ce1a      4eb9004070e4   jsr p_wti_o
      0x0077ce20      504f           addq.w 0x8, a7
      0x0077ce22      4eb900404946   jsr p_wtln_o
   > 0x0077ce28      1d7c0001000c   move.b 0x1, 0xc(a6)
       0x0077ce2e      30390086eb2e   move.w 0x86eb2e, d0
       0x0077ce34      02800000ffff   andi.l 0xffff, d0
       0x0077ce3a      2d400008       move.l d0, 0x8(a6)
   < 0x0077ce3e      6028           bra.b 0x77ce68
   > 0x0077ce40      4a13           tst.b (a3)
   < 0x0077ce42      6718           beq.b 0x77ce5c
      0x0077ce44      487ab2e6       pea.l 0x77812c(pc)
      0x0077ce48      48780014       pea.l 0x14
      0x0077ce4c      2f17           move.l (a7), -(a7)
      0x0077ce4e      4eb9004047ea   jsr p_wts_o
      0x0077ce54      dec5           adda.w d5, a7
      0x0077ce56      4eb900404946   jsr p_wtln_o
   > 0x0077ce5c      486efd98       pea.l -0x268(a6)
       0x0077ce60      4eb900404468   jsr fcn.00404468
       0x0077ce66      584f           addq.w 0x4, a7
   > 0x0077ce68      10390086f67c   move.b 0x86f67c, d0
         0x0077ce6e      0c000001       cmpi.b 0x1, d0
     < 0x0077ce72      6706           beq.b 0x77ce7a
        0x0077ce74      4eb900794cc2   jsr PANEL_VIDEO.copy_back
     > 0x0077ce7a      4a2e000c       tst.b 0xc(a6)
      < 0x0077ce7e      67000174       beq.w 0x77cff4
         0x0077ce82      20790086eb32   movea.l 0x86eb32, a0
         0x0077ce88      b1e8fffc       cmpa.l -0x4(a0), a0
     < 0x0077ce8c      6702           beq.b 0x77ce90
        0x0077ce8e      4e4d           trap 0xd
     > 0x0077ce90      4eb90078ddba   jsr PANEL_PREFETCH.unfetch_clip
         0x0077ce96      4239008713cd   clr.b 0x8713cd
         0x0077ce9c      48780000       pea.l 0x0
         0x0077cea0      1f3c0001       move.b 0x1, -(a7)
         0x0077cea4      4227           clr.b -(a7)
         0x0077cea6      4ebad692       jsr PANEL_STACK.ripple_stack(pc)
         0x0077ceaa      504f           addq.w 0x8, a7
         0x0077ceac      202e0008       move.l 0x8(a6), d0
         0x0077ceb0      0c800000ffff   cmpi.l 0xffff, d0
     < 0x0077ceb6      6302           bls.b 0x77ceba
        0x0077ceb8      4e4f           trap 0xf
     > 0x0077ceba      31401522       move.w d0, 0x1522(a0)
         0x0077cebe      4a2e000e       tst.b 0xe(a6)
     < 0x0077cec2      6708           beq.b 0x77cecc
        0x0077cec4      117c00021546   move.b 0x2, 0x1546(a0)
    < 0x0077ceca      6020           bra.b 0x77ceec
    > 0x0077cecc      554f           subq.w 0x2, a7
        0x0077cece      2f2e0008       move.l 0x8(a6), -(a7)
        0x0077ced2      2f3900871016   move.l 0x871016, -(a7)
        0x0077ced8      4eb900784b94   jsr PANEL_UTILS.item_ntype
        0x0077cede      504f           addq.w 0x8, a7
        0x0077cee0      101f           move.b (a7)+, d0
        0x0077cee2      4880           ext.w d0
        0x0077cee4      41bc000f       chk.w 0xf, d0
        0x0077cee8      11401546       move.b d0, 0x1546(a0)
    > 0x0077ceec      22790086eb32   movea.l 0x86eb32, a1
         0x0077cef2      b3e9fffc       cmpa.l -0x4(a1), a1
     < 0x0077cef6      6702           beq.b 0x77cefa
        0x0077cef8      4e4d           trap 0xd
     > 0x0077cefa      48691522       pea.l 0x1522(a1)
         0x0077cefe      1f3c0001       move.b 0x1, -(a7)
         0x0077cf02      4ebad148       jsr PANEL_STACK.make_current(pc)
         0x0077cf06      5c4f           addq.w 0x6, a7
         0x0077cf08      10281546       move.b 0x1546(a0), d0
         0x0077cf0c      4880           ext.w d0
         0x0077cf0e      43fab230       lea.l 0x778140(pc), a1
         0x0077cf12      3200           move.w d0, d1
         0x0077cf14      e649           lsr.w 0x3, d1
         0x0077cf16      01311000       btst.l d0, (a1, d1.w)
     < 0x0077cf1a      6774           beq.b 0x77cf90
        0x0077cf1c      4a281524       tst.b 0x1524(a0)
    < 0x0077cf20      660a           bne.b 0x77cf2c
       0x0077cf22      30281526       move.w 0x1526(a0), d0
       0x0077cf26      48c0           ext.l d0
       0x0077cf28      2e00           move.l d0, d7
   < 0x0077cf2a      602e           bra.b 0x77cf5a
   > 0x0077cf2c      10281524       move.b 0x1524(a0), d0
       0x0077cf30      0c000001       cmpi.b 0x1, d0
   < 0x0077cf34      6622           bne.b 0x77cf58
      0x0077cf36      203900871010   move.l 0x871010, d0
      0x0077cf3c      5380           subq.l 0x1, d0
      0x0077cf3e      0c8000000007   cmpi.l 0x7, d0
  < 0x0077cf44      6302           bls.b 0x77cf48
     0x0077cf46      4e4f           trap 0xf
  > 0x0077cf48      43e81522       lea.l 0x1522(a0), a1
      0x0077cf4c      12310807       move.b 0x7(a1, d0.l), d1
      0x0077cf50      4881           ext.w d1
      0x0077cf52      48c1           ext.l d1
      0x0077cf54      2e01           move.l d1, d7
  < 0x0077cf56      6002           bra.b 0x77cf5a
  > 0x0077cf58      7e00           moveq 0x0, d7
  > 0x0077cf5a      486efee2       pea.l -0x11e(a6)
        0x0077cf5e      10281524       move.b 0x1524(a0), d0
        0x0077cf62      4880           ext.w d0
        0x0077cf64      41bc0003       chk.w 0x3, d0
        0x0077cf68      1f00           move.b d0, -(a7)
        0x0077cf6a      2f07           move.l d7, -(a7)
        0x0077cf6c      4227           clr.b -(a7)
        0x0077cf6e      4eb900783fb2   jsr PANEL_UTILS.op_string
        0x0077cf74      9efc00f4       suba.w 0xf4, a7
        0x0077cf78      224f           movea.l a7, a1
        0x0077cf7a      45eefee2       lea.l -0x11e(a6), a2
        0x0077cf7e      703f           moveq 0x3f, d0
    > 0x0077cf80      22da           move.l (a2)+, (a1)+
    < 0x0077cf82      51c8fffc       dbra d0, 0x77cf80
        0x0077cf86      4227           clr.b -(a7)
        0x0077cf88      4ebaca62       jsr PANEL_STACK.set_output(pc)
        0x0077cf8c      defc0102       adda.w 0x102, a7
     > 0x0077cf90      4a13           tst.b (a3)
     < 0x0077cf92      6718           beq.b 0x77cfac
        0x0077cf94      487ab1ad       pea.l 0x778143(pc)
        0x0077cf98      4878001f       pea.l 0x1f
        0x0077cf9c      2f17           move.l (a7), -(a7)
        0x0077cf9e      4eb9004047ea   jsr p_wts_o
        0x0077cfa4      dec5           adda.w d5, a7
        0x0077cfa6      4eb900404946   jsr p_wtln_o
     > 0x0077cfac      4eb9007a2562   jsr SERIAL.temp_wait
         0x0077cfb2      48780000       pea.l 0x0
         0x0077cfb6      4eb90078e2bc   jsr PANEL_PREFETCH.fetch_from
         0x0077cfbc      584f           addq.w 0x4, a7
         0x0077cfbe      4a06           tst.b d6
     < 0x0077cfc0      662a           bne.b 0x77cfec
        0x0077cfc2      10281546       move.b 0x1546(a0), d0
        0x0077cfc6      0c000004       cmpi.b 0x4, d0
    < 0x0077cfca      6608           bne.b 0x77cfd4
       0x0077cfcc      554f           subq.w 0x2, a7
       0x0077cfce      4ebae37e       jsr PANEL_STACK.pre_fetch(pc)
   < 0x0077cfd2      600a           bra.b 0x77cfde
   > 0x0077cfd4      554f           subq.w 0x2, a7
       0x0077cfd6      4227           clr.b -(a7)
       0x0077cfd8      4ebaea80       jsr PANEL_STACK.rebuild_prefetc(pc)
       0x0077cfdc      544f           addq.w 0x2, a7
   > 0x0077cfde      101f           move.b (a7)+, d0
        0x0077cfe0      4400           neg.b d0
        0x0077cfe2      5200           addq.b 0x1, d0
        0x0077cfe4      4880           ext.w d0
        0x0077cfe6      41bc0001       chk.w 0x1, d0
        0x0077cfea      1c00           move.b d0, d6
     > 0x0077cfec      4a06           tst.b d6
     < 0x0077cfee      6704           beq.b 0x77cff4
        0x0077cff0      4ebaca48       jsr PANEL_STACK.error_on_air(pc)
     > 0x0077cff4      7e01           moveq 0x1, d7
          0x0077cff6      4a06           tst.b d6
      < 0x0077cff8      6714           beq.b 0x77d00e
         0x0077cffa      48780063       pea.l 0x63
         0x0077cffe      4227           clr.b -(a7)
         0x0077d000      1f3c0001       move.b 0x1, -(a7)
         0x0077d004      4ebad534       jsr PANEL_STACK.ripple_stack(pc)
         0x0077d008      504f           addq.w 0x8, a7
     < 0x0077d00a      6000089a       bra.w loc.0077d8a6
        ; CODE XREF from PANEL_STACK @ +0x6206
    > 0x0077d00e      4a07           tst.b d7
    < 0x0077d010      67000894       beq.w loc.0077d8a6
       0x0077d014      4ebaf96a       jsr PANEL_STACK.prefetch_early(pc)
       0x0077d018      20790086eb32   movea.l 0x86eb32, a0
       0x0077d01e      b1e8fffc       cmpa.l -0x4(a0), a0
   < 0x0077d022      6702           beq.b 0x77d026
      0x0077d024      4e4d           trap 0xd
   > 0x0077d026      43eefd2c       lea.l -0x2d4(a6), a1
       0x0077d02a      41e81522       lea.l 0x1522(a0), a0
       0x0077d02e      7034           moveq 0x34, d0
   > 0x0077d030      12d8           move.b (a0)+, (a1)+
   < 0x0077d032      51c8fffc       dbra d0, 0x77d030
       0x0077d036      102efd50       move.b -0x2b0(a6), d0
       0x0077d03a      4880           ext.w d0
       0x0077d03c      3200           move.w d0, d1
       0x0077d03e      0c41000a       cmpi.w 0xa, d1
   < 0x0077d042      620007d2       bhi.w 0x77d816
      0x0077d046      d241           add.w d1, d1
      0x0077d048      323b1006       move.w 0x77d050(pc, d1.w), d1
      0x0077d04c      4efb1002       jmp 0x77d050(pc, d1.w)
       0x0077d050      00160096       ori.b 0x96, (a6)
       0x0077d054      02a2009603a8   andi.l 0x9603a8, -(a2)
       0x0077d05a      07c6           bset.b d3, d6
       0x0077d05c      009607c604f0   ori.l 0x7c604f0, (a6)
       0x0077d062      009600164a13   ori.l 0x164a13, (a6)
   < 0x0077d068      6718           beq.b 0x77d082
      0x0077d06a      487ab0f7       pea.l 0x778163(pc)
      0x0077d06e      48780026       pea.l 0x26
      0x0077d072      2f17           move.l (a7), -(a7)
      0x0077d074      4eb9004047ea   jsr p_wts_o
      0x0077d07a      dec5           adda.w d5, a7
      0x0077d07c      4eb900404946   jsr p_wtln_o
   > 0x0077d082      48780063       pea.l 0x63
       0x0077d086      4227           clr.b -(a7)
       0x0077d088      1f3c0001       move.b 0x1, -(a7)
       0x0077d08c      4ebad4ac       jsr PANEL_STACK.ripple_stack(pc)
       0x0077d090      504f           addq.w 0x8, a7
       0x0077d092      7e00           moveq 0x0, d7
       0x0077d094      0c00000a       cmpi.b 0xa, d0
   < 0x0077d098      6616           bne.b 0x77d0b0
      0x0077d09a      41f90086f442   lea.l 0x86f442, a0
      0x0077d0a0      43f90087115e   lea.l 0x87115e, a1
      0x0077d0a6      723f           moveq 0x3f, d1
  > 0x0077d0a8      20d9           move.l (a1)+, (a0)+
  < 0x0077d0aa      51c9fffc       dbra d1, 0x77d0a8
  < 0x0077d0ae      6012           bra.b 0x77d0c2
  > 0x0077d0b0      41f90086f442   lea.l 0x86f442, a0
      0x0077d0b6      43fab0d1       lea.l 0x778189(pc), a1
      0x0077d0ba      7210           moveq 0x10, d1
  > 0x0077d0bc      10d9           move.b (a1)+, (a0)+
  < 0x0077d0be      51c9fffc       dbra d1, 0x77d0bc
  > 0x0077d0c2      3f3c0002       move.w 0x2, -(a7)
       0x0077d0c6      9efc0100       suba.w 0x100, a7
       0x0077d0ca      204f           movea.l a7, a0
       0x0077d0cc      43f90086f442   lea.l 0x86f442, a1
       0x0077d0d2      723f           moveq 0x3f, d1
   > 0x0077d0d4      20d9           move.l (a1)+, (a0)+
   < 0x0077d0d6      51c9fffc       dbra d1, 0x77d0d4
       0x0077d0da      4ebac5c2       jsr PANEL_STACK.set_last_error(pc)
       0x0077d0de      defc0102       adda.w 0x102, a7
   < 0x0077d0e2      60000774       bra.w 0x77d858
      0x0077d0e6      4a390086eb1d   tst.b 0x86eb1d
  < 0x0077d0ec      671a           beq.b 0x77d108
     0x0077d0ee      4a390086eb1c   tst.b 0x86eb1c
  < 0x0077d0f4      6712           beq.b 0x77d108
     0x0077d0f6      554f           subq.w 0x2, a7
     0x0077d0f8      4227           clr.b -(a7)
     0x0077d0fa      4ebae95e       jsr PANEL_STACK.rebuild_prefetc(pc)
     0x0077d0fe      544f           addq.w 0x2, a7
     0x0077d100      4a1f           tst.b (a7)+
  < 0x0077d102      6604           bne.b 0x77d108
     0x0077d104      4ebac934       jsr PANEL_STACK.error_on_air(pc)
  > 0x0077d108      554f           subq.w 0x2, a7
      0x0077d10a      4ebae034       jsr PANEL_STACK.got_next_item(pc)
      0x0077d10e      4a1f           tst.b (a7)+
  < 0x0077d110      6700012c       beq.w 0x77d23e
     0x0077d114      48780001       pea.l 0x1
     0x0077d118      4eb9007a1bfa   jsr SERIAL.clear_window
     0x0077d11e      584f           addq.w 0x4, a7
     0x0077d120      4241           clr.w d1
     0x0077d122      12390086ed42   move.b 0x86ed42, d1
  < 0x0077d128      6302           bls.b 0x77d12c
     0x0077d12a      7200           moveq 0x0, d1
  > 0x0077d12c      5301           subq.b 0x1, d1
  < 0x0077d12e      6512           bcs.b 0x77d142
     0x0077d130      41f90086ed43   lea.l 0x86ed43, a0
     0x0077d136      43fab063       lea.l 0x77819b(pc), a1
  > 0x0077d13a      b109           cmpm.b (a1)+, (a0)+
  < 0x0077d13c      56c9fffc       dbne d1, 0x77d13a
  < 0x0077d140      6606           bne.b 0x77d148
  > 0x0077d142      12390086ed42   move.b 0x86ed42, d1
  < 0x0077d148      671e           beq.b 0x77d168
     0x0077d14a      9efc0100       suba.w 0x100, a7
     0x0077d14e      204f           movea.l a7, a0
     0x0077d150      43f90086ed42   lea.l 0x86ed42, a1
     0x0077d156      723f           moveq 0x3f, d1
  > 0x0077d158      20d9           move.l (a1)+, (a0)+
  < 0x0077d15a      51c9fffc       dbra d1, 0x77d158
     0x0077d15e      4227           clr.b -(a7)
     0x0077d160      4ebac7b0       jsr PANEL_STACK.set_on_air(pc)
     0x0077d164      defc0102       adda.w 0x102, a7
  > 0x0077d168      486efd2c       pea.l -0x2d4(a6)
     0x0077d16c      1f2e000c       move.b 0xc(a6), -(a7)
     0x0077d170      487900871262   pea.l 0x871262
     0x0077d176      4ebaed8e       jsr PANEL_STACK.taketoair(pc)
     0x0077d17a      defc000a       adda.w 0xa, a7
     0x0077d17e      4a13           tst.b (a3)
  < 0x0077d180      673a           beq.b 0x77d1bc
     0x0077d182      487ab018       pea.l 0x77819c(pc)
     0x0077d186      4878000b       pea.l 0xb
     0x0077d18a      2f17           move.l (a7), -(a7)
     0x0077d18c      4eb9004047ea   jsr p_wts_o
     0x0077d192      dec5           adda.w d5, a7
     0x0077d194      4eb900404946   jsr p_wtln_o
     0x0077d19a      9efc0036       suba.w 0x36, a7
     0x0077d19e      204f           movea.l a7, a0
     0x0077d1a0      43eefd2c       lea.l -0x2d4(a6), a1
     0x0077d1a4      720c           moveq 0xc, d1
  > 0x0077d1a6      20d9           move.l (a1)+, (a0)+
  < 0x0077d1a8      51c9fffc       dbra d1, 0x77d1a6
     0x0077d1ac      10d9           move.b (a1)+, (a0)+
     0x0077d1ae      4878ffff       pea.l 0xffff
     0x0077d1b2      4eb9006b8ae4   jsr USER1_UTILS.show_entry
     0x0077d1b8      defc003a       adda.w 0x3a, a7
  > 0x0077d1bc      122efd50       move.b -0x2b0(a6), d1
     0x0077d1c0      0c010006       cmpi.b 0x6, d1
  < 0x0077d1c4      660c           bne.b 0x77d1d2
     0x0077d1c6      4ab900871262   tst.l 0x871262
  < 0x0077d1cc      6704           beq.b 0x77d1d2
  < 0x0077d1ce      600000ca       bra.w 0x77d29a
  > 0x0077d1d2      9efc0038       suba.w 0x38, a7
     0x0077d1d6      204f           movea.l a7, a0
     0x0077d1d8      43eefd2c       lea.l -0x2d4(a6), a1
     0x0077d1dc      720c           moveq 0xc, d1
  > 0x0077d1de      20d9           move.l (a1)+, (a0)+
  < 0x0077d1e0      51c9fffc       dbra d1, 0x77d1de
     0x0077d1e4      10d9           move.b (a1)+, (a0)+
     0x0077d1e6      4ebaf930       jsr PANEL_STACK.alternate_mode(pc)
     0x0077d1ea      defc0036       adda.w 0x36, a7
     0x0077d1ee      4a1f           tst.b (a7)+
  < 0x0077d1f0      672e           beq.b 0x77d220
     0x0077d1f2      20790086eb32   movea.l 0x86eb32, a0
     0x0077d1f8      b1e8fffc       cmpa.l -0x4(a0), a0
  < 0x0077d1fc      6702           beq.b 0x77d200
     0x0077d1fe      4e4d           trap 0xd
  > 0x0077d200      9efc0036       suba.w 0x36, a7
     0x0077d204      224f           movea.l a7, a1
     0x0077d206      41e81522       lea.l 0x1522(a0), a0
     0x0077d20a      7234           moveq 0x34, d1
  > 0x0077d20c      12d8           move.b (a0)+, (a1)+
  < 0x0077d20e      51c9fffc       dbra d1, 0x77d20c
     0x0077d212      1f2e000c       move.b 0xc(a6), -(a7)
     0x0077d216      4ebaf690       jsr PANEL_STACK.increment_seque(pc)
     0x0077d21a      defc0038       adda.w 0x38, a7
  < 0x0077d21e      607a           bra.b 0x77d29a
  > 0x0077d220      4a13           tst.b (a3)
  < 0x0077d222      6776           beq.b 0x77d29a
     0x0077d224      487aaf82       pea.l 0x7781a8(pc)
     0x0077d228      4878001f       pea.l 0x1f
     0x0077d22c      2f17           move.l (a7), -(a7)
     0x0077d22e      4eb9004047ea   jsr p_wts_o
     0x0077d234      dec5           adda.w d5, a7
     0x0077d236      4eb900404946   jsr p_wtln_o
  < 0x0077d23c      605c           bra.b 0x77d29a
  > 0x0077d23e      4a13           tst.b (a3)
  < 0x0077d240      6718           beq.b 0x77d25a
     0x0077d242      487aaf84       pea.l 0x7781c8(pc)
     0x0077d246      48780024       pea.l 0x24
     0x0077d24a      2f17           move.l (a7), -(a7)
     0x0077d24c      4eb9004047ea   jsr p_wts_o
     0x0077d252      dec5           adda.w d5, a7
     0x0077d254      4eb900404946   jsr p_wtln_o
  > 0x0077d25a      23faaf900086.  move.l 0x7781ec(pc), 0x86f442.l
      0x0077d262      23faaf8c0086.  move.l 0x7781f0(pc), 0x86f446.l
      0x0077d26a      33faaf880086.  move.w 0x7781f4(pc), 0x86f44a.l
      0x0077d272      13faaf820086.  move.b 0x7781f6(pc), 0x86f44c.l
      0x0077d27a      3f3c0002       move.w 0x2, -(a7)
      0x0077d27e      9efc0100       suba.w 0x100, a7
      0x0077d282      204f           movea.l a7, a0
      0x0077d284      43f90086f442   lea.l 0x86f442, a1
      0x0077d28a      723f           moveq 0x3f, d1
  > 0x0077d28c      20d9           move.l (a1)+, (a0)+
  < 0x0077d28e      51c9fffc       dbra d1, 0x77d28c
      0x0077d292      4ebac40a       jsr PANEL_STACK.set_last_error(pc)
      0x0077d296      defc0102       adda.w 0x102, a7
  > 0x0077d29a      122efd50       move.b -0x2b0(a6), d1
      0x0077d29e      0c010006       cmpi.b 0x6, d1
  < 0x0077d2a2      6638           bne.b 0x77d2dc
     0x0077d2a4      4ab900871262   tst.l 0x871262
  < 0x0077d2aa      6730           beq.b 0x77d2dc
     0x0077d2ac      4a13           tst.b (a3)
  < 0x0077d2ae      673c           beq.b 0x77d2ec
     0x0077d2b0      487aaf46       pea.l 0x7781f8(pc)
     0x0077d2b4      48780016       pea.l 0x16
     0x0077d2b8      2f17           move.l (a7), -(a7)
     0x0077d2ba      4eb9004047ea   jsr p_wts_o
     0x0077d2c0      504f           addq.w 0x8, a7
     0x0077d2c2      2eb900871262   move.l 0x871262, (a7)
     0x0077d2c8      48780000       pea.l 0x0
     0x0077d2cc      4eb9004070e4   jsr p_wti_o
     0x0077d2d2      504f           addq.w 0x8, a7
     0x0077d2d4      4eb900404946   jsr p_wtln_o
  < 0x0077d2da      6010           bra.b 0x77d2ec
  > 0x0077d2dc      48780063       pea.l 0x63
      0x0077d2e0      4227           clr.b -(a7)
      0x0077d2e2      1f3c0001       move.b 0x1, -(a7)
      0x0077d2e6      4ebad252       jsr PANEL_STACK.ripple_stack(pc)
      0x0077d2ea      504f           addq.w 0x8, a7
  > 0x0077d2ec      7e00           moveq 0x0, d7
  < 0x0077d2ee      60000568       bra.w 0x77d858
     0x0077d2f2      4a13           tst.b (a3)
  < 0x0077d2f4      6728           beq.b 0x77d31e
     0x0077d2f6      4a2e000c       tst.b 0xc(a6)
  < 0x0077d2fa      670a           beq.b 0x77d306
     0x0077d2fc      487aaf11       pea.l 0x77820f(pc)
     0x0077d300      48780018       pea.l 0x18
  < 0x0077d304      6008           bra.b 0x77d30e
  > 0x0077d306      487aaf20       pea.l 0x778228(pc)
     0x0077d30a      48780022       pea.l 0x22
  > 0x0077d30e      2f17           move.l (a7), -(a7)
     0x0077d310      4eb9004047ea   jsr p_wts_o
     0x0077d316      dec5           adda.w d5, a7
     0x0077d318      4eb900404946   jsr p_wtln_o
  > 0x0077d31e      48780063       pea.l 0x63
     0x0077d322      4227           clr.b -(a7)
     0x0077d324      4227           clr.b -(a7)
     0x0077d326      4ebad212       jsr PANEL_STACK.ripple_stack(pc)
     0x0077d32a      5c4f           addq.w 0x6, a7
     0x0077d32c      4281           clr.l d1
     0x0077d32e      322efd2c       move.w -0x2d4(a6), d1
     0x0077d332      0481ffff8000   subi.l 0xffff8000, d1
     0x0077d338      0c810000ffff   cmpi.l 0xffff, d1
  < 0x0077d33e      6302           bls.b 0x77d342
     0x0077d340      4e4f           trap 0xf
  > 0x0077d342      0681ffff8000   addi.l 0xffff8000, d1
     0x0077d348      3f01           move.w d1, -(a7)
     0x0077d34a      2f2efd3c       move.l -0x2c4(a6), -(a7)
     0x0077d34e      4227           clr.b -(a7)
     0x0077d350      4a2e000c       tst.b 0xc(a6)
  < 0x0077d354      6602           bne.b 0x77d358
     0x0077d356      5217           addq.b 0x1, (a7)
  > 0x0077d358      4ebad972       jsr PANEL_STACK.fetch_stack(pc)
     0x0077d35c      504f           addq.w 0x8, a7
     0x0077d35e      4a1f           tst.b (a7)+
  < 0x0077d360      662e           bne.b 0x77d390
     0x0077d362      487aaee7       pea.l 0x77824b(pc)
     0x0077d366      48780018       pea.l 0x18
     0x0077d36a      2f17           move.l (a7), -(a7)
     0x0077d36c      4eb9004047ea   jsr p_wts_o
     0x0077d372      dec5           adda.w d5, a7
     0x0077d374      4281           clr.l d1
     0x0077d376      322efd2c       move.w -0x2d4(a6), d1
     0x0077d37a      2f01           move.l d1, -(a7)
     0x0077d37c      48780000       pea.l 0x0
     0x0077d380      4eb9004070e4   jsr p_wti_o
     0x0077d386      504f           addq.w 0x8, a7
     0x0077d388      4eb900404946   jsr p_wtln_o
  < 0x0077d38e      602a           bra.b 0x77d3ba
  > 0x0077d390      4a2e000c       tst.b 0xc(a6)
  < 0x0077d394      6724           beq.b 0x77d3ba
     0x0077d396      9efc0100       suba.w 0x100, a7
     0x0077d39a      4281           clr.l d1
     0x0077d39c      322efd2c       move.w -0x2d4(a6), d1
     0x0077d3a0      2f01           move.l d1, -(a7)
     0x0077d3a2      48790086f042   pea.l 0x86f042
     0x0077d3a8      4eb900783840   jsr PANEL_UTILS.format_stack
     0x0077d3ae      5c4f           addq.w 0x6, a7
     0x0077d3b0      4217           clr.b (a7)
     0x0077d3b2      4ebac55e       jsr PANEL_STACK.set_on_air(pc)
     0x0077d3b6      defc0102       adda.w 0x102, a7
  > 0x0077d3ba      4a13           tst.b (a3)
  < 0x0077d3bc      6718           beq.b 0x77d3d6
     0x0077d3be      487aaea4       pea.l 0x778264(pc)
     0x0077d3c2      48780018       pea.l 0x18
     0x0077d3c6      2f17           move.l (a7), -(a7)
     0x0077d3c8      4eb9004047ea   jsr p_wts_o
     0x0077d3ce      dec5           adda.w d5, a7
     0x0077d3d0      4eb900404946   jsr p_wtln_o
  > 0x0077d3d6      4eb9007a2562   jsr SERIAL.temp_wait
     0x0077d3dc      48780000       pea.l 0x0
     0x0077d3e0      4eb90078e2bc   jsr PANEL_PREFETCH.fetch_from
     0x0077d3e6      584f           addq.w 0x4, a7
     0x0077d3e8      4eb90078ddba   jsr PANEL_PREFETCH.unfetch_clip
     0x0077d3ee      4239008713cd   clr.b 0x8713cd
  < 0x0077d3f4      6000fef6       bra.w 0x77d2ec
      0x0077d3f8      48780001       pea.l 0x1
      0x0077d3fc      4eb9007a1bfa   jsr SERIAL.clear_window
      0x0077d402      584f           addq.w 0x4, a7
      0x0077d404      4241           clr.w d1
      0x0077d406      12390086ed42   move.b 0x86ed42, d1
  < 0x0077d40c      6302           bls.b 0x77d410
     0x0077d40e      7200           moveq 0x0, d1
  > 0x0077d410      5301           subq.b 0x1, d1
  < 0x0077d412      6512           bcs.b 0x77d426
     0x0077d414      41f90086ed43   lea.l 0x86ed43, a0
     0x0077d41a      43faae61       lea.l 0x77827d(pc), a1
  > 0x0077d41e      b109           cmpm.b (a1)+, (a0)+
  < 0x0077d420      56c9fffc       dbne d1, 0x77d41e
  < 0x0077d424      6606           bne.b 0x77d42c
  > 0x0077d426      12390086ed42   move.b 0x86ed42, d1
  < 0x0077d42c      671e           beq.b 0x77d44c
     0x0077d42e      9efc0100       suba.w 0x100, a7
     0x0077d432      204f           movea.l a7, a0
     0x0077d434      43f90086ed42   lea.l 0x86ed42, a1
     0x0077d43a      723f           moveq 0x3f, d1
  > 0x0077d43c      20d9           move.l (a1)+, (a0)+
  < 0x0077d43e      51c9fffc       dbra d1, 0x77d43c
     0x0077d442      4227           clr.b -(a7)
     0x0077d444      4ebac4cc       jsr PANEL_STACK.set_on_air(pc)
     0x0077d448      defc0102       adda.w 0x102, a7
  > 0x0077d44c      486efd2c       pea.l -0x2d4(a6)
      0x0077d450      1f2e000c       move.b 0xc(a6), -(a7)
      0x0077d454      486efd20       pea.l -0x2e0(a6)
      0x0077d458      4ebaeaac       jsr PANEL_STACK.taketoair(pc)
      0x0077d45c      defc000a       adda.w 0xa, a7
      0x0077d460      7e00           moveq 0x0, d7
      0x0077d462      9efc0038       suba.w 0x38, a7
      0x0077d466      204f           movea.l a7, a0
      0x0077d468      43eefd2c       lea.l -0x2d4(a6), a1
      0x0077d46c      720c           moveq 0xc, d1
  > 0x0077d46e      20d9           move.l (a1)+, (a0)+
  < 0x0077d470      51c9fffc       dbra d1, 0x77d46e
      0x0077d474      10d9           move.b (a1)+, (a0)+
      0x0077d476      4ebaf6a0       jsr PANEL_STACK.alternate_mode(pc)
      0x0077d47a      defc0036       adda.w 0x36, a7
      0x0077d47e      4a1f           tst.b (a7)+
  < 0x0077d480      6756           beq.b 0x77d4d8
     0x0077d482      4a2e000c       tst.b 0xc(a6)
  < 0x0077d486      672e           beq.b 0x77d4b6
     0x0077d488      20790086eb32   movea.l 0x86eb32, a0
     0x0077d48e      b1e8fffc       cmpa.l -0x4(a0), a0
  < 0x0077d492      6702           beq.b 0x77d496
     0x0077d494      4e4d           trap 0xd
  > 0x0077d496      9efc0036       suba.w 0x36, a7
     0x0077d49a      224f           movea.l a7, a1
     0x0077d49c      41e81522       lea.l 0x1522(a0), a0
     0x0077d4a0      7234           moveq 0x34, d1
  > 0x0077d4a2      12d8           move.b (a0)+, (a1)+
  < 0x0077d4a4      51c9fffc       dbra d1, 0x77d4a2
     0x0077d4a8      1f2e000c       move.b 0xc(a6), -(a7)
     0x0077d4ac      4ebaf3fa       jsr PANEL_STACK.increment_seque(pc)
     0x0077d4b0      defc0038       adda.w 0x38, a7
  < 0x0077d4b4      6022           bra.b 0x77d4d8
  > 0x0077d4b6      554f           subq.w 0x2, a7
     0x0077d4b8      3f3aadc4       move.w 0x77827e(pc), -(a7)
     0x0077d4bc      3f3aadc2       move.w 0x778280(pc), -(a7)
     0x0077d4c0      1f3c0001       move.b 0x1, -(a7)
     0x0077d4c4      49eefd16       lea.l -0x2ea(a6), a4
     0x0077d4c8      4ebaf68e       jsr PANEL_STACK.take_next_item(pc)
     0x0077d4cc      5c4f           addq.w 0x6, a7
     0x0077d4ce      121f           move.b (a7)+, d1
     0x0077d4d0      4881           ext.w d1
     0x0077d4d2      43bc0001       chk.w 0x1, d1
     0x0077d4d6      1e01           move.b d1, d7
  > 0x0077d4d8      4a13           tst.b (a3)
  < 0x0077d4da      6750           beq.b 0x77d52c
     0x0077d4dc      4a07           tst.b d7
  < 0x0077d4de      674c           beq.b 0x77d52c
     0x0077d4e0      487aada1       pea.l 0x778283(pc)
     0x0077d4e4      48780014       pea.l 0x14
     0x0077d4e8      2f17           move.l (a7), -(a7)
     0x0077d4ea      4eb9004047ea   jsr p_wts_o
     0x0077d4f0      dec5           adda.w d5, a7
     0x0077d4f2      20790086eb32   movea.l 0x86eb32, a0
     0x0077d4f8      b1e8fffc       cmpa.l -0x4(a0), a0
  < 0x0077d4fc      6702           beq.b 0x77d500
     0x0077d4fe      4e4d           trap 0xd
  > 0x0077d500      4281           clr.l d1
     0x0077d502      32281558       move.w 0x1558(a0), d1
     0x0077d506      2f01           move.l d1, -(a7)
     0x0077d508      48780000       pea.l 0x0
     0x0077d50c      4eb9004070e4   jsr p_wti_o
     0x0077d512      504f           addq.w 0x8, a7
     0x0077d514      487aad82       pea.l 0x778298(pc)
     0x0077d518      4878000a       pea.l 0xa
     0x0077d51c      2f17           move.l (a7), -(a7)
     0x0077d51e      4eb9004047ea   jsr p_wts_o
     0x0077d524      dec5           adda.w d5, a7
     0x0077d526      4eb900404946   jsr p_wtln_o
  > 0x0077d52c      48780063       pea.l 0x63
      0x0077d530      4227           clr.b -(a7)
      0x0077d532      1f3c0001       move.b 0x1, -(a7)
      0x0077d536      4ebad002       jsr PANEL_STACK.ripple_stack(pc)
      0x0077d53a      504f           addq.w 0x8, a7
  < 0x0077d53c      6000031a       bra.w 0x77d858
     0x0077d540      48780001       pea.l 0x1
     0x0077d544      4eb9007a1bfa   jsr SERIAL.clear_window
     0x0077d54a      584f           addq.w 0x4, a7
     0x0077d54c      4241           clr.w d1
     0x0077d54e      12390086ed42   move.b 0x86ed42, d1
  < 0x0077d554      6302           bls.b 0x77d558
     0x0077d556      7200           moveq 0x0, d1
  > 0x0077d558      5301           subq.b 0x1, d1
  < 0x0077d55a      6512           bcs.b 0x77d56e
     0x0077d55c      41f90086ed43   lea.l 0x86ed43, a0
     0x0077d562      43faad3f       lea.l 0x7782a3(pc), a1
  > 0x0077d566      b109           cmpm.b (a1)+, (a0)+
  < 0x0077d568      56c9fffc       dbne d1, 0x77d566
  < 0x0077d56c      6606           bne.b 0x77d574
  > 0x0077d56e      12390086ed42   move.b 0x86ed42, d1
  < 0x0077d574      671e           beq.b 0x77d594
     0x0077d576      9efc0100       suba.w 0x100, a7
     0x0077d57a      204f           movea.l a7, a0
     0x0077d57c      43f90086ed42   lea.l 0x86ed42, a1
     0x0077d582      723f           moveq 0x3f, d1
  > 0x0077d584      20d9           move.l (a1)+, (a0)+
  < 0x0077d586      51c9fffc       dbra d1, 0x77d584
     0x0077d58a      4227           clr.b -(a7)
     0x0077d58c      4ebac384       jsr PANEL_STACK.set_on_air(pc)
     0x0077d590      defc0102       adda.w 0x102, a7
  > 0x0077d594      4281           clr.l d1
     0x0077d596      322efd2c       move.w -0x2d4(a6), d1
     0x0077d59a      0481ffff8000   subi.l 0xffff8000, d1
     0x0077d5a0      0c810000ffff   cmpi.l 0xffff, d1
  < 0x0077d5a6      6302           bls.b 0x77d5aa
     0x0077d5a8      4e4f           trap 0xf
  > 0x0077d5aa      0681ffff8000   addi.l 0xffff8000, d1
     0x0077d5b0      33c10087101c   move.w d1, 0x87101c
     0x0077d5b6      423900871026   clr.b 0x871026
     0x0077d5bc      4a6efd52       tst.w -0x2ae(a6)
  < 0x0077d5c0      6f06           ble.b 0x77d5c8
     0x0077d5c2      523900871026   addq.b 0x1, 0x871026.l
  > 0x0077d5c8      4a13           tst.b (a3)
  < 0x0077d5ca      6700017a       beq.w 0x77d746
     0x0077d5ce      487aacd4       pea.l 0x7782a4(pc)
     0x0077d5d2      4878000b       pea.l 0xb
     0x0077d5d6      2f17           move.l (a7), -(a7)
     0x0077d5d8      4eb9004047ea   jsr p_wts_o
     0x0077d5de      dec5           adda.w d5, a7
     0x0077d5e0      32390087101c   move.w 0x87101c, d1
     0x0077d5e6      43bc0009       chk.w 0x9, d1
     0x0077d5ea      c3fc0012       muls.w 0x12, d1
     0x0077d5ee      20790086eb32   movea.l 0x86eb32, a0
     0x0077d5f4      b1e8fffc       cmpa.l -0x4(a0), a0
  < 0x0077d5f8      6702           beq.b 0x77d5fc
     0x0077d5fa      4e4d           trap 0xd
  > 0x0077d5fc      41f01800       lea.l (a0, d1.l), a0
     0x0077d600      32282a3a       move.w 0x2a3a(a0), d1
     0x0077d604      0c410001       cmpi.w 0x1, d1
  < 0x0077d608      6654           bne.b 0x77d65e
     0x0077d60a      9efc0104       suba.w 0x104, a7
     0x0077d60e      1ea82a3c       move.b 0x2a3c(a0), (a7)
     0x0077d612      1f682a3d0001   move.b 0x2a3d(a0), 0x1(a7)
     0x0077d618      1f682a3e0002   move.b 0x2a3e(a0), 0x2(a7)
     0x0077d61e      1f682a3f0003   move.b 0x2a3f(a0), 0x3(a7)
     0x0077d624      48780000       pea.l 0x0
     0x0077d628      4eb90044dd86   jsr SYSTEM_STRING.point_str
     0x0077d62e      504f           addq.w 0x8, a7
     0x0077d630      487aac7e       pea.l 0x7782b0(pc)
     0x0077d634      48780004       pea.l 0x4
     0x0077d638      2f17           move.l (a7), -(a7)
     0x0077d63a      4eb9004047ea   jsr p_wts_o
     0x0077d640      dec5           adda.w d5, a7
     0x0077d642      486f0001       pea.l 0x1(a7)
     0x0077d646      42a7           clr.l -(a7)
     0x0077d648      1f6f00080003   move.b 0x8(a7), 0x3(a7)
     0x0077d64e      2f17           move.l (a7), -(a7)
     0x0077d650      4eb9004047ea   jsr p_wts_o
     0x0077d656      defc010c       adda.w 0x10c, a7
  < 0x0077d65a      600000ca       bra.w 0x77d726
  > 0x0077d65e      0c410002       cmpi.w 0x2, d1
  < 0x0077d662      660000a0       bne.w 0x77d704
     0x0077d666      9efc0104       suba.w 0x104, a7
     0x0077d66a      1ea82a3c       move.b 0x2a3c(a0), (a7)
     0x0077d66e      1f682a3d0001   move.b 0x2a3d(a0), 0x1(a7)
     0x0077d674      1f682a3e0002   move.b 0x2a3e(a0), 0x2(a7)
     0x0077d67a      1f682a3f0003   move.b 0x2a3f(a0), 0x3(a7)
     0x0077d680      48780000       pea.l 0x0
     0x0077d684      4eb90044dd86   jsr SYSTEM_STRING.point_str
     0x0077d68a      9efc00fc       suba.w 0xfc, a7
     0x0077d68e      1ea82a40       move.b 0x2a40(a0), (a7)
     0x0077d692      1f682a410001   move.b 0x2a41(a0), 0x1(a7)
     0x0077d698      1f682a420002   move.b 0x2a42(a0), 0x2(a7)
     0x0077d69e      1f682a430003   move.b 0x2a43(a0), 0x3(a7)
     0x0077d6a4      48780000       pea.l 0x0
     0x0077d6a8      4eb90044dd86   jsr SYSTEM_STRING.point_str
     0x0077d6ae      504f           addq.w 0x8, a7
     0x0077d6b0      487aac03       pea.l 0x7782b5(pc)
     0x0077d6b4      48780005       pea.l 0x5
     0x0077d6b8      2f17           move.l (a7), -(a7)
     0x0077d6ba      4eb9004047ea   jsr p_wts_o
     0x0077d6c0      dec5           adda.w d5, a7
     0x0077d6c2      486f0101       pea.l 0x101(a7)
     0x0077d6c6      42a7           clr.l -(a7)
     0x0077d6c8      1f6f01080003   move.b 0x108(a7), 0x3(a7)
     0x0077d6ce      2f17           move.l (a7), -(a7)
     0x0077d6d0      4eb9004047ea   jsr p_wts_o
     0x0077d6d6      dec5           adda.w d5, a7
     0x0077d6d8      487aabe1       pea.l 0x7782bb(pc)
     0x0077d6dc      48780002       pea.l 0x2
     0x0077d6e0      2f17           move.l (a7), -(a7)
     0x0077d6e2      4eb9004047ea   jsr p_wts_o
     0x0077d6e8      dec5           adda.w d5, a7
     0x0077d6ea      486f0001       pea.l 0x1(a7)
     0x0077d6ee      42a7           clr.l -(a7)
     0x0077d6f0      1f6f00080003   move.b 0x8(a7), 0x3(a7)
     0x0077d6f6      2f17           move.l (a7), -(a7)
     0x0077d6f8      4eb9004047ea   jsr p_wts_o
     0x0077d6fe      defc020c       adda.w 0x20c, a7
  < 0x0077d702      6022           bra.b 0x77d726
  > 0x0077d704      487aabb8       pea.l 0x7782be(pc)
     0x0077d708      48780012       pea.l 0x12
     0x0077d70c      2f17           move.l (a7), -(a7)
     0x0077d70e      4eb9004047ea   jsr p_wts_o
     0x0077d714      dec5           adda.w d5, a7
     0x0077d716      48c1           ext.l d1
     0x0077d718      2f01           move.l d1, -(a7)
     0x0077d71a      48780000       pea.l 0x0
     0x0077d71e      4eb9004070e4   jsr p_wti_o
     0x0077d724      504f           addq.w 0x8, a7
  > 0x0077d726      4a3900871026   tst.b 0x871026
  < 0x0077d72c      6712           beq.b 0x77d740
     0x0077d72e      487aaba1       pea.l 0x7782d1(pc)
     0x0077d732      48780007       pea.l 0x7
     0x0077d736      2f17           move.l (a7), -(a7)
     0x0077d738      4eb9004047ea   jsr p_wts_o
     0x0077d73e      dec5           adda.w d5, a7
  > 0x0077d740      4eb900404946   jsr p_wtln_o
  > 0x0077d746      7e00           moveq 0x0, d7
     0x0077d748      9efc0038       suba.w 0x38, a7
     0x0077d74c      204f           movea.l a7, a0
     0x0077d74e      43eefd2c       lea.l -0x2d4(a6), a1
     0x0077d752      720c           moveq 0xc, d1
  > 0x0077d754      20d9           move.l (a1)+, (a0)+
  < 0x0077d756      51c9fffc       dbra d1, 0x77d754
     0x0077d75a      10d9           move.b (a1)+, (a0)+
     0x0077d75c      4ebaf3ba       jsr PANEL_STACK.alternate_mode(pc)
     0x0077d760      defc0036       adda.w 0x36, a7
     0x0077d764      4a1f           tst.b (a7)+
  < 0x0077d766      6756           beq.b 0x77d7be
     0x0077d768      4a2e000c       tst.b 0xc(a6)
  < 0x0077d76c      672e           beq.b 0x77d79c
     0x0077d76e      20790086eb32   movea.l 0x86eb32, a0
     0x0077d774      b1e8fffc       cmpa.l -0x4(a0), a0
  < 0x0077d778      6702           beq.b 0x77d77c
     0x0077d77a      4e4d           trap 0xd
  > 0x0077d77c      9efc0036       suba.w 0x36, a7
     0x0077d780      224f           movea.l a7, a1
     0x0077d782      41e81522       lea.l 0x1522(a0), a0
     0x0077d786      7234           moveq 0x34, d1
  > 0x0077d788      12d8           move.b (a0)+, (a1)+
  < 0x0077d78a      51c9fffc       dbra d1, 0x77d788
     0x0077d78e      1f2e000c       move.b 0xc(a6), -(a7)
     0x0077d792      4ebaf114       jsr PANEL_STACK.increment_seque(pc)
     0x0077d796      defc0038       adda.w 0x38, a7
  < 0x0077d79a      6022           bra.b 0x77d7be
  > 0x0077d79c      554f           subq.w 0x2, a7
     0x0077d79e      3f3aab38       move.w 0x7782d8(pc), -(a7)
     0x0077d7a2      3f3aab36       move.w 0x7782da(pc), -(a7)
     0x0077d7a6      1f3c0001       move.b 0x1, -(a7)
     0x0077d7aa      49eefd16       lea.l -0x2ea(a6), a4
     0x0077d7ae      4ebaf3a8       jsr PANEL_STACK.take_next_item(pc)
     0x0077d7b2      5c4f           addq.w 0x6, a7
     0x0077d7b4      121f           move.b (a7)+, d1
     0x0077d7b6      4881           ext.w d1
     0x0077d7b8      43bc0001       chk.w 0x1, d1
     0x0077d7bc      1e01           move.b d1, d7
  > 0x0077d7be      4a13           tst.b (a3)
  < 0x0077d7c0      6750           beq.b 0x77d812
     0x0077d7c2      4a07           tst.b d7
  < 0x0077d7c4      674c           beq.b 0x77d812
     0x0077d7c6      487aab15       pea.l 0x7782dd(pc)
     0x0077d7ca      48780014       pea.l 0x14
     0x0077d7ce      2f17           move.l (a7), -(a7)
     0x0077d7d0      4eb9004047ea   jsr p_wts_o
     0x0077d7d6      dec5           adda.w d5, a7
     0x0077d7d8      20790086eb32   movea.l 0x86eb32, a0
     0x0077d7de      b1e8fffc       cmpa.l -0x4(a0), a0
  < 0x0077d7e2      6702           beq.b 0x77d7e6
     0x0077d7e4      4e4d           trap 0xd
  > 0x0077d7e6      4281           clr.l d1
     0x0077d7e8      32281558       move.w 0x1558(a0), d1
     0x0077d7ec      2f01           move.l d1, -(a7)
     0x0077d7ee      48780000       pea.l 0x0
     0x0077d7f2      4eb9004070e4   jsr p_wti_o
     0x0077d7f8      504f           addq.w 0x8, a7
     0x0077d7fa      487aaaf6       pea.l 0x7782f2(pc)
     0x0077d7fe      48780015       pea.l 0x15
     0x0077d802      2f17           move.l (a7), -(a7)
     0x0077d804      4eb9004047ea   jsr p_wts_o
     0x0077d80a      dec5           adda.w d5, a7
     0x0077d80c      4eb900404946   jsr p_wtln_o
  > 0x0077d812      6000fd18       bra.w 0x77d52c
  > 0x0077d816      9efc0100       suba.w 0x100, a7
      0x0077d81a      41bc000f       chk.w 0xf, d0
      0x0077d81e      1f00           move.b d0, -(a7)
      0x0077d820      4eb9006b835c   jsr USER1_UTILS.entry_t_str
      0x0077d826      544f           addq.w 0x2, a7
      0x0077d828      487aaade       pea.l 0x778308(pc)
      0x0077d82c      48780022       pea.l 0x22
      0x0077d830      2f17           move.l (a7), -(a7)
      0x0077d832      4eb9004047ea   jsr p_wts_o
      0x0077d838      dec5           adda.w d5, a7
      0x0077d83a      486f0001       pea.l 0x1(a7)
      0x0077d83e      42a7           clr.l -(a7)
      0x0077d840      1f6f00080003   move.b 0x8(a7), 0x3(a7)
      0x0077d846      2f17           move.l (a7), -(a7)
      0x0077d848      4eb9004047ea   jsr p_wts_o
      0x0077d84e      defc010c       adda.w 0x10c, a7
      0x0077d852      4eb900404946   jsr p_wtln_o
  > 0x0077d858      4a07           tst.b d7
    < 0x0077d85a      6746           beq.b 0x77d8a2
       0x0077d85c      4a13           tst.b (a3)
   < 0x0077d85e      6718           beq.b 0x77d878
      0x0077d860      487aaac9       pea.l 0x77832b(pc)
      0x0077d864      4878002a       pea.l 0x2a
      0x0077d868      2f17           move.l (a7), -(a7)
      0x0077d86a      4eb9004047ea   jsr p_wts_o
      0x0077d870      dec5           adda.w d5, a7
      0x0077d872      4eb900404946   jsr p_wtln_o
   > 0x0077d878      554f           subq.w 0x2, a7
       0x0077d87a      4ebadad2       jsr PANEL_STACK.pre_fetch(pc)
       0x0077d87e      4a1f           tst.b (a7)+
   < 0x0077d880      6620           bne.b 0x77d8a2
      0x0077d882      4a13           tst.b (a3)
  < 0x0077d884      6718           beq.b 0x77d89e
     0x0077d886      487aaace       pea.l 0x778356(pc)
     0x0077d88a      4878001c       pea.l 0x1c
     0x0077d88e      2f17           move.l (a7), -(a7)
     0x0077d890      4eb9004047ea   jsr p_wts_o
     0x0077d896      dec5           adda.w d5, a7
     0x0077d898      4eb900404946   jsr p_wtln_o
  > 0x0077d89e      4ebac19a       jsr PANEL_STACK.error_on_air(pc)
   < 0x0077d8a2      6000f76a       bra.w 0x77d00e              ; PANEL_STACK.do_take+0x2e4
         ; CODE XREF from PANEL_STACK.do_take @ 0x77d00a
 128: loc.0077d8a6 (int32_t arg_8h);
        ; arg int32_t arg_8h @ a7+0x8
     > 0x0077d8a6      7e01           moveq 0x1, d7
      > 0x0077d8a8      4a07           tst.b d7
     < 0x0077d8aa      670004be       beq.w 0x77dd6a
        0x0077d8ae      4a13           tst.b (a3)
    < 0x0077d8b0      674e           beq.b 0x77d900
       0x0077d8b2      9efc0100       suba.w 0x100, a7
       0x0077d8b6      20790086eb32   movea.l 0x86eb32, a0
       0x0077d8bc      b1e8fffc       cmpa.l -0x4(a0), a0
   < 0x0077d8c0      6702           beq.b 0x77d8c4
      0x0077d8c2      4e4d           trap 0xd
   > 0x0077d8c4      1f281546       move.b 0x1546(a0), -(a7)
       0x0077d8c8      4eb9006b835c   jsr USER1_UTILS.entry_t_str
       0x0077d8ce      544f           addq.w 0x2, a7
       0x0077d8d0      487aaaa1       pea.l 0x778373(pc)
       0x0077d8d4      48780011       pea.l 0x11
       0x0077d8d8      2f17           move.l (a7), -(a7)
       0x0077d8da      4eb9004047ea   jsr p_wts_o
       0x0077d8e0      dec5           adda.w d5, a7
       0x0077d8e2      486f0001       pea.l 0x1(a7)
       0x0077d8e6      42a7           clr.l -(a7)
       0x0077d8e8      1f6f00080003   move.b 0x8(a7), 0x3(a7)
       0x0077d8ee      2f17           move.l (a7), -(a7)
       0x0077d8f0      4eb9004047ea   jsr p_wts_o
       0x0077d8f6      defc010c       adda.w 0x10c, a7
       0x0077d8fa      4eb900404946   jsr p_wtln_o
    > 0x0077d900      20790086eb32   movea.l 0x86eb32, a0
        0x0077d906      b1e8fffc       cmpa.l -0x4(a0), a0
    < 0x0077d90a      6702           beq.b 0x77d90e
       0x0077d90c      4e4d           trap 0xd
    > 0x0077d90e      10281546       move.b 0x1546(a0), d0
        0x0077d912      4880           ext.w d0
        0x0077d914      0c40000a       cmpi.w 0xa, d0
    < 0x0077d918      6302           bls.b 0x77d91c
       0x0077d91a      4e4e           trap 0xe
    > 0x0077d91c      d040           add.w d0, d0
        0x0077d91e      303b0006       move.w 0x77d926(pc, d0.w), d0
        0x0077d922      4efb0002       jmp 0x77d926(pc, d0.w)
         0x0077d926      01e80016       bset.b d0, 0x16(a0)
         0x0077d92a      00f40016       
         0x0077d92b      f400           invalid
         0x0077d92d      1602           move.b d2, d3
         0x0077d92f      76ff           moveq 0xff, d3
         0x0077d931      f404           invalid
         0x0077d933      3cfff403       
         0x0077d934      fff4           invalid
         0x0077d936      0352           bchg.b d1, (a2)
         0x0077d938      0016001c       ori.b 0x1c, (a6)
     > 0x0077d93c      7e00           moveq 0x0, d7
    < 0x0077d93e      60000426       bra.w 0x77dd66
       0x0077d942      487aaa41       pea.l 0x778385(pc)
       0x0077d946      4878001b       pea.l 0x1b
       0x0077d94a      2f17           move.l (a7), -(a7)
       0x0077d94c      4eb9004047ea   jsr p_wts_o
       0x0077d952      dec5           adda.w d5, a7
       0x0077d954      30281522       move.w 0x1522(a0), d0
       0x0077d958      02800000ffff   andi.l 0xffff, d0
       0x0077d95e      2f00           move.l d0, -(a7)
       0x0077d960      48780000       pea.l 0x0
       0x0077d964      4eb9004070e4   jsr p_wti_o
       0x0077d96a      504f           addq.w 0x8, a7
       0x0077d96c      4eb900404946   jsr p_wtln_o
       0x0077d972      554f           subq.w 0x2, a7
       0x0077d974      30281522       move.w 0x1522(a0), d0
       0x0077d978      02800000ffff   andi.l 0xffff, d0
       0x0077d97e      2f00           move.l d0, -(a7)
       0x0077d980      594f           subq.w 0x4, a7
       0x0077d982      1ea81532       move.b 0x1532(a0), (a7)
       0x0077d986      1f6815330001   move.b 0x1533(a0), 0x1(a7)
       0x0077d98c      1f6815340002   move.b 0x1534(a0), 0x2(a7)
       0x0077d992      1f6815350003   move.b 0x1535(a0), 0x3(a7)
       0x0077d998      4eb900784b94   jsr PANEL_UTILS.item_ntype
       0x0077d99e      504f           addq.w 0x8, a7
       0x0077d9a0      101f           move.b (a7)+, d0
       0x0077d9a2      4880           ext.w d0
       0x0077d9a4      41bc000f       chk.w 0xf, d0
       0x0077d9a8      11401546       move.b d0, 0x1546(a0)
       0x0077d9ac      0c000002       cmpi.b 0x2, d0
   < 0x0077d9b0      6606           bne.b 0x77d9b8
      0x0077d9b2      117c000a1546   move.b 0xa, 0x1546(a0)
   > 0x0077d9b8      10281546       move.b 0x1546(a0), d0
       0x0077d9bc      0c00000a       cmpi.b 0xa, d0
   < 0x0077d9c0      6604           bne.b 0x77d9c6
      0x0077d9c2      7e00           moveq 0x0, d7
  < 0x0077d9c4      6050           bra.b 0x77da16
  > 0x0077d9c6      9efc0100       suba.w 0x100, a7
      0x0077d9ca      4880           ext.w d0
      0x0077d9cc      41bc000f       chk.w 0xf, d0
      0x0077d9d0      1f00           move.b d0, -(a7)
      0x0077d9d2      4eb9006b835c   jsr USER1_UTILS.entry_t_str
      0x0077d9d8      544f           addq.w 0x2, a7
      0x0077d9da      487aa9c5       pea.l 0x7783a1(pc)
      0x0077d9de      4878001c       pea.l 0x1c
      0x0077d9e2      2f17           move.l (a7), -(a7)
      0x0077d9e4      4eb9004047ea   jsr p_wts_o
      0x0077d9ea      dec5           adda.w d5, a7
      0x0077d9ec      486f0001       pea.l 0x1(a7)
      0x0077d9f0      42a7           clr.l -(a7)
      0x0077d9f2      1f6f00080003   move.b 0x8(a7), 0x3(a7)
      0x0077d9f8      2f17           move.l (a7), -(a7)
      0x0077d9fa      4eb9004047ea   jsr p_wts_o
      0x0077da00      defc010c       adda.w 0x10c, a7
      0x0077da04      4eb900404946   jsr p_wtln_o
      0x0077da0a      48780000       pea.l 0x0
      0x0077da0e      4eb90078e2bc   jsr PANEL_PREFETCH.fetch_from
      0x0077da14      584f           addq.w 0x4, a7
  < 0x0077da16      6000034e       bra.w 0x77dd66
      0x0077da1a      30280004       move.w 0x4(a0), d0
      0x0077da1e      0c400005       cmpi.w 0x5, d0
  < 0x0077da22      6506           bcs.b 0x77da2a
     0x0077da24      7e00           moveq 0x0, d7
  < 0x0077da26      600000e2       bra.w 0x77db0a
  > 0x0077da2a      4a13           tst.b (a3)
  < 0x0077da2c      6718           beq.b 0x77da46
     0x0077da2e      487aa98e       pea.l 0x7783be(pc)
     0x0077da32      4878001e       pea.l 0x1e
     0x0077da36      2f17           move.l (a7), -(a7)
     0x0077da38      4eb9004047ea   jsr p_wts_o
     0x0077da3e      dec5           adda.w d5, a7
     0x0077da40      4eb900404946   jsr p_wtln_o
  > 0x0077da46      22790086eb32   movea.l 0x86eb32, a1
      0x0077da4c      b3e9fffc       cmpa.l -0x4(a1), a1
  < 0x0077da50      6702           beq.b 0x77da54
     0x0077da52      4e4d           trap 0xd
  > 0x0077da54      45eefd2c       lea.l -0x2d4(a6), a2
      0x0077da58      43e91522       lea.l 0x1522(a1), a1
      0x0077da5c      7034           moveq 0x34, d0
  > 0x0077da5e      14d9           move.b (a1)+, (a2)+
  < 0x0077da60      51c8fffc       dbra d0, 0x77da5e
      0x0077da64      48780063       pea.l 0x63
      0x0077da68      4227           clr.b -(a7)
      0x0077da6a      4227           clr.b -(a7)
      0x0077da6c      4ebacacc       jsr PANEL_STACK.ripple_stack(pc)
      0x0077da70      5c4f           addq.w 0x6, a7
      0x0077da72      4280           clr.l d0
      0x0077da74      302efd2c       move.w -0x2d4(a6), d0
      0x0077da78      0480ffff8000   subi.l 0xffff8000, d0
      0x0077da7e      0c800000ffff   cmpi.l 0xffff, d0
  < 0x0077da84      6302           bls.b 0x77da88
     0x0077da86      4e4f           trap 0xf
  > 0x0077da88      0680ffff8000   addi.l 0xffff8000, d0
      0x0077da8e      3f00           move.w d0, -(a7)
      0x0077da90      2f2efd3c       move.l -0x2c4(a6), -(a7)
      0x0077da94      1f3c0001       move.b 0x1, -(a7)
      0x0077da98      4ebad232       jsr PANEL_STACK.fetch_stack(pc)
      0x0077da9c      504f           addq.w 0x8, a7
      0x0077da9e      4a1f           tst.b (a7)+
  < 0x0077daa0      6604           bne.b 0x77daa6
     0x0077daa2      7e00           moveq 0x0, d7
  < 0x0077daa4      602a           bra.b 0x77dad0
  > 0x0077daa6      9efc0100       suba.w 0x100, a7
      0x0077daaa      4280           clr.l d0
      0x0077daac      302efd2c       move.w -0x2d4(a6), d0
      0x0077dab0      2f00           move.l d0, -(a7)
      0x0077dab2      48790086f042   pea.l 0x86f042
      0x0077dab8      4eb900783840   jsr PANEL_UTILS.format_stack
      0x0077dabe      5c4f           addq.w 0x6, a7
      0x0077dac0      4217           clr.b (a7)
      0x0077dac2      4ebabeda       jsr PANEL_STACK.set_next_on_air(pc)
      0x0077dac6      defc0102       adda.w 0x102, a7
      0x0077daca      4eb9007844b8   jsr PANEL_UTILS.clr_stk_windows
  > 0x0077dad0      4a13           tst.b (a3)
  < 0x0077dad2      6718           beq.b 0x77daec
     0x0077dad4      487aa907       pea.l 0x7783dd(pc)
     0x0077dad8      48780018       pea.l 0x18
     0x0077dadc      2f17           move.l (a7), -(a7)
     0x0077dade      4eb9004047ea   jsr p_wts_o
     0x0077dae4      dec5           adda.w d5, a7
     0x0077dae6      4eb900404946   jsr p_wtln_o
  > 0x0077daec      4eb9007a2562   jsr SERIAL.temp_wait
      0x0077daf2      48780000       pea.l 0x0
      0x0077daf6      4eb90078e2bc   jsr PANEL_PREFETCH.fetch_from
      0x0077dafc      584f           addq.w 0x4, a7
      0x0077dafe      4eb90078ddba   jsr PANEL_PREFETCH.unfetch_clip
      0x0077db04      4239008713cd   clr.b 0x8713cd
  < 0x0077db0a      6000025a       bra.w 0x77dd66
     0x0077db0e      2250           movea.l (a0), a1
     0x0077db10      b2fc0001       cmpa.w 0x1, a1
  < 0x0077db14      6604           bne.b 0x77db1a
  > 0x0077db16      7e00           moveq 0x0, d7
  < 0x0077db18      607e           bra.b 0x77db98
  > 0x0077db1a      7c01           moveq 0x1, d6
  > 0x0077db1c      2006           move.l d6, d0
     0x0077db1e      0480ffffff9c   subi.l 0xffffff9c, d0
     0x0077db24      0c80000000c7   cmpi.l 0xc7, d0
  < 0x0077db2a      6302           bls.b 0x77db2e
     0x0077db2c      4e4f           trap 0xf
  > 0x0077db2e      2800           move.l d0, d4
     0x0077db30      7636           moveq 0x36, d3
     0x0077db32      4eb900406a74   jsr fcn.00406a74
     0x0077db38      22790086eb32   movea.l 0x86eb32, a1
     0x0077db3e      b3e9fffc       cmpa.l -0x4(a1), a1
  < 0x0077db42      6702           beq.b 0x77db46
     0x0077db44      4e4d           trap 0xd
  > 0x0077db46      4a31482e       tst.b 0x2e(a1, d4.l)
  < 0x0077db4a      660c           bne.b 0x77db58
     0x0077db4c      0c8600000063   cmpi.l 0x63, d6
  < 0x0077db52      6c04           bge.b 0x77db58
     0x0077db54      5286           addq.l 0x1, d6
  < 0x0077db56      60c4           bra.b 0x77db1c
  > 0x0077db58      4a31482e       tst.b 0x2e(a1, d4.l)
  < 0x0077db5c      6702           beq.b 0x77db60
  < 0x0077db5e      60b6           bra.b 0x77db16
  > 0x0077db60      4a13           tst.b (a3)
  < 0x0077db62      6718           beq.b 0x77db7c
     0x0077db64      487aa890       pea.l 0x7783f6(pc)
     0x0077db68      48780028       pea.l 0x28
     0x0077db6c      2f17           move.l (a7), -(a7)
     0x0077db6e      4eb9004047ea   jsr p_wts_o
     0x0077db74      dec5           adda.w d5, a7
     0x0077db76      4eb900404946   jsr p_wtln_o
  > 0x0077db7c      4ebad0c8       jsr PANEL_STACK.pull_stack(pc)
     0x0077db80      48780000       pea.l 0x0
     0x0077db84      4eb90078e24e   jsr PANEL_PREFETCH.wipe_prefetch
     0x0077db8a      584f           addq.w 0x4, a7
     0x0077db8c      48780000       pea.l 0x0
     0x0077db90      4eb90078e2bc   jsr PANEL_PREFETCH.fetch_from
     0x0077db96      584f           addq.w 0x4, a7
  < 0x0077db98      600001cc       bra.w 0x77dd66
     0x0077db9c      4a28157c       tst.b 0x157c(a0)
  < 0x0077dba0      6604           bne.b 0x77dba6
  < 0x0077dba2      600000a2       bra.w 0x77dc46
  > 0x0077dba6      1028155a       move.b 0x155a(a0), d0
     0x0077dbaa      0c000001       cmpi.b 0x1, d0
  < 0x0077dbae      6604           bne.b 0x77dbb4
  < 0x0077dbb0      60000094       bra.w 0x77dc46
  > 0x0077dbb4      0c000002       cmpi.b 0x2, d0
  < 0x0077dbb8      660e           bne.b 0x77dbc8
     0x0077dbba      123900871014   move.b 0x871014, d1
     0x0077dbc0      0c010001       cmpi.b 0x1, d1
  < 0x0077dbc4      6602           bne.b 0x77dbc8
  < 0x0077dbc6      607e           bra.b 0x77dc46
  > 0x0077dbc8      4a00           tst.b d0
  < 0x0077dbca      667a           bne.b 0x77dc46
     0x0077dbcc      3f281548       move.w 0x1548(a0), -(a7)
     0x0077dbd0      48780000       pea.l 0x0
     0x0077dbd4      4eb9007949f4   jsr PANEL_VIDEO.wipe_matte
     0x0077dbda      5c4f           addq.w 0x6, a7
     0x0077dbdc      7e00           moveq 0x0, d7
     0x0077dbde      32390087101c   move.w 0x87101c, d1
     0x0077dbe4      43bc0009       chk.w 0x9, d1
     0x0077dbe8      c3fc0012       muls.w 0x12, d1
     0x0077dbec      1428157c       move.b 0x157c(a0), d2
     0x0077dbf0      4882           ext.w d2
     0x0077dbf2      43faa82a       lea.l 0x77841e(pc), a1
     0x0077dbf6      3602           move.w d2, d3
     0x0077dbf8      e64b           lsr.w 0x3, d3
     0x0077dbfa      05313000       btst.l d2, (a1, d3.w)
  < 0x0077dbfe      662a           bne.b 0x77dc2a
     0x0077dc00      43faa81e       lea.l 0x778420(pc), a1
     0x0077dc04      3602           move.w d2, d3
     0x0077dc06      e64b           lsr.w 0x3, d3
     0x0077dc08      05313000       btst.l d2, (a1, d3.w)
  < 0x0077dc0c      673a           beq.b 0x77dc48
     0x0077dc0e      22790086eb32   movea.l 0x86eb32, a1
     0x0077dc14      b3e9fffc       cmpa.l -0x4(a1), a1
  < 0x0077dc18      6702           beq.b 0x77dc1c
     0x0077dc1a      4e4d           trap 0xd
  > 0x0077dc1c      43f11800       lea.l (a1, d1.l), a1
     0x0077dc20      32292a3a       move.w 0x2a3a(a1), d1
     0x0077dc24      0c410001       cmpi.w 0x1, d1
  < 0x0077dc28      6f1e           ble.b 0x77dc48
  > 0x0077dc2a      48780063       pea.l 0x63
     0x0077dc2e      4227           clr.b -(a7)
     0x0077dc30      1f3c0001       move.b 0x1, -(a7)
     0x0077dc34      4ebac904       jsr PANEL_STACK.ripple_stack(pc)
     0x0077dc38      504f           addq.w 0x8, a7
     0x0077dc3a      7e01           moveq 0x1, d7
     0x0077dc3c      13fc00010087.  move.b 0x1, 0x871001.l
  < 0x0077dc44      6002           bra.b 0x77dc48
  > 0x0077dc46      7e00           moveq 0x0, d7
  > 0x0077dc48      4a13           tst.b (a3)
  < 0x0077dc4a      6728           beq.b 0x77dc74
     0x0077dc4c      487aa7d5       pea.l 0x778423(pc)
     0x0077dc50      48780027       pea.l 0x27
     0x0077dc54      2f17           move.l (a7), -(a7)
     0x0077dc56      4eb9004047ea   jsr p_wts_o
     0x0077dc5c      defc000a       adda.w 0xa, a7
     0x0077dc60      1e87           move.b d7, (a7)
     0x0077dc62      48780005       pea.l 0x5
     0x0077dc66      4eb90040718c   jsr p_wtb_o
     0x0077dc6c      5c4f           addq.w 0x6, a7
     0x0077dc6e      4eb900404946   jsr p_wtln_o
  > 0x0077dc74      600000f0       bra.w 0x77dd66
     0x0077dc78      4a13           tst.b (a3)
  < 0x0077dc7a      6730           beq.b 0x77dcac
     0x0077dc7c      487aa7cd       pea.l 0x77844b(pc)
     0x0077dc80      48780018       pea.l 0x18
     0x0077dc84      2f17           move.l (a7), -(a7)
     0x0077dc86      4eb9004047ea   jsr p_wts_o
     0x0077dc8c      dec5           adda.w d5, a7
     0x0077dc8e      30281522       move.w 0x1522(a0), d0
     0x0077dc92      02800000ffff   andi.l 0xffff, d0
     0x0077dc98      2f00           move.l d0, -(a7)
     0x0077dc9a      48780000       pea.l 0x0
     0x0077dc9e      4eb9004070e4   jsr p_wti_o
     0x0077dca4      504f           addq.w 0x8, a7
     0x0077dca6      4eb900404946   jsr p_wtln_o
  > 0x0077dcac      7e00           moveq 0x0, d7
     0x0077dcae      22790086eb32   movea.l 0x86eb32, a1
     0x0077dcb4      b3e9fffc       cmpa.l -0x4(a1), a1
  < 0x0077dcb8      6702           beq.b 0x77dcbc
     0x0077dcba      4e4d           trap 0xd
  > 0x0077dcbc      4a29157c       tst.b 0x157c(a1)
  < 0x0077dcc0      6604           bne.b 0x77dcc6
  > 0x0077dcc2      7e00           moveq 0x0, d7
  < 0x0077dcc4      606e           bra.b 0x77dd34
  > 0x0077dcc6      1029155a       move.b 0x155a(a1), d0
     0x0077dcca      0c000001       cmpi.b 0x1, d0
  < 0x0077dcce      6602           bne.b 0x77dcd2
  < 0x0077dcd0      60f0           bra.b 0x77dcc2
  > 0x0077dcd2      0c000002       cmpi.b 0x2, d0
  < 0x0077dcd6      660e           bne.b 0x77dce6
     0x0077dcd8      123900871014   move.b 0x871014, d1
     0x0077dcde      0c010001       cmpi.b 0x1, d1
  < 0x0077dce2      6602           bne.b 0x77dce6
  < 0x0077dce4      60dc           bra.b 0x77dcc2
  > 0x0077dce6      4a00           tst.b d0
  < 0x0077dce8      664a           bne.b 0x77dd34
     0x0077dcea      32291522       move.w 0x1522(a1), d1
     0x0077dcee      02810000ffff   andi.l 0xffff, d1
     0x0077dcf4      0481ffff8000   subi.l 0xffff8000, d1
     0x0077dcfa      0c810000ffff   cmpi.l 0xffff, d1
  < 0x0077dd00      6302           bls.b 0x77dd04
     0x0077dd02      4e4f           trap 0xf
  > 0x0077dd04      0681ffff8000   addi.l 0xffff8000, d1
     0x0077dd0a      33c10087101c   move.w d1, 0x87101c
     0x0077dd10      423900871026   clr.b 0x871026
     0x0077dd16      4a691548       tst.w 0x1548(a1)
  < 0x0077dd1a      6f06           ble.b 0x77dd22
     0x0077dd1c      523900871026   addq.b 0x1, 0x871026.l
  > 0x0077dd22      48780063       pea.l 0x63
     0x0077dd26      4227           clr.b -(a7)
     0x0077dd28      1f3c0001       move.b 0x1, -(a7)
     0x0077dd2c      4ebac80c       jsr PANEL_STACK.ripple_stack(pc)
     0x0077dd30      504f           addq.w 0x8, a7
     0x0077dd32      7e01           moveq 0x1, d7
  > 0x0077dd34      4a13           tst.b (a3)
  < 0x0077dd36      6728           beq.b 0x77dd60
     0x0077dd38      487aa72a       pea.l 0x778464(pc)
     0x0077dd3c      48780026       pea.l 0x26
     0x0077dd40      2f17           move.l (a7), -(a7)
     0x0077dd42      4eb9004047ea   jsr p_wts_o
     0x0077dd48      defc000a       adda.w 0xa, a7
     0x0077dd4c      1e87           move.b d7, (a7)
     0x0077dd4e      48780005       pea.l 0x5
     0x0077dd52      4eb90040718c   jsr p_wtb_o
     0x0077dd58      5c4f           addq.w 0x6, a7
     0x0077dd5a      4eb900404946   jsr p_wtln_o
  > 0x0077dd60      6004           bra.b 0x77dd66
  < 0x0077dd62      6000fbd8       bra.w 0x77d93c
  < 0x0077dd66      6000fb40       bra.w 0x77d8a8              ; loc.0077d8a6+0x2
      > 0x0077dd6a      4a13           tst.b (a3)
       < 0x0077dd6c      6718           beq.b 0x77dd86
          0x0077dd6e      487aa71b       pea.l 0x77848b(pc)
          0x0077dd72      4878001c       pea.l 0x1c
          0x0077dd76      2f17           move.l (a7), -(a7)
          0x0077dd78      4eb9004047ea   jsr p_wts_o
          0x0077dd7e      dec5           adda.w d5, a7
          0x0077dd80      4eb900404946   jsr p_wtln_o
       > 0x0077dd86      554f           subq.w 0x2, a7
           0x0077dd88      4ebad5c4       jsr PANEL_STACK.pre_fetch(pc)
           0x0077dd8c      4a1f           tst.b (a7)+
       < 0x0077dd8e      6620           bne.b 0x77ddb0
          0x0077dd90      4a13           tst.b (a3)
      < 0x0077dd92      6718           beq.b 0x77ddac
         0x0077dd94      487aa712       pea.l 0x7784a8(pc)
         0x0077dd98      4878001c       pea.l 0x1c
         0x0077dd9c      2f17           move.l (a7), -(a7)
         0x0077dd9e      4eb9004047ea   jsr p_wts_o
         0x0077dda4      dec5           adda.w d5, a7
         0x0077dda6      4eb900404946   jsr p_wtln_o
      > 0x0077ddac      4ebabd22       jsr PANEL_STACK.error_next_on_a(pc)
       > 0x0077ddb0      20790086eb32   movea.l 0x86eb32, a0
           0x0077ddb6      b1e8fffc       cmpa.l -0x4(a0), a0
       < 0x0077ddba      6702           beq.b 0x77ddbe
          0x0077ddbc      4e4d           trap 0xd
       > 0x0077ddbe      4a281546       tst.b 0x1546(a0)
       < 0x0077ddc2      67000132       beq.w 0x77def6
          0x0077ddc6      9efc0038       suba.w 0x38, a7
          0x0077ddca      224f           movea.l a7, a1
          0x0077ddcc      45e81522       lea.l 0x1522(a0), a2
          0x0077ddd0      7034           moveq 0x34, d0
      > 0x0077ddd2      12da           move.b (a2)+, (a1)+
      < 0x0077ddd4      51c8fffc       dbra d0, 0x77ddd2
          0x0077ddd8      4ebaed3e       jsr PANEL_STACK.alternate_mode(pc)
          0x0077dddc      defc0036       adda.w 0x36, a7
          0x0077dde0      4a1f           tst.b (a7)+
      < 0x0077dde2      67000112       beq.w 0x77def6
         0x0077dde6      9efc0038       suba.w 0x38, a7
         0x0077ddea      224f           movea.l a7, a1
         0x0077ddec      45e81522       lea.l 0x1522(a0), a2
         0x0077ddf0      7034           moveq 0x34, d0
     > 0x0077ddf2      12da           move.b (a2)+, (a1)+
     < 0x0077ddf4      51c8fffc       dbra d0, 0x77ddf2
         0x0077ddf8      1f2e000c       move.b 0xc(a6), -(a7)
         0x0077ddfc      4ebaddb6       jsr PANEL_STACK.use_panel_count(pc)
         0x0077de00      defc0038       adda.w 0x38, a7
         0x0077de04      4a1f           tst.b (a7)+
     < 0x0077de06      6700008a       beq.w 0x77de92
        0x0077de0a      203900871010   move.l 0x871010, d0
        0x0077de10      5380           subq.l 0x1, d0
        0x0077de12      0c8000000007   cmpi.l 0x7, d0
    < 0x0077de18      6302           bls.b 0x77de1c
       0x0077de1a      4e4f           trap 0xf
    > 0x0077de1c      43f00800       lea.l (a0, d0.l), a1
        0x0077de20      4a291529       tst.b 0x1529(a1)
    < 0x0077de24      660000d0       bne.w 0x77def6
       0x0077de28      487aa69b       pea.l 0x7784c5(pc)
       0x0077de2c      48780031       pea.l 0x31
       0x0077de30      2f17           move.l (a7), -(a7)
       0x0077de32      4eb9004047ea   jsr p_wts_o
       0x0077de38      504f           addq.w 0x8, a7
       0x0077de3a      2eb900871010   move.l 0x871010, (a7)
       0x0077de40      48780000       pea.l 0x0
       0x0077de44      4eb9004070e4   jsr p_wti_o
       0x0077de4a      5c4f           addq.w 0x6, a7
       0x0077de4c      1ebc0029       move.b 0x29, (a7)
       0x0077de50      48780001       pea.l 0x1
       0x0077de54      4eb9004048b4   jsr p_wtc_o
       0x0077de5a      5c4f           addq.w 0x6, a7
       0x0077de5c      4eb900404946   jsr p_wtln_o
       0x0077de62      23fc00000001.  move.l 0x1, 0x871010.l
       0x0077de6c      487aa689       pea.l 0x7784f7(pc)
       0x0077de70      48780021       pea.l 0x21
       0x0077de74      2f17           move.l (a7), -(a7)
       0x0077de76      4eb9004047ea   jsr p_wts_o
       0x0077de7c      dec5           adda.w d5, a7
       0x0077de7e      203900871010   move.l 0x871010, d0
       0x0077de84      5380           subq.l 0x1, d0
       0x0077de86      0c8000000007   cmpi.l 0x7, d0
   < 0x0077de8c      6302           bls.b 0x77de90
      0x0077de8e      4e4f           trap 0xf
  > 0x0077de90      6044           bra.b 0x77ded6
   > 0x0077de92      20280006       move.l 0x6(a0), d0
       0x0077de96      5380           subq.l 0x1, d0
       0x0077de98      0c8000000007   cmpi.l 0x7, d0
   < 0x0077de9e      6302           bls.b 0x77dea2
      0x0077dea0      4e4f           trap 0xf
   > 0x0077dea2      43f00800       lea.l (a0, d0.l), a1
       0x0077dea6      4a291529       tst.b 0x1529(a1)
   < 0x0077deaa      664a           bne.b 0x77def6
      0x0077deac      217c00000001.  move.l 0x1, 0x6(a0)
      0x0077deb4      487aa663       pea.l 0x778519(pc)
      0x0077deb8      4878004e       pea.l 0x4e
      0x0077debc      2f17           move.l (a7), -(a7)
      0x0077debe      4eb9004047ea   jsr p_wts_o
      0x0077dec4      dec5           adda.w d5, a7
      0x0077dec6      20280006       move.l 0x6(a0), d0
      0x0077deca      5380           subq.l 0x1, d0
      0x0077decc      0c8000000007   cmpi.l 0x7, d0
  < 0x0077ded2      6302           bls.b 0x77ded6
     0x0077ded4      4e4f           trap 0xf
     ; CODE XREF from PANEL_STACK @ +0x67f4
  > 0x0077ded6      43f00800       lea.l (a0, d0.l), a1
       0x0077deda      10291529       move.b 0x1529(a1), d0
       0x0077dede      4880           ext.w d0
       0x0077dee0      48c0           ext.l d0
       0x0077dee2      2f00           move.l d0, -(a7)
       0x0077dee4      48780000       pea.l 0x0
       0x0077dee8      4eb9004070e4   jsr p_wti_o
       0x0077deee      504f           addq.w 0x8, a7
       0x0077def0      4eb900404946   jsr p_wtln_o
    > 0x0077def6      4ebaea88       jsr PANEL_STACK.prefetch_early(pc)
           0x0077defa      48780000       pea.l 0x0
           0x0077defe      48780063       pea.l 0x63
           0x0077df02      1f3c0001       move.b 0x1, -(a7)
           0x0077df06      4ebac840       jsr PANEL_STACK.refresh_stack(pc)
           0x0077df0a      defc000a       adda.w 0xa, a7
       < 0x0077df0e      607c           bra.b 0x77df8c
       > 0x0077df10      9efc0100       suba.w 0x100, a7
           0x0077df14      4eb900408ec0   jsr p_err_string
           0x0077df1a      41eefde2       lea.l -0x21e(a6), a0
           0x0077df1e      703f           moveq 0x3f, d0
       > 0x0077df20      20df           move.l (a7)+, (a0)+
       < 0x0077df22      51c8fffc       dbra d0, 0x77df20
           0x0077df26      4eb900404188   jsr p_Unlink
           0x0077df2c      9efc0100       suba.w 0x100, a7
           0x0077df30      486efd2c       pea.l -0x2d4(a6)
           0x0077df34      486efde2       pea.l -0x21e(a6)
           0x0077df38      4eb900783954   jsr PANEL_UTILS.format_entry
           0x0077df3e      504f           addq.w 0x8, a7
           0x0077df40      41eefde2       lea.l -0x21e(a6), a0
           0x0077df44      703f           moveq 0x3f, d0
       > 0x0077df46      20df           move.l (a7)+, (a0)+
       < 0x0077df48      51c8fffc       dbra d0, 0x77df46
           0x0077df4c      9efc0100       suba.w 0x100, a7
           0x0077df50      204f           movea.l a7, a0
           0x0077df52      43eefde2       lea.l -0x21e(a6), a1
           0x0077df56      703f           moveq 0x3f, d0
       > 0x0077df58      20d9           move.l (a1)+, (a0)+
       < 0x0077df5a      51c8fffc       dbra d0, 0x77df58
           0x0077df5e      1f3c0001       move.b 0x1, -(a7)
           0x0077df62      4ebab9ae       jsr PANEL_STACK.set_on_air(pc)
           0x0077df66      defc0100       adda.w 0x100, a7
           0x0077df6a      3ebc0002       move.w 0x2, (a7)
           0x0077df6e      9efc0100       suba.w 0x100, a7
           0x0077df72      204f           movea.l a7, a0
           0x0077df74      43eefde2       lea.l -0x21e(a6), a1
           0x0077df78      703f           moveq 0x3f, d0
       > 0x0077df7a      20d9           move.l (a1)+, (a0)+
       < 0x0077df7c      51c8fffc       dbra d0, 0x77df7a
           0x0077df80      4ebab71c       jsr PANEL_STACK.set_last_error(pc)
           0x0077df84      defc0102       adda.w 0x102, a7
           0x0077df88      422e0010       clr.b 0x10(a6)
           ; CODE XREF from PANEL_STACK @ +0x6872
       > 0x0077df8c      4cdf1fff       movem.l (a7)+, d0-d7/a0-a4
            0x0077df90      4e5e           unlk a6
            0x0077df92      4e75           rts
            ; CALL XREF from PANEL.hit_clr_take @ 0x774ad8
 386: PANEL_STACK.do_clear_take ();
           0x0077df94      4e56fed6       link.w a6, 0xfed6
           0x0077df98      bfd5           cmpa.l (a5), a7
       < 0x0077df9a      6206           bhi.b 0x77dfa2
          0x0077df9c      44fc0002       move.w 0x2, ccr
          0x0077dfa0      4e76           trapv
       > 0x0077dfa2      defc012a       adda.w 0x12a, a7
           0x0077dfa6      48e7f0f8       movem.l d0-d3/a0-a4, -(a7)
           0x0077dfaa      47f90086f342   lea.l 0x86f342, a3
           0x0077dfb0      49f90086eb3e   lea.l 0x86eb3e, a4
           0x0077dfb6      7201           moveq 0x1, d1
           0x0077dfb8      343c0100       move.w 0x100, d2
           0x0077dfbc      363c0102       move.w 0x102, d3
           0x0077dfc0      1d410008       move.b d1, 0x8(a6)
           0x0077dfc4      4878ff9c       pea.l 0xff9c
           0x0077dfc8      1f01           move.b d1, -(a7)
           0x0077dfca      4227           clr.b -(a7)
           0x0077dfcc      4ebac56c       jsr PANEL_STACK.ripple_stack(pc)
           0x0077dfd0      504f           addq.w 0x8, a7
           0x0077dfd2      20790086eb32   movea.l 0x86eb32, a0
           0x0077dfd8      b1e8fffc       cmpa.l -0x4(a0), a0
       < 0x0077dfdc      6702           beq.b 0x77dfe0
          0x0077dfde      4e4d           trap 0xd
       > 0x0077dfe0      594f           subq.w 0x4, a7
           0x0077dfe2      2f280006       move.l 0x6(a0), -(a7)
           0x0077dfe6      4878ffff       pea.l 0xffff
           0x0077dfea      514f           subq.w 0x8, a7
           0x0077dfec      224f           movea.l a7, a1
           0x0077dfee      45e81529       lea.l 0x1529(a0), a2
           0x0077dff2      7007           moveq 0x7, d0
       > 0x0077dff4      12da           move.b (a2)+, (a1)+
       < 0x0077dff6      51c8fffc       dbra d0, 0x77dff4
           0x0077dffa      4eb9006b9034   jsr USER1_UTILS.next_seq_num
           0x0077e000      defc0010       adda.w 0x10, a7
           0x0077e004      215f0006       move.l (a7)+, 0x6(a0)
           0x0077e008      48780000       pea.l 0x0
           0x0077e00c      48780063       pea.l 0x63
           0x0077e010      1f01           move.b d1, -(a7)
           0x0077e012      4ebac734       jsr PANEL_STACK.refresh_stack(pc)
           0x0077e016      defc000a       adda.w 0xa, a7
           0x0077e01a      4eb9007a2562   jsr SERIAL.temp_wait
           0x0077e020      48780000       pea.l 0x0
           0x0077e024      4eb90078e2bc   jsr PANEL_PREFETCH.fetch_from
           0x0077e02a      544f           addq.w 0x2, a7
           0x0077e02c      4ebad320       jsr PANEL_STACK.pre_fetch(pc)
           0x0077e030      4a1f           tst.b (a7)+
       < 0x0077e032      6654           bne.b 0x77e088
          0x0077e034      4a390086eb1a   tst.b 0x86eb1a
      < 0x0077e03a      671a           beq.b 0x77e056
         0x0077e03c      487aa52a       pea.l 0x778568(pc)
         0x0077e040      48780025       pea.l 0x25
         0x0077e044      2f17           move.l (a7), -(a7)
         0x0077e046      4eb9004047ea   jsr p_wts_o
         0x0077e04c      defc000c       adda.w 0xc, a7
         0x0077e050      4eb900404946   jsr p_wtln_o
      > 0x0077e056      9ec2           suba.w d2, a7
          0x0077e058      4eb900408ec0   jsr p_err_string
          0x0077e05e      204b           movea.l a3, a0
          0x0077e060      703f           moveq 0x3f, d0
      > 0x0077e062      20df           move.l (a7)+, (a0)+
      < 0x0077e064      51c8fffc       dbra d0, 0x77e062
          0x0077e068      3f01           move.w d1, -(a7)
          0x0077e06a      9ec2           suba.w d2, a7
          0x0077e06c      204f           movea.l a7, a0
          0x0077e06e      224b           movea.l a3, a1
          0x0077e070      703f           moveq 0x3f, d0
      > 0x0077e072      20d9           move.l (a1)+, (a0)+
      < 0x0077e074      51c8fffc       dbra d0, 0x77e072
          0x0077e078      4ebab624       jsr PANEL_STACK.set_last_error(pc)
          0x0077e07c      dec3           adda.w d3, a7
          0x0077e07e      4eb900404188   jsr p_Unlink
          0x0077e084      422e0008       clr.b 0x8(a6)
       > 0x0077e088      9ec2           suba.w d2, a7
           0x0077e08a      204f           movea.l a7, a0
           0x0077e08c      224b           movea.l a3, a1
           0x0077e08e      703f           moveq 0x3f, d0
       > 0x0077e090      20d9           move.l (a1)+, (a0)+
       < 0x0077e092      51c8fffc       dbra d0, 0x77e090
           0x0077e096      4227           clr.b -(a7)
           0x0077e098      4ebab904       jsr PANEL_STACK.set_next_on_air(pc)
           0x0077e09c      dec3           adda.w d3, a7
           0x0077e09e      4a94           tst.l (a4)
       < 0x0077e0a0      6c32           bge.b 0x77e0d4
          0x0077e0a2      422e0008       clr.b 0x8(a6)
          0x0077e0a6      41f90086f442   lea.l 0x86f442, a0
          0x0077e0ac      43faa4df       lea.l 0x77858d(pc), a1
          0x0077e0b0      7011           moveq 0x11, d0
      > 0x0077e0b2      10d9           move.b (a1)+, (a0)+
      < 0x0077e0b4      51c8fffc       dbra d0, 0x77e0b2
          0x0077e0b8      3f01           move.w d1, -(a7)
          0x0077e0ba      9ec2           suba.w d2, a7
          0x0077e0bc      204f           movea.l a7, a0
          0x0077e0be      43f90086f442   lea.l 0x86f442, a1
          0x0077e0c4      703f           moveq 0x3f, d0
      > 0x0077e0c6      20d9           move.l (a1)+, (a0)+
      < 0x0077e0c8      51c8fffc       dbra d0, 0x77e0c6
          0x0077e0cc      4ebab5d0       jsr PANEL_STACK.set_last_error(pc)
          0x0077e0d0      dec3           adda.w d3, a7
      < 0x0077e0d2      6014           bra.b 0x77e0e8
      > 0x0077e0d4      4a94           tst.l (a4)
      < 0x0077e0d6      6f10           ble.b 0x77e0e8
         0x0077e0d8      4eb90078ddba   jsr PANEL_PREFETCH.unfetch_clip
         0x0077e0de      4239008713cd   clr.b 0x8713cd
         0x0077e0e4      4ebae89a       jsr PANEL_STACK.prefetch_early(pc)
      > 0x0077e0e8      487aa4b6       pea.l 0x7785a0(pc)
           0x0077e0ec      4878000a       pea.l 0xa
           0x0077e0f0      2f17           move.l (a7), -(a7)
           0x0077e0f2      4eb9004047ea   jsr p_wts_o
           0x0077e0f8      504f           addq.w 0x8, a7
           0x0077e0fa      2e94           move.l (a4), (a7)
           0x0077e0fc      48780000       pea.l 0x0
           0x0077e100      4eb9004070e4   jsr p_wti_o
           0x0077e106      504f           addq.w 0x8, a7
           0x0077e108      4eb900404946   jsr p_wtln_o
           0x0077e10e      4cdf1f0f       movem.l (a7)+, d0-d3/a0-a4
           0x0077e112      4e5e           unlk a6
           0x0077e114      4e75           rts
 88: PANEL_STACK.report ();
           ; var int32_t var_5ba4h @ a6-0x5ba4
           ; var int32_t var_5ba2h @ a6-0x5ba2
           0x0077e116      4e56fe9c       link.w a6, 0xfe9c
           0x0077e11a      bfd5           cmpa.l (a5), a7
       < 0x0077e11c      6206           bhi.b 0x77e124
          0x0077e11e      44fc0002       move.w 0x2, ccr
          0x0077e122      4e76           trapv
       > 0x0077e124      defc0112       adda.w 0x112, a7
           0x0077e128      48e780c0       movem.l d0/a0-a1, -(a7)
           0x0077e12c      206e0008       movea.l 0x8(a6), a0
           0x0077e130      9efc0100       suba.w 0x100, a7
           0x0077e134      224f           movea.l a7, a1
           0x0077e136      303c00ff       move.w 0xff, d0
       > 0x0077e13a      12d8           move.b (a0)+, (a1)+
       < 0x0077e13c      51c8fffc       dbra d0, 0x77e13a
           0x0077e140      4227           clr.b -(a7)
           0x0077e142      4ebab85a       jsr PANEL_STACK.set_next_on_air(pc)
           0x0077e146      defc0102       adda.w 0x102, a7
           0x0077e14a      2d7aa45effae   move.l 0x7785aa(pc), -0x52(a6)
           0x0077e150      1d7aa45cffb2   move.b 0x7785ae(pc), -0x4e(a6)
           0x0077e156      48780008       pea.l 0x8
           0x0077e15a      486effae       pea.l -0x52(a6)
           0x0077e15e      4eb9007a1f06   jsr SERIAL.write_window
           0x0077e164      504f           addq.w 0x8, a7
           0x0077e166      4cdf0301       movem.l (a7)+, d0/a0-a1
           0x0077e16a      4e5e           unlk a6
           0x0077e16c      4e75           rts
 30: PANEL_STACK.defeat_exceptio ();
           0x0077e16e      4e56fffc       link.w a6, 0xfffc
           0x0077e172      bfd5           cmpa.l (a5), a7
       < 0x0077e174      6206           bhi.b 0x77e17c
          0x0077e176      44fc0002       move.w 0x2, ccr
          0x0077e17a      4e76           trapv
       > 0x0077e17c      defc0004       adda.w 0x4, a7
           0x0077e180      4a2c0065       tst.b 0x65(a4)
           0x0077e184      4a2c0064       tst.b 0x64(a4)
           0x0077e188      4e5e           unlk a6
           0x0077e18a      4e75           rts
            ; CALL XREF from PANEL.hit_record @ 0x774b22
 1044: PANEL_STACK.do_rec_stack ();
           ; var int32_t var_6d18h @ a6-0x6d18
           ; var int32_t var_6d16h @ a6-0x6d16
           ; var int32_t var_6d14h @ a6-0x6d14
           ; var int32_t var_8h @ a7+0x8
           0x0077e18c      4e56fd4e       link.w a6, 0xfd4e
           0x0077e190      bfd5           cmpa.l (a5), a7
       < 0x0077e192      6206           bhi.b 0x77e19a
          0x0077e194      44fc0002       move.w 0x2, ccr
          0x0077e198      4e76           trapv
       > 0x0077e19a      defc0140       adda.w 0x140, a7
           0x0077e19e      48e7fff0       movem.l d0-d7/a0-a3, -(a7)
           0x0077e1a2      45f90086eb2e   lea.l 0x86eb2e, a2
           0x0077e1a8      47f900871016   lea.l 0x871016, a3
           0x0077e1ae      7401           moveq 0x1, d2
           0x0077e1b0      3a3c0100       move.w 0x100, d5
           0x0077e1b4      3c3c0102       move.w 0x102, d6
           0x0077e1b8      422efef3       clr.b -0x10d(a6)
           0x0077e1bc      422efef2       clr.b -0x10e(a6)
           0x0077e1c0      554f           subq.w 0x2, a7
           0x0077e1c2      486efe8e       pea.l -0x172(a6)
           0x0077e1c6      4eb900404434   jsr fcn.00404434
           0x0077e1cc      584f           addq.w 0x4, a7
           0x0077e1ce      4a1f           tst.b (a7)+
       < 0x0077e1d0      67000314       beq.w 0x77e4e6
          0x0077e1d4      4a2e0008       tst.b 0x8(a6)
      < 0x0077e1d8      6710           beq.b 0x77e1ea
         0x0077e1da      202e000a       move.l 0xa(a6), d0
         0x0077e1de      0c800000ffff   cmpi.l 0xffff, d0
     < 0x0077e1e4      6302           bls.b 0x77e1e8
        0x0077e1e6      4e4f           trap 0xf
     > 0x0077e1e8      3480           move.w d0, (a2)
      > 0x0077e1ea      4a52           tst.w (a2)
      < 0x0077e1ec      6614           bne.b 0x77e202
         0x0077e1ee      48780005       pea.l 0x5
         0x0077e1f2      3f12           move.w (a2), -(a7)
         0x0077e1f4      486efe8e       pea.l -0x172(a6)
         0x0077e1f8      4eb9007835b0   jsr PANEL_UTILS.panel_error
         0x0077e1fe      defc000a       adda.w 0xa, a7
      > 0x0077e202      7e9c           moveq 0x9c, d7
      > 0x0077e204      2007           move.l d7, d0
         0x0077e206      0480ffffff9c   subi.l 0xffffff9c, d0
         0x0077e20c      0c80000000c7   cmpi.l 0xc7, d0
     < 0x0077e212      6302           bls.b 0x77e216
        0x0077e214      4e4f           trap 0xf
     > 0x0077e216      2800           move.l d0, d4
         0x0077e218      7636           moveq 0x36, d3
         0x0077e21a      4eb900406a74   jsr fcn.00406a74
         0x0077e220      20790086eb32   movea.l 0x86eb32, a0
         0x0077e226      b1e8fffc       cmpa.l -0x4(a0), a0
     < 0x0077e22a      6702           beq.b 0x77e22e
        0x0077e22c      4e4d           trap 0xd
     > 0x0077e22e      4a30482e       tst.b 0x2e(a0, d4.l)
     < 0x0077e232      6608           bne.b 0x77e23c
        0x0077e234      4a87           tst.l d7
    < 0x0077e236      6c04           bge.b 0x77e23c
       0x0077e238      5287           addq.l 0x1, d7
    < 0x0077e23a      60c8           bra.b 0x77e204
    > 0x0077e23c      1013           move.b (a3), d0
          0x0077e23e      b002           cmp.b d2, d0
      < 0x0077e240      663e           bne.b 0x77e280
         0x0077e242      554f           subq.w 0x2, a7
         0x0077e244      3f12           move.w (a2), -(a7)
         0x0077e246      1f06           move.b d6, -(a7)
         0x0077e248      2f13           move.l (a3), -(a7)
         0x0077e24a      4eb9006bdcc8   jsr USER2_DISK.exch_num
         0x0077e250      504f           addq.w 0x8, a7
         0x0077e252      4a1f           tst.b (a7)+
     < 0x0077e254      6714           beq.b 0x77e26a
        0x0077e256      9ec5           suba.w d5, a7
        0x0077e258      204f           movea.l a7, a0
        0x0077e25a      43faa353       lea.l 0x7785af(pc), a1
        0x0077e25e      721e           moveq 0x1e, d1
    > 0x0077e260      10d9           move.b (a1)+, (a0)+
    < 0x0077e262      51c9fffc       dbra d1, 0x77e260
    < 0x0077e266      60000094       bra.w 0x77e2fc
    > 0x0077e26a      9ec5           suba.w d5, a7
        0x0077e26c      204f           movea.l a7, a0
        0x0077e26e      43faa35e       lea.l 0x7785ce(pc), a1
        0x0077e272      7206           moveq 0x6, d1
    > 0x0077e274      20d9           move.l (a1)+, (a0)+
    < 0x0077e276      51c9fffc       dbra d1, 0x77e274
        0x0077e27a      30d9           move.w (a1)+, (a0)+
        0x0077e27c      10d9           move.b (a1)+, (a0)+
    < 0x0077e27e      607c           bra.b 0x77e2fc
    > 0x0077e280      b006           cmp.b d6, d0
    < 0x0077e282      6638           bne.b 0x77e2bc
       0x0077e284      554f           subq.w 0x2, a7
       0x0077e286      3f12           move.w (a2), -(a7)
       0x0077e288      1f06           move.b d6, -(a7)
       0x0077e28a      2f13           move.l (a3), -(a7)
       0x0077e28c      4eb9006bdcc8   jsr USER2_DISK.exch_num
       0x0077e292      504f           addq.w 0x8, a7
       0x0077e294      4a1f           tst.b (a7)+
   < 0x0077e296      6712           beq.b 0x77e2aa
      0x0077e298      9ec5           suba.w d5, a7
      0x0077e29a      204f           movea.l a7, a0
      0x0077e29c      43faa34f       lea.l 0x7785ed(pc), a1
      0x0077e2a0      721b           moveq 0x1b, d1
  > 0x0077e2a2      10d9           move.b (a1)+, (a0)+
  < 0x0077e2a4      51c9fffc       dbra d1, 0x77e2a2
  < 0x0077e2a8      6052           bra.b 0x77e2fc
  > 0x0077e2aa      9ec5           suba.w d5, a7
      0x0077e2ac      204f           movea.l a7, a0
      0x0077e2ae      43faa359       lea.l 0x778609(pc), a1
      0x0077e2b2      721b           moveq 0x1b, d1
  > 0x0077e2b4      10d9           move.b (a1)+, (a0)+
  < 0x0077e2b6      51c9fffc       dbra d1, 0x77e2b4
  < 0x0077e2ba      6040           bra.b 0x77e2fc
  > 0x0077e2bc      554f           subq.w 0x2, a7
      0x0077e2be      3f12           move.w (a2), -(a7)
      0x0077e2c0      1f06           move.b d6, -(a7)
      0x0077e2c2      2f13           move.l (a3), -(a7)
      0x0077e2c4      4eb9006bdcc8   jsr USER2_DISK.exch_num
      0x0077e2ca      504f           addq.w 0x8, a7
      0x0077e2cc      4a1f           tst.b (a7)+
  < 0x0077e2ce      6712           beq.b 0x77e2e2
     0x0077e2d0      9ec5           suba.w d5, a7
     0x0077e2d2      204f           movea.l a7, a0
     0x0077e2d4      43faa34f       lea.l 0x778625(pc), a1
     0x0077e2d8      721c           moveq 0x1c, d1
 > 0x0077e2da      10d9           move.b (a1)+, (a0)+
 < 0x0077e2dc      51c9fffc       dbra d1, 0x77e2da
 < 0x0077e2e0      601a           bra.b 0x77e2fc
 > 0x0077e2e2      9efc00fc       suba.w 0xfc, a7
     0x0077e2e6      2f3aa35a       move.l 0x778642(pc), -(a7)
     0x0077e2ea      2f7aa35a0004   move.l 0x778646(pc), 0x4(a7)
     0x0077e2f0      2f7aa3580008   move.l 0x77864a(pc), 0x8(a7)
     0x0077e2f6      2f7aa356000c   move.l 0x77864e(pc), 0xc(a7)
 > 0x0077e2fc      1f02           move.b d2, -(a7)
          0x0077e2fe      4ebab612       jsr PANEL_STACK.set_on_air(pc)
          0x0077e302      dec6           adda.w d6, a7
          0x0077e304      4a390086eb1a   tst.b 0x86eb1a
      < 0x0077e30a      6726           beq.b 0x77e332
         0x0077e30c      487aa345       pea.l 0x778653(pc)
         0x0077e310      48780018       pea.l 0x18
         0x0077e314      2f17           move.l (a7), -(a7)
         0x0077e316      4eb9004047ea   jsr p_wts_o
         0x0077e31c      504f           addq.w 0x8, a7
         0x0077e31e      2e87           move.l d7, (a7)
         0x0077e320      48780000       pea.l 0x0
         0x0077e324      4eb9004070e4   jsr p_wti_o
         0x0077e32a      504f           addq.w 0x8, a7
         0x0077e32c      4eb900404946   jsr p_wtln_o
      > 0x0077e332      4a2e0008       tst.b 0x8(a6)
      < 0x0077e336      6742           beq.b 0x77e37a
         0x0077e338      3d52fff6       move.w (a2), -0xa(a6)
         0x0077e33c      554f           subq.w 0x2, a7
         0x0077e33e      4227           clr.b -(a7)
         0x0077e340      486efff6       pea.l -0xa(a6)
         0x0077e344      1f2e0008       move.b 0x8(a6), -(a7)
         0x0077e348      2f13           move.l (a3), -(a7)
         0x0077e34a      486efee8       pea.l -0x118(a6)
         0x0077e34e      4eb9006b05ba   jsr USER.get_snum
         0x0077e354      defc0010       adda.w 0x10, a7
         0x0077e358      4a1f           tst.b (a7)+
     < 0x0077e35a      6718           beq.b 0x77e374
        0x0077e35c      48780005       pea.l 0x5
        0x0077e360      3f2efff6       move.w -0xa(a6), -(a7)
        0x0077e364      486efe8e       pea.l -0x172(a6)
        0x0077e368      4eb9007835b0   jsr PANEL_UTILS.panel_error
        0x0077e36e      defc000a       adda.w 0xa, a7
    < 0x0077e372      6006           bra.b 0x77e37a
    > 0x0077e374      4eb900404188   jsr p_Unlink
    > 0x0077e37a      10390086ec42   move.b 0x86ec42, d0
          0x0077e380      b002           cmp.b d2, d0
      < 0x0077e382      6316           bls.b 0x77e39a
         0x0077e384      41eefef5       lea.l -0x10b(a6), a0
         0x0077e388      43f90086ec42   lea.l 0x86ec42, a1
         0x0077e38e      303c00ff       move.w 0xff, d0
     > 0x0077e392      10d9           move.b (a1)+, (a0)+
     < 0x0077e394      51c8fffc       dbra d0, 0x77e392
     < 0x0077e398      6014           bra.b 0x77e3ae
     > 0x0077e39a      41eefef5       lea.l -0x10b(a6), a0
         0x0077e39e      43f90086eb42   lea.l 0x86eb42, a1
         0x0077e3a4      303c00ff       move.w 0xff, d0
     > 0x0077e3a8      10d9           move.b (a1)+, (a0)+
     < 0x0077e3aa      51c8fffc       dbra d0, 0x77e3a8
     > 0x0077e3ae      2d7a92ecfee8   move.l 0x77769c(pc), -0x118(a6)
          0x0077e3b4      2d7a92eafeec   move.l 0x7776a0(pc), -0x114(a6)
          0x0077e3ba      3d7a92e8fef0   move.w 0x7776a4(pc), -0x110(a6)
          0x0077e3c0      554f           subq.w 0x2, a7
          0x0077e3c2      2f390086eb32   move.l 0x86eb32, -(a7)
          0x0077e3c8      2f07           move.l d7, -(a7)
          0x0077e3ca      2f13           move.l (a3), -(a7)
          0x0077e3cc      486efef5       pea.l -0x10b(a6)
          0x0077e3d0      4852           pea.l (a2)
          0x0077e3d2      486efee8       pea.l -0x118(a6)
          0x0077e3d6      486efe8e       pea.l -0x172(a6)
          0x0077e3da      487afd3a       pea.l PANEL_STACK.report(pc)
          0x0077e3de      4eb9007986f4   jsr PANEL_VIDEO.save_local_stac
          0x0077e3e4      defc0020       adda.w 0x20, a7
          0x0077e3e8      4a1f           tst.b (a7)+
      < 0x0077e3ea      661e           bne.b 0x77e40a
         0x0077e3ec      3012           move.w (a2), d0
         0x0077e3ee      02800000ffff   andi.l 0xffff, d0
         0x0077e3f4      2f00           move.l d0, -(a7)
         0x0077e3f6      4eb900404012   jsr p_Push
         0x0077e3fc      584f           addq.w 0x4, a7
         0x0077e3fe      486efe8e       pea.l -0x172(a6)
         0x0077e402      4eb900404468   jsr fcn.00404468
         0x0077e408      584f           addq.w 0x4, a7
      > 0x0077e40a      3012           move.w (a2), d0
          0x0077e40c      02800000ffff   andi.l 0xffff, d0
          0x0077e412      23c00086eb36   move.l d0, 0x86eb36
          0x0077e418      23d30086eb3a   move.l (a3), 0x86eb3a
          0x0077e41e      41f90086f042   lea.l 0x86f042, a0
          0x0077e424      43eefef5       lea.l -0x10b(a6), a1
          0x0077e428      323c00ff       move.w 0xff, d1
      > 0x0077e42c      10d9           move.b (a1)+, (a0)+
      < 0x0077e42e      51c9fffc       dbra d1, 0x77e42c
          0x0077e432      1d42fef2       move.b d2, -0x10e(a6)
          0x0077e436      1d42fef3       move.b d2, -0x10d(a6)
          0x0077e43a      1213           move.b (a3), d1
          0x0077e43c      b202           cmp.b d2, d1
      < 0x0077e43e      6648           bne.b 0x77e488
         0x0077e440      554f           subq.w 0x2, a7
         0x0077e442      3f00           move.w d0, -(a7)
         0x0077e444      1f06           move.b d6, -(a7)
         0x0077e446      2f13           move.l (a3), -(a7)
         0x0077e448      4eb9006bdcc8   jsr USER2_DISK.exch_num
         0x0077e44e      504f           addq.w 0x8, a7
         0x0077e450      4a1f           tst.b (a7)+
     < 0x0077e452      6718           beq.b 0x77e46c
        0x0077e454      4281           clr.l d1
        0x0077e456      3212           move.w (a2), d1
        0x0077e458      2f01           move.l d1, -(a7)
        0x0077e45a      9ec5           suba.w d5, a7
        0x0077e45c      204f           movea.l a7, a0
        0x0077e45e      43faa20b       lea.l 0x77866b(pc), a1
        0x0077e462      721e           moveq 0x1e, d1
    > 0x0077e464      10d9           move.b (a1)+, (a0)+
    < 0x0077e466      51c9fffc       dbra d1, 0x77e464
    < 0x0077e46a      6068           bra.b 0x77e4d4
    > 0x0077e46c      4281           clr.l d1
        0x0077e46e      3212           move.w (a2), d1
        0x0077e470      2f01           move.l d1, -(a7)
        0x0077e472      9ec5           suba.w d5, a7
        0x0077e474      204f           movea.l a7, a0
        0x0077e476      43faa212       lea.l 0x77868a(pc), a1
        0x0077e47a      7206           moveq 0x6, d1
    > 0x0077e47c      20d9           move.l (a1)+, (a0)+
    < 0x0077e47e      51c9fffc       dbra d1, 0x77e47c
        0x0077e482      30d9           move.w (a1)+, (a0)+
        0x0077e484      10d9           move.b (a1)+, (a0)+
    < 0x0077e486      604c           bra.b 0x77e4d4
    > 0x0077e488      554f           subq.w 0x2, a7
        0x0077e48a      3f00           move.w d0, -(a7)
        0x0077e48c      1f06           move.b d6, -(a7)
        0x0077e48e      2f13           move.l (a3), -(a7)
        0x0077e490      4eb9006bdcc8   jsr USER2_DISK.exch_num
        0x0077e496      504f           addq.w 0x8, a7
        0x0077e498      4a1f           tst.b (a7)+
    < 0x0077e49a      6718           beq.b 0x77e4b4
       0x0077e49c      4281           clr.l d1
       0x0077e49e      3212           move.w (a2), d1
       0x0077e4a0      2f01           move.l d1, -(a7)
       0x0077e4a2      9ec5           suba.w d5, a7
       0x0077e4a4      204f           movea.l a7, a0
       0x0077e4a6      43faa201       lea.l 0x7786a9(pc), a1
       0x0077e4aa      721c           moveq 0x1c, d1
   > 0x0077e4ac      10d9           move.b (a1)+, (a0)+
   < 0x0077e4ae      51c9fffc       dbra d1, 0x77e4ac
   < 0x0077e4b2      6020           bra.b 0x77e4d4
   > 0x0077e4b4      4281           clr.l d1
       0x0077e4b6      3212           move.w (a2), d1
       0x0077e4b8      2f01           move.l d1, -(a7)
       0x0077e4ba      9efc00fc       suba.w 0xfc, a7
       0x0077e4be      2f3aa206       move.l 0x7786c6(pc), -(a7)
       0x0077e4c2      2f7aa2060004   move.l 0x7786ca(pc), 0x4(a7)
       0x0077e4c8      2f7aa2040008   move.l 0x7786ce(pc), 0x8(a7)
       0x0077e4ce      2f7aa202000c   move.l 0x7786d2(pc), 0xc(a7)
   > 0x0077e4d4      1f02           move.b d2, -(a7)
          0x0077e4d6      4ebab68c       jsr PANEL_STACK.format_on_air(pc)
          0x0077e4da      defc0106       adda.w 0x106, a7
          0x0077e4de      1d42000e       move.b d2, 0xe(a6)
      < 0x0077e4e2      6000009c       bra.w 0x77e580
      > 0x0077e4e6      4a2efef3       tst.b -0x10d(a6)
      < 0x0077e4ea      67000090       beq.w 0x77e57c
         0x0077e4ee      4a2efef2       tst.b -0x10e(a6)
     < 0x0077e4f2      6762           beq.b 0x77e556
        0x0077e4f4      554f           subq.w 0x2, a7
        0x0077e4f6      2f2efeee       move.l -0x112(a6), -(a7)
        0x0077e4fa      2f2efeea       move.l -0x116(a6), -(a7)
        0x0077e4fe      3f2efee8       move.w -0x118(a6), -(a7)
        0x0077e502      4eb9005dd75a   jsr SEARCH_DISKS.sea_deindex
        0x0077e508      defc000a       adda.w 0xa, a7
        0x0077e50c      4a1f           tst.b (a7)+
    < 0x0077e50e      6646           bne.b 0x77e556
       0x0077e510      487aa1c5       pea.l 0x7786d7(pc)
       0x0077e514      48780024       pea.l 0x24
       0x0077e518      2f17           move.l (a7), -(a7)
       0x0077e51a      4eb9004047ea   jsr p_wts_o
       0x0077e520      defc000c       adda.w 0xc, a7
       0x0077e524      4eb900404946   jsr p_wtln_o
       0x0077e52a      9ec5           suba.w d5, a7
       0x0077e52c      4eb900408ec0   jsr p_err_string
       0x0077e532      486f0001       pea.l 0x1(a7)
       0x0077e536      42a7           clr.l -(a7)
       0x0077e538      1f6f00080003   move.b 0x8(a7), 0x3(a7)
       0x0077e53e      2f17           move.l (a7), -(a7)
       0x0077e540      4eb9004047ea   jsr p_wts_o
       0x0077e546      defc010c       adda.w 0x10c, a7
       0x0077e54a      4eb900404946   jsr p_wtln_o
       0x0077e550      4eb900404188   jsr p_Unlink
    > 0x0077e556      554f           subq.w 0x2, a7
         0x0077e558      2f2efeee       move.l -0x112(a6), -(a7)
         0x0077e55c      2f2efeea       move.l -0x116(a6), -(a7)
         0x0077e560      3f2efee8       move.w -0x118(a6), -(a7)
         0x0077e564      4eb900605066   jsr F9_FILERDWRT.f_delete
         0x0077e56a      defc000a       adda.w 0xa, a7
         0x0077e56e      4a1f           tst.b (a7)+
     < 0x0077e570      6606           bne.b 0x77e578
        0x0077e572      4eb900404188   jsr p_Unlink
     > 0x0077e578      422efef3       clr.b -0x10d(a6)
      > 0x0077e57c      422e000e       clr.b 0xe(a6)
      > 0x0077e580      4a2efef3       tst.b -0x10d(a6)
       < 0x0077e584      670c           beq.b 0x77e592
          0x0077e586      2f2efee8       move.l -0x118(a6), -(a7)
          0x0077e58a      4eb9005dd9c6   jsr SEARCH_DISKS.sea_trample_on_
          0x0077e590      584f           addq.w 0x4, a7
       > 0x0077e592      13c20086eb1e   move.b d2, 0x86eb1e
           0x0077e598      4cdf0fff       movem.l (a7)+, d0-d7/a0-a3
           0x0077e59c      4e5e           unlk a6
           0x0077e59e      4e75           rts
            0x0077e5a0      4e56fff8       link.w a6, 0xfff8
            0x0077e5a4      bfd5           cmpa.l (a5), a7
        < 0x0077e5a6      6206           bhi.b 0x77e5ae
           0x0077e5a8      44fc0002       move.w 0x2, ccr
           0x0077e5ac      4e76           trapv
        > 0x0077e5ae      defc0008       adda.w 0x8, a7
            0x0077e5b2      48e78000       movem.l d0, -(a7)
            0x0077e5b6      202c004a       move.l 0x4a(a4), d0
            0x0077e5ba      0c80ffff0001   cmpi.l 0xffff0001, d0
            0x0077e5c0      4a2c0059       tst.b 0x59(a4)
            0x0077e5c4      4a2c0058       tst.b 0x58(a4)
            0x0077e5c8      4a2c005a       tst.b 0x5a(a4)
            0x0077e5cc      4cdf0001       movem.l (a7)+, d0
            0x0077e5d0      4e5e           unlk a6
            0x0077e5d2      4e75           rts
            ; CALL XREF from PANEL.hit_record @ 0x774b3c
            ; CALL XREF from PANEL_CURSOR.hit_record @ 0x79f16a
 830: PANEL_STACK.do_rec_pic_or_p ();
           ; var int32_t var_8h @ a7+0x8
           0x0077e5d4      4e56fd0a       link.w a6, 0xfd0a
           0x0077e5d8      bfd5           cmpa.l (a5), a7
       < 0x0077e5da      6206           bhi.b 0x77e5e2
          0x0077e5dc      44fc0002       move.w 0x2, ccr
          0x0077e5e0      4e76           trapv
       > 0x0077e5e2      defc0146       adda.w 0x146, a7
           0x0077e5e6      48e7fff8       movem.l d0-d7/a0-a4, -(a7)
           0x0077e5ea      47f90086eb30   lea.l 0x86eb30, a3
           0x0077e5f0      49eefeac       lea.l -0x154(a6), a4
           0x0077e5f4      2d7cffff0001.  move.l 0xffff0001, -0x166(a6)
           0x0077e5fc      422efea9       clr.b -0x157(a6)
           0x0077e600      422efea8       clr.b -0x158(a6)
           0x0077e604      422efeaa       clr.b -0x156(a6)
           0x0077e608      554f           subq.w 0x2, a7
           0x0077e60a      486efe50       pea.l -0x1b0(a6)
           0x0077e60e      4eb900404434   jsr fcn.00404434
           0x0077e614      584f           addq.w 0x4, a7
           0x0077e616      4a1f           tst.b (a7)+
       < 0x0077e618      67000a1a       beq.w 0x77f034
          0x0077e61c      7e00           moveq 0x0, d7
          0x0077e61e      4a2e0008       tst.b 0x8(a6)
      < 0x0077e622      670c           beq.b 0x77e630
         0x0077e624      202e000a       move.l 0xa(a6), d0
         0x0077e628      0c8000000009   cmpi.l 0x9, d0
     < 0x0077e62e      6f14           ble.b 0x77e644
     > 0x0077e630      554f           subq.w 0x2, a7
         0x0077e632      4eb90079f52a   jsr PANEL_CURSOR.cursoron
         0x0077e638      102e0008       move.b 0x8(a6), d0
         0x0077e63c      4400           neg.b d0
         0x0077e63e      5200           addq.b 0x1, d0
         0x0077e640      c01f           and.b (a7)+, d0
     < 0x0077e642      6702           beq.b 0x77e646
     > 0x0077e644      5207           addq.b 0x1, d7
      > 0x0077e646      4a07           tst.b d7
      < 0x0077e648      670001a4       beq.w 0x77e7ee
         0x0077e64c      554f           subq.w 0x2, a7
         0x0077e64e      4eb90079f52a   jsr PANEL_CURSOR.cursoron
         0x0077e654      4a1f           tst.b (a7)+
     < 0x0077e656      6622           bne.b 0x77e67a
        0x0077e658      9efc0100       suba.w 0x100, a7
        0x0077e65c      204f           movea.l a7, a0
        0x0077e65e      43faa09b       lea.l 0x7786fb(pc), a1
        0x0077e662      7013           moveq 0x13, d0
    > 0x0077e664      10d9           move.b (a1)+, (a0)+
    < 0x0077e666      51c8fffc       dbra d0, 0x77e664
        0x0077e66a      41eefe50       lea.l -0x1b0(a6), a0
        0x0077e66e      2f08           move.l a0, -(a7)
        0x0077e670      4eb900408e0e   jsr p_error
        0x0077e676      defc0104       adda.w 0x104, a7
     > 0x0077e67a      4a2e0008       tst.b 0x8(a6)
     < 0x0077e67e      6712           beq.b 0x77e692
        0x0077e680      202e000a       move.l 0xa(a6), d0
        0x0077e684      0c800000ffff   cmpi.l 0xffff, d0
    < 0x0077e68a      6302           bls.b 0x77e68e
       0x0077e68c      4e4f           trap 0xf
    > 0x0077e68e      3680           move.w d0, (a3)
    < 0x0077e690      601e           bra.b 0x77e6b0
    > 0x0077e692      3013           move.w (a3), d0
        0x0077e694      41faa07a       lea.l 0x778710(pc), a0
        0x0077e698      3200           move.w d0, d1
        0x0077e69a      e649           lsr.w 0x3, d1
        0x0077e69c      0c410020       cmpi.w 0x20, d1
    < 0x0077e6a0      6d04           blt.b 0x77e6a6
       0x0077e6a2      7200           moveq 0x0, d1
   < 0x0077e6a4      6004           bra.b 0x77e6aa
   > 0x0077e6a6      01301000       btst.l d0, (a0, d1.w)
   < 0x0077e6aa      6604           bne.b 0x77e6b0
       0x0077e6ac      36bc0002       move.w 0x2, (a3)
    > 0x0077e6b0      4a53           tst.w (a3)
     < 0x0077e6b2      6614           bne.b 0x77e6c8
        0x0077e6b4      48780006       pea.l 0x6
        0x0077e6b8      3f13           move.w (a3), -(a7)
        0x0077e6ba      486efe50       pea.l -0x1b0(a6)
        0x0077e6be      4eb9007835b0   jsr PANEL_UTILS.panel_error
        0x0077e6c4      defc000a       adda.w 0xa, a7
     > 0x0077e6c8      3013           move.w (a3), d0
         0x0077e6ca      0c400001       cmpi.w 0x1, d0
     < 0x0077e6ce      6612           bne.b 0x77e6e2
        0x0077e6d0      204c           movea.l a4, a0
        0x0077e6d2      43fa90fd       lea.l 0x7777d1(pc), a1
        0x0077e6d6      7211           moveq 0x11, d1
    > 0x0077e6d8      10d9           move.b (a1)+, (a0)+
    < 0x0077e6da      51c9fffc       dbra d1, 0x77e6d8
    < 0x0077e6de      600000c6       bra.w 0x77e7a6
    > 0x0077e6e2      02800000ffff   andi.l 0xffff, d0
        0x0077e6e8      0c8000000009   cmpi.l 0x9, d0
    < 0x0077e6ee      6302           bls.b 0x77e6f2
       0x0077e6f0      4e4f           trap 0xf
    > 0x0077e6f2      2800           move.l d0, d4
        0x0077e6f4      7612           moveq 0x12, d3
        0x0077e6f6      4eb900406a74   jsr fcn.00406a74
        0x0077e6fc      0480ffff8000   subi.l 0xffff8000, d0
        0x0077e702      0c800000ffff   cmpi.l 0xffff, d0
    < 0x0077e708      6302           bls.b 0x77e70c
       0x0077e70a      4e4f           trap 0xf
    > 0x0077e70c      0680ffff8000   addi.l 0xffff8000, d0
        0x0077e712      3f00           move.w d0, -(a7)
        0x0077e714      20790086eb32   movea.l 0x86eb32, a0
        0x0077e71a      b1e8fffc       cmpa.l -0x4(a0), a0
    < 0x0077e71e      6702           beq.b 0x77e722
       0x0077e720      4e4d           trap 0xd
    > 0x0077e722      41f04800       lea.l (a0, d4.l), a0
        0x0077e726      48682a3a       pea.l 0x2a3a(a0)
        0x0077e72a      4eb90079f906   jsr PANEL_CURSOR.cursor_to_prese
        0x0077e730      5c4f           addq.w 0x6, a7
        0x0077e732      4281           clr.l d1
        0x0077e734      3213           move.w (a3), d1
        0x0077e736      0c8100000009   cmpi.l 0x9, d1
    < 0x0077e73c      6302           bls.b 0x77e740
       0x0077e73e      4e4f           trap 0xf
    > 0x0077e740      2801           move.l d1, d4
        0x0077e742      7612           moveq 0x12, d3
        0x0077e744      4eb900406a74   jsr fcn.00406a74
        0x0077e74a      20790086eb32   movea.l 0x86eb32, a0
        0x0077e750      b1e8fffc       cmpa.l -0x4(a0), a0
    < 0x0077e754      6702           beq.b 0x77e758
       0x0077e756      4e4d           trap 0xd
    > 0x0077e758      41f04800       lea.l (a0, d4.l), a0
        0x0077e75c      32282a3a       move.w 0x2a3a(a0), d1
        0x0077e760      48c1           ext.l d1
        0x0077e762      5381           subq.l 0x1, d1
        0x0077e764      0c8100000002   cmpi.l 0x2, d1
    < 0x0077e76a      6302           bls.b 0x77e76e
       0x0077e76c      4e4f           trap 0xf
    > 0x0077e76e      2801           move.l d1, d4
        0x0077e770      7621           moveq 0x21, d3
        0x0077e772      4eb900406a74   jsr fcn.00406a74
        0x0077e778      41fa908c       lea.l 0x777806(pc), a0
        0x0077e77c      4241           clr.w d1
        0x0077e77e      12304000       move.b (a0, d4.w), d1
        0x0077e782      3401           move.w d1, d2
        0x0077e784      43eefead       lea.l -0x153(a6), a1
        0x0077e788      5302           subq.b 0x1, d2
    < 0x0077e78a      650a           bcs.b 0x77e796
       0x0077e78c      45f04801       lea.l 0x1(a0, d4.l), a2
   > 0x0077e790      12da           move.b (a2)+, (a1)+
   < 0x0077e792      51cafffc       dbra d2, 0x77e790
    > 0x0077e796      1881           move.b d1, (a4)
        0x0077e798      5814           addq.b 0x4, (a4)
        0x0077e79a      7403           moveq 0x3, d2
        0x0077e79c      41fa9f93       lea.l 0x778731(pc), a0
    > 0x0077e7a0      12d8           move.b (a0)+, (a1)+
    < 0x0077e7a2      51cafffc       dbra d2, 0x77e7a0
    > 0x0077e7a6      9efc0100       suba.w 0x100, a7
         0x0077e7aa      3013           move.w (a3), d0
         0x0077e7ac      02800000ffff   andi.l 0xffff, d0
         0x0077e7b2      2f00           move.l d0, -(a7)
         0x0077e7b4      4854           pea.l (a4)
         0x0077e7b6      4eb9007838ca   jsr PANEL_UTILS.format_preset
         0x0077e7bc      504f           addq.w 0x8, a7
         0x0077e7be      204c           movea.l a4, a0
         0x0077e7c0      703f           moveq 0x3f, d0
     > 0x0077e7c2      20df           move.l (a7)+, (a0)+
     < 0x0077e7c4      51c8fffc       dbra d0, 0x77e7c2
         0x0077e7c8      9efc0100       suba.w 0x100, a7
         0x0077e7cc      204f           movea.l a7, a0
         0x0077e7ce      224c           movea.l a4, a1
         0x0077e7d0      703f           moveq 0x3f, d0
     > 0x0077e7d2      20d9           move.l (a1)+, (a0)+
     < 0x0077e7d4      51c8fffc       dbra d0, 0x77e7d2
         0x0077e7d8      1f3c0001       move.b 0x1, -(a7)
         0x0077e7dc      4ebab134       jsr PANEL_STACK.set_on_air(pc)
         0x0077e7e0      defc0102       adda.w 0x102, a7
     > 0x0077e7e4      1d7c0001000e   move.b 0x1, 0xe(a6)
    < 0x0077e7ea      600008e4       bra.w loc.0077f0d0
    > 0x0077e7ee      4a2e0008       tst.b 0x8(a6)
    < 0x0077e7f2      6716           beq.b 0x77e80a
       0x0077e7f4      202e000a       move.l 0xa(a6), d0
       0x0077e7f8      0c800000ffff   cmpi.l 0xffff, d0
   < 0x0077e7fe      6302           bls.b 0x77e802
      0x0077e800      4e4f           trap 0xf
   > 0x0077e802      33c00086eb2c   move.w d0, 0x86eb2c
   < 0x0077e808      6026           bra.b 0x77e830
   > 0x0077e80a      30390086eb2c   move.w 0x86eb2c, d0
       0x0077e810      41fa9f24       lea.l 0x778736(pc), a0
       0x0077e814      3200           move.w d0, d1
       0x0077e816      e649           lsr.w 0x3, d1
       0x0077e818      0c410020       cmpi.w 0x20, d1
   < 0x0077e81c      6d04           blt.b 0x77e822
      0x0077e81e      7200           moveq 0x0, d1
  < 0x0077e820      6004           bra.b 0x77e826
  > 0x0077e822      01301000       btst.l d0, (a0, d1.w)
  < 0x0077e826      6708           beq.b 0x77e830
      0x0077e828      33fc000a0086.  move.w 0xa, 0x86eb2c.l
   > 0x0077e830      4a790086eb2c   tst.w 0x86eb2c
    < 0x0077e836      6618           bne.b 0x77e850
       0x0077e838      48780006       pea.l 0x6
       0x0077e83c      3f390086eb2c   move.w 0x86eb2c, -(a7)
       0x0077e842      486efe50       pea.l -0x1b0(a6)
       0x0077e846      4eb9007835b0   jsr PANEL_UTILS.panel_error
       0x0077e84c      defc000a       adda.w 0xa, a7
    > 0x0077e850      4227           clr.b -(a7)
        0x0077e852      4ebac6be       jsr PANEL_STACK.get_frozen(pc)
        0x0077e856      544f           addq.w 0x2, a7
        0x0077e858      4a2e0008       tst.b 0x8(a6)
    < 0x0077e85c      674e           beq.b 0x77e8ac
       0x0077e85e      3d790086eb2c.  move.w 0x86eb2c, -0x54(a6)
       0x0077e866      554f           subq.w 0x2, a7
       0x0077e868      4227           clr.b -(a7)
       0x0077e86a      486effac       pea.l -0x54(a6)
       0x0077e86e      1f2e0008       move.b 0x8(a6), -(a7)
       0x0077e872      2f3900871016   move.l 0x871016, -(a7)
       0x0077e878      1f3c0001       move.b 0x1, -(a7)
       0x0077e87c      486efe9e       pea.l -0x162(a6)
       0x0077e880      4eb9006b0530   jsr USER.get_pnum
       0x0077e886      defc0012       adda.w 0x12, a7
       0x0077e88a      4a1f           tst.b (a7)+
   < 0x0077e88c      6718           beq.b 0x77e8a6
      0x0077e88e      48780006       pea.l 0x6
      0x0077e892      3f2effac       move.w -0x54(a6), -(a7)
      0x0077e896      486efe50       pea.l -0x1b0(a6)
      0x0077e89a      4eb9007835b0   jsr PANEL_UTILS.panel_error
      0x0077e8a0      defc000a       adda.w 0xa, a7
  < 0x0077e8a4      6006           bra.b 0x77e8ac
  > 0x0077e8a6      4eb900404188   jsr p_Unlink
  > 0x0077e8ac      594f           subq.w 0x4, a7
        0x0077e8ae      3f390086eb2c   move.w 0x86eb2c, -(a7)
        0x0077e8b4      1f3c0001       move.b 0x1, -(a7)
        0x0077e8b8      2f3900871016   move.l 0x871016, -(a7)
        0x0077e8be      4eb9006be190   jsr USER2_DISK.exch_drive
        0x0077e8c4      504f           addq.w 0x8, a7
        0x0077e8c6      2c1f           move.l (a7)+, d6
        0x0077e8c8      0c86ffffffff   cmpi.l 0xffffffff, d6
    < 0x0077e8ce      6604           bne.b 0x77e8d4
       0x0077e8d0      7e00           moveq 0x0, d7
   < 0x0077e8d2      6024           bra.b 0x77e8f8
   > 0x0077e8d4      594f           subq.w 0x4, a7
       0x0077e8d6      2f06           move.l d6, -(a7)
       0x0077e8d8      4eb9005fb938   jsr F6_VOLUME.f_vol_on
       0x0077e8de      584f           addq.w 0x4, a7
       0x0077e8e0      2e1f           move.l (a7)+, d7
   < 0x0077e8e2      6614           bne.b 0x77e8f8
      0x0077e8e4      4878000f       pea.l 0xf
      0x0077e8e8      4267           clr.w -(a7)
      0x0077e8ea      486efe50       pea.l -0x1b0(a6)
      0x0077e8ee      4eb9007835b0   jsr PANEL_UTILS.panel_error
      0x0077e8f4      defc000a       adda.w 0xa, a7
   > 0x0077e8f8      10390086eb28   move.b 0x86eb28, d0
        0x0077e8fe      4880           ext.w d0
        0x0077e900      0c400004       cmpi.w 0x4, d0
    < 0x0077e904      6302           bls.b 0x77e908
       0x0077e906      4e4e           trap 0xe
    > 0x0077e908      d040           add.w d0, d0
        0x0077e90a      303b0006       move.w 0x77e912(pc, d0.w), d0
        0x0077e90e      4efb0002       jmp 0x77e912(pc, d0.w)
         0x0077e912      000a003a       
         0x0077e913      0a003aff       eori.b 0xff, d0
         0x0077e917      f4ff           cpusha 0x3
         0x0077e919      f400           invalid
     < 0x0077e91b      6a3c           bpl.b 0x77e959
        0x0077e91d      3c01           move.w d1, d6
        0x0077e91f      2c59           movea.l (a1)+, a6
        0x0077e921      4f4eb900       
        0x0077e922      4eb9007943fc   jsr PANEL_VIDEO.frame_blocks
        0x0077e928      201f           move.l (a7)+, d0
        0x0077e92a      0c800000ffff   cmpi.l 0xffff, d0
    < 0x0077e930      6302           bls.b 0x77e934
       0x0077e932      4e4f           trap 0xf
    > 0x0077e934      3d40ffbc       move.w d0, -0x44(a6)
        0x0077e938      7a01           moveq 0x1, d5
        0x0077e93a      41eeffdf       lea.l -0x21(a6), a0
        0x0077e93e      43fa9e16       lea.l 0x778756(pc), a1
        0x0077e942      7004           moveq 0x4, d0
    > 0x0077e944      10d9           move.b (a1)+, (a0)+
    < 0x0077e946      51c8fffc       dbra d0, 0x77e944
    < 0x0077e94a      6060           bra.b 0x77e9ac
       0x0077e94c      3c3c012d       move.w 0x12d, d6
       0x0077e950      594f           subq.w 0x4, a7
       0x0077e952      4eb9007943fc   jsr PANEL_VIDEO.frame_blocks
       0x0077e958      201f           move.l (a7)+, d0
        0x0077e95a      0c800000ffff   cmpi.l 0xffff, d0
    < 0x0077e960      6302           bls.b 0x77e964
       0x0077e962      4e4f           trap 0xf
    > 0x0077e964      3d40ffbc       move.w d0, -0x44(a6)
        0x0077e968      7a09           moveq 0x9, d5
        0x0077e96a      41eeffdf       lea.l -0x21(a6), a0
        0x0077e96e      43fa9deb       lea.l 0x77875b(pc), a1
        0x0077e972      7005           moveq 0x5, d0
    > 0x0077e974      10d9           move.b (a1)+, (a0)+
    < 0x0077e976      51c8fffc       dbra d0, 0x77e974
    < 0x0077e97a      6030           bra.b 0x77e9ac
       0x0077e97c      3c3c012e       move.w 0x12e, d6
       0x0077e980      594f           subq.w 0x4, a7
       0x0077e982      4eb9007943fc   jsr PANEL_VIDEO.frame_blocks
       0x0077e988      201f           move.l (a7)+, d0
       0x0077e98a      e380           asl.l 0x1, d0
       0x0077e98c      0c800000ffff   cmpi.l 0xffff, d0
   < 0x0077e992      6302           bls.b 0x77e996
      0x0077e994      4e4f           trap 0xf
   > 0x0077e996      3d40ffbc       move.w d0, -0x44(a6)
       0x0077e99a      7a03           moveq 0x3, d5
       0x0077e99c      41eeffdf       lea.l -0x21(a6), a0
       0x0077e9a0      43fa9dbf       lea.l 0x778761(pc), a1
       0x0077e9a4      7007           moveq 0x7, d0
   > 0x0077e9a6      10d9           move.b (a1)+, (a0)+
   < 0x0077e9a8      51c8fffc       dbra d0, 0x77e9a6
    > 0x0077e9ac      9efc0100       suba.w 0x100, a7
         0x0077e9b0      2f3900871016   move.l 0x871016, -(a7)
         0x0077e9b6      4eb9006b8ed2   jsr USER1_UTILS.region_str
         0x0077e9bc      584f           addq.w 0x4, a7
         0x0077e9be      4240           clr.w d0
         0x0077e9c0      1017           move.b (a7), d0
         0x0077e9c2      0c000020       cmpi.b 0x20, d0
     < 0x0077e9c6      6302           bls.b 0x77e9ca
        0x0077e9c8      7020           moveq 0x20, d0
     > 0x0077e9ca      1d40ffbe       move.b d0, -0x42(a6)
         0x0077e9ce      5300           subq.b 0x1, d0
     < 0x0077e9d0      650e           bcs.b 0x77e9e0
        0x0077e9d2      41eeffbf       lea.l -0x41(a6), a0
        0x0077e9d6      43ef0001       lea.l 0x1(a7), a1
    > 0x0077e9da      10d9           move.b (a1)+, (a0)+
    < 0x0077e9dc      51c8fffc       dbra d0, 0x77e9da
     > 0x0077e9e0      defc00fc       adda.w 0xfc, a7
         0x0077e9e4      3eb90086eb2c   move.w 0x86eb2c, (a7)
         0x0077e9ea      1f3c0001       move.b 0x1, -(a7)
         0x0077e9ee      2f3900871016   move.l 0x871016, -(a7)
         0x0077e9f4      4eb9006bdcc8   jsr USER2_DISK.exch_num
         0x0077e9fa      504f           addq.w 0x8, a7
         0x0077e9fc      4a1f           tst.b (a7)+
     < 0x0077e9fe      6712           beq.b 0x77ea12
        0x0077ea00      41eeffbe       lea.l -0x42(a6), a0
        0x0077ea04      43fa9d63       lea.l 0x778769(pc), a1
        0x0077ea08      7005           moveq 0x5, d0
    > 0x0077ea0a      10d9           move.b (a1)+, (a0)+
    < 0x0077ea0c      51c8fffc       dbra d0, 0x77ea0a
    < 0x0077ea10      6024           bra.b 0x77ea36
    > 0x0077ea12      4240           clr.w d0
        0x0077ea14      102effbe       move.b -0x42(a6), d0
        0x0077ea18      41f600bf       lea.l -0x41(a6, d0.w), a0
        0x0077ea1c      7201           moveq 0x1, d1
        0x0077ea1e      7420           moveq 0x20, d2
        0x0077ea20      9440           sub.w d0, d2
        0x0077ea22      b242           cmp.w d2, d1
    < 0x0077ea24      6302           bls.b 0x77ea28
       0x0077ea26      3202           move.w d2, d1
    > 0x0077ea28      d32effbe       add.b d1, -0x42(a6)
        0x0077ea2c      43fa9d42       lea.l 0x778770(pc), a1
    > 0x0077ea30      10d9           move.b (a1)+, (a0)+
    < 0x0077ea32      51c9fffc       dbra d1, 0x77ea30
    > 0x0077ea36      48780000       pea.l 0x0
         0x0077ea3a      9efc0100       suba.w 0x100, a7
         0x0077ea3e      7009           moveq 0x9, d0
         0x0077ea40      41ef0001       lea.l 0x1(a7), a0
         0x0077ea44      43fa9d2c       lea.l 0x778772(pc), a1
     > 0x0077ea48      10d9           move.b (a1)+, (a0)+
     < 0x0077ea4a      51c8fffc       dbra d0, 0x77ea48
         0x0077ea4e      1ebc000a       move.b 0xa, (a7)
         0x0077ea52      4240           clr.w d0
         0x0077ea54      102effdf       move.b -0x21(a6), d0
         0x0077ea58      d117           add.b d0, (a7)
         0x0077ea5a      5300           subq.b 0x1, d0
     < 0x0077ea5c      650a           bcs.b 0x77ea68
        0x0077ea5e      43eeffe0       lea.l -0x20(a6), a1
    > 0x0077ea62      10d9           move.b (a1)+, (a0)+
    < 0x0077ea64      51c8fffc       dbra d0, 0x77ea62
     > 0x0077ea68      4240           clr.w d0
         0x0077ea6a      1017           move.b (a7), d0
         0x0077ea6c      41ef0001       lea.l 0x1(a7), a0
         0x0077ea70      d0c0           adda.w d0, a0
         0x0077ea72      7203           moveq 0x3, d1
         0x0077ea74      d200           add.b d0, d1
     < 0x0077ea76      6406           bcc.b 0x77ea7e
        0x0077ea78      4eb900406c8a   jsr p_strovr
     > 0x0077ea7e      7203           moveq 0x3, d1
         0x0077ea80      343c00ff       move.w 0xff, d2
         0x0077ea84      9440           sub.w d0, d2
         0x0077ea86      b242           cmp.w d2, d1
     < 0x0077ea88      6302           bls.b 0x77ea8c
        0x0077ea8a      3202           move.w d2, d1
     > 0x0077ea8c      d317           add.b d1, (a7)
         0x0077ea8e      43fa9ced       lea.l 0x77877d(pc), a1
     > 0x0077ea92      10d9           move.b (a1)+, (a0)+
     < 0x0077ea94      51c9fffc       dbra d1, 0x77ea92
         0x0077ea98      4240           clr.w d0
         0x0077ea9a      1017           move.b (a7), d0
         0x0077ea9c      41ef0001       lea.l 0x1(a7), a0
         0x0077eaa0      d0c0           adda.w d0, a0
         0x0077eaa2      4241           clr.w d1
         0x0077eaa4      122effbe       move.b -0x42(a6), d1
         0x0077eaa8      d200           add.b d0, d1
     < 0x0077eaaa      6406           bcc.b 0x77eab2
        0x0077eaac      4eb900406c8a   jsr p_strovr
     > 0x0077eab2      4241           clr.w d1
         0x0077eab4      122effbe       move.b -0x42(a6), d1
         0x0077eab8      343c00ff       move.w 0xff, d2
         0x0077eabc      9440           sub.w d0, d2
         0x0077eabe      b242           cmp.w d2, d1
     < 0x0077eac0      6302           bls.b 0x77eac4
        0x0077eac2      3202           move.w d2, d1
     > 0x0077eac4      d317           add.b d1, (a7)
         0x0077eac6      5301           subq.b 0x1, d1
     < 0x0077eac8      650a           bcs.b 0x77ead4
        0x0077eaca      43eeffbf       lea.l -0x41(a6), a1
    > 0x0077eace      10d9           move.b (a1)+, (a0)+
    < 0x0077ead0      51c9fffc       dbra d1, 0x77eace
     > 0x0077ead4      1f3c0001       move.b 0x1, -(a7)
         0x0077ead8      4ebab08a       jsr PANEL_STACK.format_on_air(pc)
         0x0077eadc      defc0102       adda.w 0x102, a7
         0x0077eae0      3e86           move.w d6, (a7)
         0x0077eae2      4280           clr.l d0
         0x0077eae4      302effbc       move.w -0x44(a6), d0
         0x0077eae8      2f00           move.l d0, -(a7)
         0x0077eaea      2f07           move.l d7, -(a7)
         0x0077eaec      2f3900871016   move.l 0x871016, -(a7)
         0x0077eaf2      486efe9e       pea.l -0x162(a6)
         0x0077eaf6      486efe9a       pea.l -0x166(a6)
         0x0077eafa      4eb9006b2392   jsr USER.create_a_file
         0x0077eb00      defc0016       adda.w 0x16, a7
         0x0077eb04      101f           move.b (a7)+, d0
         0x0077eb06      4880           ext.w d0
         0x0077eb08      41bc0001       chk.w 0x1, d0
         0x0077eb0c      1d40fea9       move.b d0, -0x157(a6)
         0x0077eb10      4a00           tst.b d0
     < 0x0077eb12      6622           bne.b 0x77eb36
        0x0077eb14      30390086eb2c   move.w 0x86eb2c, d0
        0x0077eb1a      02800000ffff   andi.l 0xffff, d0
        0x0077eb20      2f00           move.l d0, -(a7)
        0x0077eb22      4eb900404012   jsr p_Push
        0x0077eb28      584f           addq.w 0x4, a7
        0x0077eb2a      486efe50       pea.l -0x1b0(a6)
        0x0077eb2e      4eb900404468   jsr fcn.00404468
        0x0077eb34      584f           addq.w 0x4, a7
     > 0x0077eb36      9efc0100       suba.w 0x100, a7
         0x0077eb3a      486efe9e       pea.l -0x162(a6)
         0x0077eb3e      4eb9005ef416   jsr F2_UTILITY.f_fid_string
         0x0077eb44      584f           addq.w 0x4, a7
         0x0077eb46      487a9c39       pea.l 0x778781(pc)
         0x0077eb4a      4878000d       pea.l 0xd
         0x0077eb4e      2f17           move.l (a7), -(a7)
         0x0077eb50      4eb9004047ea   jsr p_wts_o
         0x0077eb56      defc000c       adda.w 0xc, a7
         0x0077eb5a      486f0001       pea.l 0x1(a7)
         0x0077eb5e      42a7           clr.l -(a7)
         0x0077eb60      1f6f00080003   move.b 0x8(a7), 0x3(a7)
         0x0077eb66      2f17           move.l (a7), -(a7)
         0x0077eb68      4eb9004047ea   jsr p_wts_o
         0x0077eb6e      defc010c       adda.w 0x10c, a7
         0x0077eb72      4eb900404946   jsr p_wtln_o
         0x0077eb78      554f           subq.w 0x2, a7
         0x0077eb7a      1f3c0001       move.b 0x1, -(a7)
         0x0077eb7e      48790086eb2c   pea.l 0x86eb2c
         0x0077eb84      1f2e0008       move.b 0x8(a6), -(a7)
         0x0077eb88      2f3900871016   move.l 0x871016, -(a7)
         0x0077eb8e      1f3c0001       move.b 0x1, -(a7)
         0x0077eb92      486efe9e       pea.l -0x162(a6)
         0x0077eb96      4eb9006b0530   jsr USER.get_pnum
         0x0077eb9c      defc0012       adda.w 0x12, a7
         0x0077eba0      4a1f           tst.b (a7)+
     < 0x0077eba2      661e           bne.b 0x77ebc2
        0x0077eba4      4eb900404188   jsr p_Unlink
        0x0077ebaa      48780006       pea.l 0x6
        0x0077ebae      3f390086eb2c   move.w 0x86eb2c, -(a7)
        0x0077ebb4      486efe50       pea.l -0x1b0(a6)
        0x0077ebb8      4eb9007835b0   jsr PANEL_UTILS.panel_error
        0x0077ebbe      defc000a       adda.w 0xa, a7
     > 0x0077ebc2      554f           subq.w 0x2, a7
         0x0077ebc4      3f390086eb2c   move.w 0x86eb2c, -(a7)
         0x0077ebca      2f2efea4       move.l -0x15c(a6), -(a7)
         0x0077ebce      2f2efea0       move.l -0x160(a6), -(a7)
         0x0077ebd2      3f2efe9e       move.w -0x162(a6), -(a7)
         0x0077ebd6      2f3900871016   move.l 0x871016, -(a7)
         0x0077ebdc      4eb9006b0b82   jsr USER.number_pic
         0x0077ebe2      defc0010       adda.w 0x10, a7
         0x0077ebe6      4a1f           tst.b (a7)+
     < 0x0077ebe8      660000a0       bne.w 0x77ec8a
        0x0077ebec      30390086eb2c   move.w 0x86eb2c, d0
        0x0077ebf2      02800000ffff   andi.l 0xffff, d0
        0x0077ebf8      2f00           move.l d0, -(a7)
        0x0077ebfa      9efc0100       suba.w 0x100, a7
        0x0077ebfe      204f           movea.l a7, a0
        0x0077ec00      43fa9b8c       lea.l 0x77878e(pc), a1
        0x0077ec04      7006           moveq 0x6, d0
    > 0x0077ec06      20d9           move.l (a1)+, (a0)+
    < 0x0077ec08      51c8fffc       dbra d0, 0x77ec06
        0x0077ec0c      30d9           move.w (a1)+, (a0)+
        0x0077ec0e      1f3c0001       move.b 0x1, -(a7)
        0x0077ec12      4ebaaf50       jsr PANEL_STACK.format_on_air(pc)
        0x0077ec16      defc0102       adda.w 0x102, a7
        0x0077ec1a      1ebc0002       move.b 0x2, (a7)
        0x0077ec1e      48790086eb2c   pea.l 0x86eb2c
        0x0077ec24      1f3c0001       move.b 0x1, -(a7)
        0x0077ec28      2f3900871016   move.l 0x871016, -(a7)
        0x0077ec2e      1f3c0001       move.b 0x1, -(a7)
        0x0077ec32      486efe9e       pea.l -0x162(a6)
        0x0077ec36      4eb9006b0530   jsr USER.get_pnum
        0x0077ec3c      defc0012       adda.w 0x12, a7
        0x0077ec40      4a1f           tst.b (a7)+
    < 0x0077ec42      663a           bne.b 0x77ec7e
       0x0077ec44      4eb900404188   jsr p_Unlink
       0x0077ec4a      487a9b61       pea.l 0x7787ad(pc)
       0x0077ec4e      48780038       pea.l 0x38
       0x0077ec52      2f17           move.l (a7), -(a7)
       0x0077ec54      4eb9004047ea   jsr p_wts_o
       0x0077ec5a      defc000c       adda.w 0xc, a7
       0x0077ec5e      30390086eb2c   move.w 0x86eb2c, d0
       0x0077ec64      02800000ffff   andi.l 0xffff, d0
       0x0077ec6a      2f00           move.l d0, -(a7)
       0x0077ec6c      48780000       pea.l 0x0
       0x0077ec70      4eb9004070e4   jsr p_wti_o
       0x0077ec76      504f           addq.w 0x8, a7
       0x0077ec78      4eb900404946   jsr p_wtln_o
    > 0x0077ec7e      486efe50       pea.l -0x1b0(a6)
        0x0077ec82      4eb900404468   jsr fcn.00404468
        0x0077ec88      584f           addq.w 0x4, a7
     > 0x0077ec8a      487a9b5a       pea.l 0x7787e6(pc)
         0x0077ec8e      48780009       pea.l 0x9
         0x0077ec92      2f17           move.l (a7), -(a7)
         0x0077ec94      4eb9004047ea   jsr p_wts_o
         0x0077ec9a      defc000c       adda.w 0xc, a7
         0x0077ec9e      30390086eb2c   move.w 0x86eb2c, d0
         0x0077eca4      02800000ffff   andi.l 0xffff, d0
         0x0077ecaa      2f00           move.l d0, -(a7)
         0x0077ecac      48780002       pea.l 0x2
         0x0077ecb0      4eb9004070e4   jsr p_wti_o
         0x0077ecb6      504f           addq.w 0x8, a7
         0x0077ecb8      4eb900404946   jsr p_wtln_o
         0x0077ecbe      554f           subq.w 0x2, a7
         0x0077ecc0      2f2efea4       move.l -0x15c(a6), -(a7)
         0x0077ecc4      2f2efea0       move.l -0x160(a6), -(a7)
         0x0077ecc8      3f2efe9e       move.w -0x162(a6), -(a7)
         0x0077eccc      10390086eb28   move.b 0x86eb28, d0
         0x0077ecd2      4880           ext.w d0
         0x0077ecd4      41bc0004       chk.w 0x4, d0
         0x0077ecd8      1f00           move.b d0, -(a7)
         0x0077ecda      486efe9a       pea.l -0x166(a6)
         0x0077ecde      4eb9007977d4   jsr PANEL_VIDEO.record_picture
         0x0077ece4      defc0010       adda.w 0x10, a7
         0x0077ece8      4a1f           tst.b (a7)+
     < 0x0077ecea      660000ee       bne.w 0x77edda
        0x0077ecee      487a9b00       pea.l 0x7787f0(pc)
        0x0077ecf2      4878000d       pea.l 0xd
        0x0077ecf6      2f17           move.l (a7), -(a7)
        0x0077ecf8      4eb9004047ea   jsr p_wts_o
        0x0077ecfe      defc000c       adda.w 0xc, a7
        0x0077ed02      4eb900404946   jsr p_wtln_o
        0x0077ed08      2f2efea4       move.l -0x15c(a6), -(a7)
        0x0077ed0c      2f2efea0       move.l -0x160(a6), -(a7)
        0x0077ed10      3f2efe9e       move.w -0x162(a6), -(a7)
        0x0077ed14      2f3900871016   move.l 0x871016, -(a7)
        0x0077ed1a      486efeab       pea.l -0x155(a6)
        0x0077ed1e      4eb9006b11f4   jsr USER.unnumber_pic
        0x0077ed24      defc000e       adda.w 0xe, a7
        0x0077ed28      1ebc0002       move.b 0x2, (a7)
        0x0077ed2c      48790086eb2c   pea.l 0x86eb2c
        0x0077ed32      1f2e0008       move.b 0x8(a6), -(a7)
        0x0077ed36      2f3900871016   move.l 0x871016, -(a7)
        0x0077ed3c      1f3c0001       move.b 0x1, -(a7)
        0x0077ed40      486efe9e       pea.l -0x162(a6)
        0x0077ed44      4eb9006b0530   jsr USER.get_pnum
        0x0077ed4a      defc0012       adda.w 0x12, a7
        0x0077ed4e      4a1f           tst.b (a7)+
    < 0x0077ed50      664e           bne.b 0x77eda0
       0x0077ed52      4eb900404188   jsr p_Unlink
       0x0077ed58      487a9aa4       pea.l 0x7787fe(pc)
       0x0077ed5c      48780016       pea.l 0x16
       0x0077ed60      2f17           move.l (a7), -(a7)
       0x0077ed62      4eb9004047ea   jsr p_wts_o
       0x0077ed68      defc000c       adda.w 0xc, a7
       0x0077ed6c      30390086eb2c   move.w 0x86eb2c, d0
       0x0077ed72      02800000ffff   andi.l 0xffff, d0
       0x0077ed78      2f00           move.l d0, -(a7)
       0x0077ed7a      48780000       pea.l 0x0
       0x0077ed7e      4eb9004070e4   jsr p_wti_o
       0x0077ed84      504f           addq.w 0x8, a7
       0x0077ed86      487a9a8d       pea.l 0x778815(pc)
       0x0077ed8a      48780010       pea.l 0x10
       0x0077ed8e      2f17           move.l (a7), -(a7)
       0x0077ed90      4eb9004047ea   jsr p_wts_o
       0x0077ed96      defc000c       adda.w 0xc, a7
       0x0077ed9a      4eb900404946   jsr p_wtln_o
    > 0x0077eda0      554f           subq.w 0x2, a7
        0x0077eda2      2f2efea4       move.l -0x15c(a6), -(a7)
        0x0077eda6      2f2efea0       move.l -0x160(a6), -(a7)
        0x0077edaa      3f2efe9e       move.w -0x162(a6), -(a7)
        0x0077edae      4eb900605066   jsr F9_FILERDWRT.f_delete
        0x0077edb4      defc000a       adda.w 0xa, a7
        0x0077edb8      4a1f           tst.b (a7)+
    < 0x0077edba      6606           bne.b 0x77edc2
       0x0077edbc      4eb900404188   jsr p_Unlink
    > 0x0077edc2      4878000e       pea.l 0xe
        0x0077edc6      3f390086eb2c   move.w 0x86eb2c, -(a7)
        0x0077edcc      486efe50       pea.l -0x1b0(a6)
        0x0077edd0      4eb9007835b0   jsr PANEL_UTILS.panel_error
        0x0077edd6      defc000a       adda.w 0xa, a7
     > 0x0077edda      30390086eb2c   move.w 0x86eb2c, d0
         0x0077ede0      02800000ffff   andi.l 0xffff, d0
         0x0077ede6      2f00           move.l d0, -(a7)
         0x0077ede8      9efc0100       suba.w 0x100, a7
         0x0077edec      4240           clr.w d0
         0x0077edee      102effbe       move.b -0x42(a6), d0
         0x0077edf2      3200           move.w d0, d1
         0x0077edf4      41ef0001       lea.l 0x1(a7), a0
         0x0077edf8      5301           subq.b 0x1, d1
     < 0x0077edfa      650a           bcs.b 0x77ee06
        0x0077edfc      43eeffbf       lea.l -0x41(a6), a1
    > 0x0077ee00      10d9           move.b (a1)+, (a0)+
    < 0x0077ee02      51c9fffc       dbra d1, 0x77ee00
     > 0x0077ee06      1e80           move.b d0, (a7)
         0x0077ee08      4241           clr.w d1
         0x0077ee0a      122effdf       move.b -0x21(a6), d1
         0x0077ee0e      d317           add.b d1, (a7)
         0x0077ee10      5301           subq.b 0x1, d1
     < 0x0077ee12      650a           bcs.b 0x77ee1e
        0x0077ee14      43eeffe0       lea.l -0x20(a6), a1
    > 0x0077ee18      10d9           move.b (a1)+, (a0)+
    < 0x0077ee1a      51c9fffc       dbra d1, 0x77ee18
     > 0x0077ee1e      4240           clr.w d0
         0x0077ee20      1017           move.b (a7), d0
         0x0077ee22      41ef0001       lea.l 0x1(a7), a0
         0x0077ee26      d0c0           adda.w d0, a0
         0x0077ee28      7204           moveq 0x4, d1
         0x0077ee2a      d200           add.b d0, d1
     < 0x0077ee2c      6406           bcc.b 0x77ee34
        0x0077ee2e      4eb900406c8a   jsr p_strovr
     > 0x0077ee34      7204           moveq 0x4, d1
         0x0077ee36      343c00ff       move.w 0xff, d2
         0x0077ee3a      9440           sub.w d0, d2
         0x0077ee3c      b242           cmp.w d2, d1
     < 0x0077ee3e      6302           bls.b 0x77ee42
        0x0077ee40      3202           move.w d2, d1
     > 0x0077ee42      d317           add.b d1, (a7)
         0x0077ee44      43fa99e0       lea.l 0x778826(pc), a1
     > 0x0077ee48      10d9           move.b (a1)+, (a0)+
     < 0x0077ee4a      51c9fffc       dbra d1, 0x77ee48
         0x0077ee4e      4240           clr.w d0
         0x0077ee50      1017           move.b (a7), d0
         0x0077ee52      41ef0001       lea.l 0x1(a7), a0
         0x0077ee56      d0c0           adda.w d0, a0
         0x0077ee58      7209           moveq 0x9, d1
         0x0077ee5a      d200           add.b d0, d1
     < 0x0077ee5c      6406           bcc.b 0x77ee64
        0x0077ee5e      4eb900406c8a   jsr p_strovr
     > 0x0077ee64      7209           moveq 0x9, d1
         0x0077ee66      343c00ff       move.w 0xff, d2
         0x0077ee6a      9440           sub.w d0, d2
         0x0077ee6c      b242           cmp.w d2, d1
     < 0x0077ee6e      6302           bls.b 0x77ee72
        0x0077ee70      3202           move.w d2, d1
     > 0x0077ee72      d317           add.b d1, (a7)
         0x0077ee74      43fa99b5       lea.l 0x77882b(pc), a1
     > 0x0077ee78      10d9           move.b (a1)+, (a0)+
     < 0x0077ee7a      51c9fffc       dbra d1, 0x77ee78
         0x0077ee7e      1f3c0001       move.b 0x1, -(a7)
         0x0077ee82      4ebaace0       jsr PANEL_STACK.format_on_air(pc)
         0x0077ee86      defc0106       adda.w 0x106, a7
         0x0077ee8a      10390086ec42   move.b 0x86ec42, d0
         0x0077ee90      0c000001       cmpi.b 0x1, d0
     < 0x0077ee94      6312           bls.b 0x77eea8
        0x0077ee96      204c           movea.l a4, a0
        0x0077ee98      43f90086ec42   lea.l 0x86ec42, a1
        0x0077ee9e      703f           moveq 0x3f, d0
    > 0x0077eea0      20d9           move.l (a1)+, (a0)+
    < 0x0077eea2      51c8fffc       dbra d0, 0x77eea0
    < 0x0077eea6      602a           bra.b 0x77eed2
    > 0x0077eea8      9efc0100       suba.w 0x100, a7
        0x0077eeac      48790086eb42   pea.l 0x86eb42
        0x0077eeb2      4885           ext.w d5
        0x0077eeb4      4bbc000f       chk.w 0xf, d5
        0x0077eeb8      1f05           move.b d5, -(a7)
        0x0077eeba      3f390086eb2c   move.w 0x86eb2c, -(a7)
        0x0077eec0      4eb9006b9ae4   jsr USER1_UTILS.make_title
        0x0077eec6      504f           addq.w 0x8, a7
        0x0077eec8      204c           movea.l a4, a0
        0x0077eeca      703f           moveq 0x3f, d0
    > 0x0077eecc      20df           move.l (a7)+, (a0)+
    < 0x0077eece      51c8fffc       dbra d0, 0x77eecc
    > 0x0077eed2      554f           subq.w 0x2, a7
         0x0077eed4      3f3c0014       move.w 0x14, -(a7)
         0x0077eed8      2f2efe9a       move.l -0x166(a6), -(a7)
         0x0077eedc      4854           pea.l (a4)
         0x0077eede      4eb9005eedf6   jsr f_put_string
         0x0077eee4      defc000a       adda.w 0xa, a7
         0x0077eee8      1017           move.b (a7), d0
         0x0077eeea      4880           ext.w d0
         0x0077eeec      41bc0001       chk.w 0x1, d0
         0x0077eef0      1e80           move.b d0, (a7)
         0x0077eef2      4eb90040452a   jsr p_Assert
         0x0077eef8      4eb90062f64c   jsr OWNERS.owners_active
         0x0077eefe      4a1f           tst.b (a7)+
     < 0x0077ef00      677c           beq.b 0x77ef7e
        0x0077ef02      18ba9930       move.b 0x778834(pc), (a4)
        0x0077ef06      554f           subq.w 0x2, a7
        0x0077ef08      4227           clr.b -(a7)
        0x0077ef0a      4227           clr.b -(a7)
        0x0077ef0c      4854           pea.l (a4)
        0x0077ef0e      4eb90062d5f0   jsr OWNERS.get_owner_str
        0x0077ef14      504f           addq.w 0x8, a7
        0x0077ef16      4a1f           tst.b (a7)+
    < 0x0077ef18      6616           bne.b 0x77ef30
       0x0077ef1a      487a991a       pea.l 0x778836(pc)
       0x0077ef1e      4878002b       pea.l 0x2b
       0x0077ef22      2f17           move.l (a7), -(a7)
       0x0077ef24      4eb9004047ea   jsr p_wts_o
       0x0077ef2a      defc000c       adda.w 0xc, a7
   < 0x0077ef2e      6048           bra.b 0x77ef78
   > 0x0077ef30      554f           subq.w 0x2, a7
       0x0077ef32      3f3c0016       move.w 0x16, -(a7)
       0x0077ef36      2f2efe9a       move.l -0x166(a6), -(a7)
       0x0077ef3a      4854           pea.l (a4)
       0x0077ef3c      4eb9005eedf6   jsr f_put_string
       0x0077ef42      defc000a       adda.w 0xa, a7
       0x0077ef46      4a1f           tst.b (a7)+
   < 0x0077ef48      6634           bne.b 0x77ef7e
      0x0077ef4a      487a9916       pea.l 0x778862(pc)
      0x0077ef4e      48780038       pea.l 0x38
      0x0077ef52      2f17           move.l (a7), -(a7)
      0x0077ef54      4eb9004047ea   jsr p_wts_o
      0x0077ef5a      defc000c       adda.w 0xc, a7
      0x0077ef5e      30390086eb2c   move.w 0x86eb2c, d0
      0x0077ef64      02800000ffff   andi.l 0xffff, d0
      0x0077ef6a      2f00           move.l d0, -(a7)
      0x0077ef6c      4878000c       pea.l 0xc
      0x0077ef70      4eb9004070e4   jsr p_wti_o
      0x0077ef76      504f           addq.w 0x8, a7
   > 0x0077ef78      4eb900404946   jsr p_wtln_o
    > 0x0077ef7e      554f           subq.w 0x2, a7
         0x0077ef80      2f2efea4       move.l -0x15c(a6), -(a7)
         0x0077ef84      2f2efea0       move.l -0x160(a6), -(a7)
         0x0077ef88      3f2efe9e       move.w -0x162(a6), -(a7)
         0x0077ef8c      4eb9005dd618   jsr SEARCH_DISKS.sea_index
         0x0077ef92      defc000a       adda.w 0xa, a7
         0x0077ef96      101f           move.b (a7)+, d0
         0x0077ef98      4880           ext.w d0
         0x0077ef9a      41bc0001       chk.w 0x1, d0
         0x0077ef9e      1d40fea8       move.b d0, -0x158(a6)
         0x0077efa2      4a00           tst.b d0
     < 0x0077efa4      6600008a       bne.w 0x77f030
        0x0077efa8      9efc0100       suba.w 0x100, a7
        0x0077efac      486efe9e       pea.l -0x162(a6)
        0x0077efb0      4eb9005ef416   jsr F2_UTILITY.f_fid_string
        0x0077efb6      584f           addq.w 0x4, a7
        0x0077efb8      487a98e1       pea.l 0x77889b(pc)
        0x0077efbc      48780017       pea.l 0x17
        0x0077efc0      2f17           move.l (a7), -(a7)
        0x0077efc2      4eb9004047ea   jsr p_wts_o
        0x0077efc8      defc000c       adda.w 0xc, a7
        0x0077efcc      486f0001       pea.l 0x1(a7)
        0x0077efd0      42a7           clr.l -(a7)
        0x0077efd2      1f6f00080003   move.b 0x8(a7), 0x3(a7)
        0x0077efd8      2f17           move.l (a7), -(a7)
        0x0077efda      4eb9004047ea   jsr p_wts_o
        0x0077efe0      defc010c       adda.w 0x10c, a7
        0x0077efe4      4eb900404946   jsr p_wtln_o
        0x0077efea      9efc0100       suba.w 0x100, a7
        0x0077efee      4eb900408ec0   jsr p_err_string
        0x0077eff4      486f0001       pea.l 0x1(a7)
        0x0077eff8      42a7           clr.l -(a7)
        0x0077effa      1f6f00080003   move.b 0x8(a7), 0x3(a7)
        0x0077f000      2f17           move.l (a7), -(a7)
        0x0077f002      4eb9004047ea   jsr p_wts_o
        0x0077f008      defc010c       adda.w 0x10c, a7
        0x0077f00c      4eb900404946   jsr p_wtln_o
        0x0077f012      4eb900404188   jsr p_Unlink
        0x0077f018      48780016       pea.l 0x16
        0x0077f01c      3f390086eb2c   move.w 0x86eb2c, -(a7)
        0x0077f022      486efe50       pea.l -0x1b0(a6)
        0x0077f026      4eb9007835b0   jsr PANEL_UTILS.panel_error
        0x0077f02c      defc000a       adda.w 0xa, a7
     > 0x0077f030      6000f7b2       bra.w 0x77e7e4              ; PANEL_STACK.do_rec_pic_or_p+0x210
       > 0x0077f034      4a2efea9       tst.b -0x157(a6)
       < 0x0077f038      67000092       beq.w 0x77f0cc
          0x0077f03c      4a2efea8       tst.b -0x158(a6)
      < 0x0077f040      6764           beq.b 0x77f0a6
         0x0077f042      554f           subq.w 0x2, a7
         0x0077f044      2f2efea4       move.l -0x15c(a6), -(a7)
         0x0077f048      2f2efea0       move.l -0x160(a6), -(a7)
         0x0077f04c      3f2efe9e       move.w -0x162(a6), -(a7)
         0x0077f050      4eb9005dd75a   jsr SEARCH_DISKS.sea_deindex
         0x0077f056      defc000a       adda.w 0xa, a7
         0x0077f05a      4a1f           tst.b (a7)+
     < 0x0077f05c      6648           bne.b 0x77f0a6
        0x0077f05e      487a9853       pea.l 0x7788b3(pc)
        0x0077f062      48780024       pea.l 0x24
        0x0077f066      2f17           move.l (a7), -(a7)
        0x0077f068      4eb9004047ea   jsr p_wts_o
        0x0077f06e      defc000c       adda.w 0xc, a7
        0x0077f072      4eb900404946   jsr p_wtln_o
        0x0077f078      9efc0100       suba.w 0x100, a7
        0x0077f07c      4eb900408ec0   jsr p_err_string
        0x0077f082      486f0001       pea.l 0x1(a7)
        0x0077f086      42a7           clr.l -(a7)
        0x0077f088      1f6f00080003   move.b 0x8(a7), 0x3(a7)
        0x0077f08e      2f17           move.l (a7), -(a7)
        0x0077f090      4eb9004047ea   jsr p_wts_o
        0x0077f096      defc010c       adda.w 0x10c, a7
        0x0077f09a      4eb900404946   jsr p_wtln_o
        0x0077f0a0      4eb900404188   jsr p_Unlink
     > 0x0077f0a6      554f           subq.w 0x2, a7
          0x0077f0a8      2f2efea4       move.l -0x15c(a6), -(a7)
          0x0077f0ac      2f2efea0       move.l -0x160(a6), -(a7)
          0x0077f0b0      3f2efe9e       move.w -0x162(a6), -(a7)
          0x0077f0b4      4eb900605066   jsr F9_FILERDWRT.f_delete
          0x0077f0ba      defc000a       adda.w 0xa, a7
          0x0077f0be      4a1f           tst.b (a7)+
      < 0x0077f0c0      6606           bne.b 0x77f0c8
         0x0077f0c2      4eb900404188   jsr p_Unlink
      > 0x0077f0c8      422efea9       clr.b -0x157(a6)
       > 0x0077f0cc      422e000e       clr.b 0xe(a6)
           ; CODE XREF from PANEL_STACK.do_rec_pic_or_p @ 0x77e7ea
 38: loc.0077f0d0 ();
    > 0x0077f0d0      486efe9a       pea.l -0x166(a6)
           0x0077f0d4      4eb90060500e   jsr F9_FILERDWRT.f_free_block
           0x0077f0da      584f           addq.w 0x4, a7
           0x0077f0dc      4a2efea9       tst.b -0x157(a6)
       < 0x0077f0e0      670c           beq.b 0x77f0ee
          0x0077f0e2      2f2efe9e       move.l -0x162(a6), -(a7)
          0x0077f0e6      4eb9005dd9c6   jsr SEARCH_DISKS.sea_trample_on_
          0x0077f0ec      584f           addq.w 0x4, a7
       > 0x0077f0ee      4cdf1fff       movem.l (a7)+, d0-d7/a0-a4
           0x0077f0f2      4e5e           unlk a6
           0x0077f0f4      4e75           rts
            ; CALL XREF from PANEL.hit_clr_stack @ 0x774cce
 108: PANEL_STACK.do_clear_stack ();
           0x0077f0f6      4e56fee6       link.w a6, 0xfee6
           0x0077f0fa      bfd5           cmpa.l (a5), a7
       < 0x0077f0fc      6206           bhi.b 0x77f104
          0x0077f0fe      44fc0002       move.w 0x2, ccr
          0x0077f102      4e76           trapv
       > 0x0077f104      defc0016       adda.w 0x16, a7
           0x0077f108      48e78080       movem.l d0/a0, -(a7)
           0x0077f10c      7001           moveq 0x1, d0
           0x0077f10e      20790086eb32   movea.l 0x86eb32, a0
           0x0077f114      b1e8fffc       cmpa.l -0x4(a0), a0
       < 0x0077f118      6702           beq.b 0x77f11c
          0x0077f11a      4e4d           trap 0xd
       > 0x0077f11c      4a281546       tst.b 0x1546(a0)
       < 0x0077f120      670c           beq.b 0x77f12e
          0x0077f122      4a281524       tst.b 0x1524(a0)
      < 0x0077f126      6606           bne.b 0x77f12e
         0x0077f128      4eb900794cc2   jsr PANEL_VIDEO.copy_back
      > 0x0077f12e      1f00           move.b d0, -(a7)
           0x0077f130      1f00           move.b d0, -(a7)
           0x0077f132      4ebad666       jsr PANEL_STACK.clear_current_s(pc)
           0x0077f136      584f           addq.w 0x4, a7
           0x0077f138      23fc7fffffff.  move.l 0x7fffffff, 0x87104e.l
           0x0077f142      4878ff9c       pea.l 0xff9c
           0x0077f146      48780063       pea.l 0x63
           0x0077f14a      4227           clr.b -(a7)
           0x0077f14c      4ebab5fa       jsr PANEL_STACK.refresh_stack(pc)
           0x0077f150      defc000a       adda.w 0xa, a7
           0x0077f154      42b90086eb36   clr.l 0x86eb36
           0x0077f15a      4cdf0101       movem.l (a7)+, d0/a0
           0x0077f15e      4e5e           unlk a6
           0x0077f160      4e75           rts
            ; CALL XREF from PANEL.hit_clr_record @ 0x774d10
 622: PANEL_STACK.do_stack_erase ();
           ; var int32_t var_7b24h @ a6-0x7b24
           ; var int32_t var_7b22h @ a6-0x7b22
           ; var int32_t var_8h @ a7+0x8
           0x0077f162      4e56fe66       link.w a6, 0xfe66
           0x0077f166      bfd5           cmpa.l (a5), a7
       < 0x0077f168      6206           bhi.b 0x77f170
          0x0077f16a      44fc0002       move.w 0x2, ccr
          0x0077f16e      4e76           trapv
       > 0x0077f170      defc0144       adda.w 0x144, a7
           0x0077f174      48e7fff8       movem.l d0-d7/a0-a4, -(a7)
           0x0077f178      45f90086eb2e   lea.l 0x86eb2e, a2
           0x0077f17e      47eefff4       lea.l -0xc(a6), a3
           0x0077f182      49f900871016   lea.l 0x871016, a4
           0x0077f188      323c0100       move.w 0x100, d1
           0x0077f18c      243c0000ffff   move.l 0xffff, d2
           0x0077f192      7601           moveq 0x1, d3
           0x0077f194      383c010c       move.w 0x10c, d4
           0x0077f198      7a02           moveq 0x2, d5
           0x0077f19a      7c0a           moveq 0xa, d6
           0x0077f19c      554f           subq.w 0x2, a7
           0x0077f19e      486effaa       pea.l -0x56(a6)
           0x0077f1a2      4eb900404434   jsr fcn.00404434
           0x0077f1a8      584f           addq.w 0x4, a7
           0x0077f1aa      4a1f           tst.b (a7)+
       < 0x0077f1ac      67000216       beq.w 0x77f3c4
          0x0077f1b0      202e000a       move.l 0xa(a6), d0
          0x0077f1b4      b082           cmp.l d2, d0
      < 0x0077f1b6      6302           bls.b 0x77f1ba
         0x0077f1b8      4e4f           trap 0xf
      > 0x0077f1ba      3480           move.w d0, (a2)
          0x0077f1bc      26ba84de       move.l 0x77769c(pc), (a3)
          0x0077f1c0      2d7a84defff8   move.l 0x7776a0(pc), -0x8(a6)
          0x0077f1c6      3d7a84dcfffc   move.w 0x7776a4(pc), -0x4(a6)
          0x0077f1cc      554f           subq.w 0x2, a7
          0x0077f1ce      1f05           move.b d5, -(a7)
          0x0077f1d0      4852           pea.l (a2)
          0x0077f1d2      1f2e0008       move.b 0x8(a6), -(a7)
          0x0077f1d6      2f14           move.l (a4), -(a7)
          0x0077f1d8      4853           pea.l (a3)
          0x0077f1da      4eb9006b05ba   jsr USER.get_snum
          0x0077f1e0      defc0010       adda.w 0x10, a7
          0x0077f1e4      4a1f           tst.b (a7)+
      < 0x0077f1e6      660c           bne.b 0x77f1f4
         0x0077f1e8      486effaa       pea.l -0x56(a6)
         0x0077f1ec      4eb900404468   jsr fcn.00404468
         0x0077f1f2      584f           addq.w 0x4, a7
      > 0x0077f1f4      554f           subq.w 0x2, a7
          0x0077f1f6      3f12           move.w (a2), -(a7)
          0x0077f1f8      1f05           move.b d5, -(a7)
          0x0077f1fa      2f14           move.l (a4), -(a7)
          0x0077f1fc      4eb9006bdcc8   jsr USER2_DISK.exch_num
          0x0077f202      504f           addq.w 0x8, a7
          0x0077f204      101f           move.b (a7)+, d0
          0x0077f206      4880           ext.w d0
          0x0077f208      4183           chk.w d3, d0
          0x0077f20a      1e00           move.b d0, d7
          0x0077f20c      2f2efffa       move.l -0x6(a6), -(a7)
          0x0077f210      2f2efff6       move.l -0xa(a6), -(a7)
          0x0077f214      3f13           move.w (a3), -(a7)
          0x0077f216      2f14           move.l (a4), -(a7)
          0x0077f218      486efffe       pea.l -0x2(a6)
          0x0077f21c      4eb9006b11f4   jsr USER.unnumber_pic
          0x0077f222      defc0012       adda.w 0x12, a7
          0x0077f226      4a2efffe       tst.b -0x2(a6)
      < 0x0077f22a      67000110       beq.w 0x77f33c
         0x0077f22e      554f           subq.w 0x2, a7
         0x0077f230      2f2efffa       move.l -0x6(a6), -(a7)
         0x0077f234      2f2efff6       move.l -0xa(a6), -(a7)
         0x0077f238      3f13           move.w (a3), -(a7)
         0x0077f23a      4eb9005dd75a   jsr SEARCH_DISKS.sea_deindex
         0x0077f240      dec6           adda.w d6, a7
         0x0077f242      4a1f           tst.b (a7)+
     < 0x0077f244      670c           beq.b 0x77f252
        0x0077f246      2f13           move.l (a3), -(a7)
        0x0077f248      4eb9005dd9c6   jsr SEARCH_DISKS.sea_trample_on_
        0x0077f24e      584f           addq.w 0x4, a7
    < 0x0077f250      6066           bra.b 0x77f2b8
    > 0x0077f252      9ec1           suba.w d1, a7
        0x0077f254      4853           pea.l (a3)
        0x0077f256      4eb9005ef416   jsr F2_UTILITY.f_fid_string
        0x0077f25c      584f           addq.w 0x4, a7
        0x0077f25e      487a9678       pea.l 0x7788d8(pc)
        0x0077f262      48780019       pea.l 0x19
        0x0077f266      2f17           move.l (a7), -(a7)
        0x0077f268      4eb9004047ea   jsr p_wts_o
        0x0077f26e      defc000c       adda.w 0xc, a7
        0x0077f272      486f0001       pea.l 0x1(a7)
        0x0077f276      42a7           clr.l -(a7)
        0x0077f278      1f6f00080003   move.b 0x8(a7), 0x3(a7)
        0x0077f27e      2f17           move.l (a7), -(a7)
        0x0077f280      4eb9004047ea   jsr p_wts_o
        0x0077f286      dec4           adda.w d4, a7
        0x0077f288      4eb900404946   jsr p_wtln_o
        0x0077f28e      9ec1           suba.w d1, a7
        0x0077f290      4eb900408ec0   jsr p_err_string
        0x0077f296      486f0001       pea.l 0x1(a7)
        0x0077f29a      42a7           clr.l -(a7)
        0x0077f29c      1f6f00080003   move.b 0x8(a7), 0x3(a7)
        0x0077f2a2      2f17           move.l (a7), -(a7)
        0x0077f2a4      4eb9004047ea   jsr p_wts_o
        0x0077f2aa      dec4           adda.w d4, a7
        0x0077f2ac      4eb900404946   jsr p_wtln_o
        0x0077f2b2      4eb900404188   jsr p_Unlink
    > 0x0077f2b8      554f           subq.w 0x2, a7
         0x0077f2ba      2f2efffa       move.l -0x6(a6), -(a7)
         0x0077f2be      2f2efff6       move.l -0xa(a6), -(a7)
         0x0077f2c2      3f13           move.w (a3), -(a7)
         0x0077f2c4      4eb900605066   jsr F9_FILERDWRT.f_delete
         0x0077f2ca      dec6           adda.w d6, a7
         0x0077f2cc      4a1f           tst.b (a7)+
     < 0x0077f2ce      666c           bne.b 0x77f33c
        0x0077f2d0      9ec1           suba.w d1, a7
        0x0077f2d2      4853           pea.l (a3)
        0x0077f2d4      4eb9005ef416   jsr F2_UTILITY.f_fid_string
        0x0077f2da      584f           addq.w 0x4, a7
        0x0077f2dc      487a9614       pea.l 0x7788f2(pc)
        0x0077f2e0      4878001e       pea.l 0x1e
        0x0077f2e4      2f17           move.l (a7), -(a7)
        0x0077f2e6      4eb9004047ea   jsr p_wts_o
        0x0077f2ec      defc000c       adda.w 0xc, a7
        0x0077f2f0      486f0001       pea.l 0x1(a7)
        0x0077f2f4      42a7           clr.l -(a7)
        0x0077f2f6      1f6f00080003   move.b 0x8(a7), 0x3(a7)
        0x0077f2fc      2f17           move.l (a7), -(a7)
        0x0077f2fe      4eb9004047ea   jsr p_wts_o
        0x0077f304      dec4           adda.w d4, a7
        0x0077f306      4eb900404946   jsr p_wtln_o
        0x0077f30c      9ec1           suba.w d1, a7
        0x0077f30e      4eb900408ec0   jsr p_err_string
        0x0077f314      486f0001       pea.l 0x1(a7)
        0x0077f318      42a7           clr.l -(a7)
        0x0077f31a      1f6f00080003   move.b 0x8(a7), 0x3(a7)
        0x0077f320      2f17           move.l (a7), -(a7)
        0x0077f322      4eb9004047ea   jsr p_wts_o
        0x0077f328      dec4           adda.w d4, a7
        0x0077f32a      4eb900404946   jsr p_wtln_o
        0x0077f330      486effaa       pea.l -0x56(a6)
        0x0077f334      4eb900404468   jsr fcn.00404468
        0x0077f33a      584f           addq.w 0x4, a7
     > 0x0077f33c      1014           move.b (a4), d0
          0x0077f33e      b003           cmp.b d3, d0
      < 0x0077f340      6636           bne.b 0x77f378
         0x0077f342      4a07           tst.b d7
     < 0x0077f344      671a           beq.b 0x77f360
        0x0077f346      3012           move.w (a2), d0
        0x0077f348      c082           and.l d2, d0
        0x0077f34a      2f00           move.l d0, -(a7)
        0x0077f34c      9ec1           suba.w d1, a7
        0x0077f34e      204f           movea.l a7, a0
        0x0077f350      43fa95be       lea.l 0x778910(pc), a1
        0x0077f354      7006           moveq 0x6, d0
    > 0x0077f356      20d9           move.l (a1)+, (a0)+
    < 0x0077f358      51c8fffc       dbra d0, 0x77f356
    > 0x0077f35c      30d9           move.w (a1)+, (a0)+
   < 0x0077f35e      6054           bra.b 0x77f3b4
   > 0x0077f360      3012           move.w (a2), d0
       0x0077f362      c082           and.l d2, d0
       0x0077f364      2f00           move.l d0, -(a7)
       0x0077f366      9ec1           suba.w d1, a7
       0x0077f368      204f           movea.l a7, a0
       0x0077f36a      43fa95c2       lea.l 0x77892e(pc), a1
       0x0077f36e      7006           moveq 0x6, d0
   > 0x0077f370      20d9           move.l (a1)+, (a0)+
   < 0x0077f372      51c8fffc       dbra d0, 0x77f370
   < 0x0077f376      60e4           bra.b 0x77f35c
     > 0x0077f378      4a07           tst.b d7
     < 0x0077f37a      6718           beq.b 0x77f394
        0x0077f37c      3012           move.w (a2), d0
        0x0077f37e      c082           and.l d2, d0
        0x0077f380      2f00           move.l d0, -(a7)
        0x0077f382      9ec1           suba.w d1, a7
        0x0077f384      204f           movea.l a7, a0
        0x0077f386      43fa95c4       lea.l 0x77894c(pc), a1
        0x0077f38a      7006           moveq 0x6, d0
    > 0x0077f38c      20d9           move.l (a1)+, (a0)+
    < 0x0077f38e      51c8fffc       dbra d0, 0x77f38c
    < 0x0077f392      6020           bra.b 0x77f3b4
    > 0x0077f394      3012           move.w (a2), d0
        0x0077f396      c082           and.l d2, d0
        0x0077f398      2f00           move.l d0, -(a7)
        0x0077f39a      9efc00fc       suba.w 0xfc, a7
        0x0077f39e      2f3a95c8       move.l 0x778968(pc), -(a7)
        0x0077f3a2      2f7a95c80004   move.l 0x77896c(pc), 0x4(a7)
        0x0077f3a8      2f7a95c60008   move.l 0x778970(pc), 0x8(a7)
        0x0077f3ae      1f7a95c4000c   move.b 0x778974(pc), 0xc(a7)
   > 0x0077f3b4      1f03           move.b d3, -(a7)
          0x0077f3b6      4ebaa7ac       jsr PANEL_STACK.format_on_air(pc)
          0x0077f3ba      defc0106       adda.w 0x106, a7
          0x0077f3be      1d43000e       move.b d3, 0xe(a6)
      < 0x0077f3c2      6004           bra.b 0x77f3c8
      > 0x0077f3c4      422e000e       clr.b 0xe(a6)
      > 0x0077f3c8      4cdf1fff       movem.l (a7)+, d0-d7/a0-a4
           0x0077f3cc      4e5e           unlk a6
           0x0077f3ce      4e75           rts
            ; CALL XREF from PANEL.hit_clr_record @ 0x774d36
 568: PANEL_STACK.do_pic_erase ();
           ; var int32_t var_8h @ a7+0x8
           0x0077f3d0      4e56fe66       link.w a6, 0xfe66
           0x0077f3d4      bfd5           cmpa.l (a5), a7
       < 0x0077f3d6      6206           bhi.b 0x77f3de
          0x0077f3d8      44fc0002       move.w 0x2, ccr
          0x0077f3dc      4e76           trapv
       > 0x0077f3de      defc0144       adda.w 0x144, a7
           0x0077f3e2      48e7fff8       movem.l d0-d7/a0-a4, -(a7)
           0x0077f3e6      45f90086eb2c   lea.l 0x86eb2c, a2
           0x0077f3ec      47f900871016   lea.l 0x871016, a3
           0x0077f3f2      49eefff4       lea.l -0xc(a6), a4
           0x0077f3f6      7201           moveq 0x1, d1
           0x0077f3f8      343c0100       move.w 0x100, d2
           0x0077f3fc      263c0000ffff   move.l 0xffff, d3
           0x0077f402      780a           moveq 0xa, d4
           0x0077f404      7a12           moveq 0x12, d5
           0x0077f406      7c0c           moveq 0xc, d6
           0x0077f408      554f           subq.w 0x2, a7
           0x0077f40a      486effaa       pea.l -0x56(a6)
           0x0077f40e      4eb900404434   jsr fcn.00404434
           0x0077f414      584f           addq.w 0x4, a7
           0x0077f416      4a1f           tst.b (a7)+
       < 0x0077f418      670001e2       beq.w 0x77f5fc
          0x0077f41c      202e000a       move.l 0xa(a6), d0
          0x0077f420      b083           cmp.l d3, d0
      < 0x0077f422      6302           bls.b 0x77f426
         0x0077f424      4e4f           trap 0xf
      > 0x0077f426      3480           move.w d0, (a2)
          0x0077f428      554f           subq.w 0x2, a7
          0x0077f42a      1f3c0002       move.b 0x2, -(a7)
          0x0077f42e      4852           pea.l (a2)
          0x0077f430      1f2e0008       move.b 0x8(a6), -(a7)
          0x0077f434      2f13           move.l (a3), -(a7)
          0x0077f436      1f01           move.b d1, -(a7)
          0x0077f438      4854           pea.l (a4)
          0x0077f43a      4eb9006b0530   jsr USER.get_pnum
          0x0077f440      dec5           adda.w d5, a7
          0x0077f442      4a1f           tst.b (a7)+
      < 0x0077f444      660c           bne.b 0x77f452
         0x0077f446      486effaa       pea.l -0x56(a6)
         0x0077f44a      4eb900404468   jsr fcn.00404468
         0x0077f450      584f           addq.w 0x4, a7
      > 0x0077f452      554f           subq.w 0x2, a7
          0x0077f454      3f12           move.w (a2), -(a7)
          0x0077f456      1f01           move.b d1, -(a7)
          0x0077f458      2f13           move.l (a3), -(a7)
          0x0077f45a      4eb9006bdcc8   jsr USER2_DISK.exch_num
          0x0077f460      504f           addq.w 0x8, a7
          0x0077f462      101f           move.b (a7)+, d0
          0x0077f464      4880           ext.w d0
          0x0077f466      4181           chk.w d1, d0
          0x0077f468      1e00           move.b d0, d7
          0x0077f46a      2f2efffa       move.l -0x6(a6), -(a7)
          0x0077f46e      2f2efff6       move.l -0xa(a6), -(a7)
          0x0077f472      3f14           move.w (a4), -(a7)
          0x0077f474      2f13           move.l (a3), -(a7)
          0x0077f476      486efffe       pea.l -0x2(a6)
          0x0077f47a      4eb9006b11f4   jsr USER.unnumber_pic
          0x0077f480      dec5           adda.w d5, a7
          0x0077f482      4a2efffe       tst.b -0x2(a6)
      < 0x0077f486      670000da       beq.w 0x77f562
         0x0077f48a      554f           subq.w 0x2, a7
         0x0077f48c      2f2efffa       move.l -0x6(a6), -(a7)
         0x0077f490      2f2efff6       move.l -0xa(a6), -(a7)
         0x0077f494      3f14           move.w (a4), -(a7)
         0x0077f496      4eb9005dd75a   jsr SEARCH_DISKS.sea_deindex
         0x0077f49c      dec4           adda.w d4, a7
         0x0077f49e      4a1f           tst.b (a7)+
     < 0x0077f4a0      670c           beq.b 0x77f4ae
        0x0077f4a2      2f14           move.l (a4), -(a7)
        0x0077f4a4      4eb9005dd9c6   jsr SEARCH_DISKS.sea_trample_on_
        0x0077f4aa      584f           addq.w 0x4, a7
    < 0x0077f4ac      6068           bra.b 0x77f516
    > 0x0077f4ae      9ec2           suba.w d2, a7
        0x0077f4b0      4854           pea.l (a4)
        0x0077f4b2      4eb9005ef416   jsr F2_UTILITY.f_fid_string
        0x0077f4b8      584f           addq.w 0x4, a7
        0x0077f4ba      487a94ba       pea.l 0x778976(pc)
        0x0077f4be      48780019       pea.l 0x19
        0x0077f4c2      2f17           move.l (a7), -(a7)
        0x0077f4c4      4eb9004047ea   jsr p_wts_o
        0x0077f4ca      dec6           adda.w d6, a7
        0x0077f4cc      486f0001       pea.l 0x1(a7)
        0x0077f4d0      42a7           clr.l -(a7)
        0x0077f4d2      1f6f00080003   move.b 0x8(a7), 0x3(a7)
        0x0077f4d8      2f17           move.l (a7), -(a7)
        0x0077f4da      4eb9004047ea   jsr p_wts_o
        0x0077f4e0      defc010c       adda.w 0x10c, a7
        0x0077f4e4      4eb900404946   jsr p_wtln_o
        0x0077f4ea      9ec2           suba.w d2, a7
        0x0077f4ec      4eb900408ec0   jsr p_err_string
        0x0077f4f2      486f0001       pea.l 0x1(a7)
        0x0077f4f6      42a7           clr.l -(a7)
        0x0077f4f8      1f6f00080003   move.b 0x8(a7), 0x3(a7)
        0x0077f4fe      2f17           move.l (a7), -(a7)
        0x0077f500      4eb9004047ea   jsr p_wts_o
        0x0077f506      defc010c       adda.w 0x10c, a7
        0x0077f50a      4eb900404946   jsr p_wtln_o
        0x0077f510      4eb900404188   jsr p_Unlink
    > 0x0077f516      554f           subq.w 0x2, a7
         0x0077f518      2f2efffa       move.l -0x6(a6), -(a7)
         0x0077f51c      2f2efff6       move.l -0xa(a6), -(a7)
         0x0077f520      3f14           move.w (a4), -(a7)
         0x0077f522      4eb9006b949a   jsr USER1_UTILS.item_ftype
         0x0077f528      dec4           adda.w d4, a7
         0x0077f52a      101f           move.b (a7)+, d0
         0x0077f52c      0c000006       cmpi.b 0x6, d0
     < 0x0077f530      660a           bne.b 0x77f53c
        0x0077f532      4227           clr.b -(a7)
        0x0077f534      4eb90040452a   jsr p_Assert
        0x0077f53a      544f           addq.w 0x2, a7
     > 0x0077f53c      554f           subq.w 0x2, a7
         0x0077f53e      2f2efffa       move.l -0x6(a6), -(a7)
         0x0077f542      2f2efff6       move.l -0xa(a6), -(a7)
         0x0077f546      3f14           move.w (a4), -(a7)
         0x0077f548      4eb900605066   jsr F9_FILERDWRT.f_delete
         0x0077f54e      dec4           adda.w d4, a7
         0x0077f550      4a1f           tst.b (a7)+
     < 0x0077f552      6626           bne.b 0x77f57a
        0x0077f554      486effaa       pea.l -0x56(a6)
        0x0077f558      4eb900404468   jsr fcn.00404468
        0x0077f55e      584f           addq.w 0x4, a7
    < 0x0077f560      6018           bra.b 0x77f57a
    > 0x0077f562      487a942c       pea.l 0x778990(pc)
        0x0077f566      4878001e       pea.l 0x1e
        0x0077f56a      2f17           move.l (a7), -(a7)
        0x0077f56c      4eb9004047ea   jsr p_wts_o
        0x0077f572      dec6           adda.w d6, a7
        0x0077f574      4eb900404946   jsr p_wtln_o
    > 0x0077f57a      1013           move.b (a3), d0
          0x0077f57c      b001           cmp.b d1, d0
      < 0x0077f57e      6636           bne.b 0x77f5b6
         0x0077f580      4a07           tst.b d7
     < 0x0077f582      671a           beq.b 0x77f59e
        0x0077f584      3012           move.w (a2), d0
        0x0077f586      c083           and.l d3, d0
        0x0077f588      2f00           move.l d0, -(a7)
        0x0077f58a      9ec2           suba.w d2, a7
        0x0077f58c      204f           movea.l a7, a0
        0x0077f58e      43fa941e       lea.l 0x7789ae(pc), a1
        0x0077f592      7006           moveq 0x6, d0
    > 0x0077f594      20d9           move.l (a1)+, (a0)+
    < 0x0077f596      51c8fffc       dbra d0, 0x77f594
        0x0077f59a      10d9           move.b (a1)+, (a0)+
    < 0x0077f59c      604e           bra.b 0x77f5ec
    > 0x0077f59e      3012           move.w (a2), d0
        0x0077f5a0      c083           and.l d3, d0
        0x0077f5a2      2f00           move.l d0, -(a7)
        0x0077f5a4      9ec2           suba.w d2, a7
        0x0077f5a6      204f           movea.l a7, a0
        0x0077f5a8      43fa9421       lea.l 0x7789cb(pc), a1
        0x0077f5ac      701c           moveq 0x1c, d0
    > 0x0077f5ae      10d9           move.b (a1)+, (a0)+
    < 0x0077f5b0      51c8fffc       dbra d0, 0x77f5ae
    < 0x0077f5b4      6036           bra.b 0x77f5ec
    > 0x0077f5b6      4a07           tst.b d7
    < 0x0077f5b8      671c           beq.b 0x77f5d6
       0x0077f5ba      3012           move.w (a2), d0
       0x0077f5bc      c083           and.l d3, d0
       0x0077f5be      2f00           move.l d0, -(a7)
       0x0077f5c0      9ec2           suba.w d2, a7
       0x0077f5c2      204f           movea.l a7, a0
       0x0077f5c4      43fa9422       lea.l 0x7789e8(pc), a1
       0x0077f5c8      7005           moveq 0x5, d0
   > 0x0077f5ca      20d9           move.l (a1)+, (a0)+
   < 0x0077f5cc      51c8fffc       dbra d0, 0x77f5ca
       0x0077f5d0      30d9           move.w (a1)+, (a0)+
       0x0077f5d2      10d9           move.b (a1)+, (a0)+
   < 0x0077f5d4      6016           bra.b 0x77f5ec
   > 0x0077f5d6      3012           move.w (a2), d0
       0x0077f5d8      c083           and.l d3, d0
       0x0077f5da      2f00           move.l d0, -(a7)
       0x0077f5dc      9ec2           suba.w d2, a7
       0x0077f5de      204f           movea.l a7, a0
       0x0077f5e0      43fa9421       lea.l 0x778a03(pc), a1
       0x0077f5e4      700b           moveq 0xb, d0
   > 0x0077f5e6      10d9           move.b (a1)+, (a0)+
   < 0x0077f5e8      51c8fffc       dbra d0, 0x77f5e6
   > 0x0077f5ec      1f01           move.b d1, -(a7)
          0x0077f5ee      4ebaa574       jsr PANEL_STACK.format_on_air(pc)
          0x0077f5f2      defc0106       adda.w 0x106, a7
          0x0077f5f6      1d41000e       move.b d1, 0xe(a6)
      < 0x0077f5fa      6004           bra.b 0x77f600
      > 0x0077f5fc      422e000e       clr.b 0xe(a6)
      > 0x0077f600      4cdf1fff       movem.l (a7)+, d0-d7/a0-a4
           0x0077f604      4e5e           unlk a6
           0x0077f606      4e75           rts
            ; CALL XREF from PANEL.hit_fadekey @ 0x775178
 72: PANEL_STACK.do_get_crnt ();
           0x0077f608      4e56feee       link.w a6, 0xfeee
           0x0077f60c      bfd5           cmpa.l (a5), a7
       < 0x0077f60e      6206           bhi.b 0x77f616
          0x0077f610      44fc0002       move.w 0x2, ccr
          0x0077f614      4e76           trapv
       > 0x0077f616      defc0112       adda.w 0x112, a7
           0x0077f61a      48e780c0       movem.l d0/a0-a1, -(a7)
           0x0077f61e      4280           clr.l d0
           0x0077f620      302e0008       move.w 0x8(a6), d0
           0x0077f624      2f00           move.l d0, -(a7)
           0x0077f626      4ebaacbe       jsr PANEL_STACK.set_crnt_from_e(pc)
           0x0077f62a      9efc00fc       suba.w 0xfc, a7
           0x0077f62e      204f           movea.l a7, a0
           0x0077f630      43fa93dd       lea.l 0x778a0f(pc), a1
           0x0077f634      7020           moveq 0x20, d0
       > 0x0077f636      10d9           move.b (a1)+, (a0)+
       < 0x0077f638      51c8fffc       dbra d0, 0x77f636
           0x0077f63c      1f3c0002       move.b 0x2, -(a7)
           0x0077f640      4ebaa2d0       jsr PANEL_STACK.set_on_air(pc)
           0x0077f644      defc0102       adda.w 0x102, a7
           0x0077f648      4cdf0301       movem.l (a7)+, d0/a0-a1
           0x0077f64c      4e5e           unlk a6
           0x0077f64e      4e75           rts
            ; CALL XREF from PANEL.hit_window @ 0x774da0
 306: PANEL_STACK.do_wdw_fade_pus ();
           0x0077f650      4e56ffc0       link.w a6, 0xffc0
           0x0077f654      bfd5           cmpa.l (a5), a7
       < 0x0077f656      6206           bhi.b 0x77f65e
          0x0077f658      44fc0002       move.w 0x2, ccr
          0x0077f65c      4e76           trapv
       > 0x0077f65e      defc0040       adda.w 0x40, a7
           0x0077f662      48e7fee0       movem.l d0-d6/a0-a2, -(a7)
           0x0077f666      243cffff8000   move.l 0xffff8000, d2
           0x0077f66c      2a3c0000ffff   move.l 0xffff, d5
           0x0077f672      7c0c           moveq 0xc, d6
           0x0077f674      202e0010       move.l 0x10(a6), d0
           0x0077f678      0480ffffff9c   subi.l 0xffffff9c, d0
           0x0077f67e      0c80000000c7   cmpi.l 0xc7, d0
       < 0x0077f684      6302           bls.b 0x77f688
          0x0077f686      4e4f           trap 0xf
       > 0x0077f688      2800           move.l d0, d4
           0x0077f68a      7636           moveq 0x36, d3
           0x0077f68c      4eb900406a74   jsr fcn.00406a74
           0x0077f692      20790086eb32   movea.l 0x86eb32, a0
           0x0077f698      b1e8fffc       cmpa.l -0x4(a0), a0
       < 0x0077f69c      6702           beq.b 0x77f6a0
          0x0077f69e      4e4d           trap 0xd
       > 0x0077f6a0      1030482e       move.b 0x2e(a0, d4.l), d0
           0x0077f6a4      4880           ext.w d0
           0x0077f6a6      43fa9388       lea.l 0x778a30(pc), a1
           0x0077f6aa      3200           move.w d0, d1
           0x0077f6ac      e649           lsr.w 0x3, d1
           0x0077f6ae      01311000       btst.l d0, (a1, d1.w)
       < 0x0077f6b2      670000c0       beq.w 0x77f774
          0x0077f6b6      4a2e000c       tst.b 0xc(a6)
      < 0x0077f6ba      670e           beq.b 0x77f6ca
         0x0077f6bc      202e0008       move.l 0x8(a6), d0
         0x0077f6c0      9082           sub.l d2, d0
         0x0077f6c2      b085           cmp.l d5, d0
     < 0x0077f6c4      6302           bls.b 0x77f6c8
        0x0077f6c6      4e4f           trap 0xf
    > 0x0077f6c8      601a           bra.b 0x77f6e4
     > 0x0077f6ca      4a2e000e       tst.b 0xe(a6)
     < 0x0077f6ce      6706           beq.b 0x77f6d6
        0x0077f6d0      4a30480c       tst.b 0xc(a0, d4.l)
    < 0x0077f6d4      6714           beq.b 0x77f6ea
    > 0x0077f6d6      203900871002   move.l 0x871002, d0
        0x0077f6dc      9082           sub.l d2, d0
        0x0077f6de      b085           cmp.l d5, d0
    < 0x0077f6e0      6302           bls.b 0x77f6e4
       0x0077f6e2      4e4f           trap 0xf
    > 0x0077f6e4      d082           add.l d2, d0
         0x0077f6e6      3180480e       move.w d0, 0xe(a0, d4.l)
     > 0x0077f6ea      4230480c       clr.b 0xc(a0, d4.l)
          0x0077f6ee      103900871006   move.b 0x871006, d0
          0x0077f6f4      4880           ext.w d0
          0x0077f6f6      41bc0002       chk.w 0x2, d0
          0x0077f6fa      11804810       move.b d0, 0x10(a0, d4.l)
          0x0077f6fe      31b900871024.  move.w 0x871024, 0x1e(a0, d4.l)
          0x0077f706      43f04820       lea.l 0x20(a0, d4.l), a1
          0x0077f70a      45f90087101e   lea.l 0x87101e, a2
          0x0077f710      7005           moveq 0x5, d0
      > 0x0077f712      12da           move.b (a2)+, (a1)+
      < 0x0077f714      51c8fffc       dbra d0, 0x77f712
          0x0077f718      4a390086eb1a   tst.b 0x86eb1a
      < 0x0077f71e      675a           beq.b 0x77f77a
         0x0077f720      487a9311       pea.l 0x778a33(pc)
         0x0077f724      4878000e       pea.l 0xe
         0x0077f728      2f17           move.l (a7), -(a7)
         0x0077f72a      4eb9004047ea   jsr p_wts_o
         0x0077f730      dec6           adda.w d6, a7
         0x0077f732      3030480a       move.w 0xa(a0, d4.l), d0
         0x0077f736      c085           and.l d5, d0
         0x0077f738      2f00           move.l d0, -(a7)
         0x0077f73a      48780000       pea.l 0x0
         0x0077f73e      4eb9004070e4   jsr p_wti_o
         0x0077f744      504f           addq.w 0x8, a7
         0x0077f746      487a92fa       pea.l 0x778a42(pc)
         0x0077f74a      48780009       pea.l 0x9
         0x0077f74e      2f17           move.l (a7), -(a7)
         0x0077f750      4eb9004047ea   jsr p_wts_o
         0x0077f756      dec6           adda.w d6, a7
         0x0077f758      3030480e       move.w 0xe(a0, d4.l), d0
         0x0077f75c      48c0           ext.l d0
         0x0077f75e      2f00           move.l d0, -(a7)
         0x0077f760      48780000       pea.l 0x0
         0x0077f764      4eb9004070e4   jsr p_wti_o
         0x0077f76a      504f           addq.w 0x8, a7
         0x0077f76c      4eb900404946   jsr p_wtln_o
     < 0x0077f772      6006           bra.b 0x77f77a
     > 0x0077f774      4eb900401620   jsr p_walkback
     > 0x0077f77a      4cdf077f       movem.l (a7)+, d0-d6/a0-a2
           0x0077f77e      4e5e           unlk a6
           0x0077f780      4e75           rts
            ; CALL XREF from PANEL.hit_window @ 0x774db8
 352: PANEL_STACK.do_wdw_output_p ();
           0x0077f782      4e56fec6       link.w a6, 0xfec6
           0x0077f786      bfd5           cmpa.l (a5), a7
       < 0x0077f788      6206           bhi.b 0x77f790
          0x0077f78a      44fc0002       move.w 0x2, ccr
          0x0077f78e      4e76           trapv
       > 0x0077f790      defc013a       adda.w 0x13a, a7
           0x0077f794      48e7f8f8       movem.l d0-d4/a0-a4, -(a7)
           0x0077f798      47f90086eb32   lea.l 0x86eb32, a3
           0x0077f79e      49ee0008       lea.l 0x8(a6), a4
           0x0077f7a2      7401           moveq 0x1, d2
           0x0077f7a4      202e000c       move.l 0xc(a6), d0
           0x0077f7a8      0480ffffff9c   subi.l 0xffffff9c, d0
           0x0077f7ae      0c80000000c7   cmpi.l 0xc7, d0
       < 0x0077f7b4      6302           bls.b 0x77f7b8
          0x0077f7b6      4e4f           trap 0xf
       > 0x0077f7b8      2800           move.l d0, d4
           0x0077f7ba      7636           moveq 0x36, d3
           0x0077f7bc      4eb900406a74   jsr fcn.00406a74
           0x0077f7c2      2053           movea.l (a3), a0
           0x0077f7c4      b1e8fffc       cmpa.l -0x4(a0), a0
       < 0x0077f7c8      6702           beq.b 0x77f7cc
          0x0077f7ca      4e4d           trap 0xd
       > 0x0077f7cc      1030482e       move.b 0x2e(a0, d4.l), d0
           0x0077f7d0      4880           ext.w d0
           0x0077f7d2      43fa9278       lea.l 0x778a4c(pc), a1
           0x0077f7d6      3200           move.w d0, d1
           0x0077f7d8      e649           lsr.w 0x3, d1
           0x0077f7da      01311000       btst.l d0, (a1, d1.w)
       < 0x0077f7de      670000f4       beq.w 0x77f8d4
          0x0077f7e2      9efc000a       suba.w 0xa, a7
          0x0077f7e6      2f14           move.l (a4), -(a7)
          0x0077f7e8      4eb900783eb4   jsr PANEL_UTILS.alt_seq_seq
          0x0077f7ee      584f           addq.w 0x4, a7
          0x0077f7f0      4eb900784428   jsr PANEL_UTILS.sequence_ok
          0x0077f7f6      504f           addq.w 0x8, a7
          0x0077f7f8      4a1f           tst.b (a7)+
      < 0x0077f7fa      670000aa       beq.w 0x77f8a6
         0x0077f7fe      1182480c       move.b d2, 0xc(a0, d4.l)
         0x0077f802      514f           subq.w 0x8, a7
         0x0077f804      2f14           move.l (a4), -(a7)
         0x0077f806      4eb900783eb4   jsr PANEL_UTILS.alt_seq_seq
         0x0077f80c      584f           addq.w 0x4, a7
         0x0077f80e      43f04811       lea.l 0x11(a0, d4.l), a1
         0x0077f812      244f           movea.l a7, a2
         0x0077f814      7007           moveq 0x7, d0
     > 0x0077f816      12da           move.b (a2)+, (a1)+
     < 0x0077f818      51c8fffc       dbra d0, 0x77f816
         0x0077f81c      504f           addq.w 0x8, a7
         0x0077f81e      4a390086eb1a   tst.b 0x86eb1a
     < 0x0077f824      6764           beq.b 0x77f88a
        0x0077f826      487a9227       pea.l 0x778a4f(pc)
        0x0077f82a      4878000e       pea.l 0xe
        0x0077f82e      2f17           move.l (a7), -(a7)
        0x0077f830      4eb9004047ea   jsr p_wts_o
        0x0077f836      defc000c       adda.w 0xc, a7
        0x0077f83a      3030480a       move.w 0xa(a0, d4.l), d0
        0x0077f83e      02800000ffff   andi.l 0xffff, d0
        0x0077f844      2f00           move.l d0, -(a7)
        0x0077f846      48780000       pea.l 0x0
        0x0077f84a      4eb9004070e4   jsr p_wti_o
        0x0077f850      504f           addq.w 0x8, a7
        0x0077f852      487a920a       pea.l 0x778a5e(pc)
        0x0077f856      48780008       pea.l 0x8
        0x0077f85a      2f17           move.l (a7), -(a7)
        0x0077f85c      4eb9004047ea   jsr p_wts_o
        0x0077f862      224f           movea.l a7, a1
        0x0077f864      45f04811       lea.l 0x11(a0, d4.l), a2
        0x0077f868      7007           moveq 0x7, d0
    > 0x0077f86a      12da           move.b (a2)+, (a1)+
    < 0x0077f86c      51c8fffc       dbra d0, 0x77f86a
        0x0077f870      4eb900783e1c   jsr PANEL_UTILS.alt_seq_number
        0x0077f876      504f           addq.w 0x8, a7
        0x0077f878      48780000       pea.l 0x0
        0x0077f87c      4eb9004070e4   jsr p_wti_o
        0x0077f882      504f           addq.w 0x8, a7
        0x0077f884      4eb900404946   jsr p_wtln_o
     > 0x0077f88a      4aae000c       tst.l 0xc(a6)
     < 0x0077f88e      664a           bne.b 0x77f8da
        0x0077f890      2253           movea.l (a3), a1
        0x0077f892      b3e9fffc       cmpa.l -0x4(a1), a1
    < 0x0077f896      6702           beq.b 0x77f89a
       0x0077f898      4e4d           trap 0xd
    > 0x0077f89a      23420006       move.l d2, 0x6(a1)
        0x0077f89e      23c200871010   move.l d2, 0x871010
    < 0x0077f8a4      6034           bra.b 0x77f8da
    > 0x0077f8a6      2f14           move.l (a4), -(a7)
        0x0077f8a8      9efc00fc       suba.w 0xfc, a7
        0x0077f8ac      2f3a91b8       move.l 0x778a66(pc), -(a7)
        0x0077f8b0      2f7a91b80004   move.l 0x778a6a(pc), 0x4(a7)
        0x0077f8b6      2f7a91b60008   move.l 0x778a6e(pc), 0x8(a7)
        0x0077f8bc      2f7a91b4000c   move.l 0x778a72(pc), 0xc(a7)
        0x0077f8c2      3f7a91b20010   move.w 0x778a76(pc), 0x10(a7)
        0x0077f8c8      1f02           move.b d2, -(a7)
        0x0077f8ca      4ebaa298       jsr PANEL_STACK.format_on_air(pc)
        0x0077f8ce      defc0106       adda.w 0x106, a7
    < 0x0077f8d2      6006           bra.b 0x77f8da
    > 0x0077f8d4      4eb900401620   jsr p_walkback
    > 0x0077f8da      4cdf1f1f       movem.l (a7)+, d0-d4/a0-a4
           0x0077f8de      4e5e           unlk a6
           0x0077f8e0      4e75           rts
            ; CALL XREF from PANEL.hit_window @ 0x774dd8
 334: PANEL_STACK.do_wdw_digit_pu ();
           ; var int32_t var_8h @ a7+0x8
           0x0077f8e2      4e56fec4       link.w a6, 0xfec4
           0x0077f8e6      bfd5           cmpa.l (a5), a7
       < 0x0077f8e8      6206           bhi.b 0x77f8f0
          0x0077f8ea      44fc0002       move.w 0x2, ccr
          0x0077f8ee      4e76           trapv
       > 0x0077f8f0      defc013c       adda.w 0x13c, a7
           0x0077f8f4      48e7d8f8       movem.l d0-d1/d3-d4/a0-a4, -(a7)
           0x0077f8f8      45ee0010       lea.l 0x10(a6), a2
           0x0077f8fc      47f9004047ea   lea.l p_wts_o, a3
           0x0077f902      49f90086eb32   lea.l 0x86eb32, a4
           0x0077f908      7201           moveq 0x1, d1
           0x0077f90a      2012           move.l (a2), d0
           0x0077f90c      0480ffffff9c   subi.l 0xffffff9c, d0
           0x0077f912      0c80000000c7   cmpi.l 0xc7, d0
       < 0x0077f918      6302           bls.b 0x77f91c
          0x0077f91a      4e4f           trap 0xf
       > 0x0077f91c      2800           move.l d0, d4
           0x0077f91e      7636           moveq 0x36, d3
           0x0077f920      4eb900406a74   jsr fcn.00406a74
           0x0077f926      2054           movea.l (a4), a0
           0x0077f928      b1e8fffc       cmpa.l -0x4(a0), a0
       < 0x0077f92c      6702           beq.b 0x77f930
          0x0077f92e      4e4d           trap 0xd
       > 0x0077f930      4a390086eb1a   tst.b 0x86eb1a
       < 0x0077f936      6776           beq.b 0x77f9ae
          0x0077f938      9efc0100       suba.w 0x100, a7
          0x0077f93c      2f3900871016   move.l 0x871016, -(a7)
          0x0077f942      4eb9006b8ed2   jsr USER1_UTILS.region_str
          0x0077f948      584f           addq.w 0x4, a7
          0x0077f94a      487a912d       pea.l 0x778a79(pc)
          0x0077f94e      4878000b       pea.l 0xb
          0x0077f952      2f17           move.l (a7), -(a7)
          0x0077f954      4e93           jsr (a3)                    ; fcn.0000000c
          0x0077f956      504f           addq.w 0x8, a7
          0x0077f958      2eae000c       move.l 0xc(a6), (a7)
          0x0077f95c      48780000       pea.l 0x0
          0x0077f960      4eb9004070e4   jsr p_wti_o
          0x0077f966      504f           addq.w 0x8, a7
          0x0077f968      487a911b       pea.l 0x778a85(pc)
          0x0077f96c      4878000b       pea.l 0xb
          0x0077f970      2f17           move.l (a7), -(a7)
          0x0077f972      4e93           jsr (a3)                    ; fcn.0000000c
          0x0077f974      504f           addq.w 0x8, a7
          0x0077f976      2e92           move.l (a2), (a7)
          0x0077f978      48780000       pea.l 0x0
          0x0077f97c      4eb9004070e4   jsr p_wti_o
          0x0077f982      504f           addq.w 0x8, a7
          0x0077f984      487a910b       pea.l 0x778a91(pc)
          0x0077f988      48780009       pea.l 0x9
          0x0077f98c      2f17           move.l (a7), -(a7)
          0x0077f98e      4e93           jsr (a3)                    ; fcn.0000000c
          0x0077f990      defc000c       adda.w 0xc, a7
          0x0077f994      486f0001       pea.l 0x1(a7)
          0x0077f998      42a7           clr.l -(a7)
          0x0077f99a      1f6f00080003   move.b 0x8(a7), 0x3(a7)
          0x0077f9a0      2f17           move.l (a7), -(a7)
          0x0077f9a2      4e93           jsr (a3)                    ; fcn.0000000c
          0x0077f9a4      defc010c       adda.w 0x10c, a7
          0x0077f9a8      4eb900404946   jsr p_wtln_o
       > 0x0077f9ae      4227           clr.b -(a7)
           0x0077f9b0      4ebab560       jsr PANEL_STACK.get_frozen(pc)
           0x0077f9b4      544f           addq.w 0x2, a7
           0x0077f9b6      4a2e0008       tst.b 0x8(a6)
       < 0x0077f9ba      660c           bne.b 0x77f9c8
          0x0077f9bc      2f12           move.l (a2), -(a7)
          0x0077f9be      1f01           move.b d1, -(a7)
          0x0077f9c0      4227           clr.b -(a7)
          0x0077f9c2      4ebaab76       jsr PANEL_STACK.ripple_stack(pc)
          0x0077f9c6      504f           addq.w 0x8, a7
       > 0x0077f9c8      4a2e000a       tst.b 0xa(a6)
       < 0x0077f9cc      6708           beq.b 0x77f9d6
          0x0077f9ce      11bc0002482e   move.b 0x2, 0x2e(a0, d4.l)
      < 0x0077f9d4      6020           bra.b 0x77f9f6
      > 0x0077f9d6      554f           subq.w 0x2, a7
          0x0077f9d8      2f2e000c       move.l 0xc(a6), -(a7)
          0x0077f9dc      2f3900871016   move.l 0x871016, -(a7)
          0x0077f9e2      4eb900784b94   jsr PANEL_UTILS.item_ntype
          0x0077f9e8      504f           addq.w 0x8, a7
          0x0077f9ea      101f           move.b (a7)+, d0
          0x0077f9ec      4880           ext.w d0
          0x0077f9ee      41bc000f       chk.w 0xf, d0
          0x0077f9f2      1180482e       move.b d0, 0x2e(a0, d4.l)
      > 0x0077f9f6      202e000c       move.l 0xc(a6), d0
           0x0077f9fa      0c800000ffff   cmpi.l 0xffff, d0
       < 0x0077fa00      6302           bls.b 0x77fa04
          0x0077fa02      4e4f           trap 0xf
       > 0x0077fa04      3180480a       move.w d0, 0xa(a0, d4.l)
           0x0077fa08      2254           movea.l (a4), a1
           0x0077fa0a      b3e9fffc       cmpa.l -0x4(a1), a1
       < 0x0077fa0e      6702           beq.b 0x77fa12
          0x0077fa10      4e4d           trap 0xd
       > 0x0077fa12      4871480a       pea.l 0xa(a1, d4.l)
           0x0077fa16      1f01           move.b d1, -(a7)
           0x0077fa18      4ebaa632       jsr PANEL_STACK.make_current(pc)
           0x0077fa1c      544f           addq.w 0x2, a7
           0x0077fa1e      2e92           move.l (a2), (a7)
           0x0077fa20      4eb90078e2bc   jsr PANEL_PREFETCH.fetch_from
           0x0077fa26      584f           addq.w 0x4, a7
           0x0077fa28      4cdf1f1b       movem.l (a7)+, d0-d1/d3-d4/a0-a4
           0x0077fa2c      4e5e           unlk a6
           0x0077fa2e      4e75           rts
            ; CALL XREF from PANEL_STACK.do_window @ 0x77fc94
 408: PANEL_STACK.update_stack ();
           ; var int32_t var_8h @ a7+0x8
           ; var int32_t var_1bh @ a7+0x1b
           ; var int32_t var_1ch @ a7+0x1c
           ; var int32_t var_1dh @ a7+0x1d
           0x0077fa30      4e56fec6       link.w a6, 0xfec6
           0x0077fa34      bfd5           cmpa.l (a5), a7
       < 0x0077fa36      6206           bhi.b 0x77fa3e
          0x0077fa38      44fc0002       move.w 0x2, ccr
          0x0077fa3c      4e76           trapv
       > 0x0077fa3e      defc013a       adda.w 0x13a, a7
           0x0077fa42      48e7f8f0       movem.l d0-d4/a0-a3, -(a7)
           0x0077fa46      45f90086eb32   lea.l 0x86eb32, a2
           0x0077fa4c      47f9004047ea   lea.l p_wts_o, a3
           0x0077fa52      740c           moveq 0xc, d2
           0x0077fa54      302c05ae       move.w 0x5ae(a4), d0
           0x0077fa58      0c400006       cmpi.w 0x6, d0
       < 0x0077fa5c      640a           bcc.b 0x77fa68
          0x0077fa5e      48780000       pea.l 0x0
          0x0077fa62      48780063       pea.l 0x63
      < 0x0077fa66      6008           bra.b 0x77fa70
      > 0x0077fa68      48780005       pea.l 0x5
          0x0077fa6c      48780005       pea.l 0x5
      > 0x0077fa70      4227           clr.b -(a7)
           0x0077fa72      4ebaacd4       jsr PANEL_STACK.refresh_stack(pc)
           0x0077fa76      defc000a       adda.w 0xa, a7
           0x0077fa7a      4a40           tst.w d0
       < 0x0077fa7c      6600011a       bne.w 0x77fb98
          0x0077fa80      554f           subq.w 0x2, a7
          0x0077fa82      1f3c0001       move.b 0x1, -(a7)
          0x0077fa86      4ebabfd2       jsr PANEL_STACK.rebuild_prefetc(pc)
          0x0077fa8a      544f           addq.w 0x2, a7
          0x0077fa8c      4a1f           tst.b (a7)+
      < 0x0077fa8e      660000ea       bne.w 0x77fb7a
         0x0077fa92      02800000ffff   andi.l 0xffff, d0
         0x0077fa98      2200           move.l d0, d1
         0x0077fa9a      0481ffffff9c   subi.l 0xffffff9c, d1
         0x0077faa0      0c81000000c7   cmpi.l 0xc7, d1
     < 0x0077faa6      6302           bls.b 0x77faaa
        0x0077faa8      4e4f           trap 0xf
     > 0x0077faaa      2801           move.l d1, d4
         0x0077faac      7636           moveq 0x36, d3
         0x0077faae      4eb900406a74   jsr fcn.00406a74
         0x0077fab4      9efc0100       suba.w 0x100, a7
         0x0077fab8      2052           movea.l (a2), a0
         0x0077faba      b1e8fffc       cmpa.l -0x4(a0), a0
     < 0x0077fabe      6702           beq.b 0x77fac2
        0x0077fac0      4e4d           trap 0xd
     > 0x0077fac2      594f           subq.w 0x4, a7
         0x0077fac4      1eb0481a       move.b 0x1a(a0, d4.l), (a7)
         0x0077fac8      1f70481b0001   move.b 0x1b(a0, d4.l), 0x1(a7)
         0x0077face      1f70481c0002   move.b 0x1c(a0, d4.l), 0x2(a7)
         0x0077fad4      1f70481d0003   move.b 0x1d(a0, d4.l), 0x3(a7)
         0x0077fada      4eb9006b8ed2   jsr USER1_UTILS.region_str
         0x0077fae0      584f           addq.w 0x4, a7
         0x0077fae2      487a8fb7       pea.l 0x778a9b(pc)
         0x0077fae6      48780012       pea.l 0x12
         0x0077faea      2f17           move.l (a7), -(a7)
         0x0077faec      4e93           jsr (a3)                    ; fcn.0000000c
         0x0077faee      dec2           adda.w d2, a7
         0x0077faf0      486f0001       pea.l 0x1(a7)
         0x0077faf4      42a7           clr.l -(a7)
         0x0077faf6      1f6f00080003   move.b 0x8(a7), 0x3(a7)
         0x0077fafc      2f17           move.l (a7), -(a7)
         0x0077fafe      4e93           jsr (a3)                    ; fcn.0000000c
         0x0077fb00      defc010c       adda.w 0x10c, a7
         0x0077fb04      487a8fa8       pea.l 0x778aae(pc)
         0x0077fb08      48780006       pea.l 0x6
         0x0077fb0c      2f17           move.l (a7), -(a7)
         0x0077fb0e      4e93           jsr (a3)                    ; fcn.0000000c
         0x0077fb10      dec2           adda.w d2, a7
         0x0077fb12      2052           movea.l (a2), a0
         0x0077fb14      b1e8fffc       cmpa.l -0x4(a0), a0
     < 0x0077fb18      6702           beq.b 0x77fb1c
        0x0077fb1a      4e4d           trap 0xd
     > 0x0077fb1c      4281           clr.l d1
         0x0077fb1e      3230480a       move.w 0xa(a0, d4.l), d1
         0x0077fb22      2f01           move.l d1, -(a7)
         0x0077fb24      48780000       pea.l 0x0
         0x0077fb28      4eb9004070e4   jsr p_wti_o
         0x0077fb2e      504f           addq.w 0x8, a7
         0x0077fb30      4eb900404946   jsr p_wtln_o
         0x0077fb36      197a8f7c0197   move.b 0x778ab4(pc), 0x197(a4)
         0x0077fb3c      197a8f770198   move.b 0x778ab5(pc), 0x198(a4)
         0x0077fb42      197a8f720199   move.b 0x778ab6(pc), 0x199(a4)
         0x0077fb48      197a8f6d019a   move.b 0x778ab7(pc), 0x19a(a4)
         0x0077fb4e      48780008       pea.l 0x8
         0x0077fb52      486c0197       pea.l 0x197(a4)
         0x0077fb56      4eb9007a1f06   jsr SERIAL.write_window
         0x0077fb5c      9efc00f8       suba.w 0xf8, a7
         0x0077fb60      4eb900408ec0   jsr p_err_string
         0x0077fb66      41f90086f342   lea.l 0x86f342, a0
         0x0077fb6c      723f           moveq 0x3f, d1
     > 0x0077fb6e      20df           move.l (a7)+, (a0)+
     < 0x0077fb70      51c9fffc       dbra d1, 0x77fb6e
         0x0077fb74      4eb900404188   jsr p_Unlink
      > 0x0077fb7a      9efc0100       suba.w 0x100, a7
          0x0077fb7e      204f           movea.l a7, a0
          0x0077fb80      43f90086f342   lea.l 0x86f342, a1
          0x0077fb86      723f           moveq 0x3f, d1
      > 0x0077fb88      20d9           move.l (a1)+, (a0)+
      < 0x0077fb8a      51c9fffc       dbra d1, 0x77fb88
          0x0077fb8e      4227           clr.b -(a7)
          0x0077fb90      4eba9e0c       jsr PANEL_STACK.set_next_on_air(pc)
          0x0077fb94      defc0102       adda.w 0x102, a7
       > 0x0077fb98      41fa8f1e       lea.l 0x778ab8(pc), a0
           0x0077fb9c      3200           move.w d0, d1
           0x0077fb9e      e649           lsr.w 0x3, d1
           0x0077fba0      0c410020       cmpi.w 0x20, d1
       < 0x0077fba4      6d04           blt.b 0x77fbaa
          0x0077fba6      7200           moveq 0x0, d1
      < 0x0077fba8      6004           bra.b 0x77fbae
      > 0x0077fbaa      01301000       btst.l d0, (a0, d1.w)
      < 0x0077fbae      6710           beq.b 0x77fbc0
          0x0077fbb0      4eb90078ddba   jsr PANEL_PREFETCH.unfetch_clip
          0x0077fbb6      4239008713cd   clr.b 0x8713cd
          0x0077fbbc      4ebacdc2       jsr PANEL_STACK.prefetch_early(pc)
       > 0x0077fbc0      4cdf0f1f       movem.l (a7)+, d0-d4/a0-a3
           0x0077fbc4      4e5e           unlk a6
           0x0077fbc6      4e75           rts
            ; CALL XREF from PANEL.hit_window @ 0x774dea
 254: PANEL_STACK.do_window ();
           ; var int32_t var_79f0h @ a6-0x79f0
           ; var int32_t var_79ebh @ a6-0x79eb
           ; var int32_t var_789bh @ a6-0x789b
           ; var int32_t var_7896h @ a6-0x7896
           ; var int32_t var_8h @ a7+0x8
           0x0077fbc8      4e56f80e       link.w a6, 0xf80e
           0x0077fbcc      bfd5           cmpa.l (a5), a7
       < 0x0077fbce      6206           bhi.b 0x77fbd6
          0x0077fbd0      44fc0002       move.w 0x2, ccr
          0x0077fbd4      4e76           trapv
       > 0x0077fbd6      defc0250       adda.w 0x250, a7
           0x0077fbda      48e7fff8       movem.l d0-d7/a0-a4, -(a7)
           0x0077fbde      4a390086eb1a   tst.b 0x86eb1a
       < 0x0077fbe4      672e           beq.b 0x77fc14
          0x0077fbe6      487a8ef1       pea.l 0x778ad9(pc)
          0x0077fbea      4878000a       pea.l 0xa
          0x0077fbee      2f17           move.l (a7), -(a7)
          0x0077fbf0      4eb9004047ea   jsr p_wts_o
          0x0077fbf6      defc000c       adda.w 0xc, a7
          0x0077fbfa      4280           clr.l d0
          0x0077fbfc      302e000c       move.w 0xc(a6), d0
          0x0077fc00      2f00           move.l d0, -(a7)
          0x0077fc02      48780000       pea.l 0x0
          0x0077fc06      4eb9004070e4   jsr p_wti_o
          0x0077fc0c      504f           addq.w 0x8, a7
          0x0077fc0e      4eb900404946   jsr p_wtln_o
       > 0x0077fc14      554f           subq.w 0x2, a7
           0x0077fc16      103900871016   move.b 0x871016, d0
           0x0077fc1c      4880           ext.w d0
           0x0077fc1e      41bc0004       chk.w 0x4, d0
           0x0077fc22      1f00           move.b d0, -(a7)
           0x0077fc24      4eb9006ba282   jsr USER1_UTILS.scope_ok
           0x0077fc2a      544f           addq.w 0x2, a7
           0x0077fc2c      1017           move.b (a7), d0
           0x0077fc2e      4880           ext.w d0
           0x0077fc30      41bc0001       chk.w 0x1, d0
           0x0077fc34      1e80           move.b d0, (a7)
           0x0077fc36      4eb90040452a   jsr p_Assert
           0x0077fc3c      544f           addq.w 0x2, a7
           0x0077fc3e      2d7cffff0001.  move.l 0xffff0001, -0x558(a6)
           0x0077fc46      4280           clr.l d0
           0x0077fc48      302e000c       move.w 0xc(a6), d0
           0x0077fc4c      0480ffffff9c   subi.l 0xffffff9c, d0
           0x0077fc52      0c80000000c7   cmpi.l 0xc7, d0
       < 0x0077fc58      6302           bls.b 0x77fc5c
          0x0077fc5a      4e4f           trap 0xf
       > 0x0077fc5c      2800           move.l d0, d4
           0x0077fc5e      7636           moveq 0x36, d3
           0x0077fc60      4eb900406a74   jsr fcn.00406a74
           0x0077fc66      2f04           move.l d4, -(a7)
           0x0077fc68      20790086eb32   movea.l 0x86eb32, a0
           0x0077fc6e      b1e8fffc       cmpa.l -0x4(a0), a0
       < 0x0077fc72      6702           beq.b 0x77fc76
          0x0077fc74      4e4d           trap 0xd
       > 0x0077fc76      554f           subq.w 0x2, a7
           0x0077fc78      486efa5e       pea.l -0x5a2(a6)
           0x0077fc7c      4eb900404434   jsr fcn.00404434
           0x0077fc82      584f           addq.w 0x4, a7
           0x0077fc84      4a1f           tst.b (a7)+
       < 0x0077fc86      67000774       beq.w 0x7803fc
          0x0077fc8a      4a2e0008       tst.b 0x8(a6)
      < 0x0077fc8e      6708           beq.b 0x77fc98
         0x0077fc90      49eefa5e       lea.l -0x5a2(a6), a4
         0x0077fc94      4ebafd9a       jsr PANEL_STACK.update_stack(pc)
      > 0x0077fc98      3030480a       move.w 0xa(a0, d4.l), d0
          0x0077fc9c      02800000ffff   andi.l 0xffff, d0
          0x0077fca2      2200           move.l d0, d1
      < 0x0077fca4      6a02           bpl.b 0x77fca8
         0x0077fca6      4481           neg.l d1
      > 0x0077fca8      3d41fff6       move.w d1, -0xa(a6)
          0x0077fcac      1230482e       move.b 0x2e(a0, d4.l), d1
          0x0077fcb0      4881           ext.w d1
          0x0077fcb2      3401           move.w d1, d2
          0x0077fcb4      0c42000a       cmpi.w 0xa, d2
      < 0x0077fcb8      6200071e       bhi.w 0x7803d8
         0x0077fcbc      d442           add.w d2, d2
         0x0077fcbe      343b2006       move.w 0x77fcc6(pc, d2.w), d2
         0x0077fcc2      4efb2002       jmp 0x77fcc6(pc, d2.w)
          0x0077fcc6      0016002c       ori.b 0x2c, (a6)
          0x0077fcca      0506           btst.l d2, d6
          0x0077fccc      002c002c0712   ori.b 0x2c, 0x712(a4)
          0x0077fcd2      002c0712066c   ori.b 0x12, 0x66c(a4)
          0x0077fcd8      002c002c1d7a   ori.b 0x2c, 0x1d7a(a4)
          0x0077fcde      8e05           or.b d5, d7
          0x0077fce0      fcf51d7a8e00   fbf.l 0x1df28ae2
          0x0077fce6      fdf5           invalid
          0x0077fce8      1d7a8dfbfef5   move.b 0x778ae5(pc), -0x10b(a6)
      < 0x0077fcee      600008bc       bra.w 0x7805ac
         0x0077fcf2      0c010004       cmpi.b 0x4, d1
     < 0x0077fcf6      6616           bne.b 0x77fd0e
        0x0077fcf8      43eefcf5       lea.l -0x30b(a6), a1
        0x0077fcfc      45f9007777b1   lea.l 0x7777b1, a2
        0x0077fd02      741f           moveq 0x1f, d2
    > 0x0077fd04      12da           move.b (a2)+, (a1)+
    < 0x0077fd06      51cafffc       dbra d2, 0x77fd04
    < 0x0077fd0a      6000012c       bra.w 0x77fe38
    > 0x0077fd0e      554f           subq.w 0x2, a7
        0x0077fd10      4227           clr.b -(a7)
        0x0077fd12      486efff6       pea.l -0xa(a6)
        0x0077fd16      1f3c0001       move.b 0x1, -(a7)
        0x0077fd1a      594f           subq.w 0x4, a7
        0x0077fd1c      1eb0481a       move.b 0x1a(a0, d4.l), (a7)
        0x0077fd20      1f70481b0001   move.b 0x1b(a0, d4.l), 0x1(a7)
        0x0077fd26      1f70481c0002   move.b 0x1c(a0, d4.l), 0x2(a7)
        0x0077fd2c      1f70481d0003   move.b 0x1d(a0, d4.l), 0x3(a7)
        0x0077fd32      1f3c0001       move.b 0x1, -(a7)
        0x0077fd36      486efab6       pea.l -0x54a(a6)
        0x0077fd3a      4eb9006b0530   jsr USER.get_pnum
        0x0077fd40      defc0012       adda.w 0x12, a7
        0x0077fd44      4a1f           tst.b (a7)+
    < 0x0077fd46      660c           bne.b 0x77fd54
       0x0077fd48      486efa5e       pea.l -0x5a2(a6)
       0x0077fd4c      4eb900404468   jsr fcn.00404468
       0x0077fd52      584f           addq.w 0x4, a7
    > 0x0077fd54      554f           subq.w 0x2, a7
        0x0077fd56      2f2efabc       move.l -0x544(a6), -(a7)
        0x0077fd5a      2f2efab8       move.l -0x548(a6), -(a7)
        0x0077fd5e      3f2efab6       move.w -0x54a(a6), -(a7)
        0x0077fd62      4227           clr.b -(a7)
        0x0077fd64      486efaa8       pea.l -0x558(a6)
        0x0077fd68      4eb9006082de   jsr F10_FILELIST.f_get_header
        0x0077fd6e      defc0010       adda.w 0x10, a7
        0x0077fd72      4a1f           tst.b (a7)+
    < 0x0077fd74      660c           bne.b 0x77fd82
       0x0077fd76      486efa5e       pea.l -0x5a2(a6)
       0x0077fd7a      4eb900404468   jsr fcn.00404468
       0x0077fd80      584f           addq.w 0x4, a7
    > 0x0077fd82      9efc0100       suba.w 0x100, a7
        0x0077fd86      3f3c0014       move.w 0x14, -(a7)
        0x0077fd8a      2f2efaa8       move.l -0x558(a6), -(a7)
        0x0077fd8e      4eb9005eed64   jsr f_get_string
        0x0077fd94      5c4f           addq.w 0x6, a7
        0x0077fd96      43eefcf5       lea.l -0x30b(a6), a1
        0x0077fd9a      244f           movea.l a7, a2
        0x0077fd9c      343c00ff       move.w 0xff, d2
    > 0x0077fda0      12da           move.b (a2)+, (a1)+
    < 0x0077fda2      51cafffc       dbra d2, 0x77fda0
        0x0077fda6      defc0100       adda.w 0x100, a7
        0x0077fdaa      4282           clr.l d2
        0x0077fdac      342e000c       move.w 0xc(a6), d2
        0x0077fdb0      0482ffffff9c   subi.l 0xffffff9c, d2
        0x0077fdb6      0c82000000c7   cmpi.l 0xc7, d2
    < 0x0077fdbc      6302           bls.b 0x77fdc0
       0x0077fdbe      4e4f           trap 0xf
    > 0x0077fdc0      2802           move.l d2, d4
        0x0077fdc2      7636           moveq 0x36, d3
        0x0077fdc4      4eb900406a74   jsr fcn.00406a74
        0x0077fdca      22790086eb32   movea.l 0x86eb32, a1
        0x0077fdd0      b3e9fffc       cmpa.l -0x4(a1), a1
    < 0x0077fdd4      6702           beq.b 0x77fdd8
       0x0077fdd6      4e4d           trap 0xd
    > 0x0077fdd8      1431482e       move.b 0x2e(a1, d4.l), d2
        0x0077fddc      0c020006       cmpi.b 0x6, d2
    < 0x0077fde0      6734           beq.b 0x77fe16
       0x0077fde2      9efc0136       suba.w 0x136, a7
       0x0077fde6      244f           movea.l a7, a2
       0x0077fde8      47f1480a       lea.l 0xa(a1, d4.l), a3
       0x0077fdec      7434           moveq 0x34, d2
   > 0x0077fdee      14db           move.b (a3)+, (a2)+
   < 0x0077fdf0      51cafffc       dbra d2, 0x77fdee
       0x0077fdf4      486efcf5       pea.l -0x30b(a6)
       0x0077fdf8      4eb9007836f2   jsr PANEL_UTILS.format_next_tit
       0x0077fdfe      defc003a       adda.w 0x3a, a7
       0x0077fe02      45eefcf5       lea.l -0x30b(a6), a2
       0x0077fe06      264f           movea.l a7, a3
       0x0077fe08      343c00ff       move.w 0xff, d2
   > 0x0077fe0c      14db           move.b (a3)+, (a2)+
   < 0x0077fe0e      51cafffc       dbra d2, 0x77fe0c
       0x0077fe12      defc0100       adda.w 0x100, a7
    > 0x0077fe16      486efaa8       pea.l -0x558(a6)
        0x0077fe1a      4eb90060500e   jsr F9_FILERDWRT.f_free_block
        0x0077fe20      584f           addq.w 0x4, a7
        0x0077fe22      2417           move.l (a7), d2
        0x0077fe24      1430282e       move.b 0x2e(a0, d2.l), d2
        0x0077fe28      0c020006       cmpi.b 0x6, d2
    < 0x0077fe2c      660a           bne.b 0x77fe38
       0x0077fe2e      4227           clr.b -(a7)
       0x0077fe30      4eb90040452a   jsr p_Assert
       0x0077fe36      544f           addq.w 0x2, a7
    > 0x0077fe38      2417           move.l (a7), d2
         0x0077fe3a      4a30280c       tst.b 0xc(a0, d2.l)
     < 0x0077fe3e      660a           bne.b 0x77fe4a
        0x0077fe40      3630280e       move.w 0xe(a0, d2.l), d3
        0x0077fe44      48c3           ext.l d3
        0x0077fe46      2e03           move.l d3, d7
    < 0x0077fe48      6062           bra.b 0x77feac
    > 0x0077fe4a      1630280c       move.b 0xc(a0, d2.l), d3
        0x0077fe4e      0c030001       cmpi.b 0x1, d3
    < 0x0077fe52      6656           bne.b 0x77feaa
       0x0077fe54      594f           subq.w 0x4, a7
       0x0077fe56      22790086eb32   movea.l 0x86eb32, a1
       0x0077fe5c      b3e9fffc       cmpa.l -0x4(a1), a1
   < 0x0077fe60      6702           beq.b 0x77fe64
      0x0077fe62      4e4d           trap 0xd
   > 0x0077fe64      2f290006       move.l 0x6(a1), -(a7)
       0x0077fe68      4283           clr.l d3
       0x0077fe6a      362e000c       move.w 0xc(a6), d3
       0x0077fe6e      2f03           move.l d3, -(a7)
       0x0077fe70      514f           subq.w 0x8, a7
       0x0077fe72      224f           movea.l a7, a1
       0x0077fe74      45f02811       lea.l 0x11(a0, d2.l), a2
       0x0077fe78      7607           moveq 0x7, d3
   > 0x0077fe7a      12da           move.b (a2)+, (a1)+
   < 0x0077fe7c      51cbfffc       dbra d3, 0x77fe7a
       0x0077fe80      4eb9006b9034   jsr USER1_UTILS.next_seq_num
       0x0077fe86      defc0010       adda.w 0x10, a7
       0x0077fe8a      2e1f           move.l (a7)+, d7
       0x0077fe8c      2607           move.l d7, d3
       0x0077fe8e      5383           subq.l 0x1, d3
       0x0077fe90      0c8300000007   cmpi.l 0x7, d3
   < 0x0077fe96      6302           bls.b 0x77fe9a
      0x0077fe98      4e4f           trap 0xf
   > 0x0077fe9a      43f0280a       lea.l 0xa(a0, d2.l), a1
       0x0077fe9e      1a313807       move.b 0x7(a1, d3.l), d5
       0x0077fea2      4885           ext.w d5
       0x0077fea4      48c5           ext.l d5
       0x0077fea6      2e05           move.l d5, d7
   < 0x0077fea8      6002           bra.b 0x77feac
   > 0x0077feaa      7e00           moveq 0x0, d7
   > 0x0077feac      486efdf5       pea.l -0x20b(a6)
         0x0077feb0      1630280c       move.b 0xc(a0, d2.l), d3
         0x0077feb4      4883           ext.w d3
         0x0077feb6      47bc0003       chk.w 0x3, d3
         0x0077feba      1f03           move.b d3, -(a7)
         0x0077febc      2f07           move.l d7, -(a7)
         0x0077febe      4227           clr.b -(a7)
         0x0077fec0      4eb900783fb2   jsr PANEL_UTILS.op_string
         0x0077fec6      defc000c       adda.w 0xc, a7
         0x0077feca      4a30280c       tst.b 0xc(a0, d2.l)
     < 0x0077fece      66000114       bne.w 0x77ffe4
        0x0077fed2      9efc0100       suba.w 0x100, a7
        0x0077fed6      3630280e       move.w 0xe(a0, d2.l), d3
        0x0077feda      48c3           ext.l d3
        0x0077fedc      2f03           move.l d3, -(a7)
        0x0077fede      16302810       move.b 0x10(a0, d2.l), d3
        0x0077fee2      4883           ext.w d3
        0x0077fee4      47bc0002       chk.w 0x2, d3
        0x0077fee8      1f03           move.b d3, -(a7)
        0x0077feea      4227           clr.b -(a7)
        0x0077feec      4227           clr.b -(a7)
        0x0077feee      4eb9007994cc   jsr PANEL_TRANSIT.transit_string
        0x0077fef4      defc000a       adda.w 0xa, a7
        0x0077fef8      43eefef5       lea.l -0x10b(a6), a1
        0x0077fefc      244f           movea.l a7, a2
        0x0077fefe      363c00ff       move.w 0xff, d3
    > 0x0077ff02      12da           move.b (a2)+, (a1)+
    < 0x0077ff04      51cbfffc       dbra d3, 0x77ff02
        0x0077ff08      defc0100       adda.w 0x100, a7
        0x0077ff0c      3630280e       move.w 0xe(a0, d2.l), d3
        0x0077ff10      0c4303e8       cmpi.w 0x3e8, d3
    < 0x0077ff14      6f00014c       ble.w 0x780062
       0x0077ff18      0c430fa0       cmpi.w 0xfa0, d3
   < 0x0077ff1c      6c000144       bge.w 0x780062
      0x0077ff20      4a70281e       tst.w 0x1e(a0, d2.l)
  < 0x0077ff24      6f00013c       ble.w 0x780062
     0x0077ff28      3630281e       move.w 0x1e(a0, d2.l), d3
     0x0077ff2c      48c3           ext.l d3
     0x0077ff2e      2f03           move.l d3, -(a7)
     0x0077ff30      48780001       pea.l 0x1
     0x0077ff34      486efbf5       pea.l -0x40b(a6)
     0x0077ff38      3f3c00ff       move.w 0xff, -(a7)
     0x0077ff3c      4eb900406e56   jsr p_strI1
     0x0077ff42      defc000e       adda.w 0xe, a7
     0x0077ff46      4243           clr.w d3
     0x0077ff48      162efef5       move.b -0x10b(a6), d3
     0x0077ff4c      43eefef6       lea.l -0x10a(a6), a1
     0x0077ff50      d2c3           adda.w d3, a1
     0x0077ff52      7a01           moveq 0x1, d5
     0x0077ff54      3c3c00ff       move.w 0xff, d6
     0x0077ff58      9c43           sub.w d3, d6
     0x0077ff5a      ba46           cmp.w d6, d5
  < 0x0077ff5c      6302           bls.b 0x77ff60
     0x0077ff5e      3a06           move.w d6, d5
  > 0x0077ff60      db2efef5       add.b d5, -0x10b(a6)
     0x0077ff64      45fa8b81       lea.l 0x778ae7(pc), a2
  > 0x0077ff68      12da           move.b (a2)+, (a1)+
  < 0x0077ff6a      51cdfffc       dbra d5, 0x77ff68
     0x0077ff6e      4243           clr.w d3
     0x0077ff70      162efef5       move.b -0x10b(a6), d3
     0x0077ff74      43eefef6       lea.l -0x10a(a6), a1
     0x0077ff78      d2c3           adda.w d3, a1
     0x0077ff7a      7a05           moveq 0x5, d5
     0x0077ff7c      da03           add.b d3, d5
  < 0x0077ff7e      6406           bcc.b 0x77ff86
     0x0077ff80      4eb900406c8a   jsr p_strovr
  > 0x0077ff86      7a05           moveq 0x5, d5
     0x0077ff88      3c3c00ff       move.w 0xff, d6
     0x0077ff8c      9c43           sub.w d3, d6
     0x0077ff8e      ba46           cmp.w d6, d5
  < 0x0077ff90      6302           bls.b 0x77ff94
     0x0077ff92      3a06           move.w d6, d5
  > 0x0077ff94      db2efef5       add.b d5, -0x10b(a6)
     0x0077ff98      45fa8b4f       lea.l 0x778ae9(pc), a2
  > 0x0077ff9c      12da           move.b (a2)+, (a1)+
  < 0x0077ff9e      51cdfffc       dbra d5, 0x77ff9c
     0x0077ffa2      4243           clr.w d3
     0x0077ffa4      162efef5       move.b -0x10b(a6), d3
     0x0077ffa8      43eefef6       lea.l -0x10a(a6), a1
     0x0077ffac      d2c3           adda.w d3, a1
     0x0077ffae      4245           clr.w d5
     0x0077ffb0      1a2efbf5       move.b -0x40b(a6), d5
     0x0077ffb4      da03           add.b d3, d5
  < 0x0077ffb6      6406           bcc.b 0x77ffbe
     0x0077ffb8      4eb900406c8a   jsr p_strovr
  > 0x0077ffbe      4245           clr.w d5
     0x0077ffc0      1a2efbf5       move.b -0x40b(a6), d5
     0x0077ffc4      3c3c00ff       move.w 0xff, d6
     0x0077ffc8      9c43           sub.w d3, d6
     0x0077ffca      ba46           cmp.w d6, d5
  < 0x0077ffcc      6302           bls.b 0x77ffd0
     0x0077ffce      3a06           move.w d6, d5
  > 0x0077ffd0      db2efef5       add.b d5, -0x10b(a6)
     0x0077ffd4      5305           subq.b 0x1, d5
  < 0x0077ffd6      650a           bcs.b 0x77ffe2
     0x0077ffd8      45eefbf6       lea.l -0x40a(a6), a2
  > 0x0077ffdc      12da           move.b (a2)+, (a1)+
  < 0x0077ffde      51cdfffc       dbra d5, 0x77ffdc
  > 0x0077ffe2      607e           bra.b 0x780062
  > 0x0077ffe4      1630280c       move.b 0xc(a0, d2.l), d3
      0x0077ffe8      0c030001       cmpi.b 0x1, d3
  < 0x0077ffec      665c           bne.b 0x78004a
     0x0077ffee      43eefef5       lea.l -0x10b(a6), a1
     0x0077fff2      45fa8afa       lea.l 0x778aee(pc), a2
     0x0077fff6      7a0d           moveq 0xd, d5
  > 0x0077fff8      12da           move.b (a2)+, (a1)+
  < 0x0077fffa      51cdfffc       dbra d5, 0x77fff8
     0x0077fffe      9efc010c       suba.w 0x10c, a7
     0x00780002      224f           movea.l a7, a1
     0x00780004      45f02811       lea.l 0x11(a0, d2.l), a2
     0x00780008      7a07           moveq 0x7, d5
  > 0x0078000a      12da           move.b (a2)+, (a1)+
  < 0x0078000c      51cdfffc       dbra d5, 0x78000a
     0x00780010      4eb900783e1c   jsr PANEL_UTILS.alt_seq_number
     0x00780016      9efc00f8       suba.w 0xf8, a7
     0x0078001a      224f           movea.l a7, a1
     0x0078001c      45eefef5       lea.l -0x10b(a6), a2
     0x00780020      3a3c00ff       move.w 0xff, d5
  > 0x00780024      12da           move.b (a2)+, (a1)+
  < 0x00780026      51cdfffc       dbra d5, 0x780024
     0x0078002a      4eb900783604   jsr PANEL_UTILS.format_string
     0x00780030      defc0104       adda.w 0x104, a7
     0x00780034      43eefef5       lea.l -0x10b(a6), a1
     0x00780038      244f           movea.l a7, a2
     0x0078003a      3a3c00ff       move.w 0xff, d5
  > 0x0078003e      12da           move.b (a2)+, (a1)+
  < 0x00780040      51cdfffc       dbra d5, 0x78003e
     0x00780044      defc0100       adda.w 0x100, a7
  < 0x00780048      6018           bra.b 0x780062
  > 0x0078004a      0c030002       cmpi.b 0x2, d3
  < 0x0078004e      6612           bne.b 0x780062
     0x00780050      43eefef5       lea.l -0x10b(a6), a1
     0x00780054      45f9007777e3   lea.l 0x7777e3, a2
     0x0078005a      7a0a           moveq 0xa, d5
  > 0x0078005c      12da           move.b (a2)+, (a1)+
  < 0x0078005e      51cdfffc       dbra d5, 0x78005c
  > 0x00780062      2617           move.l (a7), d3
         0x00780064      1a30382e       move.b 0x2e(a0, d3.l), d5
         0x00780068      4885           ext.w d5
         0x0078006a      43fa8a90       lea.l 0x778afc(pc), a1
         0x0078006e      3605           move.w d5, d3
         0x00780070      e64b           lsr.w 0x3, d3
         0x00780072      0b313000       btst.l d5, (a1, d3.w)
     < 0x00780076      67000150       beq.w 0x7801c8
        0x0078007a      554f           subq.w 0x2, a7
        0x0078007c      2f2efabc       move.l -0x544(a6), -(a7)
        0x00780080      2f2efab8       move.l -0x548(a6), -(a7)
        0x00780084      3f2efab6       move.w -0x54a(a6), -(a7)
        0x00780088      4bbc000f       chk.w 0xf, d5
        0x0078008c      1f05           move.b d5, -(a7)
        0x0078008e      4eb90078bd12   jsr PANEL_PREFETCH.get_mattenum
        0x00780094      defc000c       adda.w 0xc, a7
        0x00780098      319f2830       move.w (a7)+, 0x30(a0, d2.l)
    < 0x0078009c      660a           bne.b 0x7800a8
       0x0078009e      1d7a8a5efbf5   move.b 0x778afe(pc), -0x40b(a6)
   < 0x007800a4      60000086       bra.w 0x78012c
   > 0x007800a8      36302830       move.w 0x30(a0, d2.l), d3
       0x007800ac      0c430001       cmpi.w 0x1, d3
   < 0x007800b0      6612           bne.b 0x7800c4
      0x007800b2      43eefbf5       lea.l -0x40b(a6), a1
      0x007800b6      45fa8a47       lea.l 0x778aff(pc), a2
      0x007800ba      760f           moveq 0xf, d3
  > 0x007800bc      12da           move.b (a2)+, (a1)+
  < 0x007800be      51cbfffc       dbra d3, 0x7800bc
  < 0x007800c2      6068           bra.b 0x78012c
  > 0x007800c4      43eefbf5       lea.l -0x40b(a6), a1
      0x007800c8      45fa8a45       lea.l 0x778b0f(pc), a2
      0x007800cc      760f           moveq 0xf, d3
  > 0x007800ce      12da           move.b (a2)+, (a1)+
  < 0x007800d0      51cbfffc       dbra d3, 0x7800ce
      0x007800d4      4eb900404154   jsr p_Link
      0x007800da      36302830       move.w 0x30(a0, d2.l), d3
      0x007800de      48c3           ext.l d3
      0x007800e0      2f03           move.l d3, -(a7)
      0x007800e2      4eb900404012   jsr p_Push
      0x007800e8      9efc00fc       suba.w 0xfc, a7
      0x007800ec      224f           movea.l a7, a1
      0x007800ee      45eefbf5       lea.l -0x40b(a6), a2
      0x007800f2      363c00ff       move.w 0xff, d3
  > 0x007800f6      12da           move.b (a2)+, (a1)+
  < 0x007800f8      51cbfffc       dbra d3, 0x7800f6
      0x007800fc      9efc0100       suba.w 0x100, a7
      0x00780100      486f0100       pea.l 0x100(a7)
      0x00780104      4267           clr.w -(a7)
      0x00780106      3f3c00ff       move.w 0xff, -(a7)
      0x0078010a      4eb900408dda   jsr p_format
      0x00780110      504f           addq.w 0x8, a7
      0x00780112      43eefbf5       lea.l -0x40b(a6), a1
      0x00780116      244f           movea.l a7, a2
      0x00780118      363c00ff       move.w 0xff, d3
  > 0x0078011c      12da           move.b (a2)+, (a1)+
  < 0x0078011e      51cbfffc       dbra d3, 0x78011c
      0x00780122      defc0200       adda.w 0x200, a7
      0x00780126      4eb900404188   jsr p_Unlink
  > 0x0078012c      4243           clr.w d3
        0x0078012e      162efef5       move.b -0x10b(a6), d3
        0x00780132      43eefef6       lea.l -0x10a(a6), a1
        0x00780136      d2c3           adda.w d3, a1
        0x00780138      4246           clr.w d6
        0x0078013a      1c2efbf5       move.b -0x40b(a6), d6
        0x0078013e      dc03           add.b d3, d6
    < 0x00780140      6406           bcc.b 0x780148
       0x00780142      4eb900406c8a   jsr p_strovr
    > 0x00780148      4246           clr.w d6
        0x0078014a      1c2efbf5       move.b -0x40b(a6), d6
        0x0078014e      303c00ff       move.w 0xff, d0
        0x00780152      9043           sub.w d3, d0
        0x00780154      bc40           cmp.w d0, d6
    < 0x00780156      6302           bls.b 0x78015a
       0x00780158      3c00           move.w d0, d6
    > 0x0078015a      dd2efef5       add.b d6, -0x10b(a6)
        0x0078015e      5306           subq.b 0x1, d6
    < 0x00780160      650a           bcs.b 0x78016c
       0x00780162      45eefbf6       lea.l -0x40a(a6), a2
   > 0x00780166      12da           move.b (a2)+, (a1)+
   < 0x00780168      51cefffc       dbra d6, 0x780166
    > 0x0078016c      1030281a       move.b 0x1a(a0, d2.l), d0
        0x00780170      0c000002       cmpi.b 0x2, d0
    < 0x00780174      664c           bne.b 0x7801c2
       0x00780176      3030281c       move.w 0x1c(a0, d2.l), d0
       0x0078017a      02800000ffff   andi.l 0xffff, d0
       0x00780180      2f00           move.l d0, -(a7)
       0x00780182      48780000       pea.l 0x0
       0x00780186      486efaf5       pea.l -0x50b(a6)
       0x0078018a      3f3c00ff       move.w 0xff, -(a7)
       0x0078018e      4eb900406e56   jsr p_strI1
       0x00780194      defc000e       adda.w 0xe, a7
       0x00780198      4240           clr.w d0
       0x0078019a      102efaf5       move.b -0x50b(a6), d0
       0x0078019e      43eefaf6       lea.l -0x50a(a6), a1
       0x007801a2      d2c0           adda.w d0, a1
       0x007801a4      7601           moveq 0x1, d3
       0x007801a6      3c3c00ff       move.w 0xff, d6
       0x007801aa      9c40           sub.w d0, d6
       0x007801ac      b646           cmp.w d6, d3
   < 0x007801ae      6302           bls.b 0x7801b2
      0x007801b0      3606           move.w d6, d3
   > 0x007801b2      d72efaf5       add.b d3, -0x50b(a6)
       0x007801b6      45fa8968       lea.l 0x778b20(pc), a2
   > 0x007801ba      12da           move.b (a2)+, (a1)+
   < 0x007801bc      51cbfffc       dbra d3, 0x7801ba
   < 0x007801c0      6006           bra.b 0x7801c8
   > 0x007801c2      1d7a895dfaf5   move.b 0x778b21(pc), -0x50b(a6)
   > 0x007801c8      600003e2       bra.w 0x7805ac
        0x007801cc      2d790077769c.  move.l 0x77769c, -0x554(a6)
        0x007801d4      2d79007776a0.  move.l 0x7776a0, -0x550(a6)
        0x007801dc      3d79007776a4.  move.w 0x7776a4, -0x54c(a6)
        0x007801e4      554f           subq.w 0x2, a7
        0x007801e6      4227           clr.b -(a7)
        0x007801e8      486efff6       pea.l -0xa(a6)
        0x007801ec      1f3c0001       move.b 0x1, -(a7)
        0x007801f0      594f           subq.w 0x4, a7
        0x007801f2      1eb0481a       move.b 0x1a(a0, d4.l), (a7)
        0x007801f6      1f70481b0001   move.b 0x1b(a0, d4.l), 0x1(a7)
        0x007801fc      1f70481c0002   move.b 0x1c(a0, d4.l), 0x2(a7)
        0x00780202      1f70481d0003   move.b 0x1d(a0, d4.l), 0x3(a7)
        0x00780208      486efaac       pea.l -0x554(a6)
        0x0078020c      4eb9006b05ba   jsr USER.get_snum
        0x00780212      defc0010       adda.w 0x10, a7
        0x00780216      4a1f           tst.b (a7)+
    < 0x00780218      660c           bne.b 0x780226
       0x0078021a      486efa5e       pea.l -0x5a2(a6)
       0x0078021e      4eb900404468   jsr fcn.00404468
       0x00780224      584f           addq.w 0x4, a7
    > 0x00780226      554f           subq.w 0x2, a7
        0x00780228      2f2efab2       move.l -0x54e(a6), -(a7)
        0x0078022c      2f2efaae       move.l -0x552(a6), -(a7)
        0x00780230      3f2efaac       move.w -0x554(a6), -(a7)
        0x00780234      486efcf5       pea.l -0x30b(a6)
        0x00780238      4eb9005e688c   jsr FILER_UTILITIES.fu_get_title
        0x0078023e      defc000e       adda.w 0xe, a7
        0x00780242      4a1f           tst.b (a7)+
    < 0x00780244      6658           bne.b 0x78029e
       0x00780246      9efc0100       suba.w 0x100, a7
       0x0078024a      4eb900408ec0   jsr p_err_string
       0x00780250      487a88d1       pea.l 0x778b23(pc)
       0x00780254      48780010       pea.l 0x10
       0x00780258      2f17           move.l (a7), -(a7)
       0x0078025a      4eb9004047ea   jsr p_wts_o
       0x00780260      defc000c       adda.w 0xc, a7
       0x00780264      486f0001       pea.l 0x1(a7)
       0x00780268      42a7           clr.l -(a7)
       0x0078026a      1f6f00080003   move.b 0x8(a7), 0x3(a7)
       0x00780270      2f17           move.l (a7), -(a7)
       0x00780272      4eb9004047ea   jsr p_wts_o
       0x00780278      defc010c       adda.w 0x10c, a7
       0x0078027c      4eb900404946   jsr p_wtln_o
       0x00780282      4eb900404188   jsr p_Unlink
       0x00780288      4878000a       pea.l 0xa
       0x0078028c      3f2efff6       move.w -0xa(a6), -(a7)
       0x00780290      486efa5e       pea.l -0x5a2(a6)
       0x00780294      4eb9007835b0   jsr PANEL_UTILS.panel_error
       0x0078029a      defc000a       adda.w 0xa, a7
    > 0x0078029e      9efc0100       suba.w 0x100, a7
        0x007802a2      4281           clr.l d1
        0x007802a4      322efff6       move.w -0xa(a6), d1
        0x007802a8      2f01           move.l d1, -(a7)
        0x007802aa      486efcf5       pea.l -0x30b(a6)
        0x007802ae      4eb900783840   jsr PANEL_UTILS.format_stack
        0x007802b4      504f           addq.w 0x8, a7
        0x007802b6      43eefcf5       lea.l -0x30b(a6), a1
        0x007802ba      244f           movea.l a7, a2
        0x007802bc      323c00ff       move.w 0xff, d1
    > 0x007802c0      12da           move.b (a2)+, (a1)+
    < 0x007802c2      51c9fffc       dbra d1, 0x7802c0
        0x007802c6      defc0100       adda.w 0x100, a7
        0x007802ca      1d7a8867fdf5   move.b 0x778b33(pc), -0x20b(a6)
        0x007802d0      1d7a8862fef5   move.b 0x778b34(pc), -0x10b(a6)
        0x007802d6      1230481a       move.b 0x1a(a0, d4.l), d1
        0x007802da      0c010002       cmpi.b 0x2, d1
    < 0x007802de      6648           bne.b 0x780328
       0x007802e0      4281           clr.l d1
       0x007802e2      3230481c       move.w 0x1c(a0, d4.l), d1
       0x007802e6      2f01           move.l d1, -(a7)
       0x007802e8      48780000       pea.l 0x0
       0x007802ec      486efaf5       pea.l -0x50b(a6)
       0x007802f0      3f3c00ff       move.w 0xff, -(a7)
       0x007802f4      4eb900406e56   jsr p_strI1
       0x007802fa      defc000e       adda.w 0xe, a7
       0x007802fe      4241           clr.w d1
       0x00780300      122efaf5       move.b -0x50b(a6), d1
       0x00780304      43eefaf6       lea.l -0x50a(a6), a1
       0x00780308      d2c1           adda.w d1, a1
       0x0078030a      7401           moveq 0x1, d2
       0x0078030c      363c00ff       move.w 0xff, d3
       0x00780310      9641           sub.w d1, d3
       0x00780312      b443           cmp.w d3, d2
   < 0x00780314      6302           bls.b 0x780318
      0x00780316      3403           move.w d3, d2
   > 0x00780318      d52efaf5       add.b d2, -0x50b(a6)
       0x0078031c      45fa8818       lea.l 0x778b36(pc), a2
   > 0x00780320      12da           move.b (a2)+, (a1)+
   < 0x00780322      51cafffc       dbra d2, 0x780320
   < 0x00780326      6006           bra.b 0x78032e
   > 0x00780328      1d7a880dfaf5   move.b 0x778b37(pc), -0x50b(a6)
   < 0x0078032e      6000027c       bra.w 0x7805ac
       0x00780332      1d7a8804fef5   move.b 0x778b38(pc), -0x10b(a6)
       0x00780338      1d7a87fffdf5   move.b 0x778b39(pc), -0x20b(a6)
       0x0078033e      9efc0100       suba.w 0x100, a7
       0x00780342      0480ffff8000   subi.l 0xffff8000, d0
       0x00780348      0c800000ffff   cmpi.l 0xffff, d0
   < 0x0078034e      6302           bls.b 0x780352
      0x00780350      4e4f           trap 0xf
   > 0x00780352      0680ffff8000   addi.l 0xffff8000, d0
       0x00780358      3f00           move.w d0, -(a7)
       0x0078035a      4227           clr.b -(a7)
       0x0078035c      4a704830       tst.w 0x30(a0, d4.l)
   < 0x00780360      6f02           ble.b 0x780364
      0x00780362      5217           addq.b 0x1, (a7)
   > 0x00780364      4eba9370       jsr PANEL_STACK.preset_display_(pc)
       0x00780368      584f           addq.w 0x4, a7
       0x0078036a      43eefcf5       lea.l -0x30b(a6), a1
       0x0078036e      244f           movea.l a7, a2
       0x00780370      323c00ff       move.w 0xff, d1
   > 0x00780374      12da           move.b (a2)+, (a1)+
   < 0x00780376      51c9fffc       dbra d1, 0x780374
       0x0078037a      defc0100       adda.w 0x100, a7
       0x0078037e      4a2e000a       tst.b 0xa(a6)
   < 0x00780382      6748           beq.b 0x7803cc
      0x00780384      4281           clr.l d1
      0x00780386      3230480a       move.w 0xa(a0, d4.l), d1
      0x0078038a      0c8100000009   cmpi.l 0x9, d1
  < 0x00780390      6302           bls.b 0x780394
     0x00780392      4e4f           trap 0xf
  > 0x00780394      2801           move.l d1, d4
      0x00780396      7612           moveq 0x12, d3
      0x00780398      4eb900406a74   jsr fcn.00406a74
      0x0078039e      22790086eb32   movea.l 0x86eb32, a1
      0x007803a4      b3e9fffc       cmpa.l -0x4(a1), a1
  < 0x007803a8      6702           beq.b 0x7803ac
     0x007803aa      4e4d           trap 0xd
  > 0x007803ac      43f14800       lea.l (a1, d4.l), a1
      0x007803b0      9efc0012       suba.w 0x12, a7
      0x007803b4      244f           movea.l a7, a2
      0x007803b6      43e92a3a       lea.l 0x2a3a(a1), a1
      0x007803ba      7211           moveq 0x11, d1
  > 0x007803bc      14d9           move.b (a1)+, (a2)+
  < 0x007803be      51c9fffc       dbra d1, 0x7803bc
      0x007803c2      4eb90079f68a   jsr PANEL_CURSOR.preset_display
      0x007803c8      defc0012       adda.w 0x12, a7
   > 0x007803cc      13fc00010086.  move.b 0x1, 0x86eb1e.l
   < 0x007803d4      600001d6       bra.w 0x7805ac
   > 0x007803d8      43eefcf5       lea.l -0x30b(a6), a1
       0x007803dc      45fa875c       lea.l 0x778b3a(pc), a2
       0x007803e0      7019           moveq 0x19, d0
   > 0x007803e2      12da           move.b (a2)+, (a1)+
   < 0x007803e4      51c8fffc       dbra d0, 0x7803e2
       0x007803e8      1d7a876afdf5   move.b 0x778b54(pc), -0x20b(a6)
       0x007803ee      1d7a8765fef5   move.b 0x778b55(pc), -0x10b(a6)
   < 0x007803f4      600001b6       bra.w 0x7805ac
  < 0x007803f8      600001b2       bra.w 0x7805ac
  > 0x007803fc      9efc0100       suba.w 0x100, a7
      0x00780400      4eb900408ec0   jsr p_err_string
      0x00780406      43eefcf5       lea.l -0x30b(a6), a1
      0x0078040a      244f           movea.l a7, a2
      0x0078040c      303c00ff       move.w 0xff, d0
  > 0x00780410      12da           move.b (a2)+, (a1)+
  < 0x00780412      51c8fffc       dbra d0, 0x780410
      0x00780416      defc0100       adda.w 0x100, a7
      0x0078041a      4eb900404188   jsr p_Unlink
      0x00780420      4a390086eb1a   tst.b 0x86eb1a
  < 0x00780426      677a           beq.b 0x7804a2
     0x00780428      9efc0100       suba.w 0x100, a7
     0x0078042c      2f3900871016   move.l 0x871016, -(a7)
     0x00780432      4eb9006b8ed2   jsr USER1_UTILS.region_str
     0x00780438      584f           addq.w 0x4, a7
     0x0078043a      487a871b       pea.l 0x778b57(pc)
     0x0078043e      48780007       pea.l 0x7
     0x00780442      2f17           move.l (a7), -(a7)
     0x00780444      4eb9004047ea   jsr p_wts_o
     0x0078044a      defc000c       adda.w 0xc, a7
     0x0078044e      486f0001       pea.l 0x1(a7)
     0x00780452      42a7           clr.l -(a7)
     0x00780454      1f6f00080003   move.b 0x8(a7), 0x3(a7)
     0x0078045a      2f17           move.l (a7), -(a7)
     0x0078045c      4eb9004047ea   jsr p_wts_o
     0x00780462      defc010c       adda.w 0x10c, a7
     0x00780466      487a86f7       pea.l 0x778b5f(pc)
     0x0078046a      48780006       pea.l 0x6
     0x0078046e      2f17           move.l (a7), -(a7)
     0x00780470      4eb9004047ea   jsr p_wts_o
     0x00780476      defc000c       adda.w 0xc, a7
     0x0078047a      22790086eb32   movea.l 0x86eb32, a1
     0x00780480      b3e9fffc       cmpa.l -0x4(a1), a1
  < 0x00780484      6702           beq.b 0x780488
     0x00780486      4e4d           trap 0xd
  > 0x00780488      4280           clr.l d0
     0x0078048a      3031480a       move.w 0xa(a1, d4.l), d0
     0x0078048e      2f00           move.l d0, -(a7)
     0x00780490      48780000       pea.l 0x0
     0x00780494      4eb9004070e4   jsr p_wti_o
     0x0078049a      504f           addq.w 0x8, a7
     0x0078049c      4eb900404946   jsr p_wtln_o
  > 0x007804a2      4a390086eb1a   tst.b 0x86eb1a
  < 0x007804a8      674e           beq.b 0x7804f8
     0x007804aa      4280           clr.l d0
     0x007804ac      302e000c       move.w 0xc(a6), d0
     0x007804b0      0480ffffff9c   subi.l 0xffffff9c, d0
     0x007804b6      0c80000000c7   cmpi.l 0xc7, d0
  < 0x007804bc      6302           bls.b 0x7804c0
     0x007804be      4e4f           trap 0xf
  > 0x007804c0      2800           move.l d0, d4
     0x007804c2      7636           moveq 0x36, d3
     0x007804c4      4eb900406a74   jsr fcn.00406a74
     0x007804ca      22790086eb32   movea.l 0x86eb32, a1
     0x007804d0      b3e9fffc       cmpa.l -0x4(a1), a1
  < 0x007804d4      6702           beq.b 0x7804d8
     0x007804d6      4e4d           trap 0xd
  > 0x007804d8      9efc0036       suba.w 0x36, a7
     0x007804dc      244f           movea.l a7, a2
     0x007804de      43f1480a       lea.l 0xa(a1, d4.l), a1
     0x007804e2      7034           moveq 0x34, d0
  > 0x007804e4      14d9           move.b (a1)+, (a2)+
  < 0x007804e6      51c8fffc       dbra d0, 0x7804e4
     0x007804ea      4878ffff       pea.l 0xffff
     0x007804ee      4eb9006b8ae4   jsr USER1_UTILS.show_entry
     0x007804f4      defc003a       adda.w 0x3a, a7
  > 0x007804f8      4280           clr.l d0
      0x007804fa      302e000c       move.w 0xc(a6), d0
      0x007804fe      0480ffffff9c   subi.l 0xffffff9c, d0
      0x00780504      0c80000000c7   cmpi.l 0xc7, d0
  < 0x0078050a      6302           bls.b 0x78050e
     0x0078050c      4e4f           trap 0xf
  > 0x0078050e      2800           move.l d0, d4
      0x00780510      7636           moveq 0x36, d3
      0x00780512      4eb900406a74   jsr fcn.00406a74
      0x00780518      9efc0100       suba.w 0x100, a7
      0x0078051c      22790086eb32   movea.l 0x86eb32, a1
      0x00780522      b3e9fffc       cmpa.l -0x4(a1), a1
  < 0x00780526      6702           beq.b 0x78052a
     0x00780528      4e4d           trap 0xd
  > 0x0078052a      4871480a       pea.l 0xa(a1, d4.l)
      0x0078052e      486efcf5       pea.l -0x30b(a6)
      0x00780532      4eb900783954   jsr PANEL_UTILS.format_entry
      0x00780538      504f           addq.w 0x8, a7
      0x0078053a      43eefcf5       lea.l -0x30b(a6), a1
      0x0078053e      244f           movea.l a7, a2
      0x00780540      303c00ff       move.w 0xff, d0
  > 0x00780544      12da           move.b (a2)+, (a1)+
  < 0x00780546      51c8fffc       dbra d0, 0x780544
      0x0078054a      defc0100       adda.w 0x100, a7
      0x0078054e      1d7a8615fdf5   move.b 0x778b65(pc), -0x20b(a6)
      0x00780554      1d7a8610fef5   move.b 0x778b66(pc), -0x10b(a6)
      0x0078055a      9efc0100       suba.w 0x100, a7
      0x0078055e      224f           movea.l a7, a1
      0x00780560      45eefcf5       lea.l -0x30b(a6), a2
      0x00780564      303c00ff       move.w 0xff, d0
  > 0x00780568      12da           move.b (a2)+, (a1)+
  < 0x0078056a      51c8fffc       dbra d0, 0x780568
      0x0078056e      1f3c0001       move.b 0x1, -(a7)
      0x00780572      4eba939e       jsr PANEL_STACK.set_on_air(pc)
      0x00780576      544f           addq.w 0x2, a7
      0x00780578      1eba85ed       move.b 0x778b67(pc), (a7)
      0x0078057c      1f3c0001       move.b 0x1, -(a7)
      0x00780580      4eba941c       jsr PANEL_STACK.set_next_on_air(pc)
      0x00780584      defc0102       adda.w 0x102, a7
      0x00780588      422e000a       clr.b 0xa(a6)
      0x0078058c      3f3c0001       move.w 0x1, -(a7)
      0x00780590      9efc0100       suba.w 0x100, a7
      0x00780594      224f           movea.l a7, a1
      0x00780596      45eefcf5       lea.l -0x30b(a6), a2
      0x0078059a      303c00ff       move.w 0xff, d0
  > 0x0078059e      12da           move.b (a2)+, (a1)+
  < 0x007805a0      51c8fffc       dbra d0, 0x78059e
      0x007805a4      4eba90f8       jsr PANEL_STACK.set_last_error(pc)
      0x007805a8      defc0102       adda.w 0x102, a7
      ; CODE XREF from PANEL_STACK @ +0x8d58
  > 0x007805ac      584f           addq.w 0x4, a7
            0x007805ae      4a2e000a       tst.b 0xa(a6)
        < 0x007805b2      673a           beq.b 0x7805ee
           0x007805b4      9efc0100       suba.w 0x100, a7
           0x007805b8      204f           movea.l a7, a0
           0x007805ba      43eefcf5       lea.l -0x30b(a6), a1
           0x007805be      303c00ff       move.w 0xff, d0
       > 0x007805c2      10d9           move.b (a1)+, (a0)+
       < 0x007805c4      51c8fffc       dbra d0, 0x7805c2
           0x007805c8      1f3c0002       move.b 0x2, -(a7)
           0x007805cc      4eba9344       jsr PANEL_STACK.set_on_air(pc)
           0x007805d0      544f           addq.w 0x2, a7
           0x007805d2      204f           movea.l a7, a0
           0x007805d4      43eefef5       lea.l -0x10b(a6), a1
           0x007805d8      303c00ff       move.w 0xff, d0
       > 0x007805dc      10d9           move.b (a1)+, (a0)+
       < 0x007805de      51c8fffc       dbra d0, 0x7805dc
           0x007805e2      1f3c0002       move.b 0x2, -(a7)
           0x007805e6      4eba93b6       jsr PANEL_STACK.set_next_on_air(pc)
           0x007805ea      defc0102       adda.w 0x102, a7
        > 0x007805ee      4a6e000c       tst.w 0xc(a6)
        < 0x007805f2      6618           bne.b 0x78060c
           0x007805f4      9efc0100       suba.w 0x100, a7
           0x007805f8      204f           movea.l a7, a0
           0x007805fa      43eefdf5       lea.l -0x20b(a6), a1
           0x007805fe      303c00ff       move.w 0xff, d0
       > 0x00780602      10d9           move.b (a1)+, (a0)+
       < 0x00780604      51c8fffc       dbra d0, 0x780602
           0x00780608      4227           clr.b -(a7)
       < 0x0078060a      601e           bra.b 0x78062a
       > 0x0078060c      4a2e000a       tst.b 0xa(a6)
       < 0x00780610      6720           beq.b 0x780632
          0x00780612      9efc0100       suba.w 0x100, a7
          0x00780616      204f           movea.l a7, a0
          0x00780618      43eefdf5       lea.l -0x20b(a6), a1
          0x0078061c      303c00ff       move.w 0xff, d0
      > 0x00780620      10d9           move.b (a1)+, (a0)+
      < 0x00780622      51c8fffc       dbra d0, 0x780620
          0x00780626      1f3c0002       move.b 0x2, -(a7)
          ; CODE XREF from PANEL_STACK @ +0x8f6e
       > 0x0078062a      4eba93c0       jsr PANEL_STACK.set_output(pc)
           0x0078062e      defc0102       adda.w 0x102, a7
        > 0x00780632      4cdf1fff       movem.l (a7)+, d0-d7/a0-a4
            0x00780636      4e5e           unlk a6
            0x00780638      4e75           rts
            ; CALL XREF from PANEL.hit_clr_window @ 0x774e3c
 428: PANEL_STACK.do_clear_window ();
           ; var int32_t var_7bcah @ a6-0x7bca
           0x0078063a      4e56fdc6       link.w a6, 0xfdc6
           0x0078063e      bfd5           cmpa.l (a5), a7
       < 0x00780640      6206           bhi.b 0x780648
          0x00780642      44fc0002       move.w 0x2, ccr
          0x00780646      4e76           trapv
       > 0x00780648      defc0136       adda.w 0x136, a7
           0x0078064c      48e7fff0       movem.l d0-d7/a0-a3, -(a7)
           0x00780650      47ee0008       lea.l 0x8(a6), a3
           0x00780654      7401           moveq 0x1, d2
           0x00780656      7a9c           moveq 0x9c, d5
           0x00780658      7c0a           moveq 0xa, d6
           0x0078065a      554f           subq.w 0x2, a7
           0x0078065c      103900871016   move.b 0x871016, d0
           0x00780662      4880           ext.w d0
           0x00780664      41bc0004       chk.w 0x4, d0
           0x00780668      1f00           move.b d0, -(a7)
           0x0078066a      4eb9006ba282   jsr USER1_UTILS.scope_ok
           0x00780670      544f           addq.w 0x2, a7
           0x00780672      1017           move.b (a7), d0
           0x00780674      4880           ext.w d0
           0x00780676      4182           chk.w d2, d0
           0x00780678      1e80           move.b d0, (a7)
           0x0078067a      4eb90040452a   jsr p_Assert
           0x00780680      544f           addq.w 0x2, a7
           0x00780682      20790086eb32   movea.l 0x86eb32, a0
           0x00780688      b1e8fffc       cmpa.l -0x4(a0), a0
       < 0x0078068c      6702           beq.b 0x780690
          0x0078068e      4e4d           trap 0xd
       > 0x00780690      2e13           move.l (a3), d7
       > 0x00780692      0c8700000062   cmpi.l 0x62, d7
      < 0x00780698      6e4a           bgt.b 0x7806e4
         0x0078069a      2007           move.l d7, d0
         0x0078069c      9085           sub.l d5, d0
         0x0078069e      0c80000000c7   cmpi.l 0xc7, d0
     < 0x007806a4      6302           bls.b 0x7806a8
        0x007806a6      4e4f           trap 0xf
     > 0x007806a8      2800           move.l d0, d4
         0x007806aa      7636           moveq 0x36, d3
         0x007806ac      4eb900406a74   jsr fcn.00406a74
         0x007806b2      2007           move.l d7, d0
         0x007806b4      5280           addq.l 0x1, d0
         0x007806b6      9085           sub.l d5, d0
         0x007806b8      0c80000000c7   cmpi.l 0xc7, d0
     < 0x007806be      6302           bls.b 0x7806c2
        0x007806c0      4e4f           trap 0xf
     > 0x007806c2      2f04           move.l d4, -(a7)
         0x007806c4      2800           move.l d0, d4
         0x007806c6      7636           moveq 0x36, d3
         0x007806c8      4eb900406a74   jsr fcn.00406a74
         0x007806ce      201f           move.l (a7)+, d0
         0x007806d0      43f0080a       lea.l 0xa(a0, d0.l), a1
         0x007806d4      45f0480a       lea.l 0xa(a0, d4.l), a2
         0x007806d8      7035           moveq 0x35, d0
     > 0x007806da      12da           move.b (a2)+, (a1)+
     < 0x007806dc      51c8fffc       dbra d0, 0x7806da
         0x007806e0      5287           addq.l 0x1, d7
      < 0x007806e2      68ae           bvc.b 0x780692
      > 0x007806e4      42282a28       clr.b 0x2a28(a0)
           0x007806e8      4227           clr.b -(a7)
           0x007806ea      4ebaa826       jsr PANEL_STACK.get_frozen(pc)
           0x007806ee      544f           addq.w 0x2, a7
           0x007806f0      4a93           tst.l (a3)
       < 0x007806f2      660c           bne.b 0x780700
          0x007806f4      48780000       pea.l 0x0
          0x007806f8      4eb90078e24e   jsr PANEL_PREFETCH.wipe_prefetch
          0x007806fe      584f           addq.w 0x4, a7
       > 0x00780700      2f13           move.l (a3), -(a7)
           0x00780702      4eb90078e2bc   jsr PANEL_PREFETCH.fetch_from
           0x00780708      584f           addq.w 0x4, a7
           0x0078070a      4a93           tst.l (a3)
       < 0x0078070c      66000096       bne.w 0x7807a4
          0x00780710      4eb9007a2562   jsr SERIAL.temp_wait
          0x00780716      554f           subq.w 0x2, a7
          0x00780718      4ebaac34       jsr PANEL_STACK.pre_fetch(pc)
          0x0078071c      4a1f           tst.b (a7)+
      < 0x0078071e      663e           bne.b 0x78075e
         0x00780720      4a390086eb1a   tst.b 0x86eb1a
     < 0x00780726      671a           beq.b 0x780742
        0x00780728      487a843f       pea.l 0x778b69(pc)
        0x0078072c      48780011       pea.l 0x11
        0x00780730      2f17           move.l (a7), -(a7)
        0x00780732      4eb9004047ea   jsr p_wts_o
        0x00780738      defc000c       adda.w 0xc, a7
        0x0078073c      4eb900404946   jsr p_wtln_o
     > 0x00780742      2d7a8436ff00   move.l 0x778b7a(pc), -0x100(a6)
         0x00780748      48780008       pea.l 0x8
         0x0078074c      486eff00       pea.l -0x100(a6)
         0x00780750      4eb9007a1f06   jsr SERIAL.write_window
         0x00780756      504f           addq.w 0x8, a7
         0x00780758      4eba9376       jsr PANEL_STACK.error_next_on_a(pc)
     < 0x0078075c      6028           bra.b 0x780786
     > 0x0078075e      487a841f       pea.l 0x778b7f(pc)
         0x00780762      4878001b       pea.l 0x1b
         0x00780766      2f17           move.l (a7), -(a7)
         0x00780768      4eb9004047ea   jsr p_wts_o
         0x0078076e      dec6           adda.w d6, a7
         0x00780770      1ebc0007       move.b 0x7, (a7)
         0x00780774      48780001       pea.l 0x1
         0x00780778      4eb9004048b4   jsr p_wtc_o
         0x0078077e      5c4f           addq.w 0x6, a7
         0x00780780      4eb900404946   jsr p_wtln_o
     > 0x00780786      9efc0100       suba.w 0x100, a7
          0x0078078a      204f           movea.l a7, a0
          0x0078078c      43f90086f342   lea.l 0x86f342, a1
          0x00780792      703f           moveq 0x3f, d0
      > 0x00780794      20d9           move.l (a1)+, (a0)+
      < 0x00780796      51c8fffc       dbra d0, 0x780794
          0x0078079a      4227           clr.b -(a7)
          0x0078079c      4eba9200       jsr PANEL_STACK.set_next_on_air(pc)
          0x007807a0      defc0102       adda.w 0x102, a7
       > 0x007807a4      302e000a       move.w 0xa(a6), d0
           0x007807a8      41fa83f0       lea.l 0x778b9a(pc), a0
           0x007807ac      3200           move.w d0, d1
           0x007807ae      e649           lsr.w 0x3, d1
           0x007807b0      0c410020       cmpi.w 0x20, d1
       < 0x007807b4      6d04           blt.b 0x7807ba
          0x007807b6      7200           moveq 0x0, d1
      < 0x007807b8      6004           bra.b 0x7807be
      > 0x007807ba      01301000       btst.l d0, (a0, d1.w)
      < 0x007807be      6710           beq.b 0x7807d0
          0x007807c0      4eb90078ddba   jsr PANEL_PREFETCH.unfetch_clip
          0x007807c6      4239008713cd   clr.b 0x8713cd
          0x007807cc      4ebac1b2       jsr PANEL_STACK.prefetch_early(pc)
       > 0x007807d0      2f13           move.l (a3), -(a7)
           0x007807d2      48780063       pea.l 0x63
           0x007807d6      1f02           move.b d2, -(a7)
           0x007807d8      4eba9f6e       jsr PANEL_STACK.refresh_stack(pc)
           0x007807dc      dec6           adda.w d6, a7
           0x007807de      4cdf0fff       movem.l (a7)+, d0-d7/a0-a3
           0x007807e2      4e5e           unlk a6
           0x007807e4      4e75           rts
 26: PANEL_STACK.no_abort ();
           0x007807e6      4e56fffc       link.w a6, 0xfffc
           0x007807ea      bfd5           cmpa.l (a5), a7
       < 0x007807ec      6206           bhi.b 0x7807f4
          0x007807ee      44fc0002       move.w 0x2, ccr
          0x007807f2      4e76           trapv
       > 0x007807f4      defc0004       adda.w 0x4, a7
           0x007807f8      422e0008       clr.b 0x8(a6)
           0x007807fc      4e5e           unlk a6
           0x007807fe      4e75           rts
            0x00780800      4e56ffdc       link.w a6, 0xffdc
            0x00780804      bfd5           cmpa.l (a5), a7
        < 0x00780806      6206           bhi.b 0x78080e
           0x00780808      44fc0002       move.w 0x2, ccr
           0x0078080c      4e76           trapv
        > 0x0078080e      defc0020       adda.w 0x20, a7
            0x00780812      48e7c080       movem.l d0-d1/a0, -(a7)
            0x00780816      48780000       pea.l 0x0
            0x0078081a      486c0154       pea.l 0x154(a4)
            0x0078081e      486efffc       pea.l -0x4(a6)
            0x00780822      486efffe       pea.l -0x2(a6)
            0x00780826      4eb9007a3542   jsr SERIAL.get_next_token
            0x0078082c      defc0010       adda.w 0x10, a7
            0x00780830      422e0008       clr.b 0x8(a6)
            0x00780834      102c0154       move.b 0x154(a4), d0
            0x00780838      4880           ext.w d0
            0x0078083a      41fa837e       lea.l 0x778bba(pc), a0
            0x0078083e      3200           move.w d0, d1
            0x00780840      e649           lsr.w 0x3, d1
            0x00780842      01301000       btst.l d0, (a0, d1.w)
        < 0x00780846      6704           beq.b 0x78084c
           0x00780848      522e0008       addq.b 0x1, 0x8(a6)
        > 0x0078084c      4cdf0103       movem.l (a7)+, d0-d1/a0
            0x00780850      4e5e           unlk a6
            0x00780852      4e75           rts
            ; CALL XREF from PANEL.hit_view @ 0x774e6a
 1240: PANEL_STACK.do_view ();
           0x00780854      4e56fd64       link.w a6, 0xfd64
           0x00780858      bfd5           cmpa.l (a5), a7
       < 0x0078085a      6206           bhi.b 0x780862
          0x0078085c      44fc0002       move.w 0x2, ccr
          0x00780860      4e76           trapv
       > 0x00780862      defc0142       adda.w 0x142, a7
           0x00780866      48e7fff8       movem.l d0-d7/a0-a4, -(a7)
           0x0078086a      45f90086eb2c   lea.l 0x86eb2c, a2
           0x00780870      47eefefa       lea.l -0x106(a6), a3
           0x00780874      49f900871016   lea.l 0x871016, a4
           0x0078087a      343c0100       move.w 0x100, d2
           0x0078087e      2a3c0000ffff   move.l 0xffff, d5
           0x00780884      7c01           moveq 0x1, d6
           0x00780886      2e3cffff8000   move.l 0xffff8000, d7
           0x0078088c      422efffb       clr.b -0x5(a6)
           0x00780890      554f           subq.w 0x2, a7
           0x00780892      1014           move.b (a4), d0
           0x00780894      4880           ext.w d0
           0x00780896      41bc0004       chk.w 0x4, d0
           0x0078089a      1f00           move.b d0, -(a7)
           0x0078089c      4eb9006ba282   jsr USER1_UTILS.scope_ok
           0x007808a2      544f           addq.w 0x2, a7
           0x007808a4      1017           move.b (a7), d0
           0x007808a6      4880           ext.w d0
           0x007808a8      4186           chk.w d6, d0
           0x007808aa      1e80           move.b d0, (a7)
           0x007808ac      4eb90040452a   jsr p_Assert
           0x007808b2      486efea6       pea.l -0x15a(a6)
           0x007808b6      4eb900404434   jsr fcn.00404434
           0x007808bc      584f           addq.w 0x4, a7
           0x007808be      4a1f           tst.b (a7)+
       < 0x007808c0      67000400       beq.w 0x780cc2
          0x007808c4      4227           clr.b -(a7)
          0x007808c6      4ebaa64a       jsr PANEL_STACK.get_frozen(pc)
          0x007808ca      544f           addq.w 0x2, a7
          0x007808cc      4a2e000c       tst.b 0xc(a6)
      < 0x007808d0      6714           beq.b 0x7808e6
         0x007808d2      4aae0008       tst.l 0x8(a6)
     < 0x007808d6      672c           beq.b 0x780904
        0x007808d8      202e0008       move.l 0x8(a6), d0
        0x007808dc      b085           cmp.l d5, d0
    < 0x007808de      6302           bls.b 0x7808e2
       0x007808e0      4e4f           trap 0xf
    > 0x007808e2      3480           move.w d0, (a2)
    < 0x007808e4      601e           bra.b 0x780904
    > 0x007808e6      4a2e000e       tst.b 0xe(a6)
    < 0x007808ea      670c           beq.b 0x7808f8
       0x007808ec      4852           pea.l (a2)
       0x007808ee      2f14           move.l (a4), -(a7)
       0x007808f0      4eb90078424a   jsr PANEL_UTILS.inc_picnum
   < 0x007808f6      600a           bra.b 0x780902
   > 0x007808f8      4852           pea.l (a2)
       0x007808fa      2f14           move.l (a4), -(a7)
       0x007808fc      4eb90078432c   jsr PANEL_UTILS.dec_picnum
   > 0x00780902      504f           addq.w 0x8, a7
    > 0x00780904      4a2e000c       tst.b 0xc(a6)
      < 0x00780908      676a           beq.b 0x780974
         0x0078090a      4aae0008       tst.l 0x8(a6)
     < 0x0078090e      6664           bne.b 0x780974
        0x00780910      3f06           move.w d6, -(a7)
        0x00780912      4878ffff       pea.l 0xffff
        0x00780916      4eb9007949f4   jsr PANEL_VIDEO.wipe_matte
        0x0078091c      5c4f           addq.w 0x6, a7
        0x0078091e      204b           movea.l a3, a0
        0x00780920      43f9007777b1   lea.l 0x7777b1, a1
        0x00780926      701f           moveq 0x1f, d0
    > 0x00780928      10d9           move.b (a1)+, (a0)+
    < 0x0078092a      51c8fffc       dbra d0, 0x780928
        0x0078092e      9ec2           suba.w d2, a7
        0x00780930      204f           movea.l a7, a0
        0x00780932      224b           movea.l a3, a1
        0x00780934      703f           moveq 0x3f, d0
    > 0x00780936      20d9           move.l (a1)+, (a0)+
    < 0x00780938      51c8fffc       dbra d0, 0x780936
        0x0078093c      4227           clr.b -(a7)
        0x0078093e      4eba8fd2       jsr PANEL_STACK.set_on_air(pc)
        0x00780942      defc0102       adda.w 0x102, a7
        0x00780946      13fc00030086.  move.b 0x3, 0x86f67c.l
        0x0078094e      41f90086f6b3   lea.l 0x86f6b3, a0
        0x00780954      43f9007777b1   lea.l 0x7777b1, a1
        0x0078095a      701f           moveq 0x1f, d0
    > 0x0078095c      10d9           move.b (a1)+, (a0)+
    < 0x0078095e      51c8fffc       dbra d0, 0x78095c
        0x00780962      33d20086f67e   move.w (a2), 0x86f67e
        0x00780968      13fc00040086.  move.b 0x4, 0x86f6a2.l
    < 0x00780970      600003b2       bra.w 0x780d24
    > 0x00780974      3012           move.w (a2), d0
         0x00780976      41fa8246       lea.l 0x778bbe(pc), a0
         0x0078097a      3200           move.w d0, d1
         0x0078097c      e649           lsr.w 0x3, d1
         0x0078097e      0c410020       cmpi.w 0x20, d1
     < 0x00780982      6d04           blt.b 0x780988
        0x00780984      7200           moveq 0x0, d1
    < 0x00780986      6004           bra.b 0x78098c
    > 0x00780988      01301000       btst.l d0, (a0, d1.w)
    < 0x0078098c      670000fc       beq.w 0x780a8a
        0x00780990      4a390086eb1a   tst.b 0x86eb1a
    < 0x00780996      6762           beq.b 0x7809fa
       0x00780998      c085           and.l d5, d0
       0x0078099a      0c8000000009   cmpi.l 0x9, d0
   < 0x007809a0      6302           bls.b 0x7809a4
      0x007809a2      4e4f           trap 0xf
   > 0x007809a4      2800           move.l d0, d4
       0x007809a6      7612           moveq 0x12, d3
       0x007809a8      4eb900406a74   jsr fcn.00406a74
       0x007809ae      20790086eb32   movea.l 0x86eb32, a0
       0x007809b4      b1e8fffc       cmpa.l -0x4(a0), a0
   < 0x007809b8      6702           beq.b 0x7809bc
      0x007809ba      4e4d           trap 0xd
   > 0x007809bc      41f04800       lea.l (a0, d4.l), a0
       0x007809c0      32282a3a       move.w 0x2a3a(a0), d1
       0x007809c4      48c1           ext.l d1
       0x007809c6      2f01           move.l d1, -(a7)
       0x007809c8      48780000       pea.l 0x0
       0x007809cc      4eb9004070e4   jsr p_wti_o
       0x007809d2      504f           addq.w 0x8, a7
       0x007809d4      487a8209       pea.l 0x778bdf(pc)
       0x007809d8      48780014       pea.l 0x14
       0x007809dc      2f17           move.l (a7), -(a7)
       0x007809de      4eb9004047ea   jsr p_wts_o
       0x007809e4      504f           addq.w 0x8, a7
       0x007809e6      2e80           move.l d0, (a7)
       0x007809e8      48780000       pea.l 0x0
       0x007809ec      4eb9004070e4   jsr p_wti_o
       0x007809f2      504f           addq.w 0x8, a7
       0x007809f4      4eb900404946   jsr p_wtln_o
    > 0x007809fa      b046           cmp.w d6, d0
    < 0x007809fc      6756           beq.b 0x780a54
       0x007809fe      33c00086eb30   move.w d0, 0x86eb30
       0x00780a04      c085           and.l d5, d0
       0x00780a06      0c8000000009   cmpi.l 0x9, d0
   < 0x00780a0c      6302           bls.b 0x780a10
      0x00780a0e      4e4f           trap 0xf
   > 0x00780a10      2800           move.l d0, d4
       0x00780a12      7612           moveq 0x12, d3
       0x00780a14      4eb900406a74   jsr fcn.00406a74
       0x00780a1a      9087           sub.l d7, d0
       0x00780a1c      b085           cmp.l d5, d0
   < 0x00780a1e      6302           bls.b 0x780a22
      0x00780a20      4e4f           trap 0xf
   > 0x00780a22      d087           add.l d7, d0
       0x00780a24      3f00           move.w d0, -(a7)
       0x00780a26      20790086eb32   movea.l 0x86eb32, a0
       0x00780a2c      b1e8fffc       cmpa.l -0x4(a0), a0
   < 0x00780a30      6702           beq.b 0x780a34
      0x00780a32      4e4d           trap 0xd
   > 0x00780a34      41f04800       lea.l (a0, d4.l), a0
       0x00780a38      9efc0012       suba.w 0x12, a7
       0x00780a3c      224f           movea.l a7, a1
       0x00780a3e      41e82a3a       lea.l 0x2a3a(a0), a0
       0x00780a42      7211           moveq 0x11, d1
   > 0x00780a44      12d8           move.b (a0)+, (a1)+
   < 0x00780a46      51c9fffc       dbra d1, 0x780a44
       0x00780a4a      4eb90079f702   jsr PANEL_CURSOR.preset_to_curso
       0x00780a50      defc0014       adda.w 0x14, a7
    > 0x00780a54      9ec2           suba.w d2, a7
        0x00780a56      4281           clr.l d1
        0x00780a58      3212           move.w (a2), d1
        0x00780a5a      9287           sub.l d7, d1
        0x00780a5c      b285           cmp.l d5, d1
    < 0x00780a5e      6302           bls.b 0x780a62
       0x00780a60      4e4f           trap 0xf
    > 0x00780a62      d287           add.l d7, d1
        0x00780a64      3f01           move.w d1, -(a7)
        0x00780a66      4227           clr.b -(a7)
        0x00780a68      4eba8c6c       jsr PANEL_STACK.preset_display_(pc)
        0x00780a6c      584f           addq.w 0x4, a7
        0x00780a6e      204b           movea.l a3, a0
        0x00780a70      723f           moveq 0x3f, d1
    > 0x00780a72      20df           move.l (a7)+, (a0)+
    < 0x00780a74      51c9fffc       dbra d1, 0x780a72
        0x00780a78      9ec2           suba.w d2, a7
        0x00780a7a      204f           movea.l a7, a0
        0x00780a7c      224b           movea.l a3, a1
        0x00780a7e      723f           moveq 0x3f, d1
    > 0x00780a80      20d9           move.l (a1)+, (a0)+
    < 0x00780a82      51c9fffc       dbra d1, 0x780a80
    < 0x00780a86      60000292       bra.w 0x780d1a
    > 0x00780a8a      4eb90078ddba   jsr PANEL_PREFETCH.unfetch_clip
        0x00780a90      4239008713cd   clr.b 0x8713cd
        0x00780a96      554f           subq.w 0x2, a7
        0x00780a98      4227           clr.b -(a7)
        0x00780a9a      4852           pea.l (a2)
        0x00780a9c      1f2e000c       move.b 0xc(a6), -(a7)
        0x00780aa0      2f14           move.l (a4), -(a7)
        0x00780aa2      1f2e000e       move.b 0xe(a6), -(a7)
        0x00780aa6      486efef0       pea.l -0x110(a6)
        0x00780aaa      4eb9006b0530   jsr USER.get_pnum
        0x00780ab0      defc0012       adda.w 0x12, a7
        0x00780ab4      4a1f           tst.b (a7)+
    < 0x00780ab6      660c           bne.b 0x780ac4
       0x00780ab8      486efea6       pea.l -0x15a(a6)
       0x00780abc      4eb900404468   jsr fcn.00404468
       0x00780ac2      584f           addq.w 0x4, a7
    > 0x00780ac4      554f           subq.w 0x2, a7
        0x00780ac6      2f2efef6       move.l -0x10a(a6), -(a7)
        0x00780aca      2f2efef2       move.l -0x10e(a6), -(a7)
        0x00780ace      3f2efef0       move.w -0x110(a6), -(a7)
        0x00780ad2      2f39007776a2   move.l 0x7776a2, -(a7)
        0x00780ad8      2f390077769e   move.l 0x77769e, -(a7)
        0x00780ade      3f390077769c   move.w 0x77769c, -(a7)
        0x00780ae4      4eb9005ef3d2   jsr F2_UTILITY.f_fids_eq
        0x00780aea      defc0014       adda.w 0x14, a7
        0x00780aee      4a1f           tst.b (a7)+
    < 0x00780af0      6720           beq.b 0x780b12
       0x00780af2      9ec2           suba.w d2, a7
       0x00780af4      204f           movea.l a7, a0
       0x00780af6      43fa80fb       lea.l 0x778bf3(pc), a1
       0x00780afa      7017           moveq 0x17, d0
   > 0x00780afc      10d9           move.b (a1)+, (a0)+
   < 0x00780afe      51c8fffc       dbra d0, 0x780afc
       0x00780b02      41eefea6       lea.l -0x15a(a6), a0
       0x00780b06      2f08           move.l a0, -(a7)
       0x00780b08      4eb900408e0e   jsr p_error
       0x00780b0e      defc0104       adda.w 0x104, a7
    > 0x00780b12      554f           subq.w 0x2, a7
        0x00780b14      2f2efef6       move.l -0x10a(a6), -(a7)
        0x00780b18      2f2efef2       move.l -0x10e(a6), -(a7)
        0x00780b1c      3f2efef0       move.w -0x110(a6), -(a7)
        0x00780b20      2f3900777786   move.l 0x777786, -(a7)
        0x00780b26      2f3900777782   move.l 0x777782, -(a7)
        0x00780b2c      3f3900777780   move.w 0x777780, -(a7)
        0x00780b32      4eb9005ef3d2   jsr F2_UTILITY.f_fids_eq
        0x00780b38      defc0014       adda.w 0x14, a7
        0x00780b3c      4a1f           tst.b (a7)+
    < 0x00780b3e      6720           beq.b 0x780b60
       0x00780b40      9ec2           suba.w d2, a7
       0x00780b42      204f           movea.l a7, a0
       0x00780b44      43fa80c5       lea.l 0x778c0b(pc), a1
       0x00780b48      7019           moveq 0x19, d0
   > 0x00780b4a      10d9           move.b (a1)+, (a0)+
   < 0x00780b4c      51c8fffc       dbra d0, 0x780b4a
       0x00780b50      41eefea6       lea.l -0x15a(a6), a0
       0x00780b54      2f08           move.l a0, -(a7)
       0x00780b56      4eb900408e0e   jsr p_error
       0x00780b5c      defc0104       adda.w 0x104, a7
    > 0x00780b60      554f           subq.w 0x2, a7
        0x00780b62      2f2efef6       move.l -0x10a(a6), -(a7)
        0x00780b66      2f2efef2       move.l -0x10e(a6), -(a7)
        0x00780b6a      3f2efef0       move.w -0x110(a6), -(a7)
        0x00780b6e      4eb9006b949a   jsr USER1_UTILS.item_ftype
        0x00780b74      defc000a       adda.w 0xa, a7
        0x00780b78      101f           move.b (a7)+, d0
        0x00780b7a      4880           ext.w d0
        0x00780b7c      41bc000f       chk.w 0xf, d0
        0x00780b80      13c00086f6a2   move.b d0, 0x86f6a2
        0x00780b86      33d20086f67e   move.w (a2), 0x86f67e
        0x00780b8c      10390086f6a2   move.b 0x86f6a2, d0
        0x00780b92      0c000006       cmpi.b 0x6, d0
    < 0x00780b96      6702           beq.b 0x780b9a
   < 0x00780b98      600e           bra.b 0x780ba8
   > 0x00780b9a      4227           clr.b -(a7)
       0x00780b9c      4eb90040452a   jsr p_Assert
       0x00780ba2      544f           addq.w 0x2, a7
   < 0x00780ba4      600000ca       bra.w 0x780c70
   > 0x00780ba8      554f           subq.w 0x2, a7
       0x00780baa      2f2efef6       move.l -0x10a(a6), -(a7)
       0x00780bae      2f2efef2       move.l -0x10e(a6), -(a7)
       0x00780bb2      3f2efef0       move.w -0x110(a6), -(a7)
       0x00780bb6      554f           subq.w 0x2, a7
       0x00780bb8      4eb9007945de   jsr PANEL_VIDEO.edit_store
       0x00780bbe      1017           move.b (a7), d0
       0x00780bc0      4880           ext.w d0
       0x00780bc2      41bc0009       chk.w 0x9, d0
       0x00780bc6      1e80           move.b d0, (a7)
       0x00780bc8      2f3900870fc2   move.l 0x870fc2, -(a7)
       0x00780bce      4853           pea.l (a3)
       0x00780bd0      4eb900797abe   jsr PANEL_VIDEO.view_pic
       0x00780bd6      defc0014       adda.w 0x14, a7
       0x00780bda      4a1f           tst.b (a7)+
   < 0x00780bdc      67000086       beq.w 0x780c64
      0x00780be0      23eefef00087.  move.l -0x110(a6), 0x871052.l
      0x00780be8      23eefef40087.  move.l -0x10c(a6), 0x871056.l
      0x00780bf0      33eefef80087.  move.w -0x108(a6), 0x87105a.l
      0x00780bf8      13c60086eb1c   move.b d6, 0x86eb1c
      0x00780bfe      10390086f6a2   move.b 0x86f6a2, d0
      0x00780c04      4880           ext.w d0
      0x00780c06      41fa801e       lea.l 0x778c26(pc), a0
      0x00780c0a      3200           move.w d0, d1
      0x00780c0c      e649           lsr.w 0x3, d1
      0x00780c0e      01301000       btst.l d0, (a0, d1.w)
  < 0x00780c12      675c           beq.b 0x780c70
     0x00780c14      554f           subq.w 0x2, a7
     0x00780c16      4eb90079f56c   jsr PANEL_CURSOR.crop_cursor
     0x00780c1c      4a1f           tst.b (a7)+
 < 0x00780c1e      6750           beq.b 0x780c70
    0x00780c20      2f14           move.l (a4), -(a7)
    0x00780c22      30390086f67e   move.w 0x86f67e, d0
    0x00780c28      c085           and.l d5, d0
    0x00780c2a      9087           sub.l d7, d0
    0x00780c2c      b085           cmp.l d5, d0
 < 0x00780c2e      6302           bls.b 0x780c32
    0x00780c30      4e4f           trap 0xf
 > 0x00780c32      d087           add.l d7, d0
    0x00780c34      3f00           move.w d0, -(a7)
    0x00780c36      2f3900871058   move.l 0x871058, -(a7)
    0x00780c3c      2f3900871054   move.l 0x871054, -(a7)
    0x00780c42      3f3900871052   move.w 0x871052, -(a7)
    0x00780c48      10390086f6a2   move.b 0x86f6a2, d0
    0x00780c4e      4880           ext.w d0
    0x00780c50      41bc000f       chk.w 0xf, d0
    0x00780c54      1f00           move.b d0, -(a7)
    0x00780c56      4853           pea.l (a3)
    0x00780c58      4eb90079fa7a   jsr PANEL_CURSOR.crop_setup
    0x00780c5e      defc0016       adda.w 0x16, a7
 < 0x00780c62      600c           bra.b 0x780c70
 > 0x00780c64      486efea6       pea.l -0x15a(a6)
     0x00780c68      4eb900404468   jsr fcn.00404468
     0x00780c6e      584f           addq.w 0x4, a7
 > 0x00780c70      13fc00030086.  move.b 0x3, 0x86f67c.l
        0x00780c78      41f90086f6b3   lea.l 0x86f6b3, a0
        0x00780c7e      224b           movea.l a3, a1
        0x00780c80      303c00ff       move.w 0xff, d0
    > 0x00780c84      10d9           move.b (a1)+, (a0)+
    < 0x00780c86      51c8fffc       dbra d0, 0x780c84
        0x00780c8a      23d40086f68e   move.l (a4), 0x86f68e
        0x00780c90      9ec2           suba.w d2, a7
        0x00780c92      30390086f67e   move.w 0x86f67e, d0
        0x00780c98      c085           and.l d5, d0
        0x00780c9a      2f00           move.l d0, -(a7)
        0x00780c9c      4853           pea.l (a3)
        0x00780c9e      4eb900783670   jsr PANEL_UTILS.format_title
        0x00780ca4      504f           addq.w 0x8, a7
        0x00780ca6      204b           movea.l a3, a0
        0x00780ca8      703f           moveq 0x3f, d0
    > 0x00780caa      20df           move.l (a7)+, (a0)+
    < 0x00780cac      51c8fffc       dbra d0, 0x780caa
        0x00780cb0      9ec2           suba.w d2, a7
        0x00780cb2      204f           movea.l a7, a0
        0x00780cb4      224b           movea.l a3, a1
        0x00780cb6      703f           moveq 0x3f, d0
    > 0x00780cb8      20d9           move.l (a1)+, (a0)+
    < 0x00780cba      51c8fffc       dbra d0, 0x780cb8
        0x00780cbe      4227           clr.b -(a7)
    < 0x00780cc0      605a           bra.b 0x780d1c
    > 0x00780cc2      9ec2           suba.w d2, a7
        0x00780cc4      4eb900408ec0   jsr p_err_string
        0x00780cca      204b           movea.l a3, a0
        0x00780ccc      703f           moveq 0x3f, d0
    > 0x00780cce      20df           move.l (a7)+, (a0)+
    < 0x00780cd0      51c8fffc       dbra d0, 0x780cce
        0x00780cd4      4eb900404188   jsr p_Unlink
        0x00780cda      3f3c0002       move.w 0x2, -(a7)
        0x00780cde      9ec2           suba.w d2, a7
        0x00780ce0      204f           movea.l a7, a0
        0x00780ce2      224b           movea.l a3, a1
        0x00780ce4      703f           moveq 0x3f, d0
    > 0x00780ce6      20d9           move.l (a1)+, (a0)+
    < 0x00780ce8      51c8fffc       dbra d0, 0x780ce6
        0x00780cec      4eba89b0       jsr PANEL_STACK.set_last_error(pc)
        0x00780cf0      544f           addq.w 0x2, a7
        0x00780cf2      3012           move.w (a2), d0
        0x00780cf4      c085           and.l d5, d0
        0x00780cf6      2f00           move.l d0, -(a7)
        0x00780cf8      4853           pea.l (a3)
        0x00780cfa      4eb900783670   jsr PANEL_UTILS.format_title
        0x00780d00      504f           addq.w 0x8, a7
        0x00780d02      204b           movea.l a3, a0
        0x00780d04      703f           moveq 0x3f, d0
    > 0x00780d06      20df           move.l (a7)+, (a0)+
    < 0x00780d08      51c8fffc       dbra d0, 0x780d06
        0x00780d0c      9ec2           suba.w d2, a7
        0x00780d0e      204f           movea.l a7, a0
        0x00780d10      224b           movea.l a3, a1
        0x00780d12      703f           moveq 0x3f, d0
    > 0x00780d14      20d9           move.l (a1)+, (a0)+
    < 0x00780d16      51c8fffc       dbra d0, 0x780d14
    > 0x00780d1a      1f06           move.b d6, -(a7)
     > 0x00780d1c      4eba8bf4       jsr PANEL_STACK.set_on_air(pc)
          0x00780d20      defc0102       adda.w 0x102, a7
    > 0x00780d24      4cdf1fff       movem.l (a7)+, d0-d7/a0-a4
           0x00780d28      4e5e           unlk a6
           0x00780d2a      4e75           rts
            ; CALL XREF from PANEL.hit_grab @ 0x774e98
 376: PANEL_STACK.do_grab ();
           0x00780d2c      4e56fe80       link.w a6, 0xfe80
           0x00780d30      bfd5           cmpa.l (a5), a7
       < 0x00780d32      6206           bhi.b 0x780d3a
          0x00780d34      44fc0002       move.w 0x2, ccr
          0x00780d38      4e76           trapv
       > 0x00780d3a      defc0126       adda.w 0x126, a7
           0x00780d3e      48e7e0f0       movem.l d0-d2/a0-a3, -(a7)
           0x00780d42      45f90086eb2a   lea.l 0x86eb2a, a2
           0x00780d48      47eeffa6       lea.l -0x5a(a6), a3
           0x00780d4c      7201           moveq 0x1, d1
           0x00780d4e      740a           moveq 0xa, d2
           0x00780d50      554f           subq.w 0x2, a7
           0x00780d52      4eb900478bb2   jsr CONFIGCOM.cfg_vi_present
           0x00780d58      4a1f           tst.b (a7)+
       < 0x00780d5a      6630           bne.b 0x780d8c
          0x00780d5c      9efc00fc       suba.w 0xfc, a7
          0x00780d60      2f3900778c28   move.l 0x778c28, -(a7)
          0x00780d66      2f7900778c2c.  move.l 0x778c2c, 0x4(a7)
          0x00780d6e      2f7900778c30.  move.l 0x778c30, 0x8(a7)
          0x00780d76      2f7900778c34.  move.l 0x778c34, 0xc(a7)
          0x00780d7e      1f01           move.b d1, -(a7)
          0x00780d80      4eba8b90       jsr PANEL_STACK.set_on_air(pc)
          0x00780d84      defc0102       adda.w 0x102, a7
      < 0x00780d88      60000112       bra.w 0x780e9c
      > 0x00780d8c      554f           subq.w 0x2, a7
          0x00780d8e      4853           pea.l (a3)
          0x00780d90      4eb900404434   jsr fcn.00404434
          0x00780d96      584f           addq.w 0x4, a7
          0x00780d98      4a1f           tst.b (a7)+
      < 0x00780d9a      670000fc       beq.w 0x780e98
         0x00780d9e      48780000       pea.l 0x0
         0x00780da2      9efc00fc       suba.w 0xfc, a7
         0x00780da6      2f3900778c38   move.l 0x778c38, -(a7)
         0x00780dac      2f7900778c3c.  move.l 0x778c3c, 0x4(a7)
         0x00780db4      1f7900778c40.  move.b 0x778c40, 0x8(a7)
         0x00780dbc      1f01           move.b d1, -(a7)
         0x00780dbe      4eba8da4       jsr PANEL_STACK.format_on_air(pc)
         0x00780dc2      defc0106       adda.w 0x106, a7
         0x00780dc6      1d790086eb1f.  move.b 0x86eb1f, -0x10(a6)
         0x00780dce      4227           clr.b -(a7)
         0x00780dd0      4ebaa140       jsr PANEL_STACK.get_frozen(pc)
         0x00780dd4      544f           addq.w 0x2, a7
         0x00780dd6      4a2e000c       tst.b 0xc(a6)
     < 0x00780dda      6710           beq.b 0x780dec
        0x00780ddc      202e0008       move.l 0x8(a6), d0
        0x00780de0      0c800000ffff   cmpi.l 0xffff, d0
    < 0x00780de6      6302           bls.b 0x780dea
       0x00780de8      4e4f           trap 0xf
    > 0x00780dea      3480           move.w d0, (a2)
     > 0x00780dec      554f           subq.w 0x2, a7
         0x00780dee      4852           pea.l (a2)
         0x00780df0      1f2e000c       move.b 0xc(a6), -(a7)
         0x00780df4      1f01           move.b d1, -(a7)
         0x00780df6      486efff2       pea.l -0xe(a6)
         0x00780dfa      486efffc       pea.l -0x4(a6)
         0x00780dfe      4eb900798936   jsr PANEL_VIDEO.grab_buffer
         0x00780e04      defc0010       adda.w 0x10, a7
         0x00780e08      4a1f           tst.b (a7)+
     < 0x00780e0a      6610           bne.b 0x780e1c
        0x00780e0c      48780007       pea.l 0x7
        0x00780e10      3f12           move.w (a2), -(a7)
        0x00780e12      4853           pea.l (a3)
        0x00780e14      4eb9007835b0   jsr PANEL_UTILS.panel_error
        0x00780e1a      dec2           adda.w d2, a7
     > 0x00780e1c      554f           subq.w 0x2, a7
         0x00780e1e      2f2efff8       move.l -0x8(a6), -(a7)
         0x00780e22      2f2efff4       move.l -0xc(a6), -(a7)
         0x00780e26      3f2efff2       move.w -0xe(a6), -(a7)
         0x00780e2a      1f01           move.b d1, -(a7)
         0x00780e2c      2f2efffc       move.l -0x4(a6), -(a7)
         0x00780e30      3f12           move.w (a2), -(a7)
         0x00780e32      554f           subq.w 0x2, a7
         0x00780e34      4eb9007945de   jsr PANEL_VIDEO.edit_store
         0x00780e3a      1017           move.b (a7), d0
         0x00780e3c      4880           ext.w d0
         0x00780e3e      41bc0009       chk.w 0x9, d0
         0x00780e42      1e80           move.b d0, (a7)
         0x00780e44      4eb900797bfa   jsr PANEL_VIDEO.grab_picture
         0x00780e4a      defc0014       adda.w 0x14, a7
         0x00780e4e      4a1f           tst.b (a7)+
     < 0x00780e50      6610           bne.b 0x780e62
        0x00780e52      48780008       pea.l 0x8
        0x00780e56      3f12           move.w (a2), -(a7)
        0x00780e58      4853           pea.l (a3)
        0x00780e5a      4eb9007835b0   jsr PANEL_UTILS.panel_error
        0x00780e60      dec2           adda.w d2, a7
     > 0x00780e62      4878ffff       pea.l 0xffff
         0x00780e66      4227           clr.b -(a7)
         0x00780e68      4ebaa1a8       jsr PANEL_STACK.get_live(pc)
         0x00780e6c      5c4f           addq.w 0x6, a7
         0x00780e6e      3012           move.w (a2), d0
         0x00780e70      02800000ffff   andi.l 0xffff, d0
         0x00780e76      2f00           move.l d0, -(a7)
         0x00780e78      9efc0100       suba.w 0x100, a7
         0x00780e7c      204f           movea.l a7, a0
         0x00780e7e      43f900778c41   lea.l 0x778c41, a1
         0x00780e84      7005           moveq 0x5, d0
     > 0x00780e86      10d9           move.b (a1)+, (a0)+
     < 0x00780e88      51c8fffc       dbra d0, 0x780e86
         0x00780e8c      1f01           move.b d1, -(a7)
         0x00780e8e      4eba8cd4       jsr PANEL_STACK.format_on_air(pc)
         0x00780e92      defc0106       adda.w 0x106, a7
     < 0x00780e96      6004           bra.b 0x780e9c
     > 0x00780e98      4eba8ba0       jsr PANEL_STACK.error_on_air(pc)
     > 0x00780e9c      4cdf0f07       movem.l (a7)+, d0-d2/a0-a3
           0x00780ea0      4e5e           unlk a6
           0x00780ea2      4e75           rts
            ; CALL XREF from PANEL.hit_clr_grab @ 0x774eba
 228: PANEL_STACK.do_clear_grab ();
           0x00780ea4      4e56fe8a       link.w a6, 0xfe8a
           0x00780ea8      bfd5           cmpa.l (a5), a7
       < 0x00780eaa      6206           bhi.b 0x780eb2
          0x00780eac      44fc0002       move.w 0x2, ccr
          0x00780eb0      4e76           trapv
       > 0x00780eb2      defc011e       adda.w 0x11e, a7
           0x00780eb6      48e7c0e0       movem.l d0-d1/a0-a2, -(a7)
           0x00780eba      45f90086eb2a   lea.l 0x86eb2a, a2
           0x00780ec0      7201           moveq 0x1, d1
           0x00780ec2      554f           subq.w 0x2, a7
           0x00780ec4      4eb900478bb2   jsr CONFIGCOM.cfg_vi_present
           0x00780eca      4a1f           tst.b (a7)+
       < 0x00780ecc      6622           bne.b 0x780ef0
          0x00780ece      9efc0100       suba.w 0x100, a7
          0x00780ed2      204f           movea.l a7, a0
          0x00780ed4      43f900778c47   lea.l 0x778c47, a1
          0x00780eda      700f           moveq 0xf, d0
      > 0x00780edc      10d9           move.b (a1)+, (a0)+
      < 0x00780ede      51c8fffc       dbra d0, 0x780edc
          0x00780ee2      1f01           move.b d1, -(a7)
          0x00780ee4      4eba8a2c       jsr PANEL_STACK.set_on_air(pc)
          0x00780ee8      defc0102       adda.w 0x102, a7
      < 0x00780eec      60000092       bra.w 0x780f80
      > 0x00780ef0      554f           subq.w 0x2, a7
          0x00780ef2      486effa8       pea.l -0x58(a6)
          0x00780ef6      4eb900404434   jsr fcn.00404434
          0x00780efc      584f           addq.w 0x4, a7
          0x00780efe      4a1f           tst.b (a7)+
      < 0x00780f00      677a           beq.b 0x780f7c
         0x00780f02      48780000       pea.l 0x0
         0x00780f06      9efc0100       suba.w 0x100, a7
         0x00780f0a      204f           movea.l a7, a0
         0x00780f0c      43f900778c57   lea.l 0x778c57, a1
         0x00780f12      7016           moveq 0x16, d0
     > 0x00780f14      10d9           move.b (a1)+, (a0)+
     < 0x00780f16      51c8fffc       dbra d0, 0x780f14
         0x00780f1a      1f01           move.b d1, -(a7)
         0x00780f1c      4eba8c46       jsr PANEL_STACK.format_on_air(pc)
         0x00780f20      defc0106       adda.w 0x106, a7
         0x00780f24      4252           clr.w (a2)
         0x00780f26      554f           subq.w 0x2, a7
         0x00780f28      4852           pea.l (a2)
         0x00780f2a      1f01           move.b d1, -(a7)
         0x00780f2c      1f3c0002       move.b 0x2, -(a7)
         0x00780f30      486efff2       pea.l -0xe(a6)
         0x00780f34      486efffc       pea.l -0x4(a6)
         0x00780f38      4eb900798936   jsr PANEL_VIDEO.grab_buffer
         0x00780f3e      defc0010       adda.w 0x10, a7
         0x00780f42      4a1f           tst.b (a7)+
     < 0x00780f44      6614           bne.b 0x780f5a
        0x00780f46      48780008       pea.l 0x8
        0x00780f4a      3f12           move.w (a2), -(a7)
        0x00780f4c      486effa8       pea.l -0x58(a6)
        0x00780f50      4eb9007835b0   jsr PANEL_UTILS.panel_error
        0x00780f56      defc000a       adda.w 0xa, a7
     > 0x00780f5a      48780000       pea.l 0x0
         0x00780f5e      9efc00fe       suba.w 0xfe, a7
         0x00780f62      3f3900778c6e   move.w 0x778c6e, -(a7)
         0x00780f68      1f7900778c70.  move.b 0x778c70, 0x2(a7)
         0x00780f70      1f01           move.b d1, -(a7)
         0x00780f72      4eba8bf0       jsr PANEL_STACK.format_on_air(pc)
         0x00780f76      defc0106       adda.w 0x106, a7
     < 0x00780f7a      6004           bra.b 0x780f80
     > 0x00780f7c      4eba8abc       jsr PANEL_STACK.error_on_air(pc)
     > 0x00780f80      4cdf0703       movem.l (a7)+, d0-d1/a0-a2
           0x00780f84      4e5e           unlk a6
           0x00780f86      4e75           rts
            ; CALL XREF from PANEL.hit_grab_view @ 0x774ee6
 412: PANEL_STACK.do_grab_view ();
           0x00780f88      4e56fe76       link.w a6, 0xfe76
           0x00780f8c      bfd5           cmpa.l (a5), a7
       < 0x00780f8e      6206           bhi.b 0x780f96
          0x00780f90      44fc0002       move.w 0x2, ccr
          0x00780f94      4e76           trapv
       > 0x00780f96      defc0132       adda.w 0x132, a7
           0x00780f9a      48e7f8f8       movem.l d0-d4/a0-a4, -(a7)
           0x00780f9e      45f90086eb2a   lea.l 0x86eb2a, a2
           0x00780fa4      47eeffa8       lea.l -0x58(a6), a3
           0x00780fa8      49ee000c       lea.l 0xc(a6), a4
           0x00780fac      7201           moveq 0x1, d1
           0x00780fae      243c0000ffff   move.l 0xffff, d2
           0x00780fb4      363c0100       move.w 0x100, d3
           0x00780fb8      780a           moveq 0xa, d4
           0x00780fba      554f           subq.w 0x2, a7
           0x00780fbc      4eb900478bb2   jsr CONFIGCOM.cfg_vi_present
           0x00780fc2      4a1f           tst.b (a7)+
       < 0x00780fc4      6620           bne.b 0x780fe6
          0x00780fc6      9ec3           suba.w d3, a7
          0x00780fc8      204f           movea.l a7, a0
          0x00780fca      43f900778c71   lea.l 0x778c71, a1
          0x00780fd0      700f           moveq 0xf, d0
      > 0x00780fd2      10d9           move.b (a1)+, (a0)+
      < 0x00780fd4      51c8fffc       dbra d0, 0x780fd2
          0x00780fd8      1f01           move.b d1, -(a7)
          0x00780fda      4eba8936       jsr PANEL_STACK.set_on_air(pc)
          0x00780fde      defc0102       adda.w 0x102, a7
      < 0x00780fe2      60000138       bra.w 0x78111c
      > 0x00780fe6      554f           subq.w 0x2, a7
          0x00780fe8      4853           pea.l (a3)
          0x00780fea      4eb900404434   jsr fcn.00404434
          0x00780ff0      584f           addq.w 0x4, a7
          0x00780ff2      4a1f           tst.b (a7)+
      < 0x00780ff4      67000122       beq.w 0x781118
         0x00780ff8      4eb90078ddba   jsr PANEL_PREFETCH.unfetch_clip
         0x00780ffe      4239008713cd   clr.b 0x8713cd
         0x00781004      4227           clr.b -(a7)
         0x00781006      4eba9f0a       jsr PANEL_STACK.get_frozen(pc)
         0x0078100a      544f           addq.w 0x2, a7
         0x0078100c      4a14           tst.b (a4)
     < 0x0078100e      670c           beq.b 0x78101c
        0x00781010      202e0008       move.l 0x8(a6), d0
        0x00781014      b082           cmp.l d2, d0
    < 0x00781016      6302           bls.b 0x78101a
       0x00781018      4e4f           trap 0xf
   > 0x0078101a      600c           bra.b 0x781028
    > 0x0078101c      3012           move.w (a2), d0
        0x0078101e      c082           and.l d2, d0
        0x00781020      5280           addq.l 0x1, d0
        0x00781022      b082           cmp.l d2, d0
    < 0x00781024      6302           bls.b 0x781028
       0x00781026      4e4f           trap 0xf
   > 0x00781028      3480           move.w d0, (a2)
         0x0078102a      554f           subq.w 0x2, a7
         0x0078102c      4852           pea.l (a2)
         0x0078102e      1f14           move.b (a4), -(a7)
         0x00781030      4227           clr.b -(a7)
         0x00781032      486efff2       pea.l -0xe(a6)
         0x00781036      486efffc       pea.l -0x4(a6)
         0x0078103a      4eb900798936   jsr PANEL_VIDEO.grab_buffer
         0x00781040      defc0010       adda.w 0x10, a7
         0x00781044      4a1f           tst.b (a7)+
     < 0x00781046      6636           bne.b 0x78107e
        0x00781048      4a14           tst.b (a4)
    < 0x0078104a      6622           bne.b 0x78106e
       0x0078104c      9ec3           suba.w d3, a7
       0x0078104e      204f           movea.l a7, a0
       0x00781050      43f900778c81   lea.l 0x778c81, a1
       0x00781056      7011           moveq 0x11, d0
   > 0x00781058      10d9           move.b (a1)+, (a0)+
   < 0x0078105a      51c8fffc       dbra d0, 0x781058
       0x0078105e      204b           movea.l a3, a0
       0x00781060      2f08           move.l a0, -(a7)
       0x00781062      4eb900408e0e   jsr p_error
       0x00781068      defc0104       adda.w 0x104, a7
   < 0x0078106c      6010           bra.b 0x78107e
   > 0x0078106e      48780004       pea.l 0x4
       0x00781072      3f12           move.w (a2), -(a7)
       0x00781074      4853           pea.l (a3)
       0x00781076      4eb9007835b0   jsr PANEL_UTILS.panel_error
       0x0078107c      dec4           adda.w d4, a7
   > 0x0078107e      554f           subq.w 0x2, a7
         0x00781080      2f2efff8       move.l -0x8(a6), -(a7)
         0x00781084      2f2efff4       move.l -0xc(a6), -(a7)
         0x00781088      3f2efff2       move.w -0xe(a6), -(a7)
         0x0078108c      4227           clr.b -(a7)
         0x0078108e      2f2efffc       move.l -0x4(a6), -(a7)
         0x00781092      3f12           move.w (a2), -(a7)
         0x00781094      554f           subq.w 0x2, a7
         0x00781096      4eb9007945de   jsr PANEL_VIDEO.edit_store
         0x0078109c      1017           move.b (a7), d0
         0x0078109e      4880           ext.w d0
         0x007810a0      41bc0009       chk.w 0x9, d0
         0x007810a4      1e80           move.b d0, (a7)
         0x007810a6      4eb900797bfa   jsr PANEL_VIDEO.grab_picture
         0x007810ac      defc0014       adda.w 0x14, a7
         0x007810b0      4a1f           tst.b (a7)+
     < 0x007810b2      6708           beq.b 0x7810bc
        0x007810b4      13c10086eb1c   move.b d1, 0x86eb1c
    < 0x007810ba      6010           bra.b 0x7810cc
    > 0x007810bc      48780009       pea.l 0x9
        0x007810c0      3f12           move.w (a2), -(a7)
        0x007810c2      4853           pea.l (a3)
        0x007810c4      4eb9007835b0   jsr PANEL_UTILS.panel_error
        0x007810ca      dec4           adda.w d4, a7
    > 0x007810cc      3012           move.w (a2), d0
         0x007810ce      c082           and.l d2, d0
         0x007810d0      2f00           move.l d0, -(a7)
         0x007810d2      9ec3           suba.w d3, a7
         0x007810d4      204f           movea.l a7, a0
         0x007810d6      43f900778c93   lea.l 0x778c93, a1
         0x007810dc      7005           moveq 0x5, d0
     > 0x007810de      10d9           move.b (a1)+, (a0)+
     < 0x007810e0      51c8fffc       dbra d0, 0x7810de
         0x007810e4      4227           clr.b -(a7)
         0x007810e6      4eba8a7c       jsr PANEL_STACK.format_on_air(pc)
         0x007810ea      defc0106       adda.w 0x106, a7
         0x007810ee      13fc00040086.  move.b 0x4, 0x86f67c.l
         0x007810f6      41f90086f6b3   lea.l 0x86f6b3, a0
         0x007810fc      43f900778c99   lea.l 0x778c99, a1
         0x00781102      700c           moveq 0xc, d0
     > 0x00781104      10d9           move.b (a1)+, (a0)+
     < 0x00781106      51c8fffc       dbra d0, 0x781104
         0x0078110a      33d20086f67e   move.w (a2), 0x86f67e
         0x00781110      13c10086f6a2   move.b d1, 0x86f6a2
     < 0x00781116      6004           bra.b 0x78111c
     > 0x00781118      4eba8920       jsr PANEL_STACK.error_on_air(pc)
     > 0x0078111c      4cdf1f1f       movem.l (a7)+, d0-d4/a0-a4
           0x00781120      4e5e           unlk a6
           0x00781122      4e75           rts
            ; CALL XREF from PANEL.hit_timeout @ 0x774fd2
 196: PANEL_STACK.do_timeout ();
           0x00781124      4e56fdce       link.w a6, 0xfdce
           0x00781128      bfd5           cmpa.l (a5), a7
       < 0x0078112a      6206           bhi.b 0x781132
          0x0078112c      44fc0002       move.w 0x2, ccr
          0x00781130      4e76           trapv
       > 0x00781132      defc012c       adda.w 0x12c, a7
           0x00781136      48e7e3e0       movem.l d0-d2/d6-d7/a0-a2, -(a7)
           0x0078113a      43f90086eb20   lea.l 0x86eb20, a1
           0x00781140      45f90086ef42   lea.l 0x86ef42, a2
           0x00781146      7420           moveq 0x20, d2
           0x00781148      10390086eb1b   move.b 0x86eb1b, d0
           0x0078114e      0c000001       cmpi.b 0x1, d0
       < 0x00781152      6600008c       bne.w 0x7811e0
          0x00781156      1012           move.b (a2), d0
          0x00781158      b002           cmp.b d2, d0
      < 0x0078115a      63000084       bls.w 0x7811e0
         0x0078115e      7e00           moveq 0x0, d7
         0x00781160      5291           addq.l 0x1, (a1)
         0x00781162      1012           move.b (a2), d0
         0x00781164      0280000000ff   andi.l 0xff, d0
         0x0078116a      9042           sub.w d2, d0
         0x0078116c      3200           move.w d0, d1
         0x0078116e      5a41           addq.w 0x5, d1
         0x00781170      48c1           ext.l d1
         0x00781172      b291           cmp.l (a1), d1
     < 0x00781174      6c08           bge.b 0x78117e
        0x00781176      22bcfffffffb   move.l 0xfffffffb, (a1)
        0x0078117c      7e01           moveq 0x1, d7
     > 0x0078117e      4a91           tst.l (a1)
     < 0x00781180      6f08           ble.b 0x78118a
        0x00781182      48c0           ext.l d0
        0x00781184      b091           cmp.l (a1), d0
    < 0x00781186      6d02           blt.b 0x78118a
       0x00781188      7e01           moveq 0x1, d7
    > 0x0078118a      4a91           tst.l (a1)
     < 0x0078118c      6c04           bge.b 0x781192
        0x0078118e      7c00           moveq 0x0, d6
    < 0x00781190      6002           bra.b 0x781194
    > 0x00781192      2c11           move.l (a1), d6
    > 0x00781194      4a07           tst.b d7
     < 0x00781196      6748           beq.b 0x7811e0
        0x00781198      9efc0100       suba.w 0x100, a7
        0x0078119c      4852           pea.l (a2)
        0x0078119e      2006           move.l d6, d0
        0x007811a0      5280           addq.l 0x1, d0
        0x007811a2      0480ffff8000   subi.l 0xffff8000, d0
        0x007811a8      0c800000ffff   cmpi.l 0xffff, d0
    < 0x007811ae      6302           bls.b 0x7811b2
       0x007811b0      4e4f           trap 0xf
    > 0x007811b2      0680ffff8000   addi.l 0xffff8000, d0
        0x007811b8      3f00           move.w d0, -(a7)
        0x007811ba      3f02           move.w d2, -(a7)
        0x007811bc      4eb900407036   jsr p_copy
        0x007811c2      504f           addq.w 0x8, a7
        0x007811c4      41eefefe       lea.l -0x102(a6), a0
        0x007811c8      703f           moveq 0x3f, d0
    > 0x007811ca      20df           move.l (a7)+, (a0)+
    < 0x007811cc      51c8fffc       dbra d0, 0x7811ca
        0x007811d0      48780000       pea.l 0x0
        0x007811d4      486efefe       pea.l -0x102(a6)
        0x007811d8      4eb9007a1f06   jsr SERIAL.write_window
        0x007811de      504f           addq.w 0x8, a7
     > 0x007811e0      4cdf07c7       movem.l (a7)+, d0-d2/d6-d7/a0-a2
           0x007811e4      4e5e           unlk a6
           0x007811e6      4e75           rts
            ; CALL XREF from PANEL.hit_freeze @ 0x774ff2
 138: PANEL_STACK.do_freeze ();
           0x007811e8      4e56fef2       link.w a6, 0xfef2
           0x007811ec      bfd5           cmpa.l (a5), a7
       < 0x007811ee      6206           bhi.b 0x7811f6
          0x007811f0      44fc0002       move.w 0x2, ccr
          0x007811f4      4e76           trapv
       > 0x007811f6      defc010e       adda.w 0x10e, a7
           0x007811fa      48e7c000       movem.l d0-d1, -(a7)
           0x007811fe      7201           moveq 0x1, d1
           0x00781200      554f           subq.w 0x2, a7
           0x00781202      4eb900478bb2   jsr CONFIGCOM.cfg_vi_present
           0x00781208      4a1f           tst.b (a7)+
       < 0x0078120a      662e           bne.b 0x78123a
          0x0078120c      9efc00fc       suba.w 0xfc, a7
          0x00781210      2f3900778ca6   move.l 0x778ca6, -(a7)
          0x00781216      2f7900778caa.  move.l 0x778caa, 0x4(a7)
          0x0078121e      2f7900778cae.  move.l 0x778cae, 0x8(a7)
          0x00781226      2f7900778cb2.  move.l 0x778cb2, 0xc(a7)
          0x0078122e      1f01           move.b d1, -(a7)
          0x00781230      4eba86e0       jsr PANEL_STACK.set_on_air(pc)
          0x00781234      defc0102       adda.w 0x102, a7
      < 0x00781238      6030           bra.b 0x78126a
      > 0x0078123a      4a390086eb1f   tst.b 0x86eb1f
      < 0x00781240      6720           beq.b 0x781262
         0x00781242      4878ffff       pea.l 0xffff
         0x00781246      10390086eb28   move.b 0x86eb28, d0
         0x0078124c      4880           ext.w d0
         0x0078124e      41bc0004       chk.w 0x4, d0
         0x00781252      1f00           move.b d0, -(a7)
         0x00781254      4eba9dbc       jsr PANEL_STACK.get_live(pc)
         0x00781258      5c4f           addq.w 0x6, a7
         0x0078125a      13c10086eb1c   move.b d1, 0x86eb1c
     < 0x00781260      6008           bra.b 0x78126a
     > 0x00781262      1f01           move.b d1, -(a7)
         0x00781264      4eba9cac       jsr PANEL_STACK.get_frozen(pc)
         0x00781268      544f           addq.w 0x2, a7
     > 0x0078126a      4cdf0003       movem.l (a7)+, d0-d1
           0x0078126e      4e5e           unlk a6
           0x00781270      4e75           rts
            ; CALL XREF from PANEL.hit_clr_freeze @ 0x77500e
 160: PANEL_STACK.do_sel_input ();
           0x00781272      4e56feea       link.w a6, 0xfeea
           0x00781276      bfd5           cmpa.l (a5), a7
       < 0x00781278      6206           bhi.b 0x781280
          0x0078127a      44fc0002       move.w 0x2, ccr
          0x0078127e      4e76           trapv
       > 0x00781280      defc0116       adda.w 0x116, a7
           0x00781284      48e7c0c0       movem.l d0-d1/a0-a1, -(a7)
           0x00781288      41f90086eb24   lea.l 0x86eb24, a0
           0x0078128e      43f90086eb1f   lea.l 0x86eb1f, a1
           0x00781294      7201           moveq 0x1, d1
           0x00781296      554f           subq.w 0x2, a7
           0x00781298      4eb900478bb2   jsr CONFIGCOM.cfg_vi_present
           0x0078129e      4a1f           tst.b (a7)+
       < 0x007812a0      662e           bne.b 0x7812d0
          0x007812a2      9efc00fc       suba.w 0xfc, a7
          0x007812a6      2f3900778cb6   move.l 0x778cb6, -(a7)
          0x007812ac      2f7900778cba.  move.l 0x778cba, 0x4(a7)
          0x007812b4      2f7900778cbe.  move.l 0x778cbe, 0x8(a7)
          0x007812bc      2f7900778cc2.  move.l 0x778cc2, 0xc(a7)
          0x007812c4      1f01           move.b d1, -(a7)
          0x007812c6      4eba864a       jsr PANEL_STACK.set_on_air(pc)
          0x007812ca      defc0102       adda.w 0x102, a7
      < 0x007812ce      603a           bra.b 0x78130a
      > 0x007812d0      4a11           tst.b (a1)
      < 0x007812d2      6608           bne.b 0x7812dc
         0x007812d4      4eb900798360   jsr PANEL_VIDEO.freeze
         0x007812da      1281           move.b d1, (a1)
      > 0x007812dc      554f           subq.w 0x2, a7
          0x007812de      4eb90078f34e   jsr PANEL_INPUT.last_input
          0x007812e4      4280           clr.l d0
          0x007812e6      301f           move.w (a7)+, d0
          0x007812e8      b090           cmp.l (a0), d0
      < 0x007812ea      6604           bne.b 0x7812f0
         0x007812ec      4290           clr.l (a0)
     < 0x007812ee      6002           bra.b 0x7812f2
     > 0x007812f0      5290           addq.l 0x1, (a0)
     > 0x007812f2      4878ffff       pea.l 0xffff
          0x007812f6      10390086eb28   move.b 0x86eb28, d0
          0x007812fc      4880           ext.w d0
          0x007812fe      41bc0004       chk.w 0x4, d0
          0x00781302      1f00           move.b d0, -(a7)
          0x00781304      4eba9d0c       jsr PANEL_STACK.get_live(pc)
          0x00781308      5c4f           addq.w 0x6, a7
      > 0x0078130a      4cdf0303       movem.l (a7)+, d0-d1/a0-a1
           0x0078130e      4e5e           unlk a6
           0x00781310      4e75           rts
            ; CALL XREF from PANEL_STACK.do_sel_plane @ 0x781414
            ; CALL XREF from PANEL_STACK.do_show_output @ 0x781472
 48: PANEL_STACK.rec_plane_str ();
           0x00781312      4e56ffec       link.w a6, 0xffec
           0x00781316      bfd5           cmpa.l (a5), a7
       < 0x00781318      6206           bhi.b 0x781320
          0x0078131a      44fc0002       move.w 0x2, ccr
          0x0078131e      4e76           trapv
       > 0x00781320      defc0014       adda.w 0x14, a7
           0x00781324      48e780e0       movem.l d0/a0-a2, -(a7)
           0x00781328      45ee000a       lea.l 0xa(a6), a2
           0x0078132c      102e0008       move.b 0x8(a6), d0
           0x00781330      4880           ext.w d0
           0x00781332      0c400004       cmpi.w 0x4, d0
       < 0x00781336      6250           bhi.b 0x781388
          0x00781338      d040           add.w d0, d0
          0x0078133a      303b0006       move.w 0x781342(pc, d0.w), d0
          0x0078133e      4efb0002       jmp 0x781342(pc, d0.w)
           0x00781342      000a001c       
           0x00781343      0a001c00       eori.b 0x0, d0
           0x00781347      4600           not.b d0
           0x00781349      4600           not.b d0
           0x0078134b      3020           move.w -(a0), d0
           0x0078134d      4a43           tst.w d3
           0x0078134f      f900           invalid
           0x00781351      778cc670       
           0x00781352      8cc6           divu.w d6, d6
           0x00781354      7006           moveq 0x6, d0
       > 0x00781356      20d9           move.l (a1)+, (a0)+
       < 0x00781358      51c8fffc       dbra d0, 0x781356
       < 0x0078135c      603a           bra.b 0x781398
          0x0078135e      204a           movea.l a2, a0
          0x00781360      43f900778ce2   lea.l 0x778ce2, a1
          0x00781366      7005           moveq 0x5, d0
      > 0x00781368      20d9           move.l (a1)+, (a0)+
      < 0x0078136a      51c8fffc       dbra d0, 0x781368
          0x0078136e      30d9           move.w (a1)+, (a0)+
      < 0x00781370      6026           bra.b 0x781398
         0x00781372      204a           movea.l a2, a0
         0x00781374      43f900778cfc   lea.l 0x778cfc, a1
         0x0078137a      7006           moveq 0x6, d0
     > 0x0078137c      20d9           move.l (a1)+, (a0)+
     < 0x0078137e      51c8fffc       dbra d0, 0x78137c
         0x00781382      30d9           move.w (a1)+, (a0)+
         0x00781384      10d9           move.b (a1)+, (a0)+
     < 0x00781386      6010           bra.b 0x781398
     > 0x00781388      204a           movea.l a2, a0
         0x0078138a      43f900778d1b   lea.l 0x778d1b, a1
         0x00781390      7019           moveq 0x19, d0
     > 0x00781392      10d9           move.b (a1)+, (a0)+
     < 0x00781394      51c8fffc       dbra d0, 0x781392
     > 0x00781398      4cdf0701       movem.l (a7)+, d0/a0-a2
            0x0078139c      4e5e           unlk a6
            0x0078139e      4e75           rts
            ; CALL XREF from PANEL.hit_release @ 0x7750d6
            ; CALL XREF from PANEL.hit_clr_output @ 0x77575a
 158: PANEL_STACK.do_sel_plane ();
           0x007813a0      4e56fee2       link.w a6, 0xfee2
           0x007813a4      bfd5           cmpa.l (a5), a7
       < 0x007813a6      6206           bhi.b 0x7813ae
          0x007813a8      44fc0002       move.w 0x2, ccr
          0x007813ac      4e76           trapv
       > 0x007813ae      defc011e       adda.w 0x11e, a7
           0x007813b2      48e7e0e0       movem.l d0-d2/a0-a2, -(a7)
           0x007813b6      45f90086eb28   lea.l 0x86eb28, a2
           0x007813bc      7201           moveq 0x1, d1
           0x007813be      7404           moveq 0x4, d2
           0x007813c0      554f           subq.w 0x2, a7
           0x007813c2      4eb900478bb2   jsr CONFIGCOM.cfg_vi_present
           0x007813c8      4a1f           tst.b (a7)+
       < 0x007813ca      6620           bne.b 0x7813ec
          0x007813cc      9efc0100       suba.w 0x100, a7
          0x007813d0      204f           movea.l a7, a0
          0x007813d2      43f900778d35   lea.l 0x778d35, a1
          0x007813d8      700f           moveq 0xf, d0
      > 0x007813da      10d9           move.b (a1)+, (a0)+
      < 0x007813dc      51c8fffc       dbra d0, 0x7813da
      > 0x007813e0      1f01           move.b d1, -(a7)
         0x007813e2      4eba852e       jsr PANEL_STACK.set_on_air(pc)
         0x007813e6      defc0102       adda.w 0x102, a7
     < 0x007813ea      604a           bra.b 0x781436
     > 0x007813ec      4a2e0008       tst.b 0x8(a6)
     < 0x007813f0      672a           beq.b 0x78141c
        0x007813f2      4a12           tst.b (a2)
    < 0x007813f4      6708           beq.b 0x7813fe
       0x007813f6      1012           move.b (a2), d0
       0x007813f8      b001           cmp.b d1, d0
   < 0x007813fa      6706           beq.b 0x781402
  < 0x007813fc      6008           bra.b 0x781406
  > 0x007813fe      1481           move.b d1, (a2)
  < 0x00781400      6006           bra.b 0x781408
  > 0x00781402      1482           move.b d2, (a2)
  < 0x00781404      6002           bra.b 0x781408
  > 0x00781406      4212           clr.b (a2)
   > 0x00781408      9efc0100       suba.w 0x100, a7
        0x0078140c      1012           move.b (a2), d0
        0x0078140e      4880           ext.w d0
        0x00781410      4182           chk.w d2, d0
        0x00781412      1f00           move.b d0, -(a7)
        0x00781414      4ebafefc       jsr PANEL_STACK.rec_plane_str(pc)
        0x00781418      544f           addq.w 0x2, a7
     < 0x0078141a      60c4           bra.b 0x7813e0
      > 0x0078141c      4a390086eb1f   tst.b 0x86eb1f
      < 0x00781422      6612           bne.b 0x781436
         0x00781424      4878ffff       pea.l 0xffff
         0x00781428      1012           move.b (a2), d0
         0x0078142a      4880           ext.w d0
         0x0078142c      4182           chk.w d2, d0
         0x0078142e      1f00           move.b d0, -(a7)
         0x00781430      4eba9be0       jsr PANEL_STACK.get_live(pc)
         0x00781434      5c4f           addq.w 0x6, a7
     > 0x00781436      4cdf0707       movem.l (a7)+, d0-d2/a0-a2
           0x0078143a      4e5e           unlk a6
           0x0078143c      4e75           rts
            ; CALL XREF from PANEL.hit_output @ 0x775730
 76: PANEL_STACK.do_show_output ();
           0x0078143e      4e56fef2       link.w a6, 0xfef2
           0x00781442      bfd5           cmpa.l (a5), a7
       < 0x00781444      6206           bhi.b 0x78144c
          0x00781446      44fc0002       move.w 0x2, ccr
          0x0078144a      4e76           trapv
       > 0x0078144c      defc010e       adda.w 0x10e, a7
           0x00781450      48e7c000       movem.l d0-d1, -(a7)
           0x00781454      323c0102       move.w 0x102, d1
           0x00781458      1f01           move.b d1, -(a7)
           0x0078145a      4227           clr.b -(a7)
           0x0078145c      4eba8970       jsr PANEL_STACK.show_alt_seq(pc)
           0x00781460      9efc00fc       suba.w 0xfc, a7
           0x00781464      10390086eb28   move.b 0x86eb28, d0
           0x0078146a      4880           ext.w d0
           0x0078146c      41bc0004       chk.w 0x4, d0
           0x00781470      1f00           move.b d0, -(a7)
           0x00781472      4ebafe9e       jsr PANEL_STACK.rec_plane_str(pc)
           0x00781476      1e81           move.b d1, (a7)
           0x00781478      4eba8524       jsr PANEL_STACK.set_next_on_air(pc)
           0x0078147c      dec1           adda.w d1, a7
           0x0078147e      4eba91dc       jsr PANEL_STACK.display_next_ou(pc)
           0x00781482      4cdf0003       movem.l (a7)+, d0-d1
           0x00781486      4e5e           unlk a6
           0x00781488      4e75           rts
            ; CALL XREF from PANEL.hit_digit_outpu @ 0x775570
 286: PANEL_STACK.do_digit_output ();
           0x0078148a      4e56fd96       link.w a6, 0xfd96
           0x0078148e      bfd5           cmpa.l (a5), a7
       < 0x00781490      6206           bhi.b 0x781498
          0x00781492      44fc0002       move.w 0x2, ccr
          0x00781496      4e76           trapv
       > 0x00781498      defc0166       adda.w 0x166, a7
           0x0078149c      48e799f8       movem.l d0/d3-d4/d7/a0-a4, -(a7)
           0x007814a0      47eeff00       lea.l -0x100(a6), a3
           0x007814a4      49f90086eb1a   lea.l 0x86eb1a, a4
           0x007814aa      282e0008       move.l 0x8(a6), d4
           0x007814ae      760a           moveq 0xa, d3
           0x007814b0      4eb900406b50   jsr fcn.00406b50
           0x007814b6      2e03           move.l d3, d7
           0x007814b8      4a14           tst.b (a4)
       < 0x007814ba      6728           beq.b 0x7814e4
          0x007814bc      487900778d46   pea.l 0x778d46
          0x007814c2      48780004       pea.l 0x4
          0x007814c6      2f17           move.l (a7), -(a7)
          0x007814c8      4eb9004047ea   jsr p_wts_o
          0x007814ce      504f           addq.w 0x8, a7
          0x007814d0      2e87           move.l d7, (a7)
          0x007814d2      48780000       pea.l 0x0
          0x007814d6      4eb9004070e4   jsr p_wti_o
          0x007814dc      504f           addq.w 0x8, a7
          0x007814de      4eb900404946   jsr p_wtln_o
       > 0x007814e4      41f900778d4a   lea.l 0x778d4a, a0
           0x007814ea      3007           move.w d7, d0
           0x007814ec      e648           lsr.w 0x3, d0
           0x007814ee      0c400020       cmpi.w 0x20, d0
       < 0x007814f2      6d04           blt.b 0x7814f8
          0x007814f4      7000           moveq 0x0, d0
      < 0x007814f6      6004           bra.b 0x7814fc
      > 0x007814f8      0f300000       btst.l d7, (a0, d0.w)
      < 0x007814fc      670000a2       beq.w 0x7815a0
          0x00781500      2007           move.l d7, d0
          0x00781502      5380           subq.l 0x1, d0
          0x00781504      0c8000000001   cmpi.l 0x1, d0
      < 0x0078150a      6302           bls.b 0x78150e
         0x0078150c      4e4f           trap 0xf
      > 0x0078150e      2800           move.l d0, d4
          0x00781510      263c0000013a   move.l 0x13a, d3
          0x00781516      4eb900406a74   jsr fcn.00406a74
          0x0078151c      204c           movea.l a4, a0
          0x0078151e      41f04800       lea.l (a0, d4.l), a0
          0x00781522      9efc0136       suba.w 0x136, a7
          0x00781526      224f           movea.l a7, a1
          0x00781528      45e80a2a       lea.l 0xa2a(a0), a2
          0x0078152c      7034           moveq 0x34, d0
      > 0x0078152e      12da           move.b (a2)+, (a1)+
      < 0x00781530      51c8fffc       dbra d0, 0x78152e
          0x00781534      48680a5f       pea.l 0xa5f(a0)
          0x00781538      4eb9007836f2   jsr PANEL_UTILS.format_next_tit
          0x0078153e      defc003a       adda.w 0x3a, a7
          0x00781542      224b           movea.l a3, a1
          0x00781544      703f           moveq 0x3f, d0
      > 0x00781546      22df           move.l (a7)+, (a1)+
      < 0x00781548      51c8fffc       dbra d0, 0x781546
          0x0078154c      9efc0100       suba.w 0x100, a7
          0x00781550      48680a2a       pea.l 0xa2a(a0)
          0x00781554      4853           pea.l (a3)
          0x00781556      4eb900783954   jsr PANEL_UTILS.format_entry
          0x0078155c      504f           addq.w 0x8, a7
          0x0078155e      224b           movea.l a3, a1
          0x00781560      703f           moveq 0x3f, d0
      > 0x00781562      22df           move.l (a7)+, (a1)+
      < 0x00781564      51c8fffc       dbra d0, 0x781562
          0x00781568      486eff01       pea.l -0xff(a6)
          0x0078156c      42a7           clr.l -(a7)
          0x0078156e      1f530003       move.b (a3), 0x3(a7)
          0x00781572      2f17           move.l (a7), -(a7)
          0x00781574      4eb9004047ea   jsr p_wts_o
          0x0078157a      defc000c       adda.w 0xc, a7
          0x0078157e      4eb900404946   jsr p_wtln_o
          0x00781584      9efc0100       suba.w 0x100, a7
          0x00781588      224f           movea.l a7, a1
          0x0078158a      244b           movea.l a3, a2
          0x0078158c      703f           moveq 0x3f, d0
      > 0x0078158e      22da           move.l (a2)+, (a1)+
      < 0x00781590      51c8fffc       dbra d0, 0x78158e
          0x00781594      1f3c0002       move.b 0x2, -(a7)
          0x00781598      4eba8378       jsr PANEL_STACK.set_on_air(pc)
          0x0078159c      defc0102       adda.w 0x102, a7
       > 0x007815a0      4cdf1f99       movem.l (a7)+, d0/d3-d4/d7/a0-a4
           0x007815a4      4e5e           unlk a6
           0x007815a6      4e75           rts
 216: PANEL_STACK.transit_setup_u ();
           0x007815a8      4e56ffba       link.w a6, 0xffba
           0x007815ac      bfd5           cmpa.l (a5), a7
       < 0x007815ae      6206           bhi.b 0x7815b6
          0x007815b0      44fc0002       move.w 0x2, ccr
          0x007815b4      4e76           trapv
       > 0x007815b6      defc0046       adda.w 0x46, a7
           0x007815ba      48e7f0c0       movem.l d0-d3/a0-a1, -(a7)
           0x007815be      7401           moveq 0x1, d2
           0x007815c0      760c           moveq 0xc, d3
           0x007815c2      302e000a       move.w 0xa(a6), d0
           0x007815c6      0c400010       cmpi.w 0x10, d0
       < 0x007815ca      6612           bne.b 0x7815de
          0x007815cc      4eba908e       jsr PANEL_STACK.display_next_ou(pc)
          0x007815d0      1f02           move.b d2, -(a7)
          0x007815d2      4227           clr.b -(a7)
      > 0x007815d4      4eba863a       jsr PANEL_STACK.show_fade(pc)
         0x007815d8      584f           addq.w 0x4, a7
     < 0x007815da      6000009c       bra.w 0x781678
     > 0x007815de      0c400030       cmpi.w 0x30, d0
     < 0x007815e2      667a           bne.b 0x78165e
        0x007815e4      487900778d6b   pea.l 0x778d6b
        0x007815ea      48780016       pea.l 0x16
        0x007815ee      2f17           move.l (a7), -(a7)
        0x007815f0      4eb9004047ea   jsr p_wts_o
        0x007815f6      dec3           adda.w d3, a7
        0x007815f8      322e0008       move.w 0x8(a6), d1
        0x007815fc      48c1           ext.l d1
        0x007815fe      2f01           move.l d1, -(a7)
        0x00781600      4878000c       pea.l 0xc
        0x00781604      4eb9004070e4   jsr p_wti_o
        0x0078160a      504f           addq.w 0x8, a7
        0x0078160c      4eb900404946   jsr p_wtln_o
        0x00781612      9efc0026       suba.w 0x26, a7
        0x00781616      204f           movea.l a7, a0
        0x00781618      43f900871002   lea.l 0x871002, a1
        0x0078161e      7208           moveq 0x8, d1
    > 0x00781620      20d9           move.l (a1)+, (a0)+
    < 0x00781622      51c9fffc       dbra d1, 0x781620
        0x00781626      10d9           move.b (a1)+, (a0)+
        0x00781628      322e0008       move.w 0x8(a6), d1
        0x0078162c      48c1           ext.l d1
        0x0078162e      8282           or.l d2, d1
        0x00781630      0481ffff8000   subi.l 0xffff8000, d1
        0x00781636      0c810000ffff   cmpi.l 0xffff, d1
    < 0x0078163c      6302           bls.b 0x781640
       0x0078163e      4e4f           trap 0xf
    > 0x00781640      0681ffff8000   addi.l 0xffff8000, d1
        0x00781646      3f01           move.w d1, -(a7)
        0x00781648      4eb9007847c2   jsr PANEL_UTILS.convert_cur_sta
        0x0078164e      defc0028       adda.w 0x28, a7
        0x00781652      4eba9008       jsr PANEL_STACK.display_next_ou(pc)
        0x00781656      1f02           move.b d2, -(a7)
        0x00781658      1f02           move.b d2, -(a7)
     < 0x0078165a      6000ff78       bra.w 0x7815d4
      > 0x0078165e      487900778d82   pea.l 0x778d82
          0x00781664      4878002f       pea.l 0x2f
          0x00781668      2f17           move.l (a7), -(a7)
          0x0078166a      4eb9004047ea   jsr p_wts_o
          0x00781670      dec3           adda.w d3, a7
          0x00781672      4eb900404946   jsr p_wtln_o
     > 0x00781678      4cdf030f       movem.l (a7)+, d0-d3/a0-a1
           0x0078167c      4e5e           unlk a6
           0x0078167e      4e75           rts
            ; CALL XREF from PANEL.enter_panel @ 0x775e88
 430: PANEL_STACK.do_keyboard ();
           0x00781680      4e56ffb2       link.w a6, 0xffb2
           0x00781684      bfd5           cmpa.l (a5), a7
       < 0x00781686      6206           bhi.b 0x78168e
          0x00781688      44fc0002       move.w 0x2, ccr
          0x0078168c      4e76           trapv
       > 0x0078168e      defc004e       adda.w 0x4e, a7
           0x00781692      48e7fff0       movem.l d0-d7/a0-a3, -(a7)
           0x00781696      45ee0008       lea.l 0x8(a6), a2
           0x0078169a      47f90086f6a2   lea.l 0x86f6a2, a3
           0x007816a0      3a3c0800       move.w 0x800, d5
           0x007816a4      7c12           moveq 0x12, d6
           0x007816a6      7e05           moveq 0x5, d7
           0x007816a8      554f           subq.w 0x2, a7
           0x007816aa      4eb90079f52a   jsr PANEL_CURSOR.cursoron
           0x007816b0      4a1f           tst.b (a7)+
       < 0x007816b2      670000a6       beq.w 0x78175a
          0x007816b6      554f           subq.w 0x2, a7
          0x007816b8      4eb90079a83e   jsr PANEL_TRANSIT.transit_menu_ac
          0x007816be      4a1f           tst.b (a7)+
      < 0x007816c0      6716           beq.b 0x7816d8
         0x007816c2      3012           move.w (a2), d0
         0x007816c4      c045           and.w d5, d0
     < 0x007816c6      6600015e       bne.w 0x781826
        0x007816ca      3f12           move.w (a2), -(a7)
        0x007816cc      4eb90079aa0a   jsr PANEL_TRANSIT.transit_key_act
    > 0x007816d2      544f           addq.w 0x2, a7
   < 0x007816d4      60000150       bra.w 0x781826
   > 0x007816d8      3012           move.w (a2), d0
       0x007816da      024007ff       andi.w 0x7ff, d0
       0x007816de      0c400102       cmpi.w 0x102, d0
   < 0x007816e2      6d62           blt.b 0x781746
      0x007816e4      0c400109       cmpi.w 0x109, d0
  < 0x007816e8      6e5c           bgt.b 0x781746
     0x007816ea      3012           move.w (a2), d0
     0x007816ec      c045           and.w d5, d0
 < 0x007816ee      664c           bne.b 0x78173c
    0x007816f0      3012           move.w (a2), d0
    0x007816f2      48c0           ext.l d0
    0x007816f4      048000000100   subi.l 0x100, d0
    0x007816fa      0c8000000009   cmpi.l 0x9, d0
 < 0x00781700      6302           bls.b 0x781704
    0x00781702      4e4f           trap 0xf
 > 0x00781704      2800           move.l d0, d4
    0x00781706      7612           moveq 0x12, d3
    0x00781708      4eb900406a74   jsr fcn.00406a74
    0x0078170e      20790086eb32   movea.l 0x86eb32, a0
    0x00781714      b1e8fffc       cmpa.l -0x4(a0), a0
 < 0x00781718      6702           beq.b 0x78171c
    0x0078171a      4e4d           trap 0xd
 > 0x0078171c      41f04800       lea.l (a0, d4.l), a0
    0x00781720      9ec6           suba.w d6, a7
    0x00781722      224f           movea.l a7, a1
    0x00781724      41e82a3a       lea.l 0x2a3a(a0), a0
    0x00781728      7011           moveq 0x11, d0
 > 0x0078172a      12d8           move.b (a0)+, (a1)+
 < 0x0078172c      51c8fffc       dbra d0, 0x78172a
    0x00781730      4eb90079f68a   jsr PANEL_CURSOR.preset_display
    0x00781736      dec6           adda.w d6, a7
 < 0x00781738      600000ec       bra.w 0x781826
 > 0x0078173c      4eb90079f668   jsr PANEL_CURSOR.restore_cursor
 < 0x00781742      600000e2       bra.w 0x781826
 > 0x00781746      3012           move.w (a2), d0
      0x00781748      c045           and.w d5, d0
  < 0x0078174a      660000da       bne.w 0x781826
     0x0078174e      3f12           move.w (a2), -(a7)
     0x00781750      4eb90079f316   jsr PANEL_CURSOR.do_cursor
  < 0x00781756      6000ff7a       bra.w 0x7816d2
   > 0x0078175a      3012           move.w (a2), d0
       0x0078175c      c045           and.w d5, d0
   < 0x0078175e      660000c6       bne.w 0x781826
      0x00781762      3012           move.w (a2), d0
      0x00781764      0c400203       cmpi.w 0x203, d0
  < 0x00781768      6714           beq.b 0x78177e
     0x0078176a      0c400201       cmpi.w 0x201, d0
 < 0x0078176e      670e           beq.b 0x78177e
    0x00781770      0c400200       cmpi.w 0x200, d0
 < 0x00781774      6708           beq.b 0x78177e
    0x00781776      0c400202       cmpi.w 0x202, d0
 < 0x0078177a      6600008a       bne.w 0x781806
 > 0x0078177e      12390086f67c   move.b 0x86f67c, d1
      0x00781784      0c010003       cmpi.b 0x3, d1
  < 0x00781788      6614           bne.b 0x78179e
     0x0078178a      1413           move.b (a3), d2
     0x0078178c      4882           ext.w d2
     0x0078178e      41f900778db2   lea.l 0x778db2, a0
     0x00781794      3602           move.w d2, d3
     0x00781796      e64b           lsr.w 0x3, d3
     0x00781798      05303000       btst.l d2, (a0, d3.w)
 < 0x0078179c      6606           bne.b 0x7817a4
 > 0x0078179e      b207           cmp.b d7, d1
 < 0x007817a0      66000084       bne.w 0x781826
 > 0x007817a4      b207           cmp.b d7, d1
 < 0x007817a6      660a           bne.b 0x7817b2
    0x007817a8      1f3c0001       move.b 0x1, -(a7)
    0x007817ac      4eba9764       jsr PANEL_STACK.get_frozen(pc)
    0x007817b0      544f           addq.w 0x2, a7
 > 0x007817b2      2f390086f68e   move.l 0x86f68e, -(a7)
     0x007817b8      4282           clr.l d2
     0x007817ba      34390086f67e   move.w 0x86f67e, d2
     0x007817c0      0482ffff8000   subi.l 0xffff8000, d2
     0x007817c6      0c820000ffff   cmpi.l 0xffff, d2
 < 0x007817cc      6302           bls.b 0x7817d0
    0x007817ce      4e4f           trap 0xf
 > 0x007817d0      0682ffff8000   addi.l 0xffff8000, d2
     0x007817d6      3f02           move.w d2, -(a7)
     0x007817d8      2f3900871058   move.l 0x871058, -(a7)
     0x007817de      2f3900871054   move.l 0x871054, -(a7)
     0x007817e4      3f3900871052   move.w 0x871052, -(a7)
     0x007817ea      1413           move.b (a3), d2
     0x007817ec      4882           ext.w d2
     0x007817ee      45bc000f       chk.w 0xf, d2
     0x007817f2      1f02           move.b d2, -(a7)
     0x007817f4      48790086f6b3   pea.l 0x86f6b3
     0x007817fa      4eb90079fa7a   jsr PANEL_CURSOR.crop_setup
     0x00781800      defc0016       adda.w 0x16, a7
 < 0x00781804      6020           bra.b 0x781826
 > 0x00781806      0c400300       cmpi.w 0x300, d0
 < 0x0078180a      661a           bne.b 0x781826
    0x0078180c      487900871002   pea.l 0x871002
    0x00781812      4227           clr.b -(a7)
    0x00781814      486d0010       pea.l 0x10(a5)
    0x00781818      487afd8e       pea.l PANEL_STACK.transit_setup_u(pc)
    0x0078181c      4eb90079a72a   jsr PANEL_TRANSIT.transit_setup
    0x00781822      defc000e       adda.w 0xe, a7
 > 0x00781826      4cdf0fff       movem.l (a7)+, d0-d7/a0-a3
           0x0078182a      4e5e           unlk a6
           0x0078182c      4e75           rts
            ; CALL XREF from PANEL_STACK.stack_init @ 0x781c5e
 988: PANEL_STACK.initialise_glob ();
           0x0078182e      4e56ffbc       link.w a6, 0xffbc
           0x00781832      bfd5           cmpa.l (a5), a7
       < 0x00781834      6206           bhi.b 0x78183c
          0x00781836      44fc0002       move.w 0x2, ccr
          0x0078183a      4e76           trapv
       > 0x0078183c      defc0040       adda.w 0x40, a7
           0x00781840      48e7fdf0       movem.l d0-d5/d7/a0-a3, -(a7)
           0x00781844      47f90086ee42   lea.l 0x86ee42, a3
           0x0078184a      7201           moveq 0x1, d1
           0x0078184c      7402           moveq 0x2, d2
           0x0078184e      7a09           moveq 0x9, d5
           0x00781850      42390086eb1d   clr.b 0x86eb1d
           0x00781856      42390086eb1c   clr.b 0x86eb1c
           0x0078185c      13c10086eb1f   move.b d1, 0x86eb1f
           0x00781862      42390086eb1b   clr.b 0x86eb1b
           0x00781868      42390086f7bb   clr.b 0x86f7bb
           0x0078186e      33c20086eb30   move.w d2, 0x86eb30
           0x00781874      33fc000a0086.  move.w 0xa, 0x86eb2c.l
           0x0078187c      33c10086eb2e   move.w d1, 0x86eb2e
           0x00781882      42790086eb2a   clr.w 0x86eb2a
           0x00781888      42b90086eb24   clr.l 0x86eb24
           0x0078188e      42390086eb28   clr.b 0x86eb28
           0x00781894      23f900778db4.  move.l 0x778db4, 0x86f7be.l
           0x0078189e      423900870fca   clr.b 0x870fca
           0x007818a4      13f900778db8.  move.b 0x778db8, 0x86ed42.l
           0x007818ae      13f900778db9.  move.b 0x778db9, 0x86f342.l
           0x007818b8      16b900778dba   move.b 0x778dba, (a3)
           0x007818be      13f900778dbb.  move.b 0x778dbb, 0x86f242.l
           0x007818c8      13f900778dbc.  move.b 0x778dbc, 0x86f142.l
           0x007818d2      16b900778dbd   move.b 0x778dbd, (a3)
           0x007818d8      23f900778dbe.  move.l 0x778dbe, 0x86f042.l
           0x007818e2      23f900778dc2.  move.l 0x778dc2, 0x86f046.l
           0x007818ec      23f900778dc6.  move.l 0x778dc6, 0x86f04a.l
           0x007818f6      23f900778dca.  move.l 0x778dca, 0x86f04e.l
           0x00781900      42b90086eb36   clr.l 0x86eb36
           0x00781906      42b900871262   clr.l 0x871262
           0x0078190c      7e01           moveq 0x1, d7
       > 0x0078190e      2007           move.l d7, d0
          0x00781910      5380           subq.l 0x1, d0
          0x00781912      b081           cmp.l d1, d0
      < 0x00781914      6302           bls.b 0x781918
         0x00781916      4e4f           trap 0xf
      > 0x00781918      2800           move.l d0, d4
          0x0078191a      263c0000013a   move.l 0x13a, d3
          0x00781920      4eb900406a74   jsr fcn.00406a74
          0x00781926      41f90086eb1a   lea.l 0x86eb1a, a0
          0x0078192c      41f04800       lea.l (a0, d4.l), a0
          0x00781930      43e80a5f       lea.l 0xa5f(a0), a1
          0x00781934      45f9007777b1   lea.l 0x7777b1, a2
          0x0078193a      701f           moveq 0x1f, d0
      > 0x0078193c      12da           move.b (a2)+, (a1)+
      < 0x0078193e      51c8fffc       dbra d0, 0x78193c
          0x00781942      42680b60       clr.w 0xb60(a0)
          0x00781946      42280a28       clr.b 0xa28(a0)
          0x0078194a      117c00040a4e   move.b 0x4, 0xa4e(a0)
          0x00781950      42680a2a       clr.w 0xa2a(a0)
          0x00781954      5287           addq.l 0x1, d7
          0x00781956      be82           cmp.l d2, d7
       < 0x00781958      6fb4           ble.b 0x78190e
           0x0078195a      41f90086eb42   lea.l 0x86eb42, a0
           0x00781960      43f9007777ee   lea.l 0x7777ee, a1
           0x00781966      7005           moveq 0x5, d0
       > 0x00781968      20d9           move.l (a1)+, (a0)+
       < 0x0078196a      51c8fffc       dbra d0, 0x781968
           0x0078196e      13f900778dce.  move.b 0x778dce, 0x86ec42.l
           0x00781978      594f           subq.w 0x4, a7
           0x0078197a      4eb900633a9e   jsr HANDCOM.get_pic_size
           0x00781980      23df00870fc6   move.l (a7)+, 0x870fc6
           0x00781986      303900870fc6   move.w 0x870fc6, d0
           0x0078198c      48c0           ext.l d0
           0x0078198e      81c2           divs.w d2, d0
           0x00781990      33c000870fc2   move.w d0, 0x870fc2
           0x00781996      303900870fc8   move.w 0x870fc8, d0
           0x0078199c      48c0           ext.l d0
           0x0078199e      81c2           divs.w d2, d0
           0x007819a0      33c000870fc4   move.w d0, 0x870fc4
           0x007819a6      42390086eb1e   clr.b 0x86eb1e
           0x007819ac      423900871014   clr.b 0x871014
           0x007819b2      42b900871002   clr.l 0x871002
           0x007819b8      423900871006   clr.b 0x871006
           0x007819be      23f900778dd0.  move.l 0x778dd0, 0x871016.l
           0x007819c8      33c10087101c   move.w d1, 0x87101c
           0x007819ce      33c10087101a   move.w d1, 0x87101a
           0x007819d4      23c100871010   move.l d1, 0x871010
           0x007819da      41f900871007   lea.l 0x871007, a0
           0x007819e0      43f9007777a9   lea.l 0x7777a9, a1
           0x007819e6      7007           moveq 0x7, d0
       > 0x007819e8      10d9           move.b (a1)+, (a0)+
       < 0x007819ea      51c8fffc       dbra d0, 0x7819e8
           0x007819ee      23f90077770c.  move.l 0x77770c, 0x87101e.l
           0x007819f8      33f900777710.  move.w 0x777710, 0x871022.l
           0x00781a02      427900871024   clr.w 0x871024
           0x00781a08      423900871026   clr.b 0x871026
           0x00781a0e      42390087104d   clr.b 0x87104d
           0x00781a14      427900870fcc   clr.w 0x870fcc
           0x00781a1a      13c100870fce   move.b d1, 0x870fce
           0x00781a20      427900870fd0   clr.w 0x870fd0
           0x00781a26      423900870fd2   clr.b 0x870fd2
           0x00781a2c      41f900870fd3   lea.l 0x870fd3, a0
           0x00781a32      43f9007777a9   lea.l 0x7777a9, a1
           0x00781a38      7007           moveq 0x7, d0
       > 0x00781a3a      10d9           move.b (a1)+, (a0)+
       < 0x00781a3c      51c8fffc       dbra d0, 0x781a3a
           0x00781a40      23f900778dd4.  move.l 0x778dd4, 0x870fdc.l
           0x00781a4a      427900870fe0   clr.w 0x870fe0
           0x00781a50      23f90077770c.  move.l 0x77770c, 0x870fe2.l
           0x00781a5a      33f900777710.  move.w 0x777710, 0x870fe6.l
           0x00781a64      42b900870fe8   clr.l 0x870fe8
           0x00781a6a      427900870fec   clr.w 0x870fec
           0x00781a70      427900870fee   clr.w 0x870fee
           0x00781a76      423900870ff0   clr.b 0x870ff0
           0x00781a7c      41f900870ff1   lea.l 0x870ff1, a0
           0x00781a82      43f90077778a   lea.l 0x77778a, a1
           0x00781a88      700f           moveq 0xf, d0
       > 0x00781a8a      10d9           move.b (a1)+, (a0)+
       < 0x00781a8c      51c8fffc       dbra d0, 0x781a8a
           0x00781a90      20790086eb32   movea.l 0x86eb32, a0
           0x00781a96      b1e8fffc       cmpa.l -0x4(a0), a0
       < 0x00781a9a      6702           beq.b 0x781a9e
          0x00781a9c      4e4d           trap 0xd
       > 0x00781a9e      2081           move.l d1, (a0)
           0x00781aa0      42680004       clr.w 0x4(a0)
           0x00781aa4      7e9c           moveq 0x9c, d7
       > 0x00781aa6      2007           move.l d7, d0
          0x00781aa8      0480ffffff9c   subi.l 0xffffff9c, d0
          0x00781aae      0c80000000c7   cmpi.l 0xc7, d0
      < 0x00781ab4      6302           bls.b 0x781ab8
         0x00781ab6      4e4f           trap 0xf
      > 0x00781ab8      2800           move.l d0, d4
          0x00781aba      7636           moveq 0x36, d3
          0x00781abc      4eb900406a74   jsr fcn.00406a74
          0x00781ac2      43f0480a       lea.l 0xa(a0, d4.l), a1
          0x00781ac6      45f900870fcc   lea.l 0x870fcc, a2
          0x00781acc      7034           moveq 0x34, d0
      > 0x00781ace      12da           move.b (a2)+, (a1)+
      < 0x00781ad0      51c8fffc       dbra d0, 0x781ace
          0x00781ad4      4870480a       pea.l 0xa(a0, d4.l)
          0x00781ad8      4eba8756       jsr PANEL_STACK.make_editonly(pc)
          0x00781adc      584f           addq.w 0x4, a7
          0x00781ade      5287           addq.l 0x1, d7
          0x00781ae0      0c8700000063   cmpi.l 0x63, d7
       < 0x00781ae6      6fbe           ble.b 0x781aa6
           0x00781ae8      21410006       move.l d1, 0x6(a0)
           0x00781aec      7e01           moveq 0x1, d7
       > 0x00781aee      be85           cmp.l d5, d7
      < 0x00781af0      6302           bls.b 0x781af4
         0x00781af2      4e4f           trap 0xf
      > 0x00781af4      2807           move.l d7, d4
          0x00781af6      7612           moveq 0x12, d3
          0x00781af8      4eb900406a74   jsr fcn.00406a74
          0x00781afe      43f04800       lea.l (a0, d4.l), a1
          0x00781b02      33412a3a       move.w d1, 0x2a3a(a1)
          0x00781b06      137900870fc2.  move.b 0x870fc2, 0x2a3c(a1)
          0x00781b0e      137900870fc3.  move.b 0x870fc3, 0x2a3d(a1)
          0x00781b16      137900870fc4.  move.b 0x870fc4, 0x2a3e(a1)
          0x00781b1e      137900870fc5.  move.b 0x870fc5, 0x2a3f(a1)
          0x00781b26      137900778dd8.  move.b 0x778dd8, 0x2a40(a1)
          0x00781b2e      137900778dd9.  move.b 0x778dd9, 0x2a41(a1)
          0x00781b36      137900778dda.  move.b 0x778dda, 0x2a42(a1)
          0x00781b3e      137900778ddb.  move.b 0x778ddb, 0x2a43(a1)
          0x00781b46      137900778ddc.  move.b 0x778ddc, 0x2a44(a1)
          0x00781b4e      137900778ddd.  move.b 0x778ddd, 0x2a45(a1)
          0x00781b56      137900778dde.  move.b 0x778dde, 0x2a46(a1)
          0x00781b5e      137900778ddf.  move.b 0x778ddf, 0x2a47(a1)
          0x00781b66      137900778de0.  move.b 0x778de0, 0x2a48(a1)
          0x00781b6e      137900778de1.  move.b 0x778de1, 0x2a49(a1)
          0x00781b76      137900778de2.  move.b 0x778de2, 0x2a4a(a1)
          0x00781b7e      137900778de3.  move.b 0x778de3, 0x2a4b(a1)
          0x00781b86      5287           addq.l 0x1, d7
          0x00781b88      be85           cmp.l d5, d7
       < 0x00781b8a      6f00ff62       ble.w 0x781aee
           0x00781b8e      7e01           moveq 0x1, d7
       > 0x00781b90      2007           move.l d7, d0
          0x00781b92      5380           subq.l 0x1, d0
          0x00781b94      0c8000000233   cmpi.l 0x233, d0
      < 0x00781b9a      6302           bls.b 0x781b9e
         0x00781b9c      4e4f           trap 0xf
      > 0x00781b9e      43f00800       lea.l (a0, d0.l), a1
          0x00781ba2      42292aee       clr.b 0x2aee(a1)
          0x00781ba6      5287           addq.l 0x1, d7
          0x00781ba8      0c8700000234   cmpi.l 0x234, d7
       < 0x00781bae      6fe0           ble.b 0x781b90
           0x00781bb0      423900871001   clr.b 0x871001
           0x00781bb6      23fc7fffffff.  move.l 0x7fffffff, 0x87104e.l
           0x00781bc0      42b90087125e   clr.l 0x87125e
           0x00781bc6      4879008713ac   pea.l 0x8713ac
           0x00781bcc      4267           clr.w -(a7)
           0x00781bce      4267           clr.w -(a7)
           0x00781bd0      4eb900402b88   jsr p_New_Semaphore
           0x00781bd6      504f           addq.w 0x8, a7
           0x00781bd8      4879008713ba   pea.l 0x8713ba
           0x00781bde      4267           clr.w -(a7)
           0x00781be0      3f01           move.w d1, -(a7)
           0x00781be2      4eb900402b88   jsr p_New_Semaphore
           0x00781be8      504f           addq.w 0x8, a7
           0x00781bea      4239008713cf   clr.b 0x8713cf
           0x00781bf0      23c1008713d0   move.l d1, 0x8713d0
           0x00781bf6      4239008713ce   clr.b 0x8713ce
           0x00781bfc      4239008713cd   clr.b 0x8713cd
           0x00781c02      4cdf0fbf       movem.l (a7)+, d0-d5/d7/a0-a3
           0x00781c06      4e5e           unlk a6
           0x00781c08      4e75           rts
            ; CALL XREF from PANEL.init_panel @ 0x7765ae
 102: PANEL_STACK.stack_init ();
           0x00781c0a      4e56ffe4       link.w a6, 0xffe4
           0x00781c0e      bfd5           cmpa.l (a5), a7
       < 0x00781c10      6206           bhi.b 0x781c18
          0x00781c12      44fc0002       move.w 0x2, ccr
          0x00781c16      4e76           trapv
       > 0x00781c18      defc0018       adda.w 0x18, a7
           0x00781c1c      48e700c0       movem.l a0-a1, -(a7)
           0x00781c20      43f90086eb32   lea.l 0x86eb32, a1
           0x00781c26      42390086eb1a   clr.b 0x86eb1a
           0x00781c2c      4851           pea.l (a1)
           0x00781c2e      48782d22       pea.l 0x2d22
           0x00781c32      4eb900403a92   jsr p_New
           0x00781c38      504f           addq.w 0x8, a7
           0x00781c3a      2051           movea.l (a1), a0
           0x00781c3c      b0fc0001       cmpa.w 0x1, a0
       < 0x00781c40      661c           bne.b 0x781c5e
          0x00781c42      487900778de5   pea.l 0x778de5
          0x00781c48      48780028       pea.l 0x28
          0x00781c4c      2f17           move.l (a7), -(a7)
          0x00781c4e      4eb9004047ea   jsr p_wts_o
          0x00781c54      defc000c       adda.w 0xc, a7
          0x00781c58      4eb900404946   jsr p_wtln_o
       > 0x00781c5e      4ebafbce       jsr PANEL_STACK.initialise_glob(pc)
           0x00781c62      4eb9007a020c   jsr PANEL_CURSOR.panel_csr_init
           0x00781c68      4cdf0300       movem.l (a7)+, a0-a1
           0x00781c6c      4e5e           unlk a6
           0x00781c6e      4e75           rts
            ; CALL XREF from PANEL.rem_set_fade @ 0x776a50
            ; CALL XREF from PANEL.rem_set_move @ 0x776ab2
            ; CALL XREF from PANEL.rem_set_output @ 0x776b26
            ; CALL XREF from PANEL.rem_set_dontcar @ 0x776bb0
            ; CALL XREF from PANEL.rem_set_preset @ 0x776bf4
 60: PANEL_STACK.rm_temp_crnt ();
           0x00781c70      4e56fff0       link.w a6, 0xfff0
           0x00781c74      bfd5           cmpa.l (a5), a7
       < 0x00781c76      6206           bhi.b 0x781c7e
          0x00781c78      44fc0002       move.w 0x2, ccr
          0x00781c7c      4e76           trapv
       > 0x00781c7e      defc0010       adda.w 0x10, a7
           0x00781c82      48e780c0       movem.l d0/a0-a1, -(a7)
           0x00781c86      41f900871028   lea.l 0x871028, a0
           0x00781c8c      43f900871002   lea.l 0x871002, a1
           0x00781c92      7008           moveq 0x8, d0
       > 0x00781c94      20d9           move.l (a1)+, (a0)+
       < 0x00781c96      51c8fffc       dbra d0, 0x781c94
           0x00781c9a      10d9           move.b (a1)+, (a0)+
           0x00781c9c      13fc00010087.  move.b 0x1, 0x87104d.l
           0x00781ca4      4cdf0301       movem.l (a7)+, d0/a0-a1
           0x00781ca8      4e5e           unlk a6
           0x00781caa      4e75           rts
            ; CALL XREFS from PANEL.rem_rec_stack @ 0x776da8, 0x776dba
            ; CALL XREFS from PANEL.rem_record @ 0x777174, 0x777186
 50: PANEL_STACK.rm_set_spectitl ();
           0x00781cac      4e56fff0       link.w a6, 0xfff0
           0x00781cb0      bfd5           cmpa.l (a5), a7
       < 0x00781cb2      6206           bhi.b 0x781cba
          0x00781cb4      44fc0002       move.w 0x2, ccr
          0x00781cb8      4e76           trapv
       > 0x00781cba      defc0010       adda.w 0x10, a7
           0x00781cbe      48e780c0       movem.l d0/a0-a1, -(a7)
           0x00781cc2      206e0008       movea.l 0x8(a6), a0
           0x00781cc6      43f90086ec42   lea.l 0x86ec42, a1
           0x00781ccc      303c00ff       move.w 0xff, d0
       > 0x00781cd0      12d8           move.b (a0)+, (a1)+
       < 0x00781cd2      51c8fffc       dbra d0, 0x781cd0
           0x00781cd6      4cdf0301       movem.l (a7)+, d0/a0-a1
           0x00781cda      4e5e           unlk a6
           0x00781cdc      4e75           rts
            ; XREFS(23)
 56: PANEL_STACK.rm_errorlevel ();
           0x00781cde      4e56fff4       link.w a6, 0xfff4
           0x00781ce2      bfd5           cmpa.l (a5), a7
       < 0x00781ce4      6206           bhi.b 0x781cec
          0x00781ce6      44fc0002       move.w 0x2, ccr
          0x00781cea      4e76           trapv
       > 0x00781cec      defc000c       adda.w 0xc, a7
           0x00781cf0      48e700c0       movem.l a0-a1, -(a7)
           0x00781cf4      43f90087105c   lea.l 0x87105c, a1
           0x00781cfa      4a2e0008       tst.b 0x8(a6)
       < 0x00781cfe      6608           bne.b 0x781d08
          0x00781d00      206e000a       movea.l 0xa(a6), a0
          0x00781d04      3091           move.w (a1), (a0)
      < 0x00781d06      6006           bra.b 0x781d0e
      > 0x00781d08      206e000a       movea.l 0xa(a6), a0
          0x00781d0c      3290           move.w (a0), (a1)
      > 0x00781d0e      4cdf0300       movem.l (a7)+, a0-a1
           0x00781d12      4e5e           unlk a6
           0x00781d14      4e75           rts
            ; XREFS: CALL 0x00776c5c  CALL 0x00776cd4  CALL 0x00776efc  
            ; XREFS: CALL 0x00776fae  CALL 0x00777058  CALL 0x00777102  
            ; XREFS: CALL 0x0079f17c  CALL 0x0079f296  
 76: PANEL_STACK.rm_errormsg ();
           0x00781d16      4e56ffec       link.w a6, 0xffec
           0x00781d1a      bfd5           cmpa.l (a5), a7
       < 0x00781d1c      6206           bhi.b 0x781d24
          0x00781d1e      44fc0002       move.w 0x2, ccr
          0x00781d22      4e76           trapv
       > 0x00781d24      defc0014       adda.w 0x14, a7
           0x00781d28      48e780e0       movem.l d0/a0-a2, -(a7)
           0x00781d2c      45f90087105e   lea.l 0x87105e, a2
           0x00781d32      4a2e0008       tst.b 0x8(a6)
       < 0x00781d36      6612           bne.b 0x781d4a
          0x00781d38      206e000a       movea.l 0xa(a6), a0
          0x00781d3c      224a           movea.l a2, a1
          0x00781d3e      303c00ff       move.w 0xff, d0
      > 0x00781d42      10d9           move.b (a1)+, (a0)+
      < 0x00781d44      51c8fffc       dbra d0, 0x781d42
      < 0x00781d48      6010           bra.b 0x781d5a
      > 0x00781d4a      206e000a       movea.l 0xa(a6), a0
          0x00781d4e      224a           movea.l a2, a1
          0x00781d50      303c00ff       move.w 0xff, d0
      > 0x00781d54      12d8           move.b (a0)+, (a1)+
      < 0x00781d56      51c8fffc       dbra d0, 0x781d54
      > 0x00781d5a      4cdf0701       movem.l (a7)+, d0/a0-a2
           0x00781d5e      4e5e           unlk a6
           0x00781d60      4e75           rts
            ; CALL XREF from PANEL.rem_take @ 0x776ca6
 30: PANEL_STACK.rm_lastentry ();
           0x00781d62      4e56fffc       link.w a6, 0xfffc
           0x00781d66      bfd5           cmpa.l (a5), a7
       < 0x00781d68      6206           bhi.b 0x781d70
          0x00781d6a      44fc0002       move.w 0x2, ccr
          0x00781d6e      4e76           trapv
       > 0x00781d70      defc0004       adda.w 0x4, a7
           0x00781d74      2d790086eb3e.  move.l 0x86eb3e, 0x8(a6)
           0x00781d7c      4e5e           unlk a6
           0x00781d7e      4e75           rts
            ; CALL XREF from PANEL_CURSOR.hit_view @ 0x79f2bc
 94: PANEL_STACK.rm_last_picnum ();
           0x00781d80      4e56ffec       link.w a6, 0xffec
           0x00781d84      bfd5           cmpa.l (a5), a7
       < 0x00781d86      6206           bhi.b 0x781d8e
          0x00781d88      44fc0002       move.w 0x2, ccr
          0x00781d8c      4e76           trapv
       > 0x00781d8e      defc0014       adda.w 0x14, a7
           0x00781d92      48e7e080       movem.l d0-d2/a0, -(a7)
           0x00781d96      41f90086eb2c   lea.l 0x86eb2c, a0
           0x00781d9c      223c0000ffff   move.l 0xffff, d1
           0x00781da2      243cffff8000   move.l 0xffff8000, d2
           0x00781da8      103900871016   move.b 0x871016, d0
           0x00781dae      0c000001       cmpi.b 0x1, d0
       < 0x00781db2      6610           bne.b 0x781dc4
          0x00781db4      3010           move.w (a0), d0
          0x00781db6      c081           and.l d1, d0
          0x00781db8      4480           neg.l d0
          0x00781dba      9082           sub.l d2, d0
          0x00781dbc      b081           cmp.l d1, d0
      < 0x00781dbe      6302           bls.b 0x781dc2
         0x00781dc0      4e4f           trap 0xf
     > 0x00781dc2      600c           bra.b 0x781dd0
      > 0x00781dc4      3010           move.w (a0), d0
          0x00781dc6      c081           and.l d1, d0
          0x00781dc8      9082           sub.l d2, d0
          0x00781dca      b081           cmp.l d1, d0
      < 0x00781dcc      6302           bls.b 0x781dd0
         0x00781dce      4e4f           trap 0xf
     > 0x00781dd0      d082           add.l d2, d0
           0x00781dd2      3d400008       move.w d0, 0x8(a6)
           0x00781dd6      4cdf0107       movem.l (a7)+, d0-d2/a0
           0x00781dda      4e5e           unlk a6
           0x00781ddc      4e75           rts
            ; CALL XREF from PANEL.rem_set_stack @ 0x776f0e
            ; CALL XREF from PANEL.rem_set_entry @ 0x777066
 98: PANEL_STACK.rm_set_stack ();
           0x00781dde      4e56ffda       link.w a6, 0xffda
           0x00781de2      bfd5           cmpa.l (a5), a7
       < 0x00781de4      6206           bhi.b 0x781dec
          0x00781de6      44fc0002       move.w 0x2, ccr
          0x00781dea      4e76           trapv
       > 0x00781dec      defc0022       adda.w 0x22, a7
           0x00781df0      48e79980       movem.l d0/d3-d4/d7/a0, -(a7)
           0x00781df4      2e2e000c       move.l 0xc(a6), d7
       > 0x00781df8      beae0008       cmp.l 0x8(a6), d7
      < 0x00781dfc      6e3a           bgt.b 0x781e38
         0x00781dfe      2007           move.l d7, d0
         0x00781e00      0480ffffff9c   subi.l 0xffffff9c, d0
         0x00781e06      0c80000000c7   cmpi.l 0xc7, d0
     < 0x00781e0c      6302           bls.b 0x781e10
        0x00781e0e      4e4f           trap 0xf
     > 0x00781e10      2800           move.l d0, d4
         0x00781e12      7636           moveq 0x36, d3
         0x00781e14      4eb900406a74   jsr fcn.00406a74
         0x00781e1a      20790086eb32   movea.l 0x86eb32, a0
         0x00781e20      b1e8fffc       cmpa.l -0x4(a0), a0
     < 0x00781e24      6702           beq.b 0x781e28
        0x00781e26      4e4d           trap 0xd
     > 0x00781e28      4870480a       pea.l 0xa(a0, d4.l)
         0x00781e2c      4227           clr.b -(a7)
         0x00781e2e      4eba821c       jsr PANEL_STACK.make_current(pc)
         0x00781e32      5c4f           addq.w 0x6, a7
         0x00781e34      5287           addq.l 0x1, d7
      < 0x00781e36      68c0           bvc.b 0x781df8
      > 0x00781e38      4cdf0199       movem.l (a7)+, d0/d3-d4/d7/a0
           0x00781e3c      4e5e           unlk a6
           0x00781e3e      4e75           rts
            ; CALL XREF from PANEL.rem_preset @ 0x7773d4
 580: PANEL_STACK.rm_preset (int32_t arg_8h, int32_t arg_ah, int32_t arg_ch, int32_t arg_eh);
           ; arg int32_t arg_8h @ a6+0x8
           ; arg int32_t arg_ah @ a6+0xa
           ; arg int32_t arg_ch @ a6+0xc
           ; arg int32_t arg_eh @ a6+0xe
           0x00781e40      4e56ff96       link.w a6, 0xff96
           0x00781e44      bfd5           cmpa.l (a5), a7
       < 0x00781e46      6206           bhi.b 0x781e4e
          0x00781e48      44fc0002       move.w 0x2, ccr
          0x00781e4c      4e76           trapv
       > 0x00781e4e      defc0048       adda.w 0x48, a7
           0x00781e52      48e7fff8       movem.l d0-d7/a0-a4, -(a7)
           0x00781e56      45f80004       lea.l 0x4, a2
           0x00781e5a      47f9004070e4   lea.l p_wti_o, a3
           0x00781e60      49eeffe4       lea.l -0x1c(a6), a4
           0x00781e64      760c           moveq 0xc, d3
           0x00781e66      7802           moveq 0x2, d4
           0x00781e68      7a09           moveq 0x9, d5
           0x00781e6a      7c01           moveq 0x1, d6
           0x00781e6c      7e00           moveq 0x0, d7
           0x00781e6e      426effe0       clr.w -0x20(a6)
           0x00781e72      426effe2       clr.w -0x1e(a6)
           0x00781e76      4eb9007a045c   jsr PANEL_CURSOR.csr_screen_limi
           0x00781e7c      302e0018       move.w 0x18(a6), d0
           0x00781e80      b044           cmp.w d4, d0
       < 0x00781e82      6d0001f8       blt.w 0x78207c
          0x00781e86      b045           cmp.w d5, d0
      < 0x00781e88      6e0001f2       bgt.w 0x78207c
         0x00781e8c      4a2e0016       tst.b 0x16(a6)
     < 0x00781e90      6704           beq.b 0x781e96
        0x00781e92      3884           move.w d4, (a4)
    < 0x00781e94      6002           bra.b 0x781e98
    > 0x00781e96      3886           move.w d6, (a4)
    > 0x00781e98      3d6e000efff4   move.w 0xe(a6), -0xc(a6)
         0x00781e9e      3d6e000cfff6   move.w 0xc(a6), -0xa(a6)
         0x00781ea4      1d7c0006ffe6   move.b 0x6, -0x1a(a6)
         0x00781eaa      4854           pea.l (a4)
         0x00781eac      2f2effe0       move.l -0x20(a6), -(a7)
         0x00781eb0      4eb90079d32a   jsr PANEL_CURSOR.upd_cur_pos
         0x00781eb6      504f           addq.w 0x8, a7
         0x00781eb8      322efff4       move.w -0xc(a6), d1
         0x00781ebc      b26e000e       cmp.w 0xe(a6), d1
     < 0x00781ec0      660a           bne.b 0x781ecc
        0x00781ec2      322efff6       move.w -0xa(a6), d1
        0x00781ec6      b26e000c       cmp.w 0xc(a6), d1
    < 0x00781eca      6702           beq.b 0x781ece
    > 0x00781ecc      7e01           moveq 0x1, d7
    > 0x00781ece      4a2e0016       tst.b 0x16(a6)
     < 0x00781ed2      67000110       beq.w 0x781fe4
        0x00781ed6      3d6e000afff8   move.w 0xa(a6), -0x8(a6)
        0x00781edc      3d6e0008fffa   move.w 0x8(a6), -0x6(a6)
        0x00781ee2      1d7c0007ffe6   move.b 0x7, -0x1a(a6)
        0x00781ee8      4854           pea.l (a4)
        0x00781eea      2f2effe0       move.l -0x20(a6), -(a7)
        0x00781eee      4eb90079d32a   jsr PANEL_CURSOR.upd_cur_pos
        0x00781ef4      504f           addq.w 0x8, a7
        0x00781ef6      322efff8       move.w -0x8(a6), d1
        0x00781efa      b26e000a       cmp.w 0xa(a6), d1
    < 0x00781efe      660a           bne.b 0x781f0a
       0x00781f00      342efffa       move.w -0x6(a6), d2
       0x00781f04      b46e0008       cmp.w 0x8(a6), d2
   < 0x00781f08      6702           beq.b 0x781f0c
   > 0x00781f0a      7e01           moveq 0x1, d7
   > 0x00781f0c      4a2e0014       tst.b 0x14(a6)
    < 0x00781f10      670000d2       beq.w 0x781fe4
       0x00781f14      487900778e19   pea.l 0x778e19
       0x00781f1a      4878000e       pea.l 0xe
       0x00781f1e      2f17           move.l (a7), -(a7)
       0x00781f20      4eb9004047ea   jsr p_wts_o
       0x00781f26      dec3           adda.w d3, a7
       0x00781f28      4eb900404946   jsr p_wtln_o
       0x00781f2e      487900778e28   pea.l 0x778e28
       0x00781f34      48780005       pea.l 0x5
       0x00781f38      2f17           move.l (a7), -(a7)
       0x00781f3a      4eb9004047ea   jsr p_wts_o
       0x00781f40      dec3           adda.w d3, a7
       0x00781f42      342efff4       move.w -0xc(a6), d2
       0x00781f46      48c2           ext.l d2
       0x00781f48      2f02           move.l d2, -(a7)
       0x00781f4a      4852           pea.l (a2)
       0x00781f4c      4e93           jsr (a3)                    ; fcn.0000000c
       0x00781f4e      504f           addq.w 0x8, a7
       0x00781f50      342efff6       move.w -0xa(a6), d2
       0x00781f54      48c2           ext.l d2
       0x00781f56      2f02           move.l d2, -(a7)
       0x00781f58      4852           pea.l (a2)
       0x00781f5a      4e93           jsr (a3)                    ; fcn.0000000c
       0x00781f5c      504f           addq.w 0x8, a7
       0x00781f5e      48c1           ext.l d1
       0x00781f60      2f01           move.l d1, -(a7)
       0x00781f62      4852           pea.l (a2)
       0x00781f64      4e93           jsr (a3)                    ; fcn.0000000c
       0x00781f66      504f           addq.w 0x8, a7
       0x00781f68      342efffa       move.w -0x6(a6), d2
       0x00781f6c      48c2           ext.l d2
       0x00781f6e      2f02           move.l d2, -(a7)
       0x00781f70      4852           pea.l (a2)
       0x00781f72      4e93           jsr (a3)                    ; fcn.0000000c
       0x00781f74      504f           addq.w 0x8, a7
       0x00781f76      4eb900404946   jsr p_wtln_o
       0x00781f7c      594f           subq.w 0x4, a7
       0x00781f7e      4eb900633c10   jsr HANDCOM.get_601_pixels
       0x00781f84      2d5fffec       move.l (a7)+, -0x14(a6)
       0x00781f88      4854           pea.l (a4)
       0x00781f8a      4eb90079c8ec   jsr PANEL_CURSOR.force_cur_aspec
       0x00781f90      584f           addq.w 0x4, a7
       0x00781f92      487900778e2e   pea.l 0x778e2e
       0x00781f98      48780003       pea.l 0x3
       0x00781f9c      2f17           move.l (a7), -(a7)
       0x00781f9e      4eb9004047ea   jsr p_wts_o
       0x00781fa4      dec3           adda.w d3, a7
       0x00781fa6      342efff4       move.w -0xc(a6), d2
       0x00781faa      48c2           ext.l d2
       0x00781fac      2f02           move.l d2, -(a7)
       0x00781fae      4852           pea.l (a2)
       0x00781fb0      4e93           jsr (a3)                    ; fcn.0000000c
       0x00781fb2      504f           addq.w 0x8, a7
       0x00781fb4      342efff6       move.w -0xa(a6), d2
       0x00781fb8      48c2           ext.l d2
       0x00781fba      2f02           move.l d2, -(a7)
       0x00781fbc      4852           pea.l (a2)
       0x00781fbe      4e93           jsr (a3)                    ; fcn.0000000c
       0x00781fc0      504f           addq.w 0x8, a7
       0x00781fc2      342efff8       move.w -0x8(a6), d2
       0x00781fc6      48c2           ext.l d2
       0x00781fc8      2f02           move.l d2, -(a7)
       0x00781fca      4852           pea.l (a2)
       0x00781fcc      4e93           jsr (a3)                    ; fcn.0000000c
       0x00781fce      504f           addq.w 0x8, a7
       0x00781fd0      342efffa       move.w -0x6(a6), d2
       0x00781fd4      48c2           ext.l d2
       0x00781fd6      2f02           move.l d2, -(a7)
       0x00781fd8      4852           pea.l (a2)
       0x00781fda      4e93           jsr (a3)                    ; fcn.0000000c
       0x00781fdc      504f           addq.w 0x8, a7
       0x00781fde      4eb900404946   jsr p_wtln_o
    > 0x00781fe4      4185           chk.w d5, d0
         0x00781fe6      7212           moveq 0x12, d1
         0x00781fe8      c3c0           muls.w d0, d1
         0x00781fea      20790086eb32   movea.l 0x86eb32, a0
         0x00781ff0      b1e8fffc       cmpa.l -0x4(a0), a0
     < 0x00781ff4      6702           beq.b 0x781ff8
        0x00781ff6      4e4d           trap 0xd
     > 0x00781ff8      41f01800       lea.l (a0, d1.l), a0
         0x00781ffc      31542a3a       move.w (a4), 0x2a3a(a0)
         0x00782000      4a2e0016       tst.b 0x16(a6)
     < 0x00782004      6740           beq.b 0x782046
        0x00782006      116efff42a3c   move.b -0xc(a6), 0x2a3c(a0)
        0x0078200c      116efff52a3d   move.b -0xb(a6), 0x2a3d(a0)
        0x00782012      116efff62a3e   move.b -0xa(a6), 0x2a3e(a0)
        0x00782018      116efff72a3f   move.b -0x9(a6), 0x2a3f(a0)
        0x0078201e      116efff82a40   move.b -0x8(a6), 0x2a40(a0)
        0x00782024      116efff92a41   move.b -0x7(a6), 0x2a41(a0)
        0x0078202a      116efffa2a42   move.b -0x6(a6), 0x2a42(a0)
        0x00782030      116efffb2a43   move.b -0x5(a6), 0x2a43(a0)
        0x00782036      122e0012       move.b 0x12(a6), d1
        0x0078203a      4401           neg.b d1
        0x0078203c      5201           addq.b 0x1, d1
        0x0078203e      4881           ext.w d1
        0x00782040      31412a44       move.w d1, 0x2a44(a0)
    < 0x00782044      6018           bra.b 0x78205e
    > 0x00782046      116efff42a3c   move.b -0xc(a6), 0x2a3c(a0)
        0x0078204c      116efff52a3d   move.b -0xb(a6), 0x2a3d(a0)
        0x00782052      116efff62a3e   move.b -0xa(a6), 0x2a3e(a0)
        0x00782058      116efff72a3f   move.b -0x9(a6), 0x2a3f(a0)
    > 0x0078205e      4a07           tst.b d7
     < 0x00782060      671a           beq.b 0x78207c
        0x00782062      33c60087105c   move.w d6, 0x87105c
        0x00782068      41f90087105e   lea.l 0x87105e, a0
        0x0078206e      43f900778e47   lea.l 0x778e47, a1
        0x00782074      7217           moveq 0x17, d1
    > 0x00782076      10d9           move.b (a1)+, (a0)+
    < 0x00782078      51c9fffc       dbra d1, 0x782076
     > 0x0078207c      4cdf1fff       movem.l (a7)+, d0-d7/a0-a4
           0x00782080      4e5e           unlk a6
           0x00782082      4e75           rts
            ; CALL XREF from PANEL.rem_out_log @ 0x77741e
 124: PANEL_STACK.rm_out_log ();
           0x00782084      4e56fd7e       link.w a6, 0xfd7e
           0x00782088      bfd5           cmpa.l (a5), a7
       < 0x0078208a      6206           bhi.b 0x782092
          0x0078208c      44fc0002       move.w 0x2, ccr
          0x00782090      4e76           trapv
       > 0x00782092      defc017c       adda.w 0x17c, a7
           0x00782096      48e7fff8       movem.l d0-d7/a0-a4, -(a7)
           0x0078209a      49ee0008       lea.l 0x8(a6), a4
           0x0078209e      3a3c00ff       move.w 0xff, d5
           0x007820a2      7c01           moveq 0x1, d6
           0x007820a4      302e000c       move.w 0xc(a6), d0
           0x007820a8      48c0           ext.l d0
           0x007820aa      5380           subq.l 0x1, d0
           0x007820ac      b086           cmp.l d6, d0
       < 0x007820ae      6302           bls.b 0x7820b2
          0x007820b0      4e4f           trap 0xf
       > 0x007820b2      2800           move.l d0, d4
           0x007820b4      263c0000013a   move.l 0x13a, d3
           0x007820ba      4eb900406a74   jsr fcn.00406a74
           0x007820c0      41f90086eb1a   lea.l 0x86eb1a, a0
           0x007820c6      41f04800       lea.l (a0, d4.l), a0
           0x007820ca      30280b60       move.w 0xb60(a0), d0
           0x007820ce      48c0           ext.l d0
           0x007820d0      2f00           move.l d0, -(a7)
           0x007820d2      48780001       pea.l 0x1
           0x007820d6      486efefa       pea.l -0x106(a6)
           0x007820da      3f05           move.w d5, -(a7)
           0x007820dc      4eb900406e56   jsr p_strI1
           0x007820e2      defc000e       adda.w 0xe, a7
           0x007820e6      10280a28       move.b 0xa28(a0), d0
           0x007820ea      4880           ext.w d0
           0x007820ec      3200           move.w d0, d1
           0x007820ee      0c410005       cmpi.w 0x5, d1
       < 0x007820f2      6302           bls.b 0x7820f6
          0x007820f4      4e4e           trap 0xe
       > 0x007820f6      d241           add.w d1, d1
           0x007820f8      323b1006       move.w 0x782100(pc, d1.w), d1
           0x007820fc      4efb1002       jmp 0x782100(pc, d1.w)
            0x00782100      000c0028       
            0x00782101      0c002800       cmpi.b 0x0, d0
            0x00782105      7200           moveq 0x0, d1
            0x00782107      ba00           cmp.b d0, d5
            0x00782109      d400           add.b d0, d2
            0x0078210b      ee22           asr.b d7, d2
            0x0078210d      5412           addq.b 0x2, (a2)
            0x0078210f      b900           eor.b d4, d0
            0x00782111      778e5f13       
            0x00782112      8e5f           or.w (a7)+, d7
            0x00782114      137900778e60.  move.b 0x778e60, 0x1(a1)
            0x0078211c      137900778e61.  move.b 0x778e61, 0x2(a1)
        < 0x00782124      600000e0       bra.w 0x782206
           0x00782128      2254           movea.l (a4), a1
           0x0078212a      7200           moveq 0x0, d1
           0x0078212c      45e90001       lea.l 0x1(a1), a2
           0x00782130      47f900778e63   lea.l 0x778e63, a3
       > 0x00782136      14db           move.b (a3)+, (a2)+
       < 0x00782138      51c9fffc       dbra d1, 0x782136
           0x0078213c      4241           clr.w d1
           0x0078213e      122efefa       move.b -0x106(a6), d1
           0x00782142      5201           addq.b 0x1, d1
       < 0x00782144      6406           bcc.b 0x78214c
          0x00782146      4eb900406c8a   jsr p_strovr
       > 0x0078214c      4241           clr.w d1
           0x0078214e      122efefa       move.b -0x106(a6), d1
           0x00782152      3405           move.w d5, d2
           0x00782154      5342           subq.w 0x1, d2
           0x00782156      b242           cmp.w d2, d1
       < 0x00782158      6302           bls.b 0x78215c
          0x0078215a      3202           move.w d2, d1
       > 0x0078215c      1286           move.b d6, (a1)
           0x0078215e      d311           add.b d1, (a1)
           0x00782160      5301           subq.b 0x1, d1
       < 0x00782162      650a           bcs.b 0x78216e
          0x00782164      47eefefb       lea.l -0x105(a6), a3
      > 0x00782168      14db           move.b (a3)+, (a2)+
      < 0x0078216a      51c9fffc       dbra d1, 0x782168
      > 0x0078216e      60000096       bra.w 0x782206
          0x00782172      2254           movea.l (a4), a1
          0x00782174      7200           moveq 0x0, d1
          0x00782176      45e90001       lea.l 0x1(a1), a2
          0x0078217a      47f900778e65   lea.l 0x778e65, a3
      > 0x00782180      14db           move.b (a3)+, (a2)+
      < 0x00782182      51c9fffc       dbra d1, 0x782180
          0x00782186      4241           clr.w d1
          0x00782188      122efefa       move.b -0x106(a6), d1
          0x0078218c      5201           addq.b 0x1, d1
      < 0x0078218e      6406           bcc.b 0x782196
         0x00782190      4eb900406c8a   jsr p_strovr
      > 0x00782196      4241           clr.w d1
          0x00782198      122efefa       move.b -0x106(a6), d1
          0x0078219c      3405           move.w d5, d2
          0x0078219e      5342           subq.w 0x1, d2
          0x007821a0      b242           cmp.w d2, d1
      < 0x007821a2      6302           bls.b 0x7821a6
         0x007821a4      3202           move.w d2, d1
      > 0x007821a6      1286           move.b d6, (a1)
          0x007821a8      d311           add.b d1, (a1)
          0x007821aa      5301           subq.b 0x1, d1
      < 0x007821ac      650a           bcs.b 0x7821b8
         0x007821ae      47eefefb       lea.l -0x105(a6), a3
     > 0x007821b2      14db           move.b (a3)+, (a2)+
     < 0x007821b4      51c9fffc       dbra d1, 0x7821b2
     > 0x007821b8      604c           bra.b 0x782206
         0x007821ba      2254           movea.l (a4), a1
         0x007821bc      12b900778e66   move.b 0x778e66, (a1)
         0x007821c2      137900778e67.  move.b 0x778e67, 0x1(a1)
         0x007821ca      137900778e68.  move.b 0x778e68, 0x2(a1)
     < 0x007821d2      6032           bra.b 0x782206
        0x007821d4      2254           movea.l (a4), a1
        0x007821d6      12b900778e69   move.b 0x778e69, (a1)
        0x007821dc      137900778e6a.  move.b 0x778e6a, 0x1(a1)
        0x007821e4      137900778e6b.  move.b 0x778e6b, 0x2(a1)
    < 0x007821ec      6018           bra.b 0x782206
       0x007821ee      2254           movea.l (a4), a1
       0x007821f0      12b900778e6c   move.b 0x778e6c, (a1)
       0x007821f6      137900778e6d.  move.b 0x778e6d, 0x1(a1)
       0x007821fe      137900778e6e.  move.b 0x778e6e, 0x2(a1)
    > 0x00782206      1d7900778e6f.  move.b 0x778e6f, -0x106(a6)
            0x0078220e      0c000005       cmpi.b 0x5, d0
        < 0x00782212      6632           bne.b 0x782246
           0x00782214      2254           movea.l (a4), a1
           0x00782216      4240           clr.w d0
           0x00782218      1011           move.b (a1), d0
           0x0078221a      45f10001       lea.l 0x1(a1, d0.w), a2
           0x0078221e      7206           moveq 0x6, d1
           0x00782220      d200           add.b d0, d1
       < 0x00782222      6406           bcc.b 0x78222a
          0x00782224      4eb900406c8a   jsr p_strovr
       > 0x0078222a      7206           moveq 0x6, d1
           0x0078222c      3405           move.w d5, d2
           0x0078222e      9440           sub.w d0, d2
           0x00782230      b242           cmp.w d2, d1
       < 0x00782232      6302           bls.b 0x782236
          0x00782234      3202           move.w d2, d1
       > 0x00782236      d311           add.b d1, (a1)
           0x00782238      47f900778e71   lea.l 0x778e71, a3
       > 0x0078223e      14db           move.b (a3)+, (a2)+
       < 0x00782240      51c9fffc       dbra d1, 0x78223e
       < 0x00782244      607c           bra.b 0x7822c2
       > 0x00782246      2254           movea.l (a4), a1
           0x00782248      4240           clr.w d0
           0x0078224a      1011           move.b (a1), d0
           0x0078224c      45f10001       lea.l 0x1(a1, d0.w), a2
           0x00782250      7201           moveq 0x1, d1
           0x00782252      3405           move.w d5, d2
           0x00782254      9440           sub.w d0, d2
           0x00782256      b242           cmp.w d2, d1
       < 0x00782258      6302           bls.b 0x78225c
          0x0078225a      3202           move.w d2, d1
       > 0x0078225c      d311           add.b d1, (a1)
           0x0078225e      47f900778e78   lea.l 0x778e78, a3
       > 0x00782264      14db           move.b (a3)+, (a2)+
       < 0x00782266      51c9fffc       dbra d1, 0x782264
           0x0078226a      9efc0136       suba.w 0x136, a7
           0x0078226e      244f           movea.l a7, a2
           0x00782270      47e80a2a       lea.l 0xa2a(a0), a3
           0x00782274      7034           moveq 0x34, d0
       > 0x00782276      14db           move.b (a3)+, (a2)+
       < 0x00782278      51c8fffc       dbra d0, 0x782276
           0x0078227c      486efefa       pea.l -0x106(a6)
           0x00782280      4eb9007836f2   jsr PANEL_UTILS.format_next_tit
           0x00782286      defc003a       adda.w 0x3a, a7
           0x0078228a      4240           clr.w d0
           0x0078228c      1011           move.b (a1), d0
           0x0078228e      45f10001       lea.l 0x1(a1, d0.w), a2
           0x00782292      4241           clr.w d1
           0x00782294      1217           move.b (a7), d1
           0x00782296      d200           add.b d0, d1
       < 0x00782298      6406           bcc.b 0x7822a0
          0x0078229a      4eb900406c8a   jsr p_strovr
       > 0x007822a0      4241           clr.w d1
           0x007822a2      1217           move.b (a7), d1
           0x007822a4      3405           move.w d5, d2
           0x007822a6      9440           sub.w d0, d2
           0x007822a8      b242           cmp.w d2, d1
       < 0x007822aa      6302           bls.b 0x7822ae
          0x007822ac      3202           move.w d2, d1
       > 0x007822ae      d311           add.b d1, (a1)
           0x007822b0      5301           subq.b 0x1, d1
       < 0x007822b2      650a           bcs.b 0x7822be
          0x007822b4      47ef0001       lea.l 0x1(a7), a3
      > 0x007822b8      14db           move.b (a3)+, (a2)+
      < 0x007822ba      51c9fffc       dbra d1, 0x7822b8
       > 0x007822be      defc0100       adda.w 0x100, a7
       > 0x007822c2      10280a28       move.b 0xa28(a0), d0
            0x007822c6      0c000005       cmpi.b 0x5, d0
        < 0x007822ca      6634           bne.b 0x782300
           0x007822cc      2254           movea.l (a4), a1
           0x007822ce      4241           clr.w d1
           0x007822d0      1211           move.b (a1), d1
           0x007822d2      45f11001       lea.l 0x1(a1, d1.w), a2
           0x007822d6      7406           moveq 0x6, d2
           0x007822d8      d401           add.b d1, d2
       < 0x007822da      6406           bcc.b 0x7822e2
          0x007822dc      4eb900406c8a   jsr p_strovr
       > 0x007822e2      7406           moveq 0x6, d2
           0x007822e4      3605           move.w d5, d3
           0x007822e6      9641           sub.w d1, d3
           0x007822e8      b443           cmp.w d3, d2
       < 0x007822ea      6302           bls.b 0x7822ee
          0x007822ec      3403           move.w d3, d2
       > 0x007822ee      d511           add.b d2, (a1)
           0x007822f0      47f900778e7a   lea.l 0x778e7a, a3
       > 0x007822f6      14db           move.b (a3)+, (a2)+
       < 0x007822f8      51cafffc       dbra d2, 0x7822f6
       < 0x007822fc      60000094       bra.w 0x782392
       > 0x00782300      4281           clr.l d1
           0x00782302      32280a2a       move.w 0xa2a(a0), d1
           0x00782306      2e01           move.l d1, d7
           0x00782308      0c000004       cmpi.b 0x4, d0
       < 0x0078230c      6712           beq.b 0x782320
          0x0078230e      0c810000000a   cmpi.l 0xa, d1
      < 0x00782314      6f0a           ble.b 0x782320
         0x00782316      12280a3a       move.b 0xa3a(a0), d1
         0x0078231a      b206           cmp.b d6, d1
     < 0x0078231c      6602           bne.b 0x782320
        0x0078231e      4487           neg.l d7
     > 0x00782320      2f07           move.l d7, -(a7)
           0x00782322      48780005       pea.l 0x5
           0x00782326      486efefa       pea.l -0x106(a6)
           0x0078232a      3f05           move.w d5, -(a7)
           0x0078232c      4eb900406e56   jsr p_strI1
           0x00782332      defc000e       adda.w 0xe, a7
           0x00782336      2254           movea.l (a4), a1
           0x00782338      4241           clr.w d1
           0x0078233a      1211           move.b (a1), d1
           0x0078233c      45f11001       lea.l 0x1(a1, d1.w), a2
           0x00782340      4242           clr.w d2
           0x00782342      142efefa       move.b -0x106(a6), d2
           0x00782346      d401           add.b d1, d2
       < 0x00782348      6406           bcc.b 0x782350
          0x0078234a      4eb900406c8a   jsr p_strovr
       > 0x00782350      4242           clr.w d2
           0x00782352      142efefa       move.b -0x106(a6), d2
           0x00782356      3605           move.w d5, d3
           0x00782358      9641           sub.w d1, d3
           0x0078235a      b443           cmp.w d3, d2
       < 0x0078235c      6302           bls.b 0x782360
          0x0078235e      3403           move.w d3, d2
       > 0x00782360      d511           add.b d2, (a1)
           0x00782362      5302           subq.b 0x1, d2
       < 0x00782364      650a           bcs.b 0x782370
          0x00782366      47eefefb       lea.l -0x105(a6), a3
      > 0x0078236a      14db           move.b (a3)+, (a2)+
      < 0x0078236c      51cafffc       dbra d2, 0x78236a
       > 0x00782370      4241           clr.w d1
           0x00782372      1211           move.b (a1), d1
           0x00782374      45f11001       lea.l 0x1(a1, d1.w), a2
           0x00782378      7401           moveq 0x1, d2
           0x0078237a      3605           move.w d5, d3
           0x0078237c      9641           sub.w d1, d3
           0x0078237e      b443           cmp.w d3, d2
       < 0x00782380      6302           bls.b 0x782384
          0x00782382      3403           move.w d3, d2
       > 0x00782384      d511           add.b d2, (a1)
           0x00782386      47f900778e81   lea.l 0x778e81, a3
       > 0x0078238c      14db           move.b (a3)+, (a2)+
       < 0x0078238e      51cafffc       dbra d2, 0x78238c
       > 0x00782392      2254           movea.l (a4), a1
            0x00782394      4240           clr.w d0
            0x00782396      1011           move.b (a1), d0
            0x00782398      45f10001       lea.l 0x1(a1, d0.w), a2
            0x0078239c      4241           clr.w d1
            0x0078239e      12280a5f       move.b 0xa5f(a0), d1
            0x007823a2      d200           add.b d0, d1
        < 0x007823a4      6406           bcc.b 0x7823ac
           0x007823a6      4eb900406c8a   jsr p_strovr
        > 0x007823ac      4241           clr.w d1
            0x007823ae      12280a5f       move.b 0xa5f(a0), d1
            0x007823b2      3405           move.w d5, d2
            0x007823b4      9440           sub.w d0, d2
            0x007823b6      b242           cmp.w d2, d1
        < 0x007823b8      6302           bls.b 0x7823bc
           0x007823ba      3202           move.w d2, d1
        > 0x007823bc      d311           add.b d1, (a1)
            0x007823be      5301           subq.b 0x1, d1
        < 0x007823c0      650a           bcs.b 0x7823cc
           0x007823c2      47e80a60       lea.l 0xa60(a0), a3
       > 0x007823c6      14db           move.b (a3)+, (a2)+
       < 0x007823c8      51c9fffc       dbra d1, 0x7823c6
        > 0x007823cc      4cdf1fff       movem.l (a7)+, d0-d7/a0-a4
            0x007823d0      4e5e           unlk a6
            0x007823d2      4e75           rts
            ; CALL XREF from PANEL.rem_sta_log @ 0x77756e
 46: PANEL_STACK.rm_stk_scope ();
           0x007823d4      4e56fff8       link.w a6, 0xfff8
           0x007823d8      bfd5           cmpa.l (a5), a7
       < 0x007823da      6206           bhi.b 0x7823e2
          0x007823dc      44fc0002       move.w 0x2, ccr
          0x007823e0      4e76           trapv
       > 0x007823e2      defc0008       adda.w 0x8, a7
           0x007823e6      48e78000       movem.l d0, -(a7)
           0x007823ea      10390086eb3a   move.b 0x86eb3a, d0
           0x007823f0      4880           ext.w d0
           0x007823f2      41bc0004       chk.w 0x4, d0
           0x007823f6      1d400008       move.b d0, 0x8(a6)
           0x007823fa      4cdf0001       movem.l (a7)+, d0
           0x007823fe      4e5e           unlk a6
           0x00782400      4e75           rts
            ; CALL XREFS from PANEL.rem_sta_log @ 0x777528, 0x777564
 30: PANEL_STACK.rm_stk_number ();
           0x00782402      4e56fffc       link.w a6, 0xfffc
           0x00782406      bfd5           cmpa.l (a5), a7
       < 0x00782408      6206           bhi.b 0x782410
          0x0078240a      44fc0002       move.w 0x2, ccr
          0x0078240e      4e76           trapv
       > 0x00782410      defc0004       adda.w 0x4, a7
           0x00782414      2d790086eb36.  move.l 0x86eb36, 0x8(a6)
           0x0078241c      4e5e           unlk a6
           0x0078241e      4e75           rts
            ; CALL XREF from PANEL.rem_sta_log @ 0x7775e8
 48: PANEL_STACK.rm_stk_title ();
           0x00782420      4e56fff0       link.w a6, 0xfff0
           0x00782424      bfd5           cmpa.l (a5), a7
       < 0x00782426      6206           bhi.b 0x78242e
          0x00782428      44fc0002       move.w 0x2, ccr
          0x0078242c      4e76           trapv
       > 0x0078242e      defc0010       adda.w 0x10, a7
           0x00782432      48e780c0       movem.l d0/a0-a1, -(a7)
           0x00782436      41ee0008       lea.l 0x8(a6), a0
           0x0078243a      43f90086f042   lea.l 0x86f042, a1
           0x00782440      703f           moveq 0x3f, d0
       > 0x00782442      20d9           move.l (a1)+, (a0)+
       < 0x00782444      51c8fffc       dbra d0, 0x782442
           0x00782448      4cdf0301       movem.l (a7)+, d0/a0-a1
           0x0078244c      4e5e           unlk a6
           0x0078244e      4e75           rts
            ; CALL XREF from PANEL.rem_stq_log @ 0x77768c
 526: PANEL_STACK.rm_stq_log ();
           ; var int32_t var_1bh @ a7+0x1b
           ; var int32_t var_1ch @ a7+0x1c
           ; var int32_t var_1dh @ a7+0x1d
           0x00782450      4e56fd6a       link.w a6, 0xfd6a
           0x00782454      bfd5           cmpa.l (a5), a7
       < 0x00782456      6206           bhi.b 0x78245e
          0x00782458      44fc0002       move.w 0x2, ccr
          0x0078245c      4e76           trapv
       > 0x0078245e      defc0182       adda.w 0x182, a7
           0x00782462      48e7fff8       movem.l d0-d7/a0-a4, -(a7)
           0x00782466      49eefeec       lea.l -0x114(a6), a4
           0x0078246a      2c3c000000ff   move.l 0xff, d6
           0x00782470      302e000c       move.w 0xc(a6), d0
           0x00782474      48c0           ext.l d0
           0x00782476      2200           move.l d0, d1
           0x00782478      0481ffffff9c   subi.l 0xffffff9c, d1
           0x0078247e      0c81000000c7   cmpi.l 0xc7, d1
       < 0x00782484      6302           bls.b 0x782488
          0x00782486      4e4f           trap 0xf
       > 0x00782488      2801           move.l d1, d4
           0x0078248a      7636           moveq 0x36, d3
           0x0078248c      4eb900406a74   jsr fcn.00406a74
           0x00782492      20790086eb32   movea.l 0x86eb32, a0
           0x00782498      b1e8fffc       cmpa.l -0x4(a0), a0
       < 0x0078249c      6702           beq.b 0x7824a0
          0x0078249e      4e4d           trap 0xd
       > 0x007824a0      2f00           move.l d0, -(a7)
           0x007824a2      48780003       pea.l 0x3
           0x007824a6      4854           pea.l (a4)
           0x007824a8      3f06           move.w d6, -(a7)
           0x007824aa      4eb900406e56   jsr p_strI1
           0x007824b0      defc000e       adda.w 0xe, a7
           0x007824b4      226e0008       movea.l 0x8(a6), a1
           0x007824b8      7203           moveq 0x3, d1
           0x007824ba      45e90001       lea.l 0x1(a1), a2
           0x007824be      47f900778e83   lea.l 0x778e83, a3
       > 0x007824c4      14db           move.b (a3)+, (a2)+
       < 0x007824c6      51c9fffc       dbra d1, 0x7824c4
           0x007824ca      4241           clr.w d1
           0x007824cc      1214           move.b (a4), d1
           0x007824ce      5801           addq.b 0x4, d1
       < 0x007824d0      6406           bcc.b 0x7824d8
          0x007824d2      4eb900406c8a   jsr p_strovr
       > 0x007824d8      4241           clr.w d1
           0x007824da      1214           move.b (a4), d1
           0x007824dc      3406           move.w d6, d2
           0x007824de      5942           subq.w 0x4, d2
           0x007824e0      b242           cmp.w d2, d1
       < 0x007824e2      6302           bls.b 0x7824e6
          0x007824e4      3202           move.w d2, d1
       > 0x007824e6      12bc0004       move.b 0x4, (a1)
           0x007824ea      d311           add.b d1, (a1)
           0x007824ec      5301           subq.b 0x1, d1
       < 0x007824ee      650a           bcs.b 0x7824fa
          0x007824f0      47eefeed       lea.l -0x113(a6), a3
      > 0x007824f4      14db           move.b (a3)+, (a2)+
      < 0x007824f6      51c9fffc       dbra d1, 0x7824f4
       > 0x007824fa      4241           clr.w d1
           0x007824fc      1211           move.b (a1), d1
           0x007824fe      45f11001       lea.l 0x1(a1, d1.w), a2
           0x00782502      7401           moveq 0x1, d2
           0x00782504      3606           move.w d6, d3
           0x00782506      9641           sub.w d1, d3
           0x00782508      b443           cmp.w d3, d2
       < 0x0078250a      6302           bls.b 0x78250e
          0x0078250c      3403           move.w d3, d2
       > 0x0078250e      d511           add.b d2, (a1)
           0x00782510      47f900778e88   lea.l 0x778e88, a3
       > 0x00782516      14db           move.b (a3)+, (a2)+
       < 0x00782518      51cafffc       dbra d2, 0x782516
           0x0078251c      18b900778e89   move.b 0x778e89, (a4)
           0x00782522      4a30482e       tst.b 0x2e(a0, d4.l)
       < 0x00782526      6630           bne.b 0x782558
          0x00782528      4241           clr.w d1
          0x0078252a      1211           move.b (a1), d1
          0x0078252c      45f11001       lea.l 0x1(a1, d1.w), a2
          0x00782530      7404           moveq 0x4, d2
          0x00782532      d401           add.b d1, d2
      < 0x00782534      6406           bcc.b 0x78253c
         0x00782536      4eb900406c8a   jsr p_strovr
      > 0x0078253c      7404           moveq 0x4, d2
          0x0078253e      3606           move.w d6, d3
          0x00782540      9641           sub.w d1, d3
          0x00782542      b443           cmp.w d3, d2
      < 0x00782544      6302           bls.b 0x782548
         0x00782546      3403           move.w d3, d2
      > 0x00782548      d511           add.b d2, (a1)
          0x0078254a      47f900778e8b   lea.l 0x778e8b, a3
      > 0x00782550      14db           move.b (a3)+, (a2)+
      < 0x00782552      51cafffc       dbra d2, 0x782550
      < 0x00782556      6056           bra.b 0x7825ae
      > 0x00782558      9efc0136       suba.w 0x136, a7
          0x0078255c      244f           movea.l a7, a2
          0x0078255e      47f0480a       lea.l 0xa(a0, d4.l), a3
          0x00782562      7234           moveq 0x34, d1
      > 0x00782564      14db           move.b (a3)+, (a2)+
      < 0x00782566      51c9fffc       dbra d1, 0x782564
          0x0078256a      4854           pea.l (a4)
          0x0078256c      4eb9007836f2   jsr PANEL_UTILS.format_next_tit
          0x00782572      defc003a       adda.w 0x3a, a7
          0x00782576      4241           clr.w d1
          0x00782578      1211           move.b (a1), d1
          0x0078257a      45f11001       lea.l 0x1(a1, d1.w), a2
          0x0078257e      4242           clr.w d2
          0x00782580      1417           move.b (a7), d2
          0x00782582      d401           add.b d1, d2
      < 0x00782584      6406           bcc.b 0x78258c
         0x00782586      4eb900406c8a   jsr p_strovr
      > 0x0078258c      4242           clr.w d2
          0x0078258e      1417           move.b (a7), d2
          0x00782590      3606           move.w d6, d3
          0x00782592      9641           sub.w d1, d3
          0x00782594      b443           cmp.w d3, d2
      < 0x00782596      6302           bls.b 0x78259a
         0x00782598      3403           move.w d3, d2
      > 0x0078259a      d511           add.b d2, (a1)
          0x0078259c      5302           subq.b 0x1, d2
      < 0x0078259e      650a           bcs.b 0x7825aa
         0x007825a0      47ef0001       lea.l 0x1(a7), a3
     > 0x007825a4      14db           move.b (a3)+, (a2)+
     < 0x007825a6      51cafffc       dbra d2, 0x7825a4
      > 0x007825aa      defc0100       adda.w 0x100, a7
      > 0x007825ae      4281           clr.l d1
           0x007825b0      3230480a       move.w 0xa(a0, d4.l), d1
           0x007825b4      2e01           move.l d1, d7
           0x007825b6      1230481a       move.b 0x1a(a0, d4.l), d1
           0x007825ba      0c010001       cmpi.b 0x1, d1
       < 0x007825be      6602           bne.b 0x7825c2
          0x007825c0      4487           neg.l d7
       > 0x007825c2      2f07           move.l d7, -(a7)
           0x007825c4      48780005       pea.l 0x5
           0x007825c8      4854           pea.l (a4)
           0x007825ca      3f06           move.w d6, -(a7)
           0x007825cc      4eb900406e56   jsr p_strI1
           0x007825d2      defc000e       adda.w 0xe, a7
           0x007825d6      4241           clr.w d1
           0x007825d8      1211           move.b (a1), d1
           0x007825da      45f11001       lea.l 0x1(a1, d1.w), a2
           0x007825de      4242           clr.w d2
           0x007825e0      1414           move.b (a4), d2
           0x007825e2      d401           add.b d1, d2
       < 0x007825e4      6406           bcc.b 0x7825ec
          0x007825e6      4eb900406c8a   jsr p_strovr
       > 0x007825ec      4242           clr.w d2
           0x007825ee      1414           move.b (a4), d2
           0x007825f0      3606           move.w d6, d3
           0x007825f2      9641           sub.w d1, d3
           0x007825f4      b443           cmp.w d3, d2
       < 0x007825f6      6302           bls.b 0x7825fa
          0x007825f8      3403           move.w d3, d2
       > 0x007825fa      d511           add.b d2, (a1)
           0x007825fc      5302           subq.b 0x1, d2
       < 0x007825fe      650a           bcs.b 0x78260a
          0x00782600      47eefeed       lea.l -0x113(a6), a3
      > 0x00782604      14db           move.b (a3)+, (a2)+
      < 0x00782606      51cafffc       dbra d2, 0x782604
       > 0x0078260a      4241           clr.w d1
           0x0078260c      1211           move.b (a1), d1
           0x0078260e      45f11001       lea.l 0x1(a1, d1.w), a2
           0x00782612      7401           moveq 0x1, d2
           0x00782614      3606           move.w d6, d3
           0x00782616      9641           sub.w d1, d3
           0x00782618      b443           cmp.w d3, d2
       < 0x0078261a      6302           bls.b 0x78261e
          0x0078261c      3403           move.w d3, d2
       > 0x0078261e      d511           add.b d2, (a1)
           0x00782620      47f900778e90   lea.l 0x778e90, a3
       > 0x00782626      14db           move.b (a3)+, (a2)+
       < 0x00782628      51cafffc       dbra d2, 0x782626
           0x0078262c      1230482e       move.b 0x2e(a0, d4.l), d1
           0x00782630      4881           ext.w d1
           0x00782632      45f900778e92   lea.l 0x778e92, a2
           0x00782638      3401           move.w d1, d2
           0x0078263a      e64a           lsr.w 0x3, d2
           0x0078263c      03322000       btst.l d1, (a2, d2.w)
       < 0x00782640      670001f6       beq.w 0x782838
          0x00782644      1230480c       move.b 0xc(a0, d4.l), d1
          0x00782648      4881           ext.w d1
          0x0078264a      3401           move.w d1, d2
          0x0078264c      0c420002       cmpi.w 0x2, d2
      < 0x00782650      620000de       bhi.w 0x782730
         0x00782654      d442           add.w d2, d2
         0x00782656      343b2006       move.w 0x78265e(pc, d2.w), d2
         0x0078265a      4efb2002       jmp 0x78265e(pc, d2.w)
          0x0078265e      00060072       ori.b 0x72, d6
          0x00782662      00a214304810   ori.l 0x14304810, -(a2)
          0x00782668      0c020001       cmpi.b 0x1, d2
      < 0x0078266c      6630           bne.b 0x78269e
         0x0078266e      4242           clr.w d2
         0x00782670      1411           move.b (a1), d2
         0x00782672      45f12001       lea.l 0x1(a1, d2.w), a2
         0x00782676      7604           moveq 0x4, d3
         0x00782678      d602           add.b d2, d3
     < 0x0078267a      6406           bcc.b 0x782682
        0x0078267c      4eb900406c8a   jsr p_strovr
     > 0x00782682      7604           moveq 0x4, d3
         0x00782684      3a06           move.w d6, d5
         0x00782686      9a42           sub.w d2, d5
         0x00782688      b645           cmp.w d5, d3
     < 0x0078268a      6302           bls.b 0x78268e
        0x0078268c      3605           move.w d5, d3
     > 0x0078268e      d711           add.b d3, (a1)
         0x00782690      47f900778e95   lea.l 0x778e95, a3
     > 0x00782696      14db           move.b (a3)+, (a2)+
     < 0x00782698      51cbfffc       dbra d3, 0x782696
     < 0x0078269c      602e           bra.b 0x7826cc
     > 0x0078269e      4242           clr.w d2
         0x007826a0      1411           move.b (a1), d2
         0x007826a2      45f12001       lea.l 0x1(a1, d2.w), a2
         0x007826a6      7604           moveq 0x4, d3
         0x007826a8      d602           add.b d2, d3
     < 0x007826aa      6406           bcc.b 0x7826b2
        0x007826ac      4eb900406c8a   jsr p_strovr
     > 0x007826b2      7604           moveq 0x4, d3
         0x007826b4      3a06           move.w d6, d5
         0x007826b6      9a42           sub.w d2, d5
         0x007826b8      b645           cmp.w d5, d3
     < 0x007826ba      6302           bls.b 0x7826be
        0x007826bc      3605           move.w d5, d3
     > 0x007826be      d711           add.b d3, (a1)
         0x007826c0      47f900778e9a   lea.l 0x778e9a, a3
     > 0x007826c6      14db           move.b (a3)+, (a2)+
     < 0x007826c8      51cbfffc       dbra d3, 0x7826c6
     < 0x007826cc      60000090       bra.w 0x78275e
         0x007826d0      4242           clr.w d2
         0x007826d2      1411           move.b (a1), d2
         0x007826d4      45f12001       lea.l 0x1(a1, d2.w), a2
         0x007826d8      7604           moveq 0x4, d3
         0x007826da      d602           add.b d2, d3
     < 0x007826dc      6406           bcc.b 0x7826e4
        0x007826de      4eb900406c8a   jsr p_strovr
     > 0x007826e4      7604           moveq 0x4, d3
         0x007826e6      3a06           move.w d6, d5
         0x007826e8      9a42           sub.w d2, d5
         0x007826ea      b645           cmp.w d5, d3
     < 0x007826ec      6302           bls.b 0x7826f0
        0x007826ee      3605           move.w d5, d3
     > 0x007826f0      d711           add.b d3, (a1)
         0x007826f2      47f900778e9f   lea.l 0x778e9f, a3
     > 0x007826f8      14db           move.b (a3)+, (a2)+
     < 0x007826fa      51cbfffc       dbra d3, 0x7826f8
     < 0x007826fe      605e           bra.b 0x78275e
        0x00782700      4242           clr.w d2
        0x00782702      1411           move.b (a1), d2
        0x00782704      45f12001       lea.l 0x1(a1, d2.w), a2
        0x00782708      7604           moveq 0x4, d3
        0x0078270a      d602           add.b d2, d3
    < 0x0078270c      6406           bcc.b 0x782714
       0x0078270e      4eb900406c8a   jsr p_strovr
    > 0x00782714      7604           moveq 0x4, d3
        0x00782716      3a06           move.w d6, d5
        0x00782718      9a42           sub.w d2, d5
        0x0078271a      b645           cmp.w d5, d3
    < 0x0078271c      6302           bls.b 0x782720
       0x0078271e      3605           move.w d5, d3
    > 0x00782720      d711           add.b d3, (a1)
        0x00782722      47f900778ea4   lea.l 0x778ea4, a3
    > 0x00782728      14db           move.b (a3)+, (a2)+
    < 0x0078272a      51cbfffc       dbra d3, 0x782728
    < 0x0078272e      602e           bra.b 0x78275e
    > 0x00782730      4242           clr.w d2
        0x00782732      1411           move.b (a1), d2
        0x00782734      45f12001       lea.l 0x1(a1, d2.w), a2
        0x00782738      7604           moveq 0x4, d3
        0x0078273a      d602           add.b d2, d3
    < 0x0078273c      6406           bcc.b 0x782744
       0x0078273e      4eb900406c8a   jsr p_strovr
    > 0x00782744      7604           moveq 0x4, d3
        0x00782746      3a06           move.w d6, d5
        0x00782748      9a42           sub.w d2, d5
        0x0078274a      b645           cmp.w d5, d3
    < 0x0078274c      6302           bls.b 0x782750
       0x0078274e      3605           move.w d5, d3
    > 0x00782750      d711           add.b d3, (a1)
        0x00782752      47f900778ea9   lea.l 0x778ea9, a3
    > 0x00782758      14db           move.b (a3)+, (a2)+
    < 0x0078275a      51cbfffc       dbra d3, 0x782758
    > 0x0078275e      4a41           tst.w d1
       < 0x00782760      661c           bne.b 0x78277e
          0x00782762      3430480e       move.w 0xe(a0, d4.l), d2
          0x00782766      48c2           ext.l d2
          0x00782768      2f02           move.l d2, -(a7)
          ; CODE XREF from PANEL_STACK @ +0xb102
      > 0x0078276a      48780004       pea.l 0x4
         0x0078276e      4854           pea.l (a4)
         0x00782770      3f06           move.w d6, -(a7)
         0x00782772      4eb900406e56   jsr p_strI1
         0x00782778      defc000e       adda.w 0xe, a7
     < 0x0078277c      6040           bra.b 0x7827be
     > 0x0078277e      0c010001       cmpi.b 0x1, d1
     < 0x00782782      661c           bne.b 0x7827a0
        0x00782784      9efc000c       suba.w 0xc, a7
        0x00782788      244f           movea.l a7, a2
        0x0078278a      47f04811       lea.l 0x11(a0, d4.l), a3
        0x0078278e      7407           moveq 0x7, d2
    > 0x00782790      14db           move.b (a3)+, (a2)+
    < 0x00782792      51cafffc       dbra d2, 0x782790
        0x00782796      4eb900783e1c   jsr PANEL_UTILS.alt_seq_number
        0x0078279c      504f           addq.w 0x8, a7
     < 0x0078279e      60ca           bra.b 0x78276a
      > 0x007827a0      18b900778ead   move.b 0x778ead, (a4)
          0x007827a6      1d7900778eae.  move.b 0x778eae, -0x113(a6)
          0x007827ae      1d7900778eaf.  move.b 0x778eaf, -0x112(a6)
          0x007827b6      1d7900778eb0.  move.b 0x778eb0, -0x111(a6)
          ; CODE XREF from PANEL_STACK @ +0xb0e0
     > 0x007827be      4241           clr.w d1
           0x007827c0      1211           move.b (a1), d1
           0x007827c2      45f11001       lea.l 0x1(a1, d1.w), a2
           0x007827c6      7401           moveq 0x1, d2
           0x007827c8      3606           move.w d6, d3
           0x007827ca      9641           sub.w d1, d3
           0x007827cc      b443           cmp.w d3, d2
       < 0x007827ce      6302           bls.b 0x7827d2
          0x007827d0      3403           move.w d3, d2
       > 0x007827d2      d511           add.b d2, (a1)
           0x007827d4      47f900778eb2   lea.l 0x778eb2, a3
       > 0x007827da      14db           move.b (a3)+, (a2)+
       < 0x007827dc      51cafffc       dbra d2, 0x7827da
           0x007827e0      4241           clr.w d1
           0x007827e2      1211           move.b (a1), d1
           0x007827e4      45f11001       lea.l 0x1(a1, d1.w), a2
           0x007827e8      4242           clr.w d2
           0x007827ea      1414           move.b (a4), d2
           0x007827ec      d401           add.b d1, d2
       < 0x007827ee      6406           bcc.b 0x7827f6
          0x007827f0      4eb900406c8a   jsr p_strovr
       > 0x007827f6      4242           clr.w d2
           0x007827f8      1414           move.b (a4), d2
           0x007827fa      3606           move.w d6, d3
           0x007827fc      9641           sub.w d1, d3
           0x007827fe      b443           cmp.w d3, d2
       < 0x00782800      6302           bls.b 0x782804
          0x00782802      3403           move.w d3, d2
       > 0x00782804      d511           add.b d2, (a1)
           0x00782806      5302           subq.b 0x1, d2
       < 0x00782808      650a           bcs.b 0x782814
          0x0078280a      47eefeed       lea.l -0x113(a6), a3
      > 0x0078280e      14db           move.b (a3)+, (a2)+
      < 0x00782810      51cafffc       dbra d2, 0x78280e
       > 0x00782814      4241           clr.w d1
           0x00782816      1211           move.b (a1), d1
           0x00782818      45f11001       lea.l 0x1(a1, d1.w), a2
           0x0078281c      7401           moveq 0x1, d2
           0x0078281e      3606           move.w d6, d3
           0x00782820      9641           sub.w d1, d3
           0x00782822      b443           cmp.w d3, d2
       < 0x00782824      6302           bls.b 0x782828
          0x00782826      3403           move.w d3, d2
       > 0x00782828      d511           add.b d2, (a1)
           0x0078282a      47f900778eb4   lea.l 0x778eb4, a3
       > 0x00782830      14db           move.b (a3)+, (a2)+
       < 0x00782832      51cafffc       dbra d2, 0x782830
       < 0x00782836      602e           bra.b 0x782866
       > 0x00782838      4241           clr.w d1
           0x0078283a      1211           move.b (a1), d1
           0x0078283c      45f11001       lea.l 0x1(a1, d1.w), a2
           0x00782840      740a           moveq 0xa, d2
           0x00782842      d401           add.b d1, d2
       < 0x00782844      6406           bcc.b 0x78284c
          0x00782846      4eb900406c8a   jsr p_strovr
       > 0x0078284c      740a           moveq 0xa, d2
           0x0078284e      3606           move.w d6, d3
           0x00782850      9641           sub.w d1, d3
           0x00782852      b443           cmp.w d3, d2
       < 0x00782854      6302           bls.b 0x782858
          0x00782856      3403           move.w d3, d2
       > 0x00782858      d511           add.b d2, (a1)
           0x0078285a      47f900778eb6   lea.l 0x778eb6, a3
       > 0x00782860      14db           move.b (a3)+, (a2)+
       < 0x00782862      51cafffc       dbra d2, 0x782860
           ; CODE XREF from PANEL_STACK @ +0xb19a
       > 0x00782866      1230482e       move.b 0x2e(a0, d4.l), d1
            0x0078286a      4881           ext.w d1
            0x0078286c      45f900778ec0   lea.l 0x778ec0, a2
            0x00782872      3401           move.w d1, d2
            0x00782874      e64a           lsr.w 0x3, d2
            0x00782876      03322000       btst.l d1, (a2, d2.w)
        < 0x0078287a      67000188       beq.w 0x782a04
           0x0078287e      2d790077769c.  move.l 0x77769c, -0xe(a6)
           0x00782886      2d79007776a0.  move.l 0x7776a0, -0xa(a6)
           0x0078288e      3d79007776a4.  move.w 0x7776a4, -0x6(a6)
           0x00782896      2d7cffff0001.  move.l 0xffff0001, -0x4(a6)
           0x0078289e      0c010002       cmpi.b 0x2, d1
       < 0x007828a2      6634           bne.b 0x7828d8
          0x007828a4      554f           subq.w 0x2, a7
          0x007828a6      4227           clr.b -(a7)
          0x007828a8      4870480a       pea.l 0xa(a0, d4.l)
          0x007828ac      1f3c0001       move.b 0x1, -(a7)
          0x007828b0      594f           subq.w 0x4, a7
          0x007828b2      1eb0481a       move.b 0x1a(a0, d4.l), (a7)
          0x007828b6      1f70481b0001   move.b 0x1b(a0, d4.l), 0x1(a7)
          0x007828bc      1f70481c0002   move.b 0x1c(a0, d4.l), 0x2(a7)
          0x007828c2      1f70481d0003   move.b 0x1d(a0, d4.l), 0x3(a7)
          0x007828c8      486efff2       pea.l -0xe(a6)
          0x007828cc      4eb9006b05ba   jsr USER.get_snum
          0x007828d2      defc0010       adda.w 0x10, a7
      < 0x007828d6      6036           bra.b 0x78290e
      > 0x007828d8      554f           subq.w 0x2, a7
          0x007828da      4227           clr.b -(a7)
          0x007828dc      4870480a       pea.l 0xa(a0, d4.l)
          0x007828e0      1f3c0001       move.b 0x1, -(a7)
          0x007828e4      594f           subq.w 0x4, a7
          0x007828e6      1eb0481a       move.b 0x1a(a0, d4.l), (a7)
          0x007828ea      1f70481b0001   move.b 0x1b(a0, d4.l), 0x1(a7)
          0x007828f0      1f70481c0002   move.b 0x1c(a0, d4.l), 0x2(a7)
          0x007828f6      1f70481d0003   move.b 0x1d(a0, d4.l), 0x3(a7)
          0x007828fc      1f3c0001       move.b 0x1, -(a7)
          0x00782900      486efff2       pea.l -0xe(a6)
          0x00782904      4eb9006b0530   jsr USER.get_pnum
          0x0078290a      defc0012       adda.w 0x12, a7
          ; CODE XREF from PANEL_STACK @ +0xb23a
      > 0x0078290e      141f           move.b (a7)+, d2
           0x00782910      4882           ext.w d2
           0x00782912      45bc0001       chk.w 0x1, d2
           0x00782916      1e02           move.b d2, d7
           0x00782918      4a07           tst.b d7
       < 0x0078291a      6756           beq.b 0x782972
          0x0078291c      554f           subq.w 0x2, a7
          0x0078291e      2f2efff8       move.l -0x8(a6), -(a7)
          0x00782922      2f2efff4       move.l -0xc(a6), -(a7)
          0x00782926      3f2efff2       move.w -0xe(a6), -(a7)
          0x0078292a      4227           clr.b -(a7)
          0x0078292c      486efffc       pea.l -0x4(a6)
          0x00782930      4eb9006082de   jsr F10_FILELIST.f_get_header
          0x00782936      defc0010       adda.w 0x10, a7
          0x0078293a      141f           move.b (a7)+, d2
          0x0078293c      4882           ext.w d2
          0x0078293e      45bc0001       chk.w 0x1, d2
          0x00782942      1e02           move.b d2, d7
          0x00782944      9efc0100       suba.w 0x100, a7
          0x00782948      3f3c0014       move.w 0x14, -(a7)
          0x0078294c      2f2efffc       move.l -0x4(a6), -(a7)
          0x00782950      4eb9005eed64   jsr f_get_string
          0x00782956      5c4f           addq.w 0x6, a7
          0x00782958      244c           movea.l a4, a2
          0x0078295a      743f           moveq 0x3f, d2
      > 0x0078295c      24df           move.l (a7)+, (a2)+
      < 0x0078295e      51cafffc       dbra d2, 0x78295c
          0x00782962      4a07           tst.b d7
      < 0x00782964      670c           beq.b 0x782972
         0x00782966      486efffc       pea.l -0x4(a6)
         0x0078296a      4eb90060500e   jsr F9_FILERDWRT.f_free_block
         0x00782970      584f           addq.w 0x4, a7
      > 0x00782972      4a07           tst.b d7
       < 0x00782974      6656           bne.b 0x7829cc
          0x00782976      9efc0100       suba.w 0x100, a7
          0x0078297a      4eb900408ec0   jsr p_err_string
          0x00782980      7403           moveq 0x3, d2
          0x00782982      45eefeed       lea.l -0x113(a6), a2
          0x00782986      47f900778ec3   lea.l 0x778ec3, a3
      > 0x0078298c      14db           move.b (a3)+, (a2)+
      < 0x0078298e      51cafffc       dbra d2, 0x78298c
          0x00782992      4242           clr.w d2
          0x00782994      1417           move.b (a7), d2
          0x00782996      5802           addq.b 0x4, d2
      < 0x00782998      6406           bcc.b 0x7829a0
         0x0078299a      4eb900406c8a   jsr p_strovr
      > 0x007829a0      4242           clr.w d2
          0x007829a2      1417           move.b (a7), d2
          0x007829a4      3606           move.w d6, d3
          0x007829a6      5943           subq.w 0x4, d3
          0x007829a8      b443           cmp.w d3, d2
      < 0x007829aa      6302           bls.b 0x7829ae
         0x007829ac      3403           move.w d3, d2
      > 0x007829ae      18bc0004       move.b 0x4, (a4)
          0x007829b2      d514           add.b d2, (a4)
          0x007829b4      5302           subq.b 0x1, d2
      < 0x007829b6      650a           bcs.b 0x7829c2
         0x007829b8      47ef0001       lea.l 0x1(a7), a3
     > 0x007829bc      14db           move.b (a3)+, (a2)+
     < 0x007829be      51cafffc       dbra d2, 0x7829bc
      > 0x007829c2      defc0100       adda.w 0x100, a7
          0x007829c6      4eb900404188   jsr p_Unlink
       > 0x007829cc      4242           clr.w d2
           0x007829ce      1411           move.b (a1), d2
           0x007829d0      45f12001       lea.l 0x1(a1, d2.w), a2
           0x007829d4      4243           clr.w d3
           0x007829d6      1614           move.b (a4), d3
           0x007829d8      d602           add.b d2, d3
       < 0x007829da      6406           bcc.b 0x7829e2
          0x007829dc      4eb900406c8a   jsr p_strovr
       > 0x007829e2      4243           clr.w d3
           0x007829e4      1614           move.b (a4), d3
           0x007829e6      3a06           move.w d6, d5
           0x007829e8      9a42           sub.w d2, d5
           0x007829ea      b645           cmp.w d5, d3
       < 0x007829ec      6302           bls.b 0x7829f0
          0x007829ee      3605           move.w d5, d3
       > 0x007829f0      d711           add.b d3, (a1)
           0x007829f2      5303           subq.b 0x1, d3
       < 0x007829f4      650a           bcs.b 0x782a00
          0x007829f6      47eefeed       lea.l -0x113(a6), a3
      > 0x007829fa      14db           move.b (a3)+, (a2)+
      < 0x007829fc      51cbfffc       dbra d3, 0x7829fa
      > 0x00782a00      600000a0       bra.w 0x782aa2
       > 0x00782a04      0c010004       cmpi.b 0x4, d1
       < 0x00782a08      6630           bne.b 0x782a3a
          0x00782a0a      4242           clr.w d2
          0x00782a0c      1411           move.b (a1), d2
          0x00782a0e      45f12001       lea.l 0x1(a1, d2.w), a2
          0x00782a12      761f           moveq 0x1f, d3
          0x00782a14      d602           add.b d2, d3
      < 0x00782a16      6406           bcc.b 0x782a1e
         0x00782a18      4eb900406c8a   jsr p_strovr
      > 0x00782a1e      761f           moveq 0x1f, d3
          0x00782a20      3a06           move.w d6, d5
          0x00782a22      9a42           sub.w d2, d5
          0x00782a24      b645           cmp.w d5, d3
      < 0x00782a26      6302           bls.b 0x782a2a
         0x00782a28      3605           move.w d5, d3
      > 0x00782a2a      d711           add.b d3, (a1)
          0x00782a2c      47f9007777b2   lea.l 0x7777b2, a3
      > 0x00782a32      14db           move.b (a3)+, (a2)+
      < 0x00782a34      51cbfffc       dbra d3, 0x782a32
      < 0x00782a38      6068           bra.b 0x782aa2
      > 0x00782a3a      1430482e       move.b 0x2e(a0, d4.l), d2
          0x00782a3e      0c020008       cmpi.b 0x8, d2
      < 0x00782a42      665e           bne.b 0x782aa2
         0x00782a44      9efc0100       suba.w 0x100, a7
         0x00782a48      4282           clr.l d2
         0x00782a4a      3430480a       move.w 0xa(a0, d4.l), d2
         0x00782a4e      0482ffffff80   subi.l 0xffffff80, d2
         0x00782a54      b486           cmp.l d6, d2
     < 0x00782a56      6302           bls.b 0x782a5a
        0x00782a58      4e4f           trap 0xf
     > 0x00782a5a      0682ffffff80   addi.l 0xffffff80, d2
         0x00782a60      3f02           move.w d2, -(a7)
         0x00782a62      4eb900783a1a   jsr PANEL_UTILS.preset_str
         0x00782a68      544f           addq.w 0x2, a7
         0x00782a6a      4242           clr.w d2
         0x00782a6c      1411           move.b (a1), d2
         0x00782a6e      45f12001       lea.l 0x1(a1, d2.w), a2
         0x00782a72      4243           clr.w d3
         0x00782a74      1617           move.b (a7), d3
         0x00782a76      d602           add.b d2, d3
     < 0x00782a78      6406           bcc.b 0x782a80
        0x00782a7a      4eb900406c8a   jsr p_strovr
     > 0x00782a80      4243           clr.w d3
         0x00782a82      1617           move.b (a7), d3
         0x00782a84      3a06           move.w d6, d5
         0x00782a86      9a42           sub.w d2, d5
         0x00782a88      b645           cmp.w d5, d3
     < 0x00782a8a      6302           bls.b 0x782a8e
        0x00782a8c      3605           move.w d5, d3
     > 0x00782a8e      d711           add.b d3, (a1)
         0x00782a90      5303           subq.b 0x1, d3
     < 0x00782a92      650a           bcs.b 0x782a9e
        0x00782a94      47ef0001       lea.l 0x1(a7), a3
    > 0x00782a98      14db           move.b (a3)+, (a2)+
    < 0x00782a9a      51cbfffc       dbra d3, 0x782a98
     > 0x00782a9e      defc0100       adda.w 0x100, a7
         ; CODE XREFS from PANEL_STACK @ +0xb364, +0xb39c
      > 0x00782aa2      4cdf1fff       movem.l (a7)+, d0-d7/a0-a4
            0x00782aa6      4e5e           unlk a6
