            ;-- SEARCHER:
            0x005ddffe      .byte 0x00
            0x005ddfff      .byte 0x00
            0x005de000      .byte 0x00
            0x005de001      .byte 0x00
            0x005de002      .byte 0x00
            0x005de003      .byte 0x00
            0x005de004      .byte 0x00
            0x005de005      .byte 0x00
            0x005de006      .byte 0x00
            0x005de007      .byte 0x00
            0x005de008      .byte 0x10
            0x005de009      .byte 0x00
            0x005de00a      .byte 0x00
            0x005de00b      .byte 0x00
            0x005de00c      .byte 0x00
            0x005de00d      .byte 0x00
            0x005de00e      .byte 0x00
            0x005de00f      .byte 0x00
            0x005de010      .byte 0x01
            0x005de011      .byte 0x00
            0x005de012      .byte 0x00
            0x005de013      .byte 0x00
            0x005de014      .byte 0x00
            0x005de015      .byte 0x00
            0x005de016      .byte 0x01
            0x005de017      .byte 0x25
            0x005de018      .byte 0x00
            0x005de019      .byte 0x00
            0x005de01a      .byte 0x01
            0x005de01b      .byte 0x26
            0x005de01c      .byte 0x00
            0x005de01d      .byte 0x00
            0x005de01e      .byte 0x01
            0x005de01f      .byte 0x27
            0x005de020      .byte 0x01
            0x005de021      .byte 0x00
            0x005de022      .byte 0x01
            0x005de023      .byte 0x29
            0x005de024      .byte 0x01
            0x005de025      .byte 0x00
            0x005de026      .byte 0x01
            0x005de027      .byte 0x2a
            0x005de028      .byte 0x01
            0x005de029      .byte 0x00
            0x005de02a      .byte 0x01
            0x005de02b      .byte 0x2b
            0x005de02c      .byte 0x01
            0x005de02d      .byte 0x00
            0x005de02e      .byte 0x01
            0x005de02f      .byte 0x2c
            0x005de030      .byte 0x01
            0x005de031      .byte 0x00
            0x005de032      .byte 0x01
            0x005de033      .byte 0x2d
            0x005de034      .byte 0x01
            0x005de035      .byte 0x00
            0x005de036      .byte 0x01
            0x005de037      .byte 0x2e
            0x005de038      .byte 0x01
            0x005de039      .byte 0x00
            0x005de03a      .byte 0x01
            0x005de03b      .byte 0x30
            0x005de03c      .byte 0x01
            0x005de03d      .byte 0x00
            0x005de03e      .byte 0x01
            0x005de03f      .byte 0x31
            0x005de040      .byte 0x01
            0x005de041      .byte 0x00
            0x005de042      .byte 0x01
            0x005de043      .byte 0x32
            0x005de044      .byte 0x01
            0x005de045      .byte 0x00
            0x005de046      .byte 0x01
            0x005de047      .byte 0x4a
            0x005de048      .byte 0x01
            0x005de049      .byte 0x00
            0x005de04a      .byte 0x01
            0x005de04b      .byte 0x90
            0x005de04c      .byte 0x01
            0x005de04d      .byte 0x00
            0x005de04e      .byte 0x01
            0x005de04f      .byte 0x91
            0x005de050      .byte 0x01
            0x005de051      .byte 0x00
            0x005de052      .byte 0x01
            0x005de053      .byte 0x92
            0x005de054      .byte 0x01
            0x005de055      .byte 0x00
            0x005de056      .byte 0x01
            0x005de057      .byte 0x93
            0x005de058      .byte 0x01
            0x005de059      .byte 0x00
            0x005de05a      .byte 0x01
            0x005de05b      .byte 0x94
            0x005de05c      .byte 0x01
            0x005de05d      .byte 0x00
            0x005de05e      .byte 0x01
            0x005de05f      .byte 0x98
            0x005de060      .byte 0x01
            0x005de061      .byte 0x00
            0x005de062      .byte 0x02
            0x005de063      .byte 0x58
            0x005de064      .byte 0x00
            0x005de065      .byte 0x00
            0x005de066      .byte 0x02
            0x005de067      .byte 0x59
            0x005de068      .byte 0x00
            0x005de069      .byte 0x00
            0x005de06a      .byte 0x02
            0x005de06b      .byte 0x5a
            0x005de06c      .byte 0x00
            0x005de06d      .byte 0x00
            0x005de06e      .byte 0x02
            0x005de06f      .byte 0x5b
            0x005de070      .byte 0x00
            0x005de071      .byte 0x00
            0x005de072      .byte 0x02
            0x005de073      .byte 0x5c
            0x005de074      .byte 0x00
            0x005de075      .byte 0x00
            0x005de076      .byte 0x02
            0x005de077      .byte 0x5d
            0x005de078      .byte 0x00
            0x005de079      .byte 0x00
            0x005de07a      .byte 0x02
            0x005de07b      .byte 0x5e
            0x005de07c      .byte 0x00
            0x005de07d      .byte 0x00
            0x005de07e      .byte 0x02
            0x005de07f      .byte 0x62
            0x005de080      .byte 0x00
            0x005de081      .byte 0x00
            0x005de082      .byte 0x02
            0x005de083      .byte 0x63
            0x005de084      .byte 0x00
            0x005de085      .byte 0x00
            0x005de086      .byte 0x02
            0x005de087      .byte 0x64
            0x005de088      .byte 0x00
            0x005de089      .byte 0x00
            0x005de08a      .byte 0x02
            0x005de08b      .byte 0x65
            0x005de08c      .byte 0x00
            0x005de08d      .byte 0x00
            0x005de08e      .byte 0x02
            0x005de08f      .byte 0x66
            0x005de090      .byte 0x00
            0x005de091      .byte 0x00
            0x005de092      .byte 0x02
            0x005de093      .byte 0x5f
            0x005de094      .byte 0x00
            0x005de095      .byte 0x00
            0x005de096      .byte 0x02
            0x005de097      .byte 0x60
            0x005de098      .byte 0x00
            0x005de099      .byte 0x00
            0x005de09a      .byte 0x02
            0x005de09b      .byte 0x61
            0x005de09c      .byte 0x00
            0x005de09d      .byte 0x00
            0x005de09e      .byte 0x01
            0x005de09f      .byte 0x36
            0x005de0a0      .byte 0x01
            0x005de0a1      .byte 0x00
            0x005de0a2      .byte 0x01
            0x005de0a3      .byte 0x37
            0x005de0a4      .byte 0x01
            0x005de0a5      .byte 0x00
            0x005de0a6      .byte 0x01
            0x005de0a7      .byte 0xa4
            0x005de0a8      .byte 0x01
            0x005de0a9      .byte 0x00
            0x005de0aa      .byte 0x02
            0x005de0ab      .byte 0xbc
            0x005de0ac      .byte 0x01
            0x005de0ad      .byte 0x00
            0x005de0ae      .byte 0x02
            0x005de0af      .byte 0xbd
            0x005de0b0      .byte 0x01
            0x005de0b1      .byte 0x00
            0x005de0b2      .byte 0x02
            0x005de0b3      .byte 0xbe
            0x005de0b4      .byte 0x01
            0x005de0b5      .byte 0x00
            0x005de0b6      .byte 0x02
            0x005de0b7      .byte 0xbf
            0x005de0b8      .byte 0x01
            0x005de0b9      .byte 0x00
            0x005de0ba      .byte 0x01
            0x005de0bb      .byte 0xa6
            0x005de0bc      .byte 0x00
            0x005de0bd      .byte 0x00
            0x005de0be      .byte 0x02
            0x005de0bf      .byte 0xc0
            0x005de0c0      .byte 0x01
            0x005de0c1      .byte 0x00
            0x005de0c2      .byte 0x01
            0x005de0c3      .byte 0x9f
            0x005de0c4      .byte 0x01
            0x005de0c5      .byte 0x00
            0x005de0c6      .byte 0x01
            0x005de0c7      .byte 0x9e
            0x005de0c8      .byte 0x01
            0x005de0c9      .byte 0x00
            0x005de0ca      .byte 0x01
            0x005de0cb      .byte 0xa7
            0x005de0cc      .byte 0x01
            0x005de0cd      .byte 0x00
            0x005de0ce      .byte 0x01
            0x005de0cf      .byte 0xa1
            0x005de0d0      .byte 0x01
            0x005de0d1      .byte 0x00
            0x005de0d2      .byte 0x00
            0x005de0d3      .byte 0x00
            0x005de0d4      .byte 0x00
            0x005de0d5      .byte 0x00
            0x005de0d6      .byte 0x00
            0x005de0d7      .byte 0x00
            0x005de0d8      .byte 0x00
            0x005de0d9      .byte 0x00
            0x005de0da      .byte 0x00
            0x005de0db      .byte 0x00
            0x005de0dc      .byte 0x00
            0x005de0dd      .byte 0x00
            0x005de0de      .byte 0x07
            0x005de0df     .string "DEFAULT" ; len=7
            0x005de0e6      .byte 0xff
            0x005de0e7      .byte 0xff
            0x005de0e8      .byte 0xff
            0x005de0e9      .byte 0xfd
            0x005de0ea      .byte 0x00
            0x005de0eb      .byte 0x00
            0x005de0ec      .byte 0x00
            0x005de0ed      .byte 0x00
            0x005de0ee      .byte 0x00
            0x005de0ef      .byte 0x00
            0x005de0f0      .byte 0x00
            0x005de0f1      .byte 0x00
            0x005de0f2      .byte 0x00
            0x005de0f3      .byte 0x00
            0x005de0f4      .byte 0x00
            0x005de0f5      .byte 0x00
            0x005de0f6      .byte 0x00
            0x005de0f7      .byte 0x00
            0x005de0f8      .byte 0x00
            0x005de0f9      .byte 0x00
            0x005de0fa      .byte 0x00
            0x005de0fb      .byte 0x00
            0x005de0fc      .byte 0x00
            0x005de0fd      .byte 0x00
            0x005de0fe      .byte 0x00
            0x005de0ff      .byte 0x00
            0x005de100      .byte 0x00
            0x005de101      .byte 0x02
            0x005de102      .byte 0x71
            0x005de103      .byte 0x02
            0x005de104      .byte 0x00
            0x005de105      .byte 0x03
            0x005de106      .byte 0xa9
            0x005de107      .byte 0x89
            0x005de108      .byte 0x00
            0x005de109      .byte 0x04
            0x005de10a      .byte 0xe2
            0x005de10b      .byte 0x10
            0x005de10c      .byte 0x00
            0x005de10d      .byte 0x06
            0x005de10e      .byte 0x1d
            0x005de10f      .byte 0xdc
            0x005de110      .byte 0x00
            0x005de111      .byte 0x07
            0x005de112      .byte 0x57
            0x005de113      .byte 0x0e
            0x005de114      .byte 0x00
            0x005de115      .byte 0x08
            0x005de116      .byte 0x90
            0x005de117      .byte 0x42
            0x005de118      .byte 0x10
            0x005de119      .byte 0x4d
            0x005de11a      .byte 0xe4
            0x005de11b      .byte 0xe3
            0x005de11c      .byte 0x2a
            0x005de11d      .byte 0xf5
            0x005de11e      .byte 0x74
            0x005de11f      .byte 0xfc
            0x005de120      .byte 0x31
            0x005de121      .byte 0xb4
            0x005de122      .byte 0x09
            0x005de123      .byte 0x86
            0x005de124      .byte 0x35
            0x005de125      .byte 0x21
            0x005de126      .byte 0xc9
            0x005de127      .byte 0x34
            0x005de128      .byte 0x00
            0x005de129      .byte 0xea
            0x005de12a      .byte 0x3a
            0x005de12b      .byte 0xcb
            0x005de12c      .byte 0x30
            0x005de12d      .byte 0x42
            0x005de12e      .byte 0x8a
            0x005de12f      .byte 0x19
            0x005de130      .byte 0x00
            0x005de131      .byte 0x00
            0x005de132      .byte 0x00
            0x005de133      .byte 0x00
            0x005de134      .byte 0x00
            0x005de135      .byte 0x00
            0x005de136      .byte 0x00
            0x005de137      .byte 0x00
            0x005de138      .byte 0x0f
            0x005de139     .string "get_extn_limits" ; len=15
            0x005de148      .byte 0x00
            0x005de149      .byte 0x00
            0x005de14a      .byte 0x00
            0x005de14b      .byte 0x00
            0x005de14c      .byte 0x00
            0x005de14d      .byte 0x00
            0x005de14e      .byte 0x00
            0x005de14f      .byte 0x00
            0x005de150      .byte 0x00
            0x005de151      .byte 0x00
            0x005de152      .byte 0x00
            0x005de153      .byte 0x00
            0x005de154      .byte 0x00
            0x005de155      .byte 0x00
            0x005de156      .byte 0x00
            0x005de157      .byte 0x00
            0x005de158      .byte 0x00
            0x005de159      .byte 0x00
            0x005de15a      .byte 0x00
            0x005de15b      .byte 0x00
            0x005de15c      .byte 0x00
            0x005de15d      .byte 0x00
            0x005de15e      .byte 0x00
            0x005de15f      .byte 0x00
            0x005de160      .byte 0x00
            0x005de161      .byte 0x00
            0x005de162      .byte 0x00
            0x005de163      .byte 0x00
            0x005de164      .byte 0x00
            0x005de165      .byte 0x00
            0x005de166      .byte 0x00
            0x005de167      .byte 0x00
            0x005de168      .byte 0x15
            0x005de169     .string "get_extn_limits took " ; len=21
            0x005de17e      .byte 0xbe
            0x005de17f      .byte 0x00
            0x005de180      .byte 0x00
            0x005de181      .byte 0x1e
            0x005de182      .byte 0x00
            0x005de183      .byte 0x01
            0x005de184      .byte 0x06
            0x005de185     .string "Error " ; len=6
            0x005de18b      .byte 0x0d
            0x005de18c     .string " opening map." ; len=13
            0x005de199      .byte 0x06
            0x005de19a     .string "Error " ; len=6
            0x005de1a0      .byte 0x13
            0x005de1a1     .string " from f_clear_bits." ; len=19
            0x005de1b4      .byte 0x00
            0x005de1b5      .byte 0x00
            0x005de1b6      .byte 0x00
            0x005de1b7      .byte 0x00
            0x005de1b8      .byte 0x00
            0x005de1b9      .byte 0x00
            0x005de1ba      .byte 0xff
            0x005de1bb      .byte 0x03
            0x005de1bc      .byte 0x00
            0x005de1bd      .byte 0x00
            0x005de1be      .byte 0x00
            0x005de1bf      .byte 0x00
            0x005de1c0      .byte 0x00
            0x005de1c1      .byte 0x00
            0x005de1c2      .byte 0x00
            0x005de1c3      .byte 0x00
            0x005de1c4      .byte 0x00
            0x005de1c5      .byte 0x00
            0x005de1c6      .byte 0x00
            0x005de1c7      .byte 0x00
            0x005de1c8      .byte 0x00
            0x005de1c9      .byte 0x00
            0x005de1ca      .byte 0x00
            0x005de1cb      .byte 0x00
            0x005de1cc      .byte 0x00
            0x005de1cd      .byte 0x00
            0x005de1ce      .byte 0x00
            0x005de1cf      .byte 0x00
            0x005de1d0      .byte 0x00
            0x005de1d1      .byte 0x00
            0x005de1d2      .byte 0x00
            0x005de1d3      .byte 0x00
            0x005de1d4      .byte 0x00
            0x005de1d5      .byte 0x00
            0x005de1d6      .byte 0x00
            0x005de1d7      .byte 0x00
            0x005de1d8      .byte 0x00
            0x005de1d9      .byte 0x00
            0x005de1da      .byte 0xff
            0x005de1db      .byte 0x03
            0x005de1dc      .byte 0x00
            0x005de1dd      .byte 0x00
            0x005de1de      .byte 0x00
            0x005de1df      .byte 0x00
            0x005de1e0      .byte 0x00
            0x005de1e1      .byte 0x00
            0x005de1e2      .byte 0x00
            0x005de1e3      .byte 0x00
            0x005de1e4      .byte 0x00
            0x005de1e5      .byte 0x00
            0x005de1e6      .byte 0x00
            0x005de1e7      .byte 0x00
            0x005de1e8      .byte 0x00
            0x005de1e9      .byte 0x00
            0x005de1ea      .byte 0x00
            0x005de1eb      .byte 0x00
            0x005de1ec      .byte 0x00
            0x005de1ed      .byte 0x00
            0x005de1ee      .byte 0x00
            0x005de1ef      .byte 0x00
            0x005de1f0      .byte 0x00
            0x005de1f1      .byte 0x00
            0x005de1f2      .byte 0x00
            0x005de1f3      .byte 0x00
            0x005de1f4      .byte 0x0e
            0x005de1f5     .string "Limits. start " ; len=14
            0x005de203      .byte 0x06
            0x005de204     .string ", end " ; len=6
            0x005de20a      .byte 0x04
            0x005de20b      .byte 0x73
            0x005de20c      .byte 0x74
            0x005de20d      .byte 0x6b
            0x005de20e      .byte 0x20
            0x005de20f      .byte 0x04
            0x005de210      .byte 0x70
            0x005de211      .byte 0x69
            0x005de212      .byte 0x63
            0x005de213      .byte 0x20
            0x005de214      .byte 0x00
            0x005de215      .byte 0x00
            0x005de216      .byte 0x00
            0x005de217      .byte 0x00
            0x005de218      .byte 0x00
            0x005de219      .byte 0x12
            0x005de21a     .string "reset search spec " ; len=18
            0x005de22c      .byte 0x05
            0x005de22d     .string " none" ; len=5
            0x005de232      .byte 0x05
            0x005de233     .string " none" ; len=5
            0x005de238      .byte 0x04
            0x005de239      .byte 0x20
            0x005de23a      .byte 0x74
            0x005de23b      .byte 0x6f
            0x005de23c      .byte 0x20
            0x005de23d      .byte 0x04
            0x005de23e      .byte 0x20
            0x005de23f      .byte 0x74
            0x005de240      .byte 0x6f
            0x005de241      .byte 0x20
            0x005de242      .byte 0x05
            0x005de243     .string "User " ; len=5
            0x005de248      .byte 0x02
            0x005de249      .byte 0x20
            0x005de24a      .byte 0x22
            0x005de24b      .byte 0x07
            0x005de24c     .string " Types " ; len=7
            0x005de253      .byte 0x05
            0x005de254     .string " ALL " ; len=5
            0x005de259      .byte 0x0f
            0x005de25a     .string " (non-indexed) " ; len=15
            0x005de269      .byte 0x05
            0x005de26a     .string " min " ; len=5
            0x005de26f      .byte 0x05
            0x005de270     .string " max " ; len=5
            0x005de275      .byte 0x09
            0x005de276     .string " Title: \"" ; len=9
            0x005de27f      .byte 0x02
            0x005de280      .byte 0x22
            0x005de281      .byte 0x20
            0x005de282      .byte 0x0b
            0x005de283     .string "     coded " ; len=11
            0x005de28e      .byte 0x09
            0x005de28f     .string " Categ: \"" ; len=9
            0x005de298      .byte 0x02
            0x005de299      .byte 0x22
            0x005de29a      .byte 0x20
            0x005de29b      .byte 0x09
            0x005de29c     .string " Owner: \"" ; len=9
            0x005de2a5      .byte 0x02
            0x005de2a6      .byte 0x22
            0x005de2a7      .byte 0x20
            0x005de2a8      .byte 0x09
            0x005de2a9     .string " Desc:  \"" ; len=9
            0x005de2b2      .byte 0x02
            0x005de2b3      .byte 0x22
            0x005de2b4      .byte 0x20
            0x005de2b5      .byte 0x08
            0x005de2b6     .string " Dates: " ; len=8
            0x005de2be      .byte 0x09
            0x005de2bf     .string " Number: " ; len=9
            0x005de2c8      .byte 0x02
            0x005de2c9      .byte 0x3a
            0x005de2ca      .byte 0x20
            0x005de2cb      .byte 0x14
            0x005de2cc     .string "last_changed_field: " ; len=20
            0x005de2e0      .byte 0x09
            0x005de2e1     .string "cur file " ; len=9
            0x005de2ea      .byte 0x08
            0x005de2eb     .string "    pos " ; len=8
            0x005de2f3      .byte 0x04
            0x005de2f4      .byte 0x20
            0x005de2f5      .byte 0x6f
            0x005de2f6      .byte 0x66
            0x005de2f7      .byte 0x20
            0x005de2f8      .byte 0x11
            0x005de2f9     .string " New Search user " ; len=17
            0x005de30a      .byte 0x0a
            0x005de30b     .string "Diagnostic" ; len=10
            0x005de315      .byte 0x05
            0x005de316     .string "Task " ; len=5
            0x005de31b      .byte 0x04
            0x005de31c      .byte 0x4e
            0x005de31d      .byte 0x65
            0x005de31e      .byte 0x74
            0x005de31f      .byte 0x20
            0x005de320      .byte 0x05
            0x005de321     .string "user " ; len=5
            0x005de326      .byte 0x1d
            0x005de327     .string "error deleting map from user " ; len=29
            0x005de344      .byte 0x14
            0x005de345     .string " delete Search user " ; len=20
            0x005de359      .byte 0x14
            0x005de35a     .string " delete Search user " ; len=20
            0x005de36e      .byte 0x0c
            0x005de36f     .string " NOT found! " ; len=12
            0x005de37b      .byte 0x0d
            0x005de37c     .string "sea set user " ; len=13
            0x005de389      .byte 0x01
            0x005de38a      .byte 0x20
            0x005de38b      .byte 0x1d
            0x005de38c     .string " failed to create search map " ; len=29
            0x005de3a9      .byte 0x1a
            0x005de3aa     .string "error open map for extend " ; len=26
            0x005de3c4      .byte 0x1a
            0x005de3c5     .string "error extending map, size " ; len=26
            0x005de3df      .byte 0x05
            0x005de3e0     .string "found" ; len=5
            0x005de3e5      .byte 0x05
            0x005de3e6     .string "field" ; len=5
            0x005de3eb      .byte 0x08
            0x005de3ec     .string "scratch1" ; len=8
            0x005de3f4      .byte 0x08
            0x005de3f5     .string "scratch2" ; len=8
            0x005de3fd      .byte 0x13
            0x005de3fe     .string "extending maps for " ; len=19
            0x005de411      .byte 0x14
            0x005de412     .string " for search on vol  " ; len=20
            0x005de426      .byte 0x0a
            0x005de427     .string " old size " ; len=10
            0x005de431      .byte 0x0b
            0x005de432     .string " need size " ; len=11
            0x005de43d      .byte 0x08
            0x005de43e     .string "none    " ; len=8
            0x005de446      .byte 0x08
            0x005de447     .string "title   " ; len=8
            0x005de44f      .byte 0x08
            0x005de450     .string "cats    " ; len=8
            0x005de458      .byte 0x08
            0x005de459     .string "owner   " ; len=8
            0x005de461      .byte 0x08
            0x005de462     .string "types   " ; len=8
            0x005de46a      .byte 0x08
            0x005de46b     .string "times   " ; len=8
            0x005de473      .byte 0x08
            0x005de474     .string "volumes " ; len=8
            0x005de47c      .byte 0x08
            0x005de47d     .string "numbers " ; len=8
            0x005de485      .byte 0x08
            0x005de486     .string "desc    " ; len=8
            0x005de48e      .byte 0x08
            0x005de48f     .string "udf_1   " ; len=8
            0x005de497      .byte 0x08
            0x005de498     .string "udf_2   " ; len=8
            0x005de4a0      .byte 0x08
            0x005de4a1     .string "udf_3   " ; len=8
            0x005de4a9      .byte 0x08
            0x005de4aa     .string "udf_4   " ; len=8
            0x005de4b2      .byte 0x08
            0x005de4b3     .string "status  " ; len=8
            0x005de4bb      .byte 0x08
            0x005de4bc     .string "attrs   " ; len=8
            0x005de4c4      .byte 0x08
            0x005de4c5     .string "spare_15" ; len=8
            0x005de4cd      .byte 0x0e
            0x005de4ce     .string "search users: " ; len=14
            0x005de4dc      .byte 0x05
            0x005de4dd     .string "User " ; len=5
            0x005de4e2      .byte 0x03
            0x005de4e3      .byte 0x20
            0x005de4e4      .byte 0x20
            0x005de4e5      .byte 0x22
            0x005de4e6      .byte 0x09
            0x005de4e7     .string "not found" ; len=9
            0x005de4f0      .byte 0x0f
            0x005de4f1     .string "Sea set string " ; len=15
            0x005de500      .byte 0x02
            0x005de501      .byte 0x20
            0x005de502      .byte 0x22
            0x005de503      .byte 0x0f
            0x005de504     .string "sea_set_string " ; len=15
            0x005de513      .byte 0x0f
            0x005de514     .string " invalid field " ; len=15
            0x005de523      .byte 0x0a
            0x005de524     .string "null field" ; len=10
            0x005de52e      .byte 0x11
            0x005de52f     .string "sea_set_no_types " ; len=17
            0x005de540      .byte 0x0d
            0x005de541     .string "sea add type " ; len=13
            0x005de54e      .byte 0x06
            0x005de54f     .string " type " ; len=6
            0x005de555      .byte 0x30
            0x005de556     .string "Only single non-indexed type allowed in search! " ; len=48
            0x005de586      .byte 0x0e
            0x005de587     .string "sea_set_times " ; len=14
            0x005de595      .byte 0x04
            0x005de596      .byte 0x20
            0x005de597      .byte 0x74
            0x005de598      .byte 0x6f
            0x005de599      .byte 0x20
            0x005de59a      .byte 0x18
            0x005de59b     .string "sea_set_time - bad field" ; len=24
            0x005de5b3      .byte 0x0f
            0x005de5b4     .string "sea_set_numbers" ; len=15
            0x005de5c3      .byte 0x0f
            0x005de5c4     .string "sea_set_num_set" ; len=15
            0x005de5d3      .byte 0x0f
            0x005de5d4     .string "sea_set_attribs" ; len=15
            0x005de5e3      .byte 0x1a
            0x005de5e4     .string "sea_set_volume_list. user " ; len=26
            0x005de5fe      .byte 0x07
            0x005de5ff     .string "Volume " ; len=7
            0x005de606      .byte 0x20
            0x005de607     .string "only searching first 31 volumes!" ; len=32
            0x005de627      .byte 0x00
            0x005de628      .byte 0x00
            0x005de629      .byte 0x00
            0x005de62a      .byte 0x00
            0x005de62b      .byte 0x00
            0x005de62c      .byte 0x00
            0x005de62d      .byte 0x00
            0x005de62e      .byte 0x00
            0x005de62f     .string "cccccccc" ; len=8
            0x005de637      .byte 0x01
            0x005de638      .byte 0x20
            0x005de639      .byte 0x01
            0x005de63a      .byte 0x20
            0x005de63b      .byte 0x00
            0x005de63c      .byte 0x01
            0x005de63d      .byte 0x26
            0x005de63e      .byte 0x15
            0x005de63f     .string "numbered files, pics " ; len=21
            0x005de654      .byte 0x08
            0x005de655     .string " stacks " ; len=8
            0x005de65d      .byte 0x14
            0x005de65e     .string "get num range  vol, " ; len=20
            0x005de672      .byte 0x06
            0x005de673     .string " fwds=" ; len=6
            0x005de679      .byte 0x05
            0x005de67a     .string " stk=" ; len=5
            0x005de67f      .byte 0x08
            0x005de680     .string " region " ; len=8
            0x005de688      .byte 0x06
            0x005de689     .string "  min " ; len=6
            0x005de68f      .byte 0x06
            0x005de690     .string "  max " ; len=6
            0x005de696      .byte 0x0c
            0x005de697     .string " start from " ; len=12
            0x005de6a3      .byte 0x06
            0x005de6a4     .string "Error " ; len=6
            0x005de6aa      .byte 0x0b
            0x005de6ab     .string "get_number " ; len=11
            0x005de6b6      .byte 0x02
            0x005de6b7      .byte 0x2c
            0x005de6b8      .byte 0x20
            0x005de6b9      .byte 0x02
            0x005de6ba      .byte 0x2c
            0x005de6bb      .byte 0x20
            0x005de6bc      .byte 0x0b
            0x005de6bd     .string "not found -" ; len=11
            0x005de6c8      .byte 0x06
            0x005de6c9     .string "Error " ; len=6
            0x005de6cf      .byte 0x14
            0x005de6d0     .string " looking up prn for " ; len=20
            0x005de6e4      .byte 0x04
            0x005de6e5      .byte 0x70
            0x005de6e6      .byte 0x72
            0x005de6e7      .byte 0x6e
            0x005de6e8      .byte 0x20
            0x005de6e9      .byte 0x06
            0x005de6ea     .string ", fid " ; len=6
            0x005de6f0      .byte 0x0d
            0x005de6f1     .string "null prn for " ; len=13
            0x005de6fe      .byte 0x08
            0x005de6ff     .string " number " ; len=8
            0x005de707      .byte 0x06
            0x005de708     .string "Error " ; len=6
            0x005de70e      .byte 0x0d
            0x005de70f     .string " setting bit." ; len=13
            0x005de71c      .byte 0x10
            0x005de71d     .string " bits set after " ; len=16
            0x005de72d      .byte 0x04
            0x005de72e      .byte 0x6e
            0x005de72f      .byte 0x75
            0x005de730      .byte 0x6d
            0x005de731      .byte 0x73
            0x005de732      .byte 0x14
            0x005de733     .string "build_num_map , vol " ; len=20
            0x005de747      .byte 0x02
            0x005de748      .byte 0x2c
            0x005de749      .byte 0x20
            0x005de74a      .byte 0x04
            0x005de74b      .byte 0x20
            0x005de74c      .byte 0x74
            0x005de74d      .byte 0x6f
            0x005de74e      .byte 0x20
            0x005de74f      .byte 0x0b
            0x005de750     .string "opening map" ; len=11
            0x005de75b      .byte 0x14
            0x005de75c     .string "getting map size for" ; len=20
            0x005de770      .byte 0x15
            0x005de771     .string "setting bits for null" ; len=21
            0x005de786      .byte 0x10
            0x005de787     .string "clearing num map" ; len=16
            0x005de797      .byte 0x0d
            0x005de798     .string " bits set in " ; len=13
            0x005de7a5      .byte 0x04
            0x005de7a6      .byte 0x20
            0x005de7a7      .byte 0x6d
            0x005de7a8      .byte 0x61
            0x005de7a9      .byte 0x70
            0x005de7aa      .byte 0x06
            0x005de7ab     .string "Error " ; len=6
            0x005de7b1      .byte 0x0e
            0x005de7b2     .string "build_str_map " ; len=14
            0x005de7c0      .byte 0x02
            0x005de7c1      .byte 0x20
            0x005de7c2      .byte 0x3c
            0x005de7c3      .byte 0x08
            0x005de7c4     .string ">. mark " ; len=8
            0x005de7cc      .byte 0x0d
            0x005de7cd     .string ", mt set all " ; len=13
            0x005de7da      .byte 0x08
            0x005de7db     .string ", range " ; len=8
            0x005de7e3      .byte 0x06
            0x005de7e4     .string "Error " ; len=6
            0x005de7ea      .byte 0x0d
            0x005de7eb     .string " opening map." ; len=13
            0x005de7f8      .byte 0x06
            0x005de7f9     .string "Error " ; len=6
            0x005de7ff      .byte 0x17
            0x005de800     .string " opening scratch map 1." ; len=23
            0x005de817      .byte 0x06
            0x005de818     .string "Error " ; len=6
            0x005de81e      .byte 0x17
            0x005de81f     .string " opening scratch map 2." ; len=23
            0x005de836      .byte 0x07
            0x005de837     .string "getting" ; len=7
            0x005de83e      .byte 0x0a
            0x005de83f     .string " keywords." ; len=10
            0x005de849      .byte 0x14
            0x005de84a     .string "getting map size for" ; len=20
            0x005de85e      .byte 0x01
            0x005de85f      .byte 0x2e
            0x005de860      .byte 0x15
            0x005de861     .string "setting bits for null" ; len=21
            0x005de876      .byte 0x01
            0x005de877      .byte 0x2e
            0x005de878      .byte 0x0d
            0x005de879     .string "searching for" ; len=13
            0x005de886      .byte 0x0a
            0x005de887     .string " keywords." ; len=10
            0x005de891      .byte 0x0d
            0x005de892     .string " bits set in " ; len=13
            0x005de89f      .byte 0x04
            0x005de8a0      .byte 0x20
            0x005de8a1      .byte 0x6d
            0x005de8a2      .byte 0x61
            0x005de8a3      .byte 0x70
            0x005de8a4      .byte 0x10
            0x005de8a5     .string " bits set in map" ; len=16
            0x005de8b5      .byte 0x06
            0x005de8b6     .string "Error " ; len=6
            0x005de8bc      .byte 0x0d
            0x005de8bd     .string " opening map." ; len=13
            0x005de8ca      .byte 0x06
            0x005de8cb     .string "Error " ; len=6
            0x005de8d1      .byte 0x08
            0x005de8d2     .string " Anding " ; len=8
            0x005de8da      .byte 0x05
            0x005de8db     .string " map." ; len=5
            0x005de8e0      .byte 0x0e
            0x005de8e1     .string " after anding " ; len=14
            0x005de8ef      .byte 0x06
            0x005de8f0     .string "Error " ; len=6
            0x005de8f6      .byte 0x0d
            0x005de8f7     .string " opening map." ; len=13
            0x005de904      .byte 0x06
            0x005de905     .string "Error " ; len=6
            0x005de90b      .byte 0x09
            0x005de90c     .string " Copying " ; len=9
            0x005de915      .byte 0x05
            0x005de916     .string " map." ; len=5
            0x005de91b      .byte 0x06
            0x005de91c     .string " from " ; len=6
            0x005de922      .byte 0x06
            0x005de923     .string "Error " ; len=6
            0x005de929      .byte 0x17
            0x005de92a     .string " opening keep-lose map." ; len=23
            0x005de941      .byte 0x06
            0x005de942     .string "Error " ; len=6
            0x005de948      .byte 0x13
            0x005de949     .string " opening found map." ; len=19
            0x005de95c      .byte 0x06
            0x005de95d     .string "Error " ; len=6
            0x005de963      .byte 0x16
            0x005de964     .string " Oring map into found." ; len=22
            0x005de97a      .byte 0x06
            0x005de97b     .string "Error " ; len=6
            0x005de981      .byte 0x18
            0x005de982     .string " Copying map into found." ; len=24
            0x005de99a      .byte 0x2b
            0x005de99b     .string " bits set in output map after copying back." ; len=43
            0x005de9c6      .byte 0x00
            0x005de9c7      .byte 0x00
            0x005de9c8      .byte 0x00
            0x005de9c9      .byte 0x00
            0x005de9ca      .byte 0x00
            0x005de9cb      .byte 0x0a
            0x005de9cc      .byte 0x1a
            0x005de9cd     .string "Can't build_map for field " ; len=26
            0x005de9e7      .byte 0x0b
            0x005de9e8     .string "build map  " ; len=11
            0x005de9f3      .byte 0x02
            0x005de9f4      .byte 0x20
            0x005de9f5      .byte 0x20
            0x005de9f6      .byte 0x02
            0x005de9f7      .byte 0x20
            0x005de9f8      .byte 0x20
            0x005de9f9      .byte 0x04
            0x005de9fa      .byte 0x20
            0x005de9fb      .byte 0x74
            0x005de9fc      .byte 0x6f
            0x005de9fd      .byte 0x20
            0x005de9fe      .byte 0x03
            0x005de9ff      .byte 0x20
            0x005dea00      .byte 0x20
            0x005dea01      .byte 0x22
            0x005dea02      .byte 0x06
            0x005dea03     .string " NULL " ; len=6
            0x005dea09      .byte 0x10
            0x005dea0a     .string " set_all_on_null" ; len=16
            0x005dea1a      .byte 0x08
            0x005dea1b     .string " - took " ; len=8
            0x005dea23      .byte 0x06
            0x005dea24     .string "ERROR " ; len=6
            0x005dea2a      .byte 0x06
            0x005dea2b     .string "ERROR " ; len=6
            0x005dea31      .byte 0x11
            0x005dea32     .string " Build found map " ; len=17
            0x005dea43      .byte 0x05
            0x005dea44     .string " vol " ; len=5
            0x005dea49      .byte 0x0f
            0x005dea4a     .string "build title map" ; len=15
            0x005dea59      .byte 0x0d
            0x005dea5a     .string "opening found" ; len=13
            0x005dea67      .byte 0x0c
            0x005dea68     .string "building map" ; len=12
            0x005dea74      .byte 0x0b
            0x005dea75     .string "opening map" ; len=11
            0x005dea80      .byte 0x0b
            0x005dea81     .string "ANDing maps" ; len=11
            0x005dea8c      .byte 0x0a
            0x005dea8d     .string "count bits" ; len=10
            0x005dea97      .byte 0x0b
            0x005dea98     .string "files found" ; len=11
            0x005deaa3      .byte 0x1c
            0x005deaa4     .string "sea_wait_searches_complete. " ; len=28
            0x005deac0      .byte 0x02
            0x005deac1      .byte 0x31
            0x005deac2      .byte 0x2e
            0x005deac3      .byte 0x02
            0x005deac4      .byte 0x32
            0x005deac5      .byte 0x20
            0x005deac6      .byte 0x02
            0x005deac7     .string "3." ; len=2
            0x005deac9      .byte 0x34
            0x005deaca     .string "sea wait searches called  with search task disabled!" ; len=52
            0x005deafe      .byte 0x0a
            0x005deaff     .string "s_s_r. 1. " ; len=10
            0x005deb09      .byte 0x18
            0x005deb0a     .string "signal_search_required. " ; len=24
            0x005deb22      .byte 0x09
            0x005deb23     .string "s_s_r. 2." ; len=9
            0x005deb2c      .byte 0x09
            0x005deb2d     .string "s_s_r. 3." ; len=9
            0x005deb36      .byte 0x30
            0x005deb37     .string "signal search called  with search task disabled!" ; len=48
            0x005deb67      .byte 0x18
            0x005deb68     .string "sea2_search_change. vol " ; len=24
            0x005deb80      .byte 0x08
            0x005deb81     .string ", field " ; len=8
            0x005deb89      .byte 0x09
            0x005deb8a     .string "Searcher:" ; len=9
            0x005deb93      .byte 0x00
            0x005deb94      .byte 0x00
            0x005deb95      .byte 0x00
            0x005deb96      .byte 0x00
            0x005deb97      .byte 0x00
            0x005deb98      .byte 0x01
            0x005deb99      .byte 0x00
            0x005deb9a      .byte 0x00
            0x005deb9b      .byte 0x00
            0x005deb9c     .string "1? Searching unable to access public number tables0? Searching unable to access local number tables" ; len=99
            0x005debff      .byte 0x13
            0x005dec00     .string "Search task paused." ; len=19
            0x005dec13      .byte 0x0e
            0x005dec14     .string "Auto searching" ; len=14
            0x005dec22      .byte 0x12
            0x005dec23     .string "Starting searches." ; len=18
            0x005dec35      .byte 0x0d
            0x005dec36     .string "search field " ; len=13
            0x005dec43      .byte 0x09
            0x005dec44     .string ", volume " ; len=9
            0x005dec4d      .byte 0x11
            0x005dec4e     .string "  primary_disk = " ; len=17
            0x005dec5f      .byte 0x06
            0x005dec60     .string "Error " ; len=6
            0x005dec66      .byte 0x0d
            0x005dec67     .string " building map" ; len=13
            0x005dec74      .byte 0x05
            0x005dec75     .string " for " ; len=5
            0x005dec7a      .byte 0x07
            0x005dec7b     .string "  disk " ; len=7
            0x005dec82      .byte 0x0c
            0x005dec83     .string "search took " ; len=12
            0x005dec8f      .byte 0x1f
            0x005dec90     .string "signal search_completed, field " ; len=31
            0x005decaf      .byte 0x09
            0x005decb0     .string ", volume " ; len=9
            0x005decb9      .byte 0x02
            0x005decba      .byte 0x31
            0x005decbb      .byte 0x20
            0x005decbc      .byte 0x02
            0x005decbd      .byte 0x32
            0x005decbe      .byte 0x20
            0x005decbf      .byte 0x16
            0x005decc0     .string "all searches completed" ; len=22
            0x005decd6      .byte 0x1a
            0x005decd7     .string "indexed_start_search. vol " ; len=26
            0x005decf1      .byte 0x37
            0x005decf2     .string "indexed start search called  with search task disabled!" ; len=55
            0x005ded29      .byte 0x1e
            0x005ded2a     .string "Indexed_Start_search - volume " ; len=30
            0x005ded48      .byte 0x1a
            0x005ded49     .string " not enabled. Re-enabling " ; len=26
            0x005ded63      .byte 0x11
            0x005ded64     .string "Save. Before. in " ; len=17
            0x005ded75      .byte 0x06
            0x005ded76     .string ", out " ; len=6
            0x005ded7c      .byte 0x10
            0x005ded7d     .string "Save. After. in " ; len=16
            0x005ded8d      .byte 0x06
            0x005ded8e     .string ", out " ; len=6
            0x005ded94      .byte 0x10
            0x005ded95     .string "No writeble map " ; len=16
            0x005deda5      .byte 0x06
            0x005deda6     .string "Error " ; len=6
            0x005dedac      .byte 0x14
            0x005dedad     .string " opening recall map." ; len=20
            0x005dedc1      .byte 0x15
            0x005dedc2     .string "Saving to recall map " ; len=21
            0x005dedd7      .byte 0x06
            0x005dedd8     .string "Error " ; len=6
            0x005dedde      .byte 0x17
            0x005deddf     .string " saving map for recall." ; len=23
            0x005dedf6      .byte 0x10
            0x005dedf7     .string "save recall map " ; len=16
            0x005dee07      .byte 0x14
            0x005dee08     .string "Failed to count bit " ; len=20
            0x005dee1c      .byte 0x02
            0x005dee1d      .byte 0x2c
            0x005dee1e      .byte 0x20
            0x005dee1f      .byte 0x04
            0x005dee20      .byte 0x42
            0x005dee21      .byte 0x69
            0x005dee22      .byte 0x74
            0x005dee23      .byte 0x20
            0x005dee24      .byte 0x05
            0x005dee25     .string " set." ; len=5
            0x005dee2a      .byte 0x04
            0x005dee2b      .byte 0x42
            0x005dee2c      .byte 0x69
            0x005dee2d      .byte 0x74
            0x005dee2e      .byte 0x20
            0x005dee2f      .byte 0x07
            0x005dee30     .string " clear." ; len=7
            0x005dee37      .byte 0x09
            0x005dee38     .string "???? Bit " ; len=9
            0x005dee41      .byte 0x05
            0x005dee42     .string " set " ; len=5
            0x005dee47      .byte 0x07
            0x005dee48     .string " times." ; len=7
            0x005dee4f      .byte 0x0f
            0x005dee50     .string "afs keep_lose. " ; len=15
            0x005dee5f      .byte 0x08
            0x005dee60     .string ", field " ; len=8
            0x005dee68      .byte 0x06
            0x005dee69     .string "  vol " ; len=6
            0x005dee6f      .byte 0x06
            0x005dee70     .string "Error " ; len=6
            0x005dee76      .byte 0x13
            0x005dee77     .string " opening found map." ; len=19
            0x005dee8a      .byte 0x06
            0x005dee8b     .string "Error " ; len=6
            0x005dee91      .byte 0x17
            0x005dee92     .string " opening keep-lose map." ; len=23
            0x005deea9      .byte 0x00
            0x005deeaa      .byte 0x41
            0x005deeab      .byte 0x00
            0x005deeac      .byte 0x17
            0x005deead     .string " bits set in output map" ; len=23
            0x005deec4      .byte 0x06
            0x005deec5     .string "Error " ; len=6
            0x005deecb      .byte 0x18
            0x005deecc     .string " building keep/lose map." ; len=24
            0x005deee4      .byte 0x1a
            0x005deee5     .string "Error saving recall map : " ; len=26
            0x005deeff      .byte 0x21
            0x005def00     .string " bits currently set in output map" ; len=33
            0x005def21      .byte 0x1a
            0x005def22     .string " bits set in keep/lose map" ; len=26
            0x005def3c      .byte 0x06
            0x005def3d     .string "Error " ; len=6
            0x005def43      .byte 0x1e
            0x005def44     .string " combining maps for keep/lose." ; len=30
            0x005def62      .byte 0x17
            0x005def63     .string " bits set in output map" ; len=23
            0x005def7a      .byte 0x0b
            0x005def7b     .string "afs recall." ; len=11
            0x005def86      .byte 0x06
            0x005def87     .string "Error " ; len=6
            0x005def8d      .byte 0x13
            0x005def8e     .string " opening found map." ; len=19
            0x005defa1      .byte 0x0b
            0x005defa2     .string "Recall map " ; len=11
            0x005defad      .byte 0x07
            0x005defae     .string "No map " ; len=7
            0x005defb5      .byte 0x06
            0x005defb6     .string "Error " ; len=6
            0x005defbc      .byte 0x14
            0x005defbd     .string " opening recall map." ; len=20
            0x005defd1      .byte 0x06
            0x005defd2     .string "Error " ; len=6
            0x005defd8      .byte 0x0f
            0x005defd9     .string " recalling map." ; len=15
            0x005defe8      .byte 0x13
            0x005defe9     .string "Recall. Before. in " ; len=19
            0x005deffc      .byte 0x06
            0x005deffd     .string ", out " ; len=6
            0x005df003      .byte 0x12
            0x005df004     .string "Recall. After. in " ; len=18
            0x005df016      .byte 0x06
            0x005df017     .string ", out " ; len=6
            0x005df01d      .byte 0x17
            0x005df01e     .string " bits set in output map" ; len=23
            0x005df035      .byte 0x06
            0x005df036     .string "match " ; len=6
            0x005df03c      .byte 0x0f
            0x005df03d     .string "Failed to find " ; len=15
            0x005df04c      .byte 0x08
            0x005df04d     .string " plane. " ; len=8
            0x005df055      .byte 0x16
            0x005df056     .string "sea linear search from" ; len=22
            0x005df06c      .byte 0x07
            0x005df06d     .string " types " ; len=7
            0x005df074      .byte 0x04
            0x005df075      .byte 0x20
            0x005df076      .byte 0x74
            0x005df077      .byte 0x6f
            0x005df078      .byte 0x20
            0x005df079      .byte 0x08
            0x005df07a     .string " titles " ; len=8
            0x005df082      .byte 0x06
            0x005df083     .string " cats " ; len=6
            0x005df089      .byte 0x07
            0x005df08a     .string " owner " ; len=7
            0x005df091      .byte 0x0a
            0x005df092     .string "AFS Error " ; len=10
            0x005df09c      .byte 0x0f
            0x005df09d     .string " finding files." ; len=15
            0x005df0ac      .byte 0x0a
            0x005df0ad     .string "checking  " ; len=10
            0x005df0b7      .byte 0x06
            0x005df0b8     .string " type " ; len=6
            0x005df0be      .byte 0x0a
            0x005df0bf     .string "AFS Error " ; len=10
            0x005df0c9      .byte 0x10
            0x005df0ca     .string " getting header." ; len=16
            0x005df0da      .byte 0x0d
            0x005df0db     .string "Search error " ; len=13
            0x005df0e8      .byte 0x19
            0x005df0e9     .string " getting create time for " ; len=25
            0x005df102      .byte 0x17
            0x005df103     .string "File from the future ! " ; len=23
            0x005df11a      .byte 0x00
            0x005df11b      .byte 0x00
            0x005df11c      .byte 0x00
            0x005df11d      .byte 0x00
            0x005df11e      .byte 0x11
            0x005df11f     .string "pic_number found " ; len=17
            0x005df130      .byte 0x17
            0x005df131     .string " shouldn't be nonumber." ; len=23
            0x005df148      .byte 0x15
            0x005df149     .string "pic_number not found " ; len=21
            0x005df15e      .byte 0x14
            0x005df15f     .string " should be nonumber." ; len=20
            0x005df173      .byte 0x03
            0x005df174      .byte 0x70
            0x005df175      .byte 0x69
            0x005df176      .byte 0x63
            0x005df177      .byte 0x04
            0x005df178      .byte 0x73
            0x005df179      .byte 0x74
            0x005df17a      .byte 0x65
            0x005df17b      .byte 0x6e
            0x005df17c      .byte 0x05
            0x005df17d     .string "black" ; len=5
            0x005df182      .byte 0x09
            0x005df183     .string "clip path" ; len=9
            0x005df18c      .byte 0x21
            0x005df18d     .string "sea_indexed_file_list. diskstart " ; len=33
            0x005df1ae      .byte 0x0b
            0x005df1af     .string ", forwards " ; len=11
            0x005df1ba      .byte 0x06
            0x005df1bb     .string ", fid " ; len=6
            0x005df1c1      .byte 0x0b
            0x005df1c2     .string " num found " ; len=11
            0x005df1cd      .byte 0x2b
            0x005df1ce     .string "num field active, no numbered types enabled" ; len=43
            0x005df1f9      .byte 0x06
            0x005df1fa     .string "Error " ; len=6
            0x005df200      .byte 0x0d
            0x005df201     .string " opening map." ; len=13
            0x005df20e      .byte 0x16
            0x005df20f     .string " bits set in found map" ; len=22
            0x005df225      .byte 0x26
            0x005df226     .string "!! map bit count <> num_found param!! " ; len=38
            0x005df24c      .byte 0x0c
            0x005df24d     .string "start num = " ; len=12
            0x005df259      .byte 0x07
            0x005df25a     .string " stack " ; len=7
            0x005df261      .byte 0x0b
            0x005df262     .string "fid_lookup." ; len=11
            0x005df26d      .byte 0x06
            0x005df26e     .string "Error " ; len=6
            0x005df274      .byte 0x13
            0x005df275     .string " finding start prn." ; len=19
            0x005df288      .byte 0x18
            0x005df289     .string "fid_lookup returned prn " ; len=24
            0x005df2a1      .byte 0x07
            0x005df2a2     .string "Not OK " ; len=7
            0x005df2a9      .byte 0x1d
            0x005df2aa     .string " set num scan from diskstart " ; len=29
            0x005df2c7      .byte 0x07
            0x005df2c8     .string " satck " ; len=7
            0x005df2cf      .byte 0x0e
            0x005df2d0     .string "num scan from " ; len=14
            0x005df2de      .byte 0x06
            0x005df2df     .string "Error " ; len=6
            0x005df2e5      .byte 0x0f
            0x005df2e6     .string " finding number" ; len=15
            0x005df2f5      .byte 0x28
            0x005df2f6     .string "change to other number table, stack now " ; len=40
            0x005df31e      .byte 0x0d
            0x005df31f     .string "found number " ; len=13
            0x005df32c      .byte 0x13
            0x005df32d     .string "Number table fault " ; len=19
            0x005df340      .byte 0x0c
            0x005df341     .string " references " ; len=12
            0x005df34d      .byte 0x0d
            0x005df34e     .string " - wrong vol " ; len=13
            0x005df35b      .byte 0x06
            0x005df35c     .string "Error " ; len=6
            0x005df362      .byte 0x11
            0x005df363     .string " finding prn for " ; len=17
            0x005df374      .byte 0x18
            0x005df375     .string "fid_lookup returned prn " ; len=24
            0x005df38d      .byte 0x19
            0x005df38e     .string "error checking found map " ; len=25
            0x005df3a7      .byte 0x16
            0x005df3a8     .string " prn not in found map " ; len=22
            0x005df3be      .byte 0x0a
            0x005df3bf     .string "start prn " ; len=10
            0x005df3c9      .byte 0x0a
            0x005df3ca     .string "AFS Error " ; len=10
            0x005df3d4      .byte 0x0e
            0x005df3d5     .string " finding file." ; len=14
            0x005df3e3      .byte 0x09
            0x005df3e4     .string "next_prn " ; len=9
            0x005df3ed      .byte 0x10
            0x005df3ee     .string "Limit of volume " ; len=16
            0x005df3fe      .byte 0x09
            0x005df3ff     .string " reached." ; len=9
            0x005df408      .byte 0x0f
            0x005df409     .string "prn_lookup prn " ; len=15
            0x005df418      .byte 0x0a
            0x005df419     .string "AFS Error " ; len=10
            0x005df423      .byte 0x10
            0x005df424     .string " looking up fid." ; len=16
            0x005df434      .byte 0x04
            0x005df435      .byte 0x46
            0x005df436      .byte 0x69
            0x005df437      .byte 0x64
            0x005df438      .byte 0x20
            0x005df439      .byte 0x06
            0x005df43a     .string "Error " ; len=6
            0x005df440      .byte 0x13
            0x005df441     .string " getting extn/time " ; len=19
            0x005df454      .byte 0x0a
            0x005df455     .string " via  PRN " ; len=10
            0x005df45f      .byte 0x0a
            0x005df460     .string "file type " ; len=10
            0x005df46a      .byte 0x1b
            0x005df46b     .string "not displayed for ALL types" ; len=27
            0x005df486      .byte 0x05
            0x005df487     .string "File " ; len=5
            0x005df48c      .byte 0x13
            0x005df48d     .string " from the future ! " ; len=19
            0x005df4a0      .byte 0x0e
            0x005df4a1     .string "Clear map prn " ; len=14
            0x005df4af      .byte 0x09
            0x005df4b0     .string "!  Error " ; len=9
            0x005df4b9      .byte 0x1a
            0x005df4ba     .string " clearing bit in found map" ; len=26
            0x005df4d4      .byte 0x1a
            0x005df4d5     .string " - num_found changed from " ; len=26
            0x005df4ef      .byte 0x04
            0x005df4f0      .byte 0x20
            0x005df4f1      .byte 0x74
            0x005df4f2      .byte 0x6f
            0x005df4f3      .byte 0x20
            0x005df4f4      .byte 0x1f
            0x005df4f5     .string "sea_lib_search( $sea_continue )" ; len=31
            0x005df514      .byte 0x23
            0x005df515     .string "sea_lib_search( $sea_first_search )" ; len=35
            0x005df538      .byte 0x21
            0x005df539     .string "sea_lib_search( $sea_first_keep )" ; len=33
            0x005df55a      .byte 0x21
            0x005df55b     .string "sea_lib_search( $sea_first_lose )" ; len=33
            0x005df57c      .byte 0x1d
            0x005df57d     .string "sea_lib_search( $sea_recall )" ; len=29
            0x005df59a      .byte 0x13
            0x005df59b     .string "sea_set_field_type " ; len=19
            0x005df5ae      .byte 0x10
            0x005df5af     .string "Search add Extn " ; len=16
            0x005df5bf      .byte 0x0f
            0x005df5c0     .string ", in all group " ; len=15
            0x005df5cf      .byte 0x0e
            0x005df5d0     .string "Indexed search" ; len=14
            0x005df5de      .byte 0x11
            0x005df5df     .string "search spec size " ; len=17
            0x005df5f0      .byte 0x0f
            0x005df5f1     .string "operator_search" ; len=15
            0x005df600      .byte 0x0d
            0x005df601     .string "operator_keep" ; len=13
            0x005df60e      .byte 0x0d
            0x005df60f      .byte 0x6f
            0x005df610      .byte 0x70
            0x005df611      .byte 0x65
            0x005df612      .byte 0x72
            0x005df613      .byte 0x61
            0x005df614      .byte 0x74
            0x005df615      .byte 0x6f
            0x005df616      .byte 0x72
            0x005df617      .byte 0x5f
            0x005df618      .byte 0x6c
            0x005df619      .byte 0x6f
            0x005df61a      .byte 0x73
            0x005df61b      .byte 0x65
            ; CALL XREF from INDEX_QUEUE.local_reindex @ 0x5d4b2c
            ; CALL XREF from INDEX_QUEUE.check_all_index @ 0x5d61fc
            ; CALL XREF from SEARCH_DISKS.sea2_do_index @ 0x5dbba8
            ; CALL XREF from SEARCH_DISKS.sea_reindex @ 0x5dd1e8
            ; CALL XREF from SEARCH_DISKS.sea_index @ 0x5dd6d8
 88: SEARCHER.indexed_extn ();
           0x005df61c      4e56ffe6       link.w a6, 0xffe6
           0x005df620      bfd5           cmpa.l (a5), a7
       < 0x005df622      6206           bhi.b 0x5df62a
          0x005df624      44fc0002       move.w 0x2, ccr
          0x005df628      4e76           trapv
       > 0x005df62a      defc0014       adda.w 0x14, a7
           0x005df62e      48e78380       movem.l d0/d6-d7/a0, -(a7)
           0x005df632      7e00           moveq 0x0, d7
           0x005df634      7c00           moveq 0x0, d6
       > 0x005df636      beb900841a9e   cmp.l 0x841a9e, d7
      < 0x005df63c      6e2a           bgt.b 0x5df668
         0x005df63e      4a06           tst.b d6
     < 0x005df640      6626           bne.b 0x5df668
        0x005df642      0c87000000ff   cmpi.l 0xff, d7
    < 0x005df648      6302           bls.b 0x5df64c
       0x005df64a      4e4f           trap 0xf
    > 0x005df64c      2007           move.l d7, d0
        0x005df64e      e580           asl.l 0x2, d0
        0x005df650      41f900841a5a   lea.l 0x841a5a, a0
        0x005df656      30300848       move.w 0x48(a0, d0.l), d0
        0x005df65a      b06e0008       cmp.w 0x8(a6), d0
    < 0x005df65e      6604           bne.b 0x5df664
       0x005df660      7c01           moveq 0x1, d6
   < 0x005df662      6002           bra.b 0x5df666
   > 0x005df664      5287           addq.l 0x1, d7
   < 0x005df666      60ce           bra.b 0x5df636
     > 0x005df668      1d46000a       move.b d6, 0xa(a6)
           0x005df66c      4cdf01c1       movem.l (a7)+, d0/d6-d7/a0
           0x005df670      4e5e           unlk a6
           0x005df672      4e75           rts
            ; CALL XREF from SEARCHER.sea_linear_lib_ @ 0x5e4912
            ; CALL XREF from SEARCHER.sea_indexed_fil @ 0x5e5a56
 124: SEARCHER.in_all_types_gr ();
           0x005df674      4e56ffde       link.w a6, 0xffde
           0x005df678      bfd5           cmpa.l (a5), a7
       < 0x005df67a      6206           bhi.b 0x5df682
          0x005df67c      44fc0002       move.w 0x2, ccr
          0x005df680      4e76           trapv
       > 0x005df682      defc001c       adda.w 0x1c, a7
           0x005df686      48e7c3c0       movem.l d0-d1/d6-d7/a0-a1, -(a7)
           0x005df68a      43f900841a5a   lea.l 0x841a5a, a1
           0x005df690      422e000a       clr.b 0xa(a6)
           0x005df694      7e00           moveq 0x0, d7
           0x005df696      7c00           moveq 0x0, d6
       > 0x005df698      beb900841a9e   cmp.l 0x841a9e, d7
      < 0x005df69e      6e26           bgt.b 0x5df6c6
         0x005df6a0      4a06           tst.b d6
     < 0x005df6a2      6622           bne.b 0x5df6c6
        0x005df6a4      0c87000000ff   cmpi.l 0xff, d7
    < 0x005df6aa      6302           bls.b 0x5df6ae
       0x005df6ac      4e4f           trap 0xf
    > 0x005df6ae      2007           move.l d7, d0
        0x005df6b0      e580           asl.l 0x2, d0
        0x005df6b2      2049           movea.l a1, a0
        0x005df6b4      30300848       move.w 0x48(a0, d0.l), d0
        0x005df6b8      b06e0008       cmp.w 0x8(a6), d0
    < 0x005df6bc      6604           bne.b 0x5df6c2
       0x005df6be      7c01           moveq 0x1, d6
   < 0x005df6c0      6002           bra.b 0x5df6c4
   > 0x005df6c2      5287           addq.l 0x1, d7
   < 0x005df6c4      60d2           bra.b 0x5df698
     > 0x005df6c6      4a06           tst.b d6
       < 0x005df6c8      671e           beq.b 0x5df6e8
          0x005df6ca      0c87000000ff   cmpi.l 0xff, d7
      < 0x005df6d0      6302           bls.b 0x5df6d4
         0x005df6d2      4e4f           trap 0xf
      > 0x005df6d4      2007           move.l d7, d0
          0x005df6d6      e580           asl.l 0x2, d0
          0x005df6d8      2049           movea.l a1, a0
          0x005df6da      1230084a       move.b 0x4a(a0, d0.l), d1
          0x005df6de      4881           ext.w d1
          0x005df6e0      43bc0001       chk.w 0x1, d1
          0x005df6e4      1d41000a       move.b d1, 0xa(a6)
       > 0x005df6e8      4cdf03c3       movem.l (a7)+, d0-d1/d6-d7/a0-a1
           0x005df6ec      4e5e           unlk a6
           0x005df6ee      4e75           rts
 106: SEARCHER.interesting_ext ();
           0x005df6f0      4e56ffd6       link.w a6, 0xffd6
           0x005df6f4      bfd5           cmpa.l (a5), a7
       < 0x005df6f6      6206           bhi.b 0x5df6fe
          0x005df6f8      44fc0002       move.w 0x2, ccr
          0x005df6fc      4e76           trapv
       > 0x005df6fe      defc0026       adda.w 0x26, a7
           0x005df702      48e7e180       movem.l d0-d2/d7/a0, -(a7)
           0x005df706      422e000c       clr.b 0xc(a6)
           0x005df70a      102e0008       move.b 0x8(a6), d0
           0x005df70e      4400           neg.b d0
           0x005df710      5200           addq.b 0x1, d0
           0x005df712      2f3900841a9e   move.l 0x841a9e, -(a7)
           0x005df718      7e00           moveq 0x0, d7
       > 0x005df71a      be97           cmp.l (a7), d7
      < 0x005df71c      6e32           bgt.b 0x5df750
         0x005df71e      0c87000000ff   cmpi.l 0xff, d7
     < 0x005df724      6302           bls.b 0x5df728
        0x005df726      4e4f           trap 0xf
     > 0x005df728      2207           move.l d7, d1
         0x005df72a      e581           asl.l 0x2, d1
         0x005df72c      41f900841a5a   lea.l 0x841a5a, a0
         0x005df732      34301848       move.w 0x48(a0, d1.l), d2
         0x005df736      b46e000a       cmp.w 0xa(a6), d2
     < 0x005df73a      6610           bne.b 0x5df74c
        0x005df73c      1400           move.b d0, d2
        0x005df73e      8430184a       or.b 0x4a(a0, d1.l), d2
        0x005df742      4882           ext.w d2
        0x005df744      45bc0001       chk.w 0x1, d2
        0x005df748      1d42000c       move.b d2, 0xc(a6)
     > 0x005df74c      5287           addq.l 0x1, d7
      < 0x005df74e      68ca           bvc.b 0x5df71a
      > 0x005df750      584f           addq.w 0x4, a7
           0x005df752      4cdf0187       movem.l (a7)+, d0-d2/d7/a0
           0x005df756      4e5e           unlk a6
           0x005df758      4e75           rts
            ; CALL XREF from SEARCH_DISKS.sea_reindex @ 0x5dc926
 112: SEARCHER.sea_extn_limits ();
           0x005df75a      4e56ffca       link.w a6, 0xffca
           0x005df75e      bfd5           cmpa.l (a5), a7
       < 0x005df760      6206           bhi.b 0x5df768
          0x005df762      44fc0002       move.w 0x2, ccr
          0x005df766      4e76           trapv
       > 0x005df768      defc0032       adda.w 0x32, a7
           0x005df76c      48e7c1e0       movem.l d0-d1/d7/a0-a2, -(a7)
           0x005df770      206e000c       movea.l 0xc(a6), a0
           0x005df774      30bcffff       move.w 0xffff, (a0)
           0x005df778      206e0008       movea.l 0x8(a6), a0
           0x005df77c      4250           clr.w (a0)
           0x005df77e      206e000c       movea.l 0xc(a6), a0
           0x005df782      2f3900841a9e   move.l 0x841a9e, -(a7)
           0x005df788      7e00           moveq 0x0, d7
       > 0x005df78a      be97           cmp.l (a7), d7
      < 0x005df78c      6e32           bgt.b 0x5df7c0
         0x005df78e      0c87000000ff   cmpi.l 0xff, d7
     < 0x005df794      6302           bls.b 0x5df798
        0x005df796      4e4f           trap 0xf
     > 0x005df798      2007           move.l d7, d0
         0x005df79a      e580           asl.l 0x2, d0
         0x005df79c      43f900841a5a   lea.l 0x841a5a, a1
         0x005df7a2      4a710848       tst.w 0x48(a1, d0.l)
     < 0x005df7a6      6714           beq.b 0x5df7bc
        0x005df7a8      32310848       move.w 0x48(a1, d0.l), d1
        0x005df7ac      b250           cmp.w (a0), d1
    < 0x005df7ae      6402           bcc.b 0x5df7b2
       0x005df7b0      3081           move.w d1, (a0)
    > 0x005df7b2      246e0008       movea.l 0x8(a6), a2
        0x005df7b6      b252           cmp.w (a2), d1
    < 0x005df7b8      6302           bls.b 0x5df7bc
       0x005df7ba      3481           move.w d1, (a2)
    > 0x005df7bc      5287           addq.l 0x1, d7
      < 0x005df7be      68ca           bvc.b 0x5df78a
      > 0x005df7c0      584f           addq.w 0x4, a7
           0x005df7c2      4cdf0783       movem.l (a7)+, d0-d1/d7/a0-a2
           0x005df7c6      4e5e           unlk a6
           0x005df7c8      4e75           rts
            ; CALL XREFS from SEARCHER.sea_add_type @ 0x5e1682, 0x5e1698
            ; CALL XREFS from SEARCHER.sea_linear_lib_ @ 0x5e4924, 0x5e4936
 110: SEARCHER.convert_extn ();
           0x005df7ca      4e56ffe8       link.w a6, 0xffe8
           0x005df7ce      bfd5           cmpa.l (a5), a7
       < 0x005df7d0      6206           bhi.b 0x5df7d8
          0x005df7d2      44fc0002       move.w 0x2, ccr
          0x005df7d6      4e76           trapv
       > 0x005df7d8      defc0014       adda.w 0x14, a7
           0x005df7dc      48e78180       movem.l d0/d7/a0, -(a7)
           0x005df7e0      3d7cffff000a   move.w 0xffff, 0xa(a6)
           0x005df7e6      2f3900841a9e   move.l 0x841a9e, -(a7)
           0x005df7ec      7e00           moveq 0x0, d7
       > 0x005df7ee      be97           cmp.l (a7), d7
      < 0x005df7f0      6e3c           bgt.b 0x5df82e
         0x005df7f2      0c87000000ff   cmpi.l 0xff, d7
     < 0x005df7f8      6302           bls.b 0x5df7fc
        0x005df7fa      4e4f           trap 0xf
     > 0x005df7fc      2007           move.l d7, d0
         0x005df7fe      e580           asl.l 0x2, d0
         0x005df800      41f900841a5a   lea.l 0x841a5a, a0
         0x005df806      30300848       move.w 0x48(a0, d0.l), d0
         0x005df80a      b06e0008       cmp.w 0x8(a6), d0
     < 0x005df80e      661a           bne.b 0x5df82a
        0x005df810      0487ffff8000   subi.l 0xffff8000, d7
        0x005df816      0c870000ffff   cmpi.l 0xffff, d7
    < 0x005df81c      6302           bls.b 0x5df820
       0x005df81e      4e4f           trap 0xf
    > 0x005df820      0687ffff8000   addi.l 0xffff8000, d7
        0x005df826      3d47000a       move.w d7, 0xa(a6)
     > 0x005df82a      5287           addq.l 0x1, d7
      < 0x005df82c      68c0           bvc.b 0x5df7ee
      > 0x005df82e      584f           addq.w 0x4, a7
           0x005df830      4cdf0181       movem.l (a7)+, d0/d7/a0
           0x005df834      4e5e           unlk a6
           0x005df836      4e75           rts
            ; CALL XREF from SEARCHER.reset_search_sp @ 0x5dfebc
            ; CALL XREF from SEARCHER.sea_set_no_type @ 0x5e1600
            ; CALL XREF from SEARCHER.sea_add_type @ 0x5e16e6
 218: SEARCHER.get_extn_limits ();
           0x005df838      4e56ffbe       link.w a6, 0xffbe
           0x005df83c      bfd5           cmpa.l (a5), a7
       < 0x005df83e      6206           bhi.b 0x5df846
          0x005df840      44fc0002       move.w 0x2, ccr
          0x005df844      4e76           trapv
       > 0x005df846      defc003a       adda.w 0x3a, a7
           0x005df84a      48e7c1f8       movem.l d0-d1/d7/a0-a4, -(a7)
           0x005df84e      45ee000c       lea.l 0xc(a6), a2
           0x005df852      47ee0008       lea.l 0x8(a6), a3
           0x005df856      49f900841a9e   lea.l 0x841a9e, a4
           0x005df85c      2052           movea.l (a2), a0
           0x005df85e      30bcffff       move.w 0xffff, (a0)
           0x005df862      2053           movea.l (a3), a0
           0x005df864      4250           clr.w (a0)
           0x005df866      41fae8e0       lea.l 0x5de148(pc), a0
           0x005df86a      43ee0010       lea.l 0x10(a6), a1
           0x005df86e      7007           moveq 0x7, d0
       > 0x005df870      b388           cmpm.l (a0)+, (a1)+
       < 0x005df872      56c8fffc       dbne d0, 0x5df870
       < 0x005df876      6642           bne.b 0x5df8ba
          0x005df878      2f14           move.l (a4), -(a7)
          0x005df87a      7e00           moveq 0x0, d7
      > 0x005df87c      be97           cmp.l (a7), d7
     < 0x005df87e      6e38           bgt.b 0x5df8b8
        0x005df880      0c87000000ff   cmpi.l 0xff, d7
    < 0x005df886      6302           bls.b 0x5df88a
       0x005df888      4e4f           trap 0xf
    > 0x005df88a      2007           move.l d7, d0
        0x005df88c      e580           asl.l 0x2, d0
        0x005df88e      41f900841a5a   lea.l 0x841a5a, a0
        0x005df894      4a700848       tst.w 0x48(a0, d0.l)
    < 0x005df898      671a           beq.b 0x5df8b4
       0x005df89a      4a30084a       tst.b 0x4a(a0, d0.l)
   < 0x005df89e      6714           beq.b 0x5df8b4
      0x005df8a0      2252           movea.l (a2), a1
      0x005df8a2      32300848       move.w 0x48(a0, d0.l), d1
      0x005df8a6      b251           cmp.w (a1), d1
  < 0x005df8a8      6402           bcc.b 0x5df8ac
     0x005df8aa      3281           move.w d1, (a1)
  > 0x005df8ac      2253           movea.l (a3), a1
      0x005df8ae      b251           cmp.w (a1), d1
  < 0x005df8b0      6302           bls.b 0x5df8b4
     0x005df8b2      3281           move.w d1, (a1)
  > 0x005df8b4      5287           addq.l 0x1, d7
     < 0x005df8b6      68c4           bvc.b 0x5df87c
     < 0x005df8b8      604e           bra.b 0x5df908
      > 0x005df8ba      2f14           move.l (a4), -(a7)
          0x005df8bc      7e00           moveq 0x0, d7
      > 0x005df8be      be97           cmp.l (a7), d7
     < 0x005df8c0      6e46           bgt.b 0x5df908
        0x005df8c2      0c87000000ff   cmpi.l 0xff, d7
    < 0x005df8c8      6302           bls.b 0x5df8cc
       0x005df8ca      4e4f           trap 0xf
    > 0x005df8cc      2007           move.l d7, d0
        0x005df8ce      e580           asl.l 0x2, d0
        0x005df8d0      41f900841a5a   lea.l 0x841a5a, a0
        0x005df8d6      4a700848       tst.w 0x48(a0, d0.l)
    < 0x005df8da      6728           beq.b 0x5df904
       0x005df8dc      3207           move.w d7, d1
       0x005df8de      e649           lsr.w 0x3, d1
       0x005df8e0      0c410020       cmpi.w 0x20, d1
   < 0x005df8e4      6d04           blt.b 0x5df8ea
      0x005df8e6      7200           moveq 0x0, d1
  < 0x005df8e8      6004           bra.b 0x5df8ee
  > 0x005df8ea      0f361010       btst.l d7, 0x10(a6, d1.w)
  < 0x005df8ee      6714           beq.b 0x5df904
      0x005df8f0      2252           movea.l (a2), a1
      0x005df8f2      32300848       move.w 0x48(a0, d0.l), d1
      0x005df8f6      b251           cmp.w (a1), d1
  < 0x005df8f8      6402           bcc.b 0x5df8fc
     0x005df8fa      3281           move.w d1, (a1)
  > 0x005df8fc      2253           movea.l (a3), a1
      0x005df8fe      b251           cmp.w (a1), d1
  < 0x005df900      6302           bls.b 0x5df904
     0x005df902      3281           move.w d1, (a1)
  > 0x005df904      5287           addq.l 0x1, d7
     < 0x005df906      68b6           bvc.b 0x5df8be
     > 0x005df908      584f           addq.w 0x4, a7
           0x005df90a      4cdf1f83       movem.l (a7)+, d0-d1/d7/a0-a4
           0x005df90e      4e5e           unlk a6
           0x005df910      4e75           rts
            ; CALL XREF from SEARCHER.clear_prn @ 0x5dface
            ; CALL XREF from SEARCHER.combine_lib_map @ 0x5e2e90
            ; CALL XREF from SEARCHER.build_found_map @ 0x5e35ba
            ; CALL XREF from SEARCHER.sea_indexed_sta @ 0x5e3b86
 106: SEARCHER.field_in_use ();
           0x005df912      4e56ffe8       link.w a6, 0xffe8
           0x005df916      bfd5           cmpa.l (a5), a7
       < 0x005df918      6206           bhi.b 0x5df920
          0x005df91a      44fc0002       move.w 0x2, ccr
          0x005df91e      4e76           trapv
       > 0x005df920      defc0016       adda.w 0x16, a7
           0x005df924      48e7c080       movem.l d0-d1/a0, -(a7)
           0x005df928      41eefffe       lea.l -0x2(a6), a0
           0x005df92c      30bae850       move.w 0x5de17e(pc), (a0)
           0x005df930      554f           subq.w 0x2, a7
           0x005df932      48780028       pea.l 0x28
           0x005df936      4eb900465334   jsr S8_SECURITY.s_option
           0x005df93c      584f           addq.w 0x4, a7
           0x005df93e      4a1f           tst.b (a7)+
       < 0x005df940      6704           beq.b 0x5df946
          0x005df942      0050001e       ori.w 0x1e, (a0)
       > 0x005df946      554f           subq.w 0x2, a7
           0x005df948      4878002d       pea.l 0x2d
           0x005df94c      4eb900465334   jsr S8_SECURITY.s_option
           0x005df952      584f           addq.w 0x4, a7
           0x005df954      4a1f           tst.b (a7)+
       < 0x005df956      6704           beq.b 0x5df95c
          0x005df958      00500001       ori.w 0x1, (a0)
       > 0x005df95c      422e000a       clr.b 0xa(a6)
           0x005df960      102e0008       move.b 0x8(a6), d0
           0x005df964      4880           ext.w d0
           0x005df966      3200           move.w d0, d1
           0x005df968      e649           lsr.w 0x3, d1
           0x005df96a      013610fe       btst.l d0, -0x2(a6, d1.w)
       < 0x005df96e      6704           beq.b 0x5df974
          0x005df970      522e000a       addq.b 0x1, 0xa(a6)
       > 0x005df974      4cdf0103       movem.l (a7)+, d0-d1/a0
           0x005df978      4e5e           unlk a6
           0x005df97a      4e75           rts
            ; CALL XREFS from SEARCHER.clear_prn @ 0x5dfaf4, 0x5dfb18
 268: SEARCHER.clear_map_bit ();
           ; var int32_t var_8h @ a7+0x8
           0x005df97c      4e56fee0       link.w a6, 0xfee0
           0x005df980      bfd5           cmpa.l (a5), a7
       < 0x005df982      6206           bhi.b 0x5df98a
          0x005df984      44fc0002       move.w 0x2, ccr
          0x005df988      4e76           trapv
       > 0x005df98a      defc011c       adda.w 0x11c, a7
           0x005df98e      48e780c0       movem.l d0/a0-a1, -(a7)
           0x005df992      41f9004047ea   lea.l p_wts_o, a0
           0x005df998      43eefffc       lea.l -0x4(a6), a1
           0x005df99c      700c           moveq 0xc, d0
           0x005df99e      554f           subq.w 0x2, a7
           0x005df9a0      2f2e0012       move.l 0x12(a6), -(a7)
           0x005df9a4      2f2e000e       move.l 0xe(a6), -(a7)
           0x005df9a8      3f2e000c       move.w 0xc(a6), -(a7)
           0x005df9ac      1f3c0001       move.b 0x1, -(a7)
           0x005df9b0      4851           pea.l (a1)
           0x005df9b2      4eb90060c190   jsr F14_MAP.f_op_map
           0x005df9b8      defc0010       adda.w 0x10, a7
           0x005df9bc      4a1f           tst.b (a7)+
       < 0x005df9be      664a           bne.b 0x5dfa0a
          0x005df9c0      9efc0100       suba.w 0x100, a7
          0x005df9c4      4eb900408ec0   jsr p_err_string
          0x005df9ca      487ae7b9       pea.l 0x5de185(pc)
          0x005df9ce      48780006       pea.l 0x6
          0x005df9d2      2f17           move.l (a7), -(a7)
          0x005df9d4      4e90           jsr (a0)                    ; fcn.00000009
          0x005df9d6      dec0           adda.w d0, a7
          0x005df9d8      486f0001       pea.l 0x1(a7)
          0x005df9dc      42a7           clr.l -(a7)
          0x005df9de      1f6f00080003   move.b 0x8(a7), 0x3(a7)
          0x005df9e4      2f17           move.l (a7), -(a7)
          0x005df9e6      4e90           jsr (a0)                    ; fcn.00000009
          0x005df9e8      defc010c       adda.w 0x10c, a7
          0x005df9ec      487ae79e       pea.l 0x5de18c(pc)
          0x005df9f0      4878000d       pea.l 0xd
          0x005df9f4      2f17           move.l (a7), -(a7)
          0x005df9f6      4e90           jsr (a0)                    ; fcn.00000009
          0x005df9f8      dec0           adda.w d0, a7
          0x005df9fa      4eb900404946   jsr p_wtln_o
          0x005dfa00      4854           pea.l (a4)
          0x005dfa02      4eb900404468   jsr fcn.00404468
          0x005dfa08      584f           addq.w 0x4, a7
       > 0x005dfa0a      554f           subq.w 0x2, a7
           0x005dfa0c      2f11           move.l (a1), -(a7)
           0x005dfa0e      2f2e0008       move.l 0x8(a6), -(a7)
           0x005dfa12      48780001       pea.l 0x1
           0x005dfa16      4eb90060c6f8   jsr F14_MAP.f_clear_bits
           0x005dfa1c      dec0           adda.w d0, a7
           0x005dfa1e      4a1f           tst.b (a7)+
       < 0x005dfa20      6654           bne.b 0x5dfa76
          0x005dfa22      9efc0100       suba.w 0x100, a7
          0x005dfa26      4eb900408ec0   jsr p_err_string
          0x005dfa2c      487ae76c       pea.l 0x5de19a(pc)
          0x005dfa30      48780006       pea.l 0x6
          0x005dfa34      2f17           move.l (a7), -(a7)
          0x005dfa36      4e90           jsr (a0)                    ; fcn.00000009
          0x005dfa38      dec0           adda.w d0, a7
          0x005dfa3a      486f0001       pea.l 0x1(a7)
          0x005dfa3e      42a7           clr.l -(a7)
          0x005dfa40      1f6f00080003   move.b 0x8(a7), 0x3(a7)
          0x005dfa46      2f17           move.l (a7), -(a7)
          0x005dfa48      4e90           jsr (a0)                    ; fcn.00000009
          0x005dfa4a      defc010c       adda.w 0x10c, a7
          0x005dfa4e      487ae751       pea.l 0x5de1a1(pc)
          0x005dfa52      48780013       pea.l 0x13
          0x005dfa56      2f17           move.l (a7), -(a7)
          0x005dfa58      4e90           jsr (a0)                    ; fcn.00000009
          0x005dfa5a      dec0           adda.w d0, a7
          0x005dfa5c      4eb900404946   jsr p_wtln_o
          0x005dfa62      4851           pea.l (a1)
          0x005dfa64      4eb90060470a   jsr F9_FILERDWRT.f_close
          0x005dfa6a      584f           addq.w 0x4, a7
          0x005dfa6c      4854           pea.l (a4)
          0x005dfa6e      4eb900404468   jsr fcn.00404468
          0x005dfa74      584f           addq.w 0x4, a7
       > 0x005dfa76      4851           pea.l (a1)
           0x005dfa78      4eb90060470a   jsr F9_FILERDWRT.f_close
           0x005dfa7e      584f           addq.w 0x4, a7
           0x005dfa80      4cdf0301       movem.l (a7)+, d0/a0-a1
           0x005dfa84      4e5e           unlk a6
           0x005dfa86      4e75           rts
 164: SEARCHER.clear_prn ();
           0x005dfa88      4e56ff78       link.w a6, 0xff78
           0x005dfa8c      bfd5           cmpa.l (a5), a7
       < 0x005dfa8e      6206           bhi.b 0x5dfa96
          0x005dfa90      44fc0002       move.w 0x2, ccr
          0x005dfa94      4e76           trapv
       > 0x005dfa96      defc003c       adda.w 0x3c, a7
           0x005dfa9a      48e7e1f8       movem.l d0-d2/d7/a0-a4, -(a7)
           0x005dfa9e      47eeffb4       lea.l -0x4c(a6), a3
           0x005dfaa2      720a           moveq 0xa, d1
           0x005dfaa4      740e           moveq 0xe, d2
           0x005dfaa6      422e0010       clr.b 0x10(a6)
           0x005dfaaa      554f           subq.w 0x2, a7
           0x005dfaac      4853           pea.l (a3)
           0x005dfaae      4eb900404434   jsr fcn.00404434
           0x005dfab4      584f           addq.w 0x4, a7
           0x005dfab6      4a1f           tst.b (a7)+
       < 0x005dfab8      676a           beq.b 0x5dfb24
          0x005dfaba      206e0008       movea.l 0x8(a6), a0
          0x005dfabe      2050           movea.l (a0), a0
          0x005dfac0      b1e8fffc       cmpa.l -0x4(a0), a0
      < 0x005dfac4      6702           beq.b 0x5dfac8
         0x005dfac6      4e4d           trap 0xd
      > 0x005dfac8      7e00           moveq 0x0, d7
      > 0x005dfaca      554f           subq.w 0x2, a7
         0x005dfacc      1f07           move.b d7, -(a7)
         0x005dface      4ebafe42       jsr SEARCHER.field_in_use(pc)
         0x005dfad2      544f           addq.w 0x2, a7
         0x005dfad4      4a1f           tst.b (a7)+
     < 0x005dfad6      6722           beq.b 0x5dfafa
        0x005dfad8      4887           ext.w d7
        0x005dfada      700e           moveq 0xe, d0
        0x005dfadc      c1c7           muls.w d7, d0
        0x005dfade      9ec1           suba.w d1, a7
        0x005dfae0      224f           movea.l a7, a1
        0x005dfae2      45f00048       lea.l 0x48(a0, d0.w), a2
        0x005dfae6      7009           moveq 0x9, d0
    > 0x005dfae8      12da           move.b (a2)+, (a1)+
    < 0x005dfaea      51c8fffc       dbra d0, 0x5dfae8
        0x005dfaee      2f2e000c       move.l 0xc(a6), -(a7)
        0x005dfaf2      284b           movea.l a3, a4
        0x005dfaf4      4ebafe86       jsr SEARCHER.clear_map_bit(pc)
        0x005dfaf8      dec2           adda.w d2, a7
     > 0x005dfafa      5207           addq.b 0x1, d7
         0x005dfafc      0c07000f       cmpi.b 0xf, d7
      < 0x005dfb00      6fc8           ble.b 0x5dfaca
          0x005dfb02      9ec1           suba.w d1, a7
          0x005dfb04      224f           movea.l a7, a1
          0x005dfb06      45e80128       lea.l 0x128(a0), a2
          0x005dfb0a      7009           moveq 0x9, d0
      > 0x005dfb0c      12da           move.b (a2)+, (a1)+
      < 0x005dfb0e      51c8fffc       dbra d0, 0x5dfb0c
          0x005dfb12      2f2e000c       move.l 0xc(a6), -(a7)
          0x005dfb16      284b           movea.l a3, a4
          0x005dfb18      4ebafe62       jsr SEARCHER.clear_map_bit(pc)
          0x005dfb1c      dec2           adda.w d2, a7
          0x005dfb1e      1d7c00010010   move.b 0x1, 0x10(a6)
       > 0x005dfb24      4cdf1f87       movem.l (a7)+, d0-d2/d7/a0-a4
           0x005dfb28      4e5e           unlk a6
           0x005dfb2a      4e75           rts
            ; CALL XREFS from SEARCHER.extract_num_lim @ 0x5dfc74, 0x5dfca2
 224: SEARCHER.get_number ();
           0x005dfb2c      4e56ff9c       link.w a6, 0xff9c
           0x005dfb30      bfd5           cmpa.l (a5), a7
       < 0x005dfb32      6206           bhi.b 0x5dfb3a
          0x005dfb34      44fc0002       move.w 0x2, ccr
          0x005dfb38      4e76           trapv
       > 0x005dfb3a      defc005c       adda.w 0x5c, a7
           0x005dfb3e      48e7fff8       movem.l d0-d7/a0-a4, -(a7)
           0x005dfb42      47ee000c       lea.l 0xc(a6), a3
           0x005dfb46      49ee0008       lea.l 0x8(a6), a4
           0x005dfb4a      2a3c000000ff   move.l 0xff, d5
           0x005dfb50      4a93           tst.l (a3)
       < 0x005dfb52      661a           bne.b 0x5dfb6e
          0x005dfb54      7000           moveq 0x0, d0
          0x005dfb56      b094           cmp.l (a4), d0
      < 0x005dfb58      6e04           bgt.b 0x5dfb5e
         0x005dfb5a      9093           sub.l (a3), d0
     < 0x005dfb5c      6c02           bge.b 0x5dfb60
     > 0x005dfb5e      4e4f           trap 0xf
     > 0x005dfb60      206e0010       movea.l 0x10(a6), a0
          0x005dfb64      4281           clr.l d1
          0x005dfb66      12300800       move.b (a0, d0.l), d1
          0x005dfb6a      2c01           move.l d1, d6
      < 0x005dfb6c      6002           bra.b 0x5dfb70
      > 0x005dfb6e      2c14           move.l (a4), d6
      > 0x005dfb70      206e0014       movea.l 0x14(a6), a0
           0x005dfb74      226e0010       movea.l 0x10(a6), a1
       > 0x005dfb78      2010           move.l (a0), d0
          0x005dfb7a      b094           cmp.l (a4), d0
      < 0x005dfb7c      6e04           bgt.b 0x5dfb82
         0x005dfb7e      9093           sub.l (a3), d0
     < 0x005dfb80      6c02           bge.b 0x5dfb84
     > 0x005dfb82      4e4f           trap 0xf
     > 0x005dfb84      bc90           cmp.l (a0), d6
      < 0x005dfb86      6f0e           ble.b 0x5dfb96
         0x005dfb88      12310800       move.b (a1, d0.l), d1
         0x005dfb8c      0c010020       cmpi.b 0x20, d1
     < 0x005dfb90      6604           bne.b 0x5dfb96
        0x005dfb92      5290           addq.l 0x1, (a0)
     < 0x005dfb94      60e2           bra.b 0x5dfb78
     > 0x005dfb96      bc90           cmp.l (a0), d6
       < 0x005dfb98      6d62           blt.b 0x5dfbfc
          0x005dfb9a      12310800       move.b (a1, d0.l), d1
          0x005dfb9e      c285           and.l d5, d1
          0x005dfba0      41fae612       lea.l 0x5de1b4(pc), a0
          0x005dfba4      3001           move.w d1, d0
          0x005dfba6      e648           lsr.w 0x3, d0
          0x005dfba8      03300000       btst.l d1, (a0, d0.w)
      < 0x005dfbac      674e           beq.b 0x5dfbfc
         0x005dfbae      7e00           moveq 0x0, d7
         0x005dfbb0      206e0014       movea.l 0x14(a6), a0
         0x005dfbb4      226e0010       movea.l 0x10(a6), a1
     > 0x005dfbb8      2010           move.l (a0), d0
        0x005dfbba      b094           cmp.l (a4), d0
    < 0x005dfbbc      6e04           bgt.b 0x5dfbc2
       0x005dfbbe      9093           sub.l (a3), d0
   < 0x005dfbc0      6c02           bge.b 0x5dfbc4
   > 0x005dfbc2      4e4f           trap 0xf
   > 0x005dfbc4      bc90           cmp.l (a0), d6
    < 0x005dfbc6      6d3a           blt.b 0x5dfc02
       0x005dfbc8      12310800       move.b (a1, d0.l), d1
       0x005dfbcc      c285           and.l d5, d1
       0x005dfbce      45fae604       lea.l 0x5de1d4(pc), a2
       0x005dfbd2      3401           move.w d1, d2
       0x005dfbd4      e64a           lsr.w 0x3, d2
       0x005dfbd6      03322000       btst.l d1, (a2, d2.w)
   < 0x005dfbda      6726           beq.b 0x5dfc02
      0x005dfbdc      2807           move.l d7, d4
      0x005dfbde      760a           moveq 0xa, d3
      0x005dfbe0      4eb900406a74   jsr fcn.00406a74
      0x005dfbe6      12310800       move.b (a1, d0.l), d1
      0x005dfbea      c285           and.l d5, d1
      0x005dfbec      d284           add.l d4, d1
      0x005dfbee      048100000030   subi.l 0x30, d1
      0x005dfbf4      2e01           move.l d1, d7
      0x005dfbf6      5290           addq.l 0x1, (a0)
   < 0x005dfbf8      60be           bra.b 0x5dfbb8
    < 0x005dfbfa      6006           bra.b 0x5dfc02              ; SEARCHER.get_number+0xd6
   > 0x005dfbfc      2e3c0000fffe   move.l 0xfffe, d7
   > 0x005dfc02      2d470018       move.l d7, 0x18(a6)
           0x005dfc06      4cdf1fff       movem.l (a7)+, d0-d7/a0-a4
           0x005dfc0a      4e5e           unlk a6
           0x005dfc0c      4e75           rts
 180: SEARCHER.extract_num_lim ();
           0x005dfc0e      4e56febc       link.w a6, 0xfebc
           0x005dfc12      bfd5           cmpa.l (a5), a7
       < 0x005dfc14      6206           bhi.b 0x5dfc1c
          0x005dfc16      44fc0002       move.w 0x2, ccr
          0x005dfc1a      4e76           trapv
       > 0x005dfc1c      defc0140       adda.w 0x140, a7
           0x005dfc20      48e7e0f8       movem.l d0-d2/a0-a4, -(a7)
           0x005dfc24      49ee0010       lea.l 0x10(a6), a4
           0x005dfc28      323c0100       move.w 0x100, d1
           0x005dfc2c      7410           moveq 0x10, d2
           0x005dfc2e      1014           move.b (a4), d0
           0x005dfc30      0c000001       cmpi.b 0x1, d0
       < 0x005dfc34      6612           bne.b 0x5dfc48
          0x005dfc36      206e000c       movea.l 0xc(a6), a0
          0x005dfc3a      4290           clr.l (a0)
          0x005dfc3c      206e0008       movea.l 0x8(a6), a0
          0x005dfc40      20bc0000fffe   move.l 0xfffe, (a0)
      < 0x005dfc46      6072           bra.b 0x5dfcba
      > 0x005dfc48      2d7c00000002.  move.l 0x2, -0x4(a6)
          0x005dfc50      206e000c       movea.l 0xc(a6), a0
          0x005dfc54      9ec1           suba.w d1, a7
          0x005dfc56      224f           movea.l a7, a1
          0x005dfc58      244c           movea.l a4, a2
          0x005dfc5a      703f           moveq 0x3f, d0
      > 0x005dfc5c      22da           move.l (a2)+, (a1)+
      < 0x005dfc5e      51c8fffc       dbra d0, 0x5dfc5c
          0x005dfc62      594f           subq.w 0x4, a7
          0x005dfc64      486efffc       pea.l -0x4(a6)
          0x005dfc68      486f0008       pea.l 0x8(a7)
          0x005dfc6c      48780000       pea.l 0x0
          0x005dfc70      487800ff       pea.l 0xff
          0x005dfc74      4ebafeb6       jsr SEARCHER.get_number(pc)
          0x005dfc78      dec2           adda.w d2, a7
          0x005dfc7a      209f           move.l (a7)+, (a0)
          0x005dfc7c      dec1           adda.w d1, a7
          0x005dfc7e      226e0008       movea.l 0x8(a6), a1
          0x005dfc82      9ec1           suba.w d1, a7
          0x005dfc84      244f           movea.l a7, a2
          0x005dfc86      264c           movea.l a4, a3
          0x005dfc88      703f           moveq 0x3f, d0
      > 0x005dfc8a      24db           move.l (a3)+, (a2)+
      < 0x005dfc8c      51c8fffc       dbra d0, 0x5dfc8a
          0x005dfc90      594f           subq.w 0x4, a7
          0x005dfc92      486efffc       pea.l -0x4(a6)
          0x005dfc96      486f0008       pea.l 0x8(a7)
          0x005dfc9a      48780000       pea.l 0x0
          0x005dfc9e      487800ff       pea.l 0xff
          0x005dfca2      4ebafe88       jsr SEARCHER.get_number(pc)
          0x005dfca6      dec2           adda.w d2, a7
          0x005dfca8      229f           move.l (a7)+, (a1)
          0x005dfcaa      dec1           adda.w d1, a7
          0x005dfcac      2011           move.l (a1), d0
          0x005dfcae      b090           cmp.l (a0), d0
      < 0x005dfcb0      6c08           bge.b 0x5dfcba
         0x005dfcb2      4290           clr.l (a0)
         0x005dfcb4      22bc0000fffe   move.l 0xfffe, (a1)
      > 0x005dfcba      4cdf1f07       movem.l (a7)+, d0-d2/a0-a4
           0x005dfcbe      4e5e           unlk a6
           0x005dfcc0      4e75           rts
            ; CALL XREF from SEARCHER.sea_indexed_fil @ 0x5e569c
 66: SEARCHER.pic_stk_str ();
           ; var int32_t var_1ad8h @ a6-0x1ad8
           ; var int32_t var_1ad6h @ a6-0x1ad6
           0x005dfcc2      4e56fff0       link.w a6, 0xfff0
           0x005dfcc6      bfd5           cmpa.l (a5), a7
       < 0x005dfcc8      6206           bhi.b 0x5dfcd0
          0x005dfcca      44fc0002       move.w 0x2, ccr
          0x005dfcce      4e76           trapv
       > 0x005dfcd0      defc0010       adda.w 0x10, a7
           0x005dfcd4      48e780c0       movem.l d0/a0-a1, -(a7)
           0x005dfcd8      4a2e0008       tst.b 0x8(a6)
       < 0x005dfcdc      670e           beq.b 0x5dfcec
          0x005dfcde      2d7ae52a000a   move.l 0x5de20a(pc), 0xa(a6)
          0x005dfce4      1d7ae528000e   move.b 0x5de20e(pc), 0xe(a6)
      < 0x005dfcea      6010           bra.b 0x5dfcfc
      > 0x005dfcec      41ee000a       lea.l 0xa(a6), a0
          0x005dfcf0      43fae51d       lea.l 0x5de20f(pc), a1
          0x005dfcf4      7004           moveq 0x4, d0
      > 0x005dfcf6      10d9           move.b (a1)+, (a0)+
      < 0x005dfcf8      51c8fffc       dbra d0, 0x5dfcf6
      > 0x005dfcfc      4cdf0301       movem.l (a7)+, d0/a0-a1
           0x005dfd00      4e5e           unlk a6
           0x005dfd02      4e75           rts
            ; CALL XREF from SEARCHER @ +0x3564
 102: SEARCHER.null_string ();
           0x005dfd04      4e56f992       link.w a6, 0xf992
           0x005dfd08      bfd5           cmpa.l (a5), a7
       < 0x005dfd0a      6206           bhi.b 0x5dfd12
          0x005dfd0c      44fc0002       move.w 0x2, ccr
          0x005dfd10      4e76           trapv
       > 0x005dfd12      defc011e       adda.w 0x11e, a7
           0x005dfd16      48e780e0       movem.l d0/a0-a2, -(a7)
           0x005dfd1a      45ee000c       lea.l 0xc(a6), a2
           0x005dfd1e      4212           clr.b (a2)
           0x005dfd20      554f           subq.w 0x2, a7
           0x005dfd22      206e0008       movea.l 0x8(a6), a0
           0x005dfd26      9efc0100       suba.w 0x100, a7
           0x005dfd2a      224f           movea.l a7, a1
           0x005dfd2c      303c00ff       move.w 0xff, d0
       > 0x005dfd30      12d8           move.b (a0)+, (a1)+
       < 0x005dfd32      51c8fffc       dbra d0, 0x5dfd30
           0x005dfd36      486efab0       pea.l -0x550(a6)
           0x005dfd3a      1f3c0001       move.b 0x1, -(a7)
           0x005dfd3e      4227           clr.b -(a7)
           0x005dfd40      4eb9005cd1e0   jsr INDEX.extract_keys
           0x005dfd46      defc0108       adda.w 0x108, a7
           0x005dfd4a      4a1f           tst.b (a7)+
       < 0x005dfd4c      6714           beq.b 0x5dfd62
          0x005dfd4e      4212           clr.b (a2)
          0x005dfd50      102efac0       move.b -0x540(a6), d0
          0x005dfd54      0c000002       cmpi.b 0x2, d0
      < 0x005dfd58      6608           bne.b 0x5dfd62
         0x005dfd5a      4a2efab0       tst.b -0x550(a6)
     < 0x005dfd5e      6602           bne.b 0x5dfd62
        0x005dfd60      5212           addq.b 0x1, (a2)
     > 0x005dfd62      4cdf0701       movem.l (a7)+, d0/a0-a2
           0x005dfd66      4e5e           unlk a6
           0x005dfd68      4e75           rts
            ; CALL XREF from SEARCHER.reset_search_sp @ 0x5dfef8
 174: SEARCHER.reset_extra_fie ();
           0x005dfd6a      4e56ffd2       link.w a6, 0xffd2
           0x005dfd6e      bfd5           cmpa.l (a5), a7
       < 0x005dfd70      6206           bhi.b 0x5dfd78
          0x005dfd72      44fc0002       move.w 0x2, ccr
          0x005dfd76      4e76           trapv
       > 0x005dfd78      defc002c       adda.w 0x2c, a7
           0x005dfd7c      48e7e1e0       movem.l d0-d2/d7/a0-a2, -(a7)
           0x005dfd80      7409           moveq 0x9, d2
           0x005dfd82      7e09           moveq 0x9, d7
       > 0x005dfd84      4887           ext.w d7
          0x005dfd86      3007           move.w d7, d0
          0x005dfd88      9042           sub.w d2, d0
          0x005dfd8a      41bc0003       chk.w 0x3, d0
          0x005dfd8e      725c           moveq 0x5c, d1
          0x005dfd90      c3c0           muls.w d0, d1
          0x005dfd92      206e0008       movea.l 0x8(a6), a0
          0x005dfd96      b1e8fffc       cmpa.l -0x4(a0), a0
      < 0x005dfd9a      6702           beq.b 0x5dfd9e
         0x005dfd9c      4e4d           trap 0xd
      > 0x005dfd9e      41f01000       lea.l (a0, d1.w), a0
          0x005dfda2      43f900841a5a   lea.l 0x841a5a, a1
          0x005dfda8      43f10000       lea.l (a1, d0.w), a1
          0x005dfdac      1229044a       move.b 0x44a(a1), d1
          0x005dfdb0      b202           cmp.b d2, d1
      < 0x005dfdb2      6d0c           blt.b 0x5dfdc0
         0x005dfdb4      b202           cmp.b d2, d1
     < 0x005dfdb6      673e           beq.b 0x5dfdf6
        0x005dfdb8      0c01000b       cmpi.b 0xb, d1
    < 0x005dfdbc      6716           beq.b 0x5dfdd4
       0x005dfdbe      4e4e           trap 0xe
    > 0x005dfdc0      4a01           tst.b d1
    < 0x005dfdc2      6708           beq.b 0x5dfdcc
       0x005dfdc4      0c010002       cmpi.b 0x2, d1
   < 0x005dfdc8      6702           beq.b 0x5dfdcc
      0x005dfdca      4e4e           trap 0xe
   > 0x005dfdcc      117ae446032e   move.b 0x5de214(pc), 0x32e(a0)
    < 0x005dfdd2      6032           bra.b 0x5dfe06
    > 0x005dfdd4      43e8032e       lea.l 0x32e(a0), a1
        0x005dfdd8      45fae356       lea.l 0x5de130(pc), a2
        0x005dfddc      7207           moveq 0x7, d1
    > 0x005dfdde      12da           move.b (a2)+, (a1)+
    < 0x005dfde0      51c9fffc       dbra d1, 0x5dfdde
        0x005dfde4      43e80336       lea.l 0x336(a0), a1
        0x005dfde8      45fae346       lea.l 0x5de130(pc), a2
        0x005dfdec      7207           moveq 0x7, d1
    > 0x005dfdee      12da           move.b (a2)+, (a1)+
    < 0x005dfdf0      51c9fffc       dbra d1, 0x5dfdee
    < 0x005dfdf4      6010           bra.b 0x5dfe06
    > 0x005dfdf6      217c7fffffff.  move.l 0x7fffffff, 0x32e(a0)
        0x005dfdfe      217c7fffffff.  move.l 0x7fffffff, 0x332(a0)
    > 0x005dfe06      5207           addq.b 0x1, d7
          0x005dfe08      0c07000c       cmpi.b 0xc, d7
       < 0x005dfe0c      6f00ff76       ble.w 0x5dfd84
           0x005dfe10      4cdf0787       movem.l (a7)+, d0-d2/d7/a0-a2
           0x005dfe14      4e5e           unlk a6
           0x005dfe16      4e75           rts
            ; CALL XREF from SEARCHER.get_search_spec @ 0x5e0810
            ; CALL XREF from SEARCHER.sea_filter_rese @ 0x5e1336
 288: SEARCHER.reset_search_sp ();
           0x005dfe18      4e56ffae       link.w a6, 0xffae
           0x005dfe1c      bfd5           cmpa.l (a5), a7
       < 0x005dfe1e      6206           bhi.b 0x5dfe26
          0x005dfe20      44fc0002       move.w 0x2, ccr
          0x005dfe24      4e76           trapv
       > 0x005dfe26      defc0050       adda.w 0x50, a7
           0x005dfe2a      48e7e1f0       movem.l d0-d2/d7/a0-a3, -(a7)
           0x005dfe2e      47f90047410a   lea.l DKPAS.dk_encode_title, a3
           0x005dfe34      7201           moveq 0x1, d1
           0x005dfe36      74ff           moveq 0xff, d2
           0x005dfe38      206e0008       movea.l 0x8(a6), a0
           0x005dfe3c      b1e8fffc       cmpa.l -0x4(a0), a0
       < 0x005dfe40      6702           beq.b 0x5dfe44
          0x005dfe42      4e4d           trap 0xd
       > 0x005dfe44      11410063       move.b d1, 0x63(a0)
           0x005dfe48      42280064       clr.b 0x64(a0)
           0x005dfe4c      7e00           moveq 0x0, d7
       > 0x005dfe4e      4887           ext.w d7
          0x005dfe50      11817065       move.b d1, 0x65(a0, d7.w)
          0x005dfe54      5207           addq.b 0x1, d7
          0x005dfe56      0c07000f       cmpi.b 0xf, d7
       < 0x005dfe5a      6ff2           ble.b 0x5dfe4e
           0x005dfe5c      117ae3b70075   move.b 0x5de215(pc), 0x75(a0)
           0x005dfe62      117ae3b2012b   move.b 0x5de216(pc), 0x12b(a0)
           0x005dfe68      117ae3ad01e1   move.b 0x5de217(pc), 0x1e1(a0)
           0x005dfe6e      48680075       pea.l 0x75(a0)
           0x005dfe72      486800d0       pea.l 0xd0(a0)
           0x005dfe76      4e93           jsr (a3)                    ; fcn.0000000c
           0x005dfe78      504f           addq.w 0x8, a7
           0x005dfe7a      48680075       pea.l 0x75(a0)
           0x005dfe7e      48680186       pea.l 0x186(a0)
           0x005dfe82      4e93           jsr (a3)                    ; fcn.0000000c
           0x005dfe84      504f           addq.w 0x8, a7
           0x005dfe86      48680075       pea.l 0x75(a0)
           0x005dfe8a      4868023c       pea.l 0x23c(a0)
           0x005dfe8e      4e93           jsr (a3)                    ; fcn.0000000c
           0x005dfe90      504f           addq.w 0x8, a7
           0x005dfe92      117ae3840297   move.b 0x5de218(pc), 0x297(a0)
           0x005dfe98      43e802f2       lea.l 0x2f2(a0), a1
           0x005dfe9c      45fae2aa       lea.l 0x5de148(pc), a2
           0x005dfea0      7007           moveq 0x7, d0
       > 0x005dfea2      22da           move.l (a2)+, (a1)+
       < 0x005dfea4      51c8fffc       dbra d0, 0x5dfea2
           0x005dfea8      43e80312       lea.l 0x312(a0), a1
           0x005dfeac      7007           moveq 0x7, d0
       > 0x005dfeae      2f21           move.l -(a1), -(a7)
       < 0x005dfeb0      51c8fffc       dbra d0, 0x5dfeae
           0x005dfeb4      48680312       pea.l 0x312(a0)
           0x005dfeb8      48680314       pea.l 0x314(a0)
           0x005dfebc      4ebaf97a       jsr SEARCHER.get_extn_limits(pc)
           0x005dfec0      defc0028       adda.w 0x28, a7
           0x005dfec4      43e80316       lea.l 0x316(a0), a1
           0x005dfec8      45fae266       lea.l 0x5de130(pc), a2
           0x005dfecc      7007           moveq 0x7, d0
       > 0x005dfece      12da           move.b (a2)+, (a1)+
       < 0x005dfed0      51c8fffc       dbra d0, 0x5dfece
           0x005dfed4      43e8031e       lea.l 0x31e(a0), a1
           0x005dfed8      45fae256       lea.l 0x5de130(pc), a2
           0x005dfedc      7007           moveq 0x7, d0
       > 0x005dfede      12da           move.b (a2)+, (a1)+
       < 0x005dfee0      51c8fffc       dbra d0, 0x5dfede
           0x005dfee4      217c7fffffff.  move.l 0x7fffffff, 0x326(a0)
           0x005dfeec      217c7fffffff.  move.l 0x7fffffff, 0x32a(a0)
           0x005dfef4      2f2e0008       move.l 0x8(a6), -(a7)
           0x005dfef8      4ebafe70       jsr SEARCHER.reset_extra_fie(pc)
           0x005dfefc      584f           addq.w 0x4, a7
           0x005dfefe      43e8049e       lea.l 0x49e(a0), a1
           0x005dff02      45fae244       lea.l 0x5de148(pc), a2
           0x005dff06      7007           moveq 0x7, d0
       > 0x005dff08      22da           move.l (a2)+, (a1)+
       < 0x005dff0a      51c8fffc       dbra d0, 0x5dff08
           0x005dff0e      117ae25704be   move.b 0x5de167(pc), 0x4be(a0)
           0x005dff14      114104bf       move.b d1, 0x4bf(a0)
           0x005dff18      43e804c0       lea.l 0x4c0(a0), a1
           0x005dff1c      45fae0e0       lea.l 0x5ddffe(pc), a2
           0x005dff20      7009           moveq 0x9, d0
       > 0x005dff22      12da           move.b (a2)+, (a1)+
       < 0x005dff24      51c8fffc       dbra d0, 0x5dff22
           0x005dff28      214204ca       move.l d2, 0x4ca(a0)
           0x005dff2c      214204ce       move.l d2, 0x4ce(a0)
           0x005dff30      4cdf0f87       movem.l (a7)+, d0-d2/d7/a0-a3
           0x005dff34      4e5e           unlk a6
           0x005dff36      4e75           rts
            ; CALL XREFS from SEARCHER.write_numbers @ 0x5e006c, 0x5e0088
 78: SEARCHER.write_num ();
           0x005dff38      4e56ffe8       link.w a6, 0xffe8
           0x005dff3c      bfd5           cmpa.l (a5), a7
       < 0x005dff3e      6206           bhi.b 0x5dff46
          0x005dff40      44fc0002       move.w 0x2, ccr
          0x005dff44      4e76           trapv
       > 0x005dff46      defc0018       adda.w 0x18, a7
           0x005dff4a      48e78000       movem.l d0, -(a7)
           0x005dff4e      202e0008       move.l 0x8(a6), d0
           0x005dff52      0c807fffffff   cmpi.l 0x7fffffff, d0
       < 0x005dff58      6616           bne.b 0x5dff70
          0x005dff5a      487ae2d1       pea.l 0x5de22d(pc)
          0x005dff5e      48780005       pea.l 0x5
          0x005dff62      2f17           move.l (a7), -(a7)
          0x005dff64      4eb9004047ea   jsr p_wts_o
          0x005dff6a      defc000c       adda.w 0xc, a7
      < 0x005dff6e      600e           bra.b 0x5dff7e
      > 0x005dff70      2f00           move.l d0, -(a7)
          0x005dff72      48780001       pea.l 0x1
          0x005dff76      4eb9004070e4   jsr p_wti_o
          0x005dff7c      504f           addq.w 0x8, a7
      > 0x005dff7e      4cdf0001       movem.l (a7)+, d0
           0x005dff82      4e5e           unlk a6
           0x005dff84      4e75           rts
            ; CALL XREFS from SEARCHER.write_times @ 0x5e0026, 0x5e0046
 134: SEARCHER.write_time ();
           ; var int32_t var_8h @ a7+0x8
           0x005dff86      4e56fee0       link.w a6, 0xfee0
           0x005dff8a      bfd5           cmpa.l (a5), a7
       < 0x005dff8c      6206           bhi.b 0x5dff94
          0x005dff8e      44fc0002       move.w 0x2, ccr
          0x005dff92      4e76           trapv
       > 0x005dff94      defc0120       adda.w 0x120, a7
           0x005dff98      48e71800       movem.l d3-d4, -(a7)
           0x005dff9c      594f           subq.w 0x4, a7
           0x005dff9e      2f2e000c       move.l 0xc(a6), -(a7)
           0x005dffa2      2f2e0008       move.l 0x8(a6), -(a7)
           0x005dffa6      4eb9006aa110   jsr DATE_UTILS.real_date
           0x005dffac      504f           addq.w 0x8, a7
           0x005dffae      7800           moveq 0x0, d4
           0x005dffb0      4eb900408686   jsr fcn.00408686
           0x005dffb6      2604           move.l d4, d3
           0x005dffb8      2817           move.l (a7), d4
           0x005dffba      4eb900407dd4   jsr fcn.00407dd4
       < 0x005dffc0      6616           bne.b 0x5dffd8
          0x005dffc2      487ae26f       pea.l 0x5de233(pc)
          0x005dffc6      48780005       pea.l 0x5
          0x005dffca      2f17           move.l (a7), -(a7)
          0x005dffcc      4eb9004047ea   jsr p_wts_o
          0x005dffd2      defc0010       adda.w 0x10, a7
      < 0x005dffd6      602c           bra.b 0x5e0004
      > 0x005dffd8      9efc0100       suba.w 0x100, a7
          0x005dffdc      2f2e000c       move.l 0xc(a6), -(a7)
          0x005dffe0      2f2e0008       move.l 0x8(a6), -(a7)
          0x005dffe4      4eb9005ef74e   jsr F2_UTILITY.f_time_string
          0x005dffea      504f           addq.w 0x8, a7
          0x005dffec      486f0001       pea.l 0x1(a7)
          0x005dfff0      42a7           clr.l -(a7)
          0x005dfff2      1f6f00080003   move.b 0x8(a7), 0x3(a7)
          0x005dfff8      2f17           move.l (a7), -(a7)
          0x005dfffa      4eb9004047ea   jsr p_wts_o
          0x005e0000      defc0110       adda.w 0x110, a7
      > 0x005e0004      4cdf0018       movem.l (a7)+, d3-d4
           0x005e0008      4e5e           unlk a6
           0x005e000a      4e75           rts
            ; CALL XREFS from SEARCHER.write_search_sp @ 0x5e03c8, 0x5e051a
 74: SEARCHER.write_times ();
           0x005e000c      4e56fff0       link.w a6, 0xfff0
           0x005e0010      bfd5           cmpa.l (a5), a7
       < 0x005e0012      6206           bhi.b 0x5e001a
          0x005e0014      44fc0002       move.w 0x2, ccr
          0x005e0018      4e76           trapv
       > 0x005e001a      defc0010       adda.w 0x10, a7
           0x005e001e      2f2e000c       move.l 0xc(a6), -(a7)
           0x005e0022      2f2e0008       move.l 0x8(a6), -(a7)
           0x005e0026      4ebaff5e       jsr SEARCHER.write_time(pc)
           0x005e002a      504f           addq.w 0x8, a7
           0x005e002c      487ae20b       pea.l 0x5de239(pc)
           0x005e0030      48780004       pea.l 0x4
           0x005e0034      2f17           move.l (a7), -(a7)
           0x005e0036      4eb9004047ea   jsr p_wts_o
           0x005e003c      504f           addq.w 0x8, a7
           0x005e003e      2eae0014       move.l 0x14(a6), (a7)
           0x005e0042      2f2e0010       move.l 0x10(a6), -(a7)
           0x005e0046      4ebaff3e       jsr SEARCHER.write_time(pc)
           0x005e004a      504f           addq.w 0x8, a7
           0x005e004c      4eb900404946   jsr p_wtln_o
           0x005e0052      4e5e           unlk a6
           0x005e0054      4e75           rts
            ; CALL XREFS from SEARCHER.write_search_sp @ 0x5e0400, 0x5e053c
 66: SEARCHER.write_numbers ();
           0x005e0056      4e56fff0       link.w a6, 0xfff0
           0x005e005a      bfd5           cmpa.l (a5), a7
       < 0x005e005c      6206           bhi.b 0x5e0064
          0x005e005e      44fc0002       move.w 0x2, ccr
          0x005e0062      4e76           trapv
       > 0x005e0064      defc0010       adda.w 0x10, a7
           0x005e0068      2f2e0008       move.l 0x8(a6), -(a7)
           0x005e006c      4ebafeca       jsr SEARCHER.write_num(pc)
           0x005e0070      584f           addq.w 0x4, a7
           0x005e0072      487ae1ca       pea.l 0x5de23e(pc)
           0x005e0076      48780004       pea.l 0x4
           0x005e007a      2f17           move.l (a7), -(a7)
           0x005e007c      4eb9004047ea   jsr p_wts_o
           0x005e0082      504f           addq.w 0x8, a7
           0x005e0084      2eae000c       move.l 0xc(a6), (a7)
           0x005e0088      4ebafeae       jsr SEARCHER.write_num(pc)
           0x005e008c      584f           addq.w 0x4, a7
           0x005e008e      4eb900404946   jsr p_wtln_o
           0x005e0094      4e5e           unlk a6
           0x005e0096      4e75           rts
            ; CALL XREF from SEARCHER.sea_show_user @ 0x5e119e
 1396: SEARCHER.write_search_sp (int32_t arg_297h, int32_t arg_32eh);
           ; var int32_t var_8h @ a7+0x8
           ; var int32_t var_75h @ a7+0x75
           ; var int32_t var_12bh @ a7+0x12b
           ; var int32_t var_1e1h @ a7+0x1e1
           ; arg int32_t arg_297h @ a7+0x297
           ; arg int32_t arg_32eh @ a7+0x32e
           0x005e0098      4e56fdb2       link.w a6, 0xfdb2
           0x005e009c      bfd5           cmpa.l (a5), a7
       < 0x005e009e      6206           bhi.b 0x5e00a6
          0x005e00a0      44fc0002       move.w 0x2, ccr
          0x005e00a4      4e76           trapv
       > 0x005e00a6      defc0148       adda.w 0x148, a7
           0x005e00aa      48e7fff8       movem.l d0-d7/a0-a4, -(a7)
           0x005e00ae      49f9004047ea   lea.l p_wts_o, a4
           0x005e00b4      740c           moveq 0xc, d2
           0x005e00b6      760a           moveq 0xa, d3
           0x005e00b8      283c0000ffff   move.l 0xffff, d4
           0x005e00be      206e0008       movea.l 0x8(a6), a0
           0x005e00c2      b1e8fffc       cmpa.l -0x4(a0), a0
       < 0x005e00c6      6702           beq.b 0x5e00ca
          0x005e00c8      4e4d           trap 0xd
       > 0x005e00ca      487ae177       pea.l 0x5de243(pc)
           0x005e00ce      48780005       pea.l 0x5
           0x005e00d2      2f17           move.l (a7), -(a7)
           0x005e00d4      4e94           jsr (a4)                    ; fcn.0000000d
           0x005e00d6      504f           addq.w 0x8, a7
           0x005e00d8      2ea80004       move.l 0x4(a0), (a7)
           0x005e00dc      4878fffd       pea.l 0xfffd
           0x005e00e0      4eb9004070e4   jsr p_wti_o
           0x005e00e6      504f           addq.w 0x8, a7
           0x005e00e8      487ae15f       pea.l 0x5de249(pc)
           0x005e00ec      48780002       pea.l 0x2
           0x005e00f0      2f17           move.l (a7), -(a7)
           0x005e00f2      4e94           jsr (a4)                    ; fcn.0000000d
           0x005e00f4      dec2           adda.w d2, a7
           0x005e00f6      48680009       pea.l 0x9(a0)
           0x005e00fa      42a7           clr.l -(a7)
           0x005e00fc      1f6800080003   move.b 0x8(a0), 0x3(a7)
           0x005e0102      2f17           move.l (a7), -(a7)
           0x005e0104      4e94           jsr (a4)                    ; fcn.0000000d
           0x005e0106      dec3           adda.w d3, a7
           0x005e0108      1ebc0022       move.b 0x22, (a7)
           0x005e010c      48780001       pea.l 0x1
           0x005e0110      4eb9004048b4   jsr p_wtc_o
           0x005e0116      5c4f           addq.w 0x6, a7
           0x005e0118      4eb900404946   jsr p_wtln_o
           0x005e011e      487ae12c       pea.l 0x5de24c(pc)
           0x005e0122      48780007       pea.l 0x7
           0x005e0126      2f17           move.l (a7), -(a7)
           0x005e0128      4e94           jsr (a4)                    ; fcn.0000000d
           0x005e012a      dec2           adda.w d2, a7
           0x005e012c      4a280063       tst.b 0x63(a0)
       < 0x005e0130      6700009e       beq.w 0x5e01d0
          0x005e0134      43fae012       lea.l 0x5de148(pc), a1
          0x005e0138      45e802f2       lea.l 0x2f2(a0), a2
          0x005e013c      701f           moveq 0x1f, d0
      > 0x005e013e      b509           cmpm.b (a1)+, (a2)+
      < 0x005e0140      56c8fffc       dbne d0, 0x5e013e
      < 0x005e0144      6610           bne.b 0x5e0156
         0x005e0146      487ae10c       pea.l 0x5de254(pc)
         0x005e014a      48780005       pea.l 0x5
         0x005e014e      2f17           move.l (a7), -(a7)
         0x005e0150      4e94           jsr (a4)                    ; fcn.0000000d
     < 0x005e0152      60000088       bra.w 0x5e01dc
     > 0x005e0156      2f3900841a9e   move.l 0x841a9e, -(a7)
         0x005e015c      7e00           moveq 0x0, d7
         0x005e015e      be97           cmp.l (a7), d7
     < 0x005e0160      6208           bhi.b 0x5e016a
        0x005e0162      2017           move.l (a7), d0
        0x005e0164      b084           cmp.l d4, d0
    < 0x005e0166      6302           bls.b 0x5e016a
       0x005e0168      4e4f           trap 0xf
   > 0x005e016a      be6f0002       cmp.w 0x2(a7), d7
    < 0x005e016e      625c           bhi.b 0x5e01cc
       0x005e0170      ce84           and.l d4, d7
       0x005e0172      0c87000000ff   cmpi.l 0xff, d7
   < 0x005e0178      6302           bls.b 0x5e017c
      0x005e017a      4e4f           trap 0xf
   > 0x005e017c      2007           move.l d7, d0
       0x005e017e      e580           asl.l 0x2, d0
       0x005e0180      43f900841a5a   lea.l 0x841a5a, a1
       0x005e0186      4a710848       tst.w 0x48(a1, d0.l)
   < 0x005e018a      673c           beq.b 0x5e01c8
      0x005e018c      45e802f2       lea.l 0x2f2(a0), a2
      0x005e0190      3207           move.w d7, d1
      0x005e0192      e649           lsr.w 0x3, d1
      0x005e0194      0c410020       cmpi.w 0x20, d1
  < 0x005e0198      6d04           blt.b 0x5e019e
     0x005e019a      7200           moveq 0x0, d1
 < 0x005e019c      6004           bra.b 0x5e01a2
 > 0x005e019e      0f321000       btst.l d7, (a2, d1.w)
 < 0x005e01a2      6724           beq.b 0x5e01c8
     0x005e01a4      32310848       move.w 0x48(a1, d0.l), d1
     0x005e01a8      c284           and.l d4, d1
     0x005e01aa      2f01           move.l d1, -(a7)
     0x005e01ac      48780003       pea.l 0x3
     0x005e01b0      4eb9004070e4   jsr p_wti_o
     0x005e01b6      5c4f           addq.w 0x6, a7
     0x005e01b8      1ebc002c       move.b 0x2c, (a7)
     0x005e01bc      48780001       pea.l 0x1
     0x005e01c0      4eb9004048b4   jsr p_wtc_o
     0x005e01c6      5c4f           addq.w 0x6, a7
  > 0x005e01c8      5247           addq.w 0x1, d7
   < 0x005e01ca      649e           bcc.b 0x5e016a
     > 0x005e01cc      584f           addq.w 0x4, a7
     < 0x005e01ce      600e           bra.b 0x5e01de
     > 0x005e01d0      487ae088       pea.l 0x5de25a(pc)
         0x005e01d4      4878000f       pea.l 0xf
         0x005e01d8      2f17           move.l (a7), -(a7)
         0x005e01da      4e94           jsr (a4)                    ; fcn.0000000d
     > 0x005e01dc      dec2           adda.w d2, a7
      > 0x005e01de      487ae08a       pea.l 0x5de26a(pc)
           0x005e01e2      48780005       pea.l 0x5
           0x005e01e6      2f17           move.l (a7), -(a7)
           0x005e01e8      4e94           jsr (a4)                    ; fcn.0000000d
           0x005e01ea      dec2           adda.w d2, a7
           0x005e01ec      30280312       move.w 0x312(a0), d0
           0x005e01f0      c084           and.l d4, d0
           0x005e01f2      2f00           move.l d0, -(a7)
           0x005e01f4      48780003       pea.l 0x3
           0x005e01f8      4eb9004070e4   jsr p_wti_o
           0x005e01fe      504f           addq.w 0x8, a7
           0x005e0200      487ae06e       pea.l 0x5de270(pc)
           0x005e0204      48780005       pea.l 0x5
           0x005e0208      2f17           move.l (a7), -(a7)
           0x005e020a      4e94           jsr (a4)                    ; fcn.0000000d
           0x005e020c      dec2           adda.w d2, a7
           0x005e020e      30280314       move.w 0x314(a0), d0
           0x005e0212      c084           and.l d4, d0
           0x005e0214      2f00           move.l d0, -(a7)
           0x005e0216      48780003       pea.l 0x3
           0x005e021a      4eb9004070e4   jsr p_wti_o
           0x005e0220      504f           addq.w 0x8, a7
           0x005e0222      4eb900404946   jsr p_wtln_o
           0x005e0228      487ae04c       pea.l 0x5de276(pc)
           0x005e022c      48780009       pea.l 0x9
           0x005e0230      2f17           move.l (a7), -(a7)
           0x005e0232      4e94           jsr (a4)                    ; fcn.0000000d
           0x005e0234      dec2           adda.w d2, a7
           0x005e0236      48680076       pea.l 0x76(a0)
           0x005e023a      42a7           clr.l -(a7)
           0x005e023c      1f6800750003   move.b 0x75(a0), 0x3(a7)
           0x005e0242      2f17           move.l (a7), -(a7)
           0x005e0244      4e94           jsr (a4)                    ; fcn.0000000d
           0x005e0246      dec2           adda.w d2, a7
           0x005e0248      487ae036       pea.l 0x5de280(pc)
           0x005e024c      48780002       pea.l 0x2
           0x005e0250      2f17           move.l (a7), -(a7)
           0x005e0252      4e94           jsr (a4)                    ; fcn.0000000d
           0x005e0254      dec3           adda.w d3, a7
           0x005e0256      1ea80066       move.b 0x66(a0), (a7)
           0x005e025a      4417           neg.b (a7)
           0x005e025c      5217           addq.b 0x1, (a7)
           0x005e025e      48780005       pea.l 0x5
           0x005e0262      4eb90040718c   jsr p_wtb_o
           0x005e0268      5c4f           addq.w 0x6, a7
           0x005e026a      4eb900404946   jsr p_wtln_o
           0x005e0270      487ae011       pea.l 0x5de283(pc)
           0x005e0274      4878000b       pea.l 0xb
           0x005e0278      2f17           move.l (a7), -(a7)
           0x005e027a      4e94           jsr (a4)                    ; fcn.0000000d
           0x005e027c      dec2           adda.w d2, a7
           0x005e027e      102800d0       move.b 0xd0(a0), d0
           0x005e0282      0280000000ff   andi.l 0xff, d0
           0x005e0288      3f00           move.w d0, -(a7)
           0x005e028a      7e01           moveq 0x1, d7
       > 0x005e028c      be57           cmp.w (a7), d7
      < 0x005e028e      6228           bhi.b 0x5e02b8
         0x005e0290      ce84           and.l d4, d7
         0x005e0292      0c870000005a   cmpi.l 0x5a, d7
     < 0x005e0298      6302           bls.b 0x5e029c
        0x005e029a      4e4f           trap 0xf
     > 0x005e029c      43f07800       lea.l (a0, d7.l), a1
         0x005e02a0      4280           clr.l d0
         0x005e02a2      102900d0       move.b 0xd0(a1), d0
         0x005e02a6      2f00           move.l d0, -(a7)
         0x005e02a8      4878fffc       pea.l 0xfffc
         0x005e02ac      4eb9004070e4   jsr p_wti_o
         0x005e02b2      504f           addq.w 0x8, a7
         0x005e02b4      5247           addq.w 0x1, d7
      < 0x005e02b6      64d4           bcc.b 0x5e028c
      > 0x005e02b8      544f           addq.w 0x2, a7
           0x005e02ba      4eb900404946   jsr p_wtln_o
           0x005e02c0      487adfcd       pea.l 0x5de28f(pc)
           0x005e02c4      48780009       pea.l 0x9
           0x005e02c8      2f17           move.l (a7), -(a7)
           0x005e02ca      4e94           jsr (a4)                    ; fcn.0000000d
           0x005e02cc      dec2           adda.w d2, a7
           0x005e02ce      4868012c       pea.l 0x12c(a0)
           0x005e02d2      42a7           clr.l -(a7)
           0x005e02d4      1f68012b0003   move.b 0x12b(a0), 0x3(a7)
           0x005e02da      2f17           move.l (a7), -(a7)
           0x005e02dc      4e94           jsr (a4)                    ; fcn.0000000d
           0x005e02de      dec2           adda.w d2, a7
           0x005e02e0      487adfb7       pea.l 0x5de299(pc)
           0x005e02e4      48780002       pea.l 0x2
           0x005e02e8      2f17           move.l (a7), -(a7)
           0x005e02ea      4e94           jsr (a4)                    ; fcn.0000000d
           0x005e02ec      dec3           adda.w d3, a7
           0x005e02ee      1ea80067       move.b 0x67(a0), (a7)
           0x005e02f2      4417           neg.b (a7)
           0x005e02f4      5217           addq.b 0x1, (a7)
           0x005e02f6      48780005       pea.l 0x5
           0x005e02fa      4eb90040718c   jsr p_wtb_o
           0x005e0300      5c4f           addq.w 0x6, a7
           0x005e0302      4eb900404946   jsr p_wtln_o
           0x005e0308      487adf92       pea.l 0x5de29c(pc)
           0x005e030c      48780009       pea.l 0x9
           0x005e0310      2f17           move.l (a7), -(a7)
           0x005e0312      4e94           jsr (a4)                    ; fcn.0000000d
           0x005e0314      dec2           adda.w d2, a7
           0x005e0316      486801e2       pea.l 0x1e2(a0)
           0x005e031a      42a7           clr.l -(a7)
           0x005e031c      1f6801e10003   move.b 0x1e1(a0), 0x3(a7)
           0x005e0322      2f17           move.l (a7), -(a7)
           0x005e0324      4e94           jsr (a4)                    ; fcn.0000000d
           0x005e0326      dec2           adda.w d2, a7
           0x005e0328      487adf7c       pea.l 0x5de2a6(pc)
           0x005e032c      48780002       pea.l 0x2
           0x005e0330      2f17           move.l (a7), -(a7)
           0x005e0332      4e94           jsr (a4)                    ; fcn.0000000d
           0x005e0334      dec3           adda.w d3, a7
           0x005e0336      1ea80068       move.b 0x68(a0), (a7)
           0x005e033a      4417           neg.b (a7)
           0x005e033c      5217           addq.b 0x1, (a7)
           0x005e033e      48780005       pea.l 0x5
           0x005e0342      4eb90040718c   jsr p_wtb_o
           0x005e0348      5c4f           addq.w 0x6, a7
           0x005e034a      4eb900404946   jsr p_wtln_o
           0x005e0350      487adf57       pea.l 0x5de2a9(pc)
           0x005e0354      48780009       pea.l 0x9
           0x005e0358      2f17           move.l (a7), -(a7)
           0x005e035a      4e94           jsr (a4)                    ; fcn.0000000d
           0x005e035c      dec2           adda.w d2, a7
           0x005e035e      48680298       pea.l 0x298(a0)
           0x005e0362      42a7           clr.l -(a7)
           0x005e0364      1f6802970003   move.b 0x297(a0), 0x3(a7)
           0x005e036a      2f17           move.l (a7), -(a7)
           0x005e036c      4e94           jsr (a4)                    ; fcn.0000000d
           0x005e036e      dec2           adda.w d2, a7
           0x005e0370      487adf41       pea.l 0x5de2b3(pc)
           0x005e0374      48780002       pea.l 0x2
           0x005e0378      2f17           move.l (a7), -(a7)
           0x005e037a      4e94           jsr (a4)                    ; fcn.0000000d
           0x005e037c      dec3           adda.w d3, a7
           0x005e037e      1ea8006d       move.b 0x6d(a0), (a7)
           0x005e0382      4417           neg.b (a7)
           0x005e0384      5217           addq.b 0x1, (a7)
           0x005e0386      48780005       pea.l 0x5
           0x005e038a      4eb90040718c   jsr p_wtb_o
           0x005e0390      5c4f           addq.w 0x6, a7
           0x005e0392      4eb900404946   jsr p_wtln_o
           0x005e0398      487adf1c       pea.l 0x5de2b6(pc)
           0x005e039c      48780008       pea.l 0x8
           0x005e03a0      2f17           move.l (a7), -(a7)
           0x005e03a2      4e94           jsr (a4)                    ; fcn.0000000d
           0x005e03a4      dec3           adda.w d3, a7
           0x005e03a6      1ea8006a       move.b 0x6a(a0), (a7)
           0x005e03aa      4417           neg.b (a7)
           0x005e03ac      5217           addq.b 0x1, (a7)
           0x005e03ae      48780005       pea.l 0x5
           0x005e03b2      4eb90040718c   jsr p_wtb_o
           0x005e03b8      9ec3           suba.w d3, a7
           0x005e03ba      224f           movea.l a7, a1
           0x005e03bc      45e80316       lea.l 0x316(a0), a2
           0x005e03c0      700f           moveq 0xf, d0
       > 0x005e03c2      12da           move.b (a2)+, (a1)+
       < 0x005e03c4      51c8fffc       dbra d0, 0x5e03c2
           0x005e03c8      4ebafc42       jsr SEARCHER.write_times(pc)
           0x005e03cc      defc0010       adda.w 0x10, a7
           0x005e03d0      487adeed       pea.l 0x5de2bf(pc)
           0x005e03d4      48780009       pea.l 0x9
           0x005e03d8      2f17           move.l (a7), -(a7)
           0x005e03da      4e94           jsr (a4)                    ; fcn.0000000d
           0x005e03dc      dec3           adda.w d3, a7
           0x005e03de      1ea8006c       move.b 0x6c(a0), (a7)
           0x005e03e2      4417           neg.b (a7)
           0x005e03e4      5217           addq.b 0x1, (a7)
           0x005e03e6      48780005       pea.l 0x5
           0x005e03ea      4eb90040718c   jsr p_wtb_o
           0x005e03f0      554f           subq.w 0x2, a7
           0x005e03f2      224f           movea.l a7, a1
           0x005e03f4      45e80326       lea.l 0x326(a0), a2
           0x005e03f8      7007           moveq 0x7, d0
       > 0x005e03fa      12da           move.b (a2)+, (a1)+
       < 0x005e03fc      51c8fffc       dbra d0, 0x5e03fa
           0x005e0400      4ebafc54       jsr SEARCHER.write_numbers(pc)
           0x005e0404      504f           addq.w 0x8, a7
           0x005e0406      7c09           moveq 0x9, d6
       > 0x005e0408      4886           ext.w d6
          0x005e040a      3006           move.w d6, d0
          0x005e040c      04400009       subi.w 0x9, d0
          0x005e0410      5240           addq.w 0x1, d0
          0x005e0412      b044           cmp.w d4, d0
      < 0x005e0414      6302           bls.b 0x5e0418
         0x005e0416      4e4f           trap 0xf
      > 0x005e0418      3a00           move.w d0, d5
          0x005e041a      4886           ext.w d6
          0x005e041c      3006           move.w d6, d0
          0x005e041e      04400009       subi.w 0x9, d0
          0x005e0422      41bc0003       chk.w 0x3, d0
          0x005e0426      43f900841a5a   lea.l 0x841a5a, a1
          0x005e042c      43f10000       lea.l (a1, d0.w), a1
          0x005e0430      4a29044a       tst.b 0x44a(a1)
      < 0x005e0434      6700010c       beq.w 0x5e0542
         0x005e0438      ca84           and.l d4, d5
         0x005e043a      2f05           move.l d5, -(a7)
         0x005e043c      486efefe       pea.l -0x102(a6)
         0x005e0440      4eb90066a332   jsr USERFIELDS.udf_get_name
         0x005e0446      5c4f           addq.w 0x6, a7
         0x005e0448      1ebc0020       move.b 0x20, (a7)
         0x005e044c      48780001       pea.l 0x1
         0x005e0450      4eb9004048b4   jsr p_wtc_o
         0x005e0456      5c4f           addq.w 0x6, a7
         0x005e0458      486efeff       pea.l -0x101(a6)
         0x005e045c      42a7           clr.l -(a7)
         0x005e045e      1f6efefe0003   move.b -0x102(a6), 0x3(a7)
         0x005e0464      2f17           move.l (a7), -(a7)
         0x005e0466      4e94           jsr (a4)                    ; fcn.0000000d
         0x005e0468      dec2           adda.w d2, a7
         0x005e046a      487ade5d       pea.l 0x5de2c9(pc)
         0x005e046e      48780002       pea.l 0x2
         0x005e0472      2f17           move.l (a7), -(a7)
         0x005e0474      4e94           jsr (a4)                    ; fcn.0000000d
         0x005e0476      dec2           adda.w d2, a7
         0x005e0478      4886           ext.w d6
         0x005e047a      1f306065       move.b 0x65(a0, d6.w), -(a7)
         0x005e047e      4417           neg.b (a7)
         0x005e0480      5217           addq.b 0x1, (a7)
         0x005e0482      48780005       pea.l 0x5
         0x005e0486      4eb90040718c   jsr p_wtb_o
         0x005e048c      584f           addq.w 0x4, a7
         0x005e048e      1ebc0020       move.b 0x20, (a7)
         0x005e0492      48780001       pea.l 0x1
         0x005e0496      4eb9004048b4   jsr p_wtc_o
         0x005e049c      5c4f           addq.w 0x6, a7
         0x005e049e      1229044a       move.b 0x44a(a1), d1
         0x005e04a2      0c010009       cmpi.b 0x9, d1
     < 0x005e04a6      6d0e           blt.b 0x5e04b6
        0x005e04a8      0c010009       cmpi.b 0x9, d1
    < 0x005e04ac      6776           beq.b 0x5e0524
       0x005e04ae      0c01000b       cmpi.b 0xb, d1
   < 0x005e04b2      674c           beq.b 0x5e0500
      0x005e04b4      4e4e           trap 0xe
   > 0x005e04b6      0c010002       cmpi.b 0x2, d1
   < 0x005e04ba      6702           beq.b 0x5e04be
      0x005e04bc      4e4e           trap 0xe
   > 0x005e04be      725c           moveq 0x5c, d1
       0x005e04c0      c3c0           muls.w d0, d1
       0x005e04c2      1f3c0022       move.b 0x22, -(a7)
       0x005e04c6      48780001       pea.l 0x1
       0x005e04ca      4eb9004048b4   jsr p_wtc_o
       0x005e04d0      5c4f           addq.w 0x6, a7
       0x005e04d2      45f01000       lea.l (a0, d1.w), a2
       0x005e04d6      486a032f       pea.l 0x32f(a2)
       0x005e04da      42a7           clr.l -(a7)
       0x005e04dc      1f6a032e0003   move.b 0x32e(a2), 0x3(a7)
       0x005e04e2      2f17           move.l (a7), -(a7)
       0x005e04e4      4e94           jsr (a4)                    ; fcn.0000000d
       0x005e04e6      dec3           adda.w d3, a7
       0x005e04e8      1ebc0022       move.b 0x22, (a7)
       0x005e04ec      48780001       pea.l 0x1
       0x005e04f0      4eb9004048b4   jsr p_wtc_o
       0x005e04f6      5c4f           addq.w 0x6, a7
       0x005e04f8      4eb900404946   jsr p_wtln_o
   < 0x005e04fe      6042           bra.b 0x5e0542
   > 0x005e0500      725c           moveq 0x5c, d1
       0x005e0502      c3c0           muls.w d0, d1
       0x005e0504      45f01000       lea.l (a0, d1.w), a2
       0x005e0508      9efc0010       suba.w 0x10, a7
       0x005e050c      264f           movea.l a7, a3
       0x005e050e      45ea032e       lea.l 0x32e(a2), a2
       0x005e0512      720f           moveq 0xf, d1
   > 0x005e0514      16da           move.b (a2)+, (a3)+
   < 0x005e0516      51c9fffc       dbra d1, 0x5e0514
       0x005e051a      4ebafaf0       jsr SEARCHER.write_times(pc)
       0x005e051e      defc0010       adda.w 0x10, a7
   < 0x005e0522      601e           bra.b 0x5e0542
   > 0x005e0524      725c           moveq 0x5c, d1
       0x005e0526      c3c0           muls.w d0, d1
       0x005e0528      45f01000       lea.l (a0, d1.w), a2
       0x005e052c      514f           subq.w 0x8, a7
       0x005e052e      264f           movea.l a7, a3
       0x005e0530      45ea032e       lea.l 0x32e(a2), a2
       0x005e0534      7207           moveq 0x7, d1
   > 0x005e0536      16da           move.b (a2)+, (a3)+
   < 0x005e0538      51c9fffc       dbra d1, 0x5e0536
       0x005e053c      4ebafb18       jsr SEARCHER.write_numbers(pc)
       0x005e0540      504f           addq.w 0x8, a7
   > 0x005e0542      5206           addq.b 0x1, d6
          0x005e0544      bc02           cmp.b d2, d6
       < 0x005e0546      6f00fec0       ble.w 0x5e0408
           0x005e054a      9efc0100       suba.w 0x100, a7
           0x005e054e      102804bf       move.b 0x4bf(a0), d0
           0x005e0552      4880           ext.w d0
           0x005e0554      41bc000f       chk.w 0xf, d0
           0x005e0558      1f00           move.b d0, -(a7)
           0x005e055a      4eb9005e0f50   jsr SEARCHER.field_str
           0x005e0560      544f           addq.w 0x2, a7
           0x005e0562      487add68       pea.l 0x5de2cc(pc)
           0x005e0566      48780014       pea.l 0x14
           0x005e056a      2f17           move.l (a7), -(a7)
           0x005e056c      4e94           jsr (a4)                    ; fcn.0000000d
           0x005e056e      dec2           adda.w d2, a7
           0x005e0570      486f0001       pea.l 0x1(a7)
           0x005e0574      42a7           clr.l -(a7)
           0x005e0576      1f6f00080003   move.b 0x8(a7), 0x3(a7)
           0x005e057c      2f17           move.l (a7), -(a7)
           0x005e057e      4e94           jsr (a4)                    ; fcn.0000000d
           0x005e0580      defc010c       adda.w 0x10c, a7
           0x005e0584      4eb900404946   jsr p_wtln_o
           0x005e058a      9efc0100       suba.w 0x100, a7
           0x005e058e      486804c0       pea.l 0x4c0(a0)
           0x005e0592      4eb9005ef416   jsr F2_UTILITY.f_fid_string
           0x005e0598      584f           addq.w 0x4, a7
           0x005e059a      487add45       pea.l 0x5de2e1(pc)
           0x005e059e      48780009       pea.l 0x9
           0x005e05a2      2f17           move.l (a7), -(a7)
           0x005e05a4      4e94           jsr (a4)                    ; fcn.0000000d
           0x005e05a6      dec2           adda.w d2, a7
           0x005e05a8      486f0001       pea.l 0x1(a7)
           0x005e05ac      42a7           clr.l -(a7)
           0x005e05ae      1f6f00080003   move.b 0x8(a7), 0x3(a7)
           0x005e05b4      2f17           move.l (a7), -(a7)
           0x005e05b6      4e94           jsr (a4)                    ; fcn.0000000d
           0x005e05b8      defc010c       adda.w 0x10c, a7
           0x005e05bc      487add2d       pea.l 0x5de2eb(pc)
           0x005e05c0      48780008       pea.l 0x8
           0x005e05c4      2f17           move.l (a7), -(a7)
           0x005e05c6      4e94           jsr (a4)                    ; fcn.0000000d
           0x005e05c8      504f           addq.w 0x8, a7
           0x005e05ca      2ea804ca       move.l 0x4ca(a0), (a7)
           0x005e05ce      48780001       pea.l 0x1
           0x005e05d2      4eb9004070e4   jsr p_wti_o
           0x005e05d8      504f           addq.w 0x8, a7
           0x005e05da      487add18       pea.l 0x5de2f4(pc)
           0x005e05de      48780004       pea.l 0x4
           0x005e05e2      2f17           move.l (a7), -(a7)
           0x005e05e4      4e94           jsr (a4)                    ; fcn.0000000d
           0x005e05e6      504f           addq.w 0x8, a7
           0x005e05e8      2ea804ce       move.l 0x4ce(a0), (a7)
           0x005e05ec      48780001       pea.l 0x1
           0x005e05f0      4eb9004070e4   jsr p_wti_o
           0x005e05f6      504f           addq.w 0x8, a7
           0x005e05f8      4eb900404946   jsr p_wtln_o
           0x005e05fe      4eb900404946   jsr p_wtln_o
           0x005e0604      4cdf1fff       movem.l (a7)+, d0-d7/a0-a4
           0x005e0608      4e5e           unlk a6
           0x005e060a      4e75           rts
            ; XREFS: CALL 0x005e0a80  CALL 0x005e132c  CALL 0x005e1398  
            ; XREFS: CALL 0x005e15ae  CALL 0x005e164a  CALL 0x005e1772  
            ; XREFS: CALL 0x005e18b6  CALL 0x005e1980  CALL 0x005e19f4  
            ; XREFS: CALL 0x005e399e  CALL 0x005e3fe0  CALL 0x005e5e08  
            ; XREFS: CALL 0x005e6034  CALL 0x005e61ae  
 616: SEARCHER.get_search_spec ();
           0x005e060c      4e56ff5a       link.w a6, 0xff5a
           0x005e0610      bfd5           cmpa.l (a5), a7
       < 0x005e0612      6206           bhi.b 0x5e061a
          0x005e0614      44fc0002       move.w 0x2, ccr
          0x005e0618      4e76           trapv
       > 0x005e061a      defc00a0       adda.w 0xa0, a7
           0x005e061e      48e7fff8       movem.l d0-d7/a0-a4, -(a7)
           0x005e0622      47eefffc       lea.l -0x4(a6), a3
           0x005e0626      49f900841a98   lea.l 0x841a98, a4
           0x005e062c      765a           moveq 0x5a, d3
           0x005e062e      7852           moveq 0x52, d4
           0x005e0630      7a01           moveq 0x1, d5
           0x005e0632      7c05           moveq 0x5, d6
           0x005e0634      7e00           moveq 0x0, d7
           0x005e0636      487900841a8a   pea.l 0x841a8a
           0x005e063c      4eb9004023c4   jsr p_Wait
           0x005e0642      584f           addq.w 0x4, a7
           0x005e0644      2694           move.l (a4), (a3)
       > 0x005e0646      2053           movea.l (a3), a0
          0x005e0648      b0c5           cmpa.w d5, a0
      < 0x005e064a      671e           beq.b 0x5e066a
         0x005e064c      4a07           tst.b d7
     < 0x005e064e      661a           bne.b 0x5e066a
        0x005e0650      b1e8fffc       cmpa.l -0x4(a0), a0
    < 0x005e0654      6702           beq.b 0x5e0658
       0x005e0656      4e4d           trap 0xd
    > 0x005e0658      20280004       move.l 0x4(a0), d0
        0x005e065c      b0ae0008       cmp.l 0x8(a6), d0
    < 0x005e0660      6604           bne.b 0x5e0666
       0x005e0662      7e01           moveq 0x1, d7
   < 0x005e0664      6002           bra.b 0x5e0668
   > 0x005e0666      2690           move.l (a0), (a3)
   < 0x005e0668      60dc           bra.b 0x5e0646
     > 0x005e066a      4a07           tst.b d7
       < 0x005e066c      660001ec       bne.w 0x5e085a
          0x005e0670      4853           pea.l (a3)
          0x005e0672      487804ff       pea.l 0x4ff
          0x005e0676      4eb900403a92   jsr p_New
          0x005e067c      504f           addq.w 0x8, a7
          0x005e067e      2053           movea.l (a3), a0
          0x005e0680      b1e8fffc       cmpa.l -0x4(a0), a0
      < 0x005e0684      6702           beq.b 0x5e0688
         0x005e0686      4e4d           trap 0xd
      > 0x005e0688      2094           move.l (a4), (a0)
          0x005e068a      2893           move.l (a3), (a4)
          0x005e068c      202e0008       move.l 0x8(a6), d0
          0x005e0690      21400004       move.l d0, 0x4(a0)
          0x005e0694      0c807fffffff   cmpi.l 0x7fffffff, d0
      < 0x005e069a      6614           bne.b 0x5e06b0
         0x005e069c      43e80008       lea.l 0x8(a0), a1
         0x005e06a0      45fadc68       lea.l 0x5de30a(pc), a2
         0x005e06a4      720a           moveq 0xa, d1
     > 0x005e06a6      12da           move.b (a2)+, (a1)+
     < 0x005e06a8      51c9fffc       dbra d1, 0x5e06a6
     < 0x005e06ac      60000160       bra.w 0x5e080e
     > 0x005e06b0      2200           move.l d0, d1
         0x005e06b2      e089           lsr.l 0x8, d1
         0x005e06b4      e089           lsr.l 0x8, d1
         0x005e06b6      b285           cmp.l d5, d1
     < 0x005e06b8      6670           bne.b 0x5e072a
        0x005e06ba      2f00           move.l d0, -(a7)
        0x005e06bc      02970000ffff   andi.l 0xffff, (a7)
        0x005e06c2      48780001       pea.l 0x1
        0x005e06c6      48680008       pea.l 0x8(a0)
        0x005e06ca      3f03           move.w d3, -(a7)
        0x005e06cc      4eb900406e56   jsr p_strI1
        0x005e06d2      9ec4           suba.w d4, a7
        0x005e06d4      7204           moveq 0x4, d1
        0x005e06d6      43ef0001       lea.l 0x1(a7), a1
        0x005e06da      45fadc3a       lea.l 0x5de316(pc), a2
    > 0x005e06de      12da           move.b (a2)+, (a1)+
    < 0x005e06e0      51c9fffc       dbra d1, 0x5e06de
        0x005e06e4      4241           clr.w d1
        0x005e06e6      12280008       move.b 0x8(a0), d1
        0x005e06ea      745f           moveq 0x5f, d2
        0x005e06ec      5b42           subq.w 0x5, d2
        0x005e06ee      b242           cmp.w d2, d1
    < 0x005e06f0      6302           bls.b 0x5e06f4
       0x005e06f2      3202           move.w d2, d1
    > 0x005e06f4      1e86           move.b d6, (a7)
        0x005e06f6      d317           add.b d1, (a7)
        0x005e06f8      5301           subq.b 0x1, d1
    < 0x005e06fa      650a           bcs.b 0x5e0706
       0x005e06fc      45e80009       lea.l 0x9(a0), a2
   > 0x005e0700      12da           move.b (a2)+, (a1)+
   < 0x005e0702      51c9fffc       dbra d1, 0x5e0700
    > 0x005e0706      4241           clr.w d1
        0x005e0708      1217           move.b (a7), d1
        0x005e070a      b203           cmp.b d3, d1
    < 0x005e070c      6302           bls.b 0x5e0710
       0x005e070e      725a           moveq 0x5a, d1
    > 0x005e0710      11410008       move.b d1, 0x8(a0)
        0x005e0714      5301           subq.b 0x1, d1
    < 0x005e0716      650e           bcs.b 0x5e0726
       0x005e0718      43e80009       lea.l 0x9(a0), a1
       0x005e071c      45ef0001       lea.l 0x1(a7), a2
   > 0x005e0720      12da           move.b (a2)+, (a1)+
   < 0x005e0722      51c9fffc       dbra d1, 0x5e0720
   > 0x005e0726      600000e2       bra.w 0x5e080a
    > 0x005e072a      2200           move.l d0, d1
        0x005e072c      028180000000   andi.l 0x80000000, d1
    < 0x005e0732      6770           beq.b 0x5e07a4
       0x005e0734      2f00           move.l d0, -(a7)
       0x005e0736      02977fffffff   andi.l 0x7fffffff, (a7)
       0x005e073c      4878ffff       pea.l 0xffff
       0x005e0740      48680008       pea.l 0x8(a0)
       0x005e0744      3f03           move.w d3, -(a7)
       0x005e0746      4eb900406e56   jsr p_strI1
       0x005e074c      9ec4           suba.w d4, a7
       0x005e074e      7203           moveq 0x3, d1
       0x005e0750      43ef0001       lea.l 0x1(a7), a1
       0x005e0754      45fadbc6       lea.l 0x5de31c(pc), a2
   > 0x005e0758      12da           move.b (a2)+, (a1)+
   < 0x005e075a      51c9fffc       dbra d1, 0x5e0758
       0x005e075e      4241           clr.w d1
       0x005e0760      12280008       move.b 0x8(a0), d1
       0x005e0764      745e           moveq 0x5e, d2
       0x005e0766      5942           subq.w 0x4, d2
       0x005e0768      b242           cmp.w d2, d1
   < 0x005e076a      6302           bls.b 0x5e076e
      0x005e076c      3202           move.w d2, d1
   > 0x005e076e      1ebc0004       move.b 0x4, (a7)
       0x005e0772      d317           add.b d1, (a7)
       0x005e0774      5301           subq.b 0x1, d1
   < 0x005e0776      650a           bcs.b 0x5e0782
      0x005e0778      45e80009       lea.l 0x9(a0), a2
  > 0x005e077c      12da           move.b (a2)+, (a1)+
  < 0x005e077e      51c9fffc       dbra d1, 0x5e077c
   > 0x005e0782      4241           clr.w d1
       0x005e0784      1217           move.b (a7), d1
       0x005e0786      b203           cmp.b d3, d1
   < 0x005e0788      6302           bls.b 0x5e078c
      0x005e078a      725a           moveq 0x5a, d1
   > 0x005e078c      11410008       move.b d1, 0x8(a0)
       0x005e0790      5301           subq.b 0x1, d1
   < 0x005e0792      650e           bcs.b 0x5e07a2
      0x005e0794      43e80009       lea.l 0x9(a0), a1
      0x005e0798      45ef0001       lea.l 0x1(a7), a2
  > 0x005e079c      12da           move.b (a2)+, (a1)+
  < 0x005e079e      51c9fffc       dbra d1, 0x5e079c
  > 0x005e07a2      6066           bra.b 0x5e080a
   > 0x005e07a4      2f00           move.l d0, -(a7)
       0x005e07a6      48780002       pea.l 0x2
       0x005e07aa      48680008       pea.l 0x8(a0)
       0x005e07ae      3f03           move.w d3, -(a7)
       0x005e07b0      4eb900406e56   jsr p_strI1
       0x005e07b6      9ec4           suba.w d4, a7
       0x005e07b8      7204           moveq 0x4, d1
       0x005e07ba      43ef0001       lea.l 0x1(a7), a1
       0x005e07be      45fadb61       lea.l 0x5de321(pc), a2
   > 0x005e07c2      12da           move.b (a2)+, (a1)+
   < 0x005e07c4      51c9fffc       dbra d1, 0x5e07c2
       0x005e07c8      4241           clr.w d1
       0x005e07ca      12280008       move.b 0x8(a0), d1
       0x005e07ce      745f           moveq 0x5f, d2
       0x005e07d0      5b42           subq.w 0x5, d2
       0x005e07d2      b242           cmp.w d2, d1
   < 0x005e07d4      6302           bls.b 0x5e07d8
      0x005e07d6      3202           move.w d2, d1
   > 0x005e07d8      1e86           move.b d6, (a7)
       0x005e07da      d317           add.b d1, (a7)
       0x005e07dc      5301           subq.b 0x1, d1
   < 0x005e07de      650a           bcs.b 0x5e07ea
      0x005e07e0      45e80009       lea.l 0x9(a0), a2
  > 0x005e07e4      12da           move.b (a2)+, (a1)+
  < 0x005e07e6      51c9fffc       dbra d1, 0x5e07e4
   > 0x005e07ea      4241           clr.w d1
       0x005e07ec      1217           move.b (a7), d1
       0x005e07ee      b203           cmp.b d3, d1
   < 0x005e07f0      6302           bls.b 0x5e07f4
      0x005e07f2      725a           moveq 0x5a, d1
   > 0x005e07f4      11410008       move.b d1, 0x8(a0)
       0x005e07f8      5301           subq.b 0x1, d1
   < 0x005e07fa      650e           bcs.b 0x5e080a
      0x005e07fc      43e80009       lea.l 0x9(a0), a1
      0x005e0800      45ef0001       lea.l 0x1(a7), a2
  > 0x005e0804      12da           move.b (a2)+, (a1)+
  < 0x005e0806      51c9fffc       dbra d1, 0x5e0804
  > 0x005e080a      defc0060       adda.w 0x60, a7
     > 0x005e080e      2f13           move.l (a3), -(a7)
          0x005e0810      4ebaf606       jsr SEARCHER.reset_search_sp(pc)
          0x005e0814      584f           addq.w 0x4, a7
          0x005e0816      43e804d6       lea.l 0x4d6(a0), a1
          0x005e081a      45fad7e2       lea.l 0x5ddffe(pc), a2
          0x005e081e      7009           moveq 0x9, d0
      > 0x005e0820      12da           move.b (a2)+, (a1)+
      < 0x005e0822      51c8fffc       dbra d0, 0x5e0820
          0x005e0826      43e804e0       lea.l 0x4e0(a0), a1
          0x005e082a      45fad7d2       lea.l 0x5ddffe(pc), a2
          0x005e082e      7009           moveq 0x9, d0
      > 0x005e0830      12da           move.b (a2)+, (a1)+
      < 0x005e0832      51c8fffc       dbra d0, 0x5e0830
          0x005e0836      43e804ea       lea.l 0x4ea(a0), a1
          0x005e083a      45fad7c2       lea.l 0x5ddffe(pc), a2
          0x005e083e      7009           moveq 0x9, d0
      > 0x005e0840      12da           move.b (a2)+, (a1)+
      < 0x005e0842      51c8fffc       dbra d0, 0x5e0840
          0x005e0846      43e804f4       lea.l 0x4f4(a0), a1
          0x005e084a      45fad7b2       lea.l 0x5ddffe(pc), a2
          0x005e084e      7009           moveq 0x9, d0
      > 0x005e0850      12da           move.b (a2)+, (a1)+
      < 0x005e0852      51c8fffc       dbra d0, 0x5e0850
          0x005e0856      422804fe       clr.b 0x4fe(a0)
       > 0x005e085a      487900841a8a   pea.l 0x841a8a
           0x005e0860      4eb90040234e   jsr p_Signal
           0x005e0866      584f           addq.w 0x4, a7
           0x005e0868      2d53000c       move.l (a3), 0xc(a6)
           0x005e086c      4cdf1fff       movem.l (a7)+, d0-d7/a0-a4
           0x005e0870      4e5e           unlk a6
           0x005e0872      4e75           rts
            ; CALL XREFS from SEARCHER.delete_search_s @ 0x5e0a16, 0x5e0a22, 0x5e0a2e, 0x5e0a3a
 186: SEARCHER.lose_map ();
           ; var int32_t var_8h @ a7+0x8
           0x005e0874      4e56fed8       link.w a6, 0xfed8
           0x005e0878      bfd5           cmpa.l (a5), a7
       < 0x005e087a      6206           bhi.b 0x5e0882
          0x005e087c      44fc0002       move.w 0x2, ccr
          0x005e0880      4e76           trapv
       > 0x005e0882      defc0128       adda.w 0x128, a7
           0x005e0886      48e7c0e0       movem.l d0-d1/a0-a2, -(a7)
           0x005e088a      720a           moveq 0xa, d1
           0x005e088c      206e0008       movea.l 0x8(a6), a0
           0x005e0890      554f           subq.w 0x2, a7
           0x005e0892      2f3ad770       move.l 0x5de004(pc), -(a7)
           0x005e0896      2f3ad768       move.l 0x5de000(pc), -(a7)
           0x005e089a      3f3ad762       move.w 0x5ddffe(pc), -(a7)
           0x005e089e      9ec1           suba.w d1, a7
           0x005e08a0      224f           movea.l a7, a1
           0x005e08a2      2448           movea.l a0, a2
           0x005e08a4      7009           moveq 0x9, d0
       > 0x005e08a6      12da           move.b (a2)+, (a1)+
       < 0x005e08a8      51c8fffc       dbra d0, 0x5e08a6
           0x005e08ac      4eb9005ef3d2   jsr F2_UTILITY.f_fids_eq
           0x005e08b2      defc0014       adda.w 0x14, a7
           0x005e08b6      4a1f           tst.b (a7)+
       < 0x005e08b8      666c           bne.b 0x5e0926
          0x005e08ba      9efc000c       suba.w 0xc, a7
          0x005e08be      224f           movea.l a7, a1
          0x005e08c0      2448           movea.l a0, a2
          0x005e08c2      7009           moveq 0x9, d0
      > 0x005e08c4      12da           move.b (a2)+, (a1)+
      < 0x005e08c6      51c8fffc       dbra d0, 0x5e08c4
          0x005e08ca      4eb900605066   jsr F9_FILERDWRT.f_delete
          0x005e08d0      dec1           adda.w d1, a7
          0x005e08d2      4a1f           tst.b (a7)+
      < 0x005e08d4      6650           bne.b 0x5e0926
         0x005e08d6      9efc0100       suba.w 0x100, a7
         0x005e08da      4eb900408ec0   jsr p_err_string
         0x005e08e0      487ada45       pea.l 0x5de327(pc)
         0x005e08e4      4878001d       pea.l 0x1d
         0x005e08e8      2f17           move.l (a7), -(a7)
         0x005e08ea      4eb9004047ea   jsr p_wts_o
         0x005e08f0      504f           addq.w 0x8, a7
         0x005e08f2      2eac0012       move.l 0x12(a4), (a7)
         0x005e08f6      48780000       pea.l 0x0
         0x005e08fa      4eb9004070e4   jsr p_wti_o
         0x005e0900      504f           addq.w 0x8, a7
         0x005e0902      486f0001       pea.l 0x1(a7)
         0x005e0906      42a7           clr.l -(a7)
         0x005e0908      1f6f00080003   move.b 0x8(a7), 0x3(a7)
         0x005e090e      2f17           move.l (a7), -(a7)
         0x005e0910      4eb9004047ea   jsr p_wts_o
         0x005e0916      defc010c       adda.w 0x10c, a7
         0x005e091a      4eb900404946   jsr p_wtln_o
         0x005e0920      4eb900404188   jsr p_Unlink
      > 0x005e0926      4cdf0703       movem.l (a7)+, d0-d1/a0-a2
           0x005e092a      4e5e           unlk a6
           0x005e092c      4e75           rts
            ; CALL XREF from SEARCHER.sea_done @ 0x5e0b44
 296: SEARCHER.delete_search_s ();
           0x005e092e      4e56ffc2       link.w a6, 0xffc2
           0x005e0932      bfd5           cmpa.l (a5), a7
       < 0x005e0934      6206           bhi.b 0x5e093c
          0x005e0936      44fc0002       move.w 0x2, ccr
          0x005e093a      4e76           trapv
       > 0x005e093c      defc0034       adda.w 0x34, a7
           0x005e0940      48e7c1f8       movem.l d0-d1/d7/a0-a4, -(a7)
           0x005e0944      43eefffc       lea.l -0x4(a6), a1
           0x005e0948      45eefff6       lea.l -0xa(a6), a2
           0x005e094c      7201           moveq 0x1, d1
           0x005e094e      7e00           moveq 0x0, d7
           0x005e0950      487900841a8a   pea.l 0x841a8a
           0x005e0956      4eb9004023c4   jsr p_Wait
           0x005e095c      584f           addq.w 0x4, a7
           0x005e095e      3641           movea.w d1, a3
           0x005e0960      22b900841a98   move.l 0x841a98, (a1)
       > 0x005e0966      2051           movea.l (a1), a0
          0x005e0968      b0c1           cmpa.w d1, a0
      < 0x005e096a      6720           beq.b 0x5e098c
         0x005e096c      4a07           tst.b d7
     < 0x005e096e      661c           bne.b 0x5e098c
        0x005e0970      b1e8fffc       cmpa.l -0x4(a0), a0
    < 0x005e0974      6702           beq.b 0x5e0978
       0x005e0976      4e4d           trap 0xd
    > 0x005e0978      20280004       move.l 0x4(a0), d0
        0x005e097c      b0ae0008       cmp.l 0x8(a6), d0
    < 0x005e0980      6604           bne.b 0x5e0986
       0x005e0982      7e01           moveq 0x1, d7
   < 0x005e0984      6004           bra.b 0x5e098a
   > 0x005e0986      2648           movea.l a0, a3
       0x005e0988      2290           move.l (a0), (a1)
   < 0x005e098a      60da           bra.b 0x5e0966
     > 0x005e098c      4a07           tst.b d7
       < 0x005e098e      6728           beq.b 0x5e09b8
          0x005e0990      b6c1           cmpa.w d1, a3
      < 0x005e0992      6610           bne.b 0x5e09a4
         0x005e0994      b1e8fffc       cmpa.l -0x4(a0), a0
     < 0x005e0998      6702           beq.b 0x5e099c
        0x005e099a      4e4d           trap 0xd
     > 0x005e099c      23d000841a98   move.l (a0), 0x841a98
     < 0x005e09a2      6050           bra.b 0x5e09f4
     > 0x005e09a4      b7ebfffc       cmpa.l -0x4(a3), a3
     < 0x005e09a8      6702           beq.b 0x5e09ac
        0x005e09aa      4e4d           trap 0xd
     > 0x005e09ac      b1e8fffc       cmpa.l -0x4(a0), a0
     < 0x005e09b0      6702           beq.b 0x5e09b4
        0x005e09b2      4e4d           trap 0xd
     > 0x005e09b4      2690           move.l (a0), (a3)
     < 0x005e09b6      603c           bra.b 0x5e09f4
     > 0x005e09b8      487ad9a0       pea.l 0x5de35a(pc)
         0x005e09bc      48780014       pea.l 0x14
         0x005e09c0      2f17           move.l (a7), -(a7)
         0x005e09c2      4eb9004047ea   jsr p_wts_o
         0x005e09c8      504f           addq.w 0x8, a7
         0x005e09ca      2eae0008       move.l 0x8(a6), (a7)
         0x005e09ce      4878fffc       pea.l 0xfffc
         0x005e09d2      4eb9004070e4   jsr p_wti_o
         0x005e09d8      504f           addq.w 0x8, a7
         0x005e09da      487ad993       pea.l 0x5de36f(pc)
         0x005e09de      4878000c       pea.l 0xc
         0x005e09e2      2f17           move.l (a7), -(a7)
         0x005e09e4      4eb9004047ea   jsr p_wts_o
         0x005e09ea      defc000c       adda.w 0xc, a7
         0x005e09ee      4eb900404946   jsr p_wtln_o
     > 0x005e09f4      487900841a8a   pea.l 0x841a8a
           0x005e09fa      4eb90040234e   jsr p_Signal
           0x005e0a00      584f           addq.w 0x4, a7
           0x005e0a02      4a07           tst.b d7
       < 0x005e0a04      6748           beq.b 0x5e0a4e
          0x005e0a06      2051           movea.l (a1), a0
          0x005e0a08      b1e8fffc       cmpa.l -0x4(a0), a0
      < 0x005e0a0c      6702           beq.b 0x5e0a10
         0x005e0a0e      4e4d           trap 0xd
      > 0x005e0a10      486804d6       pea.l 0x4d6(a0)
          0x005e0a14      284a           movea.l a2, a4
          0x005e0a16      4ebafe5c       jsr SEARCHER.lose_map(pc)
          0x005e0a1a      584f           addq.w 0x4, a7
          0x005e0a1c      486804e0       pea.l 0x4e0(a0)
          0x005e0a20      284a           movea.l a2, a4
          0x005e0a22      4ebafe50       jsr SEARCHER.lose_map(pc)
          0x005e0a26      584f           addq.w 0x4, a7
          0x005e0a28      486804ea       pea.l 0x4ea(a0)
          0x005e0a2c      284a           movea.l a2, a4
          0x005e0a2e      4ebafe44       jsr SEARCHER.lose_map(pc)
          0x005e0a32      584f           addq.w 0x4, a7
          0x005e0a34      486804f4       pea.l 0x4f4(a0)
          0x005e0a38      284a           movea.l a2, a4
          0x005e0a3a      4ebafe38       jsr SEARCHER.lose_map(pc)
          0x005e0a3e      584f           addq.w 0x4, a7
          0x005e0a40      4851           pea.l (a1)
          0x005e0a42      487804ff       pea.l 0x4ff
          0x005e0a46      4eb900403b98   jsr p_Dispos
          0x005e0a4c      504f           addq.w 0x8, a7
       > 0x005e0a4e      4cdf1f83       movem.l (a7)+, d0-d1/d7/a0-a4
           0x005e0a52      4e5e           unlk a6
           0x005e0a54      4e75           rts
 216: SEARCHER.sea_set_user ();
           0x005e0a56      4e56ffc4       link.w a6, 0xffc4
           0x005e0a5a      bfd5           cmpa.l (a5), a7
       < 0x005e0a5c      6206           bhi.b 0x5e0a64
          0x005e0a5e      44fc0002       move.w 0x2, ccr
          0x005e0a62      4e76           trapv
       > 0x005e0a64      defc0034       adda.w 0x34, a7
           0x005e0a68      48e7f3e8       movem.l d0-d3/d6-d7/a0-a2/a4, -(a7)
           0x005e0a6c      43ee000a       lea.l 0xa(a6), a1
           0x005e0a70      45ee0008       lea.l 0x8(a6), a2
           0x005e0a74      263c0000ffff   move.l 0xffff, d3
           0x005e0a7a      594f           subq.w 0x4, a7
           0x005e0a7c      2f2e0010       move.l 0x10(a6), -(a7)
           0x005e0a80      4ebafb8a       jsr SEARCHER.get_search_spec(pc)
           0x005e0a84      584f           addq.w 0x4, a7
           0x005e0a86      285f           movea.l (a7)+, a4
           0x005e0a88      4a51           tst.w (a1)
       < 0x005e0a8a      6626           bne.b 0x5e0ab2
          0x005e0a8c      4280           clr.l d0
          0x005e0a8e      3011           move.w (a1), d0
          0x005e0a90      2200           move.l d0, d1
          0x005e0a92      4282           clr.l d2
          0x005e0a94      3412           move.w (a2), d2
          0x005e0a96      b282           cmp.l d2, d1
      < 0x005e0a98      6204           bhi.b 0x5e0a9e
         0x005e0a9a      9280           sub.l d0, d1
     < 0x005e0a9c      6402           bcc.b 0x5e0aa0
     > 0x005e0a9e      4e4f           trap 0xf
     > 0x005e0aa0      206e000c       movea.l 0xc(a6), a0
          0x005e0aa4      10301800       move.b (a0, d1.l), d0
          0x005e0aa8      0280000000ff   andi.l 0xff, d0
          0x005e0aae      3c00           move.w d0, d6
      < 0x005e0ab0      6016           bra.b 0x5e0ac8
      > 0x005e0ab2      4280           clr.l d0
          0x005e0ab4      3012           move.w (a2), d0
          0x005e0ab6      4281           clr.l d1
          0x005e0ab8      3211           move.w (a1), d1
          0x005e0aba      4481           neg.l d1
          0x005e0abc      d280           add.l d0, d1
          0x005e0abe      5281           addq.l 0x1, d1
          0x005e0ac0      b283           cmp.l d3, d1
      < 0x005e0ac2      6302           bls.b 0x5e0ac6
         0x005e0ac4      4e4f           trap 0xf
      > 0x005e0ac6      3c01           move.w d1, d6
      > 0x005e0ac8      0c460050       cmpi.w 0x50, d6
       < 0x005e0acc      6302           bls.b 0x5e0ad0
          0x005e0ace      7c50           moveq 0x50, d6
       > 0x005e0ad0      206e000c       movea.l 0xc(a6), a0
           0x005e0ad4      7e01           moveq 0x1, d7
       > 0x005e0ad6      be46           cmp.w d6, d7
      < 0x005e0ad8      6234           bhi.b 0x5e0b0e
         0x005e0ada      ce83           and.l d3, d7
         0x005e0adc      0c870000005a   cmpi.l 0x5a, d7
     < 0x005e0ae2      6302           bls.b 0x5e0ae6
        0x005e0ae4      4e4f           trap 0xf
     > 0x005e0ae6      b9ecfffc       cmpa.l -0x4(a4), a4
     < 0x005e0aea      6702           beq.b 0x5e0aee
        0x005e0aec      4e4d           trap 0xd
     > 0x005e0aee      ce83           and.l d3, d7
         0x005e0af0      2007           move.l d7, d0
         0x005e0af2      4281           clr.l d1
         0x005e0af4      3212           move.w (a2), d1
         0x005e0af6      b081           cmp.l d1, d0
     < 0x005e0af8      6208           bhi.b 0x5e0b02
        0x005e0afa      4281           clr.l d1
        0x005e0afc      3211           move.w (a1), d1
        0x005e0afe      9081           sub.l d1, d0
    < 0x005e0b00      6402           bcc.b 0x5e0b04
    > 0x005e0b02      4e4f           trap 0xf
    > 0x005e0b04      19b008007808   move.b (a0, d0.l), 0x8(a4, d7.l)
         0x005e0b0a      5247           addq.w 0x1, d7
      < 0x005e0b0c      64c8           bcc.b 0x5e0ad6
      > 0x005e0b0e      b9ecfffc       cmpa.l -0x4(a4), a4
       < 0x005e0b12      6702           beq.b 0x5e0b16
          0x005e0b14      4e4d           trap 0xd
       > 0x005e0b16      cc83           and.l d3, d6
           0x005e0b18      0c86000000ff   cmpi.l 0xff, d6
       < 0x005e0b1e      6302           bls.b 0x5e0b22
          0x005e0b20      4e4f           trap 0xf
       > 0x005e0b22      19460008       move.b d6, 0x8(a4)
           0x005e0b26      4cdf17cf       movem.l (a7)+, d0-d3/d6-d7/a0-a2/a4
           0x005e0b2a      4e5e           unlk a6
           0x005e0b2c      4e75           rts
 32: SEARCHER.sea_done ();
           0x005e0b2e      4e56fff8       link.w a6, 0xfff8
           0x005e0b32      bfd5           cmpa.l (a5), a7
       < 0x005e0b34      6206           bhi.b 0x5e0b3c
          0x005e0b36      44fc0002       move.w 0x2, ccr
          0x005e0b3a      4e76           trapv
       > 0x005e0b3c      defc0008       adda.w 0x8, a7
           0x005e0b40      2f2e0008       move.l 0x8(a6), -(a7)
           0x005e0b44      4ebafde8       jsr SEARCHER.delete_search_s(pc)
           0x005e0b48      584f           addq.w 0x4, a7
           0x005e0b4a      4e5e           unlk a6
           0x005e0b4c      4e75           rts
            ; CALL XREFS from SEARCHER.check_maps @ 0x5e0df6, 0x5e0e1a, 0x5e0e3e, 0x5e0e66
 314: SEARCHER.create_map ();
           ; var int32_t var_8h @ a7+0x8
           0x005e0b4e      4e56fe96       link.w a6, 0xfe96
           0x005e0b52      bfd5           cmpa.l (a5), a7
       < 0x005e0b54      6206           bhi.b 0x5e0b5c
          0x005e0b56      44fc0002       move.w 0x2, ccr
          0x005e0b5a      4e76           trapv
       > 0x005e0b5c      defc0140       adda.w 0x140, a7
           0x005e0b60      48e7f0f0       movem.l d0-d3/a0-a3, -(a7)
           0x005e0b64      47eeffd6       lea.l -0x2a(a6), a3
           0x005e0b68      760c           moveq 0xc, d3
           0x005e0b6a      206c0018       movea.l 0x18(a4), a0
           0x005e0b6e      b1e8fffc       cmpa.l -0x4(a0), a0
       < 0x005e0b72      6702           beq.b 0x5e0b76
          0x005e0b74      4e4d           trap 0xd
       > 0x005e0b76      4240           clr.w d0
           0x005e0b78      10280008       move.b 0x8(a0), d0
           0x005e0b7c      0c400028       cmpi.w 0x28, d0
       < 0x005e0b80      6302           bls.b 0x5e0b84
          0x005e0b82      7028           moveq 0x28, d0
       > 0x005e0b84      3200           move.w d0, d1
           0x005e0b86      43eeffd7       lea.l -0x29(a6), a1
           0x005e0b8a      5301           subq.b 0x1, d1
       < 0x005e0b8c      650a           bcs.b 0x5e0b98
          0x005e0b8e      45e80009       lea.l 0x9(a0), a2
      > 0x005e0b92      12da           move.b (a2)+, (a1)+
      < 0x005e0b94      51c9fffc       dbra d1, 0x5e0b92
       > 0x005e0b98      7201           moveq 0x1, d1
           0x005e0b9a      7428           moveq 0x28, d2
           0x005e0b9c      9440           sub.w d0, d2
           0x005e0b9e      b242           cmp.w d2, d1
       < 0x005e0ba0      6302           bls.b 0x5e0ba4
          0x005e0ba2      3202           move.w d2, d1
       > 0x005e0ba4      1680           move.b d0, (a3)
           0x005e0ba6      d313           add.b d1, (a3)
           0x005e0ba8      41fad7e0       lea.l 0x5de38a(pc), a0
       > 0x005e0bac      12d8           move.b (a0)+, (a1)+
       < 0x005e0bae      51c9fffc       dbra d1, 0x5e0bac
           0x005e0bb2      4240           clr.w d0
           0x005e0bb4      1013           move.b (a3), d0
           0x005e0bb6      41f600d7       lea.l -0x29(a6, d0.w), a0
           0x005e0bba      4241           clr.w d1
           0x005e0bbc      122e0008       move.b 0x8(a6), d1
           0x005e0bc0      7428           moveq 0x28, d2
           0x005e0bc2      9440           sub.w d0, d2
           0x005e0bc4      b242           cmp.w d2, d1
       < 0x005e0bc6      6302           bls.b 0x5e0bca
          0x005e0bc8      3202           move.w d2, d1
       > 0x005e0bca      d313           add.b d1, (a3)
           0x005e0bcc      5301           subq.b 0x1, d1
       < 0x005e0bce      650a           bcs.b 0x5e0bda
          0x005e0bd0      43ee0009       lea.l 0x9(a6), a1
      > 0x005e0bd4      10d9           move.b (a1)+, (a0)+
      < 0x005e0bd6      51c9fffc       dbra d1, 0x5e0bd4
       > 0x005e0bda      206e0022       movea.l 0x22(a6), a0
           0x005e0bde      554f           subq.w 0x2, a7
           0x005e0be0      4850           pea.l (a0)
           0x005e0be2      9efc0100       suba.w 0x100, a7
           0x005e0be6      224f           movea.l a7, a1
           0x005e0be8      244b           movea.l a3, a2
           0x005e0bea      7009           moveq 0x9, d0
       > 0x005e0bec      22da           move.l (a2)+, (a1)+
       < 0x005e0bee      51c8fffc       dbra d0, 0x5e0bec
           0x005e0bf2      12da           move.b (a2)+, (a1)+
           0x005e0bf4      2f2e001e       move.l 0x1e(a6), -(a7)
           0x005e0bf8      226e001a       movea.l 0x1a(a6), a1
           0x005e0bfc      4851           pea.l (a1)
           0x005e0bfe      3f3c07d0       move.w 0x7d0, -(a7)
           0x005e0c02      4878ffff       pea.l 0xffff
           0x005e0c06      2f2c0004       move.l 0x4(a4), -(a7)
           0x005e0c0a      4eb9005dadfa   jsr SEARCH_DISKS.sea1_create_map
           0x005e0c10      defc0116       adda.w 0x116, a7
           0x005e0c14      4a1f           tst.b (a7)+
       < 0x005e0c16      6668           bne.b 0x5e0c80
          0x005e0c18      487ad772       pea.l 0x5de38c(pc)
          0x005e0c1c      4878001d       pea.l 0x1d
          0x005e0c20      2f17           move.l (a7), -(a7)
          0x005e0c22      4eb9004047ea   jsr p_wts_o
          0x005e0c28      dec3           adda.w d3, a7
          0x005e0c2a      486effd7       pea.l -0x29(a6)
          0x005e0c2e      42a7           clr.l -(a7)
          0x005e0c30      1f530003       move.b (a3), 0x3(a7)
          0x005e0c34      2f17           move.l (a7), -(a7)
          0x005e0c36      4eb9004047ea   jsr p_wts_o
          0x005e0c3c      dec3           adda.w d3, a7
          0x005e0c3e      4eb900404946   jsr p_wtln_o
          0x005e0c44      9efc0100       suba.w 0x100, a7
          0x005e0c48      4eb900408ec0   jsr p_err_string
          0x005e0c4e      486f0001       pea.l 0x1(a7)
          0x005e0c52      42a7           clr.l -(a7)
          0x005e0c54      1f6f00080003   move.b 0x8(a7), 0x3(a7)
          0x005e0c5a      2f17           move.l (a7), -(a7)
          0x005e0c5c      4eb9004047ea   jsr p_wts_o
          0x005e0c62      defc010c       adda.w 0x10c, a7
          0x005e0c66      4eb900404946   jsr p_wtln_o
          0x005e0c6c      4eb900404188   jsr p_Unlink
          0x005e0c72      2248           movea.l a0, a1
          0x005e0c74      45fad388       lea.l 0x5ddffe(pc), a2
          0x005e0c78      7009           moveq 0x9, d0
      > 0x005e0c7a      12da           move.b (a2)+, (a1)+
      < 0x005e0c7c      51c8fffc       dbra d0, 0x5e0c7a
       > 0x005e0c80      4cdf0f0f       movem.l (a7)+, d0-d3/a0-a3
           0x005e0c84      4e5e           unlk a6
           0x005e0c86      4e75           rts
            ; CALL XREFS from SEARCHER.check_maps @ 0x5e0f0e, 0x5e0f1a, 0x5e0f26, 0x5e0f32
 214: SEARCHER.extend_map ();
           ; var int32_t var_8h @ a7+0x8
           0x005e0c88      4e56fed0       link.w a6, 0xfed0
           0x005e0c8c      bfd5           cmpa.l (a5), a7
       < 0x005e0c8e      6206           bhi.b 0x5e0c96
          0x005e0c90      44fc0002       move.w 0x2, ccr
          0x005e0c94      4e76           trapv
       > 0x005e0c96      defc012c       adda.w 0x12c, a7
           0x005e0c9a      48e7e0f0       movem.l d0-d2/a0-a3, -(a7)
           0x005e0c9e      45eefffc       lea.l -0x4(a6), a2
           0x005e0ca2      47f9004047ea   lea.l p_wts_o, a3
           0x005e0ca8      7201           moveq 0x1, d1
           0x005e0caa      740a           moveq 0xa, d2
           0x005e0cac      2481           move.l d1, (a2)
           0x005e0cae      554f           subq.w 0x2, a7
           0x005e0cb0      206e000c       movea.l 0xc(a6), a0
           0x005e0cb4      9ec2           suba.w d2, a7
           0x005e0cb6      224f           movea.l a7, a1
           0x005e0cb8      7009           moveq 0x9, d0
       > 0x005e0cba      12d8           move.b (a0)+, (a1)+
       < 0x005e0cbc      51c8fffc       dbra d0, 0x5e0cba
           0x005e0cc0      1f01           move.b d1, -(a7)
           0x005e0cc2      4852           pea.l (a2)
           0x005e0cc4      4eb90060c190   jsr F14_MAP.f_op_map
           0x005e0cca      defc0010       adda.w 0x10, a7
           0x005e0cce      4a1f           tst.b (a7)+
       < 0x005e0cd0      661c           bne.b 0x5e0cee
          0x005e0cd2      9efc0100       suba.w 0x100, a7
          0x005e0cd6      4eb900408ec0   jsr p_err_string
          0x005e0cdc      487ad6cc       pea.l 0x5de3aa(pc)
          0x005e0ce0      4878001a       pea.l 0x1a
          0x005e0ce4      2f17           move.l (a7), -(a7)
          0x005e0ce6      4e93           jsr (a3)                    ; fcn.0000000c
          0x005e0ce8      defc000c       adda.w 0xc, a7
      < 0x005e0cec      603e           bra.b 0x5e0d2c
      > 0x005e0cee      554f           subq.w 0x2, a7
          0x005e0cf0      2f12           move.l (a2), -(a7)
          0x005e0cf2      2f2e0008       move.l 0x8(a6), -(a7)
          0x005e0cf6      1f01           move.b d1, -(a7)
          0x005e0cf8      4eb90060c370   jsr F14_MAP.f_resize_map
          0x005e0cfe      dec2           adda.w d2, a7
          0x005e0d00      4a1f           tst.b (a7)+
      < 0x005e0d02      6648           bne.b 0x5e0d4c
         0x005e0d04      9efc0100       suba.w 0x100, a7
         0x005e0d08      4eb900408ec0   jsr p_err_string
         0x005e0d0e      487ad6b5       pea.l 0x5de3c5(pc)
         0x005e0d12      4878001a       pea.l 0x1a
         0x005e0d16      2f17           move.l (a7), -(a7)
         0x005e0d18      4e93           jsr (a3)                    ; fcn.0000000c
         0x005e0d1a      504f           addq.w 0x8, a7
         0x005e0d1c      2eae0008       move.l 0x8(a6), (a7)
         0x005e0d20      48780002       pea.l 0x2
         0x005e0d24      4eb9004070e4   jsr p_wti_o
         0x005e0d2a      504f           addq.w 0x8, a7
      > 0x005e0d2c      486f0001       pea.l 0x1(a7)
          0x005e0d30      42a7           clr.l -(a7)
          0x005e0d32      1f6f00080003   move.b 0x8(a7), 0x3(a7)
          0x005e0d38      2f17           move.l (a7), -(a7)
          0x005e0d3a      4e93           jsr (a3)                    ; fcn.0000000c
          0x005e0d3c      defc010c       adda.w 0x10c, a7
          0x005e0d40      4eb900404946   jsr p_wtln_o
          0x005e0d46      4eb900404188   jsr p_Unlink
       > 0x005e0d4c      4852           pea.l (a2)
           0x005e0d4e      4eb90060470a   jsr F9_FILERDWRT.f_close
           0x005e0d54      584f           addq.w 0x4, a7
           0x005e0d56      4cdf0f07       movem.l (a7)+, d0-d2/a0-a3
           0x005e0d5a      4e5e           unlk a6
           0x005e0d5c      4e75           rts
            ; CALL XREF from SEARCHER.build_found_map @ 0x5e34dc
 498: SEARCHER.check_maps ();
           ; var int32_t var_8h @ a7+0x8
           0x005e0d5e      4e56ffa6       link.w a6, 0xffa6
           0x005e0d62      bfd5           cmpa.l (a5), a7
       < 0x005e0d64      6206           bhi.b 0x5e0d6c
          0x005e0d66      44fc0002       move.w 0x2, ccr
          0x005e0d6a      4e76           trapv
       > 0x005e0d6c      defc004e       adda.w 0x4e, a7
           0x005e0d70      48e7f1f8       movem.l d0-d3/d7/a0-a4, -(a7)
           0x005e0d74      47f9004047ea   lea.l p_wts_o, a3
           0x005e0d7a      721e           moveq 0x1e, d1
           0x005e0d7c      740c           moveq 0xc, d2
           0x005e0d7e      7612           moveq 0x12, d3
           0x005e0d80      594f           subq.w 0x4, a7
           0x005e0d82      2f2e0008       move.l 0x8(a6), -(a7)
           0x005e0d86      4eb9005dad22   jsr SEARCH_DISKS.sea1_numfiles
           0x005e0d8c      584f           addq.w 0x4, a7
           0x005e0d8e      2e17           move.l (a7), d7
           0x005e0d90      4878000a       pea.l 0xa
           0x005e0d94      4eb90062788a   jsr PICTURENET.sysvol_wait
           0x005e0d9a      584f           addq.w 0x4, a7
           0x005e0d9c      2d5ffff8       move.l (a7)+, -0x8(a6)
           0x005e0da0      206e000c       movea.l 0xc(a6), a0
           0x005e0da4      b1e8fffc       cmpa.l -0x4(a0), a0
       < 0x005e0da8      6702           beq.b 0x5e0dac
          0x005e0daa      4e4d           trap 0xd
       > 0x005e0dac      9ec2           suba.w d2, a7
           0x005e0dae      224f           movea.l a7, a1
           0x005e0db0      45e804d6       lea.l 0x4d6(a0), a2
           0x005e0db4      7009           moveq 0x9, d0
       > 0x005e0db6      12da           move.b (a2)+, (a1)+
       < 0x005e0db8      51c8fffc       dbra d0, 0x5e0db6
           0x005e0dbc      2f3ad246       move.l 0x5de004(pc), -(a7)
           0x005e0dc0      2f3ad23e       move.l 0x5de000(pc), -(a7)
           0x005e0dc4      3f3ad238       move.w 0x5ddffe(pc), -(a7)
           0x005e0dc8      4eb9005ef3d2   jsr F2_UTILITY.f_fids_eq
           0x005e0dce      defc0014       adda.w 0x14, a7
           0x005e0dd2      4a1f           tst.b (a7)+
       < 0x005e0dd4      6700009a       beq.w 0x5e0e70
          0x005e0dd8      486804d6       pea.l 0x4d6(a0)
          0x005e0ddc      2f07           move.l d7, -(a7)
          0x005e0dde      486804d2       pea.l 0x4d2(a0)
          0x005e0de2      9ec3           suba.w d3, a7
          0x005e0de4      224f           movea.l a7, a1
          0x005e0de6      45fad5f7       lea.l 0x5de3df(pc), a2
          0x005e0dea      7005           moveq 0x5, d0
      > 0x005e0dec      12da           move.b (a2)+, (a1)+
      < 0x005e0dee      51c8fffc       dbra d0, 0x5e0dec
          0x005e0df2      49eefff4       lea.l -0xc(a6), a4
          0x005e0df6      4ebafd56       jsr SEARCHER.create_map(pc)
          0x005e0dfa      dec1           adda.w d1, a7
          0x005e0dfc      486804e0       pea.l 0x4e0(a0)
          0x005e0e00      2f07           move.l d7, -(a7)
          0x005e0e02      486efffc       pea.l -0x4(a6)
          0x005e0e06      9ec3           suba.w d3, a7
          0x005e0e08      224f           movea.l a7, a1
          0x005e0e0a      45fad5d9       lea.l 0x5de3e5(pc), a2
          0x005e0e0e      7005           moveq 0x5, d0
      > 0x005e0e10      12da           move.b (a2)+, (a1)+
      < 0x005e0e12      51c8fffc       dbra d0, 0x5e0e10
          0x005e0e16      49eefff4       lea.l -0xc(a6), a4
          0x005e0e1a      4ebafd32       jsr SEARCHER.create_map(pc)
          0x005e0e1e      dec1           adda.w d1, a7
          0x005e0e20      486804ea       pea.l 0x4ea(a0)
          0x005e0e24      2f07           move.l d7, -(a7)
          0x005e0e26      486efffc       pea.l -0x4(a6)
          0x005e0e2a      9ec3           suba.w d3, a7
          0x005e0e2c      224f           movea.l a7, a1
          0x005e0e2e      45fad5bb       lea.l 0x5de3eb(pc), a2
          0x005e0e32      7008           moveq 0x8, d0
      > 0x005e0e34      12da           move.b (a2)+, (a1)+
      < 0x005e0e36      51c8fffc       dbra d0, 0x5e0e34
          0x005e0e3a      49eefff4       lea.l -0xc(a6), a4
          0x005e0e3e      4ebafd0e       jsr SEARCHER.create_map(pc)
          0x005e0e42      dec1           adda.w d1, a7
          0x005e0e44      486804f4       pea.l 0x4f4(a0)
          0x005e0e48      2f07           move.l d7, -(a7)
          0x005e0e4a      486efffc       pea.l -0x4(a6)
          0x005e0e4e      9efc000e       suba.w 0xe, a7
          0x005e0e52      2f3ad5a0       move.l 0x5de3f4(pc), -(a7)
          0x005e0e56      2f7ad5a00004   move.l 0x5de3f8(pc), 0x4(a7)
          0x005e0e5c      1f7ad59e0008   move.b 0x5de3fc(pc), 0x8(a7)
          0x005e0e62      49eefff4       lea.l -0xc(a6), a4
          0x005e0e66      4ebafce6       jsr SEARCHER.create_map(pc)
          0x005e0e6a      dec1           adda.w d1, a7
      < 0x005e0e6c      600000da       bra.w 0x5e0f48
      > 0x005e0e70      bea804d2       cmp.l 0x4d2(a0), d7
      < 0x005e0e74      6f0000d2       ble.w 0x5e0f48
         0x005e0e78      226e000c       movea.l 0xc(a6), a1
         0x005e0e7c      b3e9fffc       cmpa.l -0x4(a1), a1
     < 0x005e0e80      6702           beq.b 0x5e0e84
        0x005e0e82      4e4d           trap 0xd
     > 0x005e0e84      487ad578       pea.l 0x5de3fe(pc)
         0x005e0e88      48780013       pea.l 0x13
         0x005e0e8c      2f17           move.l (a7), -(a7)
         0x005e0e8e      4e93           jsr (a3)                    ; fcn.0000000c
         0x005e0e90      dec2           adda.w d2, a7
         0x005e0e92      48690009       pea.l 0x9(a1)
         0x005e0e96      42a7           clr.l -(a7)
         0x005e0e98      1f6900080003   move.b 0x8(a1), 0x3(a7)
         0x005e0e9e      2f17           move.l (a7), -(a7)
         0x005e0ea0      4e93           jsr (a3)                    ; fcn.0000000c
         0x005e0ea2      dec2           adda.w d2, a7
         0x005e0ea4      487ad56c       pea.l 0x5de412(pc)
         0x005e0ea8      48780014       pea.l 0x14
         0x005e0eac      2f17           move.l (a7), -(a7)
         0x005e0eae      4e93           jsr (a3)                    ; fcn.0000000c
         0x005e0eb0      504f           addq.w 0x8, a7
         0x005e0eb2      2eae0008       move.l 0x8(a6), (a7)
         0x005e0eb6      4878fffa       pea.l 0xfffa
         0x005e0eba      4eb9004070e4   jsr p_wti_o
         0x005e0ec0      504f           addq.w 0x8, a7
         0x005e0ec2      4eb900404946   jsr p_wtln_o
         0x005e0ec8      487ad55d       pea.l 0x5de427(pc)
         0x005e0ecc      4878000a       pea.l 0xa
         0x005e0ed0      2f17           move.l (a7), -(a7)
         0x005e0ed2      4e93           jsr (a3)                    ; fcn.0000000c
         0x005e0ed4      504f           addq.w 0x8, a7
         0x005e0ed6      2ea904d2       move.l 0x4d2(a1), (a7)
         0x005e0eda      4878000c       pea.l 0xc
         0x005e0ede      4eb9004070e4   jsr p_wti_o
         0x005e0ee4      504f           addq.w 0x8, a7
         0x005e0ee6      487ad54a       pea.l 0x5de432(pc)
         0x005e0eea      4878000b       pea.l 0xb
         0x005e0eee      2f17           move.l (a7), -(a7)
         0x005e0ef0      4e93           jsr (a3)                    ; fcn.0000000c
         0x005e0ef2      504f           addq.w 0x8, a7
         0x005e0ef4      2e87           move.l d7, (a7)
         0x005e0ef6      4878000c       pea.l 0xc
         0x005e0efa      4eb9004070e4   jsr p_wti_o
         0x005e0f00      504f           addq.w 0x8, a7
         0x005e0f02      4eb900404946   jsr p_wtln_o
         0x005e0f08      486804d6       pea.l 0x4d6(a0)
         0x005e0f0c      2f07           move.l d7, -(a7)
         0x005e0f0e      4ebafd78       jsr SEARCHER.extend_map(pc)
         0x005e0f12      504f           addq.w 0x8, a7
         0x005e0f14      486804e0       pea.l 0x4e0(a0)
         0x005e0f18      2f07           move.l d7, -(a7)
         0x005e0f1a      4ebafd6c       jsr SEARCHER.extend_map(pc)
         0x005e0f1e      504f           addq.w 0x8, a7
         0x005e0f20      486804ea       pea.l 0x4ea(a0)
         0x005e0f24      2f07           move.l d7, -(a7)
         0x005e0f26      4ebafd60       jsr SEARCHER.extend_map(pc)
         0x005e0f2a      504f           addq.w 0x8, a7
         0x005e0f2c      486804f4       pea.l 0x4f4(a0)
         0x005e0f30      2f07           move.l d7, -(a7)
         0x005e0f32      4ebafd54       jsr SEARCHER.extend_map(pc)
         0x005e0f36      504f           addq.w 0x8, a7
         0x005e0f38      226e000c       movea.l 0xc(a6), a1
         0x005e0f3c      b3e9fffc       cmpa.l -0x4(a1), a1
     < 0x005e0f40      6702           beq.b 0x5e0f44
        0x005e0f42      4e4d           trap 0xd
     > 0x005e0f44      234704d2       move.l d7, 0x4d2(a1)
      > 0x005e0f48      4cdf1f8f       movem.l (a7)+, d0-d3/d7/a0-a4
           0x005e0f4c      4e5e           unlk a6
           0x005e0f4e      4e75           rts
            ; XREFS: CALL 0x005db15a  CALL 0x005db1e6  CALL 0x005ddc98  
            ; XREFS: CALL 0x005e055a  CALL 0x005e14e0  CALL 0x005e29c2  
            ; XREFS: CALL 0x005e2ba0  CALL 0x005e3252  CALL 0x005e3304  
            ; XREFS: CALL 0x005e3332  CALL 0x005e3388  CALL 0x005e39fe  
 58: SEARCHER.field_str ();
           0x005e0f50      4e56ffe4       link.w a6, 0xffe4
           0x005e0f54      bfd5           cmpa.l (a5), a7
       < 0x005e0f56      6206           bhi.b 0x5e0f5e
          0x005e0f58      44fc0002       move.w 0x2, ccr
          0x005e0f5c      4e76           trapv
       > 0x005e0f5e      defc001c       adda.w 0x1c, a7
           0x005e0f62      48e780f8       movem.l d0/a0-a4, -(a7)
           0x005e0f66      45ee000a       lea.l 0xa(a6), a2
           0x005e0f6a      47ee000e       lea.l 0xe(a6), a3
           0x005e0f6e      49ee0012       lea.l 0x12(a6), a4
           0x005e0f72      102e0008       move.b 0x8(a6), d0
           0x005e0f76      4880           ext.w d0
           0x005e0f78      0c40000f       cmpi.w 0xf, d0
       < 0x005e0f7c      6302           bls.b 0x5e0f80
          0x005e0f7e      4e4e           trap 0xe
       > 0x005e0f80      d040           add.w d0, d0
           0x005e0f82      303b0006       move.w 0x5e0f8a(pc, d0.w), d0
           0x005e0f86      4efb0002       jmp 0x5e0f8a(pc, d0.w)
            0x005e0f8a      00200032       ori.b 0x32, -(a0)
            0x005e0f8e      00420054       ori.w 0x54, d2
            0x005e0f92      00640076       ori.w 0x76, -(a4)
            0x005e0f96      0086009800a6   ori.l 0x9800a6, d6
            0x005e0f9c      00b600c400d4.  ori.l 0xc400d4, -0x1e(a6, d0.w)
            0x005e0fa4      00f20100       
            0x005e0fa5      f2010001       fint fp0
            0x005e0fa9      1020           move.b -(a0), d0
            0x005e0fab      4a43           tst.w d3
            0x005e0fad      fad48f700810   fbf.l 0x8fce17bf
            0x005e0fb3      d951           add.w d4, (a1)
            0x005e0fb5      c8fffc60       
            0x005e0fb6      fffc           invalid
        < 0x005e0fb8      600000ec       bra.w 0x5e10a6
           0x005e0fbc      24bad488       move.l 0x5de446(pc), (a2)
           0x005e0fc0      26bad488       move.l 0x5de44a(pc), (a3)
           0x005e0fc4      18bad488       move.b 0x5de44e(pc), (a4)
       < 0x005e0fc8      600000dc       bra.w 0x5e10a6
          0x005e0fcc      204a           movea.l a2, a0
          0x005e0fce      43fad47f       lea.l 0x5de44f(pc), a1
          0x005e0fd2      7008           moveq 0x8, d0
      > 0x005e0fd4      10d9           move.b (a1)+, (a0)+
      < 0x005e0fd6      51c8fffc       dbra d0, 0x5e0fd4
      < 0x005e0fda      600000ca       bra.w 0x5e10a6
         0x005e0fde      24bad478       move.l 0x5de458(pc), (a2)
         0x005e0fe2      26bad478       move.l 0x5de45c(pc), (a3)
         0x005e0fe6      18bad478       move.b 0x5de460(pc), (a4)
     < 0x005e0fea      600000ba       bra.w 0x5e10a6
        0x005e0fee      204a           movea.l a2, a0
        0x005e0ff0      43fad46f       lea.l 0x5de461(pc), a1
        0x005e0ff4      7008           moveq 0x8, d0
    > 0x005e0ff6      10d9           move.b (a1)+, (a0)+
    < 0x005e0ff8      51c8fffc       dbra d0, 0x5e0ff6
    < 0x005e0ffc      600000a8       bra.w 0x5e10a6
       0x005e1000      24bad468       move.l 0x5de46a(pc), (a2)
       0x005e1004      26bad468       move.l 0x5de46e(pc), (a3)
       0x005e1008      18bad468       move.b 0x5de472(pc), (a4)
   < 0x005e100c      60000098       bra.w 0x5e10a6
      0x005e1010      204a           movea.l a2, a0
      0x005e1012      43fad45f       lea.l 0x5de473(pc), a1
      0x005e1016      7008           moveq 0x8, d0
  > 0x005e1018      10d9           move.b (a1)+, (a0)+
  < 0x005e101a      51c8fffc       dbra d0, 0x5e1018
  < 0x005e101e      60000086       bra.w 0x5e10a6
     0x005e1022      24bad458       move.l 0x5de47c(pc), (a2)
     0x005e1026      26bad458       move.l 0x5de480(pc), (a3)
     0x005e102a      18bad458       move.b 0x5de484(pc), (a4)
  < 0x005e102e      6076           bra.b 0x5e10a6
     0x005e1030      204a           movea.l a2, a0
     0x005e1032      43fad451       lea.l 0x5de485(pc), a1
     0x005e1036      7008           moveq 0x8, d0
  > 0x005e1038      10d9           move.b (a1)+, (a0)+
  < 0x005e103a      51c8fffc       dbra d0, 0x5e1038
  < 0x005e103e      6066           bra.b 0x5e10a6
     0x005e1040      24bad44c       move.l 0x5de48e(pc), (a2)
     0x005e1044      26bad44c       move.l 0x5de492(pc), (a3)
     0x005e1048      18bad44c       move.b 0x5de496(pc), (a4)
  < 0x005e104c      6058           bra.b 0x5e10a6
     0x005e104e      204a           movea.l a2, a0
     0x005e1050      43fad445       lea.l 0x5de497(pc), a1
     0x005e1054      7008           moveq 0x8, d0
  > 0x005e1056      10d9           move.b (a1)+, (a0)+
  < 0x005e1058      51c8fffc       dbra d0, 0x5e1056
  < 0x005e105c      6048           bra.b 0x5e10a6
     0x005e105e      24bad440       move.l 0x5de4a0(pc), (a2)
     0x005e1062      26bad440       move.l 0x5de4a4(pc), (a3)
     0x005e1066      18bad440       move.b 0x5de4a8(pc), (a4)
  < 0x005e106a      603a           bra.b 0x5e10a6
     0x005e106c      204a           movea.l a2, a0
     0x005e106e      43fad439       lea.l 0x5de4a9(pc), a1
     0x005e1072      7008           moveq 0x8, d0
  > 0x005e1074      10d9           move.b (a1)+, (a0)+
  < 0x005e1076      51c8fffc       dbra d0, 0x5e1074
  < 0x005e107a      602a           bra.b 0x5e10a6
     0x005e107c      24bad434       move.l 0x5de4b2(pc), (a2)
     0x005e1080      26bad434       move.l 0x5de4b6(pc), (a3)
     0x005e1084      18bad434       move.b 0x5de4ba(pc), (a4)
  < 0x005e1088      601c           bra.b 0x5e10a6
     0x005e108a      204a           movea.l a2, a0
     0x005e108c      43fad42d       lea.l 0x5de4bb(pc), a1
     0x005e1090      7008           moveq 0x8, d0
  > 0x005e1092      10d9           move.b (a1)+, (a0)+
  < 0x005e1094      51c8fffc       dbra d0, 0x5e1092
  < 0x005e1098      600c           bra.b 0x5e10a6
     0x005e109a      24bad428       move.l 0x5de4c4(pc), (a2)
     0x005e109e      26bad428       move.l 0x5de4c8(pc), (a3)
     0x005e10a2      18bad428       move.b 0x5de4cc(pc), (a4)
  > 0x005e10a6      4cdf1f01       movem.l (a7)+, d0/a0-a4
            0x005e10aa      4e5e           unlk a6
            0x005e10ac      4e75           rts
 174: SEARCHER.sea_list_users ();
           ; var int32_t var_8h @ a7+0x8
           0x005e10ae      4e56ffd0       link.w a6, 0xffd0
           0x005e10b2      bfd5           cmpa.l (a5), a7
       < 0x005e10b4      6206           bhi.b 0x5e10bc
          0x005e10b6      44fc0002       move.w 0x2, ccr
          0x005e10ba      4e76           trapv
       > 0x005e10bc      defc002c       adda.w 0x2c, a7
           0x005e10c0      48e780e0       movem.l d0/a0-a2, -(a7)
           0x005e10c4      43f9004047ea   lea.l p_wts_o, a1
           0x005e10ca      45eefffc       lea.l -0x4(a6), a2
           0x005e10ce      700c           moveq 0xc, d0
           0x005e10d0      487ad3fc       pea.l 0x5de4ce(pc)
           0x005e10d4      4878000e       pea.l 0xe
           0x005e10d8      2f17           move.l (a7), -(a7)
           0x005e10da      4e91           jsr (a1)                    ; fcn.0000000a
           0x005e10dc      dec0           adda.w d0, a7
           0x005e10de      4eb900404946   jsr p_wtln_o
           0x005e10e4      24b900841a98   move.l 0x841a98, (a2)
       > 0x005e10ea      2052           movea.l (a2), a0
          0x005e10ec      b0fc0001       cmpa.w 0x1, a0
      < 0x005e10f0      6762           beq.b 0x5e1154
         0x005e10f2      b1e8fffc       cmpa.l -0x4(a0), a0
     < 0x005e10f6      6702           beq.b 0x5e10fa
        0x005e10f8      4e4d           trap 0xd
     > 0x005e10fa      487ad3e1       pea.l 0x5de4dd(pc)
         0x005e10fe      48780005       pea.l 0x5
         0x005e1102      2f17           move.l (a7), -(a7)
         0x005e1104      4e91           jsr (a1)                    ; fcn.0000000a
         0x005e1106      504f           addq.w 0x8, a7
         0x005e1108      2ea80004       move.l 0x4(a0), (a7)
         0x005e110c      4878fffd       pea.l 0xfffd
         0x005e1110      4eb9004070e4   jsr p_wti_o
         0x005e1116      504f           addq.w 0x8, a7
         0x005e1118      487ad3c9       pea.l 0x5de4e3(pc)
         0x005e111c      48780003       pea.l 0x3
         0x005e1120      2f17           move.l (a7), -(a7)
         0x005e1122      4e91           jsr (a1)                    ; fcn.0000000a
         0x005e1124      dec0           adda.w d0, a7
         0x005e1126      48680009       pea.l 0x9(a0)
         0x005e112a      42a7           clr.l -(a7)
         0x005e112c      1f6800080003   move.b 0x8(a0), 0x3(a7)
         0x005e1132      2f17           move.l (a7), -(a7)
         0x005e1134      4e91           jsr (a1)                    ; fcn.0000000a
         0x005e1136      defc000a       adda.w 0xa, a7
         0x005e113a      1ebc0022       move.b 0x22, (a7)
         0x005e113e      48780001       pea.l 0x1
         0x005e1142      4eb9004048b4   jsr p_wtc_o
         0x005e1148      5c4f           addq.w 0x6, a7
         0x005e114a      4eb900404946   jsr p_wtln_o
         0x005e1150      2490           move.l (a0), (a2)
      < 0x005e1152      6096           bra.b 0x5e10ea
      > 0x005e1154      4cdf0701       movem.l (a7)+, d0/a0-a2
           0x005e1158      4e5e           unlk a6
           0x005e115a      4e75           rts
            ; CALL XREF from LIB_CMDS.show_user @ 0x5d9ccc
 114: SEARCHER.sea_show_user ();
           0x005e115c      4e56ffde       link.w a6, 0xffde
           0x005e1160      bfd5           cmpa.l (a5), a7
       < 0x005e1162      6206           bhi.b 0x5e116a
          0x005e1164      44fc0002       move.w 0x2, ccr
          0x005e1168      4e76           trapv
       > 0x005e116a      defc001c       adda.w 0x1c, a7
           0x005e116e      48e78108       movem.l d0/d7/a4, -(a7)
           0x005e1172      7e00           moveq 0x0, d7
           0x005e1174      287900841a98   movea.l 0x841a98, a4
       > 0x005e117a      b8fc0001       cmpa.w 0x1, a4
      < 0x005e117e      6728           beq.b 0x5e11a8
         0x005e1180      b9ecfffc       cmpa.l -0x4(a4), a4
     < 0x005e1184      6702           beq.b 0x5e1188
        0x005e1186      4e4d           trap 0xd
     > 0x005e1188      202e0008       move.l 0x8(a6), d0
         0x005e118c      0c80ffffffff   cmpi.l 0xffffffff, d0
     < 0x005e1192      6706           beq.b 0x5e119a
        0x005e1194      b0ac0004       cmp.l 0x4(a4), d0
    < 0x005e1198      660a           bne.b 0x5e11a4
    > 0x005e119a      7e01           moveq 0x1, d7
        0x005e119c      2f0c           move.l a4, -(a7)
        0x005e119e      4ebaeef8       jsr SEARCHER.write_search_sp(pc)
        0x005e11a2      584f           addq.w 0x4, a7
    > 0x005e11a4      2854           movea.l (a4), a4
      < 0x005e11a6      60d2           bra.b 0x5e117a
      > 0x005e11a8      4a07           tst.b d7
       < 0x005e11aa      661a           bne.b 0x5e11c6
          0x005e11ac      487ad339       pea.l 0x5de4e7(pc)
          0x005e11b0      48780009       pea.l 0x9
          0x005e11b4      2f17           move.l (a7), -(a7)
          0x005e11b6      4eb9004047ea   jsr p_wts_o
          0x005e11bc      defc000c       adda.w 0xc, a7
          0x005e11c0      4eb900404946   jsr p_wtln_o
       > 0x005e11c6      4cdf1081       movem.l (a7)+, d0/d7/a4
           0x005e11ca      4e5e           unlk a6
           0x005e11cc      4e75           rts
            ; XREFS: CALL 0x005e1580  CALL 0x005e161e  CALL 0x005e1740  
            ; XREFS: CALL 0x005e1882  CALL 0x005e1956  CALL 0x005e19ca  
            ; XREFS: CALL 0x005e1a2c  
 112: SEARCHER.field_changed ();
           0x005e11ce      4e56ffda       link.w a6, 0xffda
           0x005e11d2      bfd5           cmpa.l (a5), a7
       < 0x005e11d4      6206           bhi.b 0x5e11dc
          0x005e11d6      44fc0002       move.w 0x2, ccr
          0x005e11da      4e76           trapv
       > 0x005e11dc      defc0026       adda.w 0x26, a7
           0x005e11e0      48e7e0c0       movem.l d0-d2/a0-a1, -(a7)
           0x005e11e4      43ee0008       lea.l 0x8(a6), a1
           0x005e11e8      7201           moveq 0x1, d1
           0x005e11ea      7404           moveq 0x4, d2
           0x005e11ec      206e000a       movea.l 0xa(a6), a0
           0x005e11f0      b1e8fffc       cmpa.l -0x4(a0), a0
       < 0x005e11f4      6702           beq.b 0x5e11f8
          0x005e11f6      4e4d           trap 0xd
       > 0x005e11f8      115104bf       move.b (a1), 0x4bf(a0)
           0x005e11fc      4aa80004       tst.l 0x4(a0)
       < 0x005e1200      6634           bne.b 0x5e1236
          0x005e1202      48780000       pea.l 0x0
          0x005e1206      1f01           move.b d1, -(a7)
          0x005e1208      1f11           move.b (a1), -(a7)
          0x005e120a      4eb9005dc1ae   jsr SEARCH_DISKS.sea1_search_cha
          0x005e1210      504f           addq.w 0x8, a7
          0x005e1212      1011           move.b (a1), d0
          0x005e1214      b002           cmp.b d2, d0
      < 0x005e1216      671e           beq.b 0x5e1236
         0x005e1218      4880           ext.w d0
         0x005e121a      4a300065       tst.b 0x65(a0, d0.w)
     < 0x005e121e      6716           beq.b 0x5e1236
        0x005e1220      4a280069       tst.b 0x69(a0)
    < 0x005e1224      6710           beq.b 0x5e1236
       0x005e1226      48780000       pea.l 0x0
       0x005e122a      1f01           move.b d1, -(a7)
       0x005e122c      1f02           move.b d2, -(a7)
       0x005e122e      4eb9005dc1ae   jsr SEARCH_DISKS.sea1_search_cha
       0x005e1234      504f           addq.w 0x8, a7
    > 0x005e1236      4cdf0307       movem.l (a7)+, d0-d2/a0-a1
           0x005e123a      4e5e           unlk a6
           0x005e123c      4e75           rts
 50: SEARCHER.sea_temp_user ();
           0x005e123e      4e56fff4       link.w a6, 0xfff4
           0x005e1242      bfd5           cmpa.l (a5), a7
       < 0x005e1244      6206           bhi.b 0x5e124c
          0x005e1246      44fc0002       move.w 0x2, ccr
          0x005e124a      4e76           trapv
       > 0x005e124c      defc000c       adda.w 0xc, a7
           0x005e1250      48e78000       movem.l d0, -(a7)
           0x005e1254      594f           subq.w 0x4, a7
           0x005e1256      4eb900401d76   jsr p_Task_id
           0x005e125c      203c00010000   move.l 0x10000, d0
           0x005e1262      d09f           add.l (a7)+, d0
           0x005e1264      2d400008       move.l d0, 0x8(a6)
           0x005e1268      4cdf0001       movem.l (a7)+, d0
           0x005e126c      4e5e           unlk a6
           0x005e126e      4e75           rts
            ; CALL XREF from LIB_CMDS @ +0xd2e
 54: SEARCHER.sea_field_type ();
           0x005e1270      4e56ffe2       link.w a6, 0xffe2
           0x005e1274      bfd5           cmpa.l (a5), a7
       < 0x005e1276      6206           bhi.b 0x5e127e
          0x005e1278      44fc0002       move.w 0x2, ccr
          0x005e127c      4e76           trapv
       > 0x005e127e      defc001e       adda.w 0x1e, a7
           0x005e1282      48e7f0c0       movem.l d0-d3/a0-a1, -(a7)
           0x005e1286      43ee000a       lea.l 0xa(a6), a1
           0x005e128a      740d           moveq 0xd, d2
           0x005e128c      7609           moveq 0x9, d3
           0x005e128e      102e0008       move.b 0x8(a6), d0
           0x005e1292      4880           ext.w d0
           0x005e1294      3200           move.w d0, d1
           0x005e1296      5341           subq.w 0x1, d1
           0x005e1298      b242           cmp.w d2, d1
       < 0x005e129a      626a           bhi.b 0x5e1306
          0x005e129c      d241           add.w d1, d1
          0x005e129e      323b1006       move.w 0x5e12a6(pc, d1.w), d1
          0x005e12a2      4efb1002       jmp 0x5e12a6(pc, d1.w)
           0x005e12a6      001c001c       ori.b 0x1c, (a4)+
           0x005e12aa      001c0036       ori.b 0x36, (a4)+
           0x005e12ae      0022003c       ori.b 0x3c, -(a2)
           0x005e12b2      0028001c0042   ori.b 0x1c, 0x42(a0)
           0x005e12b8      00420042       ori.w 0x42, d2
           0x005e12bc      0042002c       ori.w 0x2c, d2
           0x005e12c0      003212bc0002   ori.b 0xbc, 0x2(a2, d0.w)
       < 0x005e12c6      6040           bra.b 0x5e1308
          0x005e12c8      12bc000b       move.b 0xb, (a1)
      < 0x005e12cc      603a           bra.b 0x5e1308
         0x005e12ce      1283           move.b d3, (a1)
     < 0x005e12d0      6036           bra.b 0x5e1308
        0x005e12d2      12bc000c       move.b 0xc, (a1)
    < 0x005e12d6      6030           bra.b 0x5e1308
       0x005e12d8      1282           move.b d2, (a1)
   < 0x005e12da      602c           bra.b 0x5e1308
      0x005e12dc      12bc0005       move.b 0x5, (a1)
  < 0x005e12e0      6026           bra.b 0x5e1308
     0x005e12e2      12bc0007       move.b 0x7, (a1)
  < 0x005e12e6      6020           bra.b 0x5e1308
     0x005e12e8      3200           move.w d0, d1
     0x005e12ea      9243           sub.w d3, d1
     0x005e12ec      43bc0003       chk.w 0x3, d1
     0x005e12f0      41f900841a5a   lea.l 0x841a5a, a0
     0x005e12f6      41f01000       lea.l (a0, d1.w), a0
     0x005e12fa      1228044a       move.b 0x44a(a0), d1
     0x005e12fe      4881           ext.w d1
     0x005e1300      4382           chk.w d2, d1
     0x005e1302      1281           move.b d1, (a1)
  < 0x005e1304      6002           bra.b 0x5e1308
  > 0x005e1306      4211           clr.b (a1)
  > 0x005e1308      4cdf030f       movem.l (a7)+, d0-d3/a0-a1
            0x005e130c      4e5e           unlk a6
            0x005e130e      4e75           rts
            ; CALL XREF from LIB_CMDS.filter_cmd @ 0x5d9340
 94: SEARCHER.sea_filter_rese ();
           0x005e1310      4e56ffe6       link.w a6, 0xffe6
           0x005e1314      bfd5           cmpa.l (a5), a7
       < 0x005e1316      6206           bhi.b 0x5e131e
          0x005e1318      44fc0002       move.w 0x2, ccr
          0x005e131c      4e76           trapv
       > 0x005e131e      defc0014       adda.w 0x14, a7
           0x005e1322      48e70108       movem.l d7/a4, -(a7)
           0x005e1326      594f           subq.w 0x4, a7
           0x005e1328      2f2e0008       move.l 0x8(a6), -(a7)
           0x005e132c      4ebaf2de       jsr SEARCHER.get_search_spec(pc)
           0x005e1330      584f           addq.w 0x4, a7
           0x005e1332      285f           movea.l (a7)+, a4
           0x005e1334      2f0c           move.l a4, -(a7)
           0x005e1336      4ebaeae0       jsr SEARCHER.reset_search_sp(pc)
           0x005e133a      584f           addq.w 0x4, a7
           0x005e133c      b9ecfffc       cmpa.l -0x4(a4), a4
       < 0x005e1340      6702           beq.b 0x5e1344
          0x005e1342      4e4d           trap 0xd
       > 0x005e1344      4aac0004       tst.l 0x4(a4)
       < 0x005e1348      661c           bne.b 0x5e1366
          0x005e134a      7e00           moveq 0x0, d7
      > 0x005e134c      48780000       pea.l 0x0
         0x005e1350      1f3c0001       move.b 0x1, -(a7)
         0x005e1354      1f07           move.b d7, -(a7)
         0x005e1356      4eb9005dc1ae   jsr SEARCH_DISKS.sea1_search_cha
         0x005e135c      504f           addq.w 0x8, a7
         0x005e135e      5207           addq.b 0x1, d7
         0x005e1360      0c07000f       cmpi.b 0xf, d7
      < 0x005e1364      6fe6           ble.b 0x5e134c
       > 0x005e1366      4cdf1080       movem.l (a7)+, d7/a4
           0x005e136a      4e5e           unlk a6
           0x005e136c      4e75           rts
            ; CALL XREF from LIB_CMDS @ +0xfbe
 92: SEARCHER.sea_set_string ();
           ; var int32_t var_8h @ a7+0x8
           0x005e136e      4e56feb4       link.w a6, 0xfeb4
           0x005e1372      bfd5           cmpa.l (a5), a7
       < 0x005e1374      6206           bhi.b 0x5e137c
          0x005e1376      44fc0002       move.w 0x2, ccr
          0x005e137a      4e76           trapv
       > 0x005e137c      defc0146       adda.w 0x146, a7
           0x005e1380      48e7fcf8       movem.l d0-d5/a0-a4, -(a7)
           0x005e1384      47ee0008       lea.l 0x8(a6), a3
           0x005e1388      49ee0009       lea.l 0x9(a6), a4
           0x005e138c      765a           moveq 0x5a, d3
           0x005e138e      780c           moveq 0xc, d4
           0x005e1390      7a01           moveq 0x1, d5
           0x005e1392      594f           subq.w 0x4, a7
           0x005e1394      2f2e010a       move.l 0x10a(a6), -(a7)
           0x005e1398      4ebaf272       jsr SEARCHER.get_search_spec(pc)
           0x005e139c      584f           addq.w 0x4, a7
           0x005e139e      2d5ffffc       move.l (a7)+, -0x4(a6)
           0x005e13a2      206efffc       movea.l -0x4(a6), a0
           0x005e13a6      b1e8fffc       cmpa.l -0x4(a0), a0
       < 0x005e13aa      6702           beq.b 0x5e13ae
          0x005e13ac      4e4d           trap 0xd
       > 0x005e13ae      102e0108       move.b 0x108(a6), d0
           0x005e13b2      4880           ext.w d0
           0x005e13b4      3200           move.w d0, d1
           0x005e13b6      5341           subq.w 0x1, d1
           0x005e13b8      0c41000b       cmpi.w 0xb, d1
       < 0x005e13bc      6200011c       bhi.w 0x5e14da
          0x005e13c0      d241           add.w d1, d1
          0x005e13c2      323b1006       move.w 0x5e13ca(pc, d1.w), d1
          0x005e13c6      4efb1002       jmp 0x5e13ca(pc, d1.w)
           0x005e13ca      0018004a       ori.b 0x4a, (a0)+
           0x005e13ce      007201100110   ori.w 0x110, (a2, d0.w)
           0x005e13d4      0110           btst.l d0, (a0)
           0x005e13d6      0110           btst.l d0, (a0)
           0x005e13d8      00ee009a       
           0x005e13d9      ee00           asr.b 0x7, d0
           0x005e13db      9a00           sub.b d0, d5
           0x005e13dd      9a00           sub.b d0, d5
           0x005e13df      9a00           sub.b d0, d5
           0x005e13e1      9a42           sub.w d2, d5
           0x005e13e3      4112           chk.l (a2), d0
           0x005e13e5      13b203630272.  move.b ([0x272, a2], 0x5a114100), -0x56(a1, a2.l)
           0x005e13ef      75530165       
           0x005e13f0      5301           subq.b 0x1, d1
           0x005e13f2      650c           bcs.b 0x5e1400
           0x005e13f4      43e80076       lea.l 0x76(a0), a1
           0x005e13f8      244c           movea.l a4, a2
       > 0x005e13fa      12da           move.b (a2)+, (a1)+
       < 0x005e13fc      51c9fffc       dbra d1, 0x5e13fa
           0x005e1400      48680075       pea.l 0x75(a0)
           0x005e1404      486800d0       pea.l 0xd0(a0)
      > 0x005e1408      4eb90047410a   jsr DKPAS.dk_encode_title
         0x005e140e      504f           addq.w 0x8, a7
     < 0x005e1410      6000014c       bra.w 0x5e155e
        0x005e1414      4241           clr.w d1
        0x005e1416      1213           move.b (a3), d1
        0x005e1418      b203           cmp.b d3, d1
    < 0x005e141a      6302           bls.b 0x5e141e
       0x005e141c      725a           moveq 0x5a, d1
    > 0x005e141e      1141012b       move.b d1, 0x12b(a0)
        0x005e1422      5301           subq.b 0x1, d1
    < 0x005e1424      650c           bcs.b 0x5e1432
       0x005e1426      43e8012c       lea.l 0x12c(a0), a1
       0x005e142a      244c           movea.l a4, a2
   > 0x005e142c      12da           move.b (a2)+, (a1)+
   < 0x005e142e      51c9fffc       dbra d1, 0x5e142c
    > 0x005e1432      4868012b       pea.l 0x12b(a0)
        0x005e1436      48680186       pea.l 0x186(a0)
     < 0x005e143a      60cc           bra.b 0x5e1408
         0x005e143c      4241           clr.w d1
         0x005e143e      1213           move.b (a3), d1
         0x005e1440      b203           cmp.b d3, d1
     < 0x005e1442      6302           bls.b 0x5e1446
        0x005e1444      725a           moveq 0x5a, d1
     > 0x005e1446      114101e1       move.b d1, 0x1e1(a0)
         0x005e144a      5301           subq.b 0x1, d1
     < 0x005e144c      650c           bcs.b 0x5e145a
        0x005e144e      43e801e2       lea.l 0x1e2(a0), a1
        0x005e1452      244c           movea.l a4, a2
    > 0x005e1454      12da           move.b (a2)+, (a1)+
    < 0x005e1456      51c9fffc       dbra d1, 0x5e1454
     > 0x005e145a      486801e1       pea.l 0x1e1(a0)
         0x005e145e      4868023c       pea.l 0x23c(a0)
      < 0x005e1462      60a4           bra.b 0x5e1408
          0x005e1464      3200           move.w d0, d1
          0x005e1466      04410009       subi.w 0x9, d1
          0x005e146a      43bc0003       chk.w 0x3, d1
          0x005e146e      4227           clr.b -(a7)
          0x005e1470      43f900841a5a   lea.l 0x841a5a, a1
          0x005e1476      43f11000       lea.l (a1, d1.w), a1
          0x005e147a      1429044a       move.b 0x44a(a1), d2
          0x005e147e      0c020002       cmpi.b 0x2, d2
      < 0x005e1482      6602           bne.b 0x5e1486
         0x005e1484      5217           addq.b 0x1, (a7)
      > 0x005e1486      4eb90040452a   jsr p_Assert
          0x005e148c      544f           addq.w 0x2, a7
          0x005e148e      c3fc005c       muls.w 0x5c, d1
          0x005e1492      43f01000       lea.l (a0, d1.w), a1
          0x005e1496      4241           clr.w d1
          0x005e1498      1213           move.b (a3), d1
          0x005e149a      b203           cmp.b d3, d1
      < 0x005e149c      6302           bls.b 0x5e14a0
         0x005e149e      725a           moveq 0x5a, d1
      > 0x005e14a0      1341032e       move.b d1, 0x32e(a1)
          0x005e14a4      5301           subq.b 0x1, d1
      < 0x005e14a6      650c           bcs.b 0x5e14b4
         0x005e14a8      45e9032f       lea.l 0x32f(a1), a2
         0x005e14ac      224c           movea.l a4, a1
     > 0x005e14ae      14d9           move.b (a1)+, (a2)+
     < 0x005e14b0      51c9fffc       dbra d1, 0x5e14ae
     > 0x005e14b4      600000a8       bra.w 0x5e155e
         0x005e14b8      4241           clr.w d1
         0x005e14ba      1213           move.b (a3), d1
         0x005e14bc      b203           cmp.b d3, d1
     < 0x005e14be      6302           bls.b 0x5e14c2
        0x005e14c0      725a           moveq 0x5a, d1
     > 0x005e14c2      11410297       move.b d1, 0x297(a0)
         0x005e14c6      5301           subq.b 0x1, d1
     < 0x005e14c8      650c           bcs.b 0x5e14d6
        0x005e14ca      43e80298       lea.l 0x298(a0), a1
        0x005e14ce      244c           movea.l a4, a2
    > 0x005e14d0      12da           move.b (a2)+, (a1)+
    < 0x005e14d2      51c9fffc       dbra d1, 0x5e14d0
    > 0x005e14d6      60000086       bra.w 0x5e155e
     > 0x005e14da      9efc0100       suba.w 0x100, a7
         0x005e14de      1f00           move.b d0, -(a7)
         0x005e14e0      4ebafa6e       jsr SEARCHER.field_str(pc)
         0x005e14e4      544f           addq.w 0x2, a7
         0x005e14e6      487ad01c       pea.l 0x5de504(pc)
         0x005e14ea      4878000f       pea.l 0xf
         0x005e14ee      2f17           move.l (a7), -(a7)
         0x005e14f0      4eb9004047ea   jsr p_wts_o
         0x005e14f6      504f           addq.w 0x8, a7
         0x005e14f8      2eae010a       move.l 0x10a(a6), (a7)
         0x005e14fc      4878fffe       pea.l 0xfffe
         0x005e1500      4eb9004070e4   jsr p_wti_o
         0x005e1506      5c4f           addq.w 0x6, a7
         0x005e1508      1ebc0020       move.b 0x20, (a7)
         0x005e150c      48780001       pea.l 0x1
         0x005e1510      4eb9004048b4   jsr p_wtc_o
         0x005e1516      5c4f           addq.w 0x6, a7
         0x005e1518      48680009       pea.l 0x9(a0)
         0x005e151c      42a7           clr.l -(a7)
         0x005e151e      1f6800080003   move.b 0x8(a0), 0x3(a7)
         0x005e1524      2f17           move.l (a7), -(a7)
         0x005e1526      4eb9004047ea   jsr p_wts_o
         0x005e152c      dec4           adda.w d4, a7
         0x005e152e      487acfe4       pea.l 0x5de514(pc)
         0x005e1532      4878000f       pea.l 0xf
         0x005e1536      2f17           move.l (a7), -(a7)
         0x005e1538      4eb9004047ea   jsr p_wts_o
         0x005e153e      dec4           adda.w d4, a7
         0x005e1540      486f0001       pea.l 0x1(a7)
         0x005e1544      42a7           clr.l -(a7)
         0x005e1546      1f6f00080003   move.b 0x8(a7), 0x3(a7)
         0x005e154c      2f17           move.l (a7), -(a7)
         0x005e154e      4eb9004047ea   jsr p_wts_o
         0x005e1554      defc010c       adda.w 0x10c, a7
         0x005e1558      4eb900404946   jsr p_wtln_o
    > 0x005e155e      554f           subq.w 0x2, a7
            0x005e1560      4853           pea.l (a3)
            0x005e1562      4ebae7a0       jsr SEARCHER.null_string(pc)
            0x005e1566      584f           addq.w 0x4, a7
            0x005e1568      121f           move.b (a7)+, d1
            0x005e156a      4881           ext.w d1
            0x005e156c      4385           chk.w d5, d1
            0x005e156e      1d41fffa       move.b d1, -0x6(a6)
            0x005e1572      4881           ext.w d1
            0x005e1574      4385           chk.w d5, d1
            0x005e1576      11810065       move.b d1, 0x65(a0, d0.w)
            0x005e157a      2f2efffc       move.l -0x4(a6), -(a7)
            0x005e157e      1f00           move.b d0, -(a7)
            0x005e1580      4ebafc4c       jsr SEARCHER.field_changed(pc)
            0x005e1584      5c4f           addq.w 0x6, a7
            0x005e1586      4cdf1f3f       movem.l (a7)+, d0-d5/a0-a4
            0x005e158a      4e5e           unlk a6
            0x005e158c      4e75           rts
            ; CALL XREF from LIB_CMDS @ +0xe2e
 158: SEARCHER.sea_set_no_type ();
           0x005e158e      4e56ffb2       link.w a6, 0xffb2
           0x005e1592      bfd5           cmpa.l (a5), a7
       < 0x005e1594      6206           bhi.b 0x5e159c
          0x005e1596      44fc0002       move.w 0x2, ccr
          0x005e159a      4e76           trapv
       > 0x005e159c      defc004a       adda.w 0x4a, a7
           0x005e15a0      48e7f0c8       movem.l d0-d3/a0-a1/a4, -(a7)
           0x005e15a4      7404           moveq 0x4, d2
           0x005e15a6      7601           moveq 0x1, d3
           0x005e15a8      594f           subq.w 0x4, a7
           0x005e15aa      2f2e000a       move.l 0xa(a6), -(a7)
           0x005e15ae      4ebaf05c       jsr SEARCHER.get_search_spec(pc)
           0x005e15b2      584f           addq.w 0x4, a7
           0x005e15b4      285f           movea.l (a7)+, a4
           0x005e15b6      4227           clr.b -(a7)
           0x005e15b8      102e0008       move.b 0x8(a6), d0
           0x005e15bc      b002           cmp.b d2, d0
       < 0x005e15be      6602           bne.b 0x5e15c2
          0x005e15c0      5217           addq.b 0x1, (a7)
       > 0x005e15c2      4eb90040452a   jsr p_Assert
           0x005e15c8      544f           addq.w 0x2, a7
           0x005e15ca      102e0008       move.b 0x8(a6), d0
           0x005e15ce      b002           cmp.b d2, d0
       < 0x005e15d0      6702           beq.b 0x5e15d4
          0x005e15d2      4e4e           trap 0xe
       > 0x005e15d4      b9ecfffc       cmpa.l -0x4(a4), a4
       < 0x005e15d8      6702           beq.b 0x5e15dc
          0x005e15da      4e4d           trap 0xd
       > 0x005e15dc      41ec02f2       lea.l 0x2f2(a4), a0
           0x005e15e0      43facb66       lea.l 0x5de148(pc), a1
           0x005e15e4      7207           moveq 0x7, d1
       > 0x005e15e6      20d9           move.l (a1)+, (a0)+
       < 0x005e15e8      51c9fffc       dbra d1, 0x5e15e6
           0x005e15ec      41ec0312       lea.l 0x312(a4), a0
           0x005e15f0      7207           moveq 0x7, d1
       > 0x005e15f2      2f20           move.l -(a0), -(a7)
       < 0x005e15f4      51c9fffc       dbra d1, 0x5e15f2
           0x005e15f8      486c0312       pea.l 0x312(a4)
           0x005e15fc      486c0314       pea.l 0x314(a4)
           0x005e1600      4ebae236       jsr SEARCHER.get_extn_limits(pc)
           0x005e1604      defc0028       adda.w 0x28, a7
           0x005e1608      19430063       move.b d3, 0x63(a4)
           0x005e160c      b9ecfffc       cmpa.l -0x4(a4), a4
       < 0x005e1610      6702           beq.b 0x5e1614
          0x005e1612      4e4d           trap 0xd
       > 0x005e1614      4880           ext.w d0
           0x005e1616      19830065       move.b d3, 0x65(a4, d0.w)
           0x005e161a      2f0c           move.l a4, -(a7)
           0x005e161c      1f00           move.b d0, -(a7)
           0x005e161e      4ebafbae       jsr SEARCHER.field_changed(pc)
           0x005e1622      5c4f           addq.w 0x6, a7
           0x005e1624      4cdf130f       movem.l (a7)+, d0-d3/a0-a1/a4
           0x005e1628      4e5e           unlk a6
           0x005e162a      4e75           rts
            ; CALL XREF from LIB_CMDS @ +0xf8c
 290: SEARCHER.sea_add_type ();
           0x005e162c      4e56ffaa       link.w a6, 0xffaa
           0x005e1630      bfd5           cmpa.l (a5), a7
       < 0x005e1632      6206           bhi.b 0x5e163a
          0x005e1634      44fc0002       move.w 0x2, ccr
          0x005e1638      4e76           trapv
       > 0x005e163a      defc0052       adda.w 0x52, a7
           0x005e163e      48e7f8c8       movem.l d0-d4/a0-a1/a4, -(a7)
           0x005e1642      7804           moveq 0x4, d4
           0x005e1644      594f           subq.w 0x4, a7
           0x005e1646      2f2e000e       move.l 0xe(a6), -(a7)
           0x005e164a      4ebaefc0       jsr SEARCHER.get_search_spec(pc)
           0x005e164e      584f           addq.w 0x4, a7
           0x005e1650      285f           movea.l (a7)+, a4
           0x005e1652      4227           clr.b -(a7)
           0x005e1654      102e000c       move.b 0xc(a6), d0
           0x005e1658      b004           cmp.b d4, d0
       < 0x005e165a      6602           bne.b 0x5e165e
          0x005e165c      5217           addq.b 0x1, (a7)
       > 0x005e165e      4eb90040452a   jsr p_Assert
           0x005e1664      544f           addq.w 0x2, a7
           0x005e1666      102e000c       move.b 0xc(a6), d0
           0x005e166a      b004           cmp.b d4, d0
       < 0x005e166c      6702           beq.b 0x5e1670
          0x005e166e      4e4e           trap 0xe
       > 0x005e1670      222e0008       move.l 0x8(a6), d1
           0x005e1674      0c810000ffff   cmpi.l 0xffff, d1
       < 0x005e167a      6302           bls.b 0x5e167e
          0x005e167c      4e4f           trap 0xf
       > 0x005e167e      554f           subq.w 0x2, a7
           0x005e1680      3f01           move.w d1, -(a7)
           0x005e1682      4ebae146       jsr SEARCHER.convert_extn(pc)
           0x005e1686      544f           addq.w 0x2, a7
           0x005e1688      4a5f           tst.w (a7)+
       < 0x005e168a      6d64           blt.b 0x5e16f0
          0x005e168c      b9ecfffc       cmpa.l -0x4(a4), a4
      < 0x005e1690      6702           beq.b 0x5e1694
         0x005e1692      4e4d           trap 0xd
      > 0x005e1694      554f           subq.w 0x2, a7
          0x005e1696      3f01           move.w d1, -(a7)
          0x005e1698      4ebae130       jsr SEARCHER.convert_extn(pc)
          0x005e169c      544f           addq.w 0x2, a7
          0x005e169e      341f           move.w (a7)+, d2
          0x005e16a0      45bc00ff       chk.w 0xff, d2
          0x005e16a4      41facac2       lea.l 0x5de168(pc), a0
          0x005e16a8      7607           moveq 0x7, d3
      > 0x005e16aa      2f20           move.l -(a0), -(a7)
      < 0x005e16ac      51cbfffc       dbra d3, 0x5e16aa
          0x005e16b0      3602           move.w d2, d3
          0x005e16b2      e64b           lsr.w 0x3, d3
          0x005e16b4      05f73000       bset.b d2, (a7, d3.w)
          0x005e16b8      41ec02f2       lea.l 0x2f2(a4), a0
          0x005e16bc      7407           moveq 0x7, d2
      > 0x005e16be      261f           move.l (a7)+, d3
         0x005e16c0      8798           or.l d3, (a0)+
      < 0x005e16c2      51cafffa       dbra d2, 0x5e16be
          0x005e16c6      197c00010063   move.b 0x1, 0x63(a4)
          0x005e16cc      9efc0020       suba.w 0x20, a7
          0x005e16d0      204f           movea.l a7, a0
          0x005e16d2      43ec02f2       lea.l 0x2f2(a4), a1
          0x005e16d6      741f           moveq 0x1f, d2
      > 0x005e16d8      10d9           move.b (a1)+, (a0)+
      < 0x005e16da      51cafffc       dbra d2, 0x5e16d8
          0x005e16de      486c0312       pea.l 0x312(a4)
          0x005e16e2      486c0314       pea.l 0x314(a4)
          0x005e16e6      4ebae150       jsr SEARCHER.get_extn_limits(pc)
          0x005e16ea      defc0028       adda.w 0x28, a7
      < 0x005e16ee      6040           bra.b 0x5e1730
      > 0x005e16f0      b9ecfffc       cmpa.l -0x4(a4), a4
      < 0x005e16f4      6702           beq.b 0x5e16f8
         0x005e16f6      4e4d           trap 0xd
      > 0x005e16f8      4a2c0069       tst.b 0x69(a4)
      < 0x005e16fc      6626           bne.b 0x5e1724
         0x005e16fe      487ace56       pea.l 0x5de556(pc)
         0x005e1702      48780030       pea.l 0x30
         0x005e1706      2f17           move.l (a7), -(a7)
         0x005e1708      4eb9004047ea   jsr p_wts_o
         0x005e170e      defc000c       adda.w 0xc, a7
         0x005e1712      4eb900404946   jsr p_wtln_o
         0x005e1718      4227           clr.b -(a7)
         0x005e171a      4eb90040452a   jsr p_Assert
         0x005e1720      544f           addq.w 0x2, a7
     < 0x005e1722      600c           bra.b 0x5e1730
     > 0x005e1724      422c0063       clr.b 0x63(a4)
         0x005e1728      39410312       move.w d1, 0x312(a4)
         0x005e172c      39410314       move.w d1, 0x314(a4)
     > 0x005e1730      b9ecfffc       cmpa.l -0x4(a4), a4
       < 0x005e1734      6702           beq.b 0x5e1738
          0x005e1736      4e4d           trap 0xd
       > 0x005e1738      422c0069       clr.b 0x69(a4)
           0x005e173c      2f0c           move.l a4, -(a7)
           0x005e173e      1f00           move.b d0, -(a7)
           0x005e1740      4ebafa8c       jsr SEARCHER.field_changed(pc)
           0x005e1744      5c4f           addq.w 0x6, a7
           0x005e1746      4cdf131f       movem.l (a7)+, d0-d4/a0-a1/a4
           0x005e174a      4e5e           unlk a6
           0x005e174c      4e75           rts
            ; CALL XREF from LIB_CMDS @ +0xe1a
 322: SEARCHER.sea_set_times ();
           0x005e174e      4e56ffb8       link.w a6, 0xffb8
           0x005e1752      bfd5           cmpa.l (a5), a7
       < 0x005e1754      6206           bhi.b 0x5e175c
          0x005e1756      44fc0002       move.w 0x2, ccr
          0x005e175a      4e76           trapv
       > 0x005e175c      defc0044       adda.w 0x44, a7
           0x005e1760      48e7fef8       movem.l d0-d6/a0-a4, -(a7)
           0x005e1764      47ee0010       lea.l 0x10(a6), a3
           0x005e1768      7a09           moveq 0x9, d5
           0x005e176a      7c0c           moveq 0xc, d6
           0x005e176c      594f           subq.w 0x4, a7
           0x005e176e      2f2e001a       move.l 0x1a(a6), -(a7)
           0x005e1772      4ebaee98       jsr SEARCHER.get_search_spec(pc)
           0x005e1776      584f           addq.w 0x4, a7
           0x005e1778      285f           movea.l (a7)+, a4
           0x005e177a      102e0018       move.b 0x18(a6), d0
           0x005e177e      b005           cmp.b d5, d0
       < 0x005e1780      6d0c           blt.b 0x5e178e
          0x005e1782      b005           cmp.b d5, d0
      < 0x005e1784      6d04           blt.b 0x5e178a
         0x005e1786      b006           cmp.b d6, d0
     < 0x005e1788      6f36           ble.b 0x5e17c0
    > 0x005e178a      6000008e       bra.w 0x5e181a
     > 0x005e178e      0c000005       cmpi.b 0x5, d0
     < 0x005e1792      6704           beq.b 0x5e1798
    < 0x005e1794      60000084       bra.w 0x5e181a
    > 0x005e1798      b9ecfffc       cmpa.l -0x4(a4), a4
    < 0x005e179c      6702           beq.b 0x5e17a0
       0x005e179e      4e4d           trap 0xd
    > 0x005e17a0      41ec0316       lea.l 0x316(a4), a0
        0x005e17a4      224b           movea.l a3, a1
        0x005e17a6      7207           moveq 0x7, d1
    > 0x005e17a8      10d9           move.b (a1)+, (a0)+
    < 0x005e17aa      51c9fffc       dbra d1, 0x5e17a8
        0x005e17ae      41ec031e       lea.l 0x31e(a4), a0
        0x005e17b2      43ee0008       lea.l 0x8(a6), a1
        0x005e17b6      7207           moveq 0x7, d1
    > 0x005e17b8      10d9           move.b (a1)+, (a0)+
    < 0x005e17ba      51c9fffc       dbra d1, 0x5e17b8
    < 0x005e17be      6072           bra.b 0x5e1832
    > 0x005e17c0      4880           ext.w d0
        0x005e17c2      3200           move.w d0, d1
        0x005e17c4      9245           sub.w d5, d1
        0x005e17c6      43bc0003       chk.w 0x3, d1
        0x005e17ca      4227           clr.b -(a7)
        0x005e17cc      41f900841a5a   lea.l 0x841a5a, a0
        0x005e17d2      41f01000       lea.l (a0, d1.w), a0
        0x005e17d6      1428044a       move.b 0x44a(a0), d2
        0x005e17da      0c02000b       cmpi.b 0xb, d2
    < 0x005e17de      6602           bne.b 0x5e17e2
       0x005e17e0      5217           addq.b 0x1, (a7)
    > 0x005e17e2      4eb90040452a   jsr p_Assert
        0x005e17e8      544f           addq.w 0x2, a7
        0x005e17ea      c3fc005c       muls.w 0x5c, d1
        0x005e17ee      b9ecfffc       cmpa.l -0x4(a4), a4
    < 0x005e17f2      6702           beq.b 0x5e17f6
       0x005e17f4      4e4d           trap 0xd
    > 0x005e17f6      41f41000       lea.l (a4, d1.w), a0
        0x005e17fa      43e8032e       lea.l 0x32e(a0), a1
        0x005e17fe      244b           movea.l a3, a2
        0x005e1800      7207           moveq 0x7, d1
    > 0x005e1802      12da           move.b (a2)+, (a1)+
    < 0x005e1804      51c9fffc       dbra d1, 0x5e1802
        0x005e1808      41e80336       lea.l 0x336(a0), a0
        0x005e180c      43ee0008       lea.l 0x8(a6), a1
        0x005e1810      7207           moveq 0x7, d1
    > 0x005e1812      10d9           move.b (a1)+, (a0)+
    < 0x005e1814      51c9fffc       dbra d1, 0x5e1812
    < 0x005e1818      6018           bra.b 0x5e1832
    > 0x005e181a      487acd7f       pea.l 0x5de59b(pc)
         0x005e181e      48780018       pea.l 0x18
         0x005e1822      2f17           move.l (a7), -(a7)
         0x005e1824      4eb9004047ea   jsr p_wts_o
         0x005e182a      dec6           adda.w d6, a7
         0x005e182c      4eb900404946   jsr p_wtln_o
     > 0x005e1832      b9ecfffc       cmpa.l -0x4(a4), a4
       < 0x005e1836      6702           beq.b 0x5e183a
          0x005e1838      4e4d           trap 0xd
       > 0x005e183a      4880           ext.w d0
           0x005e183c      42340065       clr.b 0x65(a4, d0.w)
           0x005e1840      594f           subq.w 0x4, a7
           0x005e1842      2f2e0014       move.l 0x14(a6), -(a7)
           0x005e1846      2f13           move.l (a3), -(a7)
           0x005e1848      4eb9006aa110   jsr DATE_UTILS.real_date
           0x005e184e      504f           addq.w 0x8, a7
           0x005e1850      281f           move.l (a7)+, d4
           0x005e1852      7600           moveq 0x0, d3
           0x005e1854      4eb900407dd4   jsr fcn.00407dd4
       < 0x005e185a      6622           bne.b 0x5e187e
          0x005e185c      594f           subq.w 0x4, a7
          0x005e185e      2f2e000c       move.l 0xc(a6), -(a7)
          0x005e1862      2f2e0008       move.l 0x8(a6), -(a7)
          0x005e1866      4eb9006aa110   jsr DATE_UTILS.real_date
          0x005e186c      504f           addq.w 0x8, a7
          0x005e186e      281f           move.l (a7)+, d4
          0x005e1870      7600           moveq 0x0, d3
          0x005e1872      4eb900407dd4   jsr fcn.00407dd4
      < 0x005e1878      6604           bne.b 0x5e187e
         0x005e187a      52340065       addq.b 0x1, 0x65(a4, d0.w)
      > 0x005e187e      2f0c           move.l a4, -(a7)
           0x005e1880      1f00           move.b d0, -(a7)
           0x005e1882      4ebaf94a       jsr SEARCHER.field_changed(pc)
           0x005e1886      5c4f           addq.w 0x6, a7
           0x005e1888      4cdf1f7f       movem.l (a7)+, d0-d6/a0-a4
           0x005e188c      4e5e           unlk a6
           0x005e188e      4e75           rts
            ; CALL XREF from LIB_CMDS @ +0xdb0
 212: SEARCHER.sea_set_numbers ();
           0x005e1890      4e56ffce       link.w a6, 0xffce
           0x005e1894      bfd5           cmpa.l (a5), a7
       < 0x005e1896      6206           bhi.b 0x5e189e
          0x005e1898      44fc0002       move.w 0x2, ccr
          0x005e189c      4e76           trapv
       > 0x005e189e      defc002e       adda.w 0x2e, a7
           0x005e18a2      48e7f0e8       movem.l d0-d3/a0-a2/a4, -(a7)
           0x005e18a6      43ee000c       lea.l 0xc(a6), a1
           0x005e18aa      45ee0008       lea.l 0x8(a6), a2
           0x005e18ae      7609           moveq 0x9, d3
           0x005e18b0      594f           subq.w 0x4, a7
           0x005e18b2      2f2e0012       move.l 0x12(a6), -(a7)
           0x005e18b6      4ebaed54       jsr SEARCHER.get_search_spec(pc)
           0x005e18ba      584f           addq.w 0x4, a7
           0x005e18bc      285f           movea.l (a7)+, a4
           0x005e18be      102e0010       move.b 0x10(a6), d0
           0x005e18c2      b003           cmp.b d3, d0
       < 0x005e18c4      6d0c           blt.b 0x5e18d2
          0x005e18c6      b003           cmp.b d3, d0
      < 0x005e18c8      6d06           blt.b 0x5e18d0
         0x005e18ca      0c00000c       cmpi.b 0xc, d0
     < 0x005e18ce      6f1c           ble.b 0x5e18ec
     > 0x005e18d0      4e4e           trap 0xe
      > 0x005e18d2      0c000007       cmpi.b 0x7, d0
      < 0x005e18d6      6702           beq.b 0x5e18da
         0x005e18d8      4e4e           trap 0xe
      > 0x005e18da      b9ecfffc       cmpa.l -0x4(a4), a4
      < 0x005e18de      6702           beq.b 0x5e18e2
         0x005e18e0      4e4d           trap 0xd
      > 0x005e18e2      29510326       move.l (a1), 0x326(a4)
          0x005e18e6      2952032a       move.l (a2), 0x32a(a4)
      < 0x005e18ea      6040           bra.b 0x5e192c
     > 0x005e18ec      4880           ext.w d0
          0x005e18ee      3200           move.w d0, d1
          0x005e18f0      9243           sub.w d3, d1
          0x005e18f2      43bc0003       chk.w 0x3, d1
          0x005e18f6      4227           clr.b -(a7)
          0x005e18f8      41f900841a5a   lea.l 0x841a5a, a0
          0x005e18fe      41f01000       lea.l (a0, d1.w), a0
          0x005e1902      1428044a       move.b 0x44a(a0), d2
          0x005e1906      b403           cmp.b d3, d2
      < 0x005e1908      6602           bne.b 0x5e190c
         0x005e190a      5217           addq.b 0x1, (a7)
      > 0x005e190c      4eb90040452a   jsr p_Assert
          0x005e1912      544f           addq.w 0x2, a7
          0x005e1914      c3fc005c       muls.w 0x5c, d1
          0x005e1918      b9ecfffc       cmpa.l -0x4(a4), a4
      < 0x005e191c      6702           beq.b 0x5e1920
         0x005e191e      4e4d           trap 0xd
      > 0x005e1920      41f41000       lea.l (a4, d1.w), a0
          0x005e1924      2151032e       move.l (a1), 0x32e(a0)
          0x005e1928      21520332       move.l (a2), 0x332(a0)
       > 0x005e192c      b9ecfffc       cmpa.l -0x4(a4), a4
       < 0x005e1930      6702           beq.b 0x5e1934
          0x005e1932      4e4d           trap 0xd
       > 0x005e1934      4880           ext.w d0
           0x005e1936      42340065       clr.b 0x65(a4, d0.w)
           0x005e193a      2211           move.l (a1), d1
           0x005e193c      0c817fffffff   cmpi.l 0x7fffffff, d1
       < 0x005e1942      660e           bne.b 0x5e1952
          0x005e1944      2212           move.l (a2), d1
          0x005e1946      0c817fffffff   cmpi.l 0x7fffffff, d1
      < 0x005e194c      6604           bne.b 0x5e1952
         0x005e194e      52340065       addq.b 0x1, 0x65(a4, d0.w)
      > 0x005e1952      2f0c           move.l a4, -(a7)
           0x005e1954      1f00           move.b d0, -(a7)
           0x005e1956      4ebaf876       jsr SEARCHER.field_changed(pc)
           0x005e195a      5c4f           addq.w 0x6, a7
           0x005e195c      4cdf170f       movem.l (a7)+, d0-d3/a0-a2/a4
           0x005e1960      4e5e           unlk a6
           0x005e1962      4e75           rts
 116: SEARCHER.sea_set_set_num ();
           0x005e1964      4e56ffd8       link.w a6, 0xffd8
           0x005e1968      bfd5           cmpa.l (a5), a7
       < 0x005e196a      6206           bhi.b 0x5e1972
          0x005e196c      44fc0002       move.w 0x2, ccr
          0x005e1970      4e76           trapv
       > 0x005e1972      defc0024       adda.w 0x24, a7
           0x005e1976      48e7e0c8       movem.l d0-d2/a0-a1/a4, -(a7)
           0x005e197a      594f           subq.w 0x4, a7
           0x005e197c      2f2e002a       move.l 0x2a(a6), -(a7)
           0x005e1980      4ebaec8a       jsr SEARCHER.get_search_spec(pc)
           0x005e1984      584f           addq.w 0x4, a7
           0x005e1986      285f           movea.l (a7)+, a4
           0x005e1988      102e0028       move.b 0x28(a6), d0
           0x005e198c      0c00000d       cmpi.b 0xd, d0
       < 0x005e1990      6702           beq.b 0x5e1994
          0x005e1992      4e4e           trap 0xe
       > 0x005e1994      b9ecfffc       cmpa.l -0x4(a4), a4
       < 0x005e1998      6702           beq.b 0x5e199c
          0x005e199a      4e4d           trap 0xd
       > 0x005e199c      41ec049e       lea.l 0x49e(a4), a0
           0x005e19a0      43ee0008       lea.l 0x8(a6), a1
           0x005e19a4      7207           moveq 0x7, d1
       > 0x005e19a6      20d9           move.l (a1)+, (a0)+
       < 0x005e19a8      51c9fffc       dbra d1, 0x5e19a6
           0x005e19ac      422c0072       clr.b 0x72(a4)
           0x005e19b0      41fac796       lea.l 0x5de148(pc), a0
           0x005e19b4      43ee0008       lea.l 0x8(a6), a1
           0x005e19b8      7207           moveq 0x7, d1
       > 0x005e19ba      b388           cmpm.l (a0)+, (a1)+
       < 0x005e19bc      56c9fffc       dbne d1, 0x5e19ba
       < 0x005e19c0      6604           bne.b 0x5e19c6
          0x005e19c2      522c0072       addq.b 0x1, 0x72(a4)
       > 0x005e19c6      2f0c           move.l a4, -(a7)
           0x005e19c8      1f00           move.b d0, -(a7)
           0x005e19ca      4ebaf802       jsr SEARCHER.field_changed(pc)
           0x005e19ce      5c4f           addq.w 0x6, a7
           0x005e19d0      4cdf1307       movem.l (a7)+, d0-d2/a0-a1/a4
           0x005e19d4      4e5e           unlk a6
           0x005e19d6      4e75           rts
 98: SEARCHER.sea_set_attribu ();
           0x005e19d8      4e56ffe4       link.w a6, 0xffe4
           0x005e19dc      bfd5           cmpa.l (a5), a7
       < 0x005e19de      6206           bhi.b 0x5e19e6
          0x005e19e0      44fc0002       move.w 0x2, ccr
          0x005e19e4      4e76           trapv
       > 0x005e19e6      defc0018       adda.w 0x18, a7
           0x005e19ea      48e7c008       movem.l d0-d1/a4, -(a7)
           0x005e19ee      594f           subq.w 0x4, a7
           0x005e19f0      2f2e000c       move.l 0xc(a6), -(a7)
           0x005e19f4      4ebaec16       jsr SEARCHER.get_search_spec(pc)
           0x005e19f8      584f           addq.w 0x4, a7
           0x005e19fa      285f           movea.l (a7)+, a4
           0x005e19fc      102e000a       move.b 0xa(a6), d0
           0x005e1a00      0c00000e       cmpi.b 0xe, d0
       < 0x005e1a04      6702           beq.b 0x5e1a08
          0x005e1a06      4e4e           trap 0xe
       > 0x005e1a08      b9ecfffc       cmpa.l -0x4(a4), a4
       < 0x005e1a0c      6702           beq.b 0x5e1a10
          0x005e1a0e      4e4d           trap 0xd
       > 0x005e1a10      196e000804be   move.b 0x8(a6), 0x4be(a4)
           0x005e1a16      422c0073       clr.b 0x73(a4)
           0x005e1a1a      122e0008       move.b 0x8(a6), d1
           0x005e1a1e      b23ac728       cmp.b 0x5de148(pc), d1
       < 0x005e1a22      6604           bne.b 0x5e1a28
          0x005e1a24      522c0073       addq.b 0x1, 0x73(a4)
       > 0x005e1a28      2f0c           move.l a4, -(a7)
           0x005e1a2a      1f00           move.b d0, -(a7)
           0x005e1a2c      4ebaf7a0       jsr SEARCHER.field_changed(pc)
           0x005e1a30      5c4f           addq.w 0x6, a7
           0x005e1a32      4cdf1003       movem.l (a7)+, d0-d1/a4
           0x005e1a36      4e5e           unlk a6
           0x005e1a38      4e75           rts
 190: SEARCHER.sea_set_volume_ ();
           0x005e1a3a      4e56fed4       link.w a6, 0xfed4
           0x005e1a3e      bfd5           cmpa.l (a5), a7
       < 0x005e1a40      6206           bhi.b 0x5e1a48
          0x005e1a42      44fc0002       move.w 0x2, ccr
          0x005e1a46      4e76           trapv
       > 0x005e1a48      defc00ac       adda.w 0xac, a7
           0x005e1a4c      48e7e1e0       movem.l d0-d2/d7/a0-a2, -(a7)
           0x005e1a50      45ee0014       lea.l 0x14(a6), a2
           0x005e1a54      741f           moveq 0x1f, d2
           0x005e1a56      4aae0018       tst.l 0x18(a6)
       < 0x005e1a5a      66000094       bne.w 0x5e1af0
          0x005e1a5e      2012           move.l (a2), d0
          0x005e1a60      b082           cmp.l d2, d0
      < 0x005e1a62      6f1c           ble.b 0x5e1a80
         0x005e1a64      487acba1       pea.l 0x5de607(pc)
         0x005e1a68      48780020       pea.l 0x20
         0x005e1a6c      2f17           move.l (a7), -(a7)
         0x005e1a6e      4eb9004047ea   jsr p_wts_o
         0x005e1a74      defc000c       adda.w 0xc, a7
         0x005e1a78      4eb900404946   jsr p_wtln_o
         0x005e1a7e      2482           move.l d2, (a2)
      > 0x005e1a80      206e0010       movea.l 0x10(a6), a0
          0x005e1a84      7e01           moveq 0x1, d7
      > 0x005e1a86      be92           cmp.l (a2), d7
     < 0x005e1a88      6e30           bgt.b 0x5e1aba
        0x005e1a8a      2007           move.l d7, d0
        0x005e1a8c      5380           subq.l 0x1, d0
        0x005e1a8e      0c800000001e   cmpi.l 0x1e, d0
    < 0x005e1a94      6302           bls.b 0x5e1a98
       0x005e1a96      4e4f           trap 0xf
    > 0x005e1a98      e580           asl.l 0x2, d0
        0x005e1a9a      43eeff80       lea.l -0x80(a6), a1
        0x005e1a9e      2207           move.l d7, d1
        0x005e1aa0      b2ae0008       cmp.l 0x8(a6), d1
    < 0x005e1aa4      6e06           bgt.b 0x5e1aac
       0x005e1aa6      92ae000c       sub.l 0xc(a6), d1
   < 0x005e1aaa      6c02           bge.b 0x5e1aae
   > 0x005e1aac      4e4f           trap 0xf
   > 0x005e1aae      e581           asl.l 0x2, d1
        0x005e1ab0      23b018000804   move.l (a0, d1.l), 0x4(a1, d0.l)
        0x005e1ab6      5287           addq.l 0x1, d7
     < 0x005e1ab8      68cc           bvc.b 0x5e1a86
     > 0x005e1aba      204e           movea.l a6, a0
          0x005e1abc      701e           moveq 0x1e, d0
      > 0x005e1abe      2f20           move.l -(a0), -(a7)
      < 0x005e1ac0      51c8fffc       dbra d0, 0x5e1abe
          0x005e1ac4      2f12           move.l (a2), -(a7)
          0x005e1ac6      486f0004       pea.l 0x4(a7)
          0x005e1aca      48780001       pea.l 0x1
          0x005e1ace      4878001f       pea.l 0x1f
          0x005e1ad2      4eb9005dc236   jsr SEARCH_DISKS.sea1_set_vols
          0x005e1ad8      defc008c       adda.w 0x8c, a7
          0x005e1adc      48780000       pea.l 0x0
          0x005e1ae0      1f3c0001       move.b 0x1, -(a7)
          0x005e1ae4      1f3c0006       move.b 0x6, -(a7)
          0x005e1ae8      4eb9005dc1ae   jsr SEARCH_DISKS.sea1_search_cha
          0x005e1aee      504f           addq.w 0x8, a7
       > 0x005e1af0      4cdf0787       movem.l (a7)+, d0-d2/d7/a0-a2
           0x005e1af4      4e5e           unlk a6
           0x005e1af6      4e75           rts
 348: SEARCHER.get_times ();
           0x005e1af8      4e56fcb4       link.w a6, 0xfcb4
           0x005e1afc      bfd5           cmpa.l (a5), a7
       < 0x005e1afe      6206           bhi.b 0x5e1b06
          0x005e1b00      44fc0002       move.w 0x2, ccr
          0x005e1b04      4e76           trapv
       > 0x005e1b06      defc0140       adda.w 0x140, a7
           0x005e1b0a      48e7fdf8       movem.l d0-d5/d7/a0-a4, -(a7)
           0x005e1b0e      47eefff4       lea.l -0xc(a6), a3
           0x005e1b12      49eefff8       lea.l -0x8(a6), a4
           0x005e1b16      7a3b           moveq 0x3b, d5
           0x005e1b18      206e0008       movea.l 0x8(a6), a0
           0x005e1b1c      10bc0001       move.b 0x1, (a0)
           0x005e1b20      26ae0010       move.l 0x10(a6), (a3)
           0x005e1b24      28ae0014       move.l 0x14(a6), (a4)
           0x005e1b28      594f           subq.w 0x4, a7
           0x005e1b2a      2f2e0014       move.l 0x14(a6), -(a7)
           0x005e1b2e      2f2e0010       move.l 0x10(a6), -(a7)
           0x005e1b32      4eb9006aa110   jsr DATE_UTILS.real_date
           0x005e1b38      504f           addq.w 0x8, a7
           0x005e1b3a      2e1f           move.l (a7)+, d7
           0x005e1b3c      2807           move.l d7, d4
           0x005e1b3e      7600           moveq 0x0, d3
           0x005e1b40      4eb900407dd4   jsr fcn.00407dd4
       < 0x005e1b46      6610           bne.b 0x5e1b58
          0x005e1b48      224b           movea.l a3, a1
          0x005e1b4a      45facadb       lea.l 0x5de627(pc), a2
          0x005e1b4e      7007           moveq 0x7, d0
      > 0x005e1b50      12da           move.b (a2)+, (a1)+
      < 0x005e1b52      51c8fffc       dbra d0, 0x5e1b50
      < 0x005e1b56      6002           bra.b 0x5e1b5a
      > 0x005e1b58      4210           clr.b (a0)
      > 0x005e1b5a      9efc0100       suba.w 0x100, a7
           0x005e1b5e      2f14           move.l (a4), -(a7)
           0x005e1b60      2f13           move.l (a3), -(a7)
           0x005e1b62      4eb9005d10e2   jsr LIBRARY.get_time_str
           0x005e1b68      504f           addq.w 0x8, a7
           0x005e1b6a      43eefdf4       lea.l -0x20c(a6), a1
           0x005e1b6e      703f           moveq 0x3f, d0
       > 0x005e1b70      22df           move.l (a7)+, (a1)+
       < 0x005e1b72      51c8fffc       dbra d0, 0x5e1b70
           0x005e1b76      26ae0018       move.l 0x18(a6), (a3)
           0x005e1b7a      28ae001c       move.l 0x1c(a6), (a4)
           0x005e1b7e      594f           subq.w 0x4, a7
           0x005e1b80      2f2e001c       move.l 0x1c(a6), -(a7)
           0x005e1b84      2f2e0018       move.l 0x18(a6), -(a7)
           0x005e1b88      4eb9006aa110   jsr DATE_UTILS.real_date
           0x005e1b8e      504f           addq.w 0x8, a7
           0x005e1b90      2e1f           move.l (a7)+, d7
           0x005e1b92      2807           move.l d7, d4
           0x005e1b94      7600           moveq 0x0, d3
           0x005e1b96      4eb900407dd4   jsr fcn.00407dd4
       < 0x005e1b9c      6610           bne.b 0x5e1bae
          0x005e1b9e      224b           movea.l a3, a1
          0x005e1ba0      45faca8d       lea.l 0x5de62f(pc), a2
          0x005e1ba4      7007           moveq 0x7, d0
      > 0x005e1ba6      12da           move.b (a2)+, (a1)+
      < 0x005e1ba8      51c8fffc       dbra d0, 0x5e1ba6
      < 0x005e1bac      600e           bra.b 0x5e1bbc
      > 0x005e1bae      4210           clr.b (a0)
          0x005e1bb0      1d7c0017fff7   move.b 0x17, -0x9(a6)
          0x005e1bb6      1885           move.b d5, (a4)
          0x005e1bb8      1d45fff9       move.b d5, -0x7(a6)
      > 0x005e1bbc      9efc0100       suba.w 0x100, a7
           0x005e1bc0      2f14           move.l (a4), -(a7)
           0x005e1bc2      2f13           move.l (a3), -(a7)
           0x005e1bc4      4eb9005d10e2   jsr LIBRARY.get_time_str
           0x005e1bca      504f           addq.w 0x8, a7
           0x005e1bcc      41eefef4       lea.l -0x10c(a6), a0
           0x005e1bd0      703f           moveq 0x3f, d0
       > 0x005e1bd2      20df           move.l (a7)+, (a0)+
       < 0x005e1bd4      51c8fffc       dbra d0, 0x5e1bd2
           0x005e1bd8      206e000c       movea.l 0xc(a6), a0
           0x005e1bdc      4240           clr.w d0
           0x005e1bde      102efdf4       move.b -0x20c(a6), d0
           0x005e1be2      3200           move.w d0, d1
           0x005e1be4      43e80001       lea.l 0x1(a0), a1
           0x005e1be8      5301           subq.b 0x1, d1
       < 0x005e1bea      650a           bcs.b 0x5e1bf6
          0x005e1bec      45eefdf5       lea.l -0x20b(a6), a2
      > 0x005e1bf0      12da           move.b (a2)+, (a1)+
      < 0x005e1bf2      51c9fffc       dbra d1, 0x5e1bf0
       > 0x005e1bf6      7201           moveq 0x1, d1
           0x005e1bf8      343c00ff       move.w 0xff, d2
           0x005e1bfc      9440           sub.w d0, d2
           0x005e1bfe      b242           cmp.w d2, d1
       < 0x005e1c00      6302           bls.b 0x5e1c04
          0x005e1c02      3202           move.w d2, d1
       > 0x005e1c04      1080           move.b d0, (a0)
           0x005e1c06      d310           add.b d1, (a0)
           0x005e1c08      45faca2e       lea.l 0x5de638(pc), a2
       > 0x005e1c0c      12da           move.b (a2)+, (a1)+
       < 0x005e1c0e      51c9fffc       dbra d1, 0x5e1c0c
           0x005e1c12      4240           clr.w d0
           0x005e1c14      1010           move.b (a0), d0
           0x005e1c16      43f00001       lea.l 0x1(a0, d0.w), a1
           0x005e1c1a      4241           clr.w d1
           0x005e1c1c      122efef4       move.b -0x10c(a6), d1
           0x005e1c20      d200           add.b d0, d1
       < 0x005e1c22      6406           bcc.b 0x5e1c2a
          0x005e1c24      4eb900406c8a   jsr p_strovr
       > 0x005e1c2a      4241           clr.w d1
           0x005e1c2c      122efef4       move.b -0x10c(a6), d1
           0x005e1c30      343c00ff       move.w 0xff, d2
           0x005e1c34      9440           sub.w d0, d2
           0x005e1c36      b242           cmp.w d2, d1
       < 0x005e1c38      6302           bls.b 0x5e1c3c
          0x005e1c3a      3202           move.w d2, d1
       > 0x005e1c3c      d310           add.b d1, (a0)
           0x005e1c3e      5301           subq.b 0x1, d1
       < 0x005e1c40      650a           bcs.b 0x5e1c4c
          0x005e1c42      45eefef5       lea.l -0x10b(a6), a2
      > 0x005e1c46      12da           move.b (a2)+, (a1)+
      < 0x005e1c48      51c9fffc       dbra d1, 0x5e1c46
       > 0x005e1c4c      4cdf1fbf       movem.l (a7)+, d0-d5/d7/a0-a4
           0x005e1c50      4e5e           unlk a6
           0x005e1c52      4e75           rts
 250: SEARCHER.get_nums ();
           0x005e1c54      4e56fcd0       link.w a6, 0xfcd0
           0x005e1c58      bfd5           cmpa.l (a5), a7
       < 0x005e1c5a      6206           bhi.b 0x5e1c62
          0x005e1c5c      44fc0002       move.w 0x2, ccr
          0x005e1c60      4e76           trapv
       > 0x005e1c62      defc012c       adda.w 0x12c, a7
           0x005e1c66      48e7f1f0       movem.l d0-d3/d7/a0-a3, -(a7)
           0x005e1c6a      47eefefc       lea.l -0x104(a6), a3
           0x005e1c6e      263c7fffffff   move.l 0x7fffffff, d3
           0x005e1c74      206e0008       movea.l 0x8(a6), a0
           0x005e1c78      4210           clr.b (a0)
           0x005e1c7a      202e0010       move.l 0x10(a6), d0
           0x005e1c7e      b083           cmp.l d3, d0
       < 0x005e1c80      660a           bne.b 0x5e1c8c
          0x005e1c82      222e0014       move.l 0x14(a6), d1
          0x005e1c86      b283           cmp.l d3, d1
      < 0x005e1c88      6602           bne.b 0x5e1c8c
         0x005e1c8a      5210           addq.b 0x1, (a0)
      > 0x005e1c8c      b083           cmp.l d3, d0
       < 0x005e1c8e      6604           bne.b 0x5e1c94
          0x005e1c90      7e00           moveq 0x0, d7
      < 0x005e1c92      6002           bra.b 0x5e1c96
      > 0x005e1c94      2e00           move.l d0, d7
      > 0x005e1c96      9efc0100       suba.w 0x100, a7
           0x005e1c9a      2f07           move.l d7, -(a7)
           0x005e1c9c      4eb9005d1368   jsr LIBRARY.get_num_str
           0x005e1ca2      584f           addq.w 0x4, a7
           0x005e1ca4      41eefdfc       lea.l -0x204(a6), a0
           0x005e1ca8      703f           moveq 0x3f, d0
       > 0x005e1caa      20df           move.l (a7)+, (a0)+
       < 0x005e1cac      51c8fffc       dbra d0, 0x5e1caa
           0x005e1cb0      202e0014       move.l 0x14(a6), d0
           0x005e1cb4      b083           cmp.l d3, d0
       < 0x005e1cb6      6604           bne.b 0x5e1cbc
          0x005e1cb8      2e03           move.l d3, d7
      < 0x005e1cba      6002           bra.b 0x5e1cbe
      > 0x005e1cbc      2e00           move.l d0, d7
      > 0x005e1cbe      9efc0100       suba.w 0x100, a7
           0x005e1cc2      2f07           move.l d7, -(a7)
           0x005e1cc4      4eb9005d1368   jsr LIBRARY.get_num_str
           0x005e1cca      584f           addq.w 0x4, a7
           0x005e1ccc      204b           movea.l a3, a0
           0x005e1cce      703f           moveq 0x3f, d0
       > 0x005e1cd0      20df           move.l (a7)+, (a0)+
       < 0x005e1cd2      51c8fffc       dbra d0, 0x5e1cd0
           0x005e1cd6      206e000c       movea.l 0xc(a6), a0
           0x005e1cda      4240           clr.w d0
           0x005e1cdc      102efdfc       move.b -0x204(a6), d0
           0x005e1ce0      3200           move.w d0, d1
           0x005e1ce2      43e80001       lea.l 0x1(a0), a1
           0x005e1ce6      5301           subq.b 0x1, d1
       < 0x005e1ce8      650a           bcs.b 0x5e1cf4
          0x005e1cea      45eefdfd       lea.l -0x203(a6), a2
      > 0x005e1cee      12da           move.b (a2)+, (a1)+
      < 0x005e1cf0      51c9fffc       dbra d1, 0x5e1cee
       > 0x005e1cf4      7201           moveq 0x1, d1
           0x005e1cf6      343c00ff       move.w 0xff, d2
           0x005e1cfa      9440           sub.w d0, d2
           0x005e1cfc      b242           cmp.w d2, d1
       < 0x005e1cfe      6302           bls.b 0x5e1d02
          0x005e1d00      3202           move.w d2, d1
       > 0x005e1d02      1080           move.b d0, (a0)
           0x005e1d04      d310           add.b d1, (a0)
           0x005e1d06      45fac932       lea.l 0x5de63a(pc), a2
       > 0x005e1d0a      12da           move.b (a2)+, (a1)+
       < 0x005e1d0c      51c9fffc       dbra d1, 0x5e1d0a
           0x005e1d10      4240           clr.w d0
           0x005e1d12      1010           move.b (a0), d0
           0x005e1d14      43f00001       lea.l 0x1(a0, d0.w), a1
           0x005e1d18      4241           clr.w d1
           0x005e1d1a      1213           move.b (a3), d1
           0x005e1d1c      d200           add.b d0, d1
       < 0x005e1d1e      6406           bcc.b 0x5e1d26
          0x005e1d20      4eb900406c8a   jsr p_strovr
       > 0x005e1d26      4241           clr.w d1
           0x005e1d28      1213           move.b (a3), d1
           0x005e1d2a      343c00ff       move.w 0xff, d2
           0x005e1d2e      9440           sub.w d0, d2
           0x005e1d30      b242           cmp.w d2, d1
       < 0x005e1d32      6302           bls.b 0x5e1d36
          0x005e1d34      3202           move.w d2, d1
       > 0x005e1d36      d310           add.b d1, (a0)
           0x005e1d38      5301           subq.b 0x1, d1
       < 0x005e1d3a      650a           bcs.b 0x5e1d46
          0x005e1d3c      45eefefd       lea.l -0x103(a6), a2
      > 0x005e1d40      12da           move.b (a2)+, (a1)+
      < 0x005e1d42      51c9fffc       dbra d1, 0x5e1d40
       > 0x005e1d46      4cdf0f8f       movem.l (a7)+, d0-d3/d7/a0-a3
           0x005e1d4a      4e5e           unlk a6
           0x005e1d4c      4e75           rts
 284: SEARCHER.get_extns ();
           0x005e1d4e      4e56feaa       link.w a6, 0xfeaa
           0x005e1d52      bfd5           cmpa.l (a5), a7
       < 0x005e1d54      6206           bhi.b 0x5e1d5c
          0x005e1d56      44fc0002       move.w 0x2, ccr
          0x005e1d5a      4e76           trapv
       > 0x005e1d5c      defc014c       adda.w 0x14c, a7
           0x005e1d60      48e7fff8       movem.l d0-d7/a0-a4, -(a7)
           0x005e1d64      49ee0008       lea.l 0x8(a6), a4
           0x005e1d68      283c000000ff   move.l 0xff, d4
           0x005e1d6e      3a3c0100       move.w 0x100, d5
           0x005e1d72      2054           movea.l (a4), a0
           0x005e1d74      10bac8c5       move.b 0x5de63b(pc), (a0)
           0x005e1d78      41fac3ce       lea.l 0x5de148(pc), a0
           0x005e1d7c      43ee000c       lea.l 0xc(a6), a1
           0x005e1d80      7007           moveq 0x7, d0
       > 0x005e1d82      b388           cmpm.l (a0)+, (a1)+
       < 0x005e1d84      56c8fffc       dbne d0, 0x5e1d82
       < 0x005e1d88      670000d8       beq.w 0x5e1e62
          0x005e1d8c      7c01           moveq 0x1, d6
          0x005e1d8e      2f3900841a9e   move.l 0x841a9e, -(a7)
          0x005e1d94      7e00           moveq 0x0, d7
      > 0x005e1d96      be97           cmp.l (a7), d7
     < 0x005e1d98      6e0000c6       bgt.w 0x5e1e60
        0x005e1d9c      3007           move.w d7, d0
        0x005e1d9e      e648           lsr.w 0x3, d0
        0x005e1da0      0c400020       cmpi.w 0x20, d0
    < 0x005e1da4      6d04           blt.b 0x5e1daa
       0x005e1da6      7000           moveq 0x0, d0
   < 0x005e1da8      6004           bra.b 0x5e1dae
   > 0x005e1daa      0f36000c       btst.l d7, 0xc(a6, d0.w)
   < 0x005e1dae      670000aa       beq.w 0x5e1e5a
       0x005e1db2      be84           cmp.l d4, d7
   < 0x005e1db4      6302           bls.b 0x5e1db8
      0x005e1db6      4e4f           trap 0xf
   > 0x005e1db8      2007           move.l d7, d0
       0x005e1dba      e580           asl.l 0x2, d0
       0x005e1dbc      41f900841a5a   lea.l 0x841a5a, a0
       0x005e1dc2      4a700848       tst.w 0x48(a0, d0.l)
   < 0x005e1dc6      67000092       beq.w 0x5e1e5a
      0x005e1dca      4a06           tst.b d6
  < 0x005e1dcc      6720           beq.b 0x5e1dee
     0x005e1dce      2254           movea.l (a4), a1
     0x005e1dd0      9ec5           suba.w d5, a7
     0x005e1dd2      4281           clr.l d1
     0x005e1dd4      32300848       move.w 0x48(a0, d0.l), d1
     0x005e1dd8      2f01           move.l d1, -(a7)
     0x005e1dda      4eb9005d12a2   jsr LIBRARY.get_extn_str
     0x005e1de0      584f           addq.w 0x4, a7
     0x005e1de2      244f           movea.l a7, a2
     0x005e1de4      3204           move.w d4, d1
 > 0x005e1de6      12da           move.b (a2)+, (a1)+
 < 0x005e1de8      51c9fffc       dbra d1, 0x5e1de6
 < 0x005e1dec      6068           bra.b 0x5e1e56
 > 0x005e1dee      2254           movea.l (a4), a1
     0x005e1df0      4241           clr.w d1
     0x005e1df2      1211           move.b (a1), d1
     0x005e1df4      45f11001       lea.l 0x1(a1, d1.w), a2
     0x005e1df8      7401           moveq 0x1, d2
     0x005e1dfa      3604           move.w d4, d3
     0x005e1dfc      9641           sub.w d1, d3
     0x005e1dfe      b443           cmp.w d3, d2
 < 0x005e1e00      6302           bls.b 0x5e1e04
    0x005e1e02      3403           move.w d3, d2
 > 0x005e1e04      d511           add.b d2, (a1)
     0x005e1e06      47fac835       lea.l 0x5de63d(pc), a3
 > 0x005e1e0a      14db           move.b (a3)+, (a2)+
 < 0x005e1e0c      51cafffc       dbra d2, 0x5e1e0a
     0x005e1e10      9ec5           suba.w d5, a7
     0x005e1e12      4281           clr.l d1
     0x005e1e14      32300848       move.w 0x48(a0, d0.l), d1
     0x005e1e18      2f01           move.l d1, -(a7)
     0x005e1e1a      4eb9005d12a2   jsr LIBRARY.get_extn_str
     0x005e1e20      584f           addq.w 0x4, a7
     0x005e1e22      4241           clr.w d1
     0x005e1e24      1211           move.b (a1), d1
     0x005e1e26      45f11001       lea.l 0x1(a1, d1.w), a2
     0x005e1e2a      4242           clr.w d2
     0x005e1e2c      1417           move.b (a7), d2
     0x005e1e2e      d401           add.b d1, d2
 < 0x005e1e30      6406           bcc.b 0x5e1e38
    0x005e1e32      4eb900406c8a   jsr p_strovr
 > 0x005e1e38      4242           clr.w d2
     0x005e1e3a      1417           move.b (a7), d2
     0x005e1e3c      3604           move.w d4, d3
     0x005e1e3e      9641           sub.w d1, d3
     0x005e1e40      b443           cmp.w d3, d2
 < 0x005e1e42      6302           bls.b 0x5e1e46
    0x005e1e44      3403           move.w d3, d2
 > 0x005e1e46      d511           add.b d2, (a1)
     0x005e1e48      5302           subq.b 0x1, d2
 < 0x005e1e4a      650a           bcs.b 0x5e1e56
    0x005e1e4c      47ef0001       lea.l 0x1(a7), a3
 > 0x005e1e50      14db           move.b (a3)+, (a2)+
 < 0x005e1e52      51cafffc       dbra d2, 0x5e1e50
 > 0x005e1e56      dec5           adda.w d5, a7
      0x005e1e58      7c00           moveq 0x0, d6
   > 0x005e1e5a      5287           addq.l 0x1, d7
     < 0x005e1e5c      6800ff38       bvc.w 0x5e1d96
     > 0x005e1e60      584f           addq.w 0x4, a7
       > 0x005e1e62      4cdf1fff       movem.l (a7)+, d0-d7/a0-a4
           0x005e1e66      4e5e           unlk a6
           0x005e1e68      4e75           rts
            ; CALL XREF from SEARCHER.build_num_map @ 0x5e2480
            ; CALL XREF from SEARCHER.sea_indexed_fil @ 0x5e5066
 176: SEARCHER.numbered_files_ ();
           0x005e1e6a      4e56ffba       link.w a6, 0xffba
           0x005e1e6e      bfd5           cmpa.l (a5), a7
       < 0x005e1e70      6206           bhi.b 0x5e1e78
          0x005e1e72      44fc0002       move.w 0x2, ccr
          0x005e1e76      4e76           trapv
       > 0x005e1e78      defc0042       adda.w 0x42, a7
           0x005e1e7c      48e7e1e0       movem.l d0-d2/d7/a0-a2, -(a7)
           0x005e1e80      206e000c       movea.l 0xc(a6), a0
           0x005e1e84      4210           clr.b (a0)
           0x005e1e86      206e0008       movea.l 0x8(a6), a0
           0x005e1e8a      4210           clr.b (a0)
           0x005e1e8c      2f3900841a9e   move.l 0x841a9e, -(a7)
           0x005e1e92      7e00           moveq 0x0, d7
       > 0x005e1e94      be97           cmp.l (a7), d7
      < 0x005e1e96      6e78           bgt.b 0x5e1f10
         0x005e1e98      206e0010       movea.l 0x10(a6), a0
         0x005e1e9c      b1e8fffc       cmpa.l -0x4(a0), a0
     < 0x005e1ea0      6702           beq.b 0x5e1ea4
        0x005e1ea2      4e4d           trap 0xd
     > 0x005e1ea4      0c87000000ff   cmpi.l 0xff, d7
     < 0x005e1eaa      6302           bls.b 0x5e1eae
        0x005e1eac      4e4f           trap 0xf
     > 0x005e1eae      2007           move.l d7, d0
         0x005e1eb0      e580           asl.l 0x2, d0
         0x005e1eb2      43f900841a5a   lea.l 0x841a5a, a1
         0x005e1eb8      41e802f2       lea.l 0x2f2(a0), a0
         0x005e1ebc      3207           move.w d7, d1
         0x005e1ebe      e649           lsr.w 0x3, d1
         0x005e1ec0      0c410020       cmpi.w 0x20, d1
     < 0x005e1ec4      6d04           blt.b 0x5e1eca
        0x005e1ec6      7200           moveq 0x0, d1
    < 0x005e1ec8      6004           bra.b 0x5e1ece
    > 0x005e1eca      0f301000       btst.l d7, (a0, d1.w)
    < 0x005e1ece      6614           bne.b 0x5e1ee4
        0x005e1ed0      45fac276       lea.l 0x5de148(pc), a2
        0x005e1ed4      721f           moveq 0x1f, d1
    > 0x005e1ed6      b10a           cmpm.b (a2)+, (a0)+
    < 0x005e1ed8      56c9fffc       dbne d1, 0x5e1ed6
    < 0x005e1edc      662e           bne.b 0x5e1f0c
       0x005e1ede      4a31084a       tst.b 0x4a(a1, d0.l)
   < 0x005e1ee2      6728           beq.b 0x5e1f0c
   > 0x005e1ee4      32310848       move.w 0x48(a1, d0.l), d1
       0x005e1ee8      0c41014a       cmpi.w 0x14a, d1
   < 0x005e1eec      6606           bne.b 0x5e1ef4
      0x005e1eee      206e0008       movea.l 0x8(a6), a0
  < 0x005e1ef2      6014           bra.b 0x5e1f08
  > 0x005e1ef4      554f           subq.w 0x2, a7
      0x005e1ef6      3f01           move.w d1, -(a7)
      0x005e1ef8      4eb9006b95e2   jsr USER1_UTILS.ftype_numberabl
      0x005e1efe      544f           addq.w 0x2, a7
      0x005e1f00      4a1f           tst.b (a7)+
  < 0x005e1f02      6708           beq.b 0x5e1f0c
     0x005e1f04      206e000c       movea.l 0xc(a6), a0
  > 0x005e1f08      10bc0001       move.b 0x1, (a0)
   > 0x005e1f0c      5287           addq.l 0x1, d7
      < 0x005e1f0e      6884           bvc.b 0x5e1e94
      > 0x005e1f10      584f           addq.w 0x4, a7
           0x005e1f12      4cdf0787       movem.l (a7)+, d0-d2/d7/a0-a2
           0x005e1f16      4e5e           unlk a6
           0x005e1f18      4e75           rts
            ; CALL XREF from SEARCHER.scan_nums @ 0x5e20de
            ; CALL XREFS from SEARCHER.sea_indexed_fil @ 0x5e5194, 0x5e53e0, 0x5e55ca
 206: SEARCHER.get_num_range ();
           0x005e1f1a      4e56ffc2       link.w a6, 0xffc2
           0x005e1f1e      bfd5           cmpa.l (a5), a7
       < 0x005e1f20      6206           bhi.b 0x5e1f28
          0x005e1f22      44fc0002       move.w 0x2, ccr
          0x005e1f26      4e76           trapv
       > 0x005e1f28      defc003a       adda.w 0x3a, a7
           0x005e1f2c      48e7c3e0       movem.l d0-d1/d6-d7/a0-a2, -(a7)
           0x005e1f30      223c0000270f   move.l 0x270f, d1
           0x005e1f36      1d7c00010024   move.b 0x1, 0x24(a6)
           0x005e1f3c      206e0010       movea.l 0x10(a6), a0
           0x005e1f40      226e000c       movea.l 0xc(a6), a1
           0x005e1f44      2f2e0020       move.l 0x20(a6), -(a7)
           0x005e1f48      1f2e0018       move.b 0x18(a6), -(a7)
           0x005e1f4c      246e0014       movea.l 0x14(a6), a2
           0x005e1f50      4852           pea.l (a2)
           0x005e1f52      4850           pea.l (a0)
           0x005e1f54      4851           pea.l (a1)
           0x005e1f56      4eb9006be63e   jsr USER2_DISK.vol_num_range
           0x005e1f5c      defc0012       adda.w 0x12, a7
           0x005e1f60      7e00           moveq 0x0, d7
           0x005e1f62      3c01           move.w d1, d6
           0x005e1f64      246e001c       movea.l 0x1c(a6), a2
           0x005e1f68      b5eafffc       cmpa.l -0x4(a2), a2
       < 0x005e1f6c      6702           beq.b 0x5e1f70
          0x005e1f6e      4e4d           trap 0xd
       > 0x005e1f70      4aaa0326       tst.l 0x326(a2)
       < 0x005e1f74      6d18           blt.b 0x5e1f8e
          0x005e1f76      202a0326       move.l 0x326(a2), d0
          0x005e1f7a      b081           cmp.l d1, d0
      < 0x005e1f7c      6e10           bgt.b 0x5e1f8e
         0x005e1f7e      202a0326       move.l 0x326(a2), d0
         0x005e1f82      0c800000ffff   cmpi.l 0xffff, d0
     < 0x005e1f88      6302           bls.b 0x5e1f8c
        0x005e1f8a      4e4f           trap 0xf
     > 0x005e1f8c      3e00           move.w d0, d7
      > 0x005e1f8e      4aaa032a       tst.l 0x32a(a2)
       < 0x005e1f92      6d18           blt.b 0x5e1fac
          0x005e1f94      202a032a       move.l 0x32a(a2), d0
          0x005e1f98      b081           cmp.l d1, d0
      < 0x005e1f9a      6e10           bgt.b 0x5e1fac
         0x005e1f9c      202a032a       move.l 0x32a(a2), d0
         0x005e1fa0      0c800000ffff   cmpi.l 0xffff, d0
     < 0x005e1fa6      6302           bls.b 0x5e1faa
        0x005e1fa8      4e4f           trap 0xf
     > 0x005e1faa      3c00           move.w d0, d6
      > 0x005e1fac      be51           cmp.w (a1), d7
       < 0x005e1fae      6204           bhi.b 0x5e1fb4
          0x005e1fb0      bc50           cmp.w (a0), d6
      < 0x005e1fb2      6404           bcc.b 0x5e1fb8
      > 0x005e1fb4      422e0024       clr.b 0x24(a6)
      > 0x005e1fb8      be50           cmp.w (a0), d7
       < 0x005e1fba      6306           bls.b 0x5e1fc2
          0x005e1fbc      be51           cmp.w (a1), d7
      < 0x005e1fbe      6202           bhi.b 0x5e1fc2
         0x005e1fc0      3087           move.w d7, (a0)
      > 0x005e1fc2      bc51           cmp.w (a1), d6
       < 0x005e1fc4      6406           bcc.b 0x5e1fcc
          0x005e1fc6      bc50           cmp.w (a0), d6
      < 0x005e1fc8      6502           bcs.b 0x5e1fcc
         0x005e1fca      3286           move.w d6, (a1)
      > 0x005e1fcc      4a2e001a       tst.b 0x1a(a6)
       < 0x005e1fd0      6708           beq.b 0x5e1fda
          0x005e1fd2      246e0008       movea.l 0x8(a6), a2
          0x005e1fd6      3490           move.w (a0), (a2)
      < 0x005e1fd8      6006           bra.b 0x5e1fe0
      > 0x005e1fda      206e0008       movea.l 0x8(a6), a0
          0x005e1fde      3091           move.w (a1), (a0)
      > 0x005e1fe0      4cdf07c3       movem.l (a7)+, d0-d1/d6-d7/a0-a2
           0x005e1fe4      4e5e           unlk a6
           0x005e1fe6      4e75           rts
            ; CALL XREFS from SEARCHER.build_num_map @ 0x5e2374, 0x5e23b0, 0x5e240e, 0x5e2452
 166: SEARCHER.error ();
           ; var int32_t var_8h @ a7+0x8
           ; var int32_t var_66h @ a7+0x66
           0x005e1fe8      4e56fee4       link.w a6, 0xfee4
           0x005e1fec      bfd5           cmpa.l (a5), a7
       < 0x005e1fee      6206           bhi.b 0x5e1ff6
          0x005e1ff0      44fc0002       move.w 0x2, ccr
          0x005e1ff4      4e76           trapv
       > 0x005e1ff6      defc011c       adda.w 0x11c, a7
           0x005e1ffa      48e7c080       movem.l d0-d1/a0, -(a7)
           0x005e1ffe      41f9004047ea   lea.l p_wts_o, a0
           0x005e2004      700c           moveq 0xc, d0
           0x005e2006      7220           moveq 0x20, d1
           0x005e2008      9efc0100       suba.w 0x100, a7
           0x005e200c      4eb900408ec0   jsr p_err_string
           0x005e2012      487ac690       pea.l 0x5de6a4(pc)
           0x005e2016      48780006       pea.l 0x6
           0x005e201a      2f17           move.l (a7), -(a7)
           0x005e201c      4e90           jsr (a0)                    ; fcn.00000009
           0x005e201e      dec0           adda.w d0, a7
           0x005e2020      486f0001       pea.l 0x1(a7)
           0x005e2024      42a7           clr.l -(a7)
           0x005e2026      1f6f00080003   move.b 0x8(a7), 0x3(a7)
           0x005e202c      2f17           move.l (a7), -(a7)
           0x005e202e      4e90           jsr (a0)                    ; fcn.00000009
           0x005e2030      defc010a       adda.w 0x10a, a7
           0x005e2034      1e81           move.b d1, (a7)
           0x005e2036      48780001       pea.l 0x1
           0x005e203a      4eb9004048b4   jsr p_wtc_o
           0x005e2040      5c4f           addq.w 0x6, a7
           0x005e2042      486e0009       pea.l 0x9(a6)
           0x005e2046      42a7           clr.l -(a7)
           0x005e2048      1f6e00080003   move.b 0x8(a6), 0x3(a7)
           0x005e204e      2f17           move.l (a7), -(a7)
           0x005e2050      4e90           jsr (a0)                    ; fcn.00000009
           0x005e2052      defc000a       adda.w 0xa, a7
           0x005e2056      1e81           move.b d1, (a7)
           0x005e2058      48780001       pea.l 0x1
           0x005e205c      4eb9004048b4   jsr p_wtc_o
           0x005e2062      5c4f           addq.w 0x6, a7
           0x005e2064      486c0067       pea.l 0x67(a4)
           0x005e2068      42a7           clr.l -(a7)
           0x005e206a      1f6c00660003   move.b 0x66(a4), 0x3(a7)
           0x005e2070      2f17           move.l (a7), -(a7)
           0x005e2072      4e90           jsr (a0)                    ; fcn.00000009
           0x005e2074      dec0           adda.w d0, a7
           0x005e2076      4eb900404946   jsr p_wtln_o
           0x005e207c      4854           pea.l (a4)
           0x005e207e      4eb900404468   jsr fcn.00404468
           0x005e2084      584f           addq.w 0x4, a7
           0x005e2086      4cdf0103       movem.l (a7)+, d0-d1/a0
           0x005e208a      4e5e           unlk a6
           0x005e208c      4e75           rts
            ; CALL XREFS from SEARCHER.build_num_map @ 0x5e2490, 0x5e24a0
 620: SEARCHER.scan_nums ();
           ; var int32_t var_40f2h @ a6-0x40f2
           ; var int32_t var_40f0h @ a6-0x40f0
           ; var int32_t var_8h @ a7+0x8
           ; var int32_t var_108h @ a7+0x108
           0x005e208e      4e56fda4       link.w a6, 0xfda4
           0x005e2092      bfd5           cmpa.l (a5), a7
       < 0x005e2094      6206           bhi.b 0x5e209c
          0x005e2096      44fc0002       move.w 0x2, ccr
          0x005e209a      4e76           trapv
       > 0x005e209c      defc023c       adda.w 0x23c, a7
           0x005e20a0      48e7f9f0       movem.l d0-d4/d7/a0-a3, -(a7)
           0x005e20a4      43eeffe6       lea.l -0x1a(a6), a1
           0x005e20a8      45eeffe8       lea.l -0x18(a6), a2
           0x005e20ac      47eeffe4       lea.l -0x1c(a6), a3
           0x005e20b0      740c           moveq 0xc, d2
           0x005e20b2      7601           moveq 0x1, d3
           0x005e20b4      383c0100       move.w 0x100, d4
           0x005e20b8      554f           subq.w 0x2, a7
           0x005e20ba      206c0176       movea.l 0x176(a4), a0
           0x005e20be      b1e8fffc       cmpa.l -0x4(a0), a0
       < 0x005e20c2      6702           beq.b 0x5e20c6
          0x005e20c4      4e4d           trap 0xd
       > 0x005e20c6      2f10           move.l (a0), -(a7)
           0x005e20c8      2f2c0172       move.l 0x172(a4), -(a7)
           0x005e20cc      1f03           move.b d3, -(a7)
           0x005e20ce      1f2e0008       move.b 0x8(a6), -(a7)
           0x005e20d2      486efff2       pea.l -0xe(a6)
           0x005e20d6      486effe2       pea.l -0x1e(a6)
           0x005e20da      4853           pea.l (a3)
           0x005e20dc      4851           pea.l (a1)
           0x005e20de      4ebafe3a       jsr SEARCHER.get_num_range(pc)
           0x005e20e2      defc001c       adda.w 0x1c, a7
           0x005e20e6      4a1f           tst.b (a7)+
       < 0x005e20e8      67000208       beq.w 0x5e22f2
      > 0x005e20ec      24babf10       move.l 0x5ddffe(pc), (a2)
         0x005e20f0      2d7abf10ffec   move.l 0x5de002(pc), -0x14(a6)
         0x005e20f6      3d7abf0efff0   move.w 0x5de006(pc), -0x10(a6)
         0x005e20fc      554f           subq.w 0x2, a7
         0x005e20fe      4227           clr.b -(a7)
         0x005e2100      2f2efff2       move.l -0xe(a6), -(a7)
         0x005e2104      4851           pea.l (a1)
         0x005e2106      4227           clr.b -(a7)
         0x005e2108      3f2effe2       move.w -0x1e(a6), -(a7)
         0x005e210c      3f13           move.w (a3), -(a7)
         0x005e210e      1f2e0008       move.b 0x8(a6), -(a7)
         0x005e2112      1f03           move.b d3, -(a7)
         0x005e2114      4227           clr.b -(a7)
         0x005e2116      4852           pea.l (a2)
         0x005e2118      4eb9006afbf4   jsr USER.get_number
         0x005e211e      defc001a       adda.w 0x1a, a7
         0x005e2122      101f           move.b (a7)+, d0
         0x005e2124      4880           ext.w d0
         0x005e2126      4183           chk.w d3, d0
         0x005e2128      1e00           move.b d0, d7
     < 0x005e212a      6606           bne.b 0x5e2132
        0x005e212c      4eb900404188   jsr p_Unlink
     > 0x005e2132      206c0176       movea.l 0x176(a4), a0
         0x005e2136      b1e8fffc       cmpa.l -0x4(a0), a0
     < 0x005e213a      6702           beq.b 0x5e213e
        0x005e213c      4e4d           trap 0xd
     > 0x005e213e      4a07           tst.b d7
     < 0x005e2140      67000194       beq.w 0x5e22d6
        0x005e2144      3011           move.w (a1), d0
        0x005e2146      b053           cmp.w (a3), d0
    < 0x005e2148      6200018c       bhi.w 0x5e22d6
       0x005e214c      3011           move.w (a1), d0
       0x005e214e      b06effe2       cmp.w -0x1e(a6), d0
   < 0x005e2152      65000182       bcs.w 0x5e22d6
      0x005e2156      2012           move.l (a2), d0
      0x005e2158      b090           cmp.l (a0), d0
  < 0x005e215a      6600017a       bne.w 0x5e22d6
     0x005e215e      554f           subq.w 0x2, a7
     0x005e2160      2f2effee       move.l -0x12(a6), -(a7)
     0x005e2164      2f2effea       move.l -0x16(a6), -(a7)
     0x005e2168      3f12           move.w (a2), -(a7)
     0x005e216a      48680004       pea.l 0x4(a0)
     0x005e216e      486efffa       pea.l -0x6(a6)
     0x005e2172      486efffe       pea.l -0x2(a6)
     0x005e2176      4227           clr.b -(a7)
     0x005e2178      4eb9005cb95a   jsr INDEX.fid_lookup
     0x005e217e      defc0018       adda.w 0x18, a7
     0x005e2182      4a1f           tst.b (a7)+
 < 0x005e2184      6676           bne.b 0x5e21fc
    0x005e2186      9ec4           suba.w d4, a7
    0x005e2188      4eb900408ec0   jsr p_err_string
    0x005e218e      9ec4           suba.w d4, a7
    0x005e2190      4852           pea.l (a2)
    0x005e2192      4eb9005ef416   jsr F2_UTILITY.f_fid_string
    0x005e2198      584f           addq.w 0x4, a7
    0x005e219a      487ac52d       pea.l 0x5de6c9(pc)
    0x005e219e      48780006       pea.l 0x6
    0x005e21a2      2f17           move.l (a7), -(a7)
    0x005e21a4      4eb9004047ea   jsr p_wts_o
    0x005e21aa      dec2           adda.w d2, a7
    0x005e21ac      486f0101       pea.l 0x101(a7)
    0x005e21b0      42a7           clr.l -(a7)
    0x005e21b2      1f6f01080003   move.b 0x108(a7), 0x3(a7)
    0x005e21b8      2f17           move.l (a7), -(a7)
    0x005e21ba      4eb9004047ea   jsr p_wts_o
    0x005e21c0      dec2           adda.w d2, a7
    0x005e21c2      487ac50c       pea.l 0x5de6d0(pc)
    0x005e21c6      48780014       pea.l 0x14
    0x005e21ca      2f17           move.l (a7), -(a7)
    0x005e21cc      4eb9004047ea   jsr p_wts_o
    0x005e21d2      dec2           adda.w d2, a7
    0x005e21d4      486f0001       pea.l 0x1(a7)
    0x005e21d8      42a7           clr.l -(a7)
    0x005e21da      1f6f00080003   move.b 0x8(a7), 0x3(a7)
    0x005e21e0      2f17           move.l (a7), -(a7)
    0x005e21e2      4eb9004047ea   jsr p_wts_o
    0x005e21e8      defc020c       adda.w 0x20c, a7
    0x005e21ec      4eb900404946   jsr p_wtln_o
    0x005e21f2      4854           pea.l (a4)
    0x005e21f4      4eb900404468   jsr fcn.00404468
    0x005e21fa      584f           addq.w 0x4, a7
 > 0x005e21fc      202efffa       move.l -0x6(a6), d0
     0x005e2200      0c8010000000   cmpi.l 0x10000000, d0
 < 0x005e2206      6662           bne.b 0x5e226a
    0x005e2208      9ec4           suba.w d4, a7
    0x005e220a      4852           pea.l (a2)
    0x005e220c      4eb9005ef416   jsr F2_UTILITY.f_fid_string
    0x005e2212      584f           addq.w 0x4, a7
    0x005e2214      487ac4db       pea.l 0x5de6f1(pc)
    0x005e2218      4878000d       pea.l 0xd
    0x005e221c      2f17           move.l (a7), -(a7)
    0x005e221e      4eb9004047ea   jsr p_wts_o
    0x005e2224      dec2           adda.w d2, a7
    0x005e2226      486f0001       pea.l 0x1(a7)
    0x005e222a      42a7           clr.l -(a7)
    0x005e222c      1f6f00080003   move.b 0x8(a7), 0x3(a7)
    0x005e2232      2f17           move.l (a7), -(a7)
    0x005e2234      4eb9004047ea   jsr p_wts_o
    0x005e223a      defc010c       adda.w 0x10c, a7
    0x005e223e      487ac4bf       pea.l 0x5de6ff(pc)
    0x005e2242      48780008       pea.l 0x8
    0x005e2246      2f17           move.l (a7), -(a7)
    0x005e2248      4eb9004047ea   jsr p_wts_o
    0x005e224e      dec2           adda.w d2, a7
    0x005e2250      4281           clr.l d1
    0x005e2252      3211           move.w (a1), d1
    0x005e2254      2f01           move.l d1, -(a7)
    0x005e2256      48780000       pea.l 0x0
    0x005e225a      4eb9004070e4   jsr p_wti_o
    0x005e2260      504f           addq.w 0x8, a7
    0x005e2262      4eb900404946   jsr p_wtln_o
 < 0x005e2268      606c           bra.b 0x5e22d6
 > 0x005e226a      554f           subq.w 0x2, a7
     0x005e226c      2f2c004a       move.l 0x4a(a4), -(a7)
     0x005e2270      2f00           move.l d0, -(a7)
     0x005e2272      48780001       pea.l 0x1
     0x005e2276      4eb90060c920   jsr F14_MAP.f_set_bits
     0x005e227c      dec2           adda.w d2, a7
     0x005e227e      4a1f           tst.b (a7)+
 < 0x005e2280      6654           bne.b 0x5e22d6
    0x005e2282      9ec4           suba.w d4, a7
    0x005e2284      4eb900408ec0   jsr p_err_string
    0x005e228a      487ac47c       pea.l 0x5de708(pc)
    0x005e228e      48780006       pea.l 0x6
    0x005e2292      2f17           move.l (a7), -(a7)
    0x005e2294      4eb9004047ea   jsr p_wts_o
    0x005e229a      dec2           adda.w d2, a7
    0x005e229c      486f0001       pea.l 0x1(a7)
    0x005e22a0      42a7           clr.l -(a7)
    0x005e22a2      1f6f00080003   move.b 0x8(a7), 0x3(a7)
    0x005e22a8      2f17           move.l (a7), -(a7)
    0x005e22aa      4eb9004047ea   jsr p_wts_o
    0x005e22b0      defc010c       adda.w 0x10c, a7
    0x005e22b4      487ac459       pea.l 0x5de70f(pc)
    0x005e22b8      4878000d       pea.l 0xd
    0x005e22bc      2f17           move.l (a7), -(a7)
    0x005e22be      4eb9004047ea   jsr p_wts_o
    0x005e22c4      dec2           adda.w d2, a7
    0x005e22c6      4eb900404946   jsr p_wtln_o
    0x005e22cc      4854           pea.l (a4)
    0x005e22ce      4eb900404468   jsr fcn.00404468
    0x005e22d4      584f           addq.w 0x4, a7
 > 0x005e22d6      4280           clr.l d0
         0x005e22d8      3011           move.w (a1), d0
         0x005e22da      5280           addq.l 0x1, d0
         0x005e22dc      0c800000ffff   cmpi.l 0xffff, d0
     < 0x005e22e2      6302           bls.b 0x5e22e6
        0x005e22e4      4e4f           trap 0xf
     > 0x005e22e6      3280           move.w d0, (a1)
         0x005e22e8      b053           cmp.w (a3), d0
     < 0x005e22ea      6206           bhi.b 0x5e22f2
        0x005e22ec      4a07           tst.b d7
     < 0x005e22ee      6600fdfc       bne.w 0x5e20ec
     > 0x005e22f2      4cdf0f9f       movem.l (a7)+, d0-d4/d7/a0-a3
           0x005e22f6      4e5e           unlk a6
           0x005e22f8      4e75           rts
            ; CALL XREF from SEARCHER @ +0x533a
 452: SEARCHER.build_num_map ();
           0x005e22fa      4e56fe76       link.w a6, 0xfe76
           0x005e22fe      bfd5           cmpa.l (a5), a7
       < 0x005e2300      6206           bhi.b 0x5e2308
          0x005e2302      44fc0002       move.w 0x2, ccr
          0x005e2306      4e76           trapv
       > 0x005e2308      defc012c       adda.w 0x12c, a7
           0x005e230c      48e7f0f8       movem.l d0-d3/a0-a4, -(a7)
           0x005e2310      45eeffa2       lea.l -0x5e(a6), a2
           0x005e2314      47eeffec       lea.l -0x14(a6), a3
           0x005e2318      323c0100       move.w 0x100, d1
           0x005e231c      7401           moveq 0x1, d2
           0x005e231e      760c           moveq 0xc, d3
           0x005e2320      1d42011c       move.b d2, 0x11c(a6)
           0x005e2324      594f           subq.w 0x4, a7
           0x005e2326      4eb900402e30   jsr p_Cur_Ticks
           0x005e232c      2d57fff0       move.l (a7), -0x10(a6)
           0x005e2330      544f           addq.w 0x2, a7
           0x005e2332      4852           pea.l (a2)
           0x005e2334      4eb900404434   jsr fcn.00404434
           0x005e233a      584f           addq.w 0x4, a7
           0x005e233c      4a1f           tst.b (a7)+
       < 0x005e233e      67000168       beq.w 0x5e24a8
          0x005e2342      554f           subq.w 0x2, a7
          0x005e2344      2f2e0110       move.l 0x110(a6), -(a7)
          0x005e2348      2f2e010c       move.l 0x10c(a6), -(a7)
          0x005e234c      3f2e010a       move.w 0x10a(a6), -(a7)
          0x005e2350      1f02           move.b d2, -(a7)
          0x005e2352      4853           pea.l (a3)
          0x005e2354      4eb90060c190   jsr F14_MAP.f_op_map
          0x005e235a      defc0010       adda.w 0x10, a7
          0x005e235e      4a1f           tst.b (a7)+
      < 0x005e2360      6618           bne.b 0x5e237a
         0x005e2362      9ec1           suba.w d1, a7
         0x005e2364      204f           movea.l a7, a0
         0x005e2366      43fac3e7       lea.l 0x5de74f(pc), a1
         0x005e236a      700b           moveq 0xb, d0
     > 0x005e236c      10d9           move.b (a1)+, (a0)+
     < 0x005e236e      51c8fffc       dbra d0, 0x5e236c
         0x005e2372      284a           movea.l a2, a4
         0x005e2374      4ebafc72       jsr SEARCHER.error(pc)
         0x005e2378      dec1           adda.w d1, a7
      > 0x005e237a      554f           subq.w 0x2, a7
          0x005e237c      2f2e0110       move.l 0x110(a6), -(a7)
          0x005e2380      2f2e010c       move.l 0x10c(a6), -(a7)
          0x005e2384      3f2e010a       move.w 0x10a(a6), -(a7)
          0x005e2388      486efff4       pea.l -0xc(a6)
          0x005e238c      486efffc       pea.l -0x4(a6)
          0x005e2390      4eb90060c2ba   jsr F14_MAP.f_map_data
          0x005e2396      defc0012       adda.w 0x12, a7
          0x005e239a      4a1f           tst.b (a7)+
      < 0x005e239c      6618           bne.b 0x5e23b6
         0x005e239e      9ec1           suba.w d1, a7
         0x005e23a0      204f           movea.l a7, a0
         0x005e23a2      43fac3b7       lea.l 0x5de75b(pc), a1
         0x005e23a6      7014           moveq 0x14, d0
     > 0x005e23a8      10d9           move.b (a1)+, (a0)+
     < 0x005e23aa      51c8fffc       dbra d0, 0x5e23a8
         0x005e23ae      284a           movea.l a2, a4
         0x005e23b0      4ebafc36       jsr SEARCHER.error(pc)
         0x005e23b4      dec1           adda.w d1, a7
      > 0x005e23b6      206e0114       movea.l 0x114(a6), a0
          0x005e23ba      b1e8fffc       cmpa.l -0x4(a0), a0
      < 0x005e23be      6702           beq.b 0x5e23c2
         0x005e23c0      4e4d           trap 0xd
      > 0x005e23c2      20280326       move.l 0x326(a0), d0
          0x005e23c6      0c807fffffff   cmpi.l 0x7fffffff, d0
      < 0x005e23cc      664a           bne.b 0x5e2418
         0x005e23ce      2028032a       move.l 0x32a(a0), d0
         0x005e23d2      0c807fffffff   cmpi.l 0x7fffffff, d0
     < 0x005e23d8      663e           bne.b 0x5e2418
        0x005e23da      4a2e0108       tst.b 0x108(a6)
    < 0x005e23de      6738           beq.b 0x5e2418
       0x005e23e0      554f           subq.w 0x2, a7
       0x005e23e2      2f13           move.l (a3), -(a7)
       0x005e23e4      48780000       pea.l 0x0
       0x005e23e8      2f2efff4       move.l -0xc(a6), -(a7)
       0x005e23ec      4eb90060c920   jsr F14_MAP.f_set_bits
       0x005e23f2      dec3           adda.w d3, a7
       0x005e23f4      4a1f           tst.b (a7)+
   < 0x005e23f6      660000ae       bne.w 0x5e24a6
      0x005e23fa      9ec1           suba.w d1, a7
      0x005e23fc      204f           movea.l a7, a0
      0x005e23fe      43fac370       lea.l 0x5de770(pc), a1
      0x005e2402      7004           moveq 0x4, d0
  > 0x005e2404      20d9           move.l (a1)+, (a0)+
  < 0x005e2406      51c8fffc       dbra d0, 0x5e2404
      0x005e240a      30d9           move.w (a1)+, (a0)+
      0x005e240c      284a           movea.l a2, a4
      0x005e240e      4ebafbd8       jsr SEARCHER.error(pc)
      0x005e2412      dec1           adda.w d1, a7
  < 0x005e2414      60000090       bra.w 0x5e24a6
  > 0x005e2418      554f           subq.w 0x2, a7
        0x005e241a      2f13           move.l (a3), -(a7)
        0x005e241c      48780000       pea.l 0x0
        0x005e2420      2f2efff4       move.l -0xc(a6), -(a7)
        0x005e2424      4eb90060c6f8   jsr F14_MAP.f_clear_bits
        0x005e242a      dec3           adda.w d3, a7
        0x005e242c      4a1f           tst.b (a7)+
    < 0x005e242e      6628           bne.b 0x5e2458
       0x005e2430      9efc00fc       suba.w 0xfc, a7
       0x005e2434      2f3ac350       move.l 0x5de786(pc), -(a7)
       0x005e2438      2f7ac3500004   move.l 0x5de78a(pc), 0x4(a7)
       0x005e243e      2f7ac34e0008   move.l 0x5de78e(pc), 0x8(a7)
       0x005e2444      2f7ac34c000c   move.l 0x5de792(pc), 0xc(a7)
       0x005e244a      1f7ac34a0010   move.b 0x5de796(pc), 0x10(a7)
       0x005e2450      284a           movea.l a2, a4
       0x005e2452      4ebafb94       jsr SEARCHER.error(pc)
       0x005e2456      dec1           adda.w d1, a7
    > 0x005e2458      206e0114       movea.l 0x114(a6), a0
        0x005e245c      b1e8fffc       cmpa.l -0x4(a0), a0
    < 0x005e2460      6702           beq.b 0x5e2464
       0x005e2462      4e4d           trap 0xd
    > 0x005e2464      4aa80004       tst.l 0x4(a0)
    < 0x005e2468      660a           bne.b 0x5e2474
       0x005e246a      1d42fffd       move.b d2, -0x3(a6)
       0x005e246e      1d42fffe       move.b d2, -0x2(a6)
   < 0x005e2472      6012           bra.b 0x5e2486
   > 0x005e2474      2f2e0114       move.l 0x114(a6), -(a7)
       0x005e2478      486efffd       pea.l -0x3(a6)
       0x005e247c      486efffe       pea.l -0x2(a6)
       0x005e2480      4ebaf9e8       jsr SEARCHER.numbered_files_(pc)
       0x005e2484      dec3           adda.w d3, a7
   > 0x005e2486      4a2efffd       tst.b -0x3(a6)
    < 0x005e248a      670a           beq.b 0x5e2496
       0x005e248c      4227           clr.b -(a7)
       0x005e248e      284a           movea.l a2, a4
       0x005e2490      4ebafbfc       jsr SEARCHER.scan_nums(pc)
       0x005e2494      544f           addq.w 0x2, a7
    > 0x005e2496      4a2efffe       tst.b -0x2(a6)
    < 0x005e249a      670a           beq.b 0x5e24a6
       0x005e249c      1f02           move.b d2, -(a7)
       0x005e249e      284a           movea.l a2, a4
       0x005e24a0      4ebafbec       jsr SEARCHER.scan_nums(pc)
       0x005e24a4      544f           addq.w 0x2, a7
  > 0x005e24a6      6004           bra.b 0x5e24ac
      > 0x005e24a8      422e011c       clr.b 0x11c(a6)
     > 0x005e24ac      4853           pea.l (a3)
           0x005e24ae      4eb90060470a   jsr F9_FILERDWRT.f_close
           0x005e24b4      584f           addq.w 0x4, a7
           0x005e24b6      4cdf1f0f       movem.l (a7)+, d0-d3/a0-a4
           0x005e24ba      4e5e           unlk a6
           0x005e24bc      4e75           rts
            ; CALL XREFS from SEARCHER.build_str_map @ 0x5e275a, 0x5e27da, 0x5e28ce
 184: fcn.005e24be (int32_t arg_5bch);
           ; var int32_t var_8h @ a7+0x8
           ; var int32_t var_108h @ a7+0x108
           ; arg int32_t arg_5bch @ a7+0x5bc
           0x005e24be      4e56fee4       link.w a6, 0xfee4
           0x005e24c2      bfd5           cmpa.l (a5), a7
       < 0x005e24c4      6206           bhi.b 0x5e24cc
          0x005e24c6      44fc0002       move.w 0x2, ccr
          0x005e24ca      4e76           trapv
       > 0x005e24cc      defc011c       adda.w 0x11c, a7
           0x005e24d0      48e7c080       movem.l d0-d1/a0, -(a7)
           0x005e24d4      41f9004047ea   lea.l p_wts_o, a0
           0x005e24da      700c           moveq 0xc, d0
           0x005e24dc      7220           moveq 0x20, d1
           0x005e24de      9efc0100       suba.w 0x100, a7
           0x005e24e2      4eb900408ec0   jsr p_err_string
           0x005e24e8      487ac2c1       pea.l 0x5de7ab(pc)
           0x005e24ec      48780006       pea.l 0x6
           0x005e24f0      2f17           move.l (a7), -(a7)
           0x005e24f2      4e90           jsr (a0)                    ; fcn.00000009
           0x005e24f4      dec0           adda.w d0, a7
           0x005e24f6      486f0001       pea.l 0x1(a7)
           0x005e24fa      42a7           clr.l -(a7)
           0x005e24fc      1f6f00080003   move.b 0x8(a7), 0x3(a7)
           0x005e2502      2f17           move.l (a7), -(a7)
           0x005e2504      4e90           jsr (a0)                    ; fcn.00000009
           0x005e2506      defc010a       adda.w 0x10a, a7
           0x005e250a      1e81           move.b d1, (a7)
           0x005e250c      48780001       pea.l 0x1
           0x005e2510      4eb9004048b4   jsr p_wtc_o
           0x005e2516      5c4f           addq.w 0x6, a7
           0x005e2518      486e0109       pea.l 0x109(a6)
           0x005e251c      42a7           clr.l -(a7)
           0x005e251e      1f6e01080003   move.b 0x108(a6), 0x3(a7)
           0x005e2524      2f17           move.l (a7), -(a7)
           0x005e2526      4e90           jsr (a0)                    ; fcn.00000009
           0x005e2528      defc000a       adda.w 0xa, a7
           0x005e252c      1e81           move.b d1, (a7)
           0x005e252e      48780001       pea.l 0x1
           0x005e2532      4eb9004048b4   jsr p_wtc_o
           0x005e2538      5c4f           addq.w 0x6, a7
           0x005e253a      486c05bd       pea.l 0x5bd(a4)
           0x005e253e      42a7           clr.l -(a7)
           0x005e2540      1f6c05bc0003   move.b 0x5bc(a4), 0x3(a7)
           0x005e2546      2f17           move.l (a7), -(a7)
           0x005e2548      4e90           jsr (a0)                    ; fcn.00000009
           0x005e254a      dec0           adda.w d0, a7
           0x005e254c      486e0009       pea.l 0x9(a6)
           0x005e2550      42a7           clr.l -(a7)
           0x005e2552      1f6e00080003   move.b 0x8(a6), 0x3(a7)
           0x005e2558      2f17           move.l (a7), -(a7)
           0x005e255a      4e90           jsr (a0)                    ; fcn.00000009
           0x005e255c      dec0           adda.w d0, a7
           0x005e255e      4eb900404946   jsr p_wtln_o
           0x005e2564      4854           pea.l (a4)
           0x005e2566      4eb900404468   jsr fcn.00404468
           0x005e256c      584f           addq.w 0x4, a7
           0x005e256e      4cdf0103       movem.l (a7)+, d0-d1/a0
           0x005e2572      4e5e           unlk a6
           0x005e2574      4e75           rts
            ; CALL XREF from SEARCHER @ +0x530c
 914: SEARCHER.build_str_map ();
           ; var int32_t var_8h @ a7+0x8
           0x005e2576      4e56f814       link.w a6, 0xf814
           0x005e257a      bfd5           cmpa.l (a5), a7
       < 0x005e257c      6206           bhi.b 0x5e2584
          0x005e257e      44fc0002       move.w 0x2, ccr
          0x005e2582      4e76           trapv
       > 0x005e2584      defc0238       adda.w 0x238, a7
           0x005e2588      48e7fff8       movem.l d0-d7/a0-a4, -(a7)
           0x005e258c      45f9004047ea   lea.l p_wts_o, a2
           0x005e2592      47eefa4c       lea.l -0x5b4(a6), a3
           0x005e2596      7201           moveq 0x1, d1
           0x005e2598      740c           moveq 0xc, d2
           0x005e259a      363c0100       move.w 0x100, d3
           0x005e259e      7810           moveq 0x10, d4
           0x005e25a0      3a3c00fc       move.w 0xfc, d5
           0x005e25a4      3c3c010c       move.w 0x10c, d6
           0x005e25a8      3e3c0102       move.w 0x102, d7
           0x005e25ac      1d410232       move.b d1, 0x232(a6)
           0x005e25b0      2d41faac       move.l d1, -0x554(a6)
           0x005e25b4      2d41faa4       move.l d1, -0x55c(a6)
           0x005e25b8      2d41faa8       move.l d1, -0x558(a6)
           0x005e25bc      554f           subq.w 0x2, a7
           0x005e25be      4853           pea.l (a3)
           0x005e25c0      4eb900404434   jsr fcn.00404434
           0x005e25c6      584f           addq.w 0x4, a7
           0x005e25c8      4a1f           tst.b (a7)+
       < 0x005e25ca      6700030c       beq.w 0x5e28d8
          0x005e25ce      554f           subq.w 0x2, a7
          0x005e25d0      2f2e012a       move.l 0x12a(a6), -(a7)
          0x005e25d4      2f2e0126       move.l 0x126(a6), -(a7)
          0x005e25d8      3f2e0124       move.w 0x124(a6), -(a7)
          0x005e25dc      1f01           move.b d1, -(a7)
          0x005e25de      486efaac       pea.l -0x554(a6)
          0x005e25e2      4eb90060c190   jsr F14_MAP.f_op_map
          0x005e25e8      dec4           adda.w d4, a7
          0x005e25ea      4a1f           tst.b (a7)+
      < 0x005e25ec      6646           bne.b 0x5e2634
         0x005e25ee      9ec3           suba.w d3, a7
         0x005e25f0      4eb900408ec0   jsr p_err_string
         0x005e25f6      487ac1ec       pea.l 0x5de7e4(pc)
         0x005e25fa      48780006       pea.l 0x6
         0x005e25fe      2f17           move.l (a7), -(a7)
         0x005e2600      4e92           jsr (a2)                    ; fcn.00000009+0x2
         0x005e2602      dec2           adda.w d2, a7
         0x005e2604      486f0001       pea.l 0x1(a7)
         0x005e2608      42a7           clr.l -(a7)
         0x005e260a      1f6f00080003   move.b 0x8(a7), 0x3(a7)
         0x005e2610      2f17           move.l (a7), -(a7)
         0x005e2612      4e92           jsr (a2)                    ; fcn.00000009+0x2
         0x005e2614      dec6           adda.w d6, a7
         0x005e2616      487ac1d3       pea.l 0x5de7eb(pc)
         0x005e261a      4878000d       pea.l 0xd
         0x005e261e      2f17           move.l (a7), -(a7)
         0x005e2620      4e92           jsr (a2)                    ; fcn.00000009+0x2
         0x005e2622      dec2           adda.w d2, a7
         0x005e2624      4eb900404946   jsr p_wtln_o
         0x005e262a      4853           pea.l (a3)
         0x005e262c      4eb900404468   jsr fcn.00404468
         0x005e2632      584f           addq.w 0x4, a7
      > 0x005e2634      554f           subq.w 0x2, a7
          0x005e2636      2f2e0120       move.l 0x120(a6), -(a7)
          0x005e263a      2f2e011c       move.l 0x11c(a6), -(a7)
          0x005e263e      3f2e011a       move.w 0x11a(a6), -(a7)
          0x005e2642      1f01           move.b d1, -(a7)
          0x005e2644      486efaa4       pea.l -0x55c(a6)
          0x005e2648      4eb90060c190   jsr F14_MAP.f_op_map
          0x005e264e      dec4           adda.w d4, a7
          0x005e2650      4a1f           tst.b (a7)+
      < 0x005e2652      6646           bne.b 0x5e269a
         0x005e2654      9ec3           suba.w d3, a7
         0x005e2656      4eb900408ec0   jsr p_err_string
         0x005e265c      487ac19b       pea.l 0x5de7f9(pc)
         0x005e2660      48780006       pea.l 0x6
         0x005e2664      2f17           move.l (a7), -(a7)
         0x005e2666      4e92           jsr (a2)                    ; fcn.00000009+0x2
         0x005e2668      dec2           adda.w d2, a7
         0x005e266a      486f0001       pea.l 0x1(a7)
         0x005e266e      42a7           clr.l -(a7)
         0x005e2670      1f6f00080003   move.b 0x8(a7), 0x3(a7)
         0x005e2676      2f17           move.l (a7), -(a7)
         0x005e2678      4e92           jsr (a2)                    ; fcn.00000009+0x2
         0x005e267a      dec6           adda.w d6, a7
         0x005e267c      487ac182       pea.l 0x5de800(pc)
         0x005e2680      48780017       pea.l 0x17
         0x005e2684      2f17           move.l (a7), -(a7)
         0x005e2686      4e92           jsr (a2)                    ; fcn.00000009+0x2
         0x005e2688      dec2           adda.w d2, a7
         0x005e268a      4eb900404946   jsr p_wtln_o
         0x005e2690      4853           pea.l (a3)
         0x005e2692      4eb900404468   jsr fcn.00404468
         0x005e2698      584f           addq.w 0x4, a7
      > 0x005e269a      554f           subq.w 0x2, a7
          0x005e269c      2f2e0116       move.l 0x116(a6), -(a7)
          0x005e26a0      2f2e0112       move.l 0x112(a6), -(a7)
          0x005e26a4      3f2e0110       move.w 0x110(a6), -(a7)
          0x005e26a8      1f01           move.b d1, -(a7)
          0x005e26aa      486efaa8       pea.l -0x558(a6)
          0x005e26ae      4eb90060c190   jsr F14_MAP.f_op_map
          0x005e26b4      dec4           adda.w d4, a7
          0x005e26b6      4a1f           tst.b (a7)+
      < 0x005e26b8      6646           bne.b 0x5e2700
         0x005e26ba      9ec3           suba.w d3, a7
         0x005e26bc      4eb900408ec0   jsr p_err_string
         0x005e26c2      487ac154       pea.l 0x5de818(pc)
         0x005e26c6      48780006       pea.l 0x6
         0x005e26ca      2f17           move.l (a7), -(a7)
         0x005e26cc      4e92           jsr (a2)                    ; fcn.00000009+0x2
         0x005e26ce      dec2           adda.w d2, a7
         0x005e26d0      486f0001       pea.l 0x1(a7)
         0x005e26d4      42a7           clr.l -(a7)
         0x005e26d6      1f6f00080003   move.b 0x8(a7), 0x3(a7)
         0x005e26dc      2f17           move.l (a7), -(a7)
         0x005e26de      4e92           jsr (a2)                    ; fcn.00000009+0x2
         0x005e26e0      dec6           adda.w d6, a7
         0x005e26e2      487ac13b       pea.l 0x5de81f(pc)
         0x005e26e6      48780017       pea.l 0x17
         0x005e26ea      2f17           move.l (a7), -(a7)
         0x005e26ec      4e92           jsr (a2)                    ; fcn.00000009+0x2
         0x005e26ee      dec2           adda.w d2, a7
         0x005e26f0      4eb900404946   jsr p_wtln_o
         0x005e26f6      4853           pea.l (a3)
         0x005e26f8      4eb900404468   jsr fcn.00404468
         0x005e26fe      584f           addq.w 0x4, a7
      > 0x005e2700      9ec7           suba.w d7, a7
          0x005e2702      204f           movea.l a7, a0
          0x005e2704      43ee0132       lea.l 0x132(a6), a1
          0x005e2708      703f           moveq 0x3f, d0
      > 0x005e270a      20d9           move.l (a1)+, (a0)+
      < 0x005e270c      51c8fffc       dbra d0, 0x5e270a
          0x005e2710      486efab0       pea.l -0x550(a6)
          0x005e2714      1f01           move.b d1, -(a7)
          0x005e2716      202e010c       move.l 0x10c(a6), d0
          0x005e271a      0c80000000ff   cmpi.l 0xff, d0
      < 0x005e2720      6302           bls.b 0x5e2724
         0x005e2722      4e4f           trap 0xf
      > 0x005e2724      1f00           move.b d0, -(a7)
          0x005e2726      4eb9005cd1e0   jsr INDEX.extract_keys
          0x005e272c      defc0108       adda.w 0x108, a7
          0x005e2730      4a1f           tst.b (a7)+
      < 0x005e2732      662e           bne.b 0x5e2762
         0x005e2734      9ec5           suba.w d5, a7
         0x005e2736      2f3ac0fe       move.l 0x5de836(pc), -(a7)
         0x005e273a      2f7ac0fe0004   move.l 0x5de83a(pc), 0x4(a7)
         0x005e2740      9ec5           suba.w d5, a7
         0x005e2742      2f3ac0fa       move.l 0x5de83e(pc), -(a7)
         0x005e2746      2f7ac0fa0004   move.l 0x5de842(pc), 0x4(a7)
         0x005e274c      3f7ac0f80008   move.w 0x5de846(pc), 0x8(a7)
         0x005e2752      1f7ac0f4000a   move.b 0x5de848(pc), 0xa(a7)
         0x005e2758      284b           movea.l a3, a4
         0x005e275a      4ebafd62       jsr fcn.005e24be(pc)
         0x005e275e      defc0200       adda.w 0x200, a7
      > 0x005e2762      4a2e010a       tst.b 0x10a(a6)
      < 0x005e2766      670000c0       beq.w 0x5e2828
         0x005e276a      102efac0       move.b -0x540(a6), d0
         0x005e276e      b007           cmp.b d7, d0
     < 0x005e2770      660000b6       bne.w 0x5e2828
        0x005e2774      4aae010c       tst.l 0x10c(a6)
    < 0x005e2778      6712           beq.b 0x5e278c
       0x005e277a      102efab0       move.b -0x550(a6), d0
       0x005e277e      b001           cmp.b d1, d0
   < 0x005e2780      660a           bne.b 0x5e278c
      0x005e2782      102efab1       move.b -0x54f(a6), d0
      0x005e2786      b02e010f       cmp.b 0x10f(a6), d0
  < 0x005e278a      6710           beq.b 0x5e279c
  > 0x005e278c      4aae010c       tst.l 0x10c(a6)
   < 0x005e2790      66000096       bne.w 0x5e2828
      0x005e2794      4a2efab0       tst.b -0x550(a6)
  < 0x005e2798      6600008e       bne.w 0x5e2828
  > 0x005e279c      554f           subq.w 0x2, a7
      0x005e279e      2f2e012a       move.l 0x12a(a6), -(a7)
      0x005e27a2      2f2e0126       move.l 0x126(a6), -(a7)
      0x005e27a6      3f2e0124       move.w 0x124(a6), -(a7)
      0x005e27aa      486efa9a       pea.l -0x566(a6)
      0x005e27ae      486efaa2       pea.l -0x55e(a6)
      0x005e27b2      4eb90060c2ba   jsr F14_MAP.f_map_data
      0x005e27b8      defc0012       adda.w 0x12, a7
      0x005e27bc      4a1f           tst.b (a7)+
  < 0x005e27be      6622           bne.b 0x5e27e2
     0x005e27c0      9ec3           suba.w d3, a7
     0x005e27c2      204f           movea.l a7, a0
     0x005e27c4      43fac083       lea.l 0x5de849(pc), a1
     0x005e27c8      7014           moveq 0x14, d0
 > 0x005e27ca      10d9           move.b (a1)+, (a0)+
 < 0x005e27cc      51c8fffc       dbra d0, 0x5e27ca
     0x005e27d0      9efc00fe       suba.w 0xfe, a7
     0x005e27d4      3f3ac088       move.w 0x5de85e(pc), -(a7)
     0x005e27d8      284b           movea.l a3, a4
     0x005e27da      4ebafce2       jsr fcn.005e24be(pc)
     0x005e27de      defc0200       adda.w 0x200, a7
  > 0x005e27e2      594f           subq.w 0x4, a7
      0x005e27e4      4eb900402e30   jsr p_Cur_Ticks
      0x005e27ea      2d57fa96       move.l (a7), -0x56a(a6)
      0x005e27ee      544f           addq.w 0x2, a7
      0x005e27f0      2f2efaac       move.l -0x554(a6), -(a7)
      0x005e27f4      48780000       pea.l 0x0
      0x005e27f8      2f2efa9a       move.l -0x566(a6), -(a7)
      0x005e27fc      4eb90060c920   jsr F14_MAP.f_set_bits
      0x005e2802      dec2           adda.w d2, a7
      0x005e2804      4a1f           tst.b (a7)+
  < 0x005e2806      660000ce       bne.w 0x5e28d6
     0x005e280a      9ec3           suba.w d3, a7
     0x005e280c      204f           movea.l a7, a0
     0x005e280e      43fac050       lea.l 0x5de860(pc), a1
     0x005e2812      7004           moveq 0x4, d0
 > 0x005e2814      20d9           move.l (a1)+, (a0)+
 < 0x005e2816      51c8fffc       dbra d0, 0x5e2814
     0x005e281a      30d9           move.w (a1)+, (a0)+
     0x005e281c      9efc00fe       suba.w 0xfe, a7
     0x005e2820      3f3ac054       move.w 0x5de876(pc), -(a7)
 < 0x005e2824      600000a6       bra.w 0x5e28cc
 > 0x005e2828      4a2e0108       tst.b 0x108(a6)
    < 0x005e282c      6730           beq.b 0x5e285e
       0x005e282e      4227           clr.b -(a7)
       0x005e2830      4a2efac0       tst.b -0x540(a6)
   < 0x005e2834      6602           bne.b 0x5e2838
      0x005e2836      5217           addq.b 0x1, (a7)
   > 0x005e2838      4eb90040452a   jsr p_Assert
       0x005e283e      4217           clr.b (a7)
       0x005e2840      102efad1       move.b -0x52f(a6), d0
       0x005e2844      b007           cmp.b d7, d0
   < 0x005e2846      6602           bne.b 0x5e284a
      0x005e2848      5217           addq.b 0x1, (a7)
   > 0x005e284a      4eb90040452a   jsr p_Assert
       0x005e2850      544f           addq.w 0x2, a7
       0x005e2852      1d7c0003fac0   move.b 0x3, -0x540(a6)
       0x005e2858      1d7c0004fad1   move.b 0x4, -0x52f(a6)
    > 0x005e285e      594f           subq.w 0x4, a7
        0x005e2860      4eb900402e30   jsr p_Cur_Ticks
        0x005e2866      2d57fa96       move.l (a7), -0x56a(a6)
        0x005e286a      544f           addq.w 0x2, a7
        0x005e286c      486efab0       pea.l -0x550(a6)
        0x005e2870      206e012e       movea.l 0x12e(a6), a0
        0x005e2874      2050           movea.l (a0), a0
        0x005e2876      b1e8fffc       cmpa.l -0x4(a0), a0
    < 0x005e287a      6702           beq.b 0x5e287e
       0x005e287c      4e4d           trap 0xd
    > 0x005e287e      48680004       pea.l 0x4(a0)
        0x005e2882      2f2efaac       move.l -0x554(a6), -(a7)
        0x005e2886      2f2efaa4       move.l -0x55c(a6), -(a7)
        0x005e288a      2f2efaa8       move.l -0x558(a6), -(a7)
        0x005e288e      4eb9005cc3ca   jsr INDEX.do_keys_search
        0x005e2894      defc0014       adda.w 0x14, a7
        0x005e2898      4a1f           tst.b (a7)+
    < 0x005e289a      663a           bne.b 0x5e28d6
       0x005e289c      9ec5           suba.w d5, a7
       0x005e289e      2f3abfd8       move.l 0x5de878(pc), -(a7)
       0x005e28a2      2f7abfd80004   move.l 0x5de87c(pc), 0x4(a7)
       0x005e28a8      2f7abfd60008   move.l 0x5de880(pc), 0x8(a7)
       0x005e28ae      3f7abfd4000c   move.w 0x5de884(pc), 0xc(a7)
       0x005e28b4      9ec5           suba.w d5, a7
       0x005e28b6      2f3abfce       move.l 0x5de886(pc), -(a7)
       0x005e28ba      2f7abfce0004   move.l 0x5de88a(pc), 0x4(a7)
       0x005e28c0      3f7abfcc0008   move.w 0x5de88e(pc), 0x8(a7)
       0x005e28c6      1f7abfc8000a   move.b 0x5de890(pc), 0xa(a7)
 > 0x005e28cc      284b           movea.l a3, a4
        0x005e28ce      4ebafbee       jsr fcn.005e24be(pc)
        0x005e28d2      defc0200       adda.w 0x200, a7
  > 0x005e28d6      6004           bra.b 0x5e28dc
      > 0x005e28d8      422e0232       clr.b 0x232(a6)
     > 0x005e28dc      486efaac       pea.l -0x554(a6)
           0x005e28e0      4eb90060470a   jsr F9_FILERDWRT.f_close
           0x005e28e6      584f           addq.w 0x4, a7
           0x005e28e8      486efaa4       pea.l -0x55c(a6)
           0x005e28ec      4eb90060470a   jsr F9_FILERDWRT.f_close
           0x005e28f2      584f           addq.w 0x4, a7
           0x005e28f4      486efaa8       pea.l -0x558(a6)
           0x005e28f8      4eb90060470a   jsr F9_FILERDWRT.f_close
           0x005e28fe      584f           addq.w 0x4, a7
           0x005e2900      4cdf1fff       movem.l (a7)+, d0-d7/a0-a4
           0x005e2904      4e5e           unlk a6
           0x005e2906      4e75           rts
 142: SEARCHER.count_bits ();
           ; var int32_t var_8h @ a7+0x8
           0x005e2908      4e56ffda       link.w a6, 0xffda
           0x005e290c      bfd5           cmpa.l (a5), a7
       < 0x005e290e      6206           bhi.b 0x5e2916
          0x005e2910      44fc0002       move.w 0x2, ccr
          0x005e2914      4e76           trapv
       > 0x005e2916      defc0022       adda.w 0x22, a7
           0x005e291a      48e7c080       movem.l d0-d1/a0, -(a7)
           0x005e291e      720c           moveq 0xc, d1
           0x005e2920      554f           subq.w 0x2, a7
           0x005e2922      206e0108       movea.l 0x108(a6), a0
           0x005e2926      2f10           move.l (a0), -(a7)
           0x005e2928      48780000       pea.l 0x0
           0x005e292c      48780000       pea.l 0x0
           0x005e2930      486efffc       pea.l -0x4(a6)
           0x005e2934      4eb90060ce54   jsr F14_MAP.f_count_bits
           0x005e293a      defc0010       adda.w 0x10, a7
           0x005e293e      1017           move.b (a7), d0
           0x005e2940      4880           ext.w d0
           0x005e2942      41bc0001       chk.w 0x1, d0
           0x005e2946      1e80           move.b d0, (a7)
           0x005e2948      4eb90040452a   jsr p_Assert
           0x005e294e      544f           addq.w 0x2, a7
           0x005e2950      2f2efffc       move.l -0x4(a6), -(a7)
           0x005e2954      48780001       pea.l 0x1
           0x005e2958      4eb9004070e4   jsr p_wti_o
           0x005e295e      504f           addq.w 0x8, a7
           0x005e2960      487abf43       pea.l 0x5de8a5(pc)
           0x005e2964      48780010       pea.l 0x10
           0x005e2968      2f17           move.l (a7), -(a7)
           0x005e296a      4eb9004047ea   jsr p_wts_o
           0x005e2970      dec1           adda.w d1, a7
           0x005e2972      486e0009       pea.l 0x9(a6)
           0x005e2976      42a7           clr.l -(a7)
           0x005e2978      1f6e00080003   move.b 0x8(a6), 0x3(a7)
           0x005e297e      2f17           move.l (a7), -(a7)
           0x005e2980      4eb9004047ea   jsr p_wts_o
           0x005e2986      dec1           adda.w d1, a7
           0x005e2988      4eb900404946   jsr p_wtln_o
           0x005e298e      4cdf0103       movem.l (a7)+, d0-d1/a0
           0x005e2992      4e5e           unlk a6
           0x005e2994      4e75           rts
            ; CALL XREF from SEARCHER.combine_lib_map @ 0x5e2ea0
 476: SEARCHER.and_maps ();
           ; var int32_t var_8h @ a7+0x8
           ; var int32_t var_208h @ a7+0x208
           0x005e2996      4e56fbc4       link.w a6, 0xfbc4
           0x005e299a      bfd5           cmpa.l (a5), a7
       < 0x005e299c      6206           bhi.b 0x5e29a4
          0x005e299e      44fc0002       move.w 0x2, ccr
          0x005e29a2      4e76           trapv
       > 0x005e29a4      defc0334       adda.w 0x334, a7
           0x005e29a8      48e7f8f0       movem.l d0-d4/a0-a3, -(a7)
           0x005e29ac      45f9004047ea   lea.l p_wts_o, a2
           0x005e29b2      47eefffc       lea.l -0x4(a6), a3
           0x005e29b6      363c0100       move.w 0x100, d3
           0x005e29ba      780c           moveq 0xc, d4
           0x005e29bc      9ec3           suba.w d3, a7
           0x005e29be      1f2e0008       move.b 0x8(a6), -(a7)
           0x005e29c2      4ebae58c       jsr SEARCHER.field_str(pc)
           0x005e29c6      544f           addq.w 0x2, a7
           0x005e29c8      41eefefc       lea.l -0x104(a6), a0
           0x005e29cc      703f           moveq 0x3f, d0
       > 0x005e29ce      20df           move.l (a7)+, (a0)+
       < 0x005e29d0      51c8fffc       dbra d0, 0x5e29ce
           0x005e29d4      594f           subq.w 0x4, a7
           0x005e29d6      4eb900402e30   jsr p_Cur_Ticks
           0x005e29dc      2d5ffef8       move.l (a7)+, -0x108(a6)
           0x005e29e0      102e0008       move.b 0x8(a6), d0
           0x005e29e4      4880           ext.w d0
           0x005e29e6      c1fc000e       muls.w 0xe, d0
           0x005e29ea      554f           subq.w 0x2, a7
           0x005e29ec      206c0064       movea.l 0x64(a4), a0
           0x005e29f0      2050           movea.l (a0), a0
           0x005e29f2      b1e8fffc       cmpa.l -0x4(a0), a0
       < 0x005e29f6      6702           beq.b 0x5e29fa
          0x005e29f8      4e4d           trap 0xd
       > 0x005e29fa      9efc000a       suba.w 0xa, a7
           0x005e29fe      224f           movea.l a7, a1
           0x005e2a00      41f00048       lea.l 0x48(a0, d0.w), a0
           0x005e2a04      7009           moveq 0x9, d0
       > 0x005e2a06      12d8           move.b (a0)+, (a1)+
       < 0x005e2a08      51c8fffc       dbra d0, 0x5e2a06
           0x005e2a0c      1f3c0001       move.b 0x1, -(a7)
           0x005e2a10      4853           pea.l (a3)
           0x005e2a12      4eb90060c190   jsr F14_MAP.f_op_map
           0x005e2a18      defc0010       adda.w 0x10, a7
           0x005e2a1c      4a1f           tst.b (a7)+
       < 0x005e2a1e      6648           bne.b 0x5e2a68
          0x005e2a20      9ec3           suba.w d3, a7
          0x005e2a22      4eb900408ec0   jsr p_err_string
          0x005e2a28      487abe8c       pea.l 0x5de8b6(pc)
          0x005e2a2c      48780006       pea.l 0x6
          0x005e2a30      2f17           move.l (a7), -(a7)
          0x005e2a32      4e92           jsr (a2)                    ; fcn.00000009+0x2
          0x005e2a34      dec4           adda.w d4, a7
          0x005e2a36      486f0001       pea.l 0x1(a7)
          0x005e2a3a      42a7           clr.l -(a7)
          0x005e2a3c      1f6f00080003   move.b 0x8(a7), 0x3(a7)
          0x005e2a42      2f17           move.l (a7), -(a7)
          0x005e2a44      4e92           jsr (a2)                    ; fcn.00000009+0x2
          0x005e2a46      defc010c       adda.w 0x10c, a7
          0x005e2a4a      487abe71       pea.l 0x5de8bd(pc)
          0x005e2a4e      4878000d       pea.l 0xd
          0x005e2a52      2f17           move.l (a7), -(a7)
          0x005e2a54      4e92           jsr (a2)                    ; fcn.00000009+0x2
          0x005e2a56      dec4           adda.w d4, a7
          0x005e2a58      4eb900404946   jsr p_wtln_o
          0x005e2a5e      4854           pea.l (a4)
          0x005e2a60      4eb900404468   jsr fcn.00404468
          0x005e2a66      584f           addq.w 0x4, a7
       > 0x005e2a68      554f           subq.w 0x2, a7
           0x005e2a6a      2f13           move.l (a3), -(a7)
           0x005e2a6c      2f2c0054       move.l 0x54(a4), -(a7)
           0x005e2a70      4eb90060d478   jsr F14_MAP.f_and_maps
           0x005e2a76      504f           addq.w 0x8, a7
           0x005e2a78      4a1f           tst.b (a7)+
       < 0x005e2a7a      660000e4       bne.w 0x5e2b60
          0x005e2a7e      9ec3           suba.w d3, a7
          0x005e2a80      4eb900408ec0   jsr p_err_string
          0x005e2a86      9ec3           suba.w d3, a7
          0x005e2a88      7007           moveq 0x7, d0
          0x005e2a8a      41ef0001       lea.l 0x1(a7), a0
          0x005e2a8e      43fabe42       lea.l 0x5de8d2(pc), a1
      > 0x005e2a92      10d9           move.b (a1)+, (a0)+
      < 0x005e2a94      51c8fffc       dbra d0, 0x5e2a92
          0x005e2a98      4240           clr.w d0
          0x005e2a9a      102efefc       move.b -0x104(a6), d0
          0x005e2a9e      5000           addq.b 0x8, d0
      < 0x005e2aa0      6406           bcc.b 0x5e2aa8
         0x005e2aa2      4eb900406c8a   jsr p_strovr
      > 0x005e2aa8      4240           clr.w d0
          0x005e2aaa      102efefc       move.b -0x104(a6), d0
          0x005e2aae      323c00ff       move.w 0xff, d1
          0x005e2ab2      5141           subq.w 0x8, d1
          0x005e2ab4      b041           cmp.w d1, d0
      < 0x005e2ab6      6302           bls.b 0x5e2aba
         0x005e2ab8      3001           move.w d1, d0
      > 0x005e2aba      1ebc0008       move.b 0x8, (a7)
          0x005e2abe      d117           add.b d0, (a7)
          0x005e2ac0      5300           subq.b 0x1, d0
      < 0x005e2ac2      650a           bcs.b 0x5e2ace
         0x005e2ac4      43eefefd       lea.l -0x103(a6), a1
     > 0x005e2ac8      10d9           move.b (a1)+, (a0)+
     < 0x005e2aca      51c8fffc       dbra d0, 0x5e2ac8
      > 0x005e2ace      9ec3           suba.w d3, a7
          0x005e2ad0      4240           clr.w d0
          0x005e2ad2      102f0100       move.b 0x100(a7), d0
          0x005e2ad6      3200           move.w d0, d1
          0x005e2ad8      41ef0001       lea.l 0x1(a7), a0
          0x005e2adc      5301           subq.b 0x1, d1
      < 0x005e2ade      650a           bcs.b 0x5e2aea
         0x005e2ae0      43ef0101       lea.l 0x101(a7), a1
     > 0x005e2ae4      10d9           move.b (a1)+, (a0)+
     < 0x005e2ae6      51c9fffc       dbra d1, 0x5e2ae4
      > 0x005e2aea      7205           moveq 0x5, d1
          0x005e2aec      d200           add.b d0, d1
      < 0x005e2aee      6406           bcc.b 0x5e2af6
         0x005e2af0      4eb900406c8a   jsr p_strovr
      > 0x005e2af6      7205           moveq 0x5, d1
          0x005e2af8      343c00ff       move.w 0xff, d2
          0x005e2afc      9440           sub.w d0, d2
          0x005e2afe      b242           cmp.w d2, d1
      < 0x005e2b00      6302           bls.b 0x5e2b04
         0x005e2b02      3202           move.w d2, d1
      > 0x005e2b04      1e80           move.b d0, (a7)
          0x005e2b06      d317           add.b d1, (a7)
          0x005e2b08      43fabdd1       lea.l 0x5de8db(pc), a1
      > 0x005e2b0c      10d9           move.b (a1)+, (a0)+
      < 0x005e2b0e      51c9fffc       dbra d1, 0x5e2b0c
          0x005e2b12      487abdb7       pea.l 0x5de8cb(pc)
          0x005e2b16      48780006       pea.l 0x6
          0x005e2b1a      2f17           move.l (a7), -(a7)
          0x005e2b1c      4e92           jsr (a2)                    ; fcn.00000009+0x2
          0x005e2b1e      dec4           adda.w d4, a7
          0x005e2b20      486f0201       pea.l 0x201(a7)
          0x005e2b24      42a7           clr.l -(a7)
          0x005e2b26      1f6f02080003   move.b 0x208(a7), 0x3(a7)
          0x005e2b2c      2f17           move.l (a7), -(a7)
          0x005e2b2e      4e92           jsr (a2)                    ; fcn.00000009+0x2
          0x005e2b30      dec4           adda.w d4, a7
          0x005e2b32      486f0001       pea.l 0x1(a7)
          0x005e2b36      42a7           clr.l -(a7)
          0x005e2b38      1f6f00080003   move.b 0x8(a7), 0x3(a7)
          0x005e2b3e      2f17           move.l (a7), -(a7)
          0x005e2b40      4e92           jsr (a2)                    ; fcn.00000009+0x2
          0x005e2b42      defc030c       adda.w 0x30c, a7
          0x005e2b46      4eb900404946   jsr p_wtln_o
          0x005e2b4c      4853           pea.l (a3)
          0x005e2b4e      4eb90060470a   jsr F9_FILERDWRT.f_close
          0x005e2b54      584f           addq.w 0x4, a7
          0x005e2b56      4854           pea.l (a4)
          0x005e2b58      4eb900404468   jsr fcn.00404468
          0x005e2b5e      584f           addq.w 0x4, a7
       > 0x005e2b60      4853           pea.l (a3)
           0x005e2b62      4eb90060470a   jsr F9_FILERDWRT.f_close
           0x005e2b68      584f           addq.w 0x4, a7
           0x005e2b6a      4cdf0f1f       movem.l (a7)+, d0-d4/a0-a3
           0x005e2b6e      4e5e           unlk a6
           0x005e2b70      4e75           rts
            ; CALL XREF from SEARCHER.combine_lib_map @ 0x5e2e80
 476: SEARCHER.copy_map ();
           ; var int32_t var_8h @ a7+0x8
           ; var int32_t var_208h @ a7+0x208
           0x005e2b72      4e56fbc0       link.w a6, 0xfbc0
           0x005e2b76      bfd5           cmpa.l (a5), a7
       < 0x005e2b78      6206           bhi.b 0x5e2b80
          0x005e2b7a      44fc0002       move.w 0x2, ccr
          0x005e2b7e      4e76           trapv
       > 0x005e2b80      defc0338       adda.w 0x338, a7
           0x005e2b84      48e7fcf0       movem.l d0-d5/a0-a3, -(a7)
           0x005e2b88      45f9004047ea   lea.l p_wts_o, a2
           0x005e2b8e      47eefffc       lea.l -0x4(a6), a3
           0x005e2b92      363c0100       move.w 0x100, d3
           0x005e2b96      780c           moveq 0xc, d4
           0x005e2b98      7a09           moveq 0x9, d5
           0x005e2b9a      9ec3           suba.w d3, a7
           0x005e2b9c      1f2e0008       move.b 0x8(a6), -(a7)
           0x005e2ba0      4ebae3ae       jsr SEARCHER.field_str(pc)
           0x005e2ba4      544f           addq.w 0x2, a7
           0x005e2ba6      41eefefc       lea.l -0x104(a6), a0
           0x005e2baa      703f           moveq 0x3f, d0
       > 0x005e2bac      20df           move.l (a7)+, (a0)+
       < 0x005e2bae      51c8fffc       dbra d0, 0x5e2bac
           0x005e2bb2      594f           subq.w 0x4, a7
           0x005e2bb4      4eb900402e30   jsr p_Cur_Ticks
           0x005e2bba      2d5ffef8       move.l (a7)+, -0x108(a6)
           0x005e2bbe      102e0008       move.b 0x8(a6), d0
           0x005e2bc2      4880           ext.w d0
           0x005e2bc4      c1fc000e       muls.w 0xe, d0
           0x005e2bc8      554f           subq.w 0x2, a7
           0x005e2bca      206c0064       movea.l 0x64(a4), a0
           0x005e2bce      2050           movea.l (a0), a0
           0x005e2bd0      b1e8fffc       cmpa.l -0x4(a0), a0
       < 0x005e2bd4      6702           beq.b 0x5e2bd8
          0x005e2bd6      4e4d           trap 0xd
       > 0x005e2bd8      9efc000a       suba.w 0xa, a7
           0x005e2bdc      224f           movea.l a7, a1
           0x005e2bde      41f00048       lea.l 0x48(a0, d0.w), a0
           0x005e2be2      7009           moveq 0x9, d0
       > 0x005e2be4      12d8           move.b (a0)+, (a1)+
       < 0x005e2be6      51c8fffc       dbra d0, 0x5e2be4
           0x005e2bea      1f3c0001       move.b 0x1, -(a7)
           0x005e2bee      4853           pea.l (a3)
           0x005e2bf0      4eb90060c190   jsr F14_MAP.f_op_map
           0x005e2bf6      defc0010       adda.w 0x10, a7
           0x005e2bfa      4a1f           tst.b (a7)+
       < 0x005e2bfc      6648           bne.b 0x5e2c46
          0x005e2bfe      9ec3           suba.w d3, a7
          0x005e2c00      4eb900408ec0   jsr p_err_string
          0x005e2c06      487abce8       pea.l 0x5de8f0(pc)
          0x005e2c0a      48780006       pea.l 0x6
          0x005e2c0e      2f17           move.l (a7), -(a7)
          0x005e2c10      4e92           jsr (a2)                    ; fcn.00000009+0x2
          0x005e2c12      dec4           adda.w d4, a7
          0x005e2c14      486f0001       pea.l 0x1(a7)
          0x005e2c18      42a7           clr.l -(a7)
          0x005e2c1a      1f6f00080003   move.b 0x8(a7), 0x3(a7)
          0x005e2c20      2f17           move.l (a7), -(a7)
          0x005e2c22      4e92           jsr (a2)                    ; fcn.00000009+0x2
          0x005e2c24      defc010c       adda.w 0x10c, a7
          0x005e2c28      487abccd       pea.l 0x5de8f7(pc)
          0x005e2c2c      4878000d       pea.l 0xd
          0x005e2c30      2f17           move.l (a7), -(a7)
          0x005e2c32      4e92           jsr (a2)                    ; fcn.00000009+0x2
          0x005e2c34      dec4           adda.w d4, a7
          0x005e2c36      4eb900404946   jsr p_wtln_o
          0x005e2c3c      4854           pea.l (a4)
          0x005e2c3e      4eb900404468   jsr fcn.00404468
          0x005e2c44      584f           addq.w 0x4, a7
       > 0x005e2c46      554f           subq.w 0x2, a7
           0x005e2c48      2f13           move.l (a3), -(a7)
           0x005e2c4a      2f2c0054       move.l 0x54(a4), -(a7)
           0x005e2c4e      4eb90060d3aa   jsr F14_MAP.f_copy_map
           0x005e2c54      504f           addq.w 0x8, a7
           0x005e2c56      4a1f           tst.b (a7)+
       < 0x005e2c58      660000e2       bne.w 0x5e2d3c
          0x005e2c5c      9ec3           suba.w d3, a7
          0x005e2c5e      4eb900408ec0   jsr p_err_string
          0x005e2c64      9ec3           suba.w d3, a7
          0x005e2c66      7008           moveq 0x8, d0
          0x005e2c68      41ef0001       lea.l 0x1(a7), a0
          0x005e2c6c      43fabc9e       lea.l 0x5de90c(pc), a1
      > 0x005e2c70      10d9           move.b (a1)+, (a0)+
      < 0x005e2c72      51c8fffc       dbra d0, 0x5e2c70
          0x005e2c76      4240           clr.w d0
          0x005e2c78      102efefc       move.b -0x104(a6), d0
          0x005e2c7c      d005           add.b d5, d0
      < 0x005e2c7e      6406           bcc.b 0x5e2c86
         0x005e2c80      4eb900406c8a   jsr p_strovr
      > 0x005e2c86      4240           clr.w d0
          0x005e2c88      102efefc       move.b -0x104(a6), d0
          0x005e2c8c      323c00ff       move.w 0xff, d1
          0x005e2c90      9245           sub.w d5, d1
          0x005e2c92      b041           cmp.w d1, d0
      < 0x005e2c94      6302           bls.b 0x5e2c98
         0x005e2c96      3001           move.w d1, d0
      > 0x005e2c98      1e85           move.b d5, (a7)
          0x005e2c9a      d117           add.b d0, (a7)
          0x005e2c9c      5300           subq.b 0x1, d0
      < 0x005e2c9e      650a           bcs.b 0x5e2caa
         0x005e2ca0      43eefefd       lea.l -0x103(a6), a1
     > 0x005e2ca4      10d9           move.b (a1)+, (a0)+
     < 0x005e2ca6      51c8fffc       dbra d0, 0x5e2ca4
      > 0x005e2caa      9ec3           suba.w d3, a7
          0x005e2cac      4240           clr.w d0
          0x005e2cae      102f0100       move.b 0x100(a7), d0
          0x005e2cb2      3200           move.w d0, d1
          0x005e2cb4      41ef0001       lea.l 0x1(a7), a0
          0x005e2cb8      5301           subq.b 0x1, d1
      < 0x005e2cba      650a           bcs.b 0x5e2cc6
         0x005e2cbc      43ef0101       lea.l 0x101(a7), a1
     > 0x005e2cc0      10d9           move.b (a1)+, (a0)+
     < 0x005e2cc2      51c9fffc       dbra d1, 0x5e2cc0
      > 0x005e2cc6      7205           moveq 0x5, d1
          0x005e2cc8      d200           add.b d0, d1
      < 0x005e2cca      6406           bcc.b 0x5e2cd2
         0x005e2ccc      4eb900406c8a   jsr p_strovr
      > 0x005e2cd2      7205           moveq 0x5, d1
          0x005e2cd4      343c00ff       move.w 0xff, d2
          0x005e2cd8      9440           sub.w d0, d2
          0x005e2cda      b242           cmp.w d2, d1
      < 0x005e2cdc      6302           bls.b 0x5e2ce0
         0x005e2cde      3202           move.w d2, d1
      > 0x005e2ce0      1e80           move.b d0, (a7)
          0x005e2ce2      d317           add.b d1, (a7)
          0x005e2ce4      43fabc30       lea.l 0x5de916(pc), a1
      > 0x005e2ce8      10d9           move.b (a1)+, (a0)+
      < 0x005e2cea      51c9fffc       dbra d1, 0x5e2ce8
          0x005e2cee      487abc15       pea.l 0x5de905(pc)
          0x005e2cf2      48780006       pea.l 0x6
          0x005e2cf6      2f17           move.l (a7), -(a7)
          0x005e2cf8      4e92           jsr (a2)                    ; fcn.00000009+0x2
          0x005e2cfa      dec4           adda.w d4, a7
          0x005e2cfc      486f0201       pea.l 0x201(a7)
          0x005e2d00      42a7           clr.l -(a7)
          0x005e2d02      1f6f02080003   move.b 0x208(a7), 0x3(a7)
          0x005e2d08      2f17           move.l (a7), -(a7)
          0x005e2d0a      4e92           jsr (a2)                    ; fcn.00000009+0x2
          0x005e2d0c      dec4           adda.w d4, a7
          0x005e2d0e      486f0001       pea.l 0x1(a7)
          0x005e2d12      42a7           clr.l -(a7)
          0x005e2d14      1f6f00080003   move.b 0x8(a7), 0x3(a7)
          0x005e2d1a      2f17           move.l (a7), -(a7)
          0x005e2d1c      4e92           jsr (a2)                    ; fcn.00000009+0x2
          0x005e2d1e      defc030c       adda.w 0x30c, a7
          0x005e2d22      4eb900404946   jsr p_wtln_o
          0x005e2d28      4853           pea.l (a3)
          0x005e2d2a      4eb90060470a   jsr F9_FILERDWRT.f_close
          0x005e2d30      584f           addq.w 0x4, a7
          0x005e2d32      4854           pea.l (a4)
          0x005e2d34      4eb900404468   jsr fcn.00404468
          0x005e2d3a      584f           addq.w 0x4, a7
       > 0x005e2d3c      4853           pea.l (a3)
           0x005e2d3e      4eb90060470a   jsr F9_FILERDWRT.f_close
           0x005e2d44      584f           addq.w 0x4, a7
           0x005e2d46      4cdf0f3f       movem.l (a7)+, d0-d5/a0-a3
           0x005e2d4a      4e5e           unlk a6
           0x005e2d4c      4e75           rts
            ; CALL XREF from SEARCHER.sea_indexed_sta @ 0x5e3c12
 538: SEARCHER.combine_lib_map ();
           ; var int32_t var_8h @ a7+0x8
           0x005e2d4e      4e56fe64       link.w a6, 0xfe64
           0x005e2d52      bfd5           cmpa.l (a5), a7
       < 0x005e2d54      6206           bhi.b 0x5e2d5c
          0x005e2d56      44fc0002       move.w 0x2, ccr
          0x005e2d5a      4e76           trapv
       > 0x005e2d5c      defc0144       adda.w 0x144, a7
           0x005e2d60      48e7fdf8       movem.l d0-d5/d7/a0-a4, -(a7)
           0x005e2d64      47f9004047ea   lea.l p_wts_o, a3
           0x005e2d6a      7201           moveq 0x1, d1
           0x005e2d6c      740c           moveq 0xc, d2
           0x005e2d6e      7610           moveq 0x10, d3
           0x005e2d70      383c0100       move.w 0x100, d4
           0x005e2d74      3a3c010c       move.w 0x10c, d5
           0x005e2d78      1d410010       move.b d1, 0x10(a6)
           0x005e2d7c      2d41fffc       move.l d1, -0x4(a6)
           0x005e2d80      2d41fff8       move.l d1, -0x8(a6)
           0x005e2d84      554f           subq.w 0x2, a7
           0x005e2d86      486effa8       pea.l -0x58(a6)
           0x005e2d8a      4eb900404434   jsr fcn.00404434
           0x005e2d90      584f           addq.w 0x4, a7
           0x005e2d92      4a1f           tst.b (a7)+
       < 0x005e2d94      670001ae       beq.w 0x5e2f44
          0x005e2d98      206e000c       movea.l 0xc(a6), a0
          0x005e2d9c      2050           movea.l (a0), a0
          0x005e2d9e      b1e8fffc       cmpa.l -0x4(a0), a0
      < 0x005e2da2      6702           beq.b 0x5e2da6
         0x005e2da4      4e4d           trap 0xd
      > 0x005e2da6      9ec2           suba.w d2, a7
          0x005e2da8      224f           movea.l a7, a1
          0x005e2daa      45e801a2       lea.l 0x1a2(a0), a2
          0x005e2dae      7009           moveq 0x9, d0
      > 0x005e2db0      12da           move.b (a2)+, (a1)+
      < 0x005e2db2      51c8fffc       dbra d0, 0x5e2db0
          0x005e2db6      1f01           move.b d1, -(a7)
          0x005e2db8      486efffc       pea.l -0x4(a6)
          0x005e2dbc      4eb90060c190   jsr F14_MAP.f_op_map
          0x005e2dc2      dec3           adda.w d3, a7
          0x005e2dc4      4a1f           tst.b (a7)+
      < 0x005e2dc6      6648           bne.b 0x5e2e10
         0x005e2dc8      9ec4           suba.w d4, a7
         0x005e2dca      4eb900408ec0   jsr p_err_string
         0x005e2dd0      487abb51       pea.l 0x5de923(pc)
         0x005e2dd4      48780006       pea.l 0x6
         0x005e2dd8      2f17           move.l (a7), -(a7)
         0x005e2dda      4e93           jsr (a3)                    ; fcn.0000000c
         0x005e2ddc      dec2           adda.w d2, a7
         0x005e2dde      486f0001       pea.l 0x1(a7)
         0x005e2de2      42a7           clr.l -(a7)
         0x005e2de4      1f6f00080003   move.b 0x8(a7), 0x3(a7)
         0x005e2dea      2f17           move.l (a7), -(a7)
         0x005e2dec      4e93           jsr (a3)                    ; fcn.0000000c
         0x005e2dee      dec5           adda.w d5, a7
         0x005e2df0      487abb38       pea.l 0x5de92a(pc)
         0x005e2df4      48780017       pea.l 0x17
         0x005e2df8      2f17           move.l (a7), -(a7)
         0x005e2dfa      4e93           jsr (a3)                    ; fcn.0000000c
         0x005e2dfc      dec2           adda.w d2, a7
         0x005e2dfe      4eb900404946   jsr p_wtln_o
         0x005e2e04      486effa8       pea.l -0x58(a6)
         0x005e2e08      4eb900404468   jsr fcn.00404468
         0x005e2e0e      584f           addq.w 0x4, a7
      > 0x005e2e10      9ec2           suba.w d2, a7
          0x005e2e12      224f           movea.l a7, a1
          0x005e2e14      41e80128       lea.l 0x128(a0), a0
          0x005e2e18      7009           moveq 0x9, d0
      > 0x005e2e1a      12d8           move.b (a0)+, (a1)+
      < 0x005e2e1c      51c8fffc       dbra d0, 0x5e2e1a
          0x005e2e20      1f01           move.b d1, -(a7)
          0x005e2e22      486efff8       pea.l -0x8(a6)
          0x005e2e26      4eb90060c190   jsr F14_MAP.f_op_map
          0x005e2e2c      dec3           adda.w d3, a7
          0x005e2e2e      4a1f           tst.b (a7)+
      < 0x005e2e30      6648           bne.b 0x5e2e7a
         0x005e2e32      9ec4           suba.w d4, a7
         0x005e2e34      4eb900408ec0   jsr p_err_string
         0x005e2e3a      487abb06       pea.l 0x5de942(pc)
         0x005e2e3e      48780006       pea.l 0x6
         0x005e2e42      2f17           move.l (a7), -(a7)
         0x005e2e44      4e93           jsr (a3)                    ; fcn.0000000c
         0x005e2e46      dec2           adda.w d2, a7
         0x005e2e48      486f0001       pea.l 0x1(a7)
         0x005e2e4c      42a7           clr.l -(a7)
         0x005e2e4e      1f6f00080003   move.b 0x8(a7), 0x3(a7)
         0x005e2e54      2f17           move.l (a7), -(a7)
         0x005e2e56      4e93           jsr (a3)                    ; fcn.0000000c
         0x005e2e58      dec5           adda.w d5, a7
         0x005e2e5a      487abaed       pea.l 0x5de949(pc)
         0x005e2e5e      48780013       pea.l 0x13
         0x005e2e62      2f17           move.l (a7), -(a7)
         0x005e2e64      4e93           jsr (a3)                    ; fcn.0000000c
         0x005e2e66      dec2           adda.w d2, a7
         0x005e2e68      4eb900404946   jsr p_wtln_o
         0x005e2e6e      486effa8       pea.l -0x58(a6)
         0x005e2e72      4eb900404468   jsr fcn.00404468
         0x005e2e78      584f           addq.w 0x4, a7
      > 0x005e2e7a      1f01           move.b d1, -(a7)
          0x005e2e7c      49eeffa8       lea.l -0x58(a6), a4
          0x005e2e80      4ebafcf0       jsr SEARCHER.copy_map(pc)
          0x005e2e84      544f           addq.w 0x2, a7
          0x005e2e86      7e00           moveq 0x0, d7
      > 0x005e2e88      be01           cmp.b d1, d7
     < 0x005e2e8a      671a           beq.b 0x5e2ea6
        0x005e2e8c      554f           subq.w 0x2, a7
        0x005e2e8e      1f07           move.b d7, -(a7)
        0x005e2e90      4ebaca80       jsr SEARCHER.field_in_use(pc)
        0x005e2e94      544f           addq.w 0x2, a7
        0x005e2e96      4a1f           tst.b (a7)+
    < 0x005e2e98      670c           beq.b 0x5e2ea6
       0x005e2e9a      1f07           move.b d7, -(a7)
       0x005e2e9c      49eeffa8       lea.l -0x58(a6), a4
       0x005e2ea0      4ebafaf4       jsr SEARCHER.and_maps(pc)
       0x005e2ea4      544f           addq.w 0x2, a7
    > 0x005e2ea6      5207           addq.b 0x1, d7
         0x005e2ea8      0c07000f       cmpi.b 0xf, d7
      < 0x005e2eac      6fda           ble.b 0x5e2e88
          0x005e2eae      594f           subq.w 0x4, a7
          0x005e2eb0      4eb900402e30   jsr p_Cur_Ticks
          0x005e2eb6      2e17           move.l (a7), d7
          0x005e2eb8      544f           addq.w 0x2, a7
          0x005e2eba      2f2efffc       move.l -0x4(a6), -(a7)
          0x005e2ebe      2f2efff8       move.l -0x8(a6), -(a7)
          0x005e2ec2      4eb90060d3aa   jsr F14_MAP.f_copy_map
          0x005e2ec8      504f           addq.w 0x8, a7
          0x005e2eca      4a1f           tst.b (a7)+
      < 0x005e2ecc      6648           bne.b 0x5e2f16
         0x005e2ece      9ec4           suba.w d4, a7
         0x005e2ed0      4eb900408ec0   jsr p_err_string
         0x005e2ed6      487abaa3       pea.l 0x5de97b(pc)
         0x005e2eda      48780006       pea.l 0x6
         0x005e2ede      2f17           move.l (a7), -(a7)
         0x005e2ee0      4e93           jsr (a3)                    ; fcn.0000000c
         0x005e2ee2      dec2           adda.w d2, a7
         0x005e2ee4      486f0001       pea.l 0x1(a7)
         0x005e2ee8      42a7           clr.l -(a7)
         0x005e2eea      1f6f00080003   move.b 0x8(a7), 0x3(a7)
         0x005e2ef0      2f17           move.l (a7), -(a7)
         0x005e2ef2      4e93           jsr (a3)                    ; fcn.0000000c
         0x005e2ef4      dec5           adda.w d5, a7
         0x005e2ef6      487aba8a       pea.l 0x5de982(pc)
         0x005e2efa      48780018       pea.l 0x18
         0x005e2efe      2f17           move.l (a7), -(a7)
         0x005e2f00      4e93           jsr (a3)                    ; fcn.0000000c
         0x005e2f02      dec2           adda.w d2, a7
         0x005e2f04      4eb900404946   jsr p_wtln_o
         0x005e2f0a      486effa8       pea.l -0x58(a6)
         0x005e2f0e      4eb900404468   jsr fcn.00404468
         0x005e2f14      584f           addq.w 0x4, a7
      > 0x005e2f16      554f           subq.w 0x2, a7
          0x005e2f18      2f2efff8       move.l -0x8(a6), -(a7)
          0x005e2f1c      48780000       pea.l 0x0
          0x005e2f20      48780000       pea.l 0x0
          0x005e2f24      206e0008       movea.l 0x8(a6), a0
          0x005e2f28      4850           pea.l (a0)
          0x005e2f2a      4eb90060ce54   jsr F14_MAP.f_count_bits
          0x005e2f30      dec3           adda.w d3, a7
          0x005e2f32      1017           move.b (a7), d0
          0x005e2f34      4880           ext.w d0
          0x005e2f36      4181           chk.w d1, d0
          0x005e2f38      1e80           move.b d0, (a7)
          0x005e2f3a      4eb90040452a   jsr p_Assert
          0x005e2f40      544f           addq.w 0x2, a7
      < 0x005e2f42      6004           bra.b 0x5e2f48
      > 0x005e2f44      422e0010       clr.b 0x10(a6)
      > 0x005e2f48      486efff8       pea.l -0x8(a6)
           0x005e2f4c      4eb90060470a   jsr F9_FILERDWRT.f_close
           0x005e2f52      584f           addq.w 0x4, a7
           0x005e2f54      486efffc       pea.l -0x4(a6)
           0x005e2f58      4eb90060470a   jsr F9_FILERDWRT.f_close
           0x005e2f5e      584f           addq.w 0x4, a7
           0x005e2f60      4cdf1fbf       movem.l (a7)+, d0-d5/d7/a0-a4
           0x005e2f64      4e5e           unlk a6
           0x005e2f66      4e75           rts
            ; CALL XREF from SEARCHER @ +0x52f8
 52: SEARCHER.get_mark_char ();
           0x005e2f68      4e56fff4       link.w a6, 0xfff4
           0x005e2f6c      bfd5           cmpa.l (a5), a7
       < 0x005e2f6e      6206           bhi.b 0x5e2f76
          0x005e2f70      44fc0002       move.w 0x2, ccr
          0x005e2f74      4e76           trapv
       > 0x005e2f76      defc000c       adda.w 0xc, a7
           0x005e2f7a      48e78080       movem.l d0/a0, -(a7)
           0x005e2f7e      41ee000a       lea.l 0xa(a6), a0
           0x005e2f82      102e0008       move.b 0x8(a6), d0
           0x005e2f86      4880           ext.w d0
           0x005e2f88      5340           subq.w 0x1, d0
           0x005e2f8a      0c40000b       cmpi.w 0xb, d0
       < 0x005e2f8e      6302           bls.b 0x5e2f92
          0x005e2f90      4e4e           trap 0xe
       > 0x005e2f92      d040           add.w d0, d0
           0x005e2f94      303b0006       move.w 0x5e2f9c(pc, d0.w), d0
           0x005e2f98      4efb0002       jmp 0x5e2f9c(pc, d0.w)
            0x005e2f9c      00180028       ori.b 0x28, (a0)+
            0x005e2fa0      00200030       ori.b 0x30, -(a0)
            0x005e2fa4      0038fff40040   ori.b 0xf4, 0x40.w
            0x005e2faa      0042004a       ori.w 0x4a, d2
            0x005e2fae      0052005a       ori.w 0x5a, (a2)
            0x005e2fb2      006220bc       ori.w 0x20bc, -(a2)
            0x005e2fb6      00000005       ori.b 0x5, d0
        < 0x005e2fba      6048           bra.b 0x5e3004
           0x005e2fbc      20bc00000001   move.l 0x1, (a0)
       < 0x005e2fc2      6040           bra.b 0x5e3004
          0x005e2fc4      20bc00000002   move.l 0x2, (a0)
      < 0x005e2fca      6038           bra.b 0x5e3004
         0x005e2fcc      20bc00000004   move.l 0x4, (a0)
     < 0x005e2fd2      6030           bra.b 0x5e3004
        0x005e2fd4      20bc00000003   move.l 0x3, (a0)
    < 0x005e2fda      6028           bra.b 0x5e3004
   < 0x005e2fdc      6026           bra.b 0x5e3004
      0x005e2fde      20bc00000006   move.l 0x6, (a0)
  < 0x005e2fe4      601e           bra.b 0x5e3004
     0x005e2fe6      20bc00000007   move.l 0x7, (a0)
  < 0x005e2fec      6016           bra.b 0x5e3004
     0x005e2fee      20bc00000008   move.l 0x8, (a0)
  < 0x005e2ff4      600e           bra.b 0x5e3004
     0x005e2ff6      20bc00000009   move.l 0x9, (a0)
  < 0x005e2ffc      6006           bra.b 0x5e3004
     0x005e2ffe      20bc0000000a   move.l 0xa, (a0)
  > 0x005e3004      4cdf0101       movem.l (a7)+, d0/a0
            0x005e3008      4e5e           unlk a6
            0x005e300a      4e75           rts
            ; CALL XREFS from SEARCHER.build_found_map @ 0x5e353a, 0x5e362c
            ; CALL XREF from SEARCHER.search_task @ 0x5e39da
            ; CALL XREF from SEARCHER.sea_indexed_kee @ 0x5e41a6
 70: SEARCHER.build_map ();
           ; var int32_t var_8h @ a7+0x8
           0x005e300c      4e56fc8c       link.w a6, 0xfc8c
           0x005e3010      bfd5           cmpa.l (a5), a7
       < 0x005e3012      6206           bhi.b 0x5e301a
          0x005e3014      44fc0002       move.w 0x2, ccr
          0x005e3018      4e76           trapv
       > 0x005e301a      defc0268       adda.w 0x268, a7
           0x005e301e      48e7fff8       movem.l d0-d7/a0-a4, -(a7)
           0x005e3022      47eefef4       lea.l -0x10c(a6), a3
           0x005e3026      49ee002c       lea.l 0x2c(a6), a4
           0x005e302a      7610           moveq 0x10, d3
           0x005e302c      7809           moveq 0x9, d4
           0x005e302e      7e00           moveq 0x0, d7
           0x005e3030      7c01           moveq 0x1, d6
           0x005e3032      422efff4       clr.b -0xc(a6)
           0x005e3036      102e002a       move.b 0x2a(a6), d0
           0x005e303a      4880           ext.w d0
           0x005e303c      3200           move.w d0, d1
           0x005e303e      5341           subq.w 0x1, d1
           0x005e3040      0c41000b       cmpi.w 0xb, d1
       < 0x005e3044      62000206       bhi.w 0x5e324c
          0x005e3048      d241           add.w d1, d1
          0x005e304a      323b1006       move.w 0x5e3052(pc, d1.w), d1
          0x005e304e      4efb1002       jmp 0x5e3052(pc, d1.w)
           0x005e3052      00180050       ori.b 0x50, (a0)+
           0x005e3056      0034006c00ba   ori.b 0x6c, -0x46(a4, d0.w)
           0x005e305c      01fa00f6       
           0x005e305d      fa00f600       fmovem 0x0, d0
           0x005e3061      fa011601       fint fp5, fp4
           0x005e3065      1601           move.b d1, d3
           0x005e3067      1601           move.b d1, d3
           0x005e3069      1620           move.b -(a0), d3
           0x005e306b      54b1e8ff       addq.l 0x2, -0x1(a1, a6.l)
           0x005e306f      fc67024e       fsne.b -(a7)
           0x005e3073      4d22           chk.l -(a2), d6
           0x005e3075      4b41e800       
           0x005e3076      41e80075       lea.l 0x75(a0), a0
           0x005e307a      725a           moveq 0x5a, d1
       > 0x005e307c      12d8           move.b (a0)+, (a1)+
       < 0x005e307e      51c9fffc       dbra d1, 0x5e307c
       < 0x005e3082      60000230       bra.w 0x5e32b4
          0x005e3086      2054           movea.l (a4), a0
          0x005e3088      b1e8fffc       cmpa.l -0x4(a0), a0
      < 0x005e308c      6702           beq.b 0x5e3090
         0x005e308e      4e4d           trap 0xd
      > 0x005e3090      224b           movea.l a3, a1
          0x005e3092      41e801e1       lea.l 0x1e1(a0), a0
          0x005e3096      725a           moveq 0x5a, d1
      > 0x005e3098      12d8           move.b (a0)+, (a1)+
      < 0x005e309a      51c9fffc       dbra d1, 0x5e3098
      < 0x005e309e      60000214       bra.w 0x5e32b4
         0x005e30a2      2054           movea.l (a4), a0
         0x005e30a4      b1e8fffc       cmpa.l -0x4(a0), a0
     < 0x005e30a8      6702           beq.b 0x5e30ac
        0x005e30aa      4e4d           trap 0xd
     > 0x005e30ac      224b           movea.l a3, a1
         0x005e30ae      41e8012b       lea.l 0x12b(a0), a0
         0x005e30b2      725a           moveq 0x5a, d1
     > 0x005e30b4      12d8           move.b (a0)+, (a1)+
     < 0x005e30b6      51c9fffc       dbra d1, 0x5e30b4
     < 0x005e30ba      600001f8       bra.w 0x5e32b4
        0x005e30be      2054           movea.l (a4), a0
        0x005e30c0      b1e8fffc       cmpa.l -0x4(a0), a0
    < 0x005e30c4      6702           beq.b 0x5e30c8
       0x005e30c6      4e4d           trap 0xd
    > 0x005e30c8      9efc0020       suba.w 0x20, a7
        0x005e30cc      224f           movea.l a7, a1
        0x005e30ce      45e802f2       lea.l 0x2f2(a0), a2
        0x005e30d2      721f           moveq 0x1f, d1
    > 0x005e30d4      12da           move.b (a2)+, (a1)+
    < 0x005e30d6      51c9fffc       dbra d1, 0x5e30d4
        0x005e30da      4853           pea.l (a3)
        0x005e30dc      4ebaec70       jsr SEARCHER.get_extns(pc)
        0x005e30e0      defc0024       adda.w 0x24, a7
        0x005e30e4      4a280066       tst.b 0x66(a0)
    < 0x005e30e8      671c           beq.b 0x5e3106
       0x005e30ea      4a280067       tst.b 0x67(a0)
   < 0x005e30ee      6716           beq.b 0x5e3106
      0x005e30f0      4a280068       tst.b 0x68(a0)
  < 0x005e30f4      6710           beq.b 0x5e3106
     0x005e30f6      4a28006a       tst.b 0x6a(a0)
  < 0x005e30fa      670a           beq.b 0x5e3106
     0x005e30fc      4a28006c       tst.b 0x6c(a0)
  < 0x005e3100      6704           beq.b 0x5e3106
     0x005e3102      7c00           moveq 0x0, d6
  < 0x005e3104      6002           bra.b 0x5e3108
  > 0x005e3106      7c01           moveq 0x1, d6
  < 0x005e3108      600001aa       bra.w 0x5e32b4
       0x005e310c      2054           movea.l (a4), a0
       0x005e310e      b1e8fffc       cmpa.l -0x4(a0), a0
   < 0x005e3112      6702           beq.b 0x5e3116
      0x005e3114      4e4d           trap 0xd
   > 0x005e3116      9ec3           suba.w d3, a7
       0x005e3118      224f           movea.l a7, a1
       0x005e311a      41e80316       lea.l 0x316(a0), a0
       0x005e311e      720f           moveq 0xf, d1
   > 0x005e3120      12d8           move.b (a0)+, (a1)+
   < 0x005e3122      51c9fffc       dbra d1, 0x5e3120
       0x005e3126      4853           pea.l (a3)
       0x005e3128      486efff4       pea.l -0xc(a6)
       0x005e312c      4ebae9ca       jsr SEARCHER.get_times(pc)
       0x005e3130      defc0018       adda.w 0x18, a7
       0x005e3134      4a2efff4       tst.b -0xc(a6)
   < 0x005e3138      6708           beq.b 0x5e3142
      0x005e313a      7e00           moveq 0x0, d7
      0x005e313c      16bab888       move.b 0x5de9c6(pc), (a3)
  < 0x005e3140      6002           bra.b 0x5e3144
  > 0x005e3142      7e01           moveq 0x1, d7
  < 0x005e3144      6000016e       bra.w 0x5e32b4
  < 0x005e3148      6000016a       bra.w 0x5e32b4
     0x005e314c      2054           movea.l (a4), a0
     0x005e314e      b1e8fffc       cmpa.l -0x4(a0), a0
  < 0x005e3152      6702           beq.b 0x5e3156
     0x005e3154      4e4d           trap 0xd
  > 0x005e3156      224b           movea.l a3, a1
     0x005e3158      41e80297       lea.l 0x297(a0), a0
     0x005e315c      725a           moveq 0x5a, d1
  > 0x005e315e      12d8           move.b (a0)+, (a1)+
  < 0x005e3160      51c9fffc       dbra d1, 0x5e315e
  < 0x005e3164      6000014e       bra.w 0x5e32b4
     0x005e3168      3200           move.w d0, d1
     0x005e316a      9244           sub.w d4, d1
     0x005e316c      43bc0003       chk.w 0x3, d1
     0x005e3170      41f900841a5a   lea.l 0x841a5a, a0
     0x005e3176      41f01000       lea.l (a0, d1.w), a0
     0x005e317a      1428044a       move.b 0x44a(a0), d2
     0x005e317e      b404           cmp.b d4, d2
  < 0x005e3180      6d0c           blt.b 0x5e318e
     0x005e3182      b404           cmp.b d4, d2
  < 0x005e3184      6770           beq.b 0x5e31f6
     0x005e3186      0c02000b       cmpi.b 0xb, d2
  < 0x005e318a      6738           beq.b 0x5e31c4
     0x005e318c      4e4e           trap 0xe
  > 0x005e318e      4a02           tst.b d2
  < 0x005e3190      6708           beq.b 0x5e319a
     0x005e3192      0c020002       cmpi.b 0x2, d2
  < 0x005e3196      670a           beq.b 0x5e31a2
     0x005e3198      4e4e           trap 0xe
  > 0x005e319a      16bab82b       move.b 0x5de9c7(pc), (a3)
  < 0x005e319e      60000084       bra.w 0x5e3224
  > 0x005e31a2      745c           moveq 0x5c, d2
     0x005e31a4      c5c1           muls.w d1, d2
     0x005e31a6      2254           movea.l (a4), a1
     0x005e31a8      b3e9fffc       cmpa.l -0x4(a1), a1
  < 0x005e31ac      6702           beq.b 0x5e31b0
     0x005e31ae      4e4d           trap 0xd
  > 0x005e31b0      43f12000       lea.l (a1, d2.w), a1
     0x005e31b4      244b           movea.l a3, a2
     0x005e31b6      43e9032e       lea.l 0x32e(a1), a1
     0x005e31ba      745a           moveq 0x5a, d2
  > 0x005e31bc      14d9           move.b (a1)+, (a2)+
  < 0x005e31be      51cafffc       dbra d2, 0x5e31bc
  < 0x005e31c2      6060           bra.b 0x5e3224
  > 0x005e31c4      745c           moveq 0x5c, d2
     0x005e31c6      c5c1           muls.w d1, d2
     0x005e31c8      2254           movea.l (a4), a1
     0x005e31ca      b3e9fffc       cmpa.l -0x4(a1), a1
  < 0x005e31ce      6702           beq.b 0x5e31d2
     0x005e31d0      4e4d           trap 0xd
  > 0x005e31d2      43f12000       lea.l (a1, d2.w), a1
     0x005e31d6      9ec3           suba.w d3, a7
     0x005e31d8      244f           movea.l a7, a2
     0x005e31da      43e9032e       lea.l 0x32e(a1), a1
     0x005e31de      740f           moveq 0xf, d2
  > 0x005e31e0      14d9           move.b (a1)+, (a2)+
  < 0x005e31e2      51cafffc       dbra d2, 0x5e31e0
     0x005e31e6      4853           pea.l (a3)
     0x005e31e8      486efff4       pea.l -0xc(a6)
     0x005e31ec      4ebae90a       jsr SEARCHER.get_times(pc)
     0x005e31f0      defc0018       adda.w 0x18, a7
  < 0x005e31f4      602e           bra.b 0x5e3224
  > 0x005e31f6      745c           moveq 0x5c, d2
     0x005e31f8      c5c1           muls.w d1, d2
     0x005e31fa      2254           movea.l (a4), a1
     0x005e31fc      b3e9fffc       cmpa.l -0x4(a1), a1
  < 0x005e3200      6702           beq.b 0x5e3204
     0x005e3202      4e4d           trap 0xd
  > 0x005e3204      43f12000       lea.l (a1, d2.w), a1
     0x005e3208      514f           subq.w 0x8, a7
     0x005e320a      244f           movea.l a7, a2
     0x005e320c      43e9032e       lea.l 0x32e(a1), a1
     0x005e3210      7407           moveq 0x7, d2
  > 0x005e3212      14d9           move.b (a1)+, (a2)+
  < 0x005e3214      51cafffc       dbra d2, 0x5e3212
     0x005e3218      4853           pea.l (a3)
     0x005e321a      486efff4       pea.l -0xc(a6)
     0x005e321e      4ebaea34       jsr SEARCHER.get_nums(pc)
     0x005e3222      dec3           adda.w d3, a7
  > 0x005e3224      4a2efff4       tst.b -0xc(a6)
  < 0x005e3228      6708           beq.b 0x5e3232
     0x005e322a      7e00           moveq 0x0, d7
     0x005e322c      16bab79a       move.b 0x5de9c8(pc), (a3)
  < 0x005e3230      6018           bra.b 0x5e324a
  > 0x005e3232      7e00           moveq 0x0, d7
     0x005e3234      1228044a       move.b 0x44a(a0), d1
     0x005e3238      4881           ext.w d1
     0x005e323a      43fab78e       lea.l 0x5de9ca(pc), a1
     0x005e323e      3401           move.w d1, d2
     0x005e3240      e64a           lsr.w 0x3, d2
     0x005e3242      03312000       btst.l d1, (a1, d2.w)
  < 0x005e3246      6702           beq.b 0x5e324a
     0x005e3248      5207           addq.b 0x1, d7
  > 0x005e324a      6068           bra.b 0x5e32b4
  > 0x005e324c      9efc0100       suba.w 0x100, a7
      0x005e3250      1f00           move.b d0, -(a7)
      0x005e3252      4ebadcfc       jsr SEARCHER.field_str(pc)
      0x005e3256      544f           addq.w 0x2, a7
      0x005e3258      487ab773       pea.l 0x5de9cd(pc)
      0x005e325c      4878001a       pea.l 0x1a
      0x005e3260      2f17           move.l (a7), -(a7)
      0x005e3262      4eb9004047ea   jsr p_wts_o
      0x005e3268      defc000c       adda.w 0xc, a7
      0x005e326c      486f0001       pea.l 0x1(a7)
      0x005e3270      42a7           clr.l -(a7)
      0x005e3272      1f6f00080003   move.b 0x8(a7), 0x3(a7)
      0x005e3278      2f17           move.l (a7), -(a7)
      0x005e327a      4eb9004047ea   jsr p_wts_o
      0x005e3280      defc010a       adda.w 0x10a, a7
      0x005e3284      1ebc0020       move.b 0x20, (a7)
      0x005e3288      48780001       pea.l 0x1
      0x005e328c      4eb9004048b4   jsr p_wtc_o
      0x005e3292      5c4f           addq.w 0x6, a7
      0x005e3294      48c0           ext.l d0
      0x005e3296      2f00           move.l d0, -(a7)
      0x005e3298      48780000       pea.l 0x0
      0x005e329c      4eb9004070e4   jsr p_wti_o
      0x005e32a2      504f           addq.w 0x8, a7
      0x005e32a4      4eb900404946   jsr p_wtln_o
      0x005e32aa      4227           clr.b -(a7)
      0x005e32ac      4eb90040452a   jsr p_Assert
      0x005e32b2      544f           addq.w 0x2, a7
  > 0x005e32b4      0c000007       cmpi.b 0x7, d0
        < 0x005e32b8      675a           beq.b 0x5e3314
           0x005e32ba      9efc0102       suba.w 0x102, a7
           0x005e32be      204f           movea.l a7, a0
           0x005e32c0      224b           movea.l a3, a1
           0x005e32c2      723f           moveq 0x3f, d1
       > 0x005e32c4      20d9           move.l (a1)+, (a0)+
       < 0x005e32c6      51c9fffc       dbra d1, 0x5e32c4
           0x005e32ca      486e0026       pea.l 0x26(a6)
           0x005e32ce      2f2e0022       move.l 0x22(a6), -(a7)
           0x005e32d2      2f2e001e       move.l 0x1e(a6), -(a7)
           0x005e32d6      3f2e001c       move.w 0x1c(a6), -(a7)
           0x005e32da      2f2e0018       move.l 0x18(a6), -(a7)
           0x005e32de      2f2e0014       move.l 0x14(a6), -(a7)
           0x005e32e2      3f2e0012       move.w 0x12(a6), -(a7)
           0x005e32e6      2f2e000e       move.l 0xe(a6), -(a7)
           0x005e32ea      2f2e000a       move.l 0xa(a6), -(a7)
           0x005e32ee      3f2e0008       move.w 0x8(a6), -(a7)
           0x005e32f2      594f           subq.w 0x4, a7
           0x005e32f4      1f00           move.b d0, -(a7)
           0x005e32f6      4ebafc70       jsr SEARCHER.get_mark_char(pc)
           0x005e32fa      1e86           move.b d6, (a7)
           0x005e32fc      1f07           move.b d7, -(a7)
           0x005e32fe      9efc0100       suba.w 0x100, a7
           0x005e3302      1f00           move.b d0, -(a7)
           0x005e3304      4ebadc4a       jsr SEARCHER.field_str(pc)
           0x005e3308      544f           addq.w 0x2, a7
           0x005e330a      4ebaf26a       jsr SEARCHER.build_str_map(pc)
           0x005e330e      defc022a       adda.w 0x22a, a7
       < 0x005e3312      602c           bra.b 0x5e3340
       > 0x005e3314      554f           subq.w 0x2, a7
           0x005e3316      2f2e0026       move.l 0x26(a6), -(a7)
           0x005e331a      2f14           move.l (a4), -(a7)
           0x005e331c      2f2e0022       move.l 0x22(a6), -(a7)
           0x005e3320      2f2e001e       move.l 0x1e(a6), -(a7)
           0x005e3324      3f2e001c       move.w 0x1c(a6), -(a7)
           0x005e3328      1f3c0001       move.b 0x1, -(a7)
           0x005e332c      9efc0100       suba.w 0x100, a7
           0x005e3330      1f00           move.b d0, -(a7)
           0x005e3332      4ebadc1c       jsr SEARCHER.field_str(pc)
           0x005e3336      544f           addq.w 0x2, a7
           0x005e3338      4ebaefc0       jsr SEARCHER.build_num_map(pc)
           0x005e333c      defc0114       adda.w 0x114, a7
           ; CODE XREF from SEARCHER @ +0x5314
       > 0x005e3340      121f           move.b (a7)+, d1
            0x005e3342      4881           ext.w d1
            0x005e3344      43bc0001       chk.w 0x1, d1
            0x005e3348      1a01           move.b d1, d5
            0x005e334a      4885           ext.w d5
            0x005e334c      4bbc0001       chk.w 0x1, d5
            0x005e3350      1d450030       move.b d5, 0x30(a6)
            0x005e3354      4cdf1fff       movem.l (a7)+, d0-d7/a0-a4
            0x005e3358      4e5e           unlk a6
            0x005e335a      4e75           rts
            ; CALL XREFS from SEARCHER.build_found_map @ 0x5e364c, 0x5e3698, 0x5e36ca
 190: SEARCHER.field_error ();
           ; var int32_t var_8h @ a7+0x8
           0x005e335c      4e56fee8       link.w a6, 0xfee8
           0x005e3360      bfd5           cmpa.l (a5), a7
       < 0x005e3362      6206           bhi.b 0x5e336a
          0x005e3364      44fc0002       move.w 0x2, ccr
          0x005e3368      4e76           trapv
       > 0x005e336a      defc0118       adda.w 0x118, a7
           0x005e336e      48e78080       movem.l d0/a0, -(a7)
           0x005e3372      41f9004047ea   lea.l p_wts_o, a0
           0x005e3378      9efc0100       suba.w 0x100, a7
           0x005e337c      102c009c       move.b 0x9c(a4), d0
           0x005e3380      4880           ext.w d0
           0x005e3382      41bc000f       chk.w 0xf, d0
           0x005e3386      1f00           move.b d0, -(a7)
           0x005e3388      4ebadbc6       jsr SEARCHER.field_str(pc)
           0x005e338c      544f           addq.w 0x2, a7
           0x005e338e      487ab694       pea.l 0x5dea24(pc)
           0x005e3392      48780006       pea.l 0x6
           0x005e3396      2f17           move.l (a7), -(a7)
           0x005e3398      4e90           jsr (a0)                    ; fcn.00000009
           0x005e339a      defc000c       adda.w 0xc, a7
           0x005e339e      486e0009       pea.l 0x9(a6)
           0x005e33a2      42a7           clr.l -(a7)
           0x005e33a4      1f6e00080003   move.b 0x8(a6), 0x3(a7)
           0x005e33aa      2f17           move.l (a7), -(a7)
           0x005e33ac      4e90           jsr (a0)                    ; fcn.00000009
           0x005e33ae      defc000a       adda.w 0xa, a7
           0x005e33b2      1ebc0020       move.b 0x20, (a7)
           0x005e33b6      48780001       pea.l 0x1
           0x005e33ba      4eb9004048b4   jsr p_wtc_o
           0x005e33c0      5c4f           addq.w 0x6, a7
           0x005e33c2      486f0001       pea.l 0x1(a7)
           0x005e33c6      42a7           clr.l -(a7)
           0x005e33c8      1f6f00080003   move.b 0x8(a7), 0x3(a7)
           0x005e33ce      2f17           move.l (a7), -(a7)
           0x005e33d0      4e90           jsr (a0)                    ; fcn.00000009
           0x005e33d2      defc010c       adda.w 0x10c, a7
           0x005e33d6      4eb900404946   jsr p_wtln_o
           0x005e33dc      9efc0100       suba.w 0x100, a7
           0x005e33e0      4eb900408ec0   jsr p_err_string
           0x005e33e6      486f0001       pea.l 0x1(a7)
           0x005e33ea      42a7           clr.l -(a7)
           0x005e33ec      1f6f00080003   move.b 0x8(a7), 0x3(a7)
           0x005e33f2      2f17           move.l (a7), -(a7)
           0x005e33f4      4e90           jsr (a0)                    ; fcn.00000009
           0x005e33f6      defc010c       adda.w 0x10c, a7
           0x005e33fa      4eb900404946   jsr p_wtln_o
           0x005e3400      4eb900404188   jsr p_Unlink
           0x005e3406      486c004a       pea.l 0x4a(a4)
           0x005e340a      4eb900404468   jsr fcn.00404468
           0x005e3410      584f           addq.w 0x4, a7
           0x005e3412      4cdf0101       movem.l (a7)+, d0/a0
           0x005e3416      4e5e           unlk a6
           0x005e3418      4e75           rts
            ; CALL XREFS from SEARCHER.build_found_map @ 0x5e355a, 0x5e35a4, 0x5e372c
 122: fcn.005e341a ();
           ; var int32_t var_8h @ a7+0x8
           0x005e341a      4e56fee8       link.w a6, 0xfee8
           0x005e341e      bfd5           cmpa.l (a5), a7
       < 0x005e3420      6206           bhi.b 0x5e3428
          0x005e3422      44fc0002       move.w 0x2, ccr
          0x005e3426      4e76           trapv
       > 0x005e3428      defc0118       adda.w 0x118, a7
           0x005e342c      48e78080       movem.l d0/a0, -(a7)
           0x005e3430      41f9004047ea   lea.l p_wts_o, a0
           0x005e3436      700c           moveq 0xc, d0
           0x005e3438      487ab5f1       pea.l 0x5dea2b(pc)
           0x005e343c      48780006       pea.l 0x6
           0x005e3440      2f17           move.l (a7), -(a7)
           0x005e3442      4e90           jsr (a0)                    ; fcn.00000009
           0x005e3444      dec0           adda.w d0, a7
           0x005e3446      486e0009       pea.l 0x9(a6)
           0x005e344a      42a7           clr.l -(a7)
           0x005e344c      1f6e00080003   move.b 0x8(a6), 0x3(a7)
           0x005e3452      2f17           move.l (a7), -(a7)
           0x005e3454      4e90           jsr (a0)                    ; fcn.00000009
           0x005e3456      dec0           adda.w d0, a7
           0x005e3458      4eb900404946   jsr p_wtln_o
           0x005e345e      9efc0100       suba.w 0x100, a7
           0x005e3462      4eb900408ec0   jsr p_err_string
           0x005e3468      486f0001       pea.l 0x1(a7)
           0x005e346c      42a7           clr.l -(a7)
           0x005e346e      1f6f00080003   move.b 0x8(a7), 0x3(a7)
           0x005e3474      2f17           move.l (a7), -(a7)
           0x005e3476      4e90           jsr (a0)                    ; fcn.00000009
           0x005e3478      defc010c       adda.w 0x10c, a7
           0x005e347c      4eb900404946   jsr p_wtln_o
           0x005e3482      4854           pea.l (a4)
           0x005e3484      4eb900404468   jsr fcn.00404468
           0x005e348a      584f           addq.w 0x4, a7
           0x005e348c      4cdf0101       movem.l (a7)+, d0/a0
           0x005e3490      4e5e           unlk a6
           0x005e3492      4e75           rts
            ; CALL XREF from SEARCHER.sea_find_file @ 0x5e5ea8
 716: SEARCHER.build_found_map ();
           0x005e3494      4e56fef2       link.w a6, 0xfef2
           0x005e3498      bfd5           cmpa.l (a5), a7
       < 0x005e349a      6206           bhi.b 0x5e34a2
          0x005e349c      44fc0002       move.w 0x2, ccr
          0x005e34a0      4e76           trapv
       > 0x005e34a2      defc0070       adda.w 0x70, a7
           0x005e34a6      48e7fff8       movem.l d0-d7/a0-a4, -(a7)
           0x005e34aa      7412           moveq 0x12, d2
           0x005e34ac      760a           moveq 0xa, d3
           0x005e34ae      7801           moveq 0x1, d4
           0x005e34b0      7a10           moveq 0x10, d5
           0x005e34b2      7c0e           moveq 0xe, d6
           0x005e34b4      7e04           moveq 0x4, d7
           0x005e34b6      206e0010       movea.l 0x10(a6), a0
           0x005e34ba      b1e8fffc       cmpa.l -0x4(a0), a0
       < 0x005e34be      6702           beq.b 0x5e34c2
          0x005e34c0      4e4d           trap 0xd
       > 0x005e34c2      4227           clr.b -(a7)
           0x005e34c4      4aa80004       tst.l 0x4(a0)
       < 0x005e34c8      6702           beq.b 0x5e34cc
          0x005e34ca      5217           addq.b 0x1, (a7)
       > 0x005e34cc      4eb90040452a   jsr p_Assert
           0x005e34d2      544f           addq.w 0x2, a7
           0x005e34d4      2f2e0010       move.l 0x10(a6), -(a7)
           0x005e34d8      2f2e0008       move.l 0x8(a6), -(a7)
           0x005e34dc      4ebad880       jsr SEARCHER.check_maps(pc)
           0x005e34e0      504f           addq.w 0x8, a7
           0x005e34e2      2d44fffa       move.l d4, -0x6(a6)
           0x005e34e6      2d44fff6       move.l d4, -0xa(a6)
           0x005e34ea      554f           subq.w 0x2, a7
           0x005e34ec      486eff62       pea.l -0x9e(a6)
           0x005e34f0      4eb900404434   jsr fcn.00404434
           0x005e34f6      584f           addq.w 0x4, a7
           0x005e34f8      4a1f           tst.b (a7)+
       < 0x005e34fa      6700023c       beq.w 0x5e3738
          0x005e34fe      554f           subq.w 0x2, a7
          0x005e3500      2f2e0010       move.l 0x10(a6), -(a7)
          0x005e3504      1f07           move.b d7, -(a7)
          0x005e3506      2f2e000c       move.l 0xc(a6), -(a7)
          0x005e350a      9ec3           suba.w d3, a7
          0x005e350c      224f           movea.l a7, a1
          0x005e350e      45e804d6       lea.l 0x4d6(a0), a2
          0x005e3512      7009           moveq 0x9, d0
      > 0x005e3514      12da           move.b (a2)+, (a1)+
      < 0x005e3516      51c8fffc       dbra d0, 0x5e3514
          0x005e351a      9ec3           suba.w d3, a7
          0x005e351c      224f           movea.l a7, a1
          0x005e351e      45e804ea       lea.l 0x4ea(a0), a2
          0x005e3522      7009           moveq 0x9, d0
      > 0x005e3524      12da           move.b (a2)+, (a1)+
      < 0x005e3526      51c8fffc       dbra d0, 0x5e3524
          0x005e352a      9ec3           suba.w d3, a7
          0x005e352c      224f           movea.l a7, a1
          0x005e352e      45e804f4       lea.l 0x4f4(a0), a2
          0x005e3532      7009           moveq 0x9, d0
      > 0x005e3534      12da           move.b (a2)+, (a1)+
      < 0x005e3536      51c8fffc       dbra d0, 0x5e3534
          0x005e353a      4ebafad0       jsr SEARCHER.build_map(pc)
          0x005e353e      defc0028       adda.w 0x28, a7
          0x005e3542      4a1f           tst.b (a7)+
      < 0x005e3544      661a           bne.b 0x5e3560
         0x005e3546      9ec2           suba.w d2, a7
         0x005e3548      224f           movea.l a7, a1
         0x005e354a      45fab4fd       lea.l 0x5dea49(pc), a2
         0x005e354e      700f           moveq 0xf, d0
     > 0x005e3550      12da           move.b (a2)+, (a1)+
     < 0x005e3552      51c8fffc       dbra d0, 0x5e3550
         0x005e3556      49eeff62       lea.l -0x9e(a6), a4
         0x005e355a      4ebafebe       jsr fcn.005e341a(pc)
         0x005e355e      dec2           adda.w d2, a7
      > 0x005e3560      554f           subq.w 0x2, a7
          0x005e3562      226e0010       movea.l 0x10(a6), a1
          0x005e3566      b3e9fffc       cmpa.l -0x4(a1), a1
      < 0x005e356a      6702           beq.b 0x5e356e
         0x005e356c      4e4d           trap 0xd
      > 0x005e356e      9ec3           suba.w d3, a7
          0x005e3570      244f           movea.l a7, a2
          0x005e3572      43e904d6       lea.l 0x4d6(a1), a1
          0x005e3576      7009           moveq 0x9, d0
      > 0x005e3578      14d9           move.b (a1)+, (a2)+
      < 0x005e357a      51c8fffc       dbra d0, 0x5e3578
          0x005e357e      1f04           move.b d4, -(a7)
          0x005e3580      486efff6       pea.l -0xa(a6)
          0x005e3584      4eb90060c190   jsr F14_MAP.f_op_map
          0x005e358a      dec5           adda.w d5, a7
          0x005e358c      4a1f           tst.b (a7)+
      < 0x005e358e      661a           bne.b 0x5e35aa
         0x005e3590      9ec2           suba.w d2, a7
         0x005e3592      224f           movea.l a7, a1
         0x005e3594      45fab4c3       lea.l 0x5dea59(pc), a2
         0x005e3598      700d           moveq 0xd, d0
     > 0x005e359a      12da           move.b (a2)+, (a1)+
     < 0x005e359c      51c8fffc       dbra d0, 0x5e359a
         0x005e35a0      49eeff62       lea.l -0x9e(a6), a4
         0x005e35a4      4ebafe74       jsr fcn.005e341a(pc)
         0x005e35a8      dec2           adda.w d2, a7
      > 0x005e35aa      7000           moveq 0x0, d0
      > 0x005e35ac      1d40fffe       move.b d0, -0x2(a6)
         0x005e35b0      b007           cmp.b d7, d0
     < 0x005e35b2      67000128       beq.w 0x5e36dc
        0x005e35b6      554f           subq.w 0x2, a7
        0x005e35b8      1f00           move.b d0, -(a7)
        0x005e35ba      4ebac356       jsr SEARCHER.field_in_use(pc)
        0x005e35be      544f           addq.w 0x2, a7
        0x005e35c0      4a1f           tst.b (a7)+
    < 0x005e35c2      67000118       beq.w 0x5e36dc
       0x005e35c6      226e0010       movea.l 0x10(a6), a1
       0x005e35ca      b3e9fffc       cmpa.l -0x4(a1), a1
   < 0x005e35ce      6702           beq.b 0x5e35d2
      0x005e35d0      4e4d           trap 0xd
   > 0x005e35d2      4880           ext.w d0
       0x005e35d4      4a310065       tst.b 0x65(a1, d0.w)
   < 0x005e35d8      66000102       bne.w 0x5e36dc
      0x005e35dc      554f           subq.w 0x2, a7
      0x005e35de      486effac       pea.l -0x54(a6)
      0x005e35e2      4eb900404434   jsr fcn.00404434
      0x005e35e8      584f           addq.w 0x4, a7
      0x005e35ea      4a1f           tst.b (a7)+
  < 0x005e35ec      670000e2       beq.w 0x5e36d0
     0x005e35f0      554f           subq.w 0x2, a7
     0x005e35f2      2f2e0010       move.l 0x10(a6), -(a7)
     0x005e35f6      1f00           move.b d0, -(a7)
     0x005e35f8      2f2e000c       move.l 0xc(a6), -(a7)
     0x005e35fc      9ec3           suba.w d3, a7
     0x005e35fe      244f           movea.l a7, a2
     0x005e3600      47e904e0       lea.l 0x4e0(a1), a3
     0x005e3604      7209           moveq 0x9, d1
 > 0x005e3606      14db           move.b (a3)+, (a2)+
 < 0x005e3608      51c9fffc       dbra d1, 0x5e3606
     0x005e360c      9ec3           suba.w d3, a7
     0x005e360e      244f           movea.l a7, a2
     0x005e3610      47e904ea       lea.l 0x4ea(a1), a3
     0x005e3614      7209           moveq 0x9, d1
 > 0x005e3616      14db           move.b (a3)+, (a2)+
 < 0x005e3618      51c9fffc       dbra d1, 0x5e3616
     0x005e361c      9ec3           suba.w d3, a7
     0x005e361e      244f           movea.l a7, a2
     0x005e3620      47e904f4       lea.l 0x4f4(a1), a3
     0x005e3624      7209           moveq 0x9, d1
 > 0x005e3626      14db           move.b (a3)+, (a2)+
 < 0x005e3628      51c9fffc       dbra d1, 0x5e3626
     0x005e362c      4ebaf9de       jsr SEARCHER.build_map(pc)
     0x005e3630      defc0028       adda.w 0x28, a7
     0x005e3634      4a1f           tst.b (a7)+
 < 0x005e3636      661a           bne.b 0x5e3652
    0x005e3638      9ec2           suba.w d2, a7
    0x005e363a      244f           movea.l a7, a2
    0x005e363c      47fab429       lea.l 0x5dea67(pc), a3
    0x005e3640      720c           moveq 0xc, d1
 > 0x005e3642      14db           move.b (a3)+, (a2)+
 < 0x005e3644      51c9fffc       dbra d1, 0x5e3642
    0x005e3648      49eeff62       lea.l -0x9e(a6), a4
    0x005e364c      4ebafd0e       jsr SEARCHER.field_error(pc)
    0x005e3650      dec2           adda.w d2, a7
 > 0x005e3652      554f           subq.w 0x2, a7
     0x005e3654      246e0010       movea.l 0x10(a6), a2
     0x005e3658      b5eafffc       cmpa.l -0x4(a2), a2
 < 0x005e365c      6702           beq.b 0x5e3660
    0x005e365e      4e4d           trap 0xd
 > 0x005e3660      9ec3           suba.w d3, a7
     0x005e3662      264f           movea.l a7, a3
     0x005e3664      45ea04e0       lea.l 0x4e0(a2), a2
     0x005e3668      7209           moveq 0x9, d1
 > 0x005e366a      16da           move.b (a2)+, (a3)+
 < 0x005e366c      51c9fffc       dbra d1, 0x5e366a
     0x005e3670      4227           clr.b -(a7)
     0x005e3672      486efffa       pea.l -0x6(a6)
     0x005e3676      4eb90060c190   jsr F14_MAP.f_op_map
     0x005e367c      dec5           adda.w d5, a7
     0x005e367e      4a1f           tst.b (a7)+
 < 0x005e3680      661c           bne.b 0x5e369e
    0x005e3682      9ec6           suba.w d6, a7
    0x005e3684      2f3ab3ee       move.l 0x5dea74(pc), -(a7)
    0x005e3688      2f7ab3ee0004   move.l 0x5dea78(pc), 0x4(a7)
    0x005e368e      2f7ab3ec0008   move.l 0x5dea7c(pc), 0x8(a7)
    0x005e3694      49eeff62       lea.l -0x9e(a6), a4
    0x005e3698      4ebafcc2       jsr SEARCHER.field_error(pc)
    0x005e369c      dec2           adda.w d2, a7
 > 0x005e369e      554f           subq.w 0x2, a7
     0x005e36a0      2f2efffa       move.l -0x6(a6), -(a7)
     0x005e36a4      2f2efff6       move.l -0xa(a6), -(a7)
     0x005e36a8      4eb90060d478   jsr F14_MAP.f_and_maps
     0x005e36ae      504f           addq.w 0x8, a7
     0x005e36b0      4a1f           tst.b (a7)+
 < 0x005e36b2      661c           bne.b 0x5e36d0
    0x005e36b4      9ec6           suba.w d6, a7
    0x005e36b6      2f3ab3c8       move.l 0x5dea80(pc), -(a7)
    0x005e36ba      2f7ab3c80004   move.l 0x5dea84(pc), 0x4(a7)
    0x005e36c0      2f7ab3c60008   move.l 0x5dea88(pc), 0x8(a7)
    0x005e36c6      49eeff62       lea.l -0x9e(a6), a4
    0x005e36ca      4ebafc90       jsr SEARCHER.field_error(pc)
    0x005e36ce      dec2           adda.w d2, a7
 > 0x005e36d0      486efffa       pea.l -0x6(a6)
      0x005e36d4      4eb90060470a   jsr F9_FILERDWRT.f_close
      0x005e36da      584f           addq.w 0x4, a7
   > 0x005e36dc      5200           addq.b 0x1, d0
         0x005e36de      0c00000f       cmpi.b 0xf, d0
      < 0x005e36e2      6f00fec8       ble.w 0x5e35ac
          0x005e36e6      554f           subq.w 0x2, a7
          0x005e36e8      2f2efff6       move.l -0xa(a6), -(a7)
          0x005e36ec      48780000       pea.l 0x0
          0x005e36f0      48780000       pea.l 0x0
          0x005e36f4      226e0010       movea.l 0x10(a6), a1
          0x005e36f8      b3e9fffc       cmpa.l -0x4(a1), a1
      < 0x005e36fc      6702           beq.b 0x5e3700
         0x005e36fe      4e4d           trap 0xd
      > 0x005e3700      486904ce       pea.l 0x4ce(a1)
          0x005e3704      4eb90060ce54   jsr F14_MAP.f_count_bits
          0x005e370a      dec5           adda.w d5, a7
          0x005e370c      4a1f           tst.b (a7)+
      < 0x005e370e      6622           bne.b 0x5e3732
         0x005e3710      9ec6           suba.w d6, a7
         0x005e3712      2f3ab378       move.l 0x5dea8c(pc), -(a7)
         0x005e3716      2f7ab3780004   move.l 0x5dea90(pc), 0x4(a7)
         0x005e371c      3f7ab3760008   move.w 0x5dea94(pc), 0x8(a7)
         0x005e3722      1f7ab372000a   move.b 0x5dea96(pc), 0xa(a7)
         0x005e3728      49eeff62       lea.l -0x9e(a6), a4
         0x005e372c      4ebafcec       jsr fcn.005e341a(pc)
         0x005e3730      dec2           adda.w d2, a7
      > 0x005e3732      1d440014       move.b d4, 0x14(a6)
      < 0x005e3736      6008           bra.b 0x5e3740
      > 0x005e3738      42a804ce       clr.l 0x4ce(a0)
          0x005e373c      422e0014       clr.b 0x14(a6)
      > 0x005e3740      486efffa       pea.l -0x6(a6)
           0x005e3744      4eb90060470a   jsr F9_FILERDWRT.f_close
           0x005e374a      584f           addq.w 0x4, a7
           0x005e374c      486efff6       pea.l -0xa(a6)
           0x005e3750      4eb90060470a   jsr F9_FILERDWRT.f_close
           0x005e3756      584f           addq.w 0x4, a7
           0x005e3758      4cdf1fff       movem.l (a7)+, d0-d7/a0-a4
           0x005e375c      4e5e           unlk a6
           0x005e375e      4e75           rts
            ; CALL XREF from SEARCH_DISKS.sea_reindex @ 0x5dc8b6
            ; CALL XREF from SEARCH_DISKS.sea_unindex @ 0x5dd59c
            ; CALL XREF from SEARCHER.sea_indexed_sta @ 0x5e3c04
            ; CALL XREF from SEARCHER.sea_indexed_kee @ 0x5e401c
            ; CALL XREF from SEARCHER.sea_indexed_rec @ 0x5e4396
 136: SEARCHER.sea_wait_search ();
           0x005e3760      4e56ffec       link.w a6, 0xffec
           0x005e3764      bfd5           cmpa.l (a5), a7
       < 0x005e3766      6206           bhi.b 0x5e376e
          0x005e3768      44fc0002       move.w 0x2, ccr
          0x005e376c      4e76           trapv
       > 0x005e376e      defc0014       adda.w 0x14, a7
           0x005e3772      48e70080       movem.l a0, -(a7)
           0x005e3776      41f900841a5a   lea.l 0x841a5a, a0
           0x005e377c      4a3900841ea9   tst.b 0x841ea9
       < 0x005e3782      6742           beq.b 0x5e37c6
          0x005e3784      4850           pea.l (a0)
          0x005e3786      4eb9004023c4   jsr p_Wait
          0x005e378c      584f           addq.w 0x4, a7
      > 0x005e378e      4a3900841a84   tst.b 0x841a84
     < 0x005e3794      6724           beq.b 0x5e37ba
        0x005e3796      554f           subq.w 0x2, a7
        0x005e3798      2f2e0008       move.l 0x8(a6), -(a7)
        0x005e379c      4eb9005dc488   jsr SEARCH_DISKS.sea_finished_se
        0x005e37a2      584f           addq.w 0x4, a7
        0x005e37a4      4a1f           tst.b (a7)+
    < 0x005e37a6      6612           bne.b 0x5e37ba
       0x005e37a8      4850           pea.l (a0)
       0x005e37aa      487900841a68   pea.l 0x841a68
       0x005e37b0      4eb900402530   jsr p_Sig2_Wait
       0x005e37b6      504f           addq.w 0x8, a7
    < 0x005e37b8      60d4           bra.b 0x5e378e
    > 0x005e37ba      4850           pea.l (a0)
          0x005e37bc      4eb90040234e   jsr p_Signal
          0x005e37c2      584f           addq.w 0x4, a7
      < 0x005e37c4      601a           bra.b 0x5e37e0
      > 0x005e37c6      487ab302       pea.l 0x5deaca(pc)
          0x005e37ca      48780034       pea.l 0x34
          0x005e37ce      2f17           move.l (a7), -(a7)
          0x005e37d0      4eb9004047ea   jsr p_wts_o
          0x005e37d6      defc000c       adda.w 0xc, a7
          0x005e37da      4eb900404946   jsr p_wtln_o
      > 0x005e37e0      4cdf0100       movem.l (a7)+, a0
           0x005e37e4      4e5e           unlk a6
           0x005e37e6      4e75           rts
            ; CALL XREF from SEARCHER.sea2_search_cha @ 0x5e3892
            ; CALL XREFS from SEARCHER.sea_indexed_sta @ 0x5e3bf6, 0x5e3c38
 94: SEARCHER.signal_search_r ();
           0x005e37e8      4e56ffec       link.w a6, 0xffec
           0x005e37ec      bfd5           cmpa.l (a5), a7
       < 0x005e37ee      6206           bhi.b 0x5e37f6
          0x005e37f0      44fc0002       move.w 0x2, ccr
          0x005e37f4      4e76           trapv
       > 0x005e37f6      defc0014       adda.w 0x14, a7
           0x005e37fa      48e70080       movem.l a0, -(a7)
           0x005e37fe      41f900841a84   lea.l 0x841a84, a0
           0x005e3804      4a3900841ea9   tst.b 0x841ea9
       < 0x005e380a      6718           beq.b 0x5e3824
          0x005e380c      4a10           tst.b (a0)
      < 0x005e380e      6612           bne.b 0x5e3822
         0x005e3810      10bc0001       move.b 0x1, (a0)
         0x005e3814      487900841a76   pea.l 0x841a76
         0x005e381a      4eb90040234e   jsr p_Signal
         0x005e3820      584f           addq.w 0x4, a7
     > 0x005e3822      601a           bra.b 0x5e383e
      > 0x005e3824      487ab311       pea.l 0x5deb37(pc)
          0x005e3828      48780030       pea.l 0x30
          0x005e382c      2f17           move.l (a7), -(a7)
          0x005e382e      4eb9004047ea   jsr p_wts_o
          0x005e3834      defc000c       adda.w 0xc, a7
          0x005e3838      4eb900404946   jsr p_wtln_o
     > 0x005e383e      4cdf0100       movem.l (a7)+, a0
           0x005e3842      4e5e           unlk a6
           0x005e3844      4e75           rts
            ; CALL XREF from SEARCH_DISKS.sea1_search_cha @ 0x5dc20c
            ; CALL XREF from SEARCH_DISKS.sea_set_task @ 0x5dc6ce
 98: SEARCHER.sea2_search_cha ();
           0x005e3846      4e56ffec       link.w a6, 0xffec
           0x005e384a      bfd5           cmpa.l (a5), a7
       < 0x005e384c      6206           bhi.b 0x5e3854
          0x005e384e      44fc0002       move.w 0x2, ccr
          0x005e3852      4e76           trapv
       > 0x005e3854      defc0014       adda.w 0x14, a7
           0x005e3858      48e780c0       movem.l d0/a0-a1, -(a7)
           0x005e385c      43f900841a5a   lea.l 0x841a5a, a1
           0x005e3862      4a3900841ea9   tst.b 0x841ea9
       < 0x005e3868      6736           beq.b 0x5e38a0
          0x005e386a      4851           pea.l (a1)
          0x005e386c      4eb9004023c4   jsr p_Wait
          0x005e3872      584f           addq.w 0x4, a7
          0x005e3874      102e000c       move.b 0xc(a6), d0
          0x005e3878      4880           ext.w d0
          0x005e387a      c1fc000e       muls.w 0xe, d0
          0x005e387e      206e0008       movea.l 0x8(a6), a0
          0x005e3882      2050           movea.l (a0), a0
          0x005e3884      b1e8fffc       cmpa.l -0x4(a0), a0
      < 0x005e3888      6702           beq.b 0x5e388c
         0x005e388a      4e4d           trap 0xd
      > 0x005e388c      11bc00010052   move.b 0x1, 0x52(a0, d0.w)
          0x005e3892      4ebaff54       jsr SEARCHER.signal_search_r(pc)
          0x005e3896      4851           pea.l (a1)
          0x005e3898      4eb90040234e   jsr p_Signal
          0x005e389e      584f           addq.w 0x4, a7
       > 0x005e38a0      4cdf0301       movem.l (a7)+, d0/a0-a1
           0x005e38a4      4e5e           unlk a6
           0x005e38a6      4e75           rts
 536: SEARCHER.search_task ();
           ; var int32_t var_8h @ a7+0x8
           ; var int32_t var_108h @ a7+0x108
           0x005e38a8      4e56fda6       link.w a6, 0xfda6
           0x005e38ac      bfd5           cmpa.l (a5), a7
       < 0x005e38ae      6206           bhi.b 0x5e38b6
          0x005e38b0      44fc0002       move.w 0x2, ccr
          0x005e38b4      4e76           trapv
       > 0x005e38b6      defc024e       adda.w 0x24e, a7
           0x005e38ba      48e7fff8       movem.l d0-d7/a0-a4, -(a7)
           0x005e38be      47f900841a5a   lea.l 0x841a5a, a3
           0x005e38c4      49f9004047ea   lea.l p_wts_o, a4
           0x005e38ca      760c           moveq 0xc, d3
           0x005e38cc      7801           moveq 0x1, d4
           0x005e38ce      2a3cffff8000   move.l 0xffff8000, d5
           0x005e38d4      7c0a           moveq 0xa, d6
           0x005e38d6      5d4f           subq.w 0x6, a7
           0x005e38d8      2f3ab2b0       move.l 0x5deb8a(pc), -(a7)
           0x005e38dc      2f7ab2b00004   move.l 0x5deb8e(pc), 0x4(a7)
           0x005e38e2      1f7ab2ae0008   move.b 0x5deb92(pc), 0x8(a7)
           0x005e38e8      486d0010       pea.l 0x10(a5)
           0x005e38ec      486f0004       pea.l 0x4(a7)
           0x005e38f0      3f04           move.w d4, -(a7)
           0x005e38f2      3f3c0009       move.w 0x9, -(a7)
           0x005e38f6      4eb90040556a   jsr p_Prefix
           0x005e38fc      defc0016       adda.w 0x16, a7
           0x005e3900      4853           pea.l (a3)
           0x005e3902      4eb9004023c4   jsr p_Wait
           0x005e3908      584f           addq.w 0x4, a7
       > 0x005e390a      554f           subq.w 0x2, a7
          0x005e390c      4853           pea.l (a3)
          0x005e390e      487900841a76   pea.l 0x841a76
          0x005e3914      48787530       pea.l 0x7530
          0x005e3918      4eb9004027e2   jsr p_Sig2_Timed_Wait
          0x005e391e      dec3           adda.w d3, a7
          0x005e3920      4a1f           tst.b (a7)+
      > 0x005e3922      554f           subq.w 0x2, a7
         0x005e3924      2f3900841a86   move.l 0x841a86, -(a7)
         0x005e392a      486efff6       pea.l -0xa(a6)
         0x005e392e      486efffa       pea.l -0x6(a6)
         0x005e3932      4eb9005dc30a   jsr SEARCH_DISKS.sea_any_search_
         0x005e3938      dec3           adda.w d3, a7
         0x005e393a      4a1f           tst.b (a7)+
     < 0x005e393c      67000178       beq.w 0x5e3ab6
        0x005e3940      206efff6       movea.l -0xa(a6), a0
        0x005e3944      b1e8fffc       cmpa.l -0x4(a0), a0
    < 0x005e3948      6702           beq.b 0x5e394c
       0x005e394a      4e4d           trap 0xd
    > 0x005e394c      3028002e       move.w 0x2e(a0), d0
        0x005e3950      48c0           ext.l d0
        0x005e3952      5280           addq.l 0x1, d0
        0x005e3954      9085           sub.l d5, d0
        0x005e3956      0c800000ffff   cmpi.l 0xffff, d0
    < 0x005e395c      6302           bls.b 0x5e3960
       0x005e395e      4e4f           trap 0xf
    > 0x005e3960      d085           add.l d5, d0
        0x005e3962      3140002e       move.w d0, 0x2e(a0)
        0x005e3966      102efffa       move.b -0x6(a6), d0
        0x005e396a      4880           ext.w d0
        0x005e396c      41bc000f       chk.w 0xf, d0
        0x005e3970      720e           moveq 0xe, d1
        0x005e3972      c3c0           muls.w d0, d1
        0x005e3974      42301052       clr.b 0x52(a0, d1.w)
        0x005e3978      11841053       move.b d4, 0x53(a0, d1.w)
        0x005e397c      2410           move.l (a0), d2
        0x005e397e      b4b900841a86   cmp.l 0x841a86, d2
    < 0x005e3984      6604           bne.b 0x5e398a
       0x005e3986      11841054       move.b d4, 0x54(a0, d1.w)
    > 0x005e398a      4853           pea.l (a3)
        0x005e398c      4eb90040234e   jsr p_Signal
        0x005e3992      584f           addq.w 0x4, a7
        0x005e3994      41bc000f       chk.w 0xf, d0
        0x005e3998      5d4f           subq.w 0x6, a7
        0x005e399a      48780000       pea.l 0x0
        0x005e399e      4ebacc6c       jsr SEARCHER.get_search_spec(pc)
        0x005e39a2      544f           addq.w 0x2, a7
        0x005e39a4      1e80           move.b d0, (a7)
        0x005e39a6      2f2efff6       move.l -0xa(a6), -(a7)
        0x005e39aa      9ec6           suba.w d6, a7
        0x005e39ac      224f           movea.l a7, a1
        0x005e39ae      45f01048       lea.l 0x48(a0, d1.w), a2
        0x005e39b2      7409           moveq 0x9, d2
    > 0x005e39b4      12da           move.b (a2)+, (a1)+
    < 0x005e39b6      51cafffc       dbra d2, 0x5e39b4
        0x005e39ba      9ec6           suba.w d6, a7
        0x005e39bc      224f           movea.l a7, a1
        0x005e39be      45e8018e       lea.l 0x18e(a0), a2
        0x005e39c2      7409           moveq 0x9, d2
    > 0x005e39c4      12da           move.b (a2)+, (a1)+
    < 0x005e39c6      51cafffc       dbra d2, 0x5e39c4
        0x005e39ca      9ec6           suba.w d6, a7
        0x005e39cc      224f           movea.l a7, a1
        0x005e39ce      45e80198       lea.l 0x198(a0), a2
        0x005e39d2      7409           moveq 0x9, d2
    > 0x005e39d4      12da           move.b (a2)+, (a1)+
    < 0x005e39d6      51cafffc       dbra d2, 0x5e39d4
        0x005e39da      4ebaf630       jsr SEARCHER.build_map(pc)
        0x005e39de      defc0028       adda.w 0x28, a7
        0x005e39e2      141f           move.b (a7)+, d2
        0x005e39e4      4882           ext.w d2
        0x005e39e6      4584           chk.w d4, d2
        0x005e39e8      1e02           move.b d2, d7
    < 0x005e39ea      66000090       bne.w 0x5e3a7c
       0x005e39ee      9efc0100       suba.w 0x100, a7
       0x005e39f2      4eb900408ec0   jsr p_err_string
       0x005e39f8      9efc0100       suba.w 0x100, a7
       0x005e39fc      1f00           move.b d0, -(a7)
       0x005e39fe      4ebad550       jsr SEARCHER.field_str(pc)
       0x005e3a02      544f           addq.w 0x2, a7
       0x005e3a04      487ab25a       pea.l 0x5dec60(pc)
       0x005e3a08      48780006       pea.l 0x6
       0x005e3a0c      2f17           move.l (a7), -(a7)
       0x005e3a0e      4e94           jsr (a4)                    ; fcn.0000000d
       0x005e3a10      dec3           adda.w d3, a7
       0x005e3a12      486f0101       pea.l 0x101(a7)
       0x005e3a16      42a7           clr.l -(a7)
       0x005e3a18      1f6f01080003   move.b 0x108(a7), 0x3(a7)
       0x005e3a1e      2f17           move.l (a7), -(a7)
       0x005e3a20      4e94           jsr (a4)                    ; fcn.0000000d
       0x005e3a22      dec3           adda.w d3, a7
       0x005e3a24      487ab241       pea.l 0x5dec67(pc)
       0x005e3a28      4878000d       pea.l 0xd
       0x005e3a2c      2f17           move.l (a7), -(a7)
       0x005e3a2e      4e94           jsr (a4)                    ; fcn.0000000d
       0x005e3a30      dec3           adda.w d3, a7
       0x005e3a32      487ab241       pea.l 0x5dec75(pc)
       0x005e3a36      48780005       pea.l 0x5
       0x005e3a3a      2f17           move.l (a7), -(a7)
       0x005e3a3c      4e94           jsr (a4)                    ; fcn.0000000d
       0x005e3a3e      dec3           adda.w d3, a7
       0x005e3a40      486f0001       pea.l 0x1(a7)
       0x005e3a44      42a7           clr.l -(a7)
       0x005e3a46      1f6f00080003   move.b 0x8(a7), 0x3(a7)
       0x005e3a4c      2f17           move.l (a7), -(a7)
       0x005e3a4e      4e94           jsr (a4)                    ; fcn.0000000d
       0x005e3a50      defc020c       adda.w 0x20c, a7
       0x005e3a54      487ab225       pea.l 0x5dec7b(pc)
       0x005e3a58      48780007       pea.l 0x7
       0x005e3a5c      2f17           move.l (a7), -(a7)
       0x005e3a5e      4e94           jsr (a4)                    ; fcn.0000000d
       0x005e3a60      504f           addq.w 0x8, a7
       0x005e3a62      2e90           move.l (a0), (a7)
       0x005e3a64      4878fffc       pea.l 0xfffc
       0x005e3a68      4eb9004070e4   jsr p_wti_o
       0x005e3a6e      504f           addq.w 0x8, a7
       0x005e3a70      4eb900404946   jsr p_wtln_o
       0x005e3a76      4eb900404188   jsr p_Unlink
    > 0x005e3a7c      4853           pea.l (a3)
        0x005e3a7e      4eb9004023c4   jsr p_Wait
        0x005e3a84      584f           addq.w 0x4, a7
        0x005e3a86      42301053       clr.b 0x53(a0, d1.w)
        0x005e3a8a      3028002e       move.w 0x2e(a0), d0
        0x005e3a8e      48c0           ext.l d0
        0x005e3a90      5380           subq.l 0x1, d0
        0x005e3a92      9085           sub.l d5, d0
        0x005e3a94      0c800000ffff   cmpi.l 0xffff, d0
    < 0x005e3a9a      6302           bls.b 0x5e3a9e
       0x005e3a9c      4e4f           trap 0xf
    > 0x005e3a9e      d085           add.l d5, d0
        0x005e3aa0      3140002e       move.w d0, 0x2e(a0)
        0x005e3aa4      487900841a68   pea.l 0x841a68
        0x005e3aaa      4eb900402906   jsr p_Sig_All
        0x005e3ab0      584f           addq.w 0x4, a7
     < 0x005e3ab2      6000fe6e       bra.w 0x5e3922
     > 0x005e3ab6      423900841a84   clr.b 0x841a84
       < 0x005e3abc      6000fe4c       bra.w 0x5e390a
            0x005e3ac0      4853           pea.l (a3)
            0x005e3ac2      4eb90040234e   jsr p_Signal
            0x005e3ac8      584f           addq.w 0x4, a7
            0x005e3aca      4cdf1fff       movem.l (a7)+, d0-d7/a0-a4
            0x005e3ace      4e5e           unlk a6
            0x005e3ad0      4e75           rts
 418: SEARCHER.sea_indexed_sta ();
           0x005e3ad2      4e56ff78       link.w a6, 0xff78
           0x005e3ad6      bfd5           cmpa.l (a5), a7
       < 0x005e3ad8      6206           bhi.b 0x5e3ae0
          0x005e3ada      44fc0002       move.w 0x2, ccr
          0x005e3ade      4e76           trapv
       > 0x005e3ae0      defc003c       adda.w 0x3c, a7
           0x005e3ae4      48e7f1f8       movem.l d0-d3/d7/a0-a4, -(a7)
           0x005e3ae8      45ee000c       lea.l 0xc(a6), a2
           0x005e3aec      47f900841a5a   lea.l 0x841a5a, a3
           0x005e3af2      49f900841ea9   lea.l 0x841ea9, a4
           0x005e3af8      720c           moveq 0xc, d1
           0x005e3afa      7401           moveq 0x1, d2
           0x005e3afc      760f           moveq 0xf, d3
           0x005e3afe      4a14           tst.b (a4)
       < 0x005e3b00      6618           bne.b 0x5e3b1a
          0x005e3b02      487ab1ee       pea.l 0x5decf2(pc)
          0x005e3b06      48780037       pea.l 0x37
          0x005e3b0a      2f17           move.l (a7), -(a7)
          0x005e3b0c      4eb9004047ea   jsr p_wts_o
          0x005e3b12      dec1           adda.w d1, a7
          0x005e3b14      4eb900404946   jsr p_wtln_o
       > 0x005e3b1a      4a14           tst.b (a4)
       < 0x005e3b1c      6700014e       beq.w 0x5e3c6c
          0x005e3b20      554f           subq.w 0x2, a7
          0x005e3b22      486effb4       pea.l -0x4c(a6)
          0x005e3b26      4eb900404434   jsr fcn.00404434
          0x005e3b2c      584f           addq.w 0x4, a7
          0x005e3b2e      4a1f           tst.b (a7)+
      < 0x005e3b30      67000134       beq.w 0x5e3c66
         0x005e3b34      2052           movea.l (a2), a0
         0x005e3b36      b1e8fffc       cmpa.l -0x4(a0), a0
     < 0x005e3b3a      6702           beq.b 0x5e3b3e
        0x005e3b3c      4e4d           trap 0xd
     > 0x005e3b3e      4a280046       tst.b 0x46(a0)
     < 0x005e3b42      6666           bne.b 0x5e3baa
        0x005e3b44      487ab1e4       pea.l 0x5ded2a(pc)
        0x005e3b48      4878001e       pea.l 0x1e
        0x005e3b4c      2f17           move.l (a7), -(a7)
        0x005e3b4e      4eb9004047ea   jsr p_wts_o
        0x005e3b54      504f           addq.w 0x8, a7
        0x005e3b56      2e90           move.l (a0), (a7)
        0x005e3b58      4878fffe       pea.l 0xfffe
        0x005e3b5c      4eb9004070e4   jsr p_wti_o
        0x005e3b62      504f           addq.w 0x8, a7
        0x005e3b64      487ab1e3       pea.l 0x5ded49(pc)
        0x005e3b68      4878001a       pea.l 0x1a
        0x005e3b6c      2f17           move.l (a7), -(a7)
        0x005e3b6e      4eb9004047ea   jsr p_wts_o
        0x005e3b74      dec1           adda.w d1, a7
        0x005e3b76      4eb900404946   jsr p_wtln_o
        0x005e3b7c      11420046       move.b d2, 0x46(a0)
        0x005e3b80      7e00           moveq 0x0, d7
    > 0x005e3b82      554f           subq.w 0x2, a7
       0x005e3b84      1f07           move.b d7, -(a7)
       0x005e3b86      4ebabd8a       jsr SEARCHER.field_in_use(pc)
       0x005e3b8a      544f           addq.w 0x2, a7
       0x005e3b8c      4a1f           tst.b (a7)+
   < 0x005e3b8e      6714           beq.b 0x5e3ba4
      0x005e3b90      4887           ext.w d7
      0x005e3b92      700e           moveq 0xe, d0
      0x005e3b94      c1c7           muls.w d7, d0
      0x005e3b96      2252           movea.l (a2), a1
      0x005e3b98      b3e9fffc       cmpa.l -0x4(a1), a1
  < 0x005e3b9c      6702           beq.b 0x5e3ba0
     0x005e3b9e      4e4d           trap 0xd
  > 0x005e3ba0      13820052       move.b d2, 0x52(a1, d0.w)
   > 0x005e3ba4      5207           addq.b 0x1, d7
       0x005e3ba6      be03           cmp.b d3, d7
    < 0x005e3ba8      6fd8           ble.b 0x5e3b82
     > 0x005e3baa      2052           movea.l (a2), a0
         0x005e3bac      b1e8fffc       cmpa.l -0x4(a0), a0
     < 0x005e3bb0      6702           beq.b 0x5e3bb4
        0x005e3bb2      4e4d           trap 0xd
     > 0x005e3bb4      4868003a       pea.l 0x3a(a0)
         0x005e3bb8      4eb900461dd6   jsr S1_NVRAM.f0_get_time
         0x005e3bbe      584f           addq.w 0x4, a7
         0x005e3bc0      4853           pea.l (a3)
         0x005e3bc2      4eb9004023c4   jsr p_Wait
         0x005e3bc8      584f           addq.w 0x4, a7
         0x005e3bca      7e00           moveq 0x0, d7
     > 0x005e3bcc      4887           ext.w d7
        0x005e3bce      700e           moveq 0xe, d0
        0x005e3bd0      c1c7           muls.w d7, d0
        0x005e3bd2      2052           movea.l (a2), a0
        0x005e3bd4      b1e8fffc       cmpa.l -0x4(a0), a0
    < 0x005e3bd8      6702           beq.b 0x5e3bdc
       0x005e3bda      4e4d           trap 0xd
    > 0x005e3bdc      42300054       clr.b 0x54(a0, d0.w)
        0x005e3be0      5207           addq.b 0x1, d7
        0x005e3be2      be03           cmp.b d3, d7
     < 0x005e3be4      6fe6           ble.b 0x5e3bcc
         0x005e3be6      2052           movea.l (a2), a0
         0x005e3be8      b1e8fffc       cmpa.l -0x4(a0), a0
     < 0x005e3bec      6702           beq.b 0x5e3bf0
        0x005e3bee      4e4d           trap 0xd
     > 0x005e3bf0      23d000841a86   move.l (a0), 0x841a86
         0x005e3bf6      4ebafbf0       jsr SEARCHER.signal_search_r(pc)
         0x005e3bfa      4853           pea.l (a3)
         0x005e3bfc      4eb90040234e   jsr p_Signal
         0x005e3c02      2e92           move.l (a2), (a7)
         0x005e3c04      4ebafb5a       jsr SEARCHER.sea_wait_search(pc)
         0x005e3c08      544f           addq.w 0x2, a7
         0x005e3c0a      4852           pea.l (a2)
         0x005e3c0c      206e0008       movea.l 0x8(a6), a0
         0x005e3c10      4850           pea.l (a0)
         0x005e3c12      4ebaf13a       jsr SEARCHER.combine_lib_map(pc)
         0x005e3c16      504f           addq.w 0x8, a7
         0x005e3c18      4a1f           tst.b (a7)+
     < 0x005e3c1a      660c           bne.b 0x5e3c28
        0x005e3c1c      486effb4       pea.l -0x4c(a6)
        0x005e3c20      4eb900404468   jsr fcn.00404468
        0x005e3c26      584f           addq.w 0x4, a7
     > 0x005e3c28      4853           pea.l (a3)
         0x005e3c2a      4eb9004023c4   jsr p_Wait
         0x005e3c30      584f           addq.w 0x4, a7
         0x005e3c32      42b900841a86   clr.l 0x841a86
         0x005e3c38      4ebafbae       jsr SEARCHER.signal_search_r(pc)
         0x005e3c3c      4853           pea.l (a3)
         0x005e3c3e      4eb90040234e   jsr p_Signal
         0x005e3c44      584f           addq.w 0x4, a7
         0x005e3c46      2052           movea.l (a2), a0
         0x005e3c48      b1e8fffc       cmpa.l -0x4(a0), a0
     < 0x005e3c4c      6702           beq.b 0x5e3c50
        0x005e3c4e      4e4d           trap 0xd
     > 0x005e3c50      4868003a       pea.l 0x3a(a0)
         0x005e3c54      4eb900461dd6   jsr S1_NVRAM.f0_get_time
         0x005e3c5a      584f           addq.w 0x4, a7
         0x005e3c5c      42a80136       clr.l 0x136(a0)
         0x005e3c60      42a8013a       clr.l 0x13a(a0)
     < 0x005e3c64      6006           bra.b 0x5e3c6c
     > 0x005e3c66      4eb900404188   jsr p_Unlink
     > 0x005e3c6c      4cdf1f8f       movem.l (a7)+, d0-d3/d7/a0-a4
           0x005e3c70      4e5e           unlk a6
           0x005e3c72      4e75           rts
            ; CALL XREF from SEARCHER.sea_indexed_kee @ 0x5e4214
 522: SEARCHER.save_recall_map ();
           ; var int32_t var_8h @ a7+0x8
           0x005e3c74      4e56fe72       link.w a6, 0xfe72
           0x005e3c78      bfd5           cmpa.l (a5), a7
       < 0x005e3c7a      6206           bhi.b 0x5e3c82
          0x005e3c7c      44fc0002       move.w 0x2, ccr
          0x005e3c80      4e76           trapv
       > 0x005e3c82      defc0140       adda.w 0x140, a7
           0x005e3c86      48e7f8f8       movem.l d0-d4/a0-a4, -(a7)
           0x005e3c8a      49f9004047ea   lea.l p_wts_o, a4
           0x005e3c90      7201           moveq 0x1, d1
           0x005e3c92      740c           moveq 0xc, d2
           0x005e3c94      1d410010       move.b d1, 0x10(a6)
           0x005e3c98      2d41ffb2       move.l d1, -0x4e(a6)
           0x005e3c9c      554f           subq.w 0x2, a7
           0x005e3c9e      486effb6       pea.l -0x4a(a6)
           0x005e3ca2      4eb900404434   jsr fcn.00404434
           0x005e3ca8      584f           addq.w 0x4, a7
           0x005e3caa      4a1f           tst.b (a7)+
       < 0x005e3cac      670001a6       beq.w 0x5e3e54
          0x005e3cb0      206e000c       movea.l 0xc(a6), a0
          0x005e3cb4      b1e8fffc       cmpa.l -0x4(a0), a0
      < 0x005e3cb8      6702           beq.b 0x5e3cbc
         0x005e3cba      4e4d           trap 0xd
      > 0x005e3cbc      52a80136       addq.l 0x1, 0x136(a0)
          0x005e3cc0      20280136       move.l 0x136(a0), d0
          0x005e3cc4      b0a80132       cmp.l 0x132(a0), d0
      < 0x005e3cc8      6d0c           blt.b 0x5e3cd6
         0x005e3cca      2f2e000c       move.l 0xc(a6), -(a7)
         0x005e3cce      4eb9005db956   jsr SEARCH_DISKS.sea_add_recall_
         0x005e3cd4      584f           addq.w 0x4, a7
      > 0x005e3cd6      b0a80132       cmp.l 0x132(a0), d0
      < 0x005e3cda      6f04           ble.b 0x5e3ce0
         0x005e3cdc      21410136       move.l d1, 0x136(a0)
      > 0x005e3ce0      4aa8013a       tst.l 0x13a(a0)
      < 0x005e3ce4      6608           bne.b 0x5e3cee
         0x005e3ce6      21680136013a   move.l 0x136(a0), 0x13a(a0)
     < 0x005e3cec      6012           bra.b 0x5e3d00
     > 0x005e3cee      2028013a       move.l 0x13a(a0), d0
         0x005e3cf2      b0a80136       cmp.l 0x136(a0), d0
     < 0x005e3cf6      6608           bne.b 0x5e3d00
        0x005e3cf8      2140013a       move.l d0, 0x13a(a0)
        0x005e3cfc      52a8013a       addq.l 0x1, 0x13a(a0)
     > 0x005e3d00      2028013a       move.l 0x13a(a0), d0
          0x005e3d04      b0a80132       cmp.l 0x132(a0), d0
      < 0x005e3d08      6f04           ble.b 0x5e3d0e
         0x005e3d0a      2141013a       move.l d1, 0x13a(a0)
      > 0x005e3d0e      20280136       move.l 0x136(a0), d0
          0x005e3d12      5380           subq.l 0x1, d0
          0x005e3d14      0c8000000007   cmpi.l 0x7, d0
      < 0x005e3d1a      6302           bls.b 0x5e3d1e
         0x005e3d1c      4e4f           trap 0xf
      > 0x005e3d1e      2800           move.l d0, d4
          0x005e3d20      760a           moveq 0xa, d3
          0x005e3d22      4eb900406a74   jsr fcn.00406a74
          0x005e3d28      43f04800       lea.l (a0, d4.l), a1
          0x005e3d2c      9ec2           suba.w d2, a7
          0x005e3d2e      244f           movea.l a7, a2
          0x005e3d30      47e9013e       lea.l 0x13e(a1), a3
          0x005e3d34      7009           moveq 0x9, d0
      > 0x005e3d36      14db           move.b (a3)+, (a2)+
      < 0x005e3d38      51c8fffc       dbra d0, 0x5e3d36
          0x005e3d3c      2f3aa2c6       move.l 0x5de004(pc), -(a7)
          0x005e3d40      2f3aa2be       move.l 0x5de000(pc), -(a7)
          0x005e3d44      3f3aa2b8       move.w 0x5ddffe(pc), -(a7)
          0x005e3d48      4eb9005ef3d2   jsr F2_UTILITY.f_fids_eq
          0x005e3d4e      defc0014       adda.w 0x14, a7
          0x005e3d52      4a1f           tst.b (a7)+
      < 0x005e3d54      6728           beq.b 0x5e3d7e
         0x005e3d56      487ab03d       pea.l 0x5ded95(pc)
         0x005e3d5a      48780010       pea.l 0x10
         0x005e3d5e      2f17           move.l (a7), -(a7)
         0x005e3d60      4e94           jsr (a4)                    ; fcn.0000000d
         0x005e3d62      504f           addq.w 0x8, a7
         0x005e3d64      2ea80136       move.l 0x136(a0), (a7)
         0x005e3d68      48780000       pea.l 0x0
         0x005e3d6c      4eb9004070e4   jsr p_wti_o
         0x005e3d72      504f           addq.w 0x8, a7
         0x005e3d74      4eb900404946   jsr p_wtln_o
     < 0x005e3d7a      600000dc       bra.w 0x5e3e58
     > 0x005e3d7e      9ec2           suba.w d2, a7
         0x005e3d80      244f           movea.l a7, a2
         0x005e3d82      47e9013e       lea.l 0x13e(a1), a3
         0x005e3d86      7009           moveq 0x9, d0
     > 0x005e3d88      14db           move.b (a3)+, (a2)+
     < 0x005e3d8a      51c8fffc       dbra d0, 0x5e3d88
         0x005e3d8e      1f01           move.b d1, -(a7)
         0x005e3d90      486effb2       pea.l -0x4e(a6)
         0x005e3d94      4eb90060c190   jsr F14_MAP.f_op_map
         0x005e3d9a      defc0010       adda.w 0x10, a7
         0x005e3d9e      4a1f           tst.b (a7)+
     < 0x005e3da0      664c           bne.b 0x5e3dee
        0x005e3da2      9efc0100       suba.w 0x100, a7
        0x005e3da6      4eb900408ec0   jsr p_err_string
        0x005e3dac      487aaff8       pea.l 0x5deda6(pc)
        0x005e3db0      48780006       pea.l 0x6
        0x005e3db4      2f17           move.l (a7), -(a7)
        0x005e3db6      4e94           jsr (a4)                    ; fcn.0000000d
        0x005e3db8      dec2           adda.w d2, a7
        0x005e3dba      486f0001       pea.l 0x1(a7)
        0x005e3dbe      42a7           clr.l -(a7)
        0x005e3dc0      1f6f00080003   move.b 0x8(a7), 0x3(a7)
        0x005e3dc6      2f17           move.l (a7), -(a7)
        0x005e3dc8      4e94           jsr (a4)                    ; fcn.0000000d
        0x005e3dca      defc010c       adda.w 0x10c, a7
        0x005e3dce      487aafdd       pea.l 0x5dedad(pc)
        0x005e3dd2      48780014       pea.l 0x14
        0x005e3dd6      2f17           move.l (a7), -(a7)
        0x005e3dd8      4e94           jsr (a4)                    ; fcn.0000000d
        0x005e3dda      dec2           adda.w d2, a7
        0x005e3ddc      4eb900404946   jsr p_wtln_o
        0x005e3de2      486effb6       pea.l -0x4a(a6)
        0x005e3de6      4eb900404468   jsr fcn.00404468
        0x005e3dec      584f           addq.w 0x4, a7
     > 0x005e3dee      554f           subq.w 0x2, a7
         0x005e3df0      246e0008       movea.l 0x8(a6), a2
         0x005e3df4      2f12           move.l (a2), -(a7)
         0x005e3df6      2f2effb2       move.l -0x4e(a6), -(a7)
         0x005e3dfa      4eb90060d3aa   jsr F14_MAP.f_copy_map
         0x005e3e00      504f           addq.w 0x8, a7
         0x005e3e02      4a1f           tst.b (a7)+
     < 0x005e3e04      6652           bne.b 0x5e3e58
        0x005e3e06      9efc0100       suba.w 0x100, a7
        0x005e3e0a      4eb900408ec0   jsr p_err_string
        0x005e3e10      487aafc6       pea.l 0x5dedd8(pc)
        0x005e3e14      48780006       pea.l 0x6
        0x005e3e18      2f17           move.l (a7), -(a7)
        0x005e3e1a      4e94           jsr (a4)                    ; fcn.0000000d
        0x005e3e1c      dec2           adda.w d2, a7
        0x005e3e1e      486f0001       pea.l 0x1(a7)
        0x005e3e22      42a7           clr.l -(a7)
        0x005e3e24      1f6f00080003   move.b 0x8(a7), 0x3(a7)
        0x005e3e2a      2f17           move.l (a7), -(a7)
        0x005e3e2c      4e94           jsr (a4)                    ; fcn.0000000d
        0x005e3e2e      defc010c       adda.w 0x10c, a7
        0x005e3e32      487aafab       pea.l 0x5deddf(pc)
        0x005e3e36      48780017       pea.l 0x17
        0x005e3e3a      2f17           move.l (a7), -(a7)
        0x005e3e3c      4e94           jsr (a4)                    ; fcn.0000000d
        0x005e3e3e      dec2           adda.w d2, a7
        0x005e3e40      4eb900404946   jsr p_wtln_o
        0x005e3e46      486effb6       pea.l -0x4a(a6)
        0x005e3e4a      4eb900404468   jsr fcn.00404468
        0x005e3e50      584f           addq.w 0x4, a7
    < 0x005e3e52      6004           bra.b 0x5e3e58
    > 0x005e3e54      1d410010       move.b d1, 0x10(a6)
    > 0x005e3e58      206e000c       movea.l 0xc(a6), a0
           0x005e3e5c      b1e8fffc       cmpa.l -0x4(a0), a0
       < 0x005e3e60      6702           beq.b 0x5e3e64
          0x005e3e62      4e4d           trap 0xd
       > 0x005e3e64      4aa80136       tst.l 0x136(a0)
       < 0x005e3e68      6f0c           ble.b 0x5e3e76
          0x005e3e6a      486effb2       pea.l -0x4e(a6)
          0x005e3e6e      4eb90060470a   jsr F9_FILERDWRT.f_close
          0x005e3e74      584f           addq.w 0x4, a7
       > 0x005e3e76      4cdf1f1f       movem.l (a7)+, d0-d4/a0-a4
           0x005e3e7a      4e5e           unlk a6
           0x005e3e7c      4e75           rts
 294: SEARCHER.check_bit ();
           ; var int32_t var_8h @ a7+0x8
           0x005e3e7e      4e56fed0       link.w a6, 0xfed0
           0x005e3e82      bfd5           cmpa.l (a5), a7
       < 0x005e3e84      6206           bhi.b 0x5e3e8c
          0x005e3e86      44fc0002       move.w 0x2, ccr
          0x005e3e8a      4e76           trapv
       > 0x005e3e8c      defc012c       adda.w 0x12c, a7
           0x005e3e90      48e7c0f8       movem.l d0-d1/a0-a4, -(a7)
           0x005e3e94      43f9004047ea   lea.l p_wts_o, a1
           0x005e3e9a      45ee0008       lea.l 0x8(a6), a2
           0x005e3e9e      47f80000       lea.l 0x0, a3
           0x005e3ea2      49f9004070e4   lea.l p_wti_o, a4
           0x005e3ea8      720c           moveq 0xc, d1
           0x005e3eaa      554f           subq.w 0x2, a7
           0x005e3eac      206e000c       movea.l 0xc(a6), a0
           0x005e3eb0      2f10           move.l (a0), -(a7)
           0x005e3eb2      2f12           move.l (a2), -(a7)
           0x005e3eb4      48780001       pea.l 0x1
           0x005e3eb8      486efffc       pea.l -0x4(a6)
           0x005e3ebc      4eb90060ce54   jsr F14_MAP.f_count_bits
           0x005e3ec2      defc0010       adda.w 0x10, a7
           0x005e3ec6      4a1f           tst.b (a7)+
       < 0x005e3ec8      6646           bne.b 0x5e3f10
          0x005e3eca      9efc0100       suba.w 0x100, a7
          0x005e3ece      4eb900408ec0   jsr p_err_string
          0x005e3ed4      487aaf32       pea.l 0x5dee08(pc)
          0x005e3ed8      48780014       pea.l 0x14
          0x005e3edc      2f17           move.l (a7), -(a7)
          0x005e3ede      4e91           jsr (a1)                    ; fcn.0000000a
          0x005e3ee0      504f           addq.w 0x8, a7
          0x005e3ee2      2e92           move.l (a2), (a7)
          0x005e3ee4      4853           pea.l (a3)
          0x005e3ee6      4e94           jsr (a4)                    ; fcn.0000000d
          0x005e3ee8      504f           addq.w 0x8, a7
          0x005e3eea      487aaf31       pea.l 0x5dee1d(pc)
          0x005e3eee      48780002       pea.l 0x2
          0x005e3ef2      2f17           move.l (a7), -(a7)
          0x005e3ef4      4e91           jsr (a1)                    ; fcn.0000000a
          0x005e3ef6      dec1           adda.w d1, a7
          0x005e3ef8      486f0001       pea.l 0x1(a7)
          0x005e3efc      42a7           clr.l -(a7)
          0x005e3efe      1f6f00080003   move.b 0x8(a7), 0x3(a7)
          0x005e3f04      2f17           move.l (a7), -(a7)
          0x005e3f06      4e91           jsr (a1)                    ; fcn.0000000a
          0x005e3f08      defc010c       adda.w 0x10c, a7
      < 0x005e3f0c      60000088       bra.w 0x5e3f96
      > 0x005e3f10      202efffc       move.l -0x4(a6), d0
          0x005e3f14      0c8000000001   cmpi.l 0x1, d0
      < 0x005e3f1a      6620           bne.b 0x5e3f3c
         0x005e3f1c      487aaf02       pea.l 0x5dee20(pc)
         0x005e3f20      48780004       pea.l 0x4
         0x005e3f24      2f17           move.l (a7), -(a7)
         0x005e3f26      4e91           jsr (a1)                    ; fcn.0000000a
         0x005e3f28      504f           addq.w 0x8, a7
         0x005e3f2a      2e92           move.l (a2), (a7)
         0x005e3f2c      4853           pea.l (a3)
         0x005e3f2e      4e94           jsr (a4)                    ; fcn.0000000d
         0x005e3f30      504f           addq.w 0x8, a7
         0x005e3f32      487aaef1       pea.l 0x5dee25(pc)
         0x005e3f36      48780005       pea.l 0x5
     < 0x005e3f3a      6054           bra.b 0x5e3f90
     > 0x005e3f3c      4a80           tst.l d0
     < 0x005e3f3e      661c           bne.b 0x5e3f5c
        0x005e3f40      487aaee9       pea.l 0x5dee2b(pc)
        0x005e3f44      48780004       pea.l 0x4
        0x005e3f48      2f17           move.l (a7), -(a7)
        0x005e3f4a      4e91           jsr (a1)                    ; fcn.0000000a
        0x005e3f4c      504f           addq.w 0x8, a7
        0x005e3f4e      2e92           move.l (a2), (a7)
        0x005e3f50      4853           pea.l (a3)
        0x005e3f52      4e94           jsr (a4)                    ; fcn.0000000d
        0x005e3f54      504f           addq.w 0x8, a7
        0x005e3f56      487aaed8       pea.l 0x5dee30(pc)
    < 0x005e3f5a      6030           bra.b 0x5e3f8c
    > 0x005e3f5c      487aaeda       pea.l 0x5dee38(pc)
        0x005e3f60      48780009       pea.l 0x9
        0x005e3f64      2f17           move.l (a7), -(a7)
        0x005e3f66      4e91           jsr (a1)                    ; fcn.0000000a
        0x005e3f68      504f           addq.w 0x8, a7
        0x005e3f6a      2e92           move.l (a2), (a7)
        0x005e3f6c      4853           pea.l (a3)
        0x005e3f6e      4e94           jsr (a4)                    ; fcn.0000000d
        0x005e3f70      504f           addq.w 0x8, a7
        0x005e3f72      487aaece       pea.l 0x5dee42(pc)
        0x005e3f76      48780005       pea.l 0x5
        0x005e3f7a      2f17           move.l (a7), -(a7)
        0x005e3f7c      4e91           jsr (a1)                    ; fcn.0000000a
        0x005e3f7e      504f           addq.w 0x8, a7
        0x005e3f80      2e80           move.l d0, (a7)
        0x005e3f82      4853           pea.l (a3)
        0x005e3f84      4e94           jsr (a4)                    ; fcn.0000000d
        0x005e3f86      504f           addq.w 0x8, a7
        0x005e3f88      487aaebe       pea.l 0x5dee48(pc)
    > 0x005e3f8c      48780007       pea.l 0x7
     > 0x005e3f90      2f17           move.l (a7), -(a7)
          0x005e3f92      4e91           jsr (a1)                    ; fcn.0000000a
          0x005e3f94      dec1           adda.w d1, a7
      > 0x005e3f96      4eb900404946   jsr p_wtln_o
           0x005e3f9c      4cdf1f03       movem.l (a7)+, d0-d1/a0-a4
           0x005e3fa0      4e5e           unlk a6
           0x005e3fa2      4e75           rts
 924: SEARCHER.sea_indexed_kee ();
           ; var int32_t var_8h @ a7+0x8
           0x005e3fa4      4e56fe5a       link.w a6, 0xfe5a
           0x005e3fa8      bfd5           cmpa.l (a5), a7
       < 0x005e3faa      6206           bhi.b 0x5e3fb2
          0x005e3fac      44fc0002       move.w 0x2, ccr
          0x005e3fb0      4e76           trapv
       > 0x005e3fb2      defc014a       adda.w 0x14a, a7
           0x005e3fb6      48e7fff8       movem.l d0-d7/a0-a4, -(a7)
           0x005e3fba      47f9004047ea   lea.l p_wts_o, a3
           0x005e3fc0      760c           moveq 0xc, d3
           0x005e3fc2      7801           moveq 0x1, d4
           0x005e3fc4      7a10           moveq 0x10, d5
           0x005e3fc6      3c3c0100       move.w 0x100, d6
           0x005e3fca      102e0010       move.b 0x10(a6), d0
           0x005e3fce      b004           cmp.b d4, d0
       < 0x005e3fd0      6708           beq.b 0x5e3fda
          0x005e3fd2      0c000002       cmpi.b 0x2, d0
      < 0x005e3fd6      6712           beq.b 0x5e3fea
     < 0x005e3fd8      6018           bra.b 0x5e3ff2
     > 0x005e3fda      594f           subq.w 0x4, a7
         0x005e3fdc      48780001       pea.l 0x1
     > 0x005e3fe0      4ebac62a       jsr SEARCHER.get_search_spec(pc)
        0x005e3fe4      584f           addq.w 0x4, a7
        0x005e3fe6      285f           movea.l (a7)+, a4
    < 0x005e3fe8      6012           bra.b 0x5e3ffc
    > 0x005e3fea      594f           subq.w 0x4, a7
        0x005e3fec      48780002       pea.l 0x2
     < 0x005e3ff0      60ee           bra.b 0x5e3fe0
    > 0x005e3ff2      4227           clr.b -(a7)
          0x005e3ff4      4eb90040452a   jsr p_Assert
          0x005e3ffa      544f           addq.w 0x2, a7
    > 0x005e3ffc      2d44fff8       move.l d4, -0x8(a6)
           0x005e4000      2d44fffc       move.l d4, -0x4(a6)
           0x005e4004      554f           subq.w 0x2, a7
           0x005e4006      486effa4       pea.l -0x5c(a6)
           0x005e400a      4eb900404434   jsr fcn.00404434
           0x005e4010      584f           addq.w 0x4, a7
           0x005e4012      4a1f           tst.b (a7)+
       < 0x005e4014      6700030a       beq.w 0x5e4320
          0x005e4018      2f2e000c       move.l 0xc(a6), -(a7)
          0x005e401c      4ebaf742       jsr SEARCHER.sea_wait_search(pc)
          0x005e4020      584f           addq.w 0x4, a7
          0x005e4022      206e000c       movea.l 0xc(a6), a0
          0x005e4026      b1e8fffc       cmpa.l -0x4(a0), a0
      < 0x005e402a      6702           beq.b 0x5e402e
         0x005e402c      4e4d           trap 0xd
      > 0x005e402e      9ec3           suba.w d3, a7
          0x005e4030      224f           movea.l a7, a1
          0x005e4032      45e80128       lea.l 0x128(a0), a2
          0x005e4036      7209           moveq 0x9, d1
      > 0x005e4038      12da           move.b (a2)+, (a1)+
      < 0x005e403a      51c9fffc       dbra d1, 0x5e4038
          0x005e403e      1f04           move.b d4, -(a7)
          0x005e4040      486efff8       pea.l -0x8(a6)
          0x005e4044      4eb90060c190   jsr F14_MAP.f_op_map
          0x005e404a      dec5           adda.w d5, a7
          0x005e404c      4a1f           tst.b (a7)+
      < 0x005e404e      664a           bne.b 0x5e409a
         0x005e4050      9ec6           suba.w d6, a7
         0x005e4052      4eb900408ec0   jsr p_err_string
         0x005e4058      487aae16       pea.l 0x5dee70(pc)
         0x005e405c      48780006       pea.l 0x6
         0x005e4060      2f17           move.l (a7), -(a7)
         0x005e4062      4e93           jsr (a3)                    ; fcn.0000000c
         0x005e4064      dec3           adda.w d3, a7
         0x005e4066      486f0001       pea.l 0x1(a7)
         0x005e406a      42a7           clr.l -(a7)
         0x005e406c      1f6f00080003   move.b 0x8(a7), 0x3(a7)
         0x005e4072      2f17           move.l (a7), -(a7)
         0x005e4074      4e93           jsr (a3)                    ; fcn.0000000c
         0x005e4076      defc010c       adda.w 0x10c, a7
         0x005e407a      487aadfb       pea.l 0x5dee77(pc)
         0x005e407e      48780013       pea.l 0x13
         0x005e4082      2f17           move.l (a7), -(a7)
         0x005e4084      4e93           jsr (a3)                    ; fcn.0000000c
         0x005e4086      dec3           adda.w d3, a7
         0x005e4088      4eb900404946   jsr p_wtln_o
         0x005e408e      486effa4       pea.l -0x5c(a6)
         0x005e4092      4eb900404468   jsr fcn.00404468
         0x005e4098      584f           addq.w 0x4, a7
      > 0x005e409a      9ec3           suba.w d3, a7
          0x005e409c      224f           movea.l a7, a1
          0x005e409e      45e801a2       lea.l 0x1a2(a0), a2
          0x005e40a2      7209           moveq 0x9, d1
      > 0x005e40a4      12da           move.b (a2)+, (a1)+
      < 0x005e40a6      51c9fffc       dbra d1, 0x5e40a4
          0x005e40aa      1f04           move.b d4, -(a7)
          0x005e40ac      486efffc       pea.l -0x4(a6)
          0x005e40b0      4eb90060c190   jsr F14_MAP.f_op_map
          0x005e40b6      dec5           adda.w d5, a7
          0x005e40b8      4a1f           tst.b (a7)+
      < 0x005e40ba      664a           bne.b 0x5e4106
         0x005e40bc      9ec6           suba.w d6, a7
         0x005e40be      4eb900408ec0   jsr p_err_string
         0x005e40c4      487aadc5       pea.l 0x5dee8b(pc)
         0x005e40c8      48780006       pea.l 0x6
         0x005e40cc      2f17           move.l (a7), -(a7)
         0x005e40ce      4e93           jsr (a3)                    ; fcn.0000000c
         0x005e40d0      dec3           adda.w d3, a7
         0x005e40d2      486f0001       pea.l 0x1(a7)
         0x005e40d6      42a7           clr.l -(a7)
         0x005e40d8      1f6f00080003   move.b 0x8(a7), 0x3(a7)
         0x005e40de      2f17           move.l (a7), -(a7)
         0x005e40e0      4e93           jsr (a3)                    ; fcn.0000000c
         0x005e40e2      defc010c       adda.w 0x10c, a7
         0x005e40e6      487aadaa       pea.l 0x5dee92(pc)
         0x005e40ea      48780017       pea.l 0x17
         0x005e40ee      2f17           move.l (a7), -(a7)
         0x005e40f0      4e93           jsr (a3)                    ; fcn.0000000c
         0x005e40f2      dec3           adda.w d3, a7
         0x005e40f4      4eb900404946   jsr p_wtln_o
         0x005e40fa      486effa4       pea.l -0x5c(a6)
         0x005e40fe      4eb900404468   jsr fcn.00404468
         0x005e4104      584f           addq.w 0x4, a7
      > 0x005e4106      b9ecfffc       cmpa.l -0x4(a4), a4
      < 0x005e410a      6702           beq.b 0x5e410e
         0x005e410c      4e4d           trap 0xd
      > 0x005e410e      122c04bf       move.b 0x4bf(a4), d1
          0x005e4112      4881           ext.w d1
          0x005e4114      43faad94       lea.l 0x5deeaa(pc), a1
          0x005e4118      3401           move.w d1, d2
          0x005e411a      e64a           lsr.w 0x3, d2
          0x005e411c      03312000       btst.l d1, (a1, d2.w)
      < 0x005e4120      6740           beq.b 0x5e4162
         0x005e4122      554f           subq.w 0x2, a7
         0x005e4124      2f2efff8       move.l -0x8(a6), -(a7)
         0x005e4128      48780000       pea.l 0x0
         0x005e412c      48780000       pea.l 0x0
         0x005e4130      486effee       pea.l -0x12(a6)
         0x005e4134      4eb90060ce54   jsr F14_MAP.f_count_bits
         0x005e413a      dec5           adda.w d5, a7
         0x005e413c      1417           move.b (a7), d2
         0x005e413e      4882           ext.w d2
         0x005e4140      4584           chk.w d4, d2
         0x005e4142      1e82           move.b d2, (a7)
         0x005e4144      4eb90040452a   jsr p_Assert
         0x005e414a      544f           addq.w 0x2, a7
         0x005e414c      226e0008       movea.l 0x8(a6), a1
         0x005e4150      22aeffee       move.l -0x12(a6), (a1)
         0x005e4154      486effa4       pea.l -0x5c(a6)
         0x005e4158      4eb900404468   jsr fcn.00404468
         0x005e415e      584f           addq.w 0x4, a7
     < 0x005e4160      6054           bra.b 0x5e41b6
     > 0x005e4162      554f           subq.w 0x2, a7
         0x005e4164      2f0c           move.l a4, -(a7)
         0x005e4166      43bc000f       chk.w 0xf, d1
         0x005e416a      1f01           move.b d1, -(a7)
         0x005e416c      2f2e000c       move.l 0xc(a6), -(a7)
         0x005e4170      9efc000a       suba.w 0xa, a7
         0x005e4174      224f           movea.l a7, a1
         0x005e4176      45e801a2       lea.l 0x1a2(a0), a2
         0x005e417a      7409           moveq 0x9, d2
     > 0x005e417c      12da           move.b (a2)+, (a1)+
     < 0x005e417e      51cafffc       dbra d2, 0x5e417c
         0x005e4182      9efc000a       suba.w 0xa, a7
         0x005e4186      224f           movea.l a7, a1
         0x005e4188      45e8018e       lea.l 0x18e(a0), a2
         0x005e418c      7409           moveq 0x9, d2
     > 0x005e418e      12da           move.b (a2)+, (a1)+
     < 0x005e4190      51cafffc       dbra d2, 0x5e418e
         0x005e4194      9efc000a       suba.w 0xa, a7
         0x005e4198      224f           movea.l a7, a1
         0x005e419a      45e80198       lea.l 0x198(a0), a2
         0x005e419e      7409           moveq 0x9, d2
     > 0x005e41a0      12da           move.b (a2)+, (a1)+
     < 0x005e41a2      51cafffc       dbra d2, 0x5e41a0
         0x005e41a6      4ebaee64       jsr SEARCHER.build_map(pc)
         0x005e41aa      defc0028       adda.w 0x28, a7
         0x005e41ae      141f           move.b (a7)+, d2
         0x005e41b0      4882           ext.w d2
         0x005e41b2      4584           chk.w d4, d2
         0x005e41b4      1e02           move.b d2, d7
     > 0x005e41b6      4a07           tst.b d7
      < 0x005e41b8      6650           bne.b 0x5e420a
         0x005e41ba      9ec6           suba.w d6, a7
         0x005e41bc      4eb900408ec0   jsr p_err_string
         0x005e41c2      487aad01       pea.l 0x5deec5(pc)
         0x005e41c6      48780006       pea.l 0x6
         0x005e41ca      2f17           move.l (a7), -(a7)
         0x005e41cc      4e93           jsr (a3)                    ; fcn.0000000c
         0x005e41ce      dec3           adda.w d3, a7
         0x005e41d0      486f0001       pea.l 0x1(a7)
         0x005e41d4      42a7           clr.l -(a7)
         0x005e41d6      1f6f00080003   move.b 0x8(a7), 0x3(a7)
         0x005e41dc      2f17           move.l (a7), -(a7)
         0x005e41de      4e93           jsr (a3)                    ; fcn.0000000c
         0x005e41e0      defc010c       adda.w 0x10c, a7
         0x005e41e4      487aace6       pea.l 0x5deecc(pc)
         0x005e41e8      48780018       pea.l 0x18
         0x005e41ec      2f17           move.l (a7), -(a7)
         0x005e41ee      4e93           jsr (a3)                    ; fcn.0000000c
         0x005e41f0      dec3           adda.w d3, a7
         0x005e41f2      4eb900404946   jsr p_wtln_o
         0x005e41f8      4eb900404188   jsr p_Unlink
         0x005e41fe      486effa4       pea.l -0x5c(a6)
         0x005e4202      4eb900404468   jsr fcn.00404468
         0x005e4208      584f           addq.w 0x4, a7
      > 0x005e420a      554f           subq.w 0x2, a7
          0x005e420c      2f2e000c       move.l 0xc(a6), -(a7)
          0x005e4210      486efff8       pea.l -0x8(a6)
          0x005e4214      4ebafa5e       jsr SEARCHER.save_recall_map(pc)
          0x005e4218      504f           addq.w 0x8, a7
          0x005e421a      4a1f           tst.b (a7)+
      < 0x005e421c      6642           bne.b 0x5e4260
         0x005e421e      9ec6           suba.w d6, a7
         0x005e4220      4eb900408ec0   jsr p_err_string
         0x005e4226      487aacbd       pea.l 0x5deee5(pc)
         0x005e422a      4878001a       pea.l 0x1a
         0x005e422e      2f17           move.l (a7), -(a7)
         0x005e4230      4e93           jsr (a3)                    ; fcn.0000000c
         0x005e4232      dec3           adda.w d3, a7
         0x005e4234      486f0001       pea.l 0x1(a7)
         0x005e4238      42a7           clr.l -(a7)
         0x005e423a      1f6f00080003   move.b 0x8(a7), 0x3(a7)
         0x005e4240      2f17           move.l (a7), -(a7)
         0x005e4242      4e93           jsr (a3)                    ; fcn.0000000c
         0x005e4244      defc010c       adda.w 0x10c, a7
         0x005e4248      4eb900404946   jsr p_wtln_o
         0x005e424e      4eb900404188   jsr p_Unlink
         0x005e4254      486effa4       pea.l -0x5c(a6)
         0x005e4258      4eb900404468   jsr fcn.00404468
         0x005e425e      584f           addq.w 0x4, a7
      > 0x005e4260      b004           cmp.b d4, d0
      < 0x005e4262      6708           beq.b 0x5e426c
         0x005e4264      0c000002       cmpi.b 0x2, d0
     < 0x005e4268      671e           beq.b 0x5e4288
        0x005e426a      4e4e           trap 0xe
     > 0x005e426c      554f           subq.w 0x2, a7
         0x005e426e      2f2efffc       move.l -0x4(a6), -(a7)
         0x005e4272      2f2efff8       move.l -0x8(a6), -(a7)
         0x005e4276      4eb90060d478   jsr F14_MAP.f_and_maps
     > 0x005e427c      504f           addq.w 0x8, a7
        0x005e427e      121f           move.b (a7)+, d1
        0x005e4280      4881           ext.w d1
        0x005e4282      4384           chk.w d4, d1
        0x005e4284      1e01           move.b d1, d7
    < 0x005e4286      6012           bra.b 0x5e429a
    > 0x005e4288      554f           subq.w 0x2, a7
        0x005e428a      2f2efffc       move.l -0x4(a6), -(a7)
        0x005e428e      2f2efff8       move.l -0x8(a6), -(a7)
        0x005e4292      4eb90060d67c   jsr F14_MAP.f_mask_maps
     < 0x005e4298      60e2           bra.b 0x5e427c
    > 0x005e429a      4a07           tst.b d7
      < 0x005e429c      6650           bne.b 0x5e42ee
         0x005e429e      9ec6           suba.w d6, a7
         0x005e42a0      4eb900408ec0   jsr p_err_string
         0x005e42a6      487aac95       pea.l 0x5def3d(pc)
         0x005e42aa      48780006       pea.l 0x6
         0x005e42ae      2f17           move.l (a7), -(a7)
         0x005e42b0      4e93           jsr (a3)                    ; fcn.0000000c
         0x005e42b2      dec3           adda.w d3, a7
         0x005e42b4      486f0001       pea.l 0x1(a7)
         0x005e42b8      42a7           clr.l -(a7)
         0x005e42ba      1f6f00080003   move.b 0x8(a7), 0x3(a7)
         0x005e42c0      2f17           move.l (a7), -(a7)
         0x005e42c2      4e93           jsr (a3)                    ; fcn.0000000c
         0x005e42c4      defc010c       adda.w 0x10c, a7
         0x005e42c8      487aac7a       pea.l 0x5def44(pc)
         0x005e42cc      4878001e       pea.l 0x1e
         0x005e42d0      2f17           move.l (a7), -(a7)
         0x005e42d2      4e93           jsr (a3)                    ; fcn.0000000c
         0x005e42d4      dec3           adda.w d3, a7
         0x005e42d6      4eb900404946   jsr p_wtln_o
         0x005e42dc      4eb900404188   jsr p_Unlink
         0x005e42e2      486effa4       pea.l -0x5c(a6)
         0x005e42e6      4eb900404468   jsr fcn.00404468
         0x005e42ec      584f           addq.w 0x4, a7
      > 0x005e42ee      554f           subq.w 0x2, a7
          0x005e42f0      2f2efff8       move.l -0x8(a6), -(a7)
          0x005e42f4      48780000       pea.l 0x0
          0x005e42f8      48780000       pea.l 0x0
          0x005e42fc      486effee       pea.l -0x12(a6)
          0x005e4300      4eb90060ce54   jsr F14_MAP.f_count_bits
          0x005e4306      dec5           adda.w d5, a7
          0x005e4308      1217           move.b (a7), d1
          0x005e430a      4881           ext.w d1
          0x005e430c      4384           chk.w d4, d1
          0x005e430e      1e81           move.b d1, (a7)
          0x005e4310      4eb90040452a   jsr p_Assert
          0x005e4316      544f           addq.w 0x2, a7
          0x005e4318      206e0008       movea.l 0x8(a6), a0
          0x005e431c      20aeffee       move.l -0x12(a6), (a0)
       > 0x005e4320      486efffc       pea.l -0x4(a6)
           0x005e4324      4eb90060470a   jsr F9_FILERDWRT.f_close
           0x005e432a      584f           addq.w 0x4, a7
           0x005e432c      486efff8       pea.l -0x8(a6)
           0x005e4330      4eb90060470a   jsr F9_FILERDWRT.f_close
           0x005e4336      584f           addq.w 0x4, a7
           0x005e4338      4cdf1fff       movem.l (a7)+, d0-d7/a0-a4
           0x005e433c      4e5e           unlk a6
           0x005e433e      4e75           rts
 642: SEARCHER.sea_indexed_rec ();
           ; var int32_t var_8h @ a7+0x8
           0x005e4340      4e56fe5c       link.w a6, 0xfe5c
           0x005e4344      bfd5           cmpa.l (a5), a7
       < 0x005e4346      6206           bhi.b 0x5e434e
          0x005e4348      44fc0002       move.w 0x2, ccr
          0x005e434c      4e76           trapv
       > 0x005e434e      defc014c       adda.w 0x14c, a7
           0x005e4352      48e7fff8       movem.l d0-d7/a0-a4, -(a7)
           0x005e4356      49f9004047ea   lea.l p_wts_o, a4
           0x005e435c      720c           moveq 0xc, d1
           0x005e435e      7401           moveq 0x1, d2
           0x005e4360      7a10           moveq 0x10, d5
           0x005e4362      3c3c0100       move.w 0x100, d6
           0x005e4366      3e3c010c       move.w 0x10c, d7
           0x005e436a      2d42fff8       move.l d2, -0x8(a6)
           0x005e436e      2d42fffc       move.l d2, -0x4(a6)
           0x005e4372      554f           subq.w 0x2, a7
           0x005e4374      486effa8       pea.l -0x58(a6)
           0x005e4378      4eb900404434   jsr fcn.00404434
           0x005e437e      584f           addq.w 0x4, a7
           0x005e4380      4a1f           tst.b (a7)+
       < 0x005e4382      6700021e       beq.w 0x5e45a2
          0x005e4386      206e000c       movea.l 0xc(a6), a0
          0x005e438a      b1e8fffc       cmpa.l -0x4(a0), a0
      < 0x005e438e      6702           beq.b 0x5e4392
         0x005e4390      4e4d           trap 0xd
      > 0x005e4392      2f2e000c       move.l 0xc(a6), -(a7)
          0x005e4396      4ebaf3c8       jsr SEARCHER.sea_wait_search(pc)
          0x005e439a      514f           subq.w 0x8, a7
          0x005e439c      224f           movea.l a7, a1
          0x005e439e      45e80128       lea.l 0x128(a0), a2
          0x005e43a2      7009           moveq 0x9, d0
      > 0x005e43a4      12da           move.b (a2)+, (a1)+
      < 0x005e43a6      51c8fffc       dbra d0, 0x5e43a4
          0x005e43aa      1f02           move.b d2, -(a7)
          0x005e43ac      486efffc       pea.l -0x4(a6)
          0x005e43b0      4eb90060c190   jsr F14_MAP.f_op_map
          0x005e43b6      dec5           adda.w d5, a7
          0x005e43b8      4a1f           tst.b (a7)+
      < 0x005e43ba      6648           bne.b 0x5e4404
         0x005e43bc      9ec6           suba.w d6, a7
         0x005e43be      4eb900408ec0   jsr p_err_string
         0x005e43c4      487aabc1       pea.l 0x5def87(pc)
         0x005e43c8      48780006       pea.l 0x6
         0x005e43cc      2f17           move.l (a7), -(a7)
         0x005e43ce      4e94           jsr (a4)                    ; fcn.0000000d
         0x005e43d0      dec1           adda.w d1, a7
         0x005e43d2      486f0001       pea.l 0x1(a7)
         0x005e43d6      42a7           clr.l -(a7)
         0x005e43d8      1f6f00080003   move.b 0x8(a7), 0x3(a7)
         0x005e43de      2f17           move.l (a7), -(a7)
         0x005e43e0      4e94           jsr (a4)                    ; fcn.0000000d
         0x005e43e2      dec7           adda.w d7, a7
         0x005e43e4      487aaba8       pea.l 0x5def8e(pc)
         0x005e43e8      48780013       pea.l 0x13
         0x005e43ec      2f17           move.l (a7), -(a7)
         0x005e43ee      4e94           jsr (a4)                    ; fcn.0000000d
         0x005e43f0      dec1           adda.w d1, a7
         0x005e43f2      4eb900404946   jsr p_wtln_o
         0x005e43f8      486effa8       pea.l -0x58(a6)
         0x005e43fc      4eb900404468   jsr fcn.00404468
         0x005e4402      584f           addq.w 0x4, a7
      > 0x005e4404      4aa80136       tst.l 0x136(a0)
      < 0x005e4408      6f000166       ble.w 0x5e4570
         0x005e440c      20280136       move.l 0x136(a0), d0
         0x005e4410      5380           subq.l 0x1, d0
         0x005e4412      0c8000000007   cmpi.l 0x7, d0
     < 0x005e4418      6302           bls.b 0x5e441c
        0x005e441a      4e4f           trap 0xf
     > 0x005e441c      2800           move.l d0, d4
         0x005e441e      760a           moveq 0xa, d3
         0x005e4420      4eb900406a74   jsr fcn.00406a74
         0x005e4426      43f04800       lea.l (a0, d4.l), a1
         0x005e442a      9ec1           suba.w d1, a7
         0x005e442c      244f           movea.l a7, a2
         0x005e442e      47e9013e       lea.l 0x13e(a1), a3
         0x005e4432      7009           moveq 0x9, d0
     > 0x005e4434      14db           move.b (a3)+, (a2)+
     < 0x005e4436      51c8fffc       dbra d0, 0x5e4434
         0x005e443a      2f3a9bc8       move.l 0x5de004(pc), -(a7)
         0x005e443e      2f3a9bc0       move.l 0x5de000(pc), -(a7)
         0x005e4442      3f3a9bba       move.w 0x5ddffe(pc), -(a7)
         0x005e4446      4eb9005ef3d2   jsr F2_UTILITY.f_fids_eq
         0x005e444c      defc0014       adda.w 0x14, a7
         0x005e4450      4a1f           tst.b (a7)+
     < 0x005e4452      6730           beq.b 0x5e4484
        0x005e4454      487aab58       pea.l 0x5defae(pc)
        0x005e4458      48780007       pea.l 0x7
        0x005e445c      2f17           move.l (a7), -(a7)
        0x005e445e      4e94           jsr (a4)                    ; fcn.0000000d
        0x005e4460      504f           addq.w 0x8, a7
        0x005e4462      2ea80136       move.l 0x136(a0), (a7)
        0x005e4466      48780000       pea.l 0x0
        0x005e446a      4eb9004070e4   jsr p_wti_o
        0x005e4470      504f           addq.w 0x8, a7
        0x005e4472      4eb900404946   jsr p_wtln_o
        0x005e4478      486effa8       pea.l -0x58(a6)
        0x005e447c      4eb900404468   jsr fcn.00404468
        0x005e4482      584f           addq.w 0x4, a7
     > 0x005e4484      9ec1           suba.w d1, a7
         0x005e4486      244f           movea.l a7, a2
         0x005e4488      43e9013e       lea.l 0x13e(a1), a1
         0x005e448c      7009           moveq 0x9, d0
     > 0x005e448e      14d9           move.b (a1)+, (a2)+
     < 0x005e4490      51c8fffc       dbra d0, 0x5e448e
         0x005e4494      1f02           move.b d2, -(a7)
         0x005e4496      486efff8       pea.l -0x8(a6)
         0x005e449a      4eb90060c190   jsr F14_MAP.f_op_map
         0x005e44a0      dec5           adda.w d5, a7
         0x005e44a2      4a1f           tst.b (a7)+
     < 0x005e44a4      6648           bne.b 0x5e44ee
        0x005e44a6      9ec6           suba.w d6, a7
        0x005e44a8      4eb900408ec0   jsr p_err_string
        0x005e44ae      487aab06       pea.l 0x5defb6(pc)
        0x005e44b2      48780006       pea.l 0x6
        0x005e44b6      2f17           move.l (a7), -(a7)
        0x005e44b8      4e94           jsr (a4)                    ; fcn.0000000d
        0x005e44ba      dec1           adda.w d1, a7
        0x005e44bc      486f0001       pea.l 0x1(a7)
        0x005e44c0      42a7           clr.l -(a7)
        0x005e44c2      1f6f00080003   move.b 0x8(a7), 0x3(a7)
        0x005e44c8      2f17           move.l (a7), -(a7)
        0x005e44ca      4e94           jsr (a4)                    ; fcn.0000000d
        0x005e44cc      dec7           adda.w d7, a7
        0x005e44ce      487aaaed       pea.l 0x5defbd(pc)
        0x005e44d2      48780014       pea.l 0x14
        0x005e44d6      2f17           move.l (a7), -(a7)
        0x005e44d8      4e94           jsr (a4)                    ; fcn.0000000d
        0x005e44da      dec1           adda.w d1, a7
        0x005e44dc      4eb900404946   jsr p_wtln_o
        0x005e44e2      486effa8       pea.l -0x58(a6)
        0x005e44e6      4eb900404468   jsr fcn.00404468
        0x005e44ec      584f           addq.w 0x4, a7
     > 0x005e44ee      554f           subq.w 0x2, a7
         0x005e44f0      2f2efff8       move.l -0x8(a6), -(a7)
         0x005e44f4      2f2efffc       move.l -0x4(a6), -(a7)
         0x005e44f8      4eb90060d3aa   jsr F14_MAP.f_copy_map
         0x005e44fe      504f           addq.w 0x8, a7
         0x005e4500      4a1f           tst.b (a7)+
     < 0x005e4502      664e           bne.b 0x5e4552
        0x005e4504      9ec6           suba.w d6, a7
        0x005e4506      4eb900408ec0   jsr p_err_string
        0x005e450c      487aaac4       pea.l 0x5defd2(pc)
        0x005e4510      48780006       pea.l 0x6
        0x005e4514      2f17           move.l (a7), -(a7)
        0x005e4516      4e94           jsr (a4)                    ; fcn.0000000d
        0x005e4518      dec1           adda.w d1, a7
        0x005e451a      486f0001       pea.l 0x1(a7)
        0x005e451e      42a7           clr.l -(a7)
        0x005e4520      1f6f00080003   move.b 0x8(a7), 0x3(a7)
        0x005e4526      2f17           move.l (a7), -(a7)
        0x005e4528      4e94           jsr (a4)                    ; fcn.0000000d
        0x005e452a      dec7           adda.w d7, a7
        0x005e452c      487aaaab       pea.l 0x5defd9(pc)
        0x005e4530      4878000f       pea.l 0xf
        0x005e4534      2f17           move.l (a7), -(a7)
        0x005e4536      4e94           jsr (a4)                    ; fcn.0000000d
        0x005e4538      dec1           adda.w d1, a7
        0x005e453a      4eb900404946   jsr p_wtln_o
        0x005e4540      4eb900404188   jsr p_Unlink
        0x005e4546      486effa8       pea.l -0x58(a6)
        0x005e454a      4eb900404468   jsr fcn.00404468
        0x005e4550      584f           addq.w 0x4, a7
     > 0x005e4552      20280136       move.l 0x136(a0), d0
         0x005e4556      b0a8013a       cmp.l 0x13a(a0), d0
     < 0x005e455a      6708           beq.b 0x5e4564
        0x005e455c      21400136       move.l d0, 0x136(a0)
        0x005e4560      53a80136       subq.l 0x1, 0x136(a0)
     > 0x005e4564      4aa80136       tst.l 0x136(a0)
     < 0x005e4568      6606           bne.b 0x5e4570
        0x005e456a      216801320136   move.l 0x132(a0), 0x136(a0)
     > 0x005e4570      554f           subq.w 0x2, a7
          0x005e4572      2f2efffc       move.l -0x4(a6), -(a7)
          0x005e4576      48780000       pea.l 0x0
          0x005e457a      48780000       pea.l 0x0
          0x005e457e      486efff2       pea.l -0xe(a6)
          0x005e4582      4eb90060ce54   jsr F14_MAP.f_count_bits
          0x005e4588      dec5           adda.w d5, a7
          0x005e458a      1017           move.b (a7), d0
          0x005e458c      4880           ext.w d0
          0x005e458e      4182           chk.w d2, d0
          0x005e4590      1e80           move.b d0, (a7)
          0x005e4592      4eb90040452a   jsr p_Assert
          0x005e4598      544f           addq.w 0x2, a7
          0x005e459a      226e0008       movea.l 0x8(a6), a1
          0x005e459e      22aefff2       move.l -0xe(a6), (a1)
       > 0x005e45a2      486efff8       pea.l -0x8(a6)
           0x005e45a6      4eb90060470a   jsr F9_FILERDWRT.f_close
           0x005e45ac      584f           addq.w 0x4, a7
           0x005e45ae      486efffc       pea.l -0x4(a6)
           0x005e45b2      4eb90060470a   jsr F9_FILERDWRT.f_close
           0x005e45b8      584f           addq.w 0x4, a7
           0x005e45ba      4cdf1fff       movem.l (a7)+, d0-d7/a0-a4
           0x005e45be      4e5e           unlk a6
           0x005e45c0      4e75           rts
            ; CALL XREFS from SEARCHER.sea_linear_lib_ @ 0x5e4a0c, 0x5e4a38, 0x5e4a64
 106: SEARCHER.match_str ();
           ; var int32_t var_2h @ a6-0x2
           0x005e45c2      4e56fde8       link.w a6, 0xfde8
           0x005e45c6      bfd5           cmpa.l (a5), a7
       < 0x005e45c8      6206           bhi.b 0x5e45d0
          0x005e45ca      44fc0002       move.w 0x2, ccr
          0x005e45ce      4e76           trapv
       > 0x005e45d0      defc0116       adda.w 0x116, a7
           0x005e45d4      48e780c0       movem.l d0/a0-a1, -(a7)
           0x005e45d8      43eefefe       lea.l -0x102(a6), a1
           0x005e45dc      9efc0100       suba.w 0x100, a7
           0x005e45e0      3f2e000e       move.w 0xe(a6), -(a7)
           0x005e45e4      2f2e0010       move.l 0x10(a6), -(a7)
           0x005e45e8      4eb9005eed64   jsr f_get_string
           0x005e45ee      5c4f           addq.w 0x6, a7
           0x005e45f0      2049           movea.l a1, a0
           0x005e45f2      703f           moveq 0x3f, d0
       > 0x005e45f4      20df           move.l (a7)+, (a0)+
       < 0x005e45f6      51c8fffc       dbra d0, 0x5e45f4
           0x005e45fa      554f           subq.w 0x2, a7
           0x005e45fc      4280           clr.l d0
           0x005e45fe      1011           move.b (a1), d0
           0x005e4600      3f00           move.w d0, -(a7)
           0x005e4602      2049           movea.l a1, a0
           0x005e4604      2f08           move.l a0, -(a7)
           0x005e4606      5297           addq.l 0x1, (a7)
           0x005e4608      206e0008       movea.l 0x8(a6), a0
           0x005e460c      2f08           move.l a0, -(a7)
           0x005e460e      5297           addq.l 0x1, (a7)
           0x005e4610      4eb900473f94   jsr fcn.00473f94
           0x005e4616      defc000a       adda.w 0xa, a7
           0x005e461a      1d5ffffe       move.b (a7)+, -0x2(a6)
           0x005e461e      1d6efffe0014   move.b -0x2(a6), 0x14(a6)
           0x005e4624      4cdf0301       movem.l (a7)+, d0/a0-a1
           0x005e4628      4e5e           unlk a6
           0x005e462a      4e75           rts
            ; XREFS: CALL 0x005e4714  CALL 0x005e4a1c  CALL 0x005e4a48  
            ; XREFS: CALL 0x005e4a74  CALL 0x005e4b16  CALL 0x005e4b6c  
            ; XREFS: CALL 0x005e4c92  CALL 0x005e4e3e  CALL 0x005e4e9a  
 44: SEARCHER.not_this_one ();
           0x005e462c      4e56fff8       link.w a6, 0xfff8
           0x005e4630      bfd5           cmpa.l (a5), a7
       < 0x005e4632      6206           bhi.b 0x5e463a
          0x005e4634      44fc0002       move.w 0x2, ccr
          0x005e4638      4e76           trapv
       > 0x005e463a      defc0008       adda.w 0x8, a7
           0x005e463e      486c0098       pea.l 0x98(a4)
           0x005e4642      4eb90060500e   jsr F9_FILERDWRT.f_free_block
           0x005e4648      584f           addq.w 0x4, a7
           0x005e464a      4854           pea.l (a4)
           0x005e464c      4eb900404468   jsr fcn.00404468
           0x005e4652      584f           addq.w 0x4, a7
           0x005e4654      4e5e           unlk a6
           0x005e4656      4e75           rts
            ; CALL XREFS from SEARCHER.sea_linear_lib_ @ 0x5e4ed6, 0x5e4f04, 0x5e4f2e, 0x5e4f5e
 200: SEARCHER.check_plane ();
           ; var int32_t var_8h @ a7+0x8
           0x005e4658      4e56fed8       link.w a6, 0xfed8
           0x005e465c      bfd5           cmpa.l (a5), a7
       < 0x005e465e      6206           bhi.b 0x5e4666
          0x005e4660      44fc0002       move.w 0x2, ccr
          0x005e4664      4e76           trapv
       > 0x005e4666      defc0124       adda.w 0x124, a7
           0x005e466a      48e7c0e0       movem.l d0-d1/a0-a2, -(a7)
           0x005e466e      45f9004047ea   lea.l p_wts_o, a2
           0x005e4674      720c           moveq 0xc, d1
           0x005e4676      554f           subq.w 0x2, a7
           0x005e4678      1f2e0108       move.b 0x108(a6), -(a7)
           0x005e467c      4227           clr.b -(a7)
           0x005e467e      48780000       pea.l 0x0
           0x005e4682      4878ffff       pea.l 0xffff
           0x005e4686      486c0098       pea.l 0x98(a4)
           0x005e468a      206c00e2       movea.l 0xe2(a4), a0
           0x005e468e      9efc000a       suba.w 0xa, a7
           0x005e4692      224f           movea.l a7, a1
           0x005e4694      7009           moveq 0x9, d0
       > 0x005e4696      12d8           move.b (a0)+, (a1)+
       < 0x005e4698      51c8fffc       dbra d0, 0x5e4696
           0x005e469c      486efffc       pea.l -0x4(a6)
           0x005e46a0      4eb9005ed4dc   jsr FILE_STRUCTURE.fs_file_addr
           0x005e46a6      defc001e       adda.w 0x1e, a7
           0x005e46aa      4a1f           tst.b (a7)+
       < 0x005e46ac      665a           bne.b 0x5e4708
          0x005e46ae      9efc0100       suba.w 0x100, a7
          0x005e46b2      4eb900408ec0   jsr p_err_string
          0x005e46b8      487aa983       pea.l 0x5df03d(pc)
          0x005e46bc      4878000f       pea.l 0xf
          0x005e46c0      2f17           move.l (a7), -(a7)
          0x005e46c2      4e92           jsr (a2)                    ; fcn.00000009+0x2
          0x005e46c4      dec1           adda.w d1, a7
          0x005e46c6      486e0009       pea.l 0x9(a6)
          0x005e46ca      42a7           clr.l -(a7)
          0x005e46cc      1f6e00080003   move.b 0x8(a6), 0x3(a7)
          0x005e46d2      2f17           move.l (a7), -(a7)
          0x005e46d4      4e92           jsr (a2)                    ; fcn.00000009+0x2
          0x005e46d6      dec1           adda.w d1, a7
          0x005e46d8      487aa973       pea.l 0x5df04d(pc)
          0x005e46dc      48780008       pea.l 0x8
          0x005e46e0      2f17           move.l (a7), -(a7)
          0x005e46e2      4e92           jsr (a2)                    ; fcn.00000009+0x2
          0x005e46e4      dec1           adda.w d1, a7
          0x005e46e6      486f0001       pea.l 0x1(a7)
          0x005e46ea      42a7           clr.l -(a7)
          0x005e46ec      1f6f00080003   move.b 0x8(a7), 0x3(a7)
          0x005e46f2      2f17           move.l (a7), -(a7)
          0x005e46f4      4e92           jsr (a2)                    ; fcn.00000009+0x2
          0x005e46f6      defc010c       adda.w 0x10c, a7
          0x005e46fa      4eb900404946   jsr p_wtln_o
          0x005e4700      4eb900404188   jsr p_Unlink
      < 0x005e4706      600c           bra.b 0x5e4714
      > 0x005e4708      202efffc       move.l -0x4(a6), d0
          0x005e470c      0c80ffffffff   cmpi.l 0xffffffff, d0
      < 0x005e4712      6604           bne.b 0x5e4718
      > 0x005e4714      4ebaff16       jsr SEARCHER.not_this_one(pc)
       > 0x005e4718      4cdf0703       movem.l (a7)+, d0-d1/a0-a2
           0x005e471c      4e5e           unlk a6
           0x005e471e      4e75           rts
            ; CALL XREF from SEARCHER.sea_find_file @ 0x5e5fa0
            ; CALL XREF from SEARCHER @ +0x81dc
 2190: SEARCHER.sea_linear_lib_ (int32_t arg_66h, int32_t arg_67h, int32_t arg_68h);
           ; var int32_t var_5bc0h @ a6-0x5bc0
           ; var int32_t var_1ah @ a6-0x1a
           ; arg int32_t arg_66h @ a6+0x66
           ; arg int32_t arg_67h @ a6+0x67
           ; arg int32_t arg_68h @ a6+0x68
           ; var int32_t var_8h @ a7+0x8
           ; var int32_t var_108h @ a7+0x108
           0x005e4720      4e56fcde       link.w a6, 0xfcde
           0x005e4724      bfd5           cmpa.l (a5), a7
       < 0x005e4726      6206           bhi.b 0x5e472e
          0x005e4728      44fc0002       move.w 0x2, ccr
          0x005e472c      4e76           trapv
       > 0x005e472e      defc024c       adda.w 0x24c, a7
           0x005e4732      48e7fff8       movem.l d0-d7/a0-a4, -(a7)
           0x005e4736      554f           subq.w 0x2, a7
           0x005e4738      486eff74       pea.l -0x8c(a6)
           0x005e473c      4eb900404434   jsr fcn.00404434
           0x005e4742      584f           addq.w 0x4, a7
           0x005e4744      4a1f           tst.b (a7)+
       < 0x005e4746      6700085e       beq.w 0x5e4fa6
          0x005e474a      206e0024       movea.l 0x24(a6), a0
          0x005e474e      1d680066ffef   move.b 0x66(a0), -0x11(a6)
          0x005e4754      442effef       neg.b -0x11(a6)
          0x005e4758      522effef       addq.b 0x1, -0x11(a6)
          0x005e475c      1d680067fff0   move.b 0x67(a0), -0x10(a6)
          0x005e4762      442efff0       neg.b -0x10(a6)
          0x005e4766      522efff0       addq.b 0x1, -0x10(a6)
          0x005e476a      1d680068fff1   move.b 0x68(a0), -0xf(a6)
          0x005e4770      442efff1       neg.b -0xf(a6)
          0x005e4774      522efff1       addq.b 0x1, -0xf(a6)
          0x005e4778      9efc000c       suba.w 0xc, a7
          0x005e477c      224f           movea.l a7, a1
          0x005e477e      45e80316       lea.l 0x316(a0), a2
          0x005e4782      7007           moveq 0x7, d0
      > 0x005e4784      12da           move.b (a2)+, (a1)+
      < 0x005e4786      51c8fffc       dbra d0, 0x5e4784
          0x005e478a      4eb9006aa110   jsr DATE_UTILS.real_date
          0x005e4790      504f           addq.w 0x8, a7
          0x005e4792      2c17           move.l (a7), d6
          0x005e4794      514f           subq.w 0x8, a7
          0x005e4796      224f           movea.l a7, a1
          0x005e4798      45e8031e       lea.l 0x31e(a0), a2
          0x005e479c      7007           moveq 0x7, d0
      > 0x005e479e      12da           move.b (a2)+, (a1)+
      < 0x005e47a0      51c8fffc       dbra d0, 0x5e479e
          0x005e47a4      4eb9006aa110   jsr DATE_UTILS.real_date
          0x005e47aa      504f           addq.w 0x8, a7
          0x005e47ac      2a1f           move.l (a7)+, d5
          0x005e47ae      422efff2       clr.b -0xe(a6)
          0x005e47b2      2806           move.l d6, d4
          0x005e47b4      7600           moveq 0x0, d3
          0x005e47b6      4eb900407dd4   jsr fcn.00407dd4
      < 0x005e47bc      660c           bne.b 0x5e47ca
         0x005e47be      2805           move.l d5, d4
         0x005e47c0      7600           moveq 0x0, d3
         0x005e47c2      4eb900407dd4   jsr fcn.00407dd4
     < 0x005e47c8      6704           beq.b 0x5e47ce
     > 0x005e47ca      522efff2       addq.b 0x1, -0xe(a6)
     > 0x005e47ce      422804fe       clr.b 0x4fe(a0)
          0x005e47d2      594f           subq.w 0x4, a7
          0x005e47d4      4eb9006aa3ec   jsr DATE_UTILS.date_today
          0x005e47da      2d5fffde       move.l (a7)+, -0x22(a6)
          0x005e47de      486effde       pea.l -0x22(a6)
          0x005e47e2      4eb9006aa1d2   jsr DATE_UTILS.date_inc
          0x005e47e8      584f           addq.w 0x4, a7
          0x005e47ea      4a2e0020       tst.b 0x20(a6)
      < 0x005e47ee      6724           beq.b 0x5e4814
         0x005e47f0      206e000c       movea.l 0xc(a6), a0
         0x005e47f4      20ae0028       move.l 0x28(a6), (a0)
         0x005e47f8      4a2e0022       tst.b 0x22(a6)
     < 0x005e47fc      670a           beq.b 0x5e4808
        0x005e47fe      217cffffffff.  move.l 0xffffffff, 0x4(a0)
    < 0x005e4806      6008           bra.b 0x5e4810
    > 0x005e4808      217c7fffffff.  move.l 0x7fffffff, 0x4(a0)
    > 0x005e4810      42680008       clr.w 0x8(a0)
     > 0x005e4814      554f           subq.w 0x2, a7
         0x005e4816      486eff2a       pea.l -0xd6(a6)
         0x005e481a      4eb900404434   jsr fcn.00404434
         0x005e4820      584f           addq.w 0x4, a7
         0x005e4822      4a1f           tst.b (a7)+
     < 0x005e4824      6700077c       beq.w 0x5e4fa2
        0x005e4828      206e0024       movea.l 0x24(a6), a0
        0x005e482c      554f           subq.w 0x2, a7
        0x005e482e      4eb900402f52   jsr p_Flagged
        0x005e4834      4a1f           tst.b (a7)+
    < 0x005e4836      6606           bne.b 0x5e483e
       0x005e4838      4a2804fe       tst.b 0x4fe(a0)
   < 0x005e483c      6714           beq.b 0x5e4852
   > 0x005e483e      226e0008       movea.l 0x8(a6), a1
       0x005e4842      12bc0001       move.b 0x1, (a1)
       0x005e4846      486eff74       pea.l -0x8c(a6)
       0x005e484a      4eb900404468   jsr fcn.00404468
       0x005e4850      584f           addq.w 0x4, a7
   > 0x005e4852      226e000c       movea.l 0xc(a6), a1
        0x005e4856      554f           subq.w 0x2, a7
        0x005e4858      4851           pea.l (a1)
        0x005e485a      3f280312       move.w 0x312(a0), -(a7)
        0x005e485e      3f280314       move.w 0x314(a0), -(a7)
        0x005e4862      1f2e0022       move.b 0x22(a6), -(a7)
        0x005e4866      486effbe       pea.l -0x42(a6)
        0x005e486a      4eb900607986   jsr F10_FILELIST.f_find_file
        0x005e4870      defc000e       adda.w 0xe, a7
        0x005e4874      4a1f           tst.b (a7)+
    < 0x005e4876      667c           bne.b 0x5e48f4
       0x005e4878      554f           subq.w 0x2, a7
       0x005e487a      4eb9005ef980   jsr F2_UTILITY.f_eof
       0x005e4880      4a1f           tst.b (a7)+
   < 0x005e4882      6706           beq.b 0x5e488a
      0x005e4884      246e001c       movea.l 0x1c(a6), a2
  < 0x005e4888      605a           bra.b 0x5e48e4
  > 0x005e488a      9efc0100       suba.w 0x100, a7
      0x005e488e      4eb900408ec0   jsr p_err_string
      0x005e4894      487aa7fc       pea.l 0x5df092(pc)
      0x005e4898      4878000a       pea.l 0xa
      0x005e489c      2f17           move.l (a7), -(a7)
      0x005e489e      4eb9004047ea   jsr p_wts_o
      0x005e48a4      defc000c       adda.w 0xc, a7
      0x005e48a8      486f0001       pea.l 0x1(a7)
      0x005e48ac      42a7           clr.l -(a7)
      0x005e48ae      1f6f00080003   move.b 0x8(a7), 0x3(a7)
      0x005e48b4      2f17           move.l (a7), -(a7)
      0x005e48b6      4eb9004047ea   jsr p_wts_o
      0x005e48bc      defc010c       adda.w 0x10c, a7
      0x005e48c0      487aa7db       pea.l 0x5df09d(pc)
      0x005e48c4      4878000f       pea.l 0xf
      0x005e48c8      2f17           move.l (a7), -(a7)
      0x005e48ca      4eb9004047ea   jsr p_wts_o
      0x005e48d0      defc000c       adda.w 0xc, a7
      0x005e48d4      4eb900404946   jsr p_wtln_o
      0x005e48da      4eb900404188   jsr p_Unlink
      0x005e48e0      246e001c       movea.l 0x1c(a6), a2
  > 0x005e48e4      14bc0001       move.b 0x1, (a2)
       0x005e48e8      486eff74       pea.l -0x8c(a6)
       0x005e48ec      4eb900404468   jsr fcn.00404468
       0x005e48f2      584f           addq.w 0x4, a7
    > 0x005e48f4      4a280063       tst.b 0x63(a0)
    < 0x005e48f8      6768           beq.b 0x5e4962
       0x005e48fa      45fa984c       lea.l 0x5de148(pc), a2
       0x005e48fe      47e802f2       lea.l 0x2f2(a0), a3
       0x005e4902      701f           moveq 0x1f, d0
   > 0x005e4904      b70a           cmpm.b (a2)+, (a3)+
   < 0x005e4906      56c8fffc       dbne d0, 0x5e4904
   < 0x005e490a      6612           bne.b 0x5e491e
      0x005e490c      554f           subq.w 0x2, a7
      0x005e490e      3f2effbe       move.w -0x42(a6), -(a7)
      0x005e4912      4ebaad60       jsr SEARCHER.in_all_types_gr(pc)
      0x005e4916      544f           addq.w 0x2, a7
      0x005e4918      4a1f           tst.b (a7)+
  < 0x005e491a      6646           bne.b 0x5e4962
 < 0x005e491c      6038           bra.b 0x5e4956
 > 0x005e491e      554f           subq.w 0x2, a7
     0x005e4920      3f2effbe       move.w -0x42(a6), -(a7)
     0x005e4924      4ebaaea4       jsr SEARCHER.convert_extn(pc)
     0x005e4928      544f           addq.w 0x2, a7
     0x005e492a      4a5f           tst.w (a7)+
 < 0x005e492c      6c02           bge.b 0x5e4930
 < 0x005e492e      6026           bra.b 0x5e4956
 > 0x005e4930      554f           subq.w 0x2, a7
     0x005e4932      3f2effbe       move.w -0x42(a6), -(a7)
     0x005e4936      4ebaae92       jsr SEARCHER.convert_extn(pc)
     0x005e493a      544f           addq.w 0x2, a7
     0x005e493c      301f           move.w (a7)+, d0
     0x005e493e      45e802f2       lea.l 0x2f2(a0), a2
     0x005e4942      3200           move.w d0, d1
     0x005e4944      e649           lsr.w 0x3, d1
     0x005e4946      0c410020       cmpi.w 0x20, d1
 < 0x005e494a      6d04           blt.b 0x5e4950
    0x005e494c      7200           moveq 0x0, d1
 < 0x005e494e      6004           bra.b 0x5e4954
 > 0x005e4950      01321000       btst.l d0, (a2, d1.w)
 < 0x005e4954      660c           bne.b 0x5e4962
 > 0x005e4956      486eff2a       pea.l -0xd6(a6)
     0x005e495a      4eb900404468   jsr fcn.00404468
     0x005e4960      584f           addq.w 0x4, a7
  > 0x005e4962      2d7cffff0001.  move.l 0xffff0001, -0x3e(a6)
        0x005e496a      9efc000c       suba.w 0xc, a7
        0x005e496e      244f           movea.l a7, a2
        0x005e4970      2649           movea.l a1, a3
        0x005e4972      7009           moveq 0x9, d0
    > 0x005e4974      14db           move.b (a3)+, (a2)+
    < 0x005e4976      51c8fffc       dbra d0, 0x5e4974
        0x005e497a      4227           clr.b -(a7)
        0x005e497c      486effc2       pea.l -0x3e(a6)
        0x005e4980      4eb9006082de   jsr F10_FILELIST.f_get_header
        0x005e4986      defc0010       adda.w 0x10, a7
        0x005e498a      4a1f           tst.b (a7)+
    < 0x005e498c      666a           bne.b 0x5e49f8
       0x005e498e      9efc0100       suba.w 0x100, a7
       0x005e4992      4eb900408ec0   jsr p_err_string
       0x005e4998      487aa725       pea.l 0x5df0bf(pc)
       0x005e499c      4878000a       pea.l 0xa
       0x005e49a0      2f17           move.l (a7), -(a7)
       0x005e49a2      4eb9004047ea   jsr p_wts_o
       0x005e49a8      defc000c       adda.w 0xc, a7
       0x005e49ac      486f0001       pea.l 0x1(a7)
       0x005e49b0      42a7           clr.l -(a7)
       0x005e49b2      1f6f00080003   move.b 0x8(a7), 0x3(a7)
       0x005e49b8      2f17           move.l (a7), -(a7)
       0x005e49ba      4eb9004047ea   jsr p_wts_o
       0x005e49c0      defc010c       adda.w 0x10c, a7
       0x005e49c4      487aa704       pea.l 0x5df0ca(pc)
       0x005e49c8      48780010       pea.l 0x10
       0x005e49cc      2f17           move.l (a7), -(a7)
       0x005e49ce      4eb9004047ea   jsr p_wts_o
       0x005e49d4      defc000c       adda.w 0xc, a7
       0x005e49d8      4eb900404946   jsr p_wtln_o
       0x005e49de      4eb900404188   jsr p_Unlink
       0x005e49e4      246e001c       movea.l 0x1c(a6), a2
       0x005e49e8      14bc0001       move.b 0x1, (a2)
       0x005e49ec      486eff74       pea.l -0x8c(a6)
       0x005e49f0      4eb900404468   jsr fcn.00404468
       0x005e49f6      584f           addq.w 0x4, a7
    > 0x005e49f8      4a2effef       tst.b -0x11(a6)
    < 0x005e49fc      6722           beq.b 0x5e4a20
       0x005e49fe      554f           subq.w 0x2, a7
       0x005e4a00      2f2effc2       move.l -0x3e(a6), -(a7)
       0x005e4a04      48780014       pea.l 0x14
       0x005e4a08      486800d0       pea.l 0xd0(a0)
       0x005e4a0c      4ebafbb4       jsr SEARCHER.match_str(pc)
       0x005e4a10      defc000c       adda.w 0xc, a7
       0x005e4a14      4a1f           tst.b (a7)+
   < 0x005e4a16      6608           bne.b 0x5e4a20
      0x005e4a18      49eeff2a       lea.l -0xd6(a6), a4
      0x005e4a1c      4ebafc0e       jsr SEARCHER.not_this_one(pc)
   > 0x005e4a20      4a2efff0       tst.b -0x10(a6)
    < 0x005e4a24      6726           beq.b 0x5e4a4c
       0x005e4a26      554f           subq.w 0x2, a7
       0x005e4a28      2f2effc2       move.l -0x3e(a6), -(a7)
       0x005e4a2c      48780015       pea.l 0x15
       0x005e4a30      206e0024       movea.l 0x24(a6), a0
       0x005e4a34      48680186       pea.l 0x186(a0)
       0x005e4a38      4ebafb88       jsr SEARCHER.match_str(pc)
       0x005e4a3c      defc000c       adda.w 0xc, a7
       0x005e4a40      4a1f           tst.b (a7)+
   < 0x005e4a42      6608           bne.b 0x5e4a4c
      0x005e4a44      49eeff2a       lea.l -0xd6(a6), a4
      0x005e4a48      4ebafbe2       jsr SEARCHER.not_this_one(pc)
   > 0x005e4a4c      4a2efff1       tst.b -0xf(a6)
    < 0x005e4a50      6726           beq.b 0x5e4a78
       0x005e4a52      554f           subq.w 0x2, a7
       0x005e4a54      2f2effc2       move.l -0x3e(a6), -(a7)
       0x005e4a58      48780016       pea.l 0x16
       0x005e4a5c      206e0024       movea.l 0x24(a6), a0
       0x005e4a60      4868023c       pea.l 0x23c(a0)
       0x005e4a64      4ebafb5c       jsr SEARCHER.match_str(pc)
       0x005e4a68      defc000c       adda.w 0xc, a7
       0x005e4a6c      4a1f           tst.b (a7)+
   < 0x005e4a6e      6608           bne.b 0x5e4a78
      0x005e4a70      49eeff2a       lea.l -0xd6(a6), a4
      0x005e4a74      4ebafbb6       jsr SEARCHER.not_this_one(pc)
   > 0x005e4a78      554f           subq.w 0x2, a7
        0x005e4a7a      2f2effc2       move.l -0x3e(a6), -(a7)
        0x005e4a7e      486efff8       pea.l -0x8(a6)
        0x005e4a82      486effbe       pea.l -0x42(a6)
        0x005e4a86      4eb9006084e0   jsr F10_FILELIST.f_hdr_time_crea
        0x005e4a8c      defc000c       adda.w 0xc, a7
        0x005e4a90      4a1f           tst.b (a7)+
    < 0x005e4a92      66000086       bne.w 0x5e4b1a
       0x005e4a96      9efc0100       suba.w 0x100, a7
       0x005e4a9a      4eb900408ec0   jsr p_err_string
       0x005e4aa0      9efc0100       suba.w 0x100, a7
       0x005e4aa4      4851           pea.l (a1)
       0x005e4aa6      4eb9005ef416   jsr F2_UTILITY.f_fid_string
       0x005e4aac      584f           addq.w 0x4, a7
       0x005e4aae      487aa62b       pea.l 0x5df0db(pc)
       0x005e4ab2      4878000d       pea.l 0xd
       0x005e4ab6      2f17           move.l (a7), -(a7)
       0x005e4ab8      4eb9004047ea   jsr p_wts_o
       0x005e4abe      defc000c       adda.w 0xc, a7
       0x005e4ac2      486f0101       pea.l 0x101(a7)
       0x005e4ac6      42a7           clr.l -(a7)
       0x005e4ac8      1f6f01080003   move.b 0x108(a7), 0x3(a7)
       0x005e4ace      2f17           move.l (a7), -(a7)
       0x005e4ad0      4eb9004047ea   jsr p_wts_o
       0x005e4ad6      defc000c       adda.w 0xc, a7
       0x005e4ada      487aa60d       pea.l 0x5df0e9(pc)
       0x005e4ade      48780019       pea.l 0x19
       0x005e4ae2      2f17           move.l (a7), -(a7)
       0x005e4ae4      4eb9004047ea   jsr p_wts_o
       0x005e4aea      defc000c       adda.w 0xc, a7
       0x005e4aee      486f0001       pea.l 0x1(a7)
       0x005e4af2      42a7           clr.l -(a7)
       0x005e4af4      1f6f00080003   move.b 0x8(a7), 0x3(a7)
       0x005e4afa      2f17           move.l (a7), -(a7)
       0x005e4afc      4eb9004047ea   jsr p_wts_o
       0x005e4b02      defc020c       adda.w 0x20c, a7
       0x005e4b06      4eb900404946   jsr p_wtln_o
       0x005e4b0c      4eb900404188   jsr p_Unlink
       0x005e4b12      49eeff2a       lea.l -0xd6(a6), a4
       0x005e4b16      4ebafb14       jsr SEARCHER.not_this_one(pc)
    > 0x005e4b1a      594f           subq.w 0x4, a7
        0x005e4b1c      2f2efffc       move.l -0x4(a6), -(a7)
        0x005e4b20      2f2efff8       move.l -0x8(a6), -(a7)
        0x005e4b24      4eb9006aa110   jsr DATE_UTILS.real_date
        0x005e4b2a      504f           addq.w 0x8, a7
        0x005e4b2c      2e1f           move.l (a7)+, d7
        0x005e4b2e      4a2efff2       tst.b -0xe(a6)
    < 0x005e4b32      673c           beq.b 0x5e4b70
       0x005e4b34      206e0024       movea.l 0x24(a6), a0
       0x005e4b38      2807           move.l d7, d4
       0x005e4b3a      2606           move.l d6, d3
       0x005e4b3c      4eb900407dd4   jsr fcn.00407dd4
   < 0x005e4b42      6c0c           bge.b 0x5e4b50
      0x005e4b44      2806           move.l d6, d4
      0x005e4b46      7600           moveq 0x0, d3
      0x005e4b48      4eb900407dd4   jsr fcn.00407dd4
  < 0x005e4b4e      6618           bne.b 0x5e4b68
  > 0x005e4b50      2807           move.l d7, d4
      0x005e4b52      2605           move.l d5, d3
      0x005e4b54      4eb900407dd4   jsr fcn.00407dd4
  < 0x005e4b5a      6f14           ble.b 0x5e4b70
     0x005e4b5c      2805           move.l d5, d4
     0x005e4b5e      7600           moveq 0x0, d3
     0x005e4b60      4eb900407dd4   jsr fcn.00407dd4
 < 0x005e4b66      6708           beq.b 0x5e4b70
 > 0x005e4b68      49eeff2a       lea.l -0xd6(a6), a4
     0x005e4b6c      4ebafabe       jsr SEARCHER.not_this_one(pc)
 > 0x005e4b70      2807           move.l d7, d4
        0x005e4b72      262effde       move.l -0x22(a6), d3
        0x005e4b76      4eb900407dd4   jsr fcn.00407dd4
    < 0x005e4b7c      6f000118       ble.w 0x5e4c96
       0x005e4b80      9efc0100       suba.w 0x100, a7
       0x005e4b84      4851           pea.l (a1)
       0x005e4b86      4eb9005ef416   jsr F2_UTILITY.f_fid_string
       0x005e4b8c      584f           addq.w 0x4, a7
       0x005e4b8e      487aa573       pea.l 0x5df103(pc)
       0x005e4b92      48780017       pea.l 0x17
       0x005e4b96      2f17           move.l (a7), -(a7)
       0x005e4b98      4eb9004047ea   jsr p_wts_o
       0x005e4b9e      defc000c       adda.w 0xc, a7
       0x005e4ba2      486f0001       pea.l 0x1(a7)
       0x005e4ba6      42a7           clr.l -(a7)
       0x005e4ba8      1f6f00080003   move.b 0x8(a7), 0x3(a7)
       0x005e4bae      2f17           move.l (a7), -(a7)
       0x005e4bb0      4eb9004047ea   jsr p_wts_o
       0x005e4bb6      defc010c       adda.w 0x10c, a7
       0x005e4bba      4280           clr.l d0
       0x005e4bbc      102efffb       move.b -0x5(a6), d0
       0x005e4bc0      2f00           move.l d0, -(a7)
       0x005e4bc2      48780001       pea.l 0x1
       0x005e4bc6      4eb9004070e4   jsr p_wti_o
       0x005e4bcc      5c4f           addq.w 0x6, a7
       0x005e4bce      1ebc003a       move.b 0x3a, (a7)
       0x005e4bd2      48780001       pea.l 0x1
       0x005e4bd6      4eb9004048b4   jsr p_wtc_o
       0x005e4bdc      5c4f           addq.w 0x6, a7
       0x005e4bde      4280           clr.l d0
       0x005e4be0      102efffc       move.b -0x4(a6), d0
       0x005e4be4      2f00           move.l d0, -(a7)
       0x005e4be6      48780001       pea.l 0x1
       0x005e4bea      4eb9004070e4   jsr p_wti_o
       0x005e4bf0      5c4f           addq.w 0x6, a7
       0x005e4bf2      1ebc003a       move.b 0x3a, (a7)
       0x005e4bf6      48780001       pea.l 0x1
       0x005e4bfa      4eb9004048b4   jsr p_wtc_o
       0x005e4c00      5c4f           addq.w 0x6, a7
       0x005e4c02      4280           clr.l d0
       0x005e4c04      102efffd       move.b -0x3(a6), d0
       0x005e4c08      2f00           move.l d0, -(a7)
       0x005e4c0a      48780001       pea.l 0x1
       0x005e4c0e      4eb9004070e4   jsr p_wti_o
       0x005e4c14      5c4f           addq.w 0x6, a7
       0x005e4c16      1ebc0020       move.b 0x20, (a7)
       0x005e4c1a      48780001       pea.l 0x1
       0x005e4c1e      4eb9004048b4   jsr p_wtc_o
       0x005e4c24      5c4f           addq.w 0x6, a7
       0x005e4c26      4280           clr.l d0
       0x005e4c28      102efffa       move.b -0x6(a6), d0
       0x005e4c2c      2f00           move.l d0, -(a7)
       0x005e4c2e      48780001       pea.l 0x1
       0x005e4c32      4eb9004070e4   jsr p_wti_o
       0x005e4c38      5c4f           addq.w 0x6, a7
       0x005e4c3a      1ebc003a       move.b 0x3a, (a7)
       0x005e4c3e      48780001       pea.l 0x1
       0x005e4c42      4eb9004048b4   jsr p_wtc_o
       0x005e4c48      5c4f           addq.w 0x6, a7
       0x005e4c4a      4280           clr.l d0
       0x005e4c4c      102efff9       move.b -0x7(a6), d0
       0x005e4c50      2f00           move.l d0, -(a7)
       0x005e4c52      48780001       pea.l 0x1
       0x005e4c56      4eb9004070e4   jsr p_wti_o
       0x005e4c5c      5c4f           addq.w 0x6, a7
       0x005e4c5e      1ebc003a       move.b 0x3a, (a7)
       0x005e4c62      48780001       pea.l 0x1
       0x005e4c66      4eb9004048b4   jsr p_wtc_o
       0x005e4c6c      5c4f           addq.w 0x6, a7
       0x005e4c6e      4280           clr.l d0
       0x005e4c70      102efff8       move.b -0x8(a6), d0
       0x005e4c74      064007bc       addi.w 0x7bc, d0
       0x005e4c78      48c0           ext.l d0
       0x005e4c7a      2f00           move.l d0, -(a7)
       0x005e4c7c      48780004       pea.l 0x4
       0x005e4c80      4eb9004070e4   jsr p_wti_o
       0x005e4c86      504f           addq.w 0x8, a7
       0x005e4c88      4eb900404946   jsr p_wtln_o
       0x005e4c8e      49eeff2a       lea.l -0xd6(a6), a4
       0x005e4c92      4ebaf998       jsr SEARCHER.not_this_one(pc)
    > 0x005e4c96      206e0024       movea.l 0x24(a6), a0
        0x005e4c9a      4a28006c       tst.b 0x6c(a0)
    < 0x005e4c9e      660001a2       bne.w 0x5e4e42
       0x005e4ca2      9efc000c       suba.w 0xc, a7
       0x005e4ca6      2f11           move.l (a1), -(a7)
       0x005e4ca8      4eb9005fb748   jsr F6_VOLUME.f_vol_status
       0x005e4cae      584f           addq.w 0x4, a7
       0x005e4cb0      2d5fffe2       move.l (a7)+, -0x1e(a6)
       0x005e4cb4      2d5fffe6       move.l (a7)+, -0x1a(a6)
       0x005e4cb8      2d5fffea       move.l (a7)+, -0x16(a6)
       0x005e4cbc      4a2effe4       tst.b -0x1c(a6)
   < 0x005e4cc0      670a           beq.b 0x5e4ccc
      0x005e4cc2      2d7c00ffffff.  move.l 0xffffff, -0x36(a6)
  < 0x005e4cca      6006           bra.b 0x5e4cd2
  > 0x005e4ccc      2d6effe6ffca   move.l -0x1a(a6), -0x36(a6)
  > 0x005e4cd2      4a2effcb       tst.b -0x35(a6)
   < 0x005e4cd6      6608           bne.b 0x5e4ce0
      0x005e4cd8      2d7aa440ffc6   move.l 0x5df11a(pc), -0x3a(a6)
  < 0x005e4cde      6010           bra.b 0x5e4cf0
  > 0x005e4ce0      594f           subq.w 0x4, a7
      0x005e4ce2      2f11           move.l (a1), -(a7)
      0x005e4ce4      4eb9006bd82c   jsr USER2_DISK.volume_region
      0x005e4cea      584f           addq.w 0x4, a7
      0x005e4cec      2d5fffc6       move.l (a7)+, -0x3a(a6)
  > 0x005e4cf0      302effbe       move.w -0x42(a6), d0
       0x005e4cf4      0c400194       cmpi.w 0x194, d0
   < 0x005e4cf8      6706           beq.b 0x5e4d00
      0x005e4cfa      0c40019e       cmpi.w 0x19e, d0
  < 0x005e4cfe      661a           bne.b 0x5e4d1a
  > 0x005e4d00      554f           subq.w 0x2, a7
      0x005e4d02      2f2effc2       move.l -0x3e(a6), -(a7)
      0x005e4d06      486efff4       pea.l -0xc(a6)
      0x005e4d0a      4eb9005e755a   jsr FILER_UTILITIES.fu_get_fontnum
      0x005e4d10      504f           addq.w 0x8, a7
      0x005e4d12      1d5fffee       move.b (a7)+, -0x12(a6)
  < 0x005e4d16      600000c2       bra.w 0x5e4dda
  > 0x005e4d1a      9efc000a       suba.w 0xa, a7
      0x005e4d1e      244f           movea.l a7, a2
      0x005e4d20      2649           movea.l a1, a3
      0x005e4d22      7009           moveq 0x9, d0
  > 0x005e4d24      14db           move.b (a3)+, (a2)+
  < 0x005e4d26      51c8fffc       dbra d0, 0x5e4d24
      0x005e4d2a      2f2effc6       move.l -0x3a(a6), -(a7)
      0x005e4d2e      486effee       pea.l -0x12(a6)
      0x005e4d32      486effc0       pea.l -0x40(a6)
      0x005e4d36      4eb9006b16e4   jsr USER.pic_number
      0x005e4d3c      defc0016       adda.w 0x16, a7
      0x005e4d40      4280           clr.l d0
      0x005e4d42      302effc0       move.w -0x40(a6), d0
      0x005e4d46      2d40fff4       move.l d0, -0xc(a6)
      0x005e4d4a      4a2effee       tst.b -0x12(a6)
  < 0x005e4d4e      6742           beq.b 0x5e4d92
     0x005e4d50      0c800000ffff   cmpi.l 0xffff, d0
 < 0x005e4d56      663a           bne.b 0x5e4d92
    0x005e4d58      487aa3c5       pea.l 0x5df11f(pc)
    0x005e4d5c      48780011       pea.l 0x11
    0x005e4d60      2f17           move.l (a7), -(a7)
    0x005e4d62      4eb9004047ea   jsr p_wts_o
    0x005e4d68      504f           addq.w 0x8, a7
    0x005e4d6a      2e80           move.l d0, (a7)
    0x005e4d6c      48780000       pea.l 0x0
    0x005e4d70      4eb9004070e4   jsr p_wti_o
    0x005e4d76      504f           addq.w 0x8, a7
    0x005e4d78      487aa3b7       pea.l 0x5df131(pc)
    0x005e4d7c      48780017       pea.l 0x17
    0x005e4d80      2f17           move.l (a7), -(a7)
    0x005e4d82      4eb9004047ea   jsr p_wts_o
    0x005e4d88      defc000c       adda.w 0xc, a7
    0x005e4d8c      4eb900404946   jsr p_wtln_o
 > 0x005e4d92      4a2effee       tst.b -0x12(a6)
  < 0x005e4d96      6642           bne.b 0x5e4dda
     0x005e4d98      0c800000ffff   cmpi.l 0xffff, d0
 < 0x005e4d9e      673a           beq.b 0x5e4dda
    0x005e4da0      487aa3a7       pea.l 0x5df149(pc)
    0x005e4da4      48780015       pea.l 0x15
    0x005e4da8      2f17           move.l (a7), -(a7)
    0x005e4daa      4eb9004047ea   jsr p_wts_o
    0x005e4db0      504f           addq.w 0x8, a7
    0x005e4db2      2e80           move.l d0, (a7)
    0x005e4db4      48780000       pea.l 0x0
    0x005e4db8      4eb9004070e4   jsr p_wti_o
    0x005e4dbe      504f           addq.w 0x8, a7
    0x005e4dc0      487aa39d       pea.l 0x5df15f(pc)
    0x005e4dc4      48780014       pea.l 0x14
    0x005e4dc8      2f17           move.l (a7), -(a7)
    0x005e4dca      4eb9004047ea   jsr p_wts_o
    0x005e4dd0      defc000c       adda.w 0xc, a7
    0x005e4dd4      4eb900404946   jsr p_wtln_o
 > 0x005e4dda      4a2effee       tst.b -0x12(a6)
   < 0x005e4dde      6608           bne.b 0x5e4de8
      0x005e4de0      2d7c7fffffff.  move.l 0x7fffffff, -0xc(a6)
   > 0x005e4de8      20280326       move.l 0x326(a0), d0
       0x005e4dec      0c807fffffff   cmpi.l 0x7fffffff, d0
   < 0x005e4df2      660e           bne.b 0x5e4e02
      0x005e4df4      2228032a       move.l 0x32a(a0), d1
      0x005e4df8      0c817fffffff   cmpi.l 0x7fffffff, d1
  < 0x005e4dfe      6602           bne.b 0x5e4e02
 < 0x005e4e00      6040           bra.b 0x5e4e42
 > 0x005e4e02      222efff4       move.l -0xc(a6), d1
      0x005e4e06      0c817fffffff   cmpi.l 0x7fffffff, d1
  < 0x005e4e0c      6602           bne.b 0x5e4e10
 < 0x005e4e0e      602a           bra.b 0x5e4e3a
 > 0x005e4e10      0c807fffffff   cmpi.l 0x7fffffff, d0
 < 0x005e4e16      6608           bne.b 0x5e4e20
    0x005e4e18      b2a8032a       cmp.l 0x32a(a0), d1
 < 0x005e4e1c      6f24           ble.b 0x5e4e42
 < 0x005e4e1e      601a           bra.b 0x5e4e3a
 > 0x005e4e20      2428032a       move.l 0x32a(a0), d2
     0x005e4e24      0c827fffffff   cmpi.l 0x7fffffff, d2
 < 0x005e4e2a      6606           bne.b 0x5e4e32
    0x005e4e2c      b280           cmp.l d0, d1
 < 0x005e4e2e      6c12           bge.b 0x5e4e42
 < 0x005e4e30      6008           bra.b 0x5e4e3a
 > 0x005e4e32      b280           cmp.l d0, d1
 < 0x005e4e34      6d04           blt.b 0x5e4e3a
    0x005e4e36      b282           cmp.l d2, d1
 < 0x005e4e38      6f08           ble.b 0x5e4e42
 > 0x005e4e3a      49eeff2a       lea.l -0xd6(a6), a4
      0x005e4e3e      4ebaf7ec       jsr SEARCHER.not_this_one(pc)
 > 0x005e4e42      206e0024       movea.l 0x24(a6), a0
        0x005e4e46      45fa9300       lea.l 0x5de148(pc), a2
        0x005e4e4a      47e8049e       lea.l 0x49e(a0), a3
        0x005e4e4e      701f           moveq 0x1f, d0
    > 0x005e4e50      b70a           cmpm.b (a2)+, (a3)+
    < 0x005e4e52      56c8fffc       dbne d0, 0x5e4e50
    < 0x005e4e56      6746           beq.b 0x5e4e9e
       0x005e4e58      554f           subq.w 0x2, a7
       0x005e4e5a      3f3c004a       move.w 0x4a, -(a7)
       0x005e4e5e      2f2effc2       move.l -0x3e(a6), -(a7)
       0x005e4e62      45eeffce       lea.l -0x32(a6), a2
       0x005e4e66      2f0a           move.l a2, -(a7)
       0x005e4e68      3f3c0004       move.w 0x4, -(a7)
       0x005e4e6c      4eb9005eed1e   jsr f_get_field
       0x005e4e72      defc000c       adda.w 0xc, a7
       0x005e4e76      4a1f           tst.b (a7)+
   < 0x005e4e78      671c           beq.b 0x5e4e96
      0x005e4e7a      302effd0       move.w -0x30(a6), d0
      0x005e4e7e      45e8049e       lea.l 0x49e(a0), a2
      0x005e4e82      3200           move.w d0, d1
      0x005e4e84      e649           lsr.w 0x3, d1
      0x005e4e86      0c410020       cmpi.w 0x20, d1
  < 0x005e4e8a      6d04           blt.b 0x5e4e90
     0x005e4e8c      7200           moveq 0x0, d1
 < 0x005e4e8e      6004           bra.b 0x5e4e94
 > 0x005e4e90      01321000       btst.l d0, (a2, d1.w)
 < 0x005e4e94      6608           bne.b 0x5e4e9e
  > 0x005e4e96      49eeff2a       lea.l -0xd6(a6), a4
      0x005e4e9a      4ebaf790       jsr SEARCHER.not_this_one(pc)
  > 0x005e4e9e      206e0024       movea.l 0x24(a6), a0
        0x005e4ea2      102804be       move.b 0x4be(a0), d0
        0x005e4ea6      b03a92a0       cmp.b 0x5de148(pc), d0
    < 0x005e4eaa      670000ba       beq.w 0x5e4f66
       0x005e4eae      0828000004be   btst.b 0x0, 0x4be(a0)
   < 0x005e4eb4      6728           beq.b 0x5e4ede
      0x005e4eb6      4227           clr.b -(a7)
      0x005e4eb8      9efc0100       suba.w 0x100, a7
      0x005e4ebc      1ebaa2b5       move.b 0x5df173(pc), (a7)
      0x005e4ec0      1f7aa2b20001   move.b 0x5df174(pc), 0x1(a7)
      0x005e4ec6      1f7aa2ad0002   move.b 0x5df175(pc), 0x2(a7)
      0x005e4ecc      1f7aa2a80003   move.b 0x5df176(pc), 0x3(a7)
      0x005e4ed2      49eeff2a       lea.l -0xd6(a6), a4
      0x005e4ed6      4ebaf780       jsr SEARCHER.check_plane(pc)
      0x005e4eda      defc0102       adda.w 0x102, a7
   > 0x005e4ede      246e0024       movea.l 0x24(a6), a2
       0x005e4ee2      082a000104be   btst.b 0x1, 0x4be(a2)
   < 0x005e4ee8      6722           beq.b 0x5e4f0c
      0x005e4eea      1f3c0001       move.b 0x1, -(a7)
      0x005e4eee      9efc0100       suba.w 0x100, a7
      0x005e4ef2      244f           movea.l a7, a2
      0x005e4ef4      47faa281       lea.l 0x5df177(pc), a3
      0x005e4ef8      7004           moveq 0x4, d0
  > 0x005e4efa      14db           move.b (a3)+, (a2)+
  < 0x005e4efc      51c8fffc       dbra d0, 0x5e4efa
      0x005e4f00      49eeff2a       lea.l -0xd6(a6), a4
      0x005e4f04      4ebaf752       jsr SEARCHER.check_plane(pc)
      0x005e4f08      defc0102       adda.w 0x102, a7
   > 0x005e4f0c      246e0024       movea.l 0x24(a6), a2
       0x005e4f10      082a000204be   btst.b 0x2, 0x4be(a2)
   < 0x005e4f16      671e           beq.b 0x5e4f36
      0x005e4f18      1f3c0008       move.b 0x8, -(a7)
      0x005e4f1c      9efc00fc       suba.w 0xfc, a7
      0x005e4f20      2f3aa25a       move.l 0x5df17c(pc), -(a7)
      0x005e4f24      3f7aa25a0004   move.w 0x5df180(pc), 0x4(a7)
      0x005e4f2a      49eeff2a       lea.l -0xd6(a6), a4
      0x005e4f2e      4ebaf728       jsr SEARCHER.check_plane(pc)
      0x005e4f32      defc0102       adda.w 0x102, a7
   > 0x005e4f36      246e0024       movea.l 0x24(a6), a2
       0x005e4f3a      082a000304be   btst.b 0x3, 0x4be(a2)
   < 0x005e4f40      6724           beq.b 0x5e4f66
      0x005e4f42      1f3c000a       move.b 0xa, -(a7)
      0x005e4f46      9efc00fc       suba.w 0xfc, a7
      0x005e4f4a      2f3aa236       move.l 0x5df182(pc), -(a7)
      0x005e4f4e      2f7aa2360004   move.l 0x5df186(pc), 0x4(a7)
      0x005e4f54      3f7aa2340008   move.w 0x5df18a(pc), 0x8(a7)
      0x005e4f5a      49eeff2a       lea.l -0xd6(a6), a4
      0x005e4f5e      4ebaf6f8       jsr SEARCHER.check_plane(pc)
      0x005e4f62      defc0102       adda.w 0x102, a7
   > 0x005e4f66      486effc2       pea.l -0x3e(a6)
        0x005e4f6a      4eb90060500e   jsr F9_FILERDWRT.f_free_block
        0x005e4f70      514f           subq.w 0x8, a7
        0x005e4f72      204f           movea.l a7, a0
        0x005e4f74      7009           moveq 0x9, d0
    > 0x005e4f76      10d9           move.b (a1)+, (a0)+
    < 0x005e4f78      51c8fffc       dbra d0, 0x5e4f76
        0x005e4f7c      2f2e0010       move.l 0x10(a6), -(a7)
        0x005e4f80      206e0014       movea.l 0x14(a6), a0
        0x005e4f84      286e0018       movea.l 0x18(a6), a4
        0x005e4f88      4e90           jsr (a0)                    ; fcn.00000009
        0x005e4f8a      defc000e       adda.w 0xe, a7
        0x005e4f8e      286eff26       movea.l -0xda(a6), a4
        0x005e4f92      4a1f           tst.b (a7)+
    < 0x005e4f94      670c           beq.b 0x5e4fa2
       0x005e4f96      486eff74       pea.l -0x8c(a6)
       0x005e4f9a      4eb900404468   jsr fcn.00404468
       0x005e4fa0      584f           addq.w 0x4, a7
    > 0x005e4fa2      6000f870       bra.w 0x5e4814
       > 0x005e4fa6      4cdf1fff       movem.l (a7)+, d0-d7/a0-a4
           0x005e4faa      4e5e           unlk a6
           0x005e4fac      4e75           rts
            ; CALL XREF from SEARCHER.sea_indexed_fil @ 0x5e5094
 66: SEARCHER.none_found ();
           0x005e4fae      4e56fff0       link.w a6, 0xfff0
           0x005e4fb2      bfd5           cmpa.l (a5), a7
       < 0x005e4fb4      6206           bhi.b 0x5e4fbc
          0x005e4fb6      44fc0002       move.w 0x2, ccr
          0x005e4fba      4e76           trapv
       > 0x005e4fbc      defc0010       adda.w 0x10, a7
           0x005e4fc0      48e78080       movem.l d0/a0, -(a7)
           0x005e4fc4      206c00f0       movea.l 0xf0(a4), a0
           0x005e4fc8      10bc0001       move.b 0x1, (a0)
           0x005e4fcc      486c0008       pea.l 0x8(a4)
           0x005e4fd0      4eb900404468   jsr fcn.00404468
           0x005e4fd6      584f           addq.w 0x4, a7
           0x005e4fd8      4a2c00cf       tst.b 0xcf(a4)
           0x005e4fdc      302c00b8       move.w 0xb8(a4), d0
           0x005e4fe0      b06c00ba       cmp.w 0xba(a4), d0
           0x005e4fe4      b06c00b6       cmp.w 0xb6(a4), d0
           0x005e4fe8      4cdf0101       movem.l (a7)+, d0/a0
           0x005e4fec      4e5e           unlk a6
           0x005e4fee      4e75           rts
            ; CALL XREF from SEARCHER.sea_find_file @ 0x5e5f1e
 3540: SEARCHER.sea_indexed_fil ();
           ; var int32_t var_8h @ a7+0x8
           ; var int32_t var_108h @ a7+0x108
           ; var int32_t var_11ah @ a7+0x11a
           0x005e4ff0      4e56fcc6       link.w a6, 0xfcc6
           0x005e4ff4      bfd5           cmpa.l (a5), a7
       < 0x005e4ff6      6206           bhi.b 0x5e4ffe
          0x005e4ff8      44fc0002       move.w 0x2, ccr
          0x005e4ffc      4e76           trapv
       > 0x005e4ffe      defc026a       adda.w 0x26a, a7
           0x005e5002      48e7fff8       movem.l d0-d7/a0-a4, -(a7)
           0x005e5006      720c           moveq 0xc, d1
           0x005e5008      7401           moveq 0x1, d2
           0x005e500a      2d42ffdc       move.l d2, -0x24(a6)
           0x005e500e      422effee       clr.b -0x12(a6)
           0x005e5012      206e003a       movea.l 0x3a(a6), a0
           0x005e5016      b1e8fffc       cmpa.l -0x4(a0), a0
       < 0x005e501a      6702           beq.b 0x5e501e
          0x005e501c      4e4d           trap 0xd
       > 0x005e501e      1028006c       move.b 0x6c(a0), d0
           0x005e5022      4400           neg.b d0
           0x005e5024      5200           addq.b 0x1, d0
       < 0x005e5026      670e           beq.b 0x5e5036
          0x005e5028      226e0008       movea.l 0x8(a6), a1
          0x005e502c      2011           move.l (a1), d0
          0x005e502e      b082           cmp.l d2, d0
      < 0x005e5030      6f04           ble.b 0x5e5036
         0x005e5032      522effee       addq.b 0x1, -0x12(a6)
      > 0x005e5036      226e0010       movea.l 0x10(a6), a1
           0x005e503a      2a11           move.l (a1), d5
           0x005e503c      554f           subq.w 0x2, a7
           0x005e503e      486eff38       pea.l -0xc8(a6)
           0x005e5042      4eb900404434   jsr fcn.00404434
           0x005e5048      584f           addq.w 0x4, a7
           0x005e504a      4a1f           tst.b (a7)+
       < 0x005e504c      67000d5c       beq.w 0x5e5daa
          0x005e5050      422804fe       clr.b 0x4fe(a0)
          0x005e5054      4a2effee       tst.b -0x12(a6)
      < 0x005e5058      673e           beq.b 0x5e5098
         0x005e505a      2f2e003a       move.l 0x3a(a6), -(a7)
         0x005e505e      486efffd       pea.l -0x3(a6)
         0x005e5062      486efffe       pea.l -0x2(a6)
         0x005e5066      4ebace02       jsr SEARCHER.numbered_files_(pc)
         0x005e506a      dec1           adda.w d1, a7
         0x005e506c      4a2efffd       tst.b -0x3(a6)
     < 0x005e5070      6626           bne.b 0x5e5098
        0x005e5072      4a2efffe       tst.b -0x2(a6)
    < 0x005e5076      6620           bne.b 0x5e5098
       0x005e5078      487aa154       pea.l 0x5df1ce(pc)
       0x005e507c      4878002b       pea.l 0x2b
       0x005e5080      2f17           move.l (a7), -(a7)
       0x005e5082      4eb9004047ea   jsr p_wts_o
       0x005e5088      dec1           adda.w d1, a7
       0x005e508a      4eb900404946   jsr p_wtln_o
       0x005e5090      49eeff30       lea.l -0xd0(a6), a4
       0x005e5094      4ebaff18       jsr SEARCHER.none_found(pc)
    > 0x005e5098      554f           subq.w 0x2, a7
          0x005e509a      2f2e0036       move.l 0x36(a6), -(a7)
          0x005e509e      2f2e0032       move.l 0x32(a6), -(a7)
          0x005e50a2      3f2e0030       move.w 0x30(a6), -(a7)
          0x005e50a6      1f02           move.b d2, -(a7)
          0x005e50a8      486effdc       pea.l -0x24(a6)
          0x005e50ac      4eb90060c190   jsr F14_MAP.f_op_map
          0x005e50b2      defc0010       adda.w 0x10, a7
          0x005e50b6      4a1f           tst.b (a7)+
      < 0x005e50b8      665e           bne.b 0x5e5118
         0x005e50ba      9efc0100       suba.w 0x100, a7
         0x005e50be      4eb900408ec0   jsr p_err_string
         0x005e50c4      487aa134       pea.l 0x5df1fa(pc)
         0x005e50c8      48780006       pea.l 0x6
         0x005e50cc      2f17           move.l (a7), -(a7)
         0x005e50ce      4eb9004047ea   jsr p_wts_o
         0x005e50d4      dec1           adda.w d1, a7
         0x005e50d6      486f0001       pea.l 0x1(a7)
         0x005e50da      42a7           clr.l -(a7)
         0x005e50dc      1f6f00080003   move.b 0x8(a7), 0x3(a7)
         0x005e50e2      2f17           move.l (a7), -(a7)
         0x005e50e4      4eb9004047ea   jsr p_wts_o
         0x005e50ea      defc010c       adda.w 0x10c, a7
         0x005e50ee      487aa111       pea.l 0x5df201(pc)
         0x005e50f2      4878000d       pea.l 0xd
         0x005e50f6      2f17           move.l (a7), -(a7)
         0x005e50f8      4eb9004047ea   jsr p_wts_o
         0x005e50fe      dec1           adda.w d1, a7
         0x005e5100      4eb900404946   jsr p_wtln_o
         0x005e5106      4eb900404188   jsr p_Unlink
         0x005e510c      486eff38       pea.l -0xc8(a6)
         0x005e5110      4eb900404468   jsr fcn.00404468
         0x005e5116      584f           addq.w 0x4, a7
      > 0x005e5118      4a2e0024       tst.b 0x24(a6)
      < 0x005e511c      6600025a       bne.w 0x5e5378
         0x005e5120      4a2effee       tst.b -0x12(a6)
     < 0x005e5124      670000ac       beq.w 0x5e51d2
        0x005e5128      426effec       clr.w -0x14(a6)
        0x005e512c      9ec1           suba.w d1, a7
        0x005e512e      244f           movea.l a7, a2
        0x005e5130      2649           movea.l a1, a3
        0x005e5132      7009           moveq 0x9, d0
    > 0x005e5134      14db           move.b (a3)+, (a2)+
    < 0x005e5136      51c8fffc       dbra d0, 0x5e5134
        0x005e513a      486effec       pea.l -0x14(a6)
        0x005e513e      4eb900607b40   jsr F10_FILELIST.f_file_type
        0x005e5144      defc000e       adda.w 0xe, a7
        0x005e5148      4a1f           tst.b (a7)+
    < 0x005e514a      660a           bne.b 0x5e5156
       0x005e514c      4eb900404188   jsr p_Unlink
       0x005e5152      1d420024       move.b d2, 0x24(a6)
    > 0x005e5156      422effff       clr.b -0x1(a6)
        0x005e515a      302effec       move.w -0x14(a6), d0
        0x005e515e      0c40014a       cmpi.w 0x14a, d0
    < 0x005e5162      6604           bne.b 0x5e5168
       0x005e5164      522effff       addq.b 0x1, -0x1(a6)
    > 0x005e5168      4a2e0024       tst.b 0x24(a6)
    < 0x005e516c      6660           bne.b 0x5e51ce
       0x005e516e      554f           subq.w 0x2, a7
       0x005e5170      2f05           move.l d5, -(a7)
       0x005e5172      2f2e003a       move.l 0x3a(a6), -(a7)
       0x005e5176      1f2e0026       move.b 0x26(a6), -(a7)
       0x005e517a      102effff       move.b -0x1(a6), d0
       0x005e517e      4880           ext.w d0
       0x005e5180      4182           chk.w d2, d0
       0x005e5182      1f00           move.b d0, -(a7)
       0x005e5184      486efff0       pea.l -0x10(a6)
       0x005e5188      486effe8       pea.l -0x18(a6)
       0x005e518c      486effea       pea.l -0x16(a6)
       0x005e5190      486effe6       pea.l -0x1a(a6)
       0x005e5194      4ebacd84       jsr SEARCHER.get_num_range(pc)
       0x005e5198      defc001c       adda.w 0x1c, a7
       0x005e519c      4a1f           tst.b (a7)+
       0x005e519e      9efc000a       suba.w 0xa, a7
       0x005e51a2      244f           movea.l a7, a2
       0x005e51a4      2649           movea.l a1, a3
       0x005e51a6      7009           moveq 0x9, d0
   > 0x005e51a8      14db           move.b (a3)+, (a2)+
   < 0x005e51aa      51c8fffc       dbra d0, 0x5e51a8
       0x005e51ae      2f2efff0       move.l -0x10(a6), -(a7)
       0x005e51b2      486effef       pea.l -0x11(a6)
       0x005e51b6      486effe6       pea.l -0x1a(a6)
       0x005e51ba      4eb9006b16e4   jsr USER.pic_number
       0x005e51c0      defc0016       adda.w 0x16, a7
       0x005e51c4      4a2effef       tst.b -0x11(a6)
   < 0x005e51c8      6604           bne.b 0x5e51ce
      0x005e51ca      1d420024       move.b d2, 0x24(a6)
  > 0x005e51ce      600001a8       bra.w 0x5e5378
    > 0x005e51d2      4aa90004       tst.l 0x4(a1)
    < 0x005e51d6      6f0000ec       ble.w 0x5e52c4
       0x005e51da      9ec1           suba.w d1, a7
       0x005e51dc      244f           movea.l a7, a2
       0x005e51de      2649           movea.l a1, a3
       0x005e51e0      7009           moveq 0x9, d0
   > 0x005e51e2      14db           move.b (a3)+, (a2)+
   < 0x005e51e4      51c8fffc       dbra d0, 0x5e51e2
       0x005e51e8      246e0028       movea.l 0x28(a6), a2
       0x005e51ec      b5eafffc       cmpa.l -0x4(a2), a2
   < 0x005e51f0      6702           beq.b 0x5e51f4
      0x005e51f2      4e4d           trap 0xd
   > 0x005e51f4      486a0004       pea.l 0x4(a2)
       0x005e51f8      486eff34       pea.l -0xcc(a6)
       0x005e51fc      486effe4       pea.l -0x1c(a6)
       0x005e5200      1f02           move.b d2, -(a7)
       0x005e5202      4eb9005cb95a   jsr INDEX.fid_lookup
       0x005e5208      defc0018       adda.w 0x18, a7
       0x005e520c      4a1f           tst.b (a7)+
   < 0x005e520e      665e           bne.b 0x5e526e
      0x005e5210      9efc0100       suba.w 0x100, a7
      0x005e5214      4eb900408ec0   jsr p_err_string
      0x005e521a      487aa052       pea.l 0x5df26e(pc)
      0x005e521e      48780006       pea.l 0x6
      0x005e5222      2f17           move.l (a7), -(a7)
      0x005e5224      4eb9004047ea   jsr p_wts_o
      0x005e522a      dec1           adda.w d1, a7
      0x005e522c      486f0001       pea.l 0x1(a7)
      0x005e5230      42a7           clr.l -(a7)
      0x005e5232      1f6f00080003   move.b 0x8(a7), 0x3(a7)
      0x005e5238      2f17           move.l (a7), -(a7)
      0x005e523a      4eb9004047ea   jsr p_wts_o
      0x005e5240      defc010c       adda.w 0x10c, a7
      0x005e5244      487aa02f       pea.l 0x5df275(pc)
      0x005e5248      48780013       pea.l 0x13
      0x005e524c      2f17           move.l (a7), -(a7)
      0x005e524e      4eb9004047ea   jsr p_wts_o
      0x005e5254      dec1           adda.w d1, a7
      0x005e5256      4eb900404946   jsr p_wtln_o
      0x005e525c      246e0020       movea.l 0x20(a6), a2
      0x005e5260      1482           move.b d2, (a2)
      0x005e5262      486eff38       pea.l -0xc8(a6)
      0x005e5266      4eb900404468   jsr fcn.00404468
      0x005e526c      584f           addq.w 0x4, a7
   > 0x005e526e      202eff34       move.l -0xcc(a6), d0
       0x005e5272      0c8010000000   cmpi.l 0x10000000, d0
   < 0x005e5278      6604           bne.b 0x5e527e
      0x005e527a      1d420024       move.b d2, 0x24(a6)
   > 0x005e527e      246e003a       movea.l 0x3a(a6), a2
       0x005e5282      b5eafffc       cmpa.l -0x4(a2), a2
   < 0x005e5286      6702           beq.b 0x5e528a
      0x005e5288      4e4d           trap 0xd
   > 0x005e528a      9ec1           suba.w d1, a7
       0x005e528c      264f           movea.l a7, a3
       0x005e528e      7009           moveq 0x9, d0
   > 0x005e5290      16d9           move.b (a1)+, (a3)+
   < 0x005e5292      51c8fffc       dbra d0, 0x5e5290
       0x005e5296      9efc000a       suba.w 0xa, a7
       0x005e529a      224f           movea.l a7, a1
       0x005e529c      47ea04c0       lea.l 0x4c0(a2), a3
       0x005e52a0      7009           moveq 0x9, d0
   > 0x005e52a2      12db           move.b (a3)+, (a1)+
   < 0x005e52a4      51c8fffc       dbra d0, 0x5e52a2
       0x005e52a8      4eb9005ef3d2   jsr F2_UTILITY.f_fids_eq
       0x005e52ae      defc0014       adda.w 0x14, a7
       0x005e52b2      4a1f           tst.b (a7)+
   < 0x005e52b4      660000c2       bne.w 0x5e5378
      0x005e52b8      257cffffffff.  move.l 0xffffffff, 0x4ca(a2)
  < 0x005e52c0      600000b6       bra.w 0x5e5378
  > 0x005e52c4      246e002c       movea.l 0x2c(a6), a2
      0x005e52c8      2012           move.l (a2), d0
      0x005e52ca      b082           cmp.l d2, d0
  < 0x005e52cc      6f0000a6       ble.w 0x5e5374
     0x005e52d0      4a2e0026       tst.b 0x26(a6)
 < 0x005e52d4      670a           beq.b 0x5e52e0
    0x005e52d6      2d7cffffffff.  move.l 0xffffffff, -0xcc(a6)
 < 0x005e52de      6008           bra.b 0x5e52e8
 > 0x005e52e0      2d7c7fffffff.  move.l 0x7fffffff, -0xcc(a6)
 > 0x005e52e8      7e00           moveq 0x0, d7
 > 0x005e52ea      554f           subq.w 0x2, a7
    0x005e52ec      2f2effdc       move.l -0x24(a6), -(a7)
    0x005e52f0      486eff34       pea.l -0xcc(a6)
    0x005e52f4      1f2e0026       move.b 0x26(a6), -(a7)
    0x005e52f8      4eb9005cc80e   jsr INDEX.next_prn
    0x005e52fe      defc000a       adda.w 0xa, a7
    0x005e5302      101f           move.b (a7)+, d0
    0x005e5304      4880           ext.w d0
    0x005e5306      4182           chk.w d2, d0
    0x005e5308      1c00           move.b d0, d6
 < 0x005e530a      6704           beq.b 0x5e5310
    0x005e530c      5287           addq.l 0x1, d7
 < 0x005e530e      6006           bra.b 0x5e5316
 > 0x005e5310      4eb900404188   jsr p_Unlink
 > 0x005e5316      246e002c       movea.l 0x2c(a6), a2
    0x005e531a      2012           move.l (a2), d0
    0x005e531c      5380           subq.l 0x1, d0
    0x005e531e      4aaeff34       tst.l -0xcc(a6)
 < 0x005e5322      6d08           blt.b 0x5e532c
    0x005e5324      4a06           tst.b d6
 < 0x005e5326      6704           beq.b 0x5e532c
    0x005e5328      be80           cmp.l d0, d7
 < 0x005e532a      6dbe           blt.b 0x5e52ea
 > 0x005e532c      4a06           tst.b d6
 < 0x005e532e      6706           beq.b 0x5e5336
    0x005e5330      4aaeff34       tst.l -0xcc(a6)
 < 0x005e5334      6c2c           bge.b 0x5e5362
 > 0x005e5336      1d420024       move.b d2, 0x24(a6)
     0x005e533a      487a9f66       pea.l 0x5df2a2(pc)
     0x005e533e      48780007       pea.l 0x7
     0x005e5342      2f17           move.l (a7), -(a7)
     0x005e5344      4eb9004047ea   jsr p_wts_o
     0x005e534a      504f           addq.w 0x8, a7
     0x005e534c      2e92           move.l (a2), (a7)
     0x005e534e      4878000c       pea.l 0xc
     0x005e5352      4eb9004070e4   jsr p_wti_o
     0x005e5358      504f           addq.w 0x8, a7
     0x005e535a      4eb900404946   jsr p_wtln_o
 < 0x005e5360      6016           bra.b 0x5e5378
 > 0x005e5362      246e003a       movea.l 0x3a(a6), a2
    0x005e5366      b5eafffc       cmpa.l -0x4(a2), a2
 < 0x005e536a      6702           beq.b 0x5e536e
    0x005e536c      4e4d           trap 0xd
 > 0x005e536e      254004ca       move.l d0, 0x4ca(a2)
 < 0x005e5372      6004           bra.b 0x5e5378
 > 0x005e5374      1d420024       move.b d2, 0x24(a6)
 > 0x005e5378      4a2e0024       tst.b 0x24(a6)
      < 0x005e537c      670000ac       beq.w 0x5e542a
         0x005e5380      4a2e0026       tst.b 0x26(a6)
     < 0x005e5384      670a           beq.b 0x5e5390
        0x005e5386      2d7cffffffff.  move.l 0xffffffff, -0xcc(a6)
    < 0x005e538e      6008           bra.b 0x5e5398
    > 0x005e5390      2d7c7fffffff.  move.l 0x7fffffff, -0xcc(a6)
    > 0x005e5398      4a2effee       tst.b -0x12(a6)
     < 0x005e539c      677c           beq.b 0x5e541a
        0x005e539e      4a2e0026       tst.b 0x26(a6)
    < 0x005e53a2      670a           beq.b 0x5e53ae
       0x005e53a4      102efffd       move.b -0x3(a6), d0
       0x005e53a8      4400           neg.b d0
       0x005e53aa      5200           addq.b 0x1, d0
   < 0x005e53ac      6004           bra.b 0x5e53b2
   > 0x005e53ae      102efffe       move.b -0x2(a6), d0
   > 0x005e53b2      4880           ext.w d0
        0x005e53b4      4182           chk.w d2, d0
        0x005e53b6      1d40ffff       move.b d0, -0x1(a6)
        0x005e53ba      554f           subq.w 0x2, a7
        0x005e53bc      2f05           move.l d5, -(a7)
        0x005e53be      2f2e003a       move.l 0x3a(a6), -(a7)
        0x005e53c2      1f2e0026       move.b 0x26(a6), -(a7)
        0x005e53c6      102effff       move.b -0x1(a6), d0
        0x005e53ca      4880           ext.w d0
        0x005e53cc      4182           chk.w d2, d0
        0x005e53ce      1f00           move.b d0, -(a7)
        0x005e53d0      486efff0       pea.l -0x10(a6)
        0x005e53d4      486effe8       pea.l -0x18(a6)
        0x005e53d8      486effea       pea.l -0x16(a6)
        0x005e53dc      486effe6       pea.l -0x1a(a6)
        0x005e53e0      4ebacb38       jsr SEARCHER.get_num_range(pc)
        0x005e53e4      defc001c       adda.w 0x1c, a7
        0x005e53e8      4a1f           tst.b (a7)+
        0x005e53ea      4a2e0026       tst.b 0x26(a6)
    < 0x005e53ee      6714           beq.b 0x5e5404
       0x005e53f0      4280           clr.l d0
       0x005e53f2      302effe6       move.w -0x1a(a6), d0
       0x005e53f6      5380           subq.l 0x1, d0
       0x005e53f8      0c800000ffff   cmpi.l 0xffff, d0
   < 0x005e53fe      6302           bls.b 0x5e5402
      0x005e5400      4e4f           trap 0xf
  > 0x005e5402      6012           bra.b 0x5e5416
   > 0x005e5404      4280           clr.l d0
       0x005e5406      302effe6       move.w -0x1a(a6), d0
       0x005e540a      5280           addq.l 0x1, d0
       0x005e540c      0c800000ffff   cmpi.l 0xffff, d0
   < 0x005e5412      6302           bls.b 0x5e5416
      0x005e5414      4e4f           trap 0xf
  > 0x005e5416      3d40ffe6       move.w d0, -0x1a(a6)
     > 0x005e541a      246e003a       movea.l 0x3a(a6), a2
         0x005e541e      b5eafffc       cmpa.l -0x4(a2), a2
     < 0x005e5422      6702           beq.b 0x5e5426
        0x005e5424      4e4d           trap 0xd
     > 0x005e5426      42aa04ca       clr.l 0x4ca(a2)
      > 0x005e542a      594f           subq.w 0x4, a7
          0x005e542c      4eb9006aa3ec   jsr DATE_UTILS.date_today
          0x005e5432      2d5fffd8       move.l (a7)+, -0x28(a6)
          0x005e5436      486effd8       pea.l -0x28(a6)
          0x005e543a      4eb9006aa1d2   jsr DATE_UTILS.date_inc
          0x005e5440      584f           addq.w 0x4, a7
      > 0x005e5442      2f08           move.l a0, -(a7)
         0x005e5444      2057           movea.l (a7), a0
         0x005e5446      554f           subq.w 0x2, a7
         0x005e5448      486eff82       pea.l -0x7e(a6)
         0x005e544c      4eb900404434   jsr fcn.00404434
         0x005e5452      584f           addq.w 0x4, a7
         0x005e5454      4a1f           tst.b (a7)+
     < 0x005e5456      6700091a       beq.w 0x5e5d72
        0x005e545a      4a2effee       tst.b -0x12(a6)
    < 0x005e545e      67000414       beq.w 0x5e5874
       0x005e5462      4a2e0026       tst.b 0x26(a6)
   < 0x005e5466      671e           beq.b 0x5e5486
      0x005e5468      4280           clr.l d0
      0x005e546a      302effe6       move.w -0x1a(a6), d0
      0x005e546e      5280           addq.l 0x1, d0
      0x005e5470      0c800000ffff   cmpi.l 0xffff, d0
  < 0x005e5476      6302           bls.b 0x5e547a
     0x005e5478      4e4f           trap 0xf
  > 0x005e547a      3d40ffe6       move.w d0, -0x1a(a6)
      0x005e547e      b06effea       cmp.w -0x16(a6), d0
  < 0x005e5482      6324           bls.b 0x5e54a8
 < 0x005e5484      601c           bra.b 0x5e54a2
 > 0x005e5486      4280           clr.l d0
     0x005e5488      302effe6       move.w -0x1a(a6), d0
     0x005e548c      5380           subq.l 0x1, d0
     0x005e548e      0c800000ffff   cmpi.l 0xffff, d0
 < 0x005e5494      6302           bls.b 0x5e5498
    0x005e5496      4e4f           trap 0xf
 > 0x005e5498      3d40ffe6       move.w d0, -0x1a(a6)
     0x005e549c      b06effe8       cmp.w -0x18(a6), d0
 < 0x005e54a0      6406           bcc.b 0x5e54a8
 > 0x005e54a2      246e0020       movea.l 0x20(a6), a2
     0x005e54a6      1482           move.b d2, (a2)
  > 0x005e54a8      246e0020       movea.l 0x20(a6), a2
       0x005e54ac      4a12           tst.b (a2)
   < 0x005e54ae      66000090       bne.w 0x5e5540
      0x005e54b2      554f           subq.w 0x2, a7
      0x005e54b4      4227           clr.b -(a7)
      0x005e54b6      2f2efff0       move.l -0x10(a6), -(a7)
      0x005e54ba      486effe6       pea.l -0x1a(a6)
      0x005e54be      4227           clr.b -(a7)
      0x005e54c0      3f2effe8       move.w -0x18(a6), -(a7)
      0x005e54c4      3f2effea       move.w -0x16(a6), -(a7)
      0x005e54c8      102effff       move.b -0x1(a6), d0
      0x005e54cc      4880           ext.w d0
      0x005e54ce      4182           chk.w d2, d0
      0x005e54d0      1f00           move.b d0, -(a7)
      0x005e54d2      1f2e0026       move.b 0x26(a6), -(a7)
      0x005e54d6      4227           clr.b -(a7)
      0x005e54d8      266e0010       movea.l 0x10(a6), a3
      0x005e54dc      4853           pea.l (a3)
      0x005e54de      4eb9006afbf4   jsr USER.get_number
      0x005e54e4      defc001a       adda.w 0x1a, a7
      0x005e54e8      4a1f           tst.b (a7)+
  < 0x005e54ea      6654           bne.b 0x5e5540
     0x005e54ec      9efc0100       suba.w 0x100, a7
     0x005e54f0      4eb900408ec0   jsr p_err_string
     0x005e54f6      487a9de7       pea.l 0x5df2df(pc)
     0x005e54fa      48780006       pea.l 0x6
     0x005e54fe      2f17           move.l (a7), -(a7)
     0x005e5500      4eb9004047ea   jsr p_wts_o
     0x005e5506      dec1           adda.w d1, a7
     0x005e5508      486f0001       pea.l 0x1(a7)
     0x005e550c      42a7           clr.l -(a7)
     0x005e550e      1f6f00080003   move.b 0x8(a7), 0x3(a7)
     0x005e5514      2f17           move.l (a7), -(a7)
     0x005e5516      4eb9004047ea   jsr p_wts_o
     0x005e551c      defc010c       adda.w 0x10c, a7
     0x005e5520      487a9dc4       pea.l 0x5df2e6(pc)
     0x005e5524      4878000f       pea.l 0xf
     0x005e5528      2f17           move.l (a7), -(a7)
     0x005e552a      4eb9004047ea   jsr p_wts_o
     0x005e5530      dec1           adda.w d1, a7
     0x005e5532      4eb900404946   jsr p_wtln_o
     0x005e5538      4eb900404188   jsr p_Unlink
     0x005e553e      1482           move.b d2, (a2)
  > 0x005e5540      4a12           tst.b (a2)
   < 0x005e5542      670000e0       beq.w 0x5e5624
      0x005e5546      4a2e0026       tst.b 0x26(a6)
  < 0x005e554a      670c           beq.b 0x5e5558
     0x005e554c      4a2effff       tst.b -0x1(a6)
 < 0x005e5550      6606           bne.b 0x5e5558
    0x005e5552      4a2efffe       tst.b -0x2(a6)
 < 0x005e5556      6618           bne.b 0x5e5570
 > 0x005e5558      4a2e0026       tst.b 0x26(a6)
  < 0x005e555c      660000b6       bne.w 0x5e5614
     0x005e5560      4a2effff       tst.b -0x1(a6)
 < 0x005e5564      670000ae       beq.w 0x5e5614
    0x005e5568      4a2efffd       tst.b -0x3(a6)
 < 0x005e556c      670000a6       beq.w 0x5e5614
 > 0x005e5570      102effff       move.b -0x1(a6), d0
    0x005e5574      4400           neg.b d0
    0x005e5576      5200           addq.b 0x1, d0
    0x005e5578      4880           ext.w d0
    0x005e557a      4182           chk.w d2, d0
    0x005e557c      1d40ffff       move.b d0, -0x1(a6)
    0x005e5580      487a9d74       pea.l 0x5df2f6(pc)
    0x005e5584      48780028       pea.l 0x28
    0x005e5588      2f17           move.l (a7), -(a7)
    0x005e558a      4eb9004047ea   jsr p_wts_o
    0x005e5590      defc000a       adda.w 0xa, a7
    0x005e5594      1e80           move.b d0, (a7)
    0x005e5596      48780005       pea.l 0x5
    0x005e559a      4eb90040718c   jsr p_wtb_o
    0x005e55a0      5c4f           addq.w 0x6, a7
    0x005e55a2      4eb900404946   jsr p_wtln_o
    0x005e55a8      554f           subq.w 0x2, a7
    0x005e55aa      2f05           move.l d5, -(a7)
    0x005e55ac      2f2e003a       move.l 0x3a(a6), -(a7)
    0x005e55b0      1f2e0026       move.b 0x26(a6), -(a7)
    0x005e55b4      4880           ext.w d0
    0x005e55b6      4182           chk.w d2, d0
    0x005e55b8      1f00           move.b d0, -(a7)
    0x005e55ba      486efff0       pea.l -0x10(a6)
    0x005e55be      486effe8       pea.l -0x18(a6)
    0x005e55c2      486effea       pea.l -0x16(a6)
    0x005e55c6      486effe6       pea.l -0x1a(a6)
    0x005e55ca      4ebac94e       jsr SEARCHER.get_num_range(pc)
    0x005e55ce      defc001c       adda.w 0x1c, a7
    0x005e55d2      4a1f           tst.b (a7)+
 < 0x005e55d4      673e           beq.b 0x5e5614
    0x005e55d6      4212           clr.b (a2)
    0x005e55d8      4a2e0026       tst.b 0x26(a6)
 < 0x005e55dc      6714           beq.b 0x5e55f2
    0x005e55de      4280           clr.l d0
    0x005e55e0      302effe6       move.w -0x1a(a6), d0
    0x005e55e4      5380           subq.l 0x1, d0
    0x005e55e6      0c800000ffff   cmpi.l 0xffff, d0
 < 0x005e55ec      6302           bls.b 0x5e55f0
    0x005e55ee      4e4f           trap 0xf
 > 0x005e55f0      6012           bra.b 0x5e5604
 > 0x005e55f2      4280           clr.l d0
    0x005e55f4      302effe6       move.w -0x1a(a6), d0
    0x005e55f8      5280           addq.l 0x1, d0
    0x005e55fa      0c800000ffff   cmpi.l 0xffff, d0
 < 0x005e5600      6302           bls.b 0x5e5604
    0x005e5602      4e4f           trap 0xf
 > 0x005e5604      3d40ffe6       move.w d0, -0x1a(a6)
    0x005e5608      486eff82       pea.l -0x7e(a6)
    0x005e560c      4eb900404468   jsr fcn.00404468
    0x005e5612      584f           addq.w 0x4, a7
 > 0x005e5614      4a12           tst.b (a2)
  < 0x005e5616      670c           beq.b 0x5e5624
     0x005e5618      486eff38       pea.l -0xc8(a6)
     0x005e561c      4eb900404468   jsr fcn.00404468
     0x005e5622      584f           addq.w 0x4, a7
  > 0x005e5624      266e003a       movea.l 0x3a(a6), a3
       0x005e5628      b7ebfffc       cmpa.l -0x4(a3), a3
   < 0x005e562c      6702           beq.b 0x5e5630
      0x005e562e      4e4d           trap 0xd
   > 0x005e5630      4a2e0026       tst.b 0x26(a6)
   < 0x005e5634      670c           beq.b 0x5e5642
      0x005e5636      4280           clr.l d0
      0x005e5638      302effe6       move.w -0x1a(a6), d0
      0x005e563c      b0ab032a       cmp.l 0x32a(a3), d0
  < 0x005e5640      6e1e           bgt.b 0x5e5660
  > 0x005e5642      4a2e0026       tst.b 0x26(a6)
  < 0x005e5646      6626           bne.b 0x5e566e
     0x005e5648      202b0326       move.l 0x326(a3), d0
     0x005e564c      0c8000002710   cmpi.l 0x2710, d0
 < 0x005e5652      6e1a           bgt.b 0x5e566e
    0x005e5654      4280           clr.l d0
    0x005e5656      302effe6       move.w -0x1a(a6), d0
    0x005e565a      b0ab0326       cmp.l 0x326(a3), d0
 < 0x005e565e      6c0e           bge.b 0x5e566e
 > 0x005e5660      1482           move.b d2, (a2)
     0x005e5662      486eff38       pea.l -0xc8(a6)
     0x005e5666      4eb900404468   jsr fcn.00404468
     0x005e566c      584f           addq.w 0x4, a7
 > 0x005e566e      246e0010       movea.l 0x10(a6), a2
       0x005e5672      2f0a           move.l a2, -(a7)
       0x005e5674      ba92           cmp.l (a2), d5
   < 0x005e5676      670000c4       beq.w 0x5e573c
      0x005e567a      4a92           tst.l (a2)
  < 0x005e567c      660000b2       bne.w 0x5e5730
     0x005e5680      9efc0100       suba.w 0x100, a7
     0x005e5684      2f2efff0       move.l -0x10(a6), -(a7)
     0x005e5688      4eb9006b8ed2   jsr USER1_UTILS.region_str
     0x005e568e      9efc000e       suba.w 0xe, a7
     0x005e5692      102effff       move.b -0x1(a6), d0
     0x005e5696      4880           ext.w d0
     0x005e5698      4182           chk.w d2, d0
     0x005e569a      1f00           move.b d0, -(a7)
     0x005e569c      4ebaa624       jsr SEARCHER.pic_stk_str(pc)
     0x005e56a0      9efc00fe       suba.w 0xfe, a7
     0x005e56a4      4852           pea.l (a2)
     0x005e56a6      4eb9005ef416   jsr F2_UTILITY.f_fid_string
     0x005e56ac      584f           addq.w 0x4, a7
     0x005e56ae      487a9c7d       pea.l 0x5df32d(pc)
     0x005e56b2      48780013       pea.l 0x13
     0x005e56b6      2f17           move.l (a7), -(a7)
     0x005e56b8      4eb9004047ea   jsr p_wts_o
     0x005e56be      dec1           adda.w d1, a7
     0x005e56c0      486f0113       pea.l 0x113(a7)
     0x005e56c4      42a7           clr.l -(a7)
     0x005e56c6      1f6f011a0003   move.b 0x11a(a7), 0x3(a7)
     0x005e56cc      2f17           move.l (a7), -(a7)
     0x005e56ce      4eb9004047ea   jsr p_wts_o
     0x005e56d4      dec1           adda.w d1, a7
     0x005e56d6      486f0101       pea.l 0x101(a7)
     0x005e56da      42a7           clr.l -(a7)
     0x005e56dc      1f6f01080003   move.b 0x108(a7), 0x3(a7)
     0x005e56e2      2f17           move.l (a7), -(a7)
     0x005e56e4      4eb9004047ea   jsr p_wts_o
     0x005e56ea      dec1           adda.w d1, a7
     0x005e56ec      4280           clr.l d0
     0x005e56ee      302effe6       move.w -0x1a(a6), d0
     0x005e56f2      2f00           move.l d0, -(a7)
     0x005e56f4      48780002       pea.l 0x2
     0x005e56f8      4eb9004070e4   jsr p_wti_o
     0x005e56fe      504f           addq.w 0x8, a7
     0x005e5700      487a9c3f       pea.l 0x5df341(pc)
     0x005e5704      4878000c       pea.l 0xc
     0x005e5708      2f17           move.l (a7), -(a7)
     0x005e570a      4eb9004047ea   jsr p_wts_o
     0x005e5710      dec1           adda.w d1, a7
     0x005e5712      486f0001       pea.l 0x1(a7)
     0x005e5716      42a7           clr.l -(a7)
     0x005e5718      1f6f00080003   move.b 0x8(a7), 0x3(a7)
     0x005e571e      2f17           move.l (a7), -(a7)
     0x005e5720      4eb9004047ea   jsr p_wts_o
     0x005e5726      defc021e       adda.w 0x21e, a7
     0x005e572a      4eb900404946   jsr p_wtln_o
  > 0x005e5730      486eff82       pea.l -0x7e(a6)
      0x005e5734      4eb900404468   jsr fcn.00404468
      0x005e573a      584f           addq.w 0x4, a7
   > 0x005e573c      9ec1           suba.w d1, a7
       0x005e573e      264f           movea.l a7, a3
       0x005e5740      7009           moveq 0x9, d0
   > 0x005e5742      16da           move.b (a2)+, (a3)+
   < 0x005e5744      51c8fffc       dbra d0, 0x5e5742
       0x005e5748      246e0028       movea.l 0x28(a6), a2
       0x005e574c      b5eafffc       cmpa.l -0x4(a2), a2
   < 0x005e5750      6702           beq.b 0x5e5754
      0x005e5752      4e4d           trap 0xd
   > 0x005e5754      486a0004       pea.l 0x4(a2)
       0x005e5758      486eff34       pea.l -0xcc(a6)
       0x005e575c      486effe4       pea.l -0x1c(a6)
       0x005e5760      1f02           move.b d2, -(a7)
       0x005e5762      4eb9005cb95a   jsr INDEX.fid_lookup
       0x005e5768      defc0018       adda.w 0x18, a7
       0x005e576c      4a1f           tst.b (a7)+
   < 0x005e576e      66000088       bne.w 0x5e57f8
      0x005e5772      9efc0100       suba.w 0x100, a7
      0x005e5776      4eb900408ec0   jsr p_err_string
      0x005e577c      9efc0100       suba.w 0x100, a7
      0x005e5780      246f0200       movea.l 0x200(a7), a2
      0x005e5784      4852           pea.l (a2)
      0x005e5786      4eb9005ef416   jsr F2_UTILITY.f_fid_string
      0x005e578c      584f           addq.w 0x4, a7
      0x005e578e      487a9bcc       pea.l 0x5df35c(pc)
      0x005e5792      48780006       pea.l 0x6
      0x005e5796      2f17           move.l (a7), -(a7)
      0x005e5798      4eb9004047ea   jsr p_wts_o
      0x005e579e      dec1           adda.w d1, a7
      0x005e57a0      486f0101       pea.l 0x101(a7)
      0x005e57a4      42a7           clr.l -(a7)
      0x005e57a6      1f6f01080003   move.b 0x108(a7), 0x3(a7)
      0x005e57ac      2f17           move.l (a7), -(a7)
      0x005e57ae      4eb9004047ea   jsr p_wts_o
      0x005e57b4      dec1           adda.w d1, a7
      0x005e57b6      487a9bab       pea.l 0x5df363(pc)
      0x005e57ba      48780011       pea.l 0x11
      0x005e57be      2f17           move.l (a7), -(a7)
      0x005e57c0      4eb9004047ea   jsr p_wts_o
      0x005e57c6      dec1           adda.w d1, a7
      0x005e57c8      486f0001       pea.l 0x1(a7)
      0x005e57cc      42a7           clr.l -(a7)
      0x005e57ce      1f6f00080003   move.b 0x8(a7), 0x3(a7)
      0x005e57d4      2f17           move.l (a7), -(a7)
      0x005e57d6      4eb9004047ea   jsr p_wts_o
      0x005e57dc      defc020c       adda.w 0x20c, a7
      0x005e57e0      4eb900404946   jsr p_wtln_o
      0x005e57e6      4eb900404188   jsr p_Unlink
      0x005e57ec      486eff82       pea.l -0x7e(a6)
      0x005e57f0      4eb900404468   jsr fcn.00404468
      0x005e57f6      584f           addq.w 0x4, a7
   > 0x005e57f8      544f           addq.w 0x2, a7
       0x005e57fa      2f2effdc       move.l -0x24(a6), -(a7)
       0x005e57fe      2f2eff34       move.l -0xcc(a6), -(a7)
       0x005e5802      48780000       pea.l 0x0
       0x005e5806      486eff30       pea.l -0xd0(a6)
       0x005e580a      1f02           move.b d2, -(a7)
       0x005e580c      4eb90060cb2e   jsr F14_MAP.f_bits_set
       0x005e5812      defc0012       adda.w 0x12, a7
       0x005e5816      4a1f           tst.b (a7)+
   < 0x005e5818      664e           bne.b 0x5e5868
      0x005e581a      9efc0100       suba.w 0x100, a7
      0x005e581e      4eb900408ec0   jsr p_err_string
      0x005e5824      487a9b68       pea.l 0x5df38e(pc)
      0x005e5828      48780019       pea.l 0x19
      0x005e582c      2f17           move.l (a7), -(a7)
      0x005e582e      4eb9004047ea   jsr p_wts_o
      0x005e5834      dec1           adda.w d1, a7
      0x005e5836      486f0001       pea.l 0x1(a7)
      0x005e583a      42a7           clr.l -(a7)
      0x005e583c      1f6f00080003   move.b 0x8(a7), 0x3(a7)
      0x005e5842      2f17           move.l (a7), -(a7)
      0x005e5844      4eb9004047ea   jsr p_wts_o
      0x005e584a      defc010c       adda.w 0x10c, a7
      0x005e584e      4eb900404946   jsr p_wtln_o
      0x005e5854      4eb900404188   jsr p_Unlink
  > 0x005e585a      486eff82       pea.l -0x7e(a6)
     0x005e585e      4eb900404468   jsr fcn.00404468
 < 0x005e5864      60000104       bra.w 0x5e596a
 > 0x005e5868      202eff30       move.l -0xd0(a6), d0
     0x005e586c      b082           cmp.l d2, d0
 < 0x005e586e      6c0000fc       bge.w 0x5e596c
 < 0x005e5872      60e6           bra.b 0x5e585a
  > 0x005e5874      554f           subq.w 0x2, a7
      0x005e5876      2f2effdc       move.l -0x24(a6), -(a7)
      0x005e587a      486eff34       pea.l -0xcc(a6)
      0x005e587e      1f2e0026       move.b 0x26(a6), -(a7)
      0x005e5882      4eb9005cc80e   jsr INDEX.next_prn
      0x005e5888      defc000a       adda.w 0xa, a7
      0x005e588c      4a1f           tst.b (a7)+
  < 0x005e588e      6618           bne.b 0x5e58a8
     0x005e5890      4eb900404188   jsr p_Unlink
     0x005e5896      246e0020       movea.l 0x20(a6), a2
     0x005e589a      1482           move.b d2, (a2)
     0x005e589c      486eff38       pea.l -0xc8(a6)
     0x005e58a0      4eb900404468   jsr fcn.00404468
     0x005e58a6      584f           addq.w 0x4, a7
  > 0x005e58a8      4aaeff34       tst.l -0xcc(a6)
  < 0x005e58ac      6c12           bge.b 0x5e58c0
     0x005e58ae      246e0020       movea.l 0x20(a6), a2
     0x005e58b2      1482           move.b d2, (a2)
     0x005e58b4      486eff38       pea.l -0xc8(a6)
     0x005e58b8      4eb900404468   jsr fcn.00404468
     0x005e58be      584f           addq.w 0x4, a7
  > 0x005e58c0      246e0028       movea.l 0x28(a6), a2
      0x005e58c4      b5eafffc       cmpa.l -0x4(a2), a2
  < 0x005e58c8      6702           beq.b 0x5e58cc
     0x005e58ca      4e4d           trap 0xd
  > 0x005e58cc      2f0a           move.l a2, -(a7)
      0x005e58ce      554f           subq.w 0x2, a7
      0x005e58d0      2f2eff34       move.l -0xcc(a6), -(a7)
      0x005e58d4      4267           clr.w -(a7)
      0x005e58d6      514f           subq.w 0x8, a7
      0x005e58d8      264f           movea.l a7, a3
      0x005e58da      45ea003a       lea.l 0x3a(a2), a2
      0x005e58de      7007           moveq 0x7, d0
  > 0x005e58e0      16da           move.b (a2)+, (a3)+
  < 0x005e58e2      51c8fffc       dbra d0, 0x5e58e0
      0x005e58e6      246f0010       movea.l 0x10(a7), a2
      0x005e58ea      486a0004       pea.l 0x4(a2)
      0x005e58ee      246e0010       movea.l 0x10(a6), a2
      0x005e58f2      4852           pea.l (a2)
      0x005e58f4      4eb9005cb348   jsr INDEX.prn_lookup
      0x005e58fa      defc0016       adda.w 0x16, a7
      0x005e58fe      4a1f           tst.b (a7)+
  < 0x005e5900      6704           beq.b 0x5e5906
     0x005e5902      584f           addq.w 0x4, a7
 < 0x005e5904      6066           bra.b 0x5e596c
 > 0x005e5906      9efc0100       suba.w 0x100, a7
     0x005e590a      4eb900408ec0   jsr p_err_string
     0x005e5910      487a9b07       pea.l 0x5df419(pc)
     0x005e5914      4878000a       pea.l 0xa
     0x005e5918      2f17           move.l (a7), -(a7)
     0x005e591a      4eb9004047ea   jsr p_wts_o
     0x005e5920      dec1           adda.w d1, a7
     0x005e5922      486f0001       pea.l 0x1(a7)
     0x005e5926      42a7           clr.l -(a7)
     0x005e5928      1f6f00080003   move.b 0x8(a7), 0x3(a7)
     0x005e592e      2f17           move.l (a7), -(a7)
     0x005e5930      4eb9004047ea   jsr p_wts_o
     0x005e5936      defc010c       adda.w 0x10c, a7
     0x005e593a      487a9ae8       pea.l 0x5df424(pc)
     0x005e593e      48780010       pea.l 0x10
     0x005e5942      2f17           move.l (a7), -(a7)
     0x005e5944      4eb9004047ea   jsr p_wts_o
     0x005e594a      dec1           adda.w d1, a7
     0x005e594c      4eb900404946   jsr p_wtln_o
     0x005e5952      4eb900404188   jsr p_Unlink
     0x005e5958      246e0020       movea.l 0x20(a6), a2
     0x005e595c      1482           move.b d2, (a2)
     0x005e595e      486eff38       pea.l -0xc8(a6)
     0x005e5962      4eb900404468   jsr fcn.00404468
     0x005e5968      584f           addq.w 0x4, a7
 > 0x005e596a      584f           addq.w 0x4, a7
  > 0x005e596c      7c01           moveq 0x1, d6
        0x005e596e      7e01           moveq 0x1, d7
        0x005e5970      246e0010       movea.l 0x10(a6), a2
        0x005e5974      9ec1           suba.w d1, a7
        0x005e5976      264f           movea.l a7, a3
        0x005e5978      204a           movea.l a2, a0
        0x005e597a      7009           moveq 0x9, d0
    > 0x005e597c      16d8           move.b (a0)+, (a3)+
    < 0x005e597e      51c8fffc       dbra d0, 0x5e597c
        0x005e5982      486effcc       pea.l -0x34(a6)
        0x005e5986      486effe0       pea.l -0x20(a6)
        0x005e598a      4eb900608414   jsr F10_FILELIST.f_time_created
        0x005e5990      defc0012       adda.w 0x12, a7
        0x005e5994      4a1f           tst.b (a7)+
    < 0x005e5996      6600009e       bne.w 0x5e5a36
       0x005e599a      9efc0100       suba.w 0x100, a7
       0x005e599e      4eb900408ec0   jsr p_err_string
       0x005e59a4      9efc0100       suba.w 0x100, a7
       0x005e59a8      4852           pea.l (a2)
       0x005e59aa      4eb9005ef416   jsr F2_UTILITY.f_fid_string
       0x005e59b0      584f           addq.w 0x4, a7
       0x005e59b2      487a9a86       pea.l 0x5df43a(pc)
       0x005e59b6      48780006       pea.l 0x6
       0x005e59ba      2f17           move.l (a7), -(a7)
       0x005e59bc      4eb9004047ea   jsr p_wts_o
       0x005e59c2      dec1           adda.w d1, a7
       0x005e59c4      486f0101       pea.l 0x101(a7)
       0x005e59c8      42a7           clr.l -(a7)
       0x005e59ca      1f6f01080003   move.b 0x108(a7), 0x3(a7)
       0x005e59d0      2f17           move.l (a7), -(a7)
       0x005e59d2      4eb9004047ea   jsr p_wts_o
       0x005e59d8      dec1           adda.w d1, a7
       0x005e59da      487a9a65       pea.l 0x5df441(pc)
       0x005e59de      48780013       pea.l 0x13
       0x005e59e2      2f17           move.l (a7), -(a7)
       0x005e59e4      4eb9004047ea   jsr p_wts_o
       0x005e59ea      dec1           adda.w d1, a7
       0x005e59ec      486f0001       pea.l 0x1(a7)
       0x005e59f0      42a7           clr.l -(a7)
       0x005e59f2      1f6f00080003   move.b 0x8(a7), 0x3(a7)
       0x005e59f8      2f17           move.l (a7), -(a7)
       0x005e59fa      4eb9004047ea   jsr p_wts_o
       0x005e5a00      defc020c       adda.w 0x20c, a7
       0x005e5a04      487a9a4f       pea.l 0x5df455(pc)
       0x005e5a08      4878000a       pea.l 0xa
       0x005e5a0c      2f17           move.l (a7), -(a7)
       0x005e5a0e      4eb9004047ea   jsr p_wts_o
       0x005e5a14      504f           addq.w 0x8, a7
       0x005e5a16      2eaeff34       move.l -0xcc(a6), (a7)
       0x005e5a1a      48780000       pea.l 0x0
       0x005e5a1e      4eb9004070e4   jsr p_wti_o
       0x005e5a24      504f           addq.w 0x8, a7
       0x005e5a26      4eb900404946   jsr p_wtln_o
       0x005e5a2c      7c00           moveq 0x0, d6
       0x005e5a2e      7e00           moveq 0x0, d7
       0x005e5a30      4eb900404188   jsr p_Unlink
    > 0x005e5a36      4a06           tst.b d6
    < 0x005e5a38      6766           beq.b 0x5e5aa0
       0x005e5a3a      4a07           tst.b d7
   < 0x005e5a3c      6762           beq.b 0x5e5aa0
      0x005e5a3e      206e003a       movea.l 0x3a(a6), a0
      0x005e5a42      b1e8fffc       cmpa.l -0x4(a0), a0
  < 0x005e5a46      6702           beq.b 0x5e5a4a
     0x005e5a48      4e4d           trap 0xd
  > 0x005e5a4a      4a280069       tst.b 0x69(a0)
  < 0x005e5a4e      6750           beq.b 0x5e5aa0
     0x005e5a50      554f           subq.w 0x2, a7
     0x005e5a52      3f2effe0       move.w -0x20(a6), -(a7)
     0x005e5a56      4eba9c1c       jsr SEARCHER.in_all_types_gr(pc)
     0x005e5a5a      544f           addq.w 0x2, a7
     0x005e5a5c      4a1f           tst.b (a7)+
 < 0x005e5a5e      6640           bne.b 0x5e5aa0
    0x005e5a60      487a99fe       pea.l 0x5df460(pc)
    0x005e5a64      4878000a       pea.l 0xa
    0x005e5a68      2f17           move.l (a7), -(a7)
    0x005e5a6a      4eb9004047ea   jsr p_wts_o
    0x005e5a70      dec1           adda.w d1, a7
    0x005e5a72      4280           clr.l d0
    0x005e5a74      302effe0       move.w -0x20(a6), d0
    0x005e5a78      2f00           move.l d0, -(a7)
    0x005e5a7a      48780002       pea.l 0x2
    0x005e5a7e      4eb9004070e4   jsr p_wti_o
    0x005e5a84      504f           addq.w 0x8, a7
    0x005e5a86      487a99e3       pea.l 0x5df46b(pc)
    0x005e5a8a      4878001b       pea.l 0x1b
    0x005e5a8e      2f17           move.l (a7), -(a7)
    0x005e5a90      4eb9004047ea   jsr p_wts_o
    0x005e5a96      dec1           adda.w d1, a7
    0x005e5a98      4eb900404946   jsr p_wtln_o
    0x005e5a9e      7e00           moveq 0x0, d7
 > 0x005e5aa0      4a06           tst.b d6
    < 0x005e5aa2      67000150       beq.w 0x5e5bf4
       0x005e5aa6      4a07           tst.b d7
   < 0x005e5aa8      6700014a       beq.w 0x5e5bf4
      0x005e5aac      594f           subq.w 0x4, a7
      0x005e5aae      2f2effd0       move.l -0x30(a6), -(a7)
      0x005e5ab2      2f2effcc       move.l -0x34(a6), -(a7)
      0x005e5ab6      4eb9006aa110   jsr DATE_UTILS.real_date
      0x005e5abc      504f           addq.w 0x8, a7
      0x005e5abe      2d5fffd4       move.l (a7)+, -0x2c(a6)
      0x005e5ac2      282effd4       move.l -0x2c(a6), d4
      0x005e5ac6      262effd8       move.l -0x28(a6), d3
      0x005e5aca      4eb900407dd4   jsr fcn.00407dd4
  < 0x005e5ad0      6f000122       ble.w 0x5e5bf4
     0x005e5ad4      9efc0100       suba.w 0x100, a7
     0x005e5ad8      4852           pea.l (a2)
     0x005e5ada      4eb9005ef416   jsr F2_UTILITY.f_fid_string
     0x005e5ae0      584f           addq.w 0x4, a7
     0x005e5ae2      487a99a3       pea.l 0x5df487(pc)
     0x005e5ae6      48780005       pea.l 0x5
     0x005e5aea      2f17           move.l (a7), -(a7)
     0x005e5aec      4eb9004047ea   jsr p_wts_o
     0x005e5af2      dec1           adda.w d1, a7
     0x005e5af4      486f0001       pea.l 0x1(a7)
     0x005e5af8      42a7           clr.l -(a7)
     0x005e5afa      1f6f00080003   move.b 0x8(a7), 0x3(a7)
     0x005e5b00      2f17           move.l (a7), -(a7)
     0x005e5b02      4eb9004047ea   jsr p_wts_o
     0x005e5b08      defc010c       adda.w 0x10c, a7
     0x005e5b0c      487a997f       pea.l 0x5df48d(pc)
     0x005e5b10      48780013       pea.l 0x13
     0x005e5b14      2f17           move.l (a7), -(a7)
     0x005e5b16      4eb9004047ea   jsr p_wts_o
     0x005e5b1c      dec1           adda.w d1, a7
     0x005e5b1e      4280           clr.l d0
     0x005e5b20      102effcf       move.b -0x31(a6), d0
     0x005e5b24      2f00           move.l d0, -(a7)
     0x005e5b26      48780001       pea.l 0x1
     0x005e5b2a      4eb9004070e4   jsr p_wti_o
     0x005e5b30      5c4f           addq.w 0x6, a7
     0x005e5b32      1ebc003a       move.b 0x3a, (a7)
     0x005e5b36      48780001       pea.l 0x1
     0x005e5b3a      4eb9004048b4   jsr p_wtc_o
     0x005e5b40      5c4f           addq.w 0x6, a7
     0x005e5b42      4280           clr.l d0
     0x005e5b44      102effd0       move.b -0x30(a6), d0
     0x005e5b48      2f00           move.l d0, -(a7)
     0x005e5b4a      48780001       pea.l 0x1
     0x005e5b4e      4eb9004070e4   jsr p_wti_o
     0x005e5b54      5c4f           addq.w 0x6, a7
     0x005e5b56      1ebc003a       move.b 0x3a, (a7)
     0x005e5b5a      48780001       pea.l 0x1
     0x005e5b5e      4eb9004048b4   jsr p_wtc_o
     0x005e5b64      5c4f           addq.w 0x6, a7
     0x005e5b66      4280           clr.l d0
     0x005e5b68      102effd1       move.b -0x2f(a6), d0
     0x005e5b6c      2f00           move.l d0, -(a7)
     0x005e5b6e      48780001       pea.l 0x1
     0x005e5b72      4eb9004070e4   jsr p_wti_o
     0x005e5b78      5c4f           addq.w 0x6, a7
     0x005e5b7a      1ebc0020       move.b 0x20, (a7)
     0x005e5b7e      48780001       pea.l 0x1
     0x005e5b82      4eb9004048b4   jsr p_wtc_o
     0x005e5b88      5c4f           addq.w 0x6, a7
     0x005e5b8a      4280           clr.l d0
     0x005e5b8c      102effce       move.b -0x32(a6), d0
     0x005e5b90      2f00           move.l d0, -(a7)
     0x005e5b92      48780001       pea.l 0x1
     0x005e5b96      4eb9004070e4   jsr p_wti_o
     0x005e5b9c      5c4f           addq.w 0x6, a7
     0x005e5b9e      1ebc003a       move.b 0x3a, (a7)
     0x005e5ba2      48780001       pea.l 0x1
     0x005e5ba6      4eb9004048b4   jsr p_wtc_o
     0x005e5bac      5c4f           addq.w 0x6, a7
     0x005e5bae      4280           clr.l d0
     0x005e5bb0      102effcd       move.b -0x33(a6), d0
     0x005e5bb4      2f00           move.l d0, -(a7)
     0x005e5bb6      48780001       pea.l 0x1
     0x005e5bba      4eb9004070e4   jsr p_wti_o
     0x005e5bc0      5c4f           addq.w 0x6, a7
     0x005e5bc2      1ebc003a       move.b 0x3a, (a7)
     0x005e5bc6      48780001       pea.l 0x1
     0x005e5bca      4eb9004048b4   jsr p_wtc_o
     0x005e5bd0      5c4f           addq.w 0x6, a7
     0x005e5bd2      4280           clr.l d0
     0x005e5bd4      102effcc       move.b -0x34(a6), d0
     0x005e5bd8      064007bc       addi.w 0x7bc, d0
     0x005e5bdc      48c0           ext.l d0
     0x005e5bde      2f00           move.l d0, -(a7)
     0x005e5be0      48780004       pea.l 0x4
     0x005e5be4      4eb9004070e4   jsr p_wti_o
     0x005e5bea      504f           addq.w 0x8, a7
     0x005e5bec      4eb900404946   jsr p_wtln_o
     0x005e5bf2      7e00           moveq 0x0, d7
  > 0x005e5bf4      4a06           tst.b d6
    < 0x005e5bf6      6706           beq.b 0x5e5bfe
       0x005e5bf8      4a07           tst.b d7
   < 0x005e5bfa      6600010a       bne.w 0x5e5d06
   > 0x005e5bfe      487a98a1       pea.l 0x5df4a1(pc)
       0x005e5c02      4878000e       pea.l 0xe
       0x005e5c06      2f17           move.l (a7), -(a7)
       0x005e5c08      4eb9004047ea   jsr p_wts_o
       0x005e5c0e      504f           addq.w 0x8, a7
       0x005e5c10      2eaeff34       move.l -0xcc(a6), (a7)
       0x005e5c14      48780000       pea.l 0x0
       0x005e5c18      4eb9004070e4   jsr p_wti_o
       0x005e5c1e      544f           addq.w 0x2, a7
       0x005e5c20      2eaeffdc       move.l -0x24(a6), (a7)
       0x005e5c24      2f2eff34       move.l -0xcc(a6), -(a7)
       0x005e5c28      48780001       pea.l 0x1
       0x005e5c2c      4eb90060c6f8   jsr F14_MAP.f_clear_bits
       0x005e5c32      dec1           adda.w d1, a7
       0x005e5c34      4a1f           tst.b (a7)+
   < 0x005e5c36      6652           bne.b 0x5e5c8a
      0x005e5c38      9efc0100       suba.w 0x100, a7
      0x005e5c3c      4eb900408ec0   jsr p_err_string
      0x005e5c42      487a986c       pea.l 0x5df4b0(pc)
      0x005e5c46      48780009       pea.l 0x9
      0x005e5c4a      2f17           move.l (a7), -(a7)
      0x005e5c4c      4eb9004047ea   jsr p_wts_o
      0x005e5c52      dec1           adda.w d1, a7
      0x005e5c54      486f0001       pea.l 0x1(a7)
      0x005e5c58      42a7           clr.l -(a7)
      0x005e5c5a      1f6f00080003   move.b 0x8(a7), 0x3(a7)
      0x005e5c60      2f17           move.l (a7), -(a7)
      0x005e5c62      4eb9004047ea   jsr p_wts_o
      0x005e5c68      defc010c       adda.w 0x10c, a7
      0x005e5c6c      487a984c       pea.l 0x5df4ba(pc)
      0x005e5c70      4878001a       pea.l 0x1a
      0x005e5c74      2f17           move.l (a7), -(a7)
      0x005e5c76      4eb9004047ea   jsr p_wts_o
      0x005e5c7c      dec1           adda.w d1, a7
      0x005e5c7e      4eb900404946   jsr p_wtln_o
      0x005e5c84      4eb900404188   jsr p_Unlink
   > 0x005e5c8a      554f           subq.w 0x2, a7
       0x005e5c8c      2f2effdc       move.l -0x24(a6), -(a7)
       0x005e5c90      48780000       pea.l 0x0
       0x005e5c94      48780000       pea.l 0x0
       0x005e5c98      486eff30       pea.l -0xd0(a6)
       0x005e5c9c      4eb90060ce54   jsr F14_MAP.f_count_bits
       0x005e5ca2      defc0010       adda.w 0x10, a7
       0x005e5ca6      1017           move.b (a7), d0
       0x005e5ca8      4880           ext.w d0
       0x005e5caa      4182           chk.w d2, d0
       0x005e5cac      1e80           move.b d0, (a7)
       0x005e5cae      4eb90040452a   jsr p_Assert
       0x005e5cb4      544f           addq.w 0x2, a7
       0x005e5cb6      206e0008       movea.l 0x8(a6), a0
       0x005e5cba      487a9819       pea.l 0x5df4d5(pc)
       0x005e5cbe      4878001a       pea.l 0x1a
       0x005e5cc2      2f17           move.l (a7), -(a7)
       0x005e5cc4      4eb9004047ea   jsr p_wts_o
       0x005e5cca      504f           addq.w 0x8, a7
       0x005e5ccc      2e90           move.l (a0), (a7)
       0x005e5cce      48780000       pea.l 0x0
       0x005e5cd2      4eb9004070e4   jsr p_wti_o
       0x005e5cd8      504f           addq.w 0x8, a7
       0x005e5cda      487a9814       pea.l 0x5df4f0(pc)
       0x005e5cde      48780004       pea.l 0x4
       0x005e5ce2      2f17           move.l (a7), -(a7)
       0x005e5ce4      4eb9004047ea   jsr p_wts_o
       0x005e5cea      504f           addq.w 0x8, a7
       0x005e5cec      2eaeff30       move.l -0xd0(a6), (a7)
       0x005e5cf0      48780001       pea.l 0x1
       0x005e5cf4      4eb9004070e4   jsr p_wti_o
       0x005e5cfa      504f           addq.w 0x8, a7
       0x005e5cfc      4eb900404946   jsr p_wtln_o
       0x005e5d02      20aeff30       move.l -0xd0(a6), (a0)
   > 0x005e5d06      4a06           tst.b d6
    < 0x005e5d08      6768           beq.b 0x5e5d72
       0x005e5d0a      4a07           tst.b d7
   < 0x005e5d0c      6764           beq.b 0x5e5d72
      0x005e5d0e      206e003a       movea.l 0x3a(a6), a0
      0x005e5d12      b1e8fffc       cmpa.l -0x4(a0), a0
  < 0x005e5d16      6702           beq.b 0x5e5d1a
     0x005e5d18      4e4d           trap 0xd
  > 0x005e5d1a      2f08           move.l a0, -(a7)
      0x005e5d1c      47e804c0       lea.l 0x4c0(a0), a3
      0x005e5d20      204a           movea.l a2, a0
      0x005e5d22      7009           moveq 0x9, d0
  > 0x005e5d24      16d8           move.b (a0)+, (a3)+
  < 0x005e5d26      51c8fffc       dbra d0, 0x5e5d24
      0x005e5d2a      205f           movea.l (a7)+, a0
      0x005e5d2c      4aa804ca       tst.l 0x4ca(a0)
  < 0x005e5d30      6d04           blt.b 0x5e5d36
     0x005e5d32      52a804ca       addq.l 0x1, 0x4ca(a0)
  > 0x005e5d36      266e002c       movea.l 0x2c(a6), a3
      0x005e5d3a      26a804ca       move.l 0x4ca(a0), (a3)
      0x005e5d3e      9ec1           suba.w d1, a7
      0x005e5d40      204f           movea.l a7, a0
      0x005e5d42      264a           movea.l a2, a3
      0x005e5d44      7009           moveq 0x9, d0
  > 0x005e5d46      10db           move.b (a3)+, (a0)+
  < 0x005e5d48      51c8fffc       dbra d0, 0x5e5d46
      0x005e5d4c      2f2e0014       move.l 0x14(a6), -(a7)
      0x005e5d50      206e0018       movea.l 0x18(a6), a0
      0x005e5d54      286e001c       movea.l 0x1c(a6), a4
      0x005e5d58      4e90           jsr (a0)                    ; fcn.00000009
      0x005e5d5a      defc000e       adda.w 0xe, a7
      0x005e5d5e      286eff2c       movea.l -0xd4(a6), a4
      0x005e5d62      4a1f           tst.b (a7)+
  < 0x005e5d64      670c           beq.b 0x5e5d72
     0x005e5d66      486eff38       pea.l -0xc8(a6)
     0x005e5d6a      4eb900404468   jsr fcn.00404468
     0x005e5d70      584f           addq.w 0x4, a7
  > 0x005e5d72      554f           subq.w 0x2, a7
         0x005e5d74      4eb900402f52   jsr p_Flagged
         0x005e5d7a      4a1f           tst.b (a7)+
     < 0x005e5d7c      6612           bne.b 0x5e5d90
        0x005e5d7e      246e003a       movea.l 0x3a(a6), a2
        0x005e5d82      b5eafffc       cmpa.l -0x4(a2), a2
    < 0x005e5d86      6702           beq.b 0x5e5d8a
       0x005e5d88      4e4d           trap 0xd
    > 0x005e5d8a      4a2a04fe       tst.b 0x4fe(a2)
    < 0x005e5d8e      6712           beq.b 0x5e5da2
    > 0x005e5d90      246e000c       movea.l 0xc(a6), a2
        0x005e5d94      1482           move.b d2, (a2)
        0x005e5d96      486eff38       pea.l -0xc8(a6)
        0x005e5d9a      4eb900404468   jsr fcn.00404468
        0x005e5da0      584f           addq.w 0x4, a7
    > 0x005e5da2      584f           addq.w 0x4, a7
      < 0x005e5da4      6000f69c       bra.w 0x5e5442
           0x005e5da8      584f           addq.w 0x4, a7
       > 0x005e5daa      202effdc       move.l -0x24(a6), d0
           0x005e5dae      b082           cmp.l d2, d0
       < 0x005e5db0      670c           beq.b 0x5e5dbe
          0x005e5db2      486effdc       pea.l -0x24(a6)
          0x005e5db6      4eb90060470a   jsr F9_FILERDWRT.f_close
          0x005e5dbc      584f           addq.w 0x4, a7
       > 0x005e5dbe      4cdf1fff       movem.l (a7)+, d0-d7/a0-a4
           0x005e5dc2      4e5e           unlk a6
           0x005e5dc4      4e75           rts
 28: SEARCHER.item_found ();
           0x005e5dc6      4e56fffc       link.w a6, 0xfffc
           0x005e5dca      bfd5           cmpa.l (a5), a7
       < 0x005e5dcc      6206           bhi.b 0x5e5dd4
          0x005e5dce      44fc0002       move.w 0x2, ccr
          0x005e5dd2      4e76           trapv
       > 0x005e5dd4      defc0004       adda.w 0x4, a7
           0x005e5dd8      1d7c00010016   move.b 0x1, 0x16(a6)
           0x005e5dde      4e5e           unlk a6
           0x005e5de0      4e75           rts
            ; CALL XREFS from LIB_CMDS.dir_command @ 0x11ac, 0x5d9a0c
 566: SEARCHER.sea_find_file ();
           0x005e5de2      4e56ff34       link.w a6, 0xff34
           0x005e5de6      bfd5           cmpa.l (a5), a7
       < 0x005e5de8      6206           bhi.b 0x5e5df0
          0x005e5dea      44fc0002       move.w 0x2, ccr
          0x005e5dee      4e76           trapv
       > 0x005e5df0      defc0076       adda.w 0x76, a7
           0x005e5df4      48e7fff0       movem.l d0-d7/a0-a3, -(a7)
           0x005e5df8      7401           moveq 0x1, d2
           0x005e5dfa      76ff           moveq 0xff, d3
           0x005e5dfc      780a           moveq 0xa, d4
           0x005e5dfe      7a0c           moveq 0xc, d5
           0x005e5e00      7c14           moveq 0x14, d6
           0x005e5e02      594f           subq.w 0x4, a7
           0x005e5e04      2f2e001c       move.l 0x1c(a6), -(a7)
           0x005e5e08      4ebaa802       jsr SEARCHER.get_search_spec(pc)
           0x005e5e0c      584f           addq.w 0x4, a7
           0x005e5e0e      265f           movea.l (a7)+, a3
           0x005e5e10      7000           moveq 0x0, d0
           0x005e5e12      b7ebfffc       cmpa.l -0x4(a3), a3
       < 0x005e5e16      6702           beq.b 0x5e5e1a
          0x005e5e18      4e4d           trap 0xd
       > 0x005e5e1a      206e0014       movea.l 0x14(a6), a0
           0x005e5e1e      2f08           move.l a0, -(a7)
           0x005e5e20      4a2b04bf       tst.b 0x4bf(a3)
       < 0x005e5e24      6608           bne.b 0x5e5e2e
          0x005e5e26      222b04c0       move.l 0x4c0(a3), d1
          0x005e5e2a      b290           cmp.l (a0), d1
      < 0x005e5e2c      6702           beq.b 0x5e5e30
      > 0x005e5e2e      5200           addq.b 0x1, d0
      > 0x005e5e30      1e00           move.b d0, d7
       < 0x005e5e32      6704           beq.b 0x5e5e38
          0x005e5e34      274304ce       move.l d3, 0x4ce(a3)
       > 0x005e5e38      422efffa       clr.b -0x6(a6)
           0x005e5e3c      422efff9       clr.b -0x7(a6)
           0x005e5e40      554f           subq.w 0x2, a7
           0x005e5e42      486effaa       pea.l -0x56(a6)
           0x005e5e46      4eb900404434   jsr fcn.00404434
           0x005e5e4c      584f           addq.w 0x4, a7
           0x005e5e4e      4a1f           tst.b (a7)+
       < 0x005e5e50      670001b8       beq.w 0x5e600a
          0x005e5e54      554f           subq.w 0x2, a7
          0x005e5e56      2f10           move.l (a0), -(a7)
          0x005e5e58      486efffc       pea.l -0x4(a6)
          0x005e5e5c      4227           clr.b -(a7)
          0x005e5e5e      4eb9005dbbc2   jsr SEARCH_DISKS.sea_is_indexed
          0x005e5e64      dec4           adda.w d4, a7
          0x005e5e66      4a1f           tst.b (a7)+
      < 0x005e5e68      670000c8       beq.w 0x5e5f32
         0x005e5e6c      4a07           tst.b d7
     < 0x005e5e6e      662e           bne.b 0x5e5e9e
        0x005e5e70      4a2e0018       tst.b 0x18(a6)
    < 0x005e5e74      6628           bne.b 0x5e5e9e
       0x005e5e76      9ec5           suba.w d5, a7
       0x005e5e78      224f           movea.l a7, a1
       0x005e5e7a      45eb04d6       lea.l 0x4d6(a3), a2
       0x005e5e7e      7009           moveq 0x9, d0
   > 0x005e5e80      12da           move.b (a2)+, (a1)+
   < 0x005e5e82      51c8fffc       dbra d0, 0x5e5e80
       0x005e5e86      2f3a817c       move.l 0x5de004(pc), -(a7)
       0x005e5e8a      2f3a8174       move.l 0x5de000(pc), -(a7)
       0x005e5e8e      3f3a816e       move.w 0x5ddffe(pc), -(a7)
       0x005e5e92      4eb9005ef3d2   jsr F2_UTILITY.f_fids_eq
       0x005e5e98      dec6           adda.w d6, a7
       0x005e5e9a      4a1f           tst.b (a7)+
   < 0x005e5e9c      6720           beq.b 0x5e5ebe
   > 0x005e5e9e      554f           subq.w 0x2, a7
        0x005e5ea0      2f0b           move.l a3, -(a7)
        0x005e5ea2      2f2efffc       move.l -0x4(a6), -(a7)
        0x005e5ea6      2f10           move.l (a0), -(a7)
        0x005e5ea8      4ebad5ea       jsr SEARCHER.build_found_map(pc)
        0x005e5eac      dec5           adda.w d5, a7
        0x005e5eae      4a1f           tst.b (a7)+
    < 0x005e5eb0      660c           bne.b 0x5e5ebe
       0x005e5eb2      486effaa       pea.l -0x56(a6)
       0x005e5eb6      4eb900404468   jsr fcn.00404468
       0x005e5ebc      584f           addq.w 0x4, a7
   > 0x005e5ebe      226e0010       movea.l 0x10(a6), a1
         0x005e5ec2      4aa80004       tst.l 0x4(a0)
     < 0x005e5ec6      660a           bne.b 0x5e5ed2
        0x005e5ec8      2011           move.l (a1), d0
        0x005e5eca      b082           cmp.l d2, d0
    < 0x005e5ecc      6e04           bgt.b 0x5e5ed2
       0x005e5ece      1d420018       move.b d2, 0x18(a6)
    > 0x005e5ed2      2011           move.l (a1), d0
         0x005e5ed4      b0ab04ce       cmp.l 0x4ce(a3), d0
     < 0x005e5ed8      6f06           ble.b 0x5e5ee0
        0x005e5eda      1d42fff9       move.b d2, -0x7(a6)
    < 0x005e5ede      6046           bra.b 0x5e5f26
    > 0x005e5ee0      2f0b           move.l a3, -(a7)
        0x005e5ee2      9ec4           suba.w d4, a7
        0x005e5ee4      244f           movea.l a7, a2
        0x005e5ee6      41eb04d6       lea.l 0x4d6(a3), a0
        0x005e5eea      7009           moveq 0x9, d0
    > 0x005e5eec      14d8           move.b (a0)+, (a2)+
    < 0x005e5eee      51c8fffc       dbra d0, 0x5e5eec
        0x005e5ef2      4851           pea.l (a1)
        0x005e5ef4      2f2efffc       move.l -0x4(a6), -(a7)
        0x005e5ef8      1f2e001a       move.b 0x1a(a6), -(a7)
        0x005e5efc      1f2e0018       move.b 0x18(a6), -(a7)
        0x005e5f00      486efff9       pea.l -0x7(a6)
        0x005e5f04      486effaa       pea.l -0x56(a6)
        0x005e5f08      487afebc       pea.l SEARCHER.item_found(pc)
        0x005e5f0c      48780000       pea.l 0x0
        0x005e5f10      206f002a       movea.l 0x2a(a7), a0
        0x005e5f14      4850           pea.l (a0)
        0x005e5f16      486efffa       pea.l -0x6(a6)
        0x005e5f1a      486b04ce       pea.l 0x4ce(a3)
        0x005e5f1e      4ebaf0d0       jsr SEARCHER.sea_indexed_fil(pc)
        0x005e5f22      defc0036       adda.w 0x36, a7
    > 0x005e5f26      226e000c       movea.l 0xc(a6), a1
         0x005e5f2a      22ab04ce       move.l 0x4ce(a3), (a1)
     < 0x005e5f2e      60000094       bra.w 0x5e5fc4
     > 0x005e5f32      226e0010       movea.l 0x10(a6), a1
         0x005e5f36      4a2e0018       tst.b 0x18(a6)
     < 0x005e5f3a      660a           bne.b 0x5e5f46
        0x005e5f3c      4aa80004       tst.l 0x4(a0)
    < 0x005e5f40      660a           bne.b 0x5e5f4c
       0x005e5f42      4a91           tst.l (a1)
   < 0x005e5f44      6606           bne.b 0x5e5f4c
   > 0x005e5f46      42ab04ca       clr.l 0x4ca(a3)
   < 0x005e5f4a      602c           bra.b 0x5e5f78
   > 0x005e5f4c      9ec5           suba.w d5, a7
        0x005e5f4e      244f           movea.l a7, a2
        0x005e5f50      7009           moveq 0x9, d0
    > 0x005e5f52      14d8           move.b (a0)+, (a2)+
    < 0x005e5f54      51c8fffc       dbra d0, 0x5e5f52
        0x005e5f58      9ec4           suba.w d4, a7
        0x005e5f5a      204f           movea.l a7, a0
        0x005e5f5c      45eb04c0       lea.l 0x4c0(a3), a2
        0x005e5f60      7009           moveq 0x9, d0
    > 0x005e5f62      10da           move.b (a2)+, (a0)+
    < 0x005e5f64      51c8fffc       dbra d0, 0x5e5f62
        0x005e5f68      4eb9005ef3d2   jsr F2_UTILITY.f_fids_eq
        0x005e5f6e      dec6           adda.w d6, a7
        0x005e5f70      4a1f           tst.b (a7)+
    < 0x005e5f72      6604           bne.b 0x5e5f78
       0x005e5f74      274304ca       move.l d3, 0x4ca(a3)
    > 0x005e5f78      2457           movea.l (a7), a2
         0x005e5f7a      2f12           move.l (a2), -(a7)
         0x005e5f7c      2f0b           move.l a3, -(a7)
         0x005e5f7e      1f2e001a       move.b 0x1a(a6), -(a7)
         0x005e5f82      1f2e0018       move.b 0x18(a6), -(a7)
         0x005e5f86      486efff9       pea.l -0x7(a6)
         0x005e5f8a      486effaa       pea.l -0x56(a6)
         0x005e5f8e      487afe36       pea.l SEARCHER.item_found(pc)
         0x005e5f92      48780000       pea.l 0x0
         0x005e5f96      246f001c       movea.l 0x1c(a7), a2
         0x005e5f9a      4852           pea.l (a2)
         0x005e5f9c      486efffa       pea.l -0x6(a6)
         0x005e5fa0      4ebae77e       jsr SEARCHER.sea_linear_lib_(pc)
         0x005e5fa4      defc0024       adda.w 0x24, a7
         0x005e5fa8      4aab04ca       tst.l 0x4ca(a3)
     < 0x005e5fac      6d04           blt.b 0x5e5fb2
        0x005e5fae      52ab04ca       addq.l 0x1, 0x4ca(a3)
     > 0x005e5fb2      b7ebfffc       cmpa.l -0x4(a3), a3
     < 0x005e5fb6      6702           beq.b 0x5e5fba
        0x005e5fb8      4e4d           trap 0xd
     > 0x005e5fba      22ab04ca       move.l 0x4ca(a3), (a1)
         0x005e5fbe      226e000c       movea.l 0xc(a6), a1
         0x005e5fc2      2283           move.l d3, (a1)
     > 0x005e5fc4      b7ebfffc       cmpa.l -0x4(a3), a3
      < 0x005e5fc8      6702           beq.b 0x5e5fcc
         0x005e5fca      4e4d           trap 0xd
      > 0x005e5fcc      2257           movea.l (a7), a1
          0x005e5fce      45eb04c0       lea.l 0x4c0(a3), a2
          0x005e5fd2      7009           moveq 0x9, d0
      > 0x005e5fd4      14d9           move.b (a1)+, (a2)+
      < 0x005e5fd6      51c8fffc       dbra d0, 0x5e5fd4
          0x005e5fda      4a2efff9       tst.b -0x7(a6)
      < 0x005e5fde      6708           beq.b 0x5e5fe8
         0x005e5fe0      226e0008       movea.l 0x8(a6), a1
         0x005e5fe4      4211           clr.b (a1)
     < 0x005e5fe6      6016           bra.b 0x5e5ffe
     > 0x005e5fe8      4a2efffa       tst.b -0x6(a6)
     < 0x005e5fec      670a           beq.b 0x5e5ff8
        0x005e5fee      226e0008       movea.l 0x8(a6), a1
        0x005e5ff2      12bc0002       move.b 0x2, (a1)
    < 0x005e5ff6      6006           bra.b 0x5e5ffe
    > 0x005e5ff8      226e0008       movea.l 0x8(a6), a1
        0x005e5ffc      1282           move.b d2, (a1)
    > 0x005e5ffe      1d420020       move.b d2, 0x20(a6)
          0x005e6002      422b04bf       clr.b 0x4bf(a3)
          0x005e6006      584f           addq.w 0x4, a7
      < 0x005e6008      6006           bra.b 0x5e6010
      > 0x005e600a      422e0020       clr.b 0x20(a6)
          0x005e600e      584f           addq.w 0x4, a7
      > 0x005e6010      4cdf0fff       movem.l (a7)+, d0-d7/a0-a3
           0x005e6014      4e5e           unlk a6
           0x005e6016      4e75           rts
 64: SEARCHER.sea_abort_searc ();
           0x005e6018      4e56ffec       link.w a6, 0xffec
           0x005e601c      bfd5           cmpa.l (a5), a7
       < 0x005e601e      6206           bhi.b 0x5e6026
          0x005e6020      44fc0002       move.w 0x2, ccr
          0x005e6024      4e76           trapv
       > 0x005e6026      defc0010       adda.w 0x10, a7
           0x005e602a      48e70080       movem.l a0, -(a7)
           0x005e602e      594f           subq.w 0x4, a7
           0x005e6030      2f2e0008       move.l 0x8(a6), -(a7)
           0x005e6034      4ebaa5d6       jsr SEARCHER.get_search_spec(pc)
           0x005e6038      584f           addq.w 0x4, a7
           0x005e603a      2d5ffffc       move.l (a7)+, -0x4(a6)
           0x005e603e      206efffc       movea.l -0x4(a6), a0
           0x005e6042      b1e8fffc       cmpa.l -0x4(a0), a0
       < 0x005e6046      6702           beq.b 0x5e604a
          0x005e6048      4e4d           trap 0xd
       > 0x005e604a      117c000104fe   move.b 0x1, 0x4fe(a0)
           0x005e6050      4cdf0100       movem.l (a7)+, a0
           0x005e6054      4e5e           unlk a6
           0x005e6056      4e75           rts
 118: SEARCHER.sea_lib_search ();
           0x005e6058      4e56ff98       link.w a6, 0xff98
           0x005e605c      bfd5           cmpa.l (a5), a7
       < 0x005e605e      6206           bhi.b 0x5e6066
          0x005e6060      44fc0002       move.w 0x2, ccr
          0x005e6064      4e76           trapv
       > 0x005e6066      defc005e       adda.w 0x5e, a7
           0x005e606a      48e7e0f8       movem.l d0-d2/a0-a4, -(a7)
           0x005e606e      49eefff6       lea.l -0xa(a6), a4
           0x005e6072      223cffff8000   move.l 0xffff8000, d1
           0x005e6078      740a           moveq 0xa, d2
           0x005e607a      554f           subq.w 0x2, a7
           0x005e607c      2f2e002a       move.l 0x2a(a6), -(a7)
           0x005e6080      4854           pea.l (a4)
           0x005e6082      4227           clr.b -(a7)
           0x005e6084      4eb9005dbbc2   jsr SEARCH_DISKS.sea_is_indexed
           0x005e608a      dec2           adda.w d2, a7
           0x005e608c      4a1f           tst.b (a7)+
       < 0x005e608e      67000114       beq.w 0x5e61a4
          0x005e6092      2054           movea.l (a4), a0
          0x005e6094      b1e8fffc       cmpa.l -0x4(a0), a0
      < 0x005e6098      6702           beq.b 0x5e609c
         0x005e609a      4e4d           trap 0xd
      > 0x005e609c      3028002e       move.w 0x2e(a0), d0
          0x005e60a0      48c0           ext.l d0
          0x005e60a2      5280           addq.l 0x1, d0
          0x005e60a4      9081           sub.l d1, d0
          0x005e60a6      0c800000ffff   cmpi.l 0xffff, d0
      < 0x005e60ac      6302           bls.b 0x5e60b0
         0x005e60ae      4e4f           trap 0xf
      > 0x005e60b0      d081           add.l d1, d0
          0x005e60b2      3140002e       move.w d0, 0x2e(a0)
          0x005e60b6      102e000c       move.b 0xc(a6), d0
          0x005e60ba      4880           ext.w d0
          0x005e60bc      0c400004       cmpi.w 0x4, d0
      < 0x005e60c0      6302           bls.b 0x5e60c4
         0x005e60c2      4e4e           trap 0xe
      > 0x005e60c4      d040           add.w d0, d0
          0x005e60c6      303b0006       move.w 0x5e60ce(pc, d0.w), d0
          0x005e60ca      4efb0002       jmp 0x5e60ce(pc, d0.w)
           0x005e60ce      000a000c       
           0x005e60cf      0a000c00       eori.b 0x0, d0
           0x005e60d3      1c00           move.b d0, d6
           0x005e60d5      3000           move.w d0, d0
           0x005e60d7      3660           movea.w -(a0), a3
           0x005e60d9      382f1422       move.w 0x1422(a7), d4
       < 0x005e60dd      6e001a48       bgt.w 0x5e7b27
          0x005e60e1      514e           subq.w 0x8, a6
          0x005e60e3      bad9           cmpa.w (a1)+, a5
          0x005e60e5      ee50           roxr.w 0x7, d0
         0x005e60e7      4f60281f       
     < 0x005e60e8      6028           bra.b 0x5e6112
        0x005e60ea      1f3c0001       move.b 0x1, -(a7)
    > 0x005e60ee      2f14           move.l (a4), -(a7)
       0x005e60f0      226e001a       movea.l 0x1a(a6), a1
       0x005e60f4      4851           pea.l (a1)
       0x005e60f6      4ebadeac       jsr SEARCHER.sea_indexed_kee(pc)
       0x005e60fa      dec2           adda.w d2, a7
   < 0x005e60fc      6014           bra.b 0x5e6112
      0x005e60fe      1f3c0002       move.b 0x2, -(a7)
   < 0x005e6102      60ea           bra.b 0x5e60ee
       0x005e6104      2f14           move.l (a4), -(a7)
       0x005e6106      226e001a       movea.l 0x1a(a6), a1
       0x005e610a      4851           pea.l (a1)
       0x005e610c      4ebae232       jsr SEARCHER.sea_indexed_rec(pc)
    < 0x005e6110      60d4           bra.b 0x5e60e6
   > 0x005e6112      4a2e0026       tst.b 0x26(a6)
      < 0x005e6116      6718           beq.b 0x5e6130
         0x005e6118      226e001e       movea.l 0x1e(a6), a1
         0x005e611c      2449           movea.l a1, a2
         0x005e611e      47f9005ddffe   lea.l 0x5ddffe, a3
         0x005e6124      7009           moveq 0x9, d0
     > 0x005e6126      14db           move.b (a3)+, (a2)+
     < 0x005e6128      51c8fffc       dbra d0, 0x5e6126
         0x005e612c      22ae002a       move.l 0x2a(a6), (a1)
      > 0x005e6130      42aefffc       clr.l -0x4(a6)
          0x005e6134      594f           subq.w 0x4, a7
          0x005e6136      48780000       pea.l 0x0
          0x005e613a      4ebaa4d0       jsr SEARCHER.get_search_spec(pc)
          0x005e613e      5d4f           subq.w 0x6, a7
          0x005e6140      224f           movea.l a7, a1
          0x005e6142      45e80128       lea.l 0x128(a0), a2
          0x005e6146      7009           moveq 0x9, d0
      > 0x005e6148      12da           move.b (a2)+, (a1)+
      < 0x005e614a      51c8fffc       dbra d0, 0x5e6148
          0x005e614e      486efffc       pea.l -0x4(a6)
          0x005e6152      2f14           move.l (a4), -(a7)
          0x005e6154      1f2e0028       move.b 0x28(a6), -(a7)
          0x005e6158      1f2e0026       move.b 0x26(a6), -(a7)
          0x005e615c      226e0022       movea.l 0x22(a6), a1
          0x005e6160      4851           pea.l (a1)
          0x005e6162      2f2e0016       move.l 0x16(a6), -(a7)
          0x005e6166      2f2e0012       move.l 0x12(a6), -(a7)
          0x005e616a      2f2e000e       move.l 0xe(a6), -(a7)
          0x005e616e      226e001e       movea.l 0x1e(a6), a1
          0x005e6172      4851           pea.l (a1)
          0x005e6174      226e0008       movea.l 0x8(a6), a1
          0x005e6178      4851           pea.l (a1)
          0x005e617a      226e001a       movea.l 0x1a(a6), a1
          0x005e617e      4851           pea.l (a1)
          0x005e6180      4ebaee6e       jsr SEARCHER.sea_indexed_fil(pc)
          0x005e6184      defc0036       adda.w 0x36, a7
          0x005e6188      3028002e       move.w 0x2e(a0), d0
          0x005e618c      48c0           ext.l d0
          0x005e618e      5380           subq.l 0x1, d0
          0x005e6190      9081           sub.l d1, d0
          0x005e6192      0c800000ffff   cmpi.l 0xffff, d0
      < 0x005e6198      6302           bls.b 0x5e619c
         0x005e619a      4e4f           trap 0xf
      > 0x005e619c      d081           add.l d1, d0
          0x005e619e      3140002e       move.w d0, 0x2e(a0)
      < 0x005e61a2      6048           bra.b 0x5e61ec
      > 0x005e61a4      2f2e002a       move.l 0x2a(a6), -(a7)
          0x005e61a8      594f           subq.w 0x4, a7
          0x005e61aa      48780000       pea.l 0x0
          0x005e61ae      4ebaa45c       jsr SEARCHER.get_search_spec(pc)
          0x005e61b2      544f           addq.w 0x2, a7
          0x005e61b4      1eae0028       move.b 0x28(a6), (a7)
          0x005e61b8      1f2e0026       move.b 0x26(a6), -(a7)
          0x005e61bc      206e0022       movea.l 0x22(a6), a0
          0x005e61c0      4850           pea.l (a0)
          0x005e61c2      2f2e0016       move.l 0x16(a6), -(a7)
          0x005e61c6      2f2e0012       move.l 0x12(a6), -(a7)
          0x005e61ca      2f2e000e       move.l 0xe(a6), -(a7)
          0x005e61ce      206e001e       movea.l 0x1e(a6), a0
          0x005e61d2      4850           pea.l (a0)
          0x005e61d4      206e0008       movea.l 0x8(a6), a0
          0x005e61d8      4850           pea.l (a0)
          0x005e61da      4ebae544       jsr SEARCHER.sea_linear_lib_(pc)
          0x005e61de      defc0024       adda.w 0x24, a7
          0x005e61e2      206e001a       movea.l 0x1a(a6), a0
          0x005e61e6      20bcffffffff   move.l 0xffffffff, (a0)
      > 0x005e61ec      4cdf1f07       movem.l (a7)+, d0-d2/a0-a4
           0x005e61f0      4e5e           unlk a6
           0x005e61f2      4e75           rts
 74: SEARCHER.sea_set_field_t ();
          0x005e61f4      4e56ffea       link.w a6, 0xffea
          0x005e61f8      bfd5           cmpa.l (a5), a7
      < 0x005e61fa      6206           bhi.b 0x5e6202
         0x005e61fc      44fc0002       move.w 0x2, ccr
         0x005e6200      4e76           trapv
      > 0x005e6202      defc0016       adda.w 0x16, a7
          0x005e6206      48e7e080       movem.l d0-d2/a0, -(a7)
          0x005e620a      7409           moveq 0x9, d2
          0x005e620c      102e000a       move.b 0xa(a6), d0
          0x005e6210      b002           cmp.b d2, d0
      < 0x005e6212      6d06           blt.b 0x5e621a
         0x005e6214      0c00000c       cmpi.b 0xc, d0
     < 0x005e6218      6f02           ble.b 0x5e621c
     > 0x005e621a      4e4e           trap 0xe
     > 0x005e621c      4880           ext.w d0
          0x005e621e      3200           move.w d0, d1
          0x005e6220      9242           sub.w d2, d1
          0x005e6222      43bc0003       chk.w 0x3, d1
          0x005e6226      41f900841a5a   lea.l 0x841a5a, a0
          0x005e622c      41f01000       lea.l (a0, d1.w), a0
          0x005e6230      116e0008044a   move.b 0x8(a6), 0x44a(a0)
          0x005e6236      4cdf0107       movem.l (a7)+, d0-d2/a0
          0x005e623a      4e5e           unlk a6
          0x005e623c      4e75           rts
           ; CALL XREF from AFS2_LIB.afs2_init @ 0x5ca08c
 82: SEARCHER.sea_pre_init ();
          0x005e623e      4e56ffe4       link.w a6, 0xffe4
          0x005e6242      bfd5           cmpa.l (a5), a7
      < 0x005e6244      6206           bhi.b 0x5e624c
         0x005e6246      44fc0002       move.w 0x2, ccr
         0x005e624a      4e76           trapv
      > 0x005e624c      defc0018       adda.w 0x18, a7
          0x005e6250      48e78180       movem.l d0/d7/a0, -(a7)
          0x005e6254      423900841a9c   clr.b 0x841a9c
          0x005e625a      42b900841a9e   clr.l 0x841a9e
          0x005e6260      7e00           moveq 0x0, d7
      > 0x005e6262      0c87000000ff   cmpi.l 0xff, d7
     < 0x005e6268      6302           bls.b 0x5e626c
        0x005e626a      4e4f           trap 0xf
     > 0x005e626c      2007           move.l d7, d0
         0x005e626e      e580           asl.l 0x2, d0
         0x005e6270      41f900841a5a   lea.l 0x841a5a, a0
         0x005e6276      42700848       clr.w 0x48(a0, d0.l)
         0x005e627a      4230084a       clr.b 0x4a(a0, d0.l)
         0x005e627e      5287           addq.l 0x1, d7
         0x005e6280      0c87000000ff   cmpi.l 0xff, d7
      < 0x005e6286      6fda           ble.b 0x5e6262
          0x005e6288      4cdf0181       movem.l (a7)+, d0/d7/a0
          0x005e628c      4e5e           unlk a6
          0x005e628e      4e75           rts
           ; CALL XREF from SEARCHER.sea_vpb_init @ 0x5e63ea
 274: SEARCHER.sea_extn_used ();
          0x005e6290      4e56ffc2       link.w a6, 0xffc2
          0x005e6294      bfd5           cmpa.l (a5), a7
      < 0x005e6296      6206           bhi.b 0x5e629e
         0x005e6298      44fc0002       move.w 0x2, ccr
         0x005e629c      4e76           trapv
      > 0x005e629e      defc0034       adda.w 0x34, a7
          0x005e62a2      48e7e3f8       movem.l d0-d2/d6-d7/a0-a4, -(a7)
          0x005e62a6      45f900841a5a   lea.l 0x841a5a, a2
          0x005e62ac      47f900841a9e   lea.l 0x841a9e, a3
          0x005e62b2      49ee000a       lea.l 0xa(a6), a4
          0x005e62b6      243c000000ff   move.l 0xff, d2
          0x005e62bc      1f3900841a9c   move.b 0x841a9c, -(a7)
          0x005e62c2      4417           neg.b (a7)
          0x005e62c4      5217           addq.b 0x1, (a7)
          0x005e62c6      4eb90040452a   jsr p_Assert
          0x005e62cc      4217           clr.b (a7)
          0x005e62ce      4a94           tst.l (a4)
      < 0x005e62d0      6702           beq.b 0x5e62d4
         0x005e62d2      5217           addq.b 0x1, (a7)
      > 0x005e62d4      4eb90040452a   jsr p_Assert
          0x005e62da      544f           addq.w 0x2, a7
          0x005e62dc      7c00           moveq 0x0, d6
          0x005e62de      7e00           moveq 0x0, d7
      > 0x005e62e0      4a06           tst.b d6
     < 0x005e62e2      6626           bne.b 0x5e630a
        0x005e62e4      be93           cmp.l (a3), d7
    < 0x005e62e6      6602           bne.b 0x5e62ea
   < 0x005e62e8      6016           bra.b 0x5e6300
   > 0x005e62ea      be82           cmp.l d2, d7
   < 0x005e62ec      6302           bls.b 0x5e62f0
      0x005e62ee      4e4f           trap 0xf
   > 0x005e62f0      2007           move.l d7, d0
       0x005e62f2      e580           asl.l 0x2, d0
       0x005e62f4      204a           movea.l a2, a0
       0x005e62f6      4281           clr.l d1
       0x005e62f8      32300848       move.w 0x48(a0, d0.l), d1
       0x005e62fc      b294           cmp.l (a4), d1
   < 0x005e62fe      6d02           blt.b 0x5e6302
   > 0x005e6300      7c01           moveq 0x1, d6
    > 0x005e6302      4a06           tst.b d6
    < 0x005e6304      6602           bne.b 0x5e6308
       0x005e6306      5287           addq.l 0x1, d7
    < 0x005e6308      60d6           bra.b 0x5e62e0
     > 0x005e630a      be82           cmp.l d2, d7
      < 0x005e630c      6302           bls.b 0x5e6310
         0x005e630e      4e4f           trap 0xf
      > 0x005e6310      2007           move.l d7, d0
          0x005e6312      e580           asl.l 0x2, d0
          0x005e6314      204a           movea.l a2, a0
          0x005e6316      4281           clr.l d1
          0x005e6318      32300848       move.w 0x48(a0, d0.l), d1
          0x005e631c      b294           cmp.l (a4), d1
      < 0x005e631e      6742           beq.b 0x5e6362
         0x005e6320      2f07           move.l d7, -(a7)
         0x005e6322      2c13           move.l (a3), d6
     > 0x005e6324      bc97           cmp.l (a7), d6
    < 0x005e6326      6d24           blt.b 0x5e634c
       0x005e6328      2006           move.l d6, d0
       0x005e632a      5280           addq.l 0x1, d0
       0x005e632c      b082           cmp.l d2, d0
   < 0x005e632e      6302           bls.b 0x5e6332
      0x005e6330      4e4f           trap 0xf
   > 0x005e6332      e580           asl.l 0x2, d0
       0x005e6334      204a           movea.l a2, a0
       0x005e6336      bc82           cmp.l d2, d6
   < 0x005e6338      6302           bls.b 0x5e633c
      0x005e633a      4e4f           trap 0xf
   > 0x005e633c      2206           move.l d6, d1
       0x005e633e      e581           asl.l 0x2, d1
       0x005e6340      224a           movea.l a2, a1
       0x005e6342      21b118480848   move.l 0x48(a1, d1.l), 0x48(a0, d0.l)
       0x005e6348      5386           subq.l 0x1, d6
    < 0x005e634a      68d8           bvc.b 0x5e6324
    > 0x005e634c      584f           addq.w 0x4, a7
         0x005e634e      5293           addq.l 0x1, (a3)
         0x005e6350      4227           clr.b -(a7)
         0x005e6352      2013           move.l (a3), d0
         0x005e6354      b082           cmp.l d2, d0
     < 0x005e6356      6e02           bgt.b 0x5e635a
        0x005e6358      5217           addq.b 0x1, (a7)
     > 0x005e635a      4eb90040452a   jsr p_Assert
         0x005e6360      544f           addq.w 0x2, a7
      > 0x005e6362      be82           cmp.l d2, d7
      < 0x005e6364      6302           bls.b 0x5e6368
         0x005e6366      4e4f           trap 0xf
      > 0x005e6368      2007           move.l d7, d0
          0x005e636a      e580           asl.l 0x2, d0
          0x005e636c      204a           movea.l a2, a0
          0x005e636e      2214           move.l (a4), d1
          0x005e6370      0c810000ffff   cmpi.l 0xffff, d1
      < 0x005e6376      6302           bls.b 0x5e637a
         0x005e6378      4e4f           trap 0xf
      > 0x005e637a      31810848       move.w d1, 0x48(a0, d0.l)
          0x005e637e      11ae0008084a   move.b 0x8(a6), 0x4a(a0, d0.l)
          0x005e6384      2214           move.l (a4), d1
          0x005e6386      0c810000014a   cmpi.l 0x14a, d1
      < 0x005e638c      660c           bne.b 0x5e639a
         0x005e638e      be82           cmp.l d2, d7
     < 0x005e6390      6302           bls.b 0x5e6394
        0x005e6392      4e4f           trap 0xf
     > 0x005e6394      33c700841ea2   move.w d7, 0x841ea2
      > 0x005e639a      4cdf1fc7       movem.l (a7)+, d0-d2/d6-d7/a0-a4
          0x005e639e      4e5e           unlk a6
          0x005e63a0      4e75           rts
           ; CALL XREF from AFS2_LIB.afs2_init @ 0x5ca092
 94: SEARCHER.sea_vpb_init ();
          0x005e63a2      4e56ffdc       link.w a6, 0xffdc
          0x005e63a6      bfd5           cmpa.l (a5), a7
      < 0x005e63a8      6206           bhi.b 0x5e63b0
         0x005e63aa      44fc0002       move.w 0x2, ccr
         0x005e63ae      4e76           trapv
      > 0x005e63b0      defc0022       adda.w 0x22, a7
          0x005e63b4      48e7c1c0       movem.l d0-d1/d7/a0-a1, -(a7)
          0x005e63b8      43f9005de016   lea.l 0x5de016, a1
          0x005e63be      7e01           moveq 0x1, d7
      > 0x005e63c0      48c7           ext.l d7
         0x005e63c2      2007           move.l d7, d0
         0x005e63c4      5380           subq.l 0x1, d0
         0x005e63c6      0c8000000031   cmpi.l 0x31, d0
     < 0x005e63cc      6302           bls.b 0x5e63d0
        0x005e63ce      4e4f           trap 0xf
     > 0x005e63d0      e580           asl.l 0x2, d0
         0x005e63d2      2049           movea.l a1, a0
         0x005e63d4      4a700800       tst.w (a0, d0.l)
     < 0x005e63d8      6716           beq.b 0x5e63f0
        0x005e63da      2049           movea.l a1, a0
        0x005e63dc      4281           clr.l d1
        0x005e63de      32300800       move.w (a0, d0.l), d1
        0x005e63e2      2f01           move.l d1, -(a7)
        0x005e63e4      2049           movea.l a1, a0
        0x005e63e6      1f300802       move.b 0x2(a0, d0.l), -(a7)
        0x005e63ea      4ebafea4       jsr SEARCHER.sea_extn_used(pc)
        0x005e63ee      5c4f           addq.w 0x6, a7
     > 0x005e63f0      5247           addq.w 0x1, d7
         0x005e63f2      0c470032       cmpi.w 0x32, d7
      < 0x005e63f6      6fc8           ble.b 0x5e63c0
          0x005e63f8      4cdf0383       movem.l (a7)+, d0-d1/d7/a0-a1
          0x005e63fc      4e5e           unlk a6
          0x005e63fe      4e75           rts
           ; CALL XREF from AFS2_LIB.afs2_init @ 0x5ca0aa
 258: SEARCHER.sea_init ();
          0x005e6400      4e56fe88       link.w a6, 0xfe88
          0x005e6404      bfd5           cmpa.l (a5), a7
      < 0x005e6406      6206           bhi.b 0x5e640e
         0x005e6408      44fc0002       move.w 0x2, ccr
         0x005e640c      4e76           trapv
      > 0x005e640e      defc006c       adda.w 0x6c, a7
          0x005e6412      48e7fff8       movem.l d0-d7/a0-a4, -(a7)
          0x005e6416      45f900841a5a   lea.l 0x841a5a, a2
          0x005e641c      47f900402b88   lea.l p_New_Semaphore, a3
          0x005e6422      49ee0008       lea.l 0x8(a6), a4
          0x005e6426      7201           moveq 0x1, d1
          0x005e6428      7409           moveq 0x9, d2
          0x005e642a      7603           moveq 0x3, d3
          0x005e642c      780e           moveq 0xe, d4
          0x005e642e      7a02           moveq 0x2, d5
          0x005e6430      13c100841a9c   move.b d1, 0x841a9c
          0x005e6436      13ee000a0084.  move.b 0xa(a6), 0x841ea8.l
          0x005e643e      13d400841ea9   move.b (a4), 0x841ea9
          0x005e6444      423900841a84   clr.b 0x841a84
          0x005e644a      42b900841a86   clr.l 0x841a86
          0x005e6450      1f3900841ea9   move.b 0x841ea9, -(a7)
          0x005e6456      4eb9005ddf76   jsr SEARCH_DISKS.sea1_init
          0x005e645c      3e81           move.w d1, (a7)
          0x005e645e      4eb9005d862c   jsr INDEX_QUEUE.iq_init
          0x005e6464      544f           addq.w 0x2, a7
          0x005e6466      4a14           tst.b (a4)
      < 0x005e6468      676a           beq.b 0x5e64d4
         0x005e646a      4852           pea.l (a2)
         0x005e646c      3f01           move.w d1, -(a7)
         0x005e646e      3f01           move.w d1, -(a7)
         0x005e6470      4e93           jsr (a3)                    ; fcn.0000000c
         0x005e6472      504f           addq.w 0x8, a7
         0x005e6474      487900841a68   pea.l 0x841a68
         0x005e647a      4267           clr.w -(a7)
         0x005e647c      4267           clr.w -(a7)
         0x005e647e      4e93           jsr (a3)                    ; fcn.0000000c
         0x005e6480      504f           addq.w 0x8, a7
         0x005e6482      487900841a76   pea.l 0x841a76
         0x005e6488      4267           clr.w -(a7)
         0x005e648a      3f05           move.w d5, -(a7)
         0x005e648c      4e93           jsr (a3)                    ; fcn.0000000c
         0x005e648e      584f           addq.w 0x4, a7
         0x005e6490      2eba9148       move.l 0x5df5da(pc), (a7)
         0x005e6494      2f3a9140       move.l 0x5df5d6(pc), -(a7)
         0x005e6498      2f3a9138       move.l 0x5df5d2(pc), -(a7)
         0x005e649c      3f3a9132       move.w 0x5df5d0(pc), -(a7)
         0x005e64a0      594f           subq.w 0x4, a7
         0x005e64a2      48781770       pea.l 0x1770
         0x005e64a6      487803e8       pea.l 0x3e8
         0x005e64aa      3f3c0004       move.w 0x4, -(a7)
         0x005e64ae      48780000       pea.l 0x0
         0x005e64b2      48780000       pea.l 0x0
         0x005e64b6      486f0016       pea.l 0x16(a7)
         0x005e64ba      3f01           move.w d1, -(a7)
         0x005e64bc      3f04           move.w d4, -(a7)
         0x005e64be      486d0010       pea.l 0x10(a5)
         0x005e64c2      487ad3e4       pea.l SEARCHER.search_task(pc)
         0x005e64c6      4eb9004019b4   jsr p_New_Task
         0x005e64cc      defc0022       adda.w 0x22, a7
         0x005e64d0      2e1f           move.l (a7)+, d7
         0x005e64d2      dec4           adda.w d4, a7
      > 0x005e64d4      7e09           moveq 0x9, d7
      > 0x005e64d6      4887           ext.w d7
         0x005e64d8      3007           move.w d7, d0
         0x005e64da      9042           sub.w d2, d0
         0x005e64dc      5240           addq.w 0x1, d0
         0x005e64de      48c0           ext.l d0
         0x005e64e0      2c00           move.l d0, d6
         0x005e64e2      554f           subq.w 0x2, a7
         0x005e64e4      2f06           move.l d6, -(a7)
         0x005e64e6      4eb90066a2c2   jsr USERFIELDS.udf_get_type
         0x005e64ec      584f           addq.w 0x4, a7
         0x005e64ee      101f           move.b (a7)+, d0
         0x005e64f0      4880           ext.w d0
         0x005e64f2      b043           cmp.w d3, d0
     < 0x005e64f4      6302           bls.b 0x5e64f8
        0x005e64f6      4e4e           trap 0xe
     > 0x005e64f8      d040           add.w d0, d0
         0x005e64fa      303b0006       move.w 0x5e6502(pc, d0.w), d0
         0x005e64fe      4efb0002       jmp 0x5e6502(pc, d0.w)
          0x005e6502      0008001c       
          0x005e6503      08001c00       
          0x005e6504      001c0030       ori.b 0x30, (a4)+
          0x005e6508      00464887       ori.w 0x4887, d6
          0x005e650c      3007           move.w d7, d0
          0x005e650e      9042           sub.w d2, d0
          0x005e6510      4183           chk.w d3, d0
          0x005e6512      204a           movea.l a2, a0
          0x005e6514      41f00000       lea.l (a0, d0.w), a0
          0x005e6518      4228044a       clr.b 0x44a(a0)
      < 0x005e651c      603c           bra.b 0x5e655a
         0x005e651e      4887           ext.w d7
         0x005e6520      3007           move.w d7, d0
         0x005e6522      9042           sub.w d2, d0
         0x005e6524      4183           chk.w d3, d0
         0x005e6526      204a           movea.l a2, a0
         0x005e6528      41f00000       lea.l (a0, d0.w), a0
         0x005e652c      1145044a       move.b d5, 0x44a(a0)
     < 0x005e6530      6028           bra.b 0x5e655a
        0x005e6532      4887           ext.w d7
        0x005e6534      3007           move.w d7, d0
        0x005e6536      9042           sub.w d2, d0
        0x005e6538      4183           chk.w d3, d0
        0x005e653a      204a           movea.l a2, a0
        0x005e653c      41f00000       lea.l (a0, d0.w), a0
        0x005e6540      117c000b044a   move.b 0xb, 0x44a(a0)
    < 0x005e6546      6012           bra.b 0x5e655a
       0x005e6548      4887           ext.w d7
       0x005e654a      3007           move.w d7, d0
       0x005e654c      9042           sub.w d2, d0
       0x005e654e      4183           chk.w d3, d0
       0x005e6550      204a           movea.l a2, a0
       0x005e6552      41f00000       lea.l (a0, d0.w), a0
       0x005e6556      1142044a       move.b d2, 0x44a(a0)
    > 0x005e655a      5207           addq.b 0x1, d7
          0x005e655c      0c07000c       cmpi.b 0xc, d7
       < 0x005e6560      6f00ff74       ble.w 0x5e64d6              ; SEARCHER.sea_init+0xd6
           0x005e6564      487900841a8a   pea.l 0x841a8a
           0x005e656a      3f01           move.w d1, -(a7)
           0x005e656c      3f01           move.w d1, -(a7)
           0x005e656e      4e93           jsr (a3)                    ; fcn.0000000c
           0x005e6570      504f           addq.w 0x8, a7
           0x005e6572      23c100841a98   move.l d1, 0x841a98
           0x005e6578      4a14           tst.b (a4)
       < 0x005e657a      676e           beq.b 0x5e65ea
          0x005e657c      9efc0010       suba.w 0x10, a7
          0x005e6580      204f           movea.l a7, a0
          0x005e6582      43fa906d       lea.l 0x5df5f1(pc), a1
          0x005e6586      700e           moveq 0xe, d0
      > 0x005e6588      10d9           move.b (a1)+, (a0)+
      < 0x005e658a      51c8fffc       dbra d0, 0x5e6588
          0x005e658e      48780000       pea.l 0x0
          0x005e6592      486f0004       pea.l 0x4(a7)
          0x005e6596      3f01           move.w d1, -(a7)
          0x005e6598      3f3c000f       move.w 0xf, -(a7)
          0x005e659c      4ebaa4b8       jsr SEARCHER.sea_set_user(pc)
          0x005e65a0      dec4           adda.w d4, a7
          0x005e65a2      204f           movea.l a7, a0
          0x005e65a4      43fa905b       lea.l 0x5df601(pc), a1
          0x005e65a8      700c           moveq 0xc, d0
      > 0x005e65aa      10d9           move.b (a1)+, (a0)+
      < 0x005e65ac      51c8fffc       dbra d0, 0x5e65aa
          0x005e65b0      48780001       pea.l 0x1
          0x005e65b4      486f0004       pea.l 0x4(a7)
          0x005e65b8      3f01           move.w d1, -(a7)
          0x005e65ba      3f3c000d       move.w 0xd, -(a7)
          0x005e65be      4ebaa496       jsr SEARCHER.sea_set_user(pc)
          0x005e65c2      defc000c       adda.w 0xc, a7
          0x005e65c6      204f           movea.l a7, a0
          0x005e65c8      43fa9045       lea.l 0x5df60f(pc), a1
          0x005e65cc      700c           moveq 0xc, d0
      > 0x005e65ce      10d9           move.b (a1)+, (a0)+
      < 0x005e65d0      51c8fffc       dbra d0, 0x5e65ce
          0x005e65d4      48780002       pea.l 0x2
          0x005e65d8      486f0004       pea.l 0x4(a7)
          0x005e65dc      3f01           move.w d1, -(a7)
          0x005e65de      3f3c000d       move.w 0xd, -(a7)
          0x005e65e2      4ebaa472       jsr SEARCHER.sea_set_user(pc)
          0x005e65e6      defc001a       adda.w 0x1a, a7
       > 0x005e65ea      4cdf1fff       movem.l (a7)+, d0-d7/a0-a4
           0x005e65ee      4e5e           unlk a6
