            ;-- TEXTMAV:
            0x006a4cb6      .byte 0x00
            0x006a4cb7      .byte 0x78
            0x006a4cb8      .byte 0x02
            0x006a4cb9      .byte 0xd8
            0x006a4cba      .byte 0x01
            0x006a4cbb      .byte 0xf8
            0x006a4cbc      .byte 0x0b
            0x006a4cbd      .byte 0x60
            0x006a4cbe      .byte 0x01
            0x006a4cbf      .byte 0xf8
            0x006a4cc0      .byte 0x05
            0x006a4cc1      .byte 0xb0
            0x006a4cc2      .byte 0x07
            0x006a4cc3      .byte 0xf8
            0x006a4cc4      .byte 0x0b
            0x006a4cc5      .byte 0x60
            0x006a4cc6      .byte 0x00
            0x006a4cc7      .byte 0x00
            0x006a4cc8      .byte 0x00
            0x006a4cc9      .byte 0x00
            0x006a4cca      .byte 0x00
            0x006a4ccb      .byte 0x00
            0x006a4ccc      .byte 0x00
            0x006a4ccd      .byte 0x00
            0x006a4cce      .byte 0x00
            0x006a4ccf      .byte 0x00
            0x006a4cd0      .byte 0x02
            0x006a4cd1      .byte 0xc7
            0x006a4cd2      .byte 0x01
            0x006a4cd3      .byte 0xe5
            0x006a4cd4      .byte 0x03
            0x006a4cd5      .byte 0x00
            0x006a4cd6      .byte 0x01
            0x006a4cd7      .byte 0xe4
            0x006a4cd8      .byte 0x02
            0x006a4cd9      .byte 0xbd
            0x006a4cda      .byte 0x02
            0x006a4cdb      .byte 0x3f
            0x006a4cdc      .byte 0x00
            0x006a4cdd      .byte 0x0a
            0x006a4cde      .byte 0x00
            0x006a4cdf      .byte 0x08
            0x006a4ce0      .byte 0x00
            0x006a4ce1      .byte 0x60
            0x006a4ce2      .byte 0x00
            0x006a4ce3      .byte 0xb4
            0x006a4ce4      .byte 0x00
            0x006a4ce5      .byte 0x8c
            0x006a4ce6      .byte 0x00
            0x006a4ce7      .byte 0x07
            0x006a4ce8      .byte 0x00
            0x006a4ce9      .byte 0x03
            0x006a4cea      .byte 0x00
            0x006a4ceb      .byte 0x04
            0x006a4cec      .byte 0x00
            0x006a4ced      .byte 0xa3
            0x006a4cee      .byte 0x00
            0x006a4cef      .byte 0x0e
            0x006a4cf0      .byte 0x00
            0x006a4cf1      .byte 0x0e
            0x006a4cf2      .byte 0x00
            0x006a4cf3      .byte 0x0e
            0x006a4cf4      .byte 0x00
            0x006a4cf5      .byte 0x00
            0x006a4cf6      .byte 0x00
            0x006a4cf7      .byte 0x00
            0x006a4cf8      .byte 0x00
            0x006a4cf9      .byte 0x00
            0x006a4cfa      .byte 0x00
            0x006a4cfb      .byte 0x00
            0x006a4cfc      .byte 0x00
            0x006a4cfd      .byte 0x00
            0x006a4cfe      .byte 0x00
            0x006a4cff      .byte 0x00
            0x006a4d00      .byte 0x00
            0x006a4d01      .byte 0x00
            0x006a4d02      .byte 0x00
            0x006a4d03      .byte 0x00
            0x006a4d04      .byte 0x00
            0x006a4d05      .byte 0x00
            0x006a4d06      .byte 0x00
            0x006a4d07      .byte 0x00
            0x006a4d08      .byte 0x00
            0x006a4d09      .byte 0x00
            0x006a4d0a      .byte 0x00
            0x006a4d0b      .byte 0x00
            0x006a4d0c      .byte 0x00
            0x006a4d0d      .byte 0x00
            0x006a4d0e      .byte 0x00
            0x006a4d0f      .byte 0x00
            0x006a4d10      .byte 0x00
            0x006a4d11      .byte 0x00
            0x006a4d12      .byte 0x00
            0x006a4d13      .byte 0x00
            0x006a4d14      .byte 0x00
            0x006a4d15      .byte 0x00
            0x006a4d16      .byte 0x00
            0x006a4d17      .byte 0x00
            0x006a4d18      .byte 0x00
            0x006a4d19      .byte 0x00
            0x006a4d1a      .byte 0x00
            0x006a4d1b      .byte 0x00
            0x006a4d1c      .byte 0x00
            0x006a4d1d      .byte 0x00
            0x006a4d1e      .byte 0x00
            0x006a4d1f      .byte 0x00
            0x006a4d20      .byte 0x00
            0x006a4d21      .byte 0x00
            0x006a4d22      .byte 0x00
            0x006a4d23      .byte 0x00
            0x006a4d24      .byte 0x00
            0x006a4d25      .byte 0x00
            0x006a4d26      .byte 0x00
            0x006a4d27      .byte 0x00
            0x006a4d28      .byte 0x00
            0x006a4d29      .byte 0x04
            0x006a4d2a      .byte 0xa3
            0x006a4d2b      .byte 0xd9
            0x006a4d2c      .byte 0x91
            0x006a4d2d      .byte 0x01
            0x006a4d2e      .byte 0x00
            0x006a4d2f      .byte 0x00
            0x006a4d30      .byte 0x00
            0x006a4d31      .byte 0x00
            0x006a4d32      .byte 0x00
            0x006a4d33      .byte 0x00
            0x006a4d34      .byte 0x00
            0x006a4d35      .byte 0x00
            0x006a4d36      .byte 0x00
            0x006a4d37      .byte 0x00
            0x006a4d38      .byte 0x00
            0x006a4d39      .byte 0x00
            0x006a4d3a      .byte 0x12
            0x006a4d3b      .byte 0xd1
            0x006a4d3c      .byte 0xff
            0x006a4d3d      .byte 0x84
            0x006a4d3e      .byte 0x00
            0x006a4d3f      .byte 0x00
            0x006a4d40      .byte 0x00
            0x006a4d41      .byte 0x00
            0x006a4d42      .byte 0x00
            0x006a4d43      .byte 0x00
            0x006a4d44      .byte 0x00
            0x006a4d45      .byte 0x00
            0x006a4d46      .byte 0x00
            0x006a4d47      .byte 0x00
            0x006a4d48      .byte 0x00
            0x006a4d49      .byte 0x00
            0x006a4d4a      .byte 0x00
            0x006a4d4b      .byte 0x19
            0x006a4d4c      .byte 0xda
            0x006a4d4d      .byte 0xff
            0x006a4d4e      .byte 0x70
            0x006a4d4f      .byte 0x00
            0x006a4d50      .byte 0x00
            0x006a4d51      .byte 0x00
            0x006a4d52      .byte 0x00
            0x006a4d53      .byte 0x00
            0x006a4d54      .byte 0x00
            0x006a4d55      .byte 0x8a
            0x006a4d56      .byte 0x8a
            0x006a4d57      .byte 0x8a
            0x006a4d58      .byte 0x8a
            0x006a4d59      .byte 0x8a
            0x006a4d5a      .byte 0x8a
            0x006a4d5b      .byte 0x8a
            0x006a4d5c      .byte 0xa9
            0x006a4d5d      .byte 0xff
            0x006a4d5e      .byte 0xfd
            0x006a4d5f      .byte 0x5c
            0x006a4d60      .byte 0x00
            0x006a4d61      .byte 0x00
            0x006a4d62      .byte 0x00
            0x006a4d63      .byte 0x00
            0x006a4d64      .byte 0x00
            0x006a4d65      .byte 0xff
            0x006a4d66      .byte 0xff
            0x006a4d67      .byte 0xff
            0x006a4d68      .byte 0xff
            0x006a4d69      .byte 0xff
            0x006a4d6a      .byte 0xff
            0x006a4d6b      .byte 0xff
            0x006a4d6c      .byte 0xff
            0x006a4d6d      .byte 0xff
            0x006a4d6e      .byte 0xff
            0x006a4d6f      .byte 0xe2
            0x006a4d70      .byte 0x07
            0x006a4d71      .byte 0x00
            0x006a4d72      .byte 0x00
            0x006a4d73      .byte 0x00
            0x006a4d74      .byte 0x00
            0x006a4d75     .string "QQQQQQQ" ; len=7
            0x006a4d7c      .byte 0x91
            0x006a4d7d      .byte 0xff
            0x006a4d7e      .byte 0xf0
            0x006a4d7f      .byte 0x31
            0x006a4d80      .byte 0x00
            0x006a4d81      .byte 0x00
            0x006a4d82      .byte 0x00
            0x006a4d83      .byte 0x00
            0x006a4d84      .byte 0x00
            0x006a4d85      .byte 0x00
            0x006a4d86      .byte 0x00
            0x006a4d87      .byte 0x00
            0x006a4d88      .byte 0x00
            0x006a4d89      .byte 0x00
            0x006a4d8a      .byte 0x00
            0x006a4d8b      .byte 0x38
            0x006a4d8c      .byte 0xf2
            0x006a4d8d      .byte 0xf6
            0x006a4d8e      .byte 0x40
            0x006a4d8f      .byte 0x00
            0x006a4d90      .byte 0x00
            0x006a4d91      .byte 0x00
            0x006a4d92      .byte 0x00
            0x006a4d93      .byte 0x00
            0x006a4d94      .byte 0x00
            0x006a4d95      .byte 0x00
            0x006a4d96      .byte 0x00
            0x006a4d97      .byte 0x00
            0x006a4d98      .byte 0x00
            0x006a4d99      .byte 0x00
            0x006a4d9a      .byte 0x2d
            0x006a4d9b      .byte 0xed
            0x006a4d9c      .byte 0xfb
            0x006a4d9d      .byte 0x51
            0x006a4d9e      .byte 0x00
            0x006a4d9f      .byte 0x00
            0x006a4da0      .byte 0x00
            0x006a4da1      .byte 0x00
            0x006a4da2      .byte 0x00
            0x006a4da3      .byte 0x00
            0x006a4da4      .byte 0x00
            0x006a4da5      .byte 0x00
            0x006a4da6      .byte 0x00
            0x006a4da7      .byte 0x00
            0x006a4da8      .byte 0x00
            0x006a4da9      .byte 0x04
            0x006a4daa      .byte 0x87
            0x006a4dab      .byte 0x9e
            0x006a4dac      .byte 0x5a
            0x006a4dad      .byte 0x00
            0x006a4dae      .byte 0x00
            0x006a4daf      .byte 0x00
            0x006a4db0      .byte 0x00
            0x006a4db1      .byte 0x00
            0x006a4db2      .byte 0x00
            0x006a4db3      .byte 0x00
            0x006a4db4      .byte 0x00
            0x006a4db5      .byte 0x00
            0x006a4db6      .byte 0x00
            0x006a4db7      .byte 0x00
            0x006a4db8      .byte 0x00
            0x006a4db9      .byte 0x00
            0x006a4dba      .byte 0x00
            0x006a4dbb      .byte 0x00
            0x006a4dbc      .byte 0x00
            0x006a4dbd      .byte 0x00
            0x006a4dbe      .byte 0x00
            0x006a4dbf      .byte 0x00
            0x006a4dc0      .byte 0x00
            0x006a4dc1      .byte 0x00
            0x006a4dc2      .byte 0x00
            0x006a4dc3      .byte 0x00
            0x006a4dc4      .byte 0x00
            0x006a4dc5      .byte 0x00
            0x006a4dc6      .byte 0x00
            0x006a4dc7      .byte 0x00
            0x006a4dc8      .byte 0x00
            0x006a4dc9      .byte 0x00
            0x006a4dca      .byte 0x00
            0x006a4dcb      .byte 0x00
            0x006a4dcc      .byte 0x00
            0x006a4dcd      .byte 0x00
            0x006a4dce      .byte 0x00
            0x006a4dcf      .byte 0x00
            0x006a4dd0      .byte 0x00
            0x006a4dd1      .byte 0x00
            0x006a4dd2      .byte 0x00
            0x006a4dd3      .byte 0x00
            0x006a4dd4      .byte 0x00
            0x006a4dd5      .byte 0x00
            0x006a4dd6      .byte 0x00
            0x006a4dd7      .byte 0x00
            0x006a4dd8      .byte 0x00
            0x006a4dd9      .byte 0x00
            0x006a4dda      .byte 0x00
            0x006a4ddb      .byte 0x00
            0x006a4ddc      .byte 0x00
            0x006a4ddd      .byte 0x00
            0x006a4dde      .byte 0x00
            0x006a4ddf      .byte 0x00
            0x006a4de0      .byte 0x00
            0x006a4de1      .byte 0x00
            0x006a4de2      .byte 0x00
            0x006a4de3      .byte 0x00
            0x006a4de4      .byte 0x00
            0x006a4de5      .byte 0x00
            0x006a4de6      .byte 0x00
            0x006a4de7      .byte 0x00
            0x006a4de8      .byte 0x00
            0x006a4de9      .byte 0x00
            0x006a4dea      .byte 0x00
            0x006a4deb      .byte 0x00
            0x006a4dec      .byte 0x00
            0x006a4ded      .byte 0x00
            0x006a4dee      .byte 0x00
            0x006a4def      .byte 0x00
            0x006a4df0      .byte 0x00
            0x006a4df1      .byte 0x00
            0x006a4df2      .byte 0x00
            0x006a4df3      .byte 0x00
            0x006a4df4      .byte 0x00
            0x006a4df5      .byte 0x0b
            0x006a4df6      .byte 0x00
            0x006a4df7      .byte 0x0b
            0x006a4df8      .byte 0x00
            0x006a4df9      .byte 0x0d
            0x006a4dfa      .byte 0x00
            0x006a4dfb      .byte 0x00
            0x006a4dfc      .byte 0x00
            0x006a4dfd      .byte 0x00
            0x006a4dfe      .byte 0x00
            0x006a4dff      .byte 0x00
            0x006a4e00      .byte 0x00
            0x006a4e01      .byte 0x00
            0x006a4e02      .byte 0x00
            0x006a4e03      .byte 0x00
            0x006a4e04      .byte 0x00
            0x006a4e05      .byte 0x00
            0x006a4e06      .byte 0x00
            0x006a4e07      .byte 0x00
            0x006a4e08      .byte 0x00
            0x006a4e09      .byte 0x00
            0x006a4e0a      .byte 0x00
            0x006a4e0b      .byte 0x00
            0x006a4e0c      .byte 0x04
            0x006a4e0d      .byte 0x69
            0x006a4e0e      .byte 0xdc
            0x006a4e0f      .byte 0xf0
            0x006a4e10      .byte 0xf0
            0x006a4e11      .byte 0xf0
            0x006a4e12      .byte 0xf0
            0x006a4e13      .byte 0xf0
            0x006a4e14      .byte 0x3c
            0x006a4e15      .byte 0x00
            0x006a4e16      .byte 0x00
            0x006a4e17      .byte 0x00
            0x006a4e18      .byte 0x00
            0x006a4e19      .byte 0x00
            0x006a4e1a      .byte 0x00
            0x006a4e1b      .byte 0x02
            0x006a4e1c      .byte 0x6e
            0x006a4e1d      .byte 0xe6
            0x006a4e1e      .byte 0xff
            0x006a4e1f      .byte 0xff
            0x006a4e20      .byte 0xff
            0x006a4e21      .byte 0xff
            0x006a4e22      .byte 0xff
            0x006a4e23      .byte 0xff
            0x006a4e24      .byte 0x3a
            0x006a4e25      .byte 0x00
            0x006a4e26      .byte 0x00
            0x006a4e27      .byte 0x00
            0x006a4e28      .byte 0x00
            0x006a4e29      .byte 0x00
            0x006a4e2a      .byte 0x00
            0x006a4e2b      .byte 0x0a
            0x006a4e2c      .byte 0x50
            0x006a4e2d      .byte 0x50
            0x006a4e2e      .byte 0x50
            0x006a4e2f      .byte 0x41
            0x006a4e30      .byte 0xaa
            0x006a4e31      .byte 0xff
            0x006a4e32      .byte 0xff
            0x006a4e33      .byte 0xff
            0x006a4e34      .byte 0x3a
            0x006a4e35      .byte 0x00
            0x006a4e36      .byte 0x00
            0x006a4e37      .byte 0x00
            0x006a4e38      .byte 0x00
            0x006a4e39      .byte 0x00
            0x006a4e3a      .byte 0x00
            0x006a4e3b      .byte 0x00
            0x006a4e3c      .byte 0x00
            0x006a4e3d      .byte 0x00
            0x006a4e3e      .byte 0x1e
            0x006a4e3f      .byte 0xc8
            0x006a4e40      .byte 0xff
            0x006a4e41      .byte 0xb4
            0x006a4e42      .byte 0xff
            0x006a4e43      .byte 0xff
            0x006a4e44      .byte 0x3a
            0x006a4e45      .byte 0x00
            0x006a4e46      .byte 0x00
            0x006a4e47      .byte 0x00
            0x006a4e48      .byte 0x00
            0x006a4e49      .byte 0x00
            0x006a4e4a      .byte 0x00
            0x006a4e4b      .byte 0x00
            0x006a4e4c      .byte 0x00
            0x006a4e4d      .byte 0x1e
            0x006a4e4e      .byte 0xb4
            0x006a4e4f      .byte 0xff
            0x006a4e50      .byte 0xbe
            0x006a4e51      .byte 0x28
            0x006a4e52      .byte 0xf5
            0x006a4e53      .byte 0xff
            0x006a4e54      .byte 0x3a
            0x006a4e55      .byte 0x00
            0x006a4e56      .byte 0x00
            0x006a4e57      .byte 0x00
            0x006a4e58      .byte 0x00
            0x006a4e59      .byte 0x00
            0x006a4e5a      .byte 0x00
            0x006a4e5b      .byte 0x00
            0x006a4e5c      .byte 0x0a
            0x006a4e5d      .byte 0xb4
            0x006a4e5e      .byte 0xff
            0x006a4e5f      .byte 0xd2
            0x006a4e60      .byte 0x28
            0x006a4e61      .byte 0x0a
            0x006a4e62      .byte 0xe1
            0x006a4e63      .byte 0xff
            0x006a4e64      .byte 0x2a
            0x006a4e65      .byte 0x00
            0x006a4e66      .byte 0x00
            0x006a4e67      .byte 0x00
            0x006a4e68      .byte 0x00
            0x006a4e69      .byte 0x00
            0x006a4e6a      .byte 0x00
            0x006a4e6b      .byte 0x05
            0x006a4e6c      .byte 0xb9
            0x006a4e6d      .byte 0xff
            0x006a4e6e      .byte 0xdc
            0x006a4e6f      .byte 0x32
            0x006a4e70      .byte 0x00
            0x006a4e71      .byte 0x00
            0x006a4e72      .byte 0x96
            0x006a4e73      .byte 0x8c
            0x006a4e74      .byte 0x05
            0x006a4e75      .byte 0x00
            0x006a4e76      .byte 0x00
            0x006a4e77      .byte 0x00
            0x006a4e78      .byte 0x00
            0x006a4e79      .byte 0x00
            0x006a4e7a      .byte 0x09
            0x006a4e7b      .byte 0xdc
            0x006a4e7c      .byte 0xff
            0x006a4e7d      .byte 0xe6
            0x006a4e7e      .byte 0x37
            0x006a4e7f      .byte 0x00
            0x006a4e80      .byte 0x00
            0x006a4e81      .byte 0x00
            0x006a4e82      .byte 0x5f
            0x006a4e83      .byte 0x14
            0x006a4e84      .byte 0x00
            0x006a4e85      .byte 0x00
            0x006a4e86      .byte 0x00
            0x006a4e87      .byte 0x00
            0x006a4e88      .byte 0x00
            0x006a4e89      .byte 0x00
            0x006a4e8a      .byte 0x08
            0x006a4e8b      .byte 0xb0
            0x006a4e8c      .byte 0xe6
            0x006a4e8d      .byte 0x23
            0x006a4e8e      .byte 0x00
            0x006a4e8f      .byte 0x00
            0x006a4e90      .byte 0x00
            0x006a4e91      .byte 0x00
            0x006a4e92      .byte 0x14
            0x006a4e93      .byte 0x00
            0x006a4e94      .byte 0x00
            0x006a4e95      .byte 0x00
            0x006a4e96      .byte 0x00
            0x006a4e97      .byte 0x00
            0x006a4e98      .byte 0x00
            0x006a4e99      .byte 0x00
            0x006a4e9a      .byte 0x00
            0x006a4e9b      .byte 0x0a
            0x006a4e9c      .byte 0x1e
            0x006a4e9d      .byte 0x00
            0x006a4e9e      .byte 0x00
            0x006a4e9f      .byte 0x00
            0x006a4ea0      .byte 0x00
            0x006a4ea1      .byte 0x00
            0x006a4ea2      .byte 0x00
            0x006a4ea3      .byte 0x00
            0x006a4ea4      .byte 0x00
            0x006a4ea5      .byte 0x00
            0x006a4ea6      .byte 0x00
            0x006a4ea7      .byte 0x00
            0x006a4ea8      .byte 0x00
            0x006a4ea9      .byte 0x00
            0x006a4eaa      .byte 0x00
            0x006a4eab      .byte 0x00
            0x006a4eac      .byte 0x00
            0x006a4ead      .byte 0x00
            0x006a4eae      .byte 0x00
            0x006a4eaf      .byte 0x00
            0x006a4eb0      .byte 0x00
            0x006a4eb1      .byte 0x00
            0x006a4eb2      .byte 0x00
            0x006a4eb3      .byte 0x00
            0x006a4eb4      .byte 0x00
            0x006a4eb5      .byte 0x00
            0x006a4eb6      .byte 0x00
            0x006a4eb7      .byte 0x00
            0x006a4eb8      .byte 0x00
            0x006a4eb9      .byte 0x00
            0x006a4eba      .byte 0x00
            0x006a4ebb      .byte 0x00
            0x006a4ebc      .byte 0x00
            0x006a4ebd      .byte 0x00
            0x006a4ebe      .byte 0x00
            0x006a4ebf      .byte 0x00
            0x006a4ec0      .byte 0x00
            0x006a4ec1      .byte 0x00
            0x006a4ec2      .byte 0x00
            0x006a4ec3      .byte 0x00
            0x006a4ec4      .byte 0x00
            0x006a4ec5      .byte 0x00
            0x006a4ec6      .byte 0x00
            0x006a4ec7      .byte 0x00
            0x006a4ec8      .byte 0x00
            0x006a4ec9      .byte 0x00
            0x006a4eca      .byte 0x00
            0x006a4ecb      .byte 0x00
            0x006a4ecc      .byte 0x00
            0x006a4ecd      .byte 0x00
            0x006a4ece      .byte 0x00
            0x006a4ecf      .byte 0x00
            0x006a4ed0      .byte 0x00
            0x006a4ed1      .byte 0x00
            0x006a4ed2      .byte 0x00
            0x006a4ed3      .byte 0x00
            0x006a4ed4      .byte 0x00
            0x006a4ed5      .byte 0x00
            0x006a4ed6      .byte 0x00
            0x006a4ed7      .byte 0x00
            0x006a4ed8      .byte 0x00
            0x006a4ed9      .byte 0x00
            0x006a4eda      .byte 0x00
            0x006a4edb      .byte 0x00
            0x006a4edc      .byte 0x00
            0x006a4edd      .byte 0x00
            0x006a4ede      .byte 0x00
            0x006a4edf      .byte 0x00
            0x006a4ee0      .byte 0x00
            0x006a4ee1      .byte 0x00
            0x006a4ee2      .byte 0x00
            0x006a4ee3      .byte 0x00
            0x006a4ee4      .byte 0x00
            0x006a4ee5      .byte 0x00
            0x006a4ee6      .byte 0x00
            0x006a4ee7      .byte 0x00
            0x006a4ee8      .byte 0x00
            0x006a4ee9      .byte 0x00
            0x006a4eea      .byte 0x00
            0x006a4eeb      .byte 0x00
            0x006a4eec      .byte 0x00
            0x006a4eed      .byte 0x00
            0x006a4eee      .byte 0x00
            0x006a4eef      .byte 0x00
            0x006a4ef0      .byte 0x00
            0x006a4ef1      .byte 0x00
            0x006a4ef2      .byte 0x00
            0x006a4ef3      .byte 0x00
            0x006a4ef4      .byte 0x00
            0x006a4ef5      .byte 0x00
            0x006a4ef6      .byte 0x00
            0x006a4ef7      .byte 0x00
            0x006a4ef8      .byte 0x00
            0x006a4ef9      .byte 0x00
            0x006a4efa      .byte 0x00
            0x006a4efb      .byte 0x0b
            0x006a4efc      .byte 0x00
            0x006a4efd      .byte 0x0b
            0x006a4efe      .byte 0x00
            0x006a4eff      .byte 0x0d
            0x006a4f00      .byte 0x00
            0x006a4f01      .byte 0x00
            0x006a4f02      .byte 0x00
            0x006a4f03      .byte 0x00
            0x006a4f04      .byte 0x00
            0x006a4f05      .byte 0x00
            0x006a4f06      .byte 0x00
            0x006a4f07      .byte 0x00
            0x006a4f08      .byte 0x00
            0x006a4f09      .byte 0x00
            0x006a4f0a      .byte 0x00
            0x006a4f0b      .byte 0x00
            0x006a4f0c      .byte 0x00
            0x006a4f0d      .byte 0x00
            0x006a4f0e      .byte 0x00
            0x006a4f0f      .byte 0x00
            0x006a4f10      .byte 0x00
            0x006a4f11      .byte 0x00
            0x006a4f12      .byte 0x00
            0x006a4f13      .byte 0x00
            0x006a4f14      .byte 0x00
            0x006a4f15      .byte 0x00
            0x006a4f16      .byte 0x00
            0x006a4f17      .byte 0x00
            0x006a4f18      .byte 0x00
            0x006a4f19      .byte 0x00
            0x006a4f1a      .byte 0x00
            0x006a4f1b      .byte 0x00
            0x006a4f1c      .byte 0x00
            0x006a4f1d      .byte 0x00
            0x006a4f1e      .byte 0x00
            0x006a4f1f      .byte 0x00
            0x006a4f20      .byte 0x00
            0x006a4f21      .byte 0x00
            0x006a4f22      .byte 0x00
            0x006a4f23      .byte 0xfe
            0x006a4f24      .byte 0xfe
            0x006a4f25      .byte 0xfe
            0x006a4f26      .byte 0x00
            0x006a4f27      .byte 0x00
            0x006a4f28      .byte 0x00
            0x006a4f29      .byte 0x00
            0x006a4f2a      .byte 0x00
            0x006a4f2b      .byte 0x00
            0x006a4f2c      .byte 0x00
            0x006a4f2d      .byte 0x00
            0x006a4f2e      .byte 0x00
            0x006a4f2f      .byte 0x00
            0x006a4f30      .byte 0x00
            0x006a4f31      .byte 0x00
            0x006a4f32      .byte 0xfe
            0x006a4f33      .byte 0xff
            0x006a4f34      .byte 0xff
            0x006a4f35      .byte 0xff
            0x006a4f36      .byte 0xfe
            0x006a4f37      .byte 0x00
            0x006a4f38      .byte 0x00
            0x006a4f39      .byte 0x00
            0x006a4f3a      .byte 0x00
            0x006a4f3b      .byte 0x00
            0x006a4f3c      .byte 0x00
            0x006a4f3d      .byte 0x00
            0x006a4f3e      .byte 0x00
            0x006a4f3f      .byte 0x00
            0x006a4f40      .byte 0x00
            0x006a4f41      .byte 0xfe
            0x006a4f42      .byte 0xff
            0x006a4f43      .byte 0xfe
            0x006a4f44      .byte 0x00
            0x006a4f45      .byte 0xfe
            0x006a4f46      .byte 0xff
            0x006a4f47      .byte 0xfe
            0x006a4f48      .byte 0x00
            0x006a4f49      .byte 0x00
            0x006a4f4a      .byte 0x00
            0x006a4f4b      .byte 0x00
            0x006a4f4c      .byte 0x00
            0x006a4f4d      .byte 0x00
            0x006a4f4e      .byte 0x00
            0x006a4f4f      .byte 0x00
            0x006a4f50      .byte 0xfe
            0x006a4f51      .byte 0xff
            0x006a4f52      .byte 0xfe
            0x006a4f53      .byte 0x00
            0x006a4f54      .byte 0x00
            0x006a4f55      .byte 0x00
            0x006a4f56      .byte 0xfe
            0x006a4f57      .byte 0xff
            0x006a4f58      .byte 0xfe
            0x006a4f59      .byte 0x00
            0x006a4f5a      .byte 0x00
            0x006a4f5b      .byte 0x00
            0x006a4f5c      .byte 0x00
            0x006a4f5d      .byte 0x00
            0x006a4f5e      .byte 0x00
            0x006a4f5f      .byte 0x00
            0x006a4f60      .byte 0xfe
            0x006a4f61      .byte 0x00
            0x006a4f62      .byte 0x00
            0x006a4f63      .byte 0x00
            0x006a4f64      .byte 0x00
            0x006a4f65      .byte 0x00
            0x006a4f66      .byte 0x00
            0x006a4f67      .byte 0x00
            0x006a4f68      .byte 0xfe
            0x006a4f69      .byte 0x00
            0x006a4f6a      .byte 0x00
            0x006a4f6b      .byte 0x00
            0x006a4f6c      .byte 0x00
            0x006a4f6d      .byte 0x00
            0x006a4f6e      .byte 0x00
            0x006a4f6f      .byte 0x00
            0x006a4f70      .byte 0x00
            0x006a4f71      .byte 0x00
            0x006a4f72      .byte 0x00
            0x006a4f73      .byte 0x00
            0x006a4f74      .byte 0x00
            0x006a4f75      .byte 0x00
            0x006a4f76      .byte 0x00
            0x006a4f77      .byte 0x00
            0x006a4f78      .byte 0x00
            0x006a4f79      .byte 0x00
            0x006a4f7a      .byte 0x00
            0x006a4f7b      .byte 0x00
            0x006a4f7c      .byte 0x00
            0x006a4f7d      .byte 0x00
            0x006a4f7e      .byte 0x00
            0x006a4f7f      .byte 0x00
            0x006a4f80      .byte 0x00
            0x006a4f81      .byte 0x00
            0x006a4f82      .byte 0x00
            0x006a4f83      .byte 0x00
            0x006a4f84      .byte 0x00
            0x006a4f85      .byte 0x00
            0x006a4f86      .byte 0x00
            0x006a4f87      .byte 0x00
            0x006a4f88      .byte 0x00
            0x006a4f89      .byte 0x00
            0x006a4f8a      .byte 0x00
            0x006a4f8b      .byte 0x00
            0x006a4f8c      .byte 0x00
            0x006a4f8d      .byte 0x00
            0x006a4f8e      .byte 0x00
            0x006a4f8f      .byte 0x00
            0x006a4f90      .byte 0x00
            0x006a4f91      .byte 0x00
            0x006a4f92      .byte 0x00
            0x006a4f93      .byte 0x00
            0x006a4f94      .byte 0x00
            0x006a4f95      .byte 0x00
            0x006a4f96      .byte 0x00
            0x006a4f97      .byte 0x00
            0x006a4f98      .byte 0x00
            0x006a4f99      .byte 0x00
            0x006a4f9a      .byte 0x00
            0x006a4f9b      .byte 0x00
            0x006a4f9c      .byte 0x00
            0x006a4f9d      .byte 0x00
            0x006a4f9e      .byte 0x00
            0x006a4f9f      .byte 0x00
            0x006a4fa0      .byte 0x00
            0x006a4fa1      .byte 0x00
            0x006a4fa2      .byte 0x00
            0x006a4fa3      .byte 0x00
            0x006a4fa4      .byte 0x00
            0x006a4fa5      .byte 0x00
            0x006a4fa6      .byte 0x00
            0x006a4fa7      .byte 0x00
            0x006a4fa8      .byte 0x00
            0x006a4fa9      .byte 0x00
            0x006a4faa      .byte 0x00
            0x006a4fab      .byte 0x00
            0x006a4fac      .byte 0x00
            0x006a4fad      .byte 0x00
            0x006a4fae      .byte 0x00
            0x006a4faf      .byte 0x00
            0x006a4fb0      .byte 0x00
            0x006a4fb1      .byte 0x00
            0x006a4fb2      .byte 0x00
            0x006a4fb3      .byte 0x00
            0x006a4fb4      .byte 0x00
            0x006a4fb5      .byte 0x00
            0x006a4fb6      .byte 0x00
            0x006a4fb7      .byte 0x00
            0x006a4fb8      .byte 0x00
            0x006a4fb9      .byte 0x00
            0x006a4fba      .byte 0x00
            0x006a4fbb      .byte 0x00
            0x006a4fbc      .byte 0x00
            0x006a4fbd      .byte 0x00
            0x006a4fbe      .byte 0x00
            0x006a4fbf      .byte 0x00
            0x006a4fc0      .byte 0x00
            0x006a4fc1      .byte 0x00
            0x006a4fc2      .byte 0x00
            0x006a4fc3      .byte 0x00
            0x006a4fc4      .byte 0x00
            0x006a4fc5      .byte 0x00
            0x006a4fc6      .byte 0x00
            0x006a4fc7      .byte 0x00
            0x006a4fc8      .byte 0x00
            0x006a4fc9      .byte 0x00
            0x006a4fca      .byte 0x00
            0x006a4fcb      .byte 0x00
            0x006a4fcc      .byte 0x00
            0x006a4fcd      .byte 0x00
            0x006a4fce      .byte 0x00
            0x006a4fcf      .byte 0x00
            0x006a4fd0      .byte 0x00
            0x006a4fd1      .byte 0x00
            0x006a4fd2      .byte 0x00
            0x006a4fd3      .byte 0x00
            0x006a4fd4      .byte 0x00
            0x006a4fd5      .byte 0x00
            0x006a4fd6      .byte 0x00
            0x006a4fd7      .byte 0x00
            0x006a4fd8      .byte 0x00
            0x006a4fd9      .byte 0x00
            0x006a4fda      .byte 0x00
            0x006a4fdb      .byte 0x00
            0x006a4fdc      .byte 0x00
            0x006a4fdd      .byte 0x00
            0x006a4fde      .byte 0x00
            0x006a4fdf      .byte 0x00
            0x006a4fe0      .byte 0x00
            0x006a4fe1      .byte 0x00
            0x006a4fe2      .byte 0x00
            0x006a4fe3      .byte 0x00
            0x006a4fe4      .byte 0x00
            0x006a4fe5      .byte 0x00
            0x006a4fe6      .byte 0x00
            0x006a4fe7      .byte 0x00
            0x006a4fe8      .byte 0x00
            0x006a4fe9      .byte 0x00
            0x006a4fea      .byte 0x00
            0x006a4feb      .byte 0x00
            0x006a4fec      .byte 0x00
            0x006a4fed      .byte 0x00
            0x006a4fee      .byte 0x00
            0x006a4fef      .byte 0x00
            0x006a4ff0      .byte 0x00
            0x006a4ff1      .byte 0x00
            0x006a4ff2      .byte 0x00
            0x006a4ff3      .byte 0x00
            0x006a4ff4      .byte 0x00
            0x006a4ff5      .byte 0x00
            0x006a4ff6      .byte 0x00
            0x006a4ff7      .byte 0x00
            0x006a4ff8      .byte 0x00
            0x006a4ff9      .byte 0x00
            0x006a4ffa      .byte 0x00
            0x006a4ffb      .byte 0x00
            0x006a4ffc      .byte 0x00
            0x006a4ffd      .byte 0x00
            0x006a4ffe      .byte 0x00
            0x006a4fff      .byte 0x00
            0x006a5000      .byte 0x00
            0x006a5001      .byte 0x0b
            0x006a5002      .byte 0x00
            0x006a5003      .byte 0x0d
            0x006a5004      .byte 0x00
            0x006a5005      .byte 0x0e
            0x006a5006      .byte 0x00
            0x006a5007      .byte 0x00
            0x006a5008      .byte 0x00
            0x006a5009      .byte 0x00
            0x006a500a      .byte 0x00
            0x006a500b      .byte 0x00
            0x006a500c      .byte 0x00
            0x006a500d      .byte 0x00
            0x006a500e      .byte 0x00
            0x006a500f      .byte 0x00
            0x006a5010      .byte 0x00
            0x006a5011      .byte 0x00
            0x006a5012      .byte 0x00
            0x006a5013      .byte 0x00
            0x006a5014      .byte 0x00
            0x006a5015      .byte 0x00
            0x006a5016      .byte 0x00
            0x006a5017      .byte 0x00
            0x006a5018      .byte 0x00
            0x006a5019      .byte 0x00
            0x006a501a      .byte 0x00
            0x006a501b      .byte 0x00
            0x006a501c      .byte 0x00
            0x006a501d      .byte 0x00
            0x006a501e      .byte 0x00
            0x006a501f      .byte 0x00
            0x006a5020      .byte 0x00
            0x006a5021      .byte 0x00
            0x006a5022      .byte 0x00
            0x006a5023      .byte 0x00
            0x006a5024      .byte 0x00
            0x006a5025      .byte 0x00
            0x006a5026      .byte 0x00
            0x006a5027      .byte 0x00
            0x006a5028      .byte 0x0d
            0x006a5029      .byte 0x80
            0x006a502a      .byte 0xe6
            0x006a502b      .byte 0xe6
            0x006a502c      .byte 0xc0
            0x006a502d      .byte 0x40
            0x006a502e      .byte 0x00
            0x006a502f      .byte 0x00
            0x006a5030      .byte 0x00
            0x006a5031      .byte 0x00
            0x006a5032      .byte 0x00
            0x006a5033      .byte 0x00
            0x006a5034      .byte 0x00
            0x006a5035      .byte 0x00
            0x006a5036      .byte 0x00
            0x006a5037      .byte 0x00
            0x006a5038      .byte 0xc0
            0x006a5039      .byte 0xff
            0x006a503a      .byte 0xff
            0x006a503b      .byte 0xf2
            0x006a503c      .byte 0xff
            0x006a503d      .byte 0xff
            0x006a503e      .byte 0x80
            0x006a503f      .byte 0x00
            0x006a5040      .byte 0x00
            0x006a5041      .byte 0x00
            0x006a5042      .byte 0x00
            0x006a5043      .byte 0x00
            0x006a5044      .byte 0x00
            0x006a5045      .byte 0x00
            0x006a5046      .byte 0x00
            0x006a5047      .byte 0x00
            0x006a5048      .byte 0xff
            0x006a5049      .byte 0x64
            0x006a504a      .byte 0xa6
            0x006a504b      .byte 0x00
            0x006a504c      .byte 0x59
            0x006a504d      .byte 0xff
            0x006a504e      .byte 0xf2
            0x006a504f      .byte 0x19
            0x006a5050      .byte 0x00
            0x006a5051      .byte 0x00
            0x006a5052      .byte 0x00
            0x006a5053      .byte 0x00
            0x006a5054      .byte 0x00
            0x006a5055      .byte 0x00
            0x006a5056      .byte 0x00
            0x006a5057      .byte 0x00
            0x006a5058      .byte 0xf2
            0x006a5059      .byte 0xff
            0x006a505a      .byte 0x54
            0x006a505b      .byte 0x00
            0x006a505c      .byte 0x00
            0x006a505d      .byte 0xcc
            0x006a505e      .byte 0xff
            0x006a505f      .byte 0x33
            0x006a5060      .byte 0x00
            0x006a5061      .byte 0x00
            0x006a5062      .byte 0x00
            0x006a5063      .byte 0x00
            0x006a5064      .byte 0x00
            0x006a5065      .byte 0x00
            0x006a5066      .byte 0x00
            0x006a5067      .byte 0x19
            0x006a5068      .byte 0xc0
            0x006a5069      .byte 0xff
            0x006a506a      .byte 0xb2
            0x006a506b      .byte 0x00
            0x006a506c      .byte 0x00
            0x006a506d      .byte 0x3f
            0x006a506e      .byte 0x54
            0x006a506f      .byte 0x0d
            0x006a5070      .byte 0x00
            0x006a5071      .byte 0x00
            0x006a5072      .byte 0x00
            0x006a5073      .byte 0x00
            0x006a5074      .byte 0x00
            0x006a5075      .byte 0x00
            0x006a5076      .byte 0x00
            0x006a5077      .byte 0x73
            0x006a5078      .byte 0xf5
            0x006a5079      .byte 0xff
            0x006a507a      .byte 0xf5
            0x006a507b      .byte 0xc0
            0x006a507c      .byte 0x59
            0x006a507d      .byte 0x00
            0x006a507e      .byte 0x00
            0x006a507f      .byte 0x00
            0x006a5080      .byte 0x00
            0x006a5081      .byte 0x00
            0x006a5082      .byte 0x00
            0x006a5083      .byte 0x00
            0x006a5084      .byte 0x00
            0x006a5085      .byte 0x00
            0x006a5086      .byte 0x00
            0x006a5087      .byte 0x00
            0x006a5088      .byte 0x33
            0x006a5089      .byte 0xff
            0x006a508a      .byte 0xff
            0x006a508b      .byte 0x66
            0x006a508c      .byte 0x59
            0x006a508d      .byte 0x00
            0x006a508e      .byte 0x00
            0x006a508f      .byte 0x00
            0x006a5090      .byte 0x00
            0x006a5091      .byte 0x00
            0x006a5092      .byte 0x00
            0x006a5093      .byte 0x00
            0x006a5094      .byte 0x00
            0x006a5095      .byte 0x00
            0x006a5096      .byte 0x00
            0x006a5097      .byte 0x00
            0x006a5098      .byte 0x4c
            0x006a5099      .byte 0xff
            0x006a509a      .byte 0xe5
            0x006a509b      .byte 0x00
            0x006a509c      .byte 0x00
            0x006a509d      .byte 0x00
            0x006a509e      .byte 0x00
            0x006a509f      .byte 0x00
            0x006a50a0      .byte 0x00
            0x006a50a1      .byte 0x00
            0x006a50a2      .byte 0x00
            0x006a50a3      .byte 0x00
            0x006a50a4      .byte 0x00
            0x006a50a5      .byte 0x00
            0x006a50a6      .byte 0x00
            0x006a50a7      .byte 0x33
            0x006a50a8      .byte 0xcc
            0x006a50a9      .byte 0xff
            0x006a50aa      .byte 0xa5
            0x006a50ab      .byte 0x00
            0x006a50ac      .byte 0x00
            0x006a50ad      .byte 0x00
            0x006a50ae      .byte 0x00
            0x006a50af      .byte 0x00
            0x006a50b0      .byte 0x00
            0x006a50b1      .byte 0x00
            0x006a50b2      .byte 0x00
            0x006a50b3      .byte 0x00
            0x006a50b4      .byte 0x00
            0x006a50b5      .byte 0x00
            0x006a50b6      .byte 0x00
            0x006a50b7      .byte 0xb2
            0x006a50b8      .byte 0xff
            0x006a50b9      .byte 0xff
            0x006a50ba      .byte 0xff
            0x006a50bb      .byte 0xff
            0x006a50bc      .byte 0xc8
            0x006a50bd      .byte 0xc8
            0x006a50be      .byte 0x7a
            0x006a50bf      .byte 0x00
            0x006a50c0      .byte 0x00
            0x006a50c1      .byte 0x00
            0x006a50c2      .byte 0x00
            0x006a50c3      .byte 0x00
            0x006a50c4      .byte 0x00
            0x006a50c5      .byte 0x00
            0x006a50c6      .byte 0x00
            0x006a50c7      .byte 0x3b
            0x006a50c8      .byte 0xb4
            0x006a50c9      .byte 0xd2
            0x006a50ca      .byte 0xf2
            0x006a50cb      .byte 0xff
            0x006a50cc      .byte 0xff
            0x006a50cd      .byte 0xff
            0x006a50ce      .byte 0x7a
            0x006a50cf      .byte 0x00
            0x006a50d0      .byte 0x00
            0x006a50d1      .byte 0x00
            0x006a50d2      .byte 0x00
            0x006a50d3      .byte 0x00
            0x006a50d4      .byte 0x00
            0x006a50d5      .byte 0x00
            0x006a50d6      .byte 0x00
            0x006a50d7      .byte 0x00
            0x006a50d8      .byte 0x00
            0x006a50d9     .string "33@P@" ; len=5
            0x006a50de      .byte 0x0d
            0x006a50df      .byte 0x00
            0x006a50e0      .byte 0x00
            0x006a50e1      .byte 0x00
            0x006a50e2      .byte 0x00
            0x006a50e3      .byte 0x00
            0x006a50e4      .byte 0x00
            0x006a50e5      .byte 0x00
            0x006a50e6      .byte 0x00
            0x006a50e7      .byte 0x00
            0x006a50e8      .byte 0x00
            0x006a50e9      .byte 0x00
            0x006a50ea      .byte 0x00
            0x006a50eb      .byte 0x00
            0x006a50ec      .byte 0x00
            0x006a50ed      .byte 0x00
            0x006a50ee      .byte 0x00
            0x006a50ef      .byte 0x00
            0x006a50f0      .byte 0x00
            0x006a50f1      .byte 0x00
            0x006a50f2      .byte 0x00
            0x006a50f3      .byte 0x00
            0x006a50f4      .byte 0x00
            0x006a50f5      .byte 0x00
            0x006a50f6      .byte 0x00
            0x006a50f7      .byte 0x00
            0x006a50f8      .byte 0x00
            0x006a50f9      .byte 0x00
            0x006a50fa      .byte 0x00
            0x006a50fb      .byte 0x00
            0x006a50fc      .byte 0x00
            0x006a50fd      .byte 0x00
            0x006a50fe      .byte 0x00
            0x006a50ff      .byte 0x00
            0x006a5100      .byte 0x00
            0x006a5101      .byte 0x00
            0x006a5102      .byte 0x00
            0x006a5103      .byte 0x00
            0x006a5104      .byte 0x00
            0x006a5105      .byte 0x00
            0x006a5106      .byte 0x00
            0x006a5107      .byte 0x0b
            0x006a5108      .byte 0x00
            0x006a5109      .byte 0x0b
            0x006a510a      .byte 0x00
            0x006a510b      .byte 0x0c
            0x006a510c      .byte 0x00
            0x006a510d      .byte 0x00
            0x006a510e      .byte 0x00
            0x006a510f      .byte 0x00
            0x006a5110      .byte 0x00
            0x006a5111      .byte 0x00
            0x006a5112      .byte 0x00
            0x006a5113      .byte 0x00
            0x006a5114      .byte 0x00
            0x006a5115      .byte 0x00
            0x006a5116      .byte 0x00
            0x006a5117      .byte 0x00
            0x006a5118      .byte 0x00
            0x006a5119      .byte 0x00
            0x006a511a      .byte 0x00
            0x006a511b      .byte 0x00
            0x006a511c      .byte 0x00
            0x006a511d      .byte 0x00
            0x006a511e      .byte 0x00
            0x006a511f      .byte 0x00
            0x006a5120      .byte 0x00
            0x006a5121      .byte 0x00
            0x006a5122      .byte 0x00
            0x006a5123      .byte 0x00
            0x006a5124      .byte 0x00
            0x006a5125      .byte 0x00
            0x006a5126      .byte 0x00
            0x006a5127      .byte 0x00
            0x006a5128      .byte 0x00
            0x006a5129      .byte 0x00
            0x006a512a      .byte 0x00
            0x006a512b      .byte 0x00
            0x006a512c      .byte 0x00
            0x006a512d      .byte 0x00
            0x006a512e      .byte 0x00
            0x006a512f      .byte 0x00
            0x006a5130      .byte 0x00
            0x006a5131      .byte 0x4c
            0x006a5132      .byte 0xd9
            0x006a5133      .byte 0xb2
            0x006a5134      .byte 0x00
            0x006a5135      .byte 0x00
            0x006a5136      .byte 0x00
            0x006a5137      .byte 0x00
            0x006a5138      .byte 0x00
            0x006a5139      .byte 0x00
            0x006a513a      .byte 0x00
            0x006a513b      .byte 0x00
            0x006a513c      .byte 0x00
            0x006a513d      .byte 0x00
            0x006a513e      .byte 0x00
            0x006a513f      .byte 0x0d
            0x006a5140      .byte 0x80
            0x006a5141      .byte 0xff
            0x006a5142      .byte 0xff
            0x006a5143      .byte 0xe0
            0x006a5144      .byte 0x00
            0x006a5145      .byte 0x00
            0x006a5146      .byte 0x00
            0x006a5147      .byte 0x00
            0x006a5148      .byte 0x00
            0x006a5149      .byte 0x00
            0x006a514a      .byte 0x00
            0x006a514b      .byte 0x00
            0x006a514c      .byte 0x00
            0x006a514d      .byte 0x00
            0x006a514e      .byte 0x26
            0x006a514f      .byte 0xd9
            0x006a5150      .byte 0xff
            0x006a5151      .byte 0xcc
            0x006a5152      .byte 0x99
            0x006a5153      .byte 0x26
            0x006a5154      .byte 0x00
            0x006a5155      .byte 0x00
            0x006a5156      .byte 0x00
            0x006a5157      .byte 0x00
            0x006a5158      .byte 0x00
            0x006a5159      .byte 0x00
            0x006a515a      .byte 0x00
            0x006a515b      .byte 0x00
            0x006a515c      .byte 0x00
            0x006a515d      .byte 0x00
            0x006a515e      .byte 0x4c
            0x006a515f      .byte 0x66
            0x006a5160      .byte 0x33
            0x006a5161      .byte 0x00
            0x006a5162      .byte 0x00
            0x006a5163      .byte 0x00
            0x006a5164      .byte 0x00
            0x006a5165      .byte 0x00
            0x006a5166      .byte 0x00
            0x006a5167      .byte 0x00
            0x006a5168      .byte 0x00
            0x006a5169      .byte 0x00
            0x006a516a      .byte 0x00
            0x006a516b      .byte 0x00
            0x006a516c      .byte 0x00
            0x006a516d      .byte 0x00
            0x006a516e      .byte 0x00
            0x006a516f      .byte 0x00
            0x006a5170      .byte 0x00
            0x006a5171      .byte 0x00
            0x006a5172      .byte 0x00
            0x006a5173      .byte 0x00
            0x006a5174      .byte 0x00
            0x006a5175      .byte 0x00
            0x006a5176      .byte 0x00
            0x006a5177      .byte 0x00
            0x006a5178      .byte 0x00
            0x006a5179      .byte 0x00
            0x006a517a      .byte 0x00
            0x006a517b      .byte 0x00
            0x006a517c      .byte 0x00
            0x006a517d      .byte 0x00
            0x006a517e      .byte 0x00
            0x006a517f      .byte 0x00
            0x006a5180      .byte 0x00
            0x006a5181      .byte 0x00
            0x006a5182      .byte 0x00
            0x006a5183      .byte 0x00
            0x006a5184      .byte 0x00
            0x006a5185      .byte 0x00
            0x006a5186      .byte 0x00
            0x006a5187      .byte 0x00
            0x006a5188      .byte 0x00
            0x006a5189      .byte 0x00
            0x006a518a      .byte 0x00
            0x006a518b      .byte 0x00
            0x006a518c      .byte 0x00
            0x006a518d      .byte 0x00
            0x006a518e      .byte 0x00
            0x006a518f      .byte 0x00
            0x006a5190      .byte 0x00
            0x006a5191      .byte 0x00
            0x006a5192      .byte 0x00
            0x006a5193      .byte 0x00
            0x006a5194      .byte 0x00
            0x006a5195      .byte 0x00
            0x006a5196      .byte 0x00
            0x006a5197      .byte 0x00
            0x006a5198      .byte 0x00
            0x006a5199      .byte 0x00
            0x006a519a      .byte 0x00
            0x006a519b      .byte 0x00
            0x006a519c      .byte 0x00
            0x006a519d      .byte 0x00
            0x006a519e      .byte 0x00
            0x006a519f      .byte 0x00
            0x006a51a0      .byte 0x00
            0x006a51a1      .byte 0x00
            0x006a51a2      .byte 0x00
            0x006a51a3      .byte 0x00
            0x006a51a4      .byte 0x00
            0x006a51a5      .byte 0x00
            0x006a51a6      .byte 0x00
            0x006a51a7      .byte 0x00
            0x006a51a8      .byte 0x00
            0x006a51a9      .byte 0x00
            0x006a51aa      .byte 0x00
            0x006a51ab      .byte 0x00
            0x006a51ac      .byte 0x00
            0x006a51ad      .byte 0x00
            0x006a51ae      .byte 0x00
            0x006a51af      .byte 0x00
            0x006a51b0      .byte 0x00
            0x006a51b1      .byte 0x00
            0x006a51b2      .byte 0x00
            0x006a51b3      .byte 0x00
            0x006a51b4      .byte 0x00
            0x006a51b5      .byte 0x00
            0x006a51b6      .byte 0x00
            0x006a51b7      .byte 0x00
            0x006a51b8      .byte 0x00
            0x006a51b9      .byte 0x00
            0x006a51ba      .byte 0x00
            0x006a51bb      .byte 0x00
            0x006a51bc      .byte 0x00
            0x006a51bd      .byte 0x00
            0x006a51be      .byte 0x00
            0x006a51bf      .byte 0x00
            0x006a51c0      .byte 0x00
            0x006a51c1      .byte 0x00
            0x006a51c2      .byte 0x00
            0x006a51c3      .byte 0x00
            0x006a51c4      .byte 0x00
            0x006a51c5      .byte 0x00
            0x006a51c6      .byte 0x00
            0x006a51c7      .byte 0x00
            0x006a51c8      .byte 0x00
            0x006a51c9      .byte 0x00
            0x006a51ca      .byte 0x00
            0x006a51cb      .byte 0x00
            0x006a51cc      .byte 0x00
            0x006a51cd      .byte 0x00
            0x006a51ce      .byte 0x00
            0x006a51cf      .byte 0x00
            0x006a51d0      .byte 0x00
            0x006a51d1      .byte 0x00
            0x006a51d2      .byte 0x00
            0x006a51d3      .byte 0x00
            0x006a51d4      .byte 0x00
            0x006a51d5      .byte 0x00
            0x006a51d6      .byte 0x00
            0x006a51d7      .byte 0x00
            0x006a51d8      .byte 0x00
            0x006a51d9      .byte 0x00
            0x006a51da      .byte 0x00
            0x006a51db      .byte 0x00
            0x006a51dc      .byte 0x00
            0x006a51dd      .byte 0x00
            0x006a51de      .byte 0x00
            0x006a51df      .byte 0x00
            0x006a51e0      .byte 0x00
            0x006a51e1      .byte 0x00
            0x006a51e2      .byte 0x00
            0x006a51e3      .byte 0x00
            0x006a51e4      .byte 0x00
            0x006a51e5      .byte 0x00
            0x006a51e6      .byte 0x00
            0x006a51e7      .byte 0x00
            0x006a51e8      .byte 0x00
            0x006a51e9      .byte 0x00
            0x006a51ea      .byte 0x00
            0x006a51eb      .byte 0x00
            0x006a51ec      .byte 0x00
            0x006a51ed      .byte 0x00
            0x006a51ee      .byte 0x00
            0x006a51ef      .byte 0x00
            0x006a51f0      .byte 0x00
            0x006a51f1      .byte 0x00
            0x006a51f2      .byte 0x00
            0x006a51f3      .byte 0x00
            0x006a51f4      .byte 0x00
            0x006a51f5      .byte 0x00
            0x006a51f6      .byte 0x00
            0x006a51f7      .byte 0x00
            0x006a51f8      .byte 0x00
            0x006a51f9      .byte 0x00
            0x006a51fa      .byte 0x00
            0x006a51fb      .byte 0x00
            0x006a51fc      .byte 0x00
            0x006a51fd      .byte 0x00
            0x006a51fe      .byte 0x00
            0x006a51ff      .byte 0x00
            0x006a5200      .byte 0x00
            0x006a5201      .byte 0x00
            0x006a5202      .byte 0x00
            0x006a5203      .byte 0x00
            0x006a5204      .byte 0x00
            0x006a5205      .byte 0x00
            0x006a5206      .byte 0x00
            0x006a5207      .byte 0x00
            0x006a5208      .byte 0x00
            0x006a5209      .byte 0x00
            0x006a520a      .byte 0x00
            0x006a520b      .byte 0x00
            0x006a520c      .byte 0x00
            0x006a520d      .byte 0x0b
            0x006a520e      .byte 0x00
            0x006a520f      .byte 0x0b
            0x006a5210      .byte 0x00
            0x006a5211      .byte 0x0c
            0x006a5212      .byte 0x00
            0x006a5213      .byte 0x00
            0x006a5214      .byte 0x00
            0x006a5215      .byte 0x00
            0x006a5216      .byte 0x00
            0x006a5217      .byte 0x00
            0x006a5218      .byte 0x00
            0x006a5219      .byte 0x00
            0x006a521a      .byte 0x00
            0x006a521b      .byte 0x00
            0x006a521c      .byte 0x00
            0x006a521d      .byte 0x00
            0x006a521e      .byte 0x00
            0x006a521f      .byte 0x00
            0x006a5220      .byte 0x00
            0x006a5221      .byte 0x00
            0x006a5222      .byte 0x00
            0x006a5223      .byte 0x00
            0x006a5224      .byte 0x00
            0x006a5225      .byte 0x00
            0x006a5226      .byte 0x00
            0x006a5227      .byte 0x00
            0x006a5228      .byte 0x00
            0x006a5229      .byte 0x00
            0x006a522a      .byte 0x00
            0x006a522b      .byte 0x00
            0x006a522c      .byte 0x00
            0x006a522d      .byte 0x00
            0x006a522e      .byte 0x00
            0x006a522f      .byte 0x00
            0x006a5230      .byte 0x00
            0x006a5231      .byte 0x00
            0x006a5232      .byte 0x00
            0x006a5233      .byte 0x00
            0x006a5234      .byte 0xb2
            0x006a5235      .byte 0xd9
            0x006a5236      .byte 0x4c
            0x006a5237      .byte 0x00
            0x006a5238      .byte 0x00
            0x006a5239      .byte 0x00
            0x006a523a      .byte 0x00
            0x006a523b      .byte 0x00
            0x006a523c      .byte 0x00
            0x006a523d      .byte 0x00
            0x006a523e      .byte 0x00
            0x006a523f      .byte 0x00
            0x006a5240      .byte 0x00
            0x006a5241      .byte 0x00
            0x006a5242      .byte 0x00
            0x006a5243      .byte 0x00
            0x006a5244      .byte 0xe0
            0x006a5245      .byte 0xff
            0x006a5246      .byte 0xff
            0x006a5247      .byte 0x80
            0x006a5248      .byte 0x0d
            0x006a5249      .byte 0x00
            0x006a524a      .byte 0x00
            0x006a524b      .byte 0x00
            0x006a524c      .byte 0x00
            0x006a524d      .byte 0x00
            0x006a524e      .byte 0x00
            0x006a524f      .byte 0x00
            0x006a5250      .byte 0x00
            0x006a5251      .byte 0x00
            0x006a5252      .byte 0x00
            0x006a5253      .byte 0x00
            0x006a5254      .byte 0x26
            0x006a5255      .byte 0x99
            0x006a5256      .byte 0xcc
            0x006a5257      .byte 0xff
            0x006a5258      .byte 0xd9
            0x006a5259      .byte 0x26
            0x006a525a      .byte 0x00
            0x006a525b      .byte 0x00
            0x006a525c      .byte 0x00
            0x006a525d      .byte 0x00
            0x006a525e      .byte 0x00
            0x006a525f      .byte 0x00
            0x006a5260      .byte 0x00
            0x006a5261      .byte 0x00
            0x006a5262      .byte 0x00
            0x006a5263      .byte 0x00
            0x006a5264      .byte 0x00
            0x006a5265      .byte 0x00
            0x006a5266      .byte 0x00
            0x006a5267      .byte 0x33
            0x006a5268      .byte 0x66
            0x006a5269      .byte 0x4c
            0x006a526a      .byte 0x00
            0x006a526b      .byte 0x00
            0x006a526c      .byte 0x00
            0x006a526d      .byte 0x00
            0x006a526e      .byte 0x00
            0x006a526f      .byte 0x00
            0x006a5270      .byte 0x00
            0x006a5271      .byte 0x00
            0x006a5272      .byte 0x00
            0x006a5273      .byte 0x00
            0x006a5274      .byte 0x00
            0x006a5275      .byte 0x00
            0x006a5276      .byte 0x00
            0x006a5277      .byte 0x00
            0x006a5278      .byte 0x00
            0x006a5279      .byte 0x00
            0x006a527a      .byte 0x00
            0x006a527b      .byte 0x00
            0x006a527c      .byte 0x00
            0x006a527d      .byte 0x00
            0x006a527e      .byte 0x00
            0x006a527f      .byte 0x00
            0x006a5280      .byte 0x00
            0x006a5281      .byte 0x00
            0x006a5282      .byte 0x00
            0x006a5283      .byte 0x00
            0x006a5284      .byte 0x00
            0x006a5285      .byte 0x00
            0x006a5286      .byte 0x00
            0x006a5287      .byte 0x00
            0x006a5288      .byte 0x00
            0x006a5289      .byte 0x00
            0x006a528a      .byte 0x00
            0x006a528b      .byte 0x00
            0x006a528c      .byte 0x00
            0x006a528d      .byte 0x00
            0x006a528e      .byte 0x00
            0x006a528f      .byte 0x00
            0x006a5290      .byte 0x00
            0x006a5291      .byte 0x00
            0x006a5292      .byte 0x00
            0x006a5293      .byte 0x00
            0x006a5294      .byte 0x00
            0x006a5295      .byte 0x00
            0x006a5296      .byte 0x00
            0x006a5297      .byte 0x00
            0x006a5298      .byte 0x00
            0x006a5299      .byte 0x00
            0x006a529a      .byte 0x00
            0x006a529b      .byte 0x00
            0x006a529c      .byte 0x00
            0x006a529d      .byte 0x00
            0x006a529e      .byte 0x00
            0x006a529f      .byte 0x00
            0x006a52a0      .byte 0x00
            0x006a52a1      .byte 0x00
            0x006a52a2      .byte 0x00
            0x006a52a3      .byte 0x00
            0x006a52a4      .byte 0x00
            0x006a52a5      .byte 0x00
            0x006a52a6      .byte 0x00
            0x006a52a7      .byte 0x00
            0x006a52a8      .byte 0x00
            0x006a52a9      .byte 0x00
            0x006a52aa      .byte 0x00
            0x006a52ab      .byte 0x00
            0x006a52ac      .byte 0x00
            0x006a52ad      .byte 0x00
            0x006a52ae      .byte 0x00
            0x006a52af      .byte 0x00
            0x006a52b0      .byte 0x00
            0x006a52b1      .byte 0x00
            0x006a52b2      .byte 0x00
            0x006a52b3      .byte 0x00
            0x006a52b4      .byte 0x00
            0x006a52b5      .byte 0x00
            0x006a52b6      .byte 0x00
            0x006a52b7      .byte 0x00
            0x006a52b8      .byte 0x00
            0x006a52b9      .byte 0x00
            0x006a52ba      .byte 0x00
            0x006a52bb      .byte 0x00
            0x006a52bc      .byte 0x00
            0x006a52bd      .byte 0x00
            0x006a52be      .byte 0x00
            0x006a52bf      .byte 0x00
            0x006a52c0      .byte 0x00
            0x006a52c1      .byte 0x00
            0x006a52c2      .byte 0x00
            0x006a52c3      .byte 0x00
            0x006a52c4      .byte 0x00
            0x006a52c5      .byte 0x00
            0x006a52c6      .byte 0x00
            0x006a52c7      .byte 0x00
            0x006a52c8      .byte 0x00
            0x006a52c9      .byte 0x00
            0x006a52ca      .byte 0x00
            0x006a52cb      .byte 0x00
            0x006a52cc      .byte 0x00
            0x006a52cd      .byte 0x00
            0x006a52ce      .byte 0x00
            0x006a52cf      .byte 0x00
            0x006a52d0      .byte 0x00
            0x006a52d1      .byte 0x00
            0x006a52d2      .byte 0x00
            0x006a52d3      .byte 0x00
            0x006a52d4      .byte 0x00
            0x006a52d5      .byte 0x00
            0x006a52d6      .byte 0x00
            0x006a52d7      .byte 0x00
            0x006a52d8      .byte 0x00
            0x006a52d9      .byte 0x00
            0x006a52da      .byte 0x00
            0x006a52db      .byte 0x00
            0x006a52dc      .byte 0x00
            0x006a52dd      .byte 0x00
            0x006a52de      .byte 0x00
            0x006a52df      .byte 0x00
            0x006a52e0      .byte 0x00
            0x006a52e1      .byte 0x00
            0x006a52e2      .byte 0x00
            0x006a52e3      .byte 0x00
            0x006a52e4      .byte 0x00
            0x006a52e5      .byte 0x00
            0x006a52e6      .byte 0x00
            0x006a52e7      .byte 0x00
            0x006a52e8      .byte 0x00
            0x006a52e9      .byte 0x00
            0x006a52ea      .byte 0x00
            0x006a52eb      .byte 0x00
            0x006a52ec      .byte 0x00
            0x006a52ed      .byte 0x00
            0x006a52ee      .byte 0x00
            0x006a52ef      .byte 0x00
            0x006a52f0      .byte 0x00
            0x006a52f1      .byte 0x00
            0x006a52f2      .byte 0x00
            0x006a52f3      .byte 0x00
            0x006a52f4      .byte 0x00
            0x006a52f5      .byte 0x00
            0x006a52f6      .byte 0x00
            0x006a52f7      .byte 0x00
            0x006a52f8      .byte 0x00
            0x006a52f9      .byte 0x00
            0x006a52fa      .byte 0x00
            0x006a52fb      .byte 0x00
            0x006a52fc      .byte 0x00
            0x006a52fd      .byte 0x00
            0x006a52fe      .byte 0x00
            0x006a52ff      .byte 0x00
            0x006a5300      .byte 0x00
            0x006a5301      .byte 0x00
            0x006a5302      .byte 0x00
            0x006a5303      .byte 0x00
            0x006a5304      .byte 0x00
            0x006a5305      .byte 0x00
            0x006a5306      .byte 0x00
            0x006a5307      .byte 0x00
            0x006a5308      .byte 0x00
            0x006a5309      .byte 0x00
            0x006a530a      .byte 0x00
            0x006a530b      .byte 0x00
            0x006a530c      .byte 0x00
            0x006a530d      .byte 0x00
            0x006a530e      .byte 0x00
            0x006a530f      .byte 0x00
            0x006a5310      .byte 0x00
            0x006a5311      .byte 0x00
            0x006a5312     .string ".,+o$#W@" ; len=8
            0x006a531a      .byte 0x07
            0x006a531b     .string "ascii :" ; len=7
            0x006a5322      .byte 0x03
            0x006a5323     .string "   " ; len=3
            0x006a5326      .byte 0x29
            0x006a5327     .string "menu text font overflowed allocated area." ; len=41
            0x006a5350      .byte 0x05
            0x006a5351     .string "char " ; len=5
            0x006a5356      .byte 0x07
            0x006a5357     .string ", size " ; len=7
            0x006a535e      .byte 0x0b
            0x006a535f     .string ", last_pos " ; len=11
            0x006a536a      .byte 0x0f
            0x006a536b     .string "menu font char " ; len=15
            0x006a537a      .byte 0x12
            0x006a537b     .string " overflowed x area" ; len=18
            0x006a538d      .byte 0x20
            0x006a538e     .string ".+o$#W@" ; len=7
            0x006a5395      .byte 0x15
            0x006a5396     .string "data missed for char " ; len=21
            0x006a53ab      .byte 0x0a
            0x006a53ac     .string "Character " ; len=10
            0x006a53b6      .byte 0x00
            0x006a53b7      .byte 0x00
            0x006a53b8      .byte 0x00
            0x006a53b9      .byte 0x00
            0x006a53ba      .byte 0xff
            0x006a53bb      .byte 0xff
            0x006a53bc      .byte 0xff
            0x006a53bd      .byte 0xff
            0x006a53be      .byte 0xff
            0x006a53bf      .byte 0xff
            0x006a53c0      .byte 0xff
            0x006a53c1      .byte 0xff
            0x006a53c2      .byte 0xff
            0x006a53c3      .byte 0xff
            0x006a53c4      .byte 0xff
            0x006a53c5      .byte 0x7f
            0x006a53c6      .byte 0x00
            0x006a53c7      .byte 0x00
            0x006a53c8      .byte 0x00
            0x006a53c9      .byte 0x00
            0x006a53ca      .byte 0x00
            0x006a53cb      .byte 0x00
            0x006a53cc      .byte 0x00
            0x006a53cd      .byte 0x00
            0x006a53ce      .byte 0x00
            0x006a53cf      .byte 0x00
            0x006a53d0      .byte 0x00
            0x006a53d1      .byte 0x00
            0x006a53d2      .byte 0x00
            0x006a53d3      .byte 0x00
            0x006a53d4      .byte 0x00
            0x006a53d5      .byte 0x00
            0x006a53d6      .byte 0x08
            0x006a53d7     .string "  Value " ; len=8
            0x006a53df      .byte 0x05
            0x006a53e0     .string "Size " ; len=5
            0x006a53e5      .byte 0x03
            0x006a53e6      .byte 0x20
            0x006a53e7      .byte 0x78
            0x006a53e8      .byte 0x20
            0x006a53e9      .byte 0x0b
            0x006a53ea     .string "  Baseline " ; len=11
            0x006a53f5      .byte 0x0f
            0x006a53f6     .string "Creating arrow " ; len=15
            0x006a5405      .byte 0x10
            0x006a5406     .string "Creating accent " ; len=16
            0x006a5416      .byte 0x3f
            0x006a5417      .byte 0x00
            0x006a5418      .byte 0xff
            0x006a5419      .byte 0xff
            0x006a541a      .byte 0xff
            0x006a541b      .byte 0xff
            0x006a541c      .byte 0xff
            0x006a541d      .byte 0xff
            0x006a541e      .byte 0xff
            0x006a541f      .byte 0xff
            0x006a5420      .byte 0xff
            0x006a5421      .byte 0xff
            0x006a5422      .byte 0xff
            0x006a5423      .byte 0xff
            0x006a5424      .byte 0xff
            0x006a5425      .byte 0xff
            0x006a5426      .byte 0xff
            0x006a5427      .byte 0xff
            0x006a5428      .byte 0xff
            0x006a5429      .byte 0xff
            0x006a542a      .byte 0xff
            0x006a542b      .byte 0xff
            0x006a542c      .byte 0xff
            0x006a542d      .byte 0xff
            0x006a542e      .byte 0xff
            0x006a542f      .byte 0xff
            0x006a5430      .byte 0xff
            0x006a5431      .byte 0xff
            0x006a5432      .byte 0xff
            0x006a5433      .byte 0xff
            0x006a5434      .byte 0xff
            0x006a5435      .byte 0xff
            0x006a5436      .byte 0xff
            0x006a5437      .byte 0xff
            0x006a5438      .byte 0x05
            0x006a5439     .string "char:" ; len=5
            0x006a543e      .byte 0x07
            0x006a543f     .string "  wide:" ; len=7
            0x006a5446      .byte 0x07
            0x006a5447     .string "  high:" ; len=7
            0x006a544e      .byte 0x06
            0x006a544f     .string "  top:" ; len=6
            0x006a5455      .byte 0x0b
            0x006a5456     .string "  data ptr:" ; len=11
            0x006a5461      .byte 0x0f
            0x006a5462     .string "menu_font took:" ; len=15
            0x006a5471      .byte 0x07
            0x006a5472     .string "  area:" ; len=7
            0x006a5479      .byte 0x07
            0x006a547a     .string "  last:" ; len=7
            0x006a5481      .byte 0x09
            0x006a5482     .string " missing:" ; len=9
            0x006a548b      .byte 0x03
            0x006a548c      .byte 0x20
            0x006a548d      .byte 0x2d
            0x006a548e      .byte 0x20
            0x006a548f      .byte 0x02
            0x006a5490      .byte 0x2c
            0x006a5491      .byte 0x20
            0x006a5492      .byte 0x12
            0x006a5493     .string "Menufont too large" ; len=18
            0x006a54a5      .byte 0x2b
            0x006a54a6     .string "Error in reading menufont header from disk " ; len=43
            0x006a54d1      .byte 0x2b
            0x006a54d2     .string "Error in getting end of non menu font file." ; len=43
            0x006a54fd      .byte 0x1c
            0x006a54fe     .string "Unable to open menufont file" ; len=28
            0x006a551a      .byte 0x0a
            0x006a551b     .string "load_font:" ; len=10
            0x006a5525      .byte 0x15
            0x006a5526     .string "**** No menufont ****" ; len=21
            0x006a553b      .byte 0x1a
            0x006a553c     .string "**** No bold menufont ****" ; len=26
            0x006a5556      .byte 0x2a
            0x006a5557     .string "Error in getting end of non menu font file" ; len=42
            0x006a5581      .byte 0x1d
            0x006a5582     .string "Error in saving non menu font" ; len=29
            0x006a559f      .byte 0x24
            0x006a55a0     .string "Error in saving non menu font header" ; len=36
            0x006a55c4      .byte 0x23
            0x006a55c5     .string "Error in opening non menu font file" ; len=35
            0x006a55e8      .byte 0x27
            0x006a55e9     .string "Unable to delete previous menufont file" ; len=39
            0x006a5610      .byte 0x09
            0x006a5611     .string "menu font" ; len=9
            0x006a561a      .byte 0x1c
            0x006a561b     .string "Error writing menufont title" ; len=28
            0x006a5637      .byte 0x17
            0x006a5638     .string "Unable to save menufont" ; len=23
            0x006a564f      .byte 0x20
            0x006a5650     .string "Unable to save typeface menufont" ; len=32
            0x006a5670      .byte 0x2a
            0x006a5671     .string "Error in getting end of non menu font file" ; len=42
            0x006a569b      .byte 0x1c
            0x006a569c     .string "Error in writing font header" ; len=28
            0x006a56b8      .byte 0x2b
            0x006a56b9     .string "Error in reading menufont header from disk " ; len=43
            0x006a56e4      .byte 0x2b
            0x006a56e5     .string "Error in getting end of non menu font file." ; len=43
            0x006a5710      .byte 0x1c
            0x006a5711     .string "Unable to open menufont file" ; len=28
            0x006a572d      .byte 0x1c
            0x006a572e     .string "could not lose this menufont" ; len=28
            0x006a574a      .byte 0x2e
            0x006a574b     .string ",+o$#W@" ; len=7
            0x006a5752      .byte 0x0a
            0x006a5753     .string "Type_char " ; len=10
            0x006a575d      .byte 0x02
            0x006a575e      .byte 0x2c
            0x006a575f      .byte 0x20
            0x006a5760      .byte 0x0c
            0x006a5761     .string ", ascii_val " ; len=12
            0x006a576d      .byte 0x0a
            0x006a576e     .string ", ch_size " ; len=10
            0x006a5778      .byte 0x0b
            0x006a5779     .string ", baseline " ; len=11
            0x006a5784      .byte 0x0c
            0x006a5785     .string ", store_pos " ; len=12
            0x006a5791      .byte 0x03
            0x006a5792      .byte 0x20
            0x006a5793      .byte 0x20
            0x006a5794      .byte 0x20
            0x006a5795      .byte 0x0d
            0x006a5796     .string "FONT OVERFLOW" ; len=13
            0x006a57a3      .byte 0x00
            0x006a57a4      .byte 0x06
            0x006a57a5      .byte 0x00
            0x006a57a6      .byte 0x00
            0x006a57a7      .byte 0x00
            0x006a57a8      .byte 0x00
            0x006a57a9      .byte 0x00
            0x006a57aa      .byte 0x00
            0x006a57ab      .byte 0x00
            0x006a57ac      .byte 0x00
            0x006a57ad      .byte 0x00
            0x006a57ae      .byte 0x00
            0x006a57af      .byte 0x00
            0x006a57b0      .byte 0x00
            0x006a57b1      .byte 0x00
            0x006a57b2      .byte 0x00
            0x006a57b3      .byte 0x00
            0x006a57b4      .byte 0x00
            0x006a57b5      .byte 0x00
            0x006a57b6      .byte 0x00
            0x006a57b7      .byte 0x00
            0x006a57b8      .byte 0x00
            0x006a57b9      .byte 0x00
            0x006a57ba      .byte 0x00
            0x006a57bb      .byte 0x00
            0x006a57bc      .byte 0x00
            0x006a57bd      .byte 0x00
            0x006a57be      .byte 0x00
            0x006a57bf      .byte 0x00
            0x006a57c0      .byte 0x00
            0x006a57c1      .byte 0x00
            0x006a57c2      .byte 0x00
            0x006a57c3      .byte 0x00
            0x006a57c4      .byte 0x1a
            0x006a57c5     .string "reloading flushed menufont" ; len=26
            0x006a57df      .byte 0x11
            0x006a57e0     .string "set type menufont" ; len=17
            0x006a57f1      .byte 0x02
            0x006a57f2      .byte 0x4f
            0x006a57f3      .byte 0x4b
            0x006a57f4      .byte 0x03
            0x006a57f5      .byte 0x42
            0x006a57f6      .byte 0x41
            0x006a57f7      .byte 0x44
            0x006a57f8      .byte 0x02
            0x006a57f9      .byte 0x4f
            0x006a57fa      .byte 0x4b
            0x006a57fb      .byte 0x03
            0x006a57fc      .byte 0x42
            0x006a57fd      .byte 0x41
            0x006a57fe      .byte 0x44
            0x006a57ff      .byte 0x15
            0x006a5800     .string "Top|Bottom|Left|Right" ; len=21
            0x006a5815      .byte 0x30
            0x006a5816     .string "Expecting ascii-code <Top|Bottom|Left|Right num>" ; len=48
            0x006a5846      .byte 0x0e
            0x006a5847     .string "        DC.B  " ; len=14
            0x006a5855      .byte 0x0a
            0x006a5856     .string " ; offset " ; len=10
            0x006a5860      .byte 0x22
            0x006a5861     .string "        INCLUDE utils_qms_DIR:P.SA" ; len=34
            0x006a5883      .byte 0x12
            0x006a5884     .string "        SECTION 13" ; len=18
            0x006a5896      .byte 0x28
            0x006a5897     .string "        FUNC    get_menufont,<>,result,4" ; len=40
            0x006a58bf      .byte 0x1c
            0x006a58c0     .string "        BEGIN   get_menufont" ; len=28
            0x006a58dc      .byte 0x24
            0x006a58dd     .string "        MOVE.L  #menufont,result(A6)" ; len=36
            0x006a5901      .byte 0x1c
            0x006a5902     .string "        ENDPR   get_menufont" ; len=28
            0x006a591e      .byte 0x09
            0x006a591f     .string "menufont:" ; len=9
            0x006a5928      .byte 0x0a
            0x006a5929     .string "* fontdata" ; len=10
            0x006a5933      .byte 0x0b
            0x006a5934     .string "        END" ; len=11
            0x006a593f      .byte 0x06
            0x006a5940     .string "ON|OFF" ; len=6
            0x006a5946      .byte 0x05
            0x006a5947     .string "MFOnt" ; len=5
            0x006a594c      .byte 0x04
            0x006a594d      .byte 0x54
            0x006a594e      .byte 0x79
            0x006a594f      .byte 0x70
            0x006a5950      .byte 0x65
            0x006a5951      .byte 0x04
            0x006a5952      .byte 0x45
            0x006a5953      .byte 0x64
            0x006a5954      .byte 0x69
            0x006a5955      .byte 0x74
            0x006a5956      .byte 0x04
            0x006a5957      .byte 0x52
            0x006a5958      .byte 0x65
            0x006a5959      .byte 0x61
            0x006a595a      .byte 0x64
            0x006a595b      .byte 0x04
            0x006a595c      .byte 0x53
            0x006a595d      .byte 0x61
            0x006a595e      .byte 0x76
            0x006a595f      .byte 0x65
            0x006a5960      .byte 0x07
            0x006a5961     .string "Builtin" ; len=7
            0x006a5968      .byte 0x09
            0x006a5969     .string "Assembler" ; len=9
            0x006a5972      .byte 0x05
            0x006a5973      .byte 0x44
            0x006a5974      .byte 0x65
            0x006a5975      .byte 0x62
            0x006a5976      .byte 0x75
            0x006a5977      .byte 0x67
            ; XREFS: CALL 0x006a6c76  CALL 0x006a6c98  CALL 0x006a7070  
            ; XREFS: CALL 0x006a70fa  CALL 0x006a71ba  CALL 0x006a727a  
            ; XREFS: CALL 0x006a747a  CALL 0x006a749e  
 110: TEXTMAV.f_error ();
           ; var int32_t var_8h @ a7+0x8
           0x006a5978      4e56fef0       link.w a6, 0xfef0
           0x006a597c      bfd5           cmpa.l (a5), a7
       < 0x006a597e      6206           bhi.b 0x6a5986
          0x006a5980      44fc0002       move.w 0x2, ccr
          0x006a5984      4e76           trapv
       > 0x006a5986      defc0110       adda.w 0x110, a7
           0x006a598a      486e0009       pea.l 0x9(a6)
           0x006a598e      42a7           clr.l -(a7)
           0x006a5990      1f6e00080003   move.b 0x8(a6), 0x3(a7)
           0x006a5996      2f17           move.l (a7), -(a7)
           0x006a5998      4eb9004047ea   jsr p_wts_o
           0x006a599e      defc000c       adda.w 0xc, a7
           0x006a59a2      4eb900404946   jsr p_wtln_o
           0x006a59a8      594f           subq.w 0x4, a7
           0x006a59aa      4eb900404322   jsr p_Frame_size
           0x006a59b0      4a9f           tst.l (a7)+
       < 0x006a59b2      6728           beq.b 0x6a59dc
          0x006a59b4      9efc0100       suba.w 0x100, a7
          0x006a59b8      4eb900408ec0   jsr p_err_string
          0x006a59be      486f0001       pea.l 0x1(a7)
          0x006a59c2      42a7           clr.l -(a7)
          0x006a59c4      1f6f00080003   move.b 0x8(a7), 0x3(a7)
          0x006a59ca      2f17           move.l (a7), -(a7)
          0x006a59cc      4eb9004047ea   jsr p_wts_o
          0x006a59d2      defc010c       adda.w 0x10c, a7
          0x006a59d6      4eb900404946   jsr p_wtln_o
       > 0x006a59dc      4eb900404188   jsr p_Unlink
           0x006a59e2      4e5e           unlk a6
           0x006a59e4      4e75           rts
            ; CALL XREF from TEXTMAV.convert_char @ 0x6a616a
 1416: TEXTMAV.put_br_char (int32_t arg_1eh);
           ; arg int32_t arg_1eh @ a6+0x1e
           ; var int32_t var_8h @ a7+0x8
           ; var int32_t var_1dh @ a7+0x1d
           ; var int32_t var_1eh @ a7+0x1e
           ; var int32_t var_1fh @ a7+0x1f
           ; var int32_t var_108h @ a7+0x108
           0x006a59e6      4e56fd90       link.w a6, 0xfd90
           0x006a59ea      bfd5           cmpa.l (a5), a7
       < 0x006a59ec      6206           bhi.b 0x6a59f4
          0x006a59ee      44fc0002       move.w 0x2, ccr
          0x006a59f2      4e76           trapv
       > 0x006a59f4      defc024c       adda.w 0x24c, a7
           0x006a59f8      48e7fff8       movem.l d0-d7/a0-a4, -(a7)
           0x006a59fc      45f9008541b4   lea.l 0x8541b4, a2
           0x006a5a02      47f9008541b6   lea.l 0x8541b6, a3
           0x006a5a08      49f9008541b8   lea.l 0x8541b8, a4
           0x006a5a0e      486effee       pea.l -0x12(a6)
           0x006a5a12      48781002       pea.l 0x1002
           0x006a5a16      4eb900403a92   jsr p_New
           0x006a5a1c      504f           addq.w 0x8, a7
           0x006a5a1e      700c           moveq 0xc, d0
           0x006a5a20      c1ee000c       muls.w 0xc(a6), d0
           0x006a5a24      222e0008       move.l 0x8(a6), d1
           0x006a5a28      0c8100000002   cmpi.l 0x2, d1
       < 0x006a5a2e      6302           bls.b 0x6a5a32
          0x006a5a30      4e4f           trap 0xf
       > 0x006a5a32      2801           move.l d1, d4
           0x006a5a34      263c00000c26   move.l 0xc26, d3
           0x006a5a3a      4eb900406a74   jsr fcn.00406a74
           0x006a5a40      41f900851d42   lea.l 0x851d42, a0
           0x006a5a46      41f04800       lea.l (a0, d4.l), a0
           0x006a5a4a      3212           move.w (a2), d1
           0x006a5a4c      48c1           ext.l d1
           0x006a5a4e      3430001c       move.w 0x1c(a0, d0.w), d2
           0x006a5a52      48c2           ext.l d2
           0x006a5a54      d282           add.l d2, d1
           0x006a5a56      5e81           addq.l 0x7, d1
           0x006a5a58      02810000fff8   andi.l 0xfff8, d1
           0x006a5a5e      362e0012       move.w 0x12(a6), d3
           0x006a5a62      48c3           ext.l d3
           0x006a5a64      382e0016       move.w 0x16(a6), d4
           0x006a5a68      48c4           ext.l d4
           0x006a5a6a      d883           add.l d3, d4
           0x006a5a6c      b284           cmp.l d4, d1
       < 0x006a5a6e      6f26           ble.b 0x6a5a96
          0x006a5a70      3483           move.w d3, (a2)
          0x006a5a72      3213           move.w (a3), d1
          0x006a5a74      48c1           ext.l d1
          0x006a5a76      4284           clr.l d4
          0x006a5a78      3814           move.w (a4), d4
          0x006a5a7a      d881           add.l d1, d4
          0x006a5a7c      0484ffff8000   subi.l 0xffff8000, d4
          0x006a5a82      0c840000ffff   cmpi.l 0xffff, d4
      < 0x006a5a88      6302           bls.b 0x6a5a8c
         0x006a5a8a      4e4f           trap 0xf
      > 0x006a5a8c      0684ffff8000   addi.l 0xffff8000, d4
          0x006a5a92      3684           move.w d4, (a3)
          0x006a5a94      4254           clr.w (a4)
       > 0x006a5a96      3d52ffe6       move.w (a2), -0x1a(a6)
           0x006a5a9a      3d53ffe8       move.w (a3), -0x18(a6)
           0x006a5a9e      2202           move.l d2, d1
           0x006a5aa0      5e81           addq.l 0x7, d1
           0x006a5aa2      028100000ff8   andi.l 0xff8, d1
           0x006a5aa8      3c01           move.w d1, d6
           0x006a5aaa      3d46ffea       move.w d6, -0x16(a6)
           0x006a5aae      3d70001effec   move.w 0x1e(a0, d0.w), -0x14(a6)
           0x006a5ab4      5582           subq.l 0x2, d2
           0x006a5ab6      0482ffff8000   subi.l 0xffff8000, d2
           0x006a5abc      0c820000ffff   cmpi.l 0xffff, d2
       < 0x006a5ac2      6302           bls.b 0x6a5ac6
          0x006a5ac4      4e4f           trap 0xf
       > 0x006a5ac6      0682ffff8000   addi.l 0xffff8000, d2
           0x006a5acc      3d42ffe2       move.w d2, -0x1e(a6)
           0x006a5ad0      48c6           ext.l d6
           0x006a5ad2      2206           move.l d6, d1
           0x006a5ad4      5381           subq.l 0x1, d1
           0x006a5ad6      0481ffff8000   subi.l 0xffff8000, d1
           0x006a5adc      0c810000ffff   cmpi.l 0xffff, d1
       < 0x006a5ae2      6302           bls.b 0x6a5ae6
          0x006a5ae4      4e4f           trap 0xf
       > 0x006a5ae6      0681ffff8000   addi.l 0xffff8000, d1
           0x006a5aec      3c01           move.w d1, d6
           0x006a5aee      3230001e       move.w 0x1e(a0, d0.w), d1
           0x006a5af2      48c1           ext.l d1
           0x006a5af4      5381           subq.l 0x1, d1
           0x006a5af6      0481ffff8000   subi.l 0xffff8000, d1
           0x006a5afc      0c810000ffff   cmpi.l 0xffff, d1
       < 0x006a5b02      6302           bls.b 0x6a5b06
          0x006a5b04      4e4f           trap 0xf
       > 0x006a5b06      0681ffff8000   addi.l 0xffff8000, d1
           0x006a5b0c      3d41ffe4       move.w d1, -0x1c(a6)
           0x006a5b10      4eb90051f298   jsr BRUSHCOM.brush_wait
           0x006a5b16      4eb9004614fc   jsr S0_UTIL.s_mode_secure
           0x006a5b1c      1f3c0001       move.b 0x1, -(a7)
           0x006a5b20      4227           clr.b -(a7)
           0x006a5b22      1f3c0001       move.b 0x1, -(a7)
           0x006a5b26      2f2effea       move.l -0x16(a6), -(a7)
           0x006a5b2a      2f2effe6       move.l -0x1a(a6), -(a7)
           0x006a5b2e      4eb9005217d8   jsr BRUSHCOM.br_transfer
           0x006a5b34      defc000e       adda.w 0xe, a7
           0x006a5b38      206e000e       movea.l 0xe(a6), a0
           0x006a5b3c      7a00           moveq 0x0, d5
       > 0x006a5b3e      ba41           cmp.w d1, d5
      < 0x006a5b40      6e7c           bgt.b 0x6a5bbe
         0x006a5b42      4279fff50000   clr.w 0xfff50000
         0x006a5b48      7e00           moveq 0x0, d7
     > 0x006a5b4a      be6effe2       cmp.w -0x1e(a6), d7
    < 0x006a5b4e      6c40           bge.b 0x6a5b90
       0x006a5b50      4bbc001f       chk.w 0x1f, d5
       0x006a5b54      48c5           ext.l d5
       0x006a5b56      2005           move.l d5, d0
       0x006a5b58      e380           asl.l 0x1, d0
       0x006a5b5a      4fbc003f       chk.w 0x3f, d7
       0x006a5b5e      48c7           ext.l d7
       0x006a5b60      2407           move.l d7, d2
       0x006a5b62      ed82           asl.l 0x6, d2
       0x006a5b64      43f02800       lea.l (a0, d2.l), a1
       0x006a5b68      33f10800fff5.  move.w (a1, d0.l), 0xfff50000
       0x006a5b70      48c7           ext.l d7
       0x006a5b72      2007           move.l d7, d0
       0x006a5b74      5280           addq.l 0x1, d0
       0x006a5b76      0480ffff8000   subi.l 0xffff8000, d0
       0x006a5b7c      0c800000ffff   cmpi.l 0xffff, d0
   < 0x006a5b82      6302           bls.b 0x6a5b86
      0x006a5b84      4e4f           trap 0xf
   > 0x006a5b86      0680ffff8000   addi.l 0xffff8000, d0
       0x006a5b8c      3e00           move.w d0, d7
    < 0x006a5b8e      60ba           bra.b 0x6a5b4a
    > 0x006a5b90      be46           cmp.w d6, d7
    < 0x006a5b92      6c26           bge.b 0x6a5bba
       0x006a5b94      4279fff50000   clr.w 0xfff50000
       0x006a5b9a      48c7           ext.l d7
       0x006a5b9c      2007           move.l d7, d0
       0x006a5b9e      5280           addq.l 0x1, d0
       0x006a5ba0      0480ffff8000   subi.l 0xffff8000, d0
       0x006a5ba6      0c800000ffff   cmpi.l 0xffff, d0
   < 0x006a5bac      6302           bls.b 0x6a5bb0
      0x006a5bae      4e4f           trap 0xf
   > 0x006a5bb0      0680ffff8000   addi.l 0xffff8000, d0
       0x006a5bb6      3e00           move.w d0, d7
    < 0x006a5bb8      60d6           bra.b 0x6a5b90
    > 0x006a5bba      5245           addq.w 0x1, d5
      < 0x006a5bbc      6880           bvc.b 0x6a5b3e
      > 0x006a5bbe      4eb900461520   jsr S0_UTIL.s_mode_release
           0x006a5bc4      4eb90051fa24   jsr BRUSHCOM.br_abort
           0x006a5bca      4a39008541dc   tst.b 0x8541dc
       < 0x006a5bd0      6700012e       beq.w 0x6a5d00
          0x006a5bd4      487af745       pea.l 0x6a531b(pc)
          0x006a5bd8      48780007       pea.l 0x7
          0x006a5bdc      2f17           move.l (a7), -(a7)
          0x006a5bde      4eb9004047ea   jsr p_wts_o
          0x006a5be4      defc000c       adda.w 0xc, a7
          0x006a5be8      302e000c       move.w 0xc(a6), d0
          0x006a5bec      48c0           ext.l d0
          0x006a5bee      2f00           move.l d0, -(a7)
          0x006a5bf0      48780000       pea.l 0x0
          0x006a5bf4      4eb9004070e4   jsr p_wti_o
          0x006a5bfa      504f           addq.w 0x8, a7
          0x006a5bfc      4eb900404946   jsr p_wtln_o
          0x006a5c02      4227           clr.b -(a7)
          0x006a5c04      4227           clr.b -(a7)
          0x006a5c06      1f3c0001       move.b 0x1, -(a7)
          0x006a5c0a      2f2effea       move.l -0x16(a6), -(a7)
          0x006a5c0e      2f2effe6       move.l -0x1a(a6), -(a7)
          0x006a5c12      2f2effee       move.l -0x12(a6), -(a7)
          0x006a5c16      4eb900521974   jsr BRUSHCOM.br_computer_tra
          0x006a5c1c      defc0012       adda.w 0x12, a7
          0x006a5c20      7e00           moveq 0x0, d7
          0x006a5c22      7001           moveq 0x1, d0
      > 0x006a5c24      b06effec       cmp.w -0x14(a6), d0
     < 0x006a5c28      6e0000d6       bgt.w 0x6a5d00
        0x006a5c2c      3d40fff4       move.w d0, -0xc(a6)
        0x006a5c30      2d47fffc       move.l d7, -0x4(a6)
        0x006a5c34      7c01           moveq 0x1, d6
    > 0x006a5c36      bc6effea       cmp.w -0x16(a6), d6
   < 0x006a5c3a      6e4e           bgt.b 0x6a5c8a
      0x006a5c3c      0c8700000800   cmpi.l 0x800, d7
  < 0x006a5c42      6302           bls.b 0x6a5c46
     0x006a5c44      4e4f           trap 0xf
  > 0x006a5c46      2207           move.l d7, d1
      0x006a5c48      e389           lsl.l 0x1, d1
      0x006a5c4a      206effee       movea.l -0x12(a6), a0
      0x006a5c4e      4282           clr.l d2
      0x006a5c50      34301800       move.w (a0, d1.l), d2
      0x006a5c54      0282000000ff   andi.l 0xff, d2
      0x006a5c5a      3a02           move.w d2, d5
      0x006a5c5c      02850000ffff   andi.l 0xffff, d5
      0x006a5c62      2205           move.l d5, d1
      0x006a5c64      ea81           asr.l 0x5, d1
      0x006a5c66      0c8100000007   cmpi.l 0x7, d1
  < 0x006a5c6c      6302           bls.b 0x6a5c70
     0x006a5c6e      4e4f           trap 0xf
  > 0x006a5c70      41faf6a0       lea.l 0x6a5312(pc), a0
      0x006a5c74      1f301800       move.b (a0, d1.l), -(a7)
      0x006a5c78      48780001       pea.l 0x1
      0x006a5c7c      4eb9004048b4   jsr p_wtc_o
      0x006a5c82      5c4f           addq.w 0x6, a7
      0x006a5c84      5287           addq.l 0x1, d7
      0x006a5c86      5246           addq.w 0x1, d6
   < 0x006a5c88      68ac           bvc.b 0x6a5c36
   > 0x006a5c8a      487af697       pea.l 0x6a5323(pc)
        0x006a5c8e      48780003       pea.l 0x3
        0x006a5c92      2f17           move.l (a7), -(a7)
        0x006a5c94      4eb9004047ea   jsr p_wts_o
        0x006a5c9a      defc000c       adda.w 0xc, a7
        0x006a5c9e      2e2efffc       move.l -0x4(a6), d7
        0x006a5ca2      7c01           moveq 0x1, d6
    > 0x006a5ca4      bc6effea       cmp.w -0x16(a6), d6
   < 0x006a5ca8      6e4a           bgt.b 0x6a5cf4
      0x006a5caa      0c8700000800   cmpi.l 0x800, d7
  < 0x006a5cb0      6302           bls.b 0x6a5cb4
     0x006a5cb2      4e4f           trap 0xf
  > 0x006a5cb4      2207           move.l d7, d1
      0x006a5cb6      e389           lsl.l 0x1, d1
      0x006a5cb8      206effee       movea.l -0x12(a6), a0
      0x006a5cbc      4282           clr.l d2
      0x006a5cbe      34301800       move.w (a0, d1.l), d2
      0x006a5cc2      0282000000ff   andi.l 0xff, d2
      0x006a5cc8      3a02           move.w d2, d5
      0x006a5cca      02850000ffff   andi.l 0xffff, d5
      0x006a5cd0      2f05           move.l d5, -(a7)
      0x006a5cd2      4878fffd       pea.l 0xfffd
      0x006a5cd6      4eb9004070e4   jsr p_wti_o
      0x006a5cdc      5c4f           addq.w 0x6, a7
      0x006a5cde      1ebc0020       move.b 0x20, (a7)
      0x006a5ce2      48780001       pea.l 0x1
      0x006a5ce6      4eb9004048b4   jsr p_wtc_o
      0x006a5cec      5c4f           addq.w 0x6, a7
      0x006a5cee      5287           addq.l 0x1, d7
      0x006a5cf0      5246           addq.w 0x1, d6
   < 0x006a5cf2      68b0           bvc.b 0x6a5ca4
   > 0x006a5cf4      4eb900404946   jsr p_wtln_o
        0x006a5cfa      5240           addq.w 0x1, d0
     < 0x006a5cfc      6800ff26       bvc.w 0x6a5c24
     > 0x006a5d00      700c           moveq 0xc, d0
           0x006a5d02      c1ee000c       muls.w 0xc(a6), d0
           0x006a5d06      222e0008       move.l 0x8(a6), d1
           0x006a5d0a      0c8100000002   cmpi.l 0x2, d1
       < 0x006a5d10      6302           bls.b 0x6a5d14
          0x006a5d12      4e4f           trap 0xf
       > 0x006a5d14      2801           move.l d1, d4
           0x006a5d16      263c00000c26   move.l 0xc26, d3
           0x006a5d1c      4eb900406a74   jsr fcn.00406a74
           0x006a5d22      41f900851d42   lea.l 0x851d42, a0
           0x006a5d28      41f04800       lea.l (a0, d4.l), a0
           0x006a5d2c      11920022       move.b (a2), 0x22(a0, d0.w)
           0x006a5d30      11b9008541b5.  move.b 0x8541b5, 0x23(a0, d0.w)
           0x006a5d38      11930024       move.b (a3), 0x24(a0, d0.w)
           0x006a5d3c      11b9008541b7.  move.b 0x8541b7, 0x25(a0, d0.w)
           0x006a5d44      3230001e       move.w 0x1e(a0, d0.w), d1
           0x006a5d48      48c1           ext.l d1
           0x006a5d4a      3014           move.w (a4), d0
           0x006a5d4c      02800000ffff   andi.l 0xffff, d0
           0x006a5d52      b280           cmp.l d0, d1
       < 0x006a5d54      6f0a           ble.b 0x6a5d60
          0x006a5d56      0c41ffff       cmpi.w 0xffff, d1
      < 0x006a5d5a      6302           bls.b 0x6a5d5e
         0x006a5d5c      4e4f           trap 0xf
      > 0x006a5d5e      3881           move.w d1, (a4)
       > 0x006a5d60      700c           moveq 0xc, d0
           0x006a5d62      c1ee000c       muls.w 0xc(a6), d0
           0x006a5d66      222e0008       move.l 0x8(a6), d1
           0x006a5d6a      0c8100000002   cmpi.l 0x2, d1
       < 0x006a5d70      6302           bls.b 0x6a5d74
          0x006a5d72      4e4f           trap 0xf
       > 0x006a5d74      2801           move.l d1, d4
           0x006a5d76      263c00000c26   move.l 0xc26, d3
           0x006a5d7c      4eb900406a74   jsr fcn.00406a74
           0x006a5d82      41f900851d42   lea.l 0x851d42, a0
           0x006a5d88      41f04800       lea.l (a0, d4.l), a0
           0x006a5d8c      3213           move.w (a3), d1
           0x006a5d8e      48c1           ext.l d1
           0x006a5d90      3430001e       move.w 0x1e(a0, d0.w), d2
           0x006a5d94      48c2           ext.l d2
           0x006a5d96      d481           add.l d1, d2
           0x006a5d98      322e0014       move.w 0x14(a6), d1
           0x006a5d9c      48c1           ext.l d1
           0x006a5d9e      362e0018       move.w 0x18(a6), d3
           0x006a5da2      48c3           ext.l d3
           0x006a5da4      d681           add.l d1, d3
           0x006a5da6      b483           cmp.l d3, d2
       < 0x006a5da8      6f0000d8       ble.w 0x6a5e82
          0x006a5dac      487af579       pea.l 0x6a5327(pc)
          0x006a5db0      48780029       pea.l 0x29
          0x006a5db4      2f17           move.l (a7), -(a7)
          0x006a5db6      4eb9004047ea   jsr p_wts_o
          0x006a5dbc      defc000c       adda.w 0xc, a7
          0x006a5dc0      4eb900404946   jsr p_wtln_o
          0x006a5dc6      9efc0104       suba.w 0x104, a7
          0x006a5dca      1eb0001c       move.b 0x1c(a0, d0.w), (a7)
          0x006a5dce      1f70001d0001   move.b 0x1d(a0, d0.w), 0x1(a7)
          0x006a5dd4      1f70001e0002   move.b 0x1e(a0, d0.w), 0x2(a7)
          0x006a5dda      1f70001f0003   move.b 0x1f(a0, d0.w), 0x3(a7)
          0x006a5de0      48780000       pea.l 0x0
          0x006a5de4      4eb90044dd86   jsr SYSTEM_STRING.point_str
          0x006a5dea      9efc00f8       suba.w 0xf8, a7
          0x006a5dee      2f12           move.l (a2), -(a7)
          0x006a5df0      48780000       pea.l 0x0
          0x006a5df4      4eb90044dd86   jsr SYSTEM_STRING.point_str
          0x006a5dfa      504f           addq.w 0x8, a7
          0x006a5dfc      487af553       pea.l 0x6a5351(pc)
          0x006a5e00      48780005       pea.l 0x5
          0x006a5e04      2f17           move.l (a7), -(a7)
          0x006a5e06      4eb9004047ea   jsr p_wts_o
          0x006a5e0c      defc000c       adda.w 0xc, a7
          0x006a5e10      322e000c       move.w 0xc(a6), d1
          0x006a5e14      48c1           ext.l d1
          0x006a5e16      2f01           move.l d1, -(a7)
          0x006a5e18      4878ffff       pea.l 0xffff
          0x006a5e1c      4eb9004070e4   jsr p_wti_o
          0x006a5e22      504f           addq.w 0x8, a7
          0x006a5e24      487af531       pea.l 0x6a5357(pc)
          0x006a5e28      48780007       pea.l 0x7
          0x006a5e2c      2f17           move.l (a7), -(a7)
          0x006a5e2e      4eb9004047ea   jsr p_wts_o
          0x006a5e34      defc000c       adda.w 0xc, a7
          0x006a5e38      486f0101       pea.l 0x101(a7)
          0x006a5e3c      42a7           clr.l -(a7)
          0x006a5e3e      1f6f01080003   move.b 0x108(a7), 0x3(a7)
          0x006a5e44      2f17           move.l (a7), -(a7)
          0x006a5e46      4eb9004047ea   jsr p_wts_o
          0x006a5e4c      defc000c       adda.w 0xc, a7
          0x006a5e50      487af50d       pea.l 0x6a535f(pc)
          0x006a5e54      4878000b       pea.l 0xb
          0x006a5e58      2f17           move.l (a7), -(a7)
          0x006a5e5a      4eb9004047ea   jsr p_wts_o
          0x006a5e60      defc000c       adda.w 0xc, a7
          0x006a5e64      486f0001       pea.l 0x1(a7)
          0x006a5e68      42a7           clr.l -(a7)
          0x006a5e6a      1f6f00080003   move.b 0x8(a7), 0x3(a7)
          0x006a5e70      2f17           move.l (a7), -(a7)
          0x006a5e72      4eb9004047ea   jsr p_wts_o
          0x006a5e78      defc020c       adda.w 0x20c, a7
          0x006a5e7c      4eb900404946   jsr p_wtln_o
       > 0x006a5e82      700c           moveq 0xc, d0
           0x006a5e84      c1ee000c       muls.w 0xc(a6), d0
           0x006a5e88      222e0008       move.l 0x8(a6), d1
           0x006a5e8c      0c8100000002   cmpi.l 0x2, d1
       < 0x006a5e92      6302           bls.b 0x6a5e96
          0x006a5e94      4e4f           trap 0xf
       > 0x006a5e96      2801           move.l d1, d4
           0x006a5e98      263c00000c26   move.l 0xc26, d3
           0x006a5e9e      4eb900406a74   jsr fcn.00406a74
           0x006a5ea4      41f900851d42   lea.l 0x851d42, a0
           0x006a5eaa      41f04800       lea.l (a0, d4.l), a0
           0x006a5eae      3212           move.w (a2), d1
           0x006a5eb0      48c1           ext.l d1
           0x006a5eb2      3430001c       move.w 0x1c(a0, d0.w), d2
           0x006a5eb6      48c2           ext.l d2
           0x006a5eb8      d481           add.l d1, d2
           0x006a5eba      5e82           addq.l 0x7, d2
           0x006a5ebc      02820000fff8   andi.l 0xfff8, d2
           0x006a5ec2      0482ffff8000   subi.l 0xffff8000, d2
           0x006a5ec8      0c820000ffff   cmpi.l 0xffff, d2
       < 0x006a5ece      6302           bls.b 0x6a5ed2
          0x006a5ed0      4e4f           trap 0xf
       > 0x006a5ed2      0682ffff8000   addi.l 0xffff8000, d2
           0x006a5ed8      3482           move.w d2, (a2)
           0x006a5eda      302e0012       move.w 0x12(a6), d0
           0x006a5ede      48c0           ext.l d0
           0x006a5ee0      322e0016       move.w 0x16(a6), d1
           0x006a5ee4      48c1           ext.l d1
           0x006a5ee6      d280           add.l d0, d1
           0x006a5ee8      48c2           ext.l d2
           0x006a5eea      b481           cmp.l d1, d2
       < 0x006a5eec      6f68           ble.b 0x6a5f56
          0x006a5eee      487af47b       pea.l 0x6a536b(pc)
          0x006a5ef2      4878000f       pea.l 0xf
          0x006a5ef6      2f17           move.l (a7), -(a7)
          0x006a5ef8      4eb9004047ea   jsr p_wts_o
          0x006a5efe      defc000c       adda.w 0xc, a7
          0x006a5f02      322e000c       move.w 0xc(a6), d1
          0x006a5f06      48c1           ext.l d1
          0x006a5f08      2f01           move.l d1, -(a7)
          0x006a5f0a      48780000       pea.l 0x0
          0x006a5f0e      4eb9004070e4   jsr p_wti_o
          0x006a5f14      504f           addq.w 0x8, a7
          0x006a5f16      487af463       pea.l 0x6a537b(pc)
          0x006a5f1a      48780012       pea.l 0x12
          0x006a5f1e      2f17           move.l (a7), -(a7)
          0x006a5f20      4eb9004047ea   jsr p_wts_o
          0x006a5f26      defc000c       adda.w 0xc, a7
          0x006a5f2a      4eb900404946   jsr p_wtln_o
          0x006a5f30      3480           move.w d0, (a2)
          0x006a5f32      3213           move.w (a3), d1
          0x006a5f34      48c1           ext.l d1
          0x006a5f36      4282           clr.l d2
          0x006a5f38      3414           move.w (a4), d2
          0x006a5f3a      d481           add.l d1, d2
          0x006a5f3c      0482ffff8000   subi.l 0xffff8000, d2
          0x006a5f42      0c820000ffff   cmpi.l 0xffff, d2
      < 0x006a5f48      6302           bls.b 0x6a5f4c
         0x006a5f4a      4e4f           trap 0xf
      > 0x006a5f4c      0682ffff8000   addi.l 0xffff8000, d2
          0x006a5f52      3682           move.w d2, (a3)
          0x006a5f54      4254           clr.w (a4)
       > 0x006a5f56      486effee       pea.l -0x12(a6)
           0x006a5f5a      48781002       pea.l 0x1002
           0x006a5f5e      4eb900403b98   jsr p_Dispos
           0x006a5f64      504f           addq.w 0x8, a7
           0x006a5f66      4cdf1fff       movem.l (a7)+, d0-d7/a0-a4
           0x006a5f6a      4e5e           unlk a6
           0x006a5f6c      4e75           rts
            ; CALL XREF from TEXTMAV.reload_font @ 0x6a697a
 524: TEXTMAV.convert_char ();
           0x006a5f6e      4e56efae       link.w a6, 0xefae
           0x006a5f72      bfd5           cmpa.l (a5), a7
       < 0x006a5f74      6206           bhi.b 0x6a5f7c
          0x006a5f76      44fc0002       move.w 0x2, ccr
          0x006a5f7a      4e76           trapv
       > 0x006a5f7c      defc0042       adda.w 0x42, a7
           0x006a5f80      48e7ffc8       movem.l d0-d7/a0-a1/a4, -(a7)
           0x006a5f84      43ee0018       lea.l 0x18(a6), a1
           0x006a5f88      4280           clr.l d0
           0x006a5f8a      3011           move.w (a1), d0
           0x006a5f8c      0c8000000100   cmpi.l 0x100, d0
       < 0x006a5f92      6302           bls.b 0x6a5f96
          0x006a5f94      4e4f           trap 0xf
       > 0x006a5f96      2800           move.l d0, d4
           0x006a5f98      760c           moveq 0xc, d3
           0x006a5f9a      4eb900406a74   jsr fcn.00406a74
           0x006a5fa0      2f04           move.l d4, -(a7)
           0x006a5fa2      222e000a       move.l 0xa(a6), d1
           0x006a5fa6      0c8100000002   cmpi.l 0x2, d1
       < 0x006a5fac      6302           bls.b 0x6a5fb0
          0x006a5fae      4e4f           trap 0xf
       > 0x006a5fb0      2801           move.l d1, d4
           0x006a5fb2      263c00000c26   move.l 0xc26, d3
           0x006a5fb8      4eb900406a74   jsr fcn.00406a74
           0x006a5fbe      41f900851d42   lea.l 0x851d42, a0
           0x006a5fc4      221f           move.l (a7)+, d1
           0x006a5fc6      41f04800       lea.l (a0, d4.l), a0
           0x006a5fca      0480ffff8000   subi.l 0xffff8000, d0
           0x006a5fd0      0c800000ffff   cmpi.l 0xffff, d0
       < 0x006a5fd6      6302           bls.b 0x6a5fda
          0x006a5fd8      4e4f           trap 0xf
       > 0x006a5fda      0680ffff8000   addi.l 0xffff8000, d0
           0x006a5fe0      3180181a       move.w d0, 0x1a(a0, d1.l)
           0x006a5fe4      4282           clr.l d2
           0x006a5fe6      342e0016       move.w 0x16(a6), d2
           0x006a5fea      5282           addq.l 0x1, d2
           0x006a5fec      0482ffff8000   subi.l 0xffff8000, d2
           0x006a5ff2      0c820000ffff   cmpi.l 0xffff, d2
       < 0x006a5ff8      6302           bls.b 0x6a5ffc
          0x006a5ffa      4e4f           trap 0xf
       > 0x006a5ffc      0682ffff8000   addi.l 0xffff8000, d2
           0x006a6002      3182181c       move.w d2, 0x1c(a0, d1.l)
           0x006a6006      4282           clr.l d2
           0x006a6008      342e0014       move.w 0x14(a6), d2
           0x006a600c      2602           move.l d2, d3
           0x006a600e      5283           addq.l 0x1, d3
           0x006a6010      0483ffff8000   subi.l 0xffff8000, d3
           0x006a6016      0c830000ffff   cmpi.l 0xffff, d3
       < 0x006a601c      6302           bls.b 0x6a6020
          0x006a601e      4e4f           trap 0xf
       > 0x006a6020      0683ffff8000   addi.l 0xffff8000, d3
           0x006a6026      3183181e       move.w d3, 0x1e(a0, d1.l)
           0x006a602a      4a2e0008       tst.b 0x8(a6)
       < 0x006a602e      673e           beq.b 0x6a606e
          0x006a6030      362e0012       move.w 0x12(a6), d3
          0x006a6034      0c43fffe       cmpi.w 0xfffe, d3
      < 0x006a6038      6c22           bge.b 0x6a605c
         0x006a603a      48c3           ext.l d3
         0x006a603c      2803           move.l d3, d4
         0x006a603e      4484           neg.l d4
         0x006a6040      0484ffff8000   subi.l 0xffff8000, d4
         0x006a6046      0c840000ffff   cmpi.l 0xffff, d4
     < 0x006a604c      6302           bls.b 0x6a6050
        0x006a604e      4e4f           trap 0xf
     > 0x006a6050      0684ffff8000   addi.l 0xffff8000, d4
         0x006a6056      31841820       move.w d4, 0x20(a0, d1.l)
     < 0x006a605a      6034           bra.b 0x6a6090
     > 0x006a605c      0482ffff8000   subi.l 0xffff8000, d2
         0x006a6062      0c820000ffff   cmpi.l 0xffff, d2
     < 0x006a6068      6302           bls.b 0x6a606c
        0x006a606a      4e4f           trap 0xf
    > 0x006a606c      6018           bra.b 0x6a6086
     > 0x006a606e      342e0012       move.w 0x12(a6), d2
         0x006a6072      48c2           ext.l d2
         0x006a6074      4482           neg.l d2
         0x006a6076      0482ffff8000   subi.l 0xffff8000, d2
         0x006a607c      0c820000ffff   cmpi.l 0xffff, d2
     < 0x006a6082      6302           bls.b 0x6a6086
        0x006a6084      4e4f           trap 0xf
    > 0x006a6086      0682ffff8000   addi.l 0xffff8000, d2
          0x006a608c      31821820       move.w d2, 0x20(a0, d1.l)
     > 0x006a6090      34301820       move.w 0x20(a0, d1.l), d2
           0x006a6094      0c42000f       cmpi.w 0xf, d2
       < 0x006a6098      6f06           ble.b 0x6a60a0
          0x006a609a      31bc000f1820   move.w 0xf, 0x20(a0, d1.l)
       > 0x006a60a0      7e00           moveq 0x0, d7
           0x006a60a2      286e000e       movea.l 0xe(a6), a4
           0x006a60a6      4280           clr.l d0
           0x006a60a8      302e0014       move.w 0x14(a6), d0
           0x006a60ac      2f00           move.l d0, -(a7)
           0x006a60ae      7a00           moveq 0x0, d5
       > 0x006a60b0      ba97           cmp.l (a7), d5
      < 0x006a60b2      6e60           bgt.b 0x6a6114
         0x006a60b4      4280           clr.l d0
         0x006a60b6      302e0016       move.w 0x16(a6), d0
         0x006a60ba      2f00           move.l d0, -(a7)
         0x006a60bc      7c00           moveq 0x0, d6
     > 0x006a60be      bc97           cmp.l (a7), d6
    < 0x006a60c0      6e4c           bgt.b 0x6a610e
       0x006a60c2      4a86           tst.l d6
   < 0x006a60c4      6f42           ble.b 0x6a6108
      0x006a60c6      0c87000001ff   cmpi.l 0x1ff, d7
  < 0x006a60cc      6e3a           bgt.b 0x6a6108
     0x006a60ce      0c850000001f   cmpi.l 0x1f, d5
 < 0x006a60d4      6302           bls.b 0x6a60d8
    0x006a60d6      4e4f           trap 0xf
 > 0x006a60d8      2005           move.l d5, d0
     0x006a60da      e380           asl.l 0x1, d0
     0x006a60dc      2206           move.l d6, d1
     0x006a60de      5381           subq.l 0x1, d1
     0x006a60e0      0c810000003f   cmpi.l 0x3f, d1
 < 0x006a60e6      6302           bls.b 0x6a60ea
    0x006a60e8      4e4f           trap 0xf
 > 0x006a60ea      ed81           asl.l 0x6, d1
     0x006a60ec      41eeeff0       lea.l -0x1010(a6), a0
     0x006a60f0      41f01800       lea.l (a0, d1.l), a0
     0x006a60f4      0c87000001ff   cmpi.l 0x1ff, d7
 < 0x006a60fa      6302           bls.b 0x6a60fe
    0x006a60fc      4e4f           trap 0xf
 > 0x006a60fe      4281           clr.l d1
     0x006a6100      12347800       move.b (a4, d7.l), d1
     0x006a6104      31810800       move.w d1, (a0, d0.l)
  > 0x006a6108      5287           addq.l 0x1, d7
       0x006a610a      5286           addq.l 0x1, d6
    < 0x006a610c      68b0           bvc.b 0x6a60be
    > 0x006a610e      584f           addq.w 0x4, a7
         0x006a6110      5285           addq.l 0x1, d5
      < 0x006a6112      689c           bvc.b 0x6a60b0
      > 0x006a6114      584f           addq.w 0x4, a7
           0x006a6116      0c87000001ff   cmpi.l 0x1ff, d7
       < 0x006a611c      6f2c           ble.b 0x6a614a
          0x006a611e      487af276       pea.l 0x6a5396(pc)
          0x006a6122      48780015       pea.l 0x15
          0x006a6126      2f17           move.l (a7), -(a7)
          0x006a6128      4eb9004047ea   jsr p_wts_o
          0x006a612e      defc000c       adda.w 0xc, a7
          0x006a6132      4280           clr.l d0
          0x006a6134      3011           move.w (a1), d0
          0x006a6136      2f00           move.l d0, -(a7)
          0x006a6138      48780000       pea.l 0x0
          0x006a613c      4eb9004070e4   jsr p_wti_o
          0x006a6142      504f           addq.w 0x8, a7
          0x006a6144      4eb900404946   jsr p_wtln_o
       > 0x006a614a      2f2e001e       move.l 0x1e(a6), -(a7)
           0x006a614e      2f2e001a       move.l 0x1a(a6), -(a7)
           0x006a6152      486eeff0       pea.l -0x1010(a6)
           0x006a6156      4280           clr.l d0
           0x006a6158      3011           move.w (a1), d0
           0x006a615a      0c80000000ff   cmpi.l 0xff, d0
       < 0x006a6160      6302           bls.b 0x6a6164
          0x006a6162      4e4f           trap 0xf
       > 0x006a6164      3f00           move.w d0, -(a7)
           0x006a6166      2f2e000a       move.l 0xa(a6), -(a7)
           0x006a616a      4ebaf87a       jsr TEXTMAV.put_br_char(pc)
           0x006a616e      defc0012       adda.w 0x12, a7
           0x006a6172      4cdf13ff       movem.l (a7)+, d0-d7/a0-a1/a4
           0x006a6176      4e5e           unlk a6
           0x006a6178      4e75           rts
            ; CALL XREF from TEXTMAV.check_accent @ 0x6a67fc
 222: TEXTMAV.add_char ();
           0x006a617a      4e56dfb2       link.w a6, 0xdfb2
           0x006a617e      bfd5           cmpa.l (a5), a7
       < 0x006a6180      6206           bhi.b 0x6a6188
          0x006a6182      44fc0002       move.w 0x2, ccr
          0x006a6186      4e76           trapv
       > 0x006a6188      defc004a       adda.w 0x4a, a7
           0x006a618c      48e7fff8       movem.l d0-d7/a0-a4, -(a7)
           0x006a6190      45eedffc       lea.l -0x2004(a6), a2
           0x006a6194      47ee000c       lea.l 0xc(a6), a3
           0x006a6198      49ee000e       lea.l 0xe(a6), a4
           0x006a619c      7a0f           moveq 0xf, d5
           0x006a619e      7c00           moveq 0x0, d6
       > 0x006a61a0      7e00           moveq 0x0, d7
      > 0x006a61a2      4fbc001f       chk.w 0x1f, d7
         0x006a61a6      48c7           ext.l d7
         0x006a61a8      2007           move.l d7, d0
         0x006a61aa      e380           asl.l 0x1, d0
         0x006a61ac      4dbc003f       chk.w 0x3f, d6
         0x006a61b0      48c6           ext.l d6
         0x006a61b2      2206           move.l d6, d1
         0x006a61b4      ed81           asl.l 0x6, d1
         0x006a61b6      204a           movea.l a2, a0
         0x006a61b8      41f01800       lea.l (a0, d1.l), a0
         0x006a61bc      42700800       clr.w (a0, d0.l)
         0x006a61c0      5247           addq.w 0x1, d7
         0x006a61c2      0c47001f       cmpi.w 0x1f, d7
      < 0x006a61c6      6fda           ble.b 0x6a61a2
          0x006a61c8      5246           addq.w 0x1, d6
          0x006a61ca      0c46003f       cmpi.w 0x3f, d6
       < 0x006a61ce      6fd0           ble.b 0x6a61a0
           0x006a61d0      202e0116       move.l 0x116(a6), d0
           0x006a61d4      0c8000000100   cmpi.l 0x100, d0
       < 0x006a61da      6302           bls.b 0x6a61de
          0x006a61dc      4e4f           trap 0xf
       > 0x006a61de      2800           move.l d0, d4
           0x006a61e0      760c           moveq 0xc, d3
           0x006a61e2      4eb900406a74   jsr fcn.00406a74
           0x006a61e8      2f04           move.l d4, -(a7)
           0x006a61ea      202e0008       move.l 0x8(a6), d0
           0x006a61ee      0c8000000002   cmpi.l 0x2, d0
       < 0x006a61f4      6302           bls.b 0x6a61f8
          0x006a61f6      4e4f           trap 0xf
       > 0x006a61f8      2800           move.l d0, d4
           0x006a61fa      263c00000c26   move.l 0xc26, d3
           0x006a6200      4eb900406a74   jsr fcn.00406a74
           0x006a6206      41f900851d42   lea.l 0x851d42, a0
           0x006a620c      201f           move.l (a7)+, d0
           0x006a620e      41f04800       lea.l (a0, d4.l), a0
           0x006a6212      222e0116       move.l 0x116(a6), d1
           0x006a6216      0481ffff8000   subi.l 0xffff8000, d1
           0x006a621c      0c810000ffff   cmpi.l 0xffff, d1
       < 0x006a6222      6302           bls.b 0x6a6226
          0x006a6224      4e4f           trap 0xf
       > 0x006a6226      0681ffff8000   addi.l 0xffff8000, d1
           0x006a622c      3181081a       move.w d1, 0x1a(a0, d0.l)
           0x006a6230      3193081c       move.w (a3), 0x1c(a0, d0.l)
           0x006a6234      3194081e       move.w (a4), 0x1e(a0, d0.l)
           0x006a6238      31ae00100820   move.w 0x10(a6), 0x20(a0, d0.l)
           0x006a623e      202e0112       move.l 0x112(a6), d0
           0x006a6242      5380           subq.l 0x1, d0
           0x006a6244      0c8000000005   cmpi.l 0x5, d0
       < 0x006a624a      6302           bls.b 0x6a624e
          0x006a624c      4e4e           trap 0xe
       > 0x006a624e      d040           add.w d0, d0
           0x006a6250      303b0006       move.w 0x6a6258(pc, d0.w), d0
           0x006a6254      4efb0002       jmp 0x6a6258(pc, d0.w)
            0x006a6258      000c0078       
            0x006a6259      0c007800       cmpi.b 0x0, d0
            0x006a625d      e601           asr.b 0x3, d1
            0x006a625f      5801           addq.b 0x4, d1
            0x006a6261      c202           and.b d2, d1
            0x006a6263      38301348       move.w (a0, invalid.w), d4
            0x006a6267      c053           and.w (a3), d0
            0x006a6269      802f007c       or.b 0x7c(a7), d0
            0x006a626d      00bc6f00       
        > 0x006a626e      bc6f0002       cmp.w 0x2(a7), d6
       < 0x006a6272      6e56           bgt.b 0x6a62ca
          0x006a6274      3014           move.w (a4), d0
          0x006a6276      48c0           ext.l d0
          0x006a6278      5380           subq.l 0x1, d0
          0x006a627a      2f00           move.l d0, -(a7)
          0x006a627c      7e00           moveq 0x0, d7
      > 0x006a627e      be6f0002       cmp.w 0x2(a7), d7
     < 0x006a6282      6e40           bgt.b 0x6a62c4
        0x006a6284      4fbc001f       chk.w 0x1f, d7
        0x006a6288      48c7           ext.l d7
        0x006a628a      2007           move.l d7, d0
        0x006a628c      e380           asl.l 0x1, d0
        0x006a628e      4dbc003f       chk.w 0x3f, d6
        0x006a6292      48c6           ext.l d6
        0x006a6294      2206           move.l d6, d1
        0x006a6296      ed81           asl.l 0x6, d1
        0x006a6298      204a           movea.l a2, a0
        0x006a629a      41f01800       lea.l (a0, d1.l), a0
        0x006a629e      4d85           chk.w d5, d6
        0x006a62a0      4f85           chk.w d5, d7
        0x006a62a2      48c7           ext.l d7
        0x006a62a4      2207           move.l d7, d1
        0x006a62a6      e981           asl.l 0x4, d1
        0x006a62a8      224a           movea.l a2, a1
        0x006a62aa      43f11800       lea.l (a1, d1.l), a1
        0x006a62ae      43f16000       lea.l (a1, d6.w), a1
        0x006a62b2      12292016       move.b 0x2016(a1), d1
        0x006a62b6      0281000000ff   andi.l 0xff, d1
        0x006a62bc      31810800       move.w d1, (a0, d0.l)
        0x006a62c0      5247           addq.w 0x1, d7
     < 0x006a62c2      68ba           bvc.b 0x6a627e
     > 0x006a62c4      584f           addq.w 0x4, a7
          0x006a62c6      5246           addq.w 0x1, d6
       < 0x006a62c8      68a4           bvc.b 0x6a626e
   > 0x006a62ca      584f           addq.w 0x4, a7
   < 0x006a62cc      60000234       bra.w 0x6a6502
      0x006a62d0      3013           move.w (a3), d0
      0x006a62d2      48c0           ext.l d0
      0x006a62d4      5380           subq.l 0x1, d0
      0x006a62d6      2f00           move.l d0, -(a7)
      0x006a62d8      7c00           moveq 0x0, d6
  > 0x006a62da      bc6f0002       cmp.w 0x2(a7), d6
  < 0x006a62de      6e5c           bgt.b 0x6a633c
     0x006a62e0      3013           move.w (a3), d0
     0x006a62e2      48c0           ext.l d0
     0x006a62e4      48c6           ext.l d6
     0x006a62e6      9086           sub.l d6, d0
     0x006a62e8      3214           move.w (a4), d1
     0x006a62ea      48c1           ext.l d1
     0x006a62ec      5381           subq.l 0x1, d1
     0x006a62ee      2f01           move.l d1, -(a7)
     0x006a62f0      7e00           moveq 0x0, d7
  > 0x006a62f2      be6f0002       cmp.w 0x2(a7), d7
  < 0x006a62f6      6e3e           bgt.b 0x6a6336
     0x006a62f8      4fbc001f       chk.w 0x1f, d7
     0x006a62fc      48c7           ext.l d7
     0x006a62fe      2207           move.l d7, d1
     0x006a6300      e381           asl.l 0x1, d1
     0x006a6302      4dbc003f       chk.w 0x3f, d6
     0x006a6306      48c6           ext.l d6
     0x006a6308      2406           move.l d6, d2
     0x006a630a      ed82           asl.l 0x6, d2
     0x006a630c      204a           movea.l a2, a0
     0x006a630e      41f02800       lea.l (a0, d2.l), a0
     0x006a6312      4f85           chk.w d5, d7
     0x006a6314      b085           cmp.l d5, d0
  < 0x006a6316      6302           bls.b 0x6a631a
     0x006a6318      4e4f           trap 0xf
  > 0x006a631a      2400           move.l d0, d2
     0x006a631c      e982           asl.l 0x4, d2
     0x006a631e      224a           movea.l a2, a1
     0x006a6320      43f12800       lea.l (a1, d2.l), a1
     0x006a6324      43f17000       lea.l (a1, d7.w), a1
     0x006a6328      4282           clr.l d2
     0x006a632a      14292016       move.b 0x2016(a1), d2
     0x006a632e      31821800       move.w d2, (a0, d1.l)
     0x006a6332      5247           addq.w 0x1, d7
  < 0x006a6334      68bc           bvc.b 0x6a62f2
  > 0x006a6336      584f           addq.w 0x4, a7
     0x006a6338      5246           addq.w 0x1, d6
  < 0x006a633a      689e           bvc.b 0x6a62da
  < 0x006a633c      608c           bra.b 0x6a62ca
       0x006a633e      3013           move.w (a3), d0
       0x006a6340      48c0           ext.l d0
       0x006a6342      5380           subq.l 0x1, d0
       0x006a6344      2f00           move.l d0, -(a7)
       0x006a6346      7c00           moveq 0x0, d6
   > 0x006a6348      bc6f0002       cmp.w 0x2(a7), d6
  < 0x006a634c      6e5e           bgt.b 0x6a63ac
     0x006a634e      3014           move.w (a4), d0
     0x006a6350      48c0           ext.l d0
     0x006a6352      5380           subq.l 0x1, d0
     0x006a6354      2f00           move.l d0, -(a7)
     0x006a6356      7e00           moveq 0x0, d7
  > 0x006a6358      be6f0002       cmp.w 0x2(a7), d7
  < 0x006a635c      6e48           bgt.b 0x6a63a6
     0x006a635e      4fbc001f       chk.w 0x1f, d7
     0x006a6362      48c7           ext.l d7
     0x006a6364      2007           move.l d7, d0
     0x006a6366      e380           asl.l 0x1, d0
     0x006a6368      4dbc003f       chk.w 0x3f, d6
     0x006a636c      48c6           ext.l d6
     0x006a636e      2206           move.l d6, d1
     0x006a6370      ed81           asl.l 0x6, d1
     0x006a6372      204a           movea.l a2, a0
     0x006a6374      41f01800       lea.l (a0, d1.l), a0
     0x006a6378      4d85           chk.w d5, d6
     0x006a637a      3214           move.w (a4), d1
     0x006a637c      48c1           ext.l d1
     0x006a637e      48c7           ext.l d7
     0x006a6380      9287           sub.l d7, d1
     0x006a6382      b285           cmp.l d5, d1
  < 0x006a6384      6302           bls.b 0x6a6388
     0x006a6386      4e4f           trap 0xf
  > 0x006a6388      e981           asl.l 0x4, d1
     0x006a638a      224a           movea.l a2, a1
     0x006a638c      43f11800       lea.l (a1, d1.l), a1
     0x006a6390      43f16000       lea.l (a1, d6.w), a1
     0x006a6394      12292016       move.b 0x2016(a1), d1
     0x006a6398      0281000000ff   andi.l 0xff, d1
     0x006a639e      31810800       move.w d1, (a0, d0.l)
     0x006a63a2      5247           addq.w 0x1, d7
  < 0x006a63a4      68b2           bvc.b 0x6a6358
  > 0x006a63a6      584f           addq.w 0x4, a7
     0x006a63a8      5246           addq.w 0x1, d6
  < 0x006a63aa      689c           bvc.b 0x6a6348
  < 0x006a63ac      6000ff1c       bra.w 0x6a62ca
        0x006a63b0      3013           move.w (a3), d0
        0x006a63b2      48c0           ext.l d0
        0x006a63b4      5380           subq.l 0x1, d0
        0x006a63b6      2f00           move.l d0, -(a7)
        0x006a63b8      7c00           moveq 0x0, d6
    > 0x006a63ba      bc6f0002       cmp.w 0x2(a7), d6
   < 0x006a63be      6e56           bgt.b 0x6a6416
      0x006a63c0      3014           move.w (a4), d0
      0x006a63c2      48c0           ext.l d0
      0x006a63c4      5380           subq.l 0x1, d0
      0x006a63c6      2f00           move.l d0, -(a7)
      0x006a63c8      7e00           moveq 0x0, d7
  > 0x006a63ca      be6f0002       cmp.w 0x2(a7), d7
  < 0x006a63ce      6e40           bgt.b 0x6a6410
     0x006a63d0      4fbc001f       chk.w 0x1f, d7
     0x006a63d4      48c7           ext.l d7
     0x006a63d6      2007           move.l d7, d0
     0x006a63d8      e380           asl.l 0x1, d0
     0x006a63da      4dbc003f       chk.w 0x3f, d6
     0x006a63de      48c6           ext.l d6
     0x006a63e0      2206           move.l d6, d1
     0x006a63e2      ed81           asl.l 0x6, d1
     0x006a63e4      204a           movea.l a2, a0
     0x006a63e6      41f01800       lea.l (a0, d1.l), a0
     0x006a63ea      4f85           chk.w d5, d7
     0x006a63ec      4d85           chk.w d5, d6
     0x006a63ee      48c6           ext.l d6
     0x006a63f0      2206           move.l d6, d1
     0x006a63f2      e981           asl.l 0x4, d1
     0x006a63f4      224a           movea.l a2, a1
     0x006a63f6      43f11800       lea.l (a1, d1.l), a1
     0x006a63fa      43f17000       lea.l (a1, d7.w), a1
     0x006a63fe      12292016       move.b 0x2016(a1), d1
     0x006a6402      0281000000ff   andi.l 0xff, d1
     0x006a6408      31810800       move.w d1, (a0, d0.l)
     0x006a640c      5247           addq.w 0x1, d7
  < 0x006a640e      68ba           bvc.b 0x6a63ca
  > 0x006a6410      584f           addq.w 0x4, a7
      0x006a6412      5246           addq.w 0x1, d6
   < 0x006a6414      68a4           bvc.b 0x6a63ba
   < 0x006a6416      6000feb2       bra.w 0x6a62ca
         0x006a641a      3013           move.w (a3), d0
         0x006a641c      48c0           ext.l d0
         0x006a641e      5380           subq.l 0x1, d0
         0x006a6420      2f00           move.l d0, -(a7)
         0x006a6422      7c00           moveq 0x0, d6
     > 0x006a6424      bc6f0002       cmp.w 0x2(a7), d6
    < 0x006a6428      6e62           bgt.b 0x6a648c
       0x006a642a      3014           move.w (a4), d0
       0x006a642c      48c0           ext.l d0
       0x006a642e      5380           subq.l 0x1, d0
       0x006a6430      2f00           move.l d0, -(a7)
       0x006a6432      7e00           moveq 0x0, d7
   > 0x006a6434      be6f0002       cmp.w 0x2(a7), d7
  < 0x006a6438      6e4c           bgt.b 0x6a6486
     0x006a643a      4fbc001f       chk.w 0x1f, d7
     0x006a643e      48c7           ext.l d7
     0x006a6440      2007           move.l d7, d0
     0x006a6442      e380           asl.l 0x1, d0
     0x006a6444      4dbc003f       chk.w 0x3f, d6
     0x006a6448      48c6           ext.l d6
     0x006a644a      2206           move.l d6, d1
     0x006a644c      ed81           asl.l 0x6, d1
     0x006a644e      204a           movea.l a2, a0
     0x006a6450      41f01800       lea.l (a0, d1.l), a0
     0x006a6454      3214           move.w (a4), d1
     0x006a6456      48c1           ext.l d1
     0x006a6458      48c7           ext.l d7
     0x006a645a      9287           sub.l d7, d1
     0x006a645c      b285           cmp.l d5, d1
  < 0x006a645e      6302           bls.b 0x6a6462
     0x006a6460      4e4f           trap 0xf
  > 0x006a6462      4d85           chk.w d5, d6
     0x006a6464      48c6           ext.l d6
     0x006a6466      2406           move.l d6, d2
     0x006a6468      e982           asl.l 0x4, d2
     0x006a646a      224a           movea.l a2, a1
     0x006a646c      43f12800       lea.l (a1, d2.l), a1
     0x006a6470      43f11800       lea.l (a1, d1.l), a1
     0x006a6474      12292016       move.b 0x2016(a1), d1
     0x006a6478      0281000000ff   andi.l 0xff, d1
     0x006a647e      31810800       move.w d1, (a0, d0.l)
     0x006a6482      5247           addq.w 0x1, d7
  < 0x006a6484      68ae           bvc.b 0x6a6434
  > 0x006a6486      584f           addq.w 0x4, a7
       0x006a6488      5246           addq.w 0x1, d6
    < 0x006a648a      6898           bvc.b 0x6a6424
    < 0x006a648c      6000fe3c       bra.w 0x6a62ca
          0x006a6490      3013           move.w (a3), d0
          0x006a6492      48c0           ext.l d0
          0x006a6494      5380           subq.l 0x1, d0
          0x006a6496      2f00           move.l d0, -(a7)
          0x006a6498      7c00           moveq 0x0, d6
      > 0x006a649a      bc6f0002       cmp.w 0x2(a7), d6
     < 0x006a649e      6e5e           bgt.b 0x6a64fe
        0x006a64a0      3013           move.w (a3), d0
        0x006a64a2      48c0           ext.l d0
        0x006a64a4      48c6           ext.l d6
        0x006a64a6      9086           sub.l d6, d0
        0x006a64a8      3214           move.w (a4), d1
        0x006a64aa      48c1           ext.l d1
        0x006a64ac      5381           subq.l 0x1, d1
        0x006a64ae      2f01           move.l d1, -(a7)
        0x006a64b0      7e00           moveq 0x0, d7
    > 0x006a64b2      be6f0002       cmp.w 0x2(a7), d7
   < 0x006a64b6      6e40           bgt.b 0x6a64f8
      0x006a64b8      4fbc001f       chk.w 0x1f, d7
      0x006a64bc      48c7           ext.l d7
      0x006a64be      2207           move.l d7, d1
      0x006a64c0      e381           asl.l 0x1, d1
      0x006a64c2      4dbc003f       chk.w 0x3f, d6
      0x006a64c6      48c6           ext.l d6
      0x006a64c8      2406           move.l d6, d2
      0x006a64ca      ed82           asl.l 0x6, d2
      0x006a64cc      204a           movea.l a2, a0
      0x006a64ce      41f02800       lea.l (a0, d2.l), a0
      0x006a64d2      b085           cmp.l d5, d0
  < 0x006a64d4      6302           bls.b 0x6a64d8
     0x006a64d6      4e4f           trap 0xf
  > 0x006a64d8      4f85           chk.w d5, d7
      0x006a64da      48c7           ext.l d7
      0x006a64dc      2407           move.l d7, d2
      0x006a64de      e982           asl.l 0x4, d2
      0x006a64e0      224a           movea.l a2, a1
      0x006a64e2      43f12800       lea.l (a1, d2.l), a1
      0x006a64e6      43f10800       lea.l (a1, d0.l), a1
      0x006a64ea      4282           clr.l d2
      0x006a64ec      14292016       move.b 0x2016(a1), d2
      0x006a64f0      31821800       move.w d2, (a0, d1.l)
      0x006a64f4      5247           addq.w 0x1, d7
   < 0x006a64f6      68ba           bvc.b 0x6a64b2
   > 0x006a64f8      584f           addq.w 0x4, a7
        0x006a64fa      5246           addq.w 0x1, d6
     < 0x006a64fc      689c           bvc.b 0x6a649a
     < 0x006a64fe      6000fdca       bra.w 0x6a62ca
       > 0x006a6502      202e0008       move.l 0x8(a6), d0
            0x006a6506      0c8000000002   cmpi.l 0x2, d0
        < 0x006a650c      6302           bls.b 0x6a6510
           0x006a650e      4e4f           trap 0xf
        > 0x006a6510      2800           move.l d0, d4
            0x006a6512      263c00000c26   move.l 0xc26, d3
            0x006a6518      4eb900406a74   jsr fcn.00406a74
            0x006a651e      2f04           move.l d4, -(a7)
            0x006a6520      202e0116       move.l 0x116(a6), d0
            0x006a6524      0c8000000100   cmpi.l 0x100, d0
        < 0x006a652a      6302           bls.b 0x6a652e
           0x006a652c      4e4f           trap 0xf
        > 0x006a652e      2800           move.l d0, d4
            0x006a6530      760c           moveq 0xc, d3
            0x006a6532      4eb900406a74   jsr fcn.00406a74
            0x006a6538      2017           move.l (a7), d0
            0x006a653a      41f900851d42   lea.l 0x851d42, a0
            0x006a6540      41f00800       lea.l (a0, d0.l), a0
            0x006a6544      3f30481e       move.w 0x1e(a0, d4.l), -(a7)
            0x006a6548      7e00           moveq 0x0, d7
        > 0x006a654a      be57           cmp.w (a7), d7
       < 0x006a654c      6e00009e       bgt.w 0x6a65ec
          0x006a6550      202e0116       move.l 0x116(a6), d0
          0x006a6554      0c8000000100   cmpi.l 0x100, d0
      < 0x006a655a      6302           bls.b 0x6a655e
         0x006a655c      4e4f           trap 0xf
      > 0x006a655e      2800           move.l d0, d4
          0x006a6560      760c           moveq 0xc, d3
          0x006a6562      4eb900406a74   jsr fcn.00406a74
          0x006a6568      2f04           move.l d4, -(a7)
          0x006a656a      202e0008       move.l 0x8(a6), d0
          0x006a656e      0c8000000002   cmpi.l 0x2, d0
      < 0x006a6574      6302           bls.b 0x6a6578
         0x006a6576      4e4f           trap 0xf
      > 0x006a6578      2800           move.l d0, d4
          0x006a657a      263c00000c26   move.l 0xc26, d3
          0x006a6580      4eb900406a74   jsr fcn.00406a74
          0x006a6586      41f900851d42   lea.l 0x851d42, a0
          0x006a658c      201f           move.l (a7)+, d0
          0x006a658e      41f04800       lea.l (a0, d4.l), a0
          0x006a6592      3c30081c       move.w 0x1c(a0, d0.l), d6
      > 0x006a6596      4a46           tst.w d6
     < 0x006a6598      6d3c           blt.b 0x6a65d6
        0x006a659a      4fbc001f       chk.w 0x1f, d7
        0x006a659e      48c7           ext.l d7
        0x006a65a0      2007           move.l d7, d0
        0x006a65a2      e380           asl.l 0x1, d0
        0x006a65a4      48c6           ext.l d6
        0x006a65a6      2206           move.l d6, d1
        0x006a65a8      5281           addq.l 0x1, d1
        0x006a65aa      0c810000003f   cmpi.l 0x3f, d1
    < 0x006a65b0      6302           bls.b 0x6a65b4
       0x006a65b2      4e4f           trap 0xf
    > 0x006a65b4      ed81           asl.l 0x6, d1
        0x006a65b6      204a           movea.l a2, a0
        0x006a65b8      41f01800       lea.l (a0, d1.l), a0
        0x006a65bc      4dbc003f       chk.w 0x3f, d6
        0x006a65c0      48c6           ext.l d6
        0x006a65c2      2206           move.l d6, d1
        0x006a65c4      ed81           asl.l 0x6, d1
        0x006a65c6      224a           movea.l a2, a1
        0x006a65c8      43f11800       lea.l (a1, d1.l), a1
        0x006a65cc      31b108000800   move.w (a1, d0.l), (a0, d0.l)
        0x006a65d2      5346           subq.w 0x1, d6
     < 0x006a65d4      68c0           bvc.b 0x6a6596
     > 0x006a65d6      4fbc001f       chk.w 0x1f, d7
          0x006a65da      48c7           ext.l d7
          0x006a65dc      2007           move.l d7, d0
          0x006a65de      e380           asl.l 0x1, d0
          0x006a65e0      204a           movea.l a2, a0
          0x006a65e2      42700800       clr.w (a0, d0.l)
          0x006a65e6      5247           addq.w 0x1, d7
       < 0x006a65e8      6800ff60       bvc.w 0x6a654a
       > 0x006a65ec      5c4f           addq.w 0x6, a7
            0x006a65ee      202e0116       move.l 0x116(a6), d0
            0x006a65f2      0c8000000100   cmpi.l 0x100, d0
        < 0x006a65f8      6302           bls.b 0x6a65fc
           0x006a65fa      4e4f           trap 0xf
        > 0x006a65fc      2800           move.l d0, d4
            0x006a65fe      760c           moveq 0xc, d3
            0x006a6600      4eb900406a74   jsr fcn.00406a74
            0x006a6606      2f04           move.l d4, -(a7)
            0x006a6608      202e0008       move.l 0x8(a6), d0
            0x006a660c      0c8000000002   cmpi.l 0x2, d0
        < 0x006a6612      6302           bls.b 0x6a6616
           0x006a6614      4e4f           trap 0xf
        > 0x006a6616      2800           move.l d0, d4
            0x006a6618      263c00000c26   move.l 0xc26, d3
            0x006a661e      4eb900406a74   jsr fcn.00406a74
            0x006a6624      41f900851d42   lea.l 0x851d42, a0
            0x006a662a      201f           move.l (a7)+, d0
            0x006a662c      41f04800       lea.l (a0, d4.l), a0
            0x006a6630      3230081c       move.w 0x1c(a0, d0.l), d1
            0x006a6634      48c1           ext.l d1
            0x006a6636      5481           addq.l 0x2, d1
            0x006a6638      0481ffff8000   subi.l 0xffff8000, d1
            0x006a663e      0c810000ffff   cmpi.l 0xffff, d1
        < 0x006a6644      6302           bls.b 0x6a6648
           0x006a6646      4e4f           trap 0xf
        > 0x006a6648      0681ffff8000   addi.l 0xffff8000, d1
            0x006a664e      3181081c       move.w d1, 0x1c(a0, d0.l)
            0x006a6652      2f2e011e       move.l 0x11e(a6), -(a7)
            0x006a6656      2f2e011a       move.l 0x11a(a6), -(a7)
            0x006a665a      4852           pea.l (a2)
            0x006a665c      202e0116       move.l 0x116(a6), d0
            0x006a6660      0c80000000ff   cmpi.l 0xff, d0
        < 0x006a6666      6302           bls.b 0x6a666a
           0x006a6668      4e4f           trap 0xf
        > 0x006a666a      3f00           move.w d0, -(a7)
            0x006a666c      2f2e0008       move.l 0x8(a6), -(a7)
            0x006a6670      4ebaf374       jsr TEXTMAV.put_br_char(pc)
            0x006a6674      defc0012       adda.w 0x12, a7
            0x006a6678      4cdf1fff       movem.l (a7)+, d0-d7/a0-a4
            0x006a667c      4e5e           unlk a6
            0x006a667e      4e75           rts
            ; CALL XREF from TEXTMAV.reload_font @ 0x6a699c
 102: TEXTMAV.check_arrows ();
           0x006a6680      4e56fec4       link.w a6, 0xfec4
           0x006a6684      bfd5           cmpa.l (a5), a7
       < 0x006a6686      6206           bhi.b 0x6a668e
          0x006a6688      44fc0002       move.w 0x2, ccr
          0x006a668c      4e76           trapv
       > 0x006a668e      defc0136       adda.w 0x136, a7
           0x006a6692      48e7c780       movem.l d0-d1/d5-d7/a0, -(a7)
           0x006a6696      7207           moveq 0x7, d1
           0x006a6698      7a00           moveq 0x0, d5
       > 0x006a669a      48c5           ext.l d5
          0x006a669c      7013           moveq 0x13, d0
          0x006a669e      d085           add.l d5, d0
          0x006a66a0      0480ffff8000   subi.l 0xffff8000, d0
          0x006a66a6      0c800000ffff   cmpi.l 0xffff, d0
      < 0x006a66ac      6302           bls.b 0x6a66b0
         0x006a66ae      4e4f           trap 0xf
      > 0x006a66b0      0680ffff8000   addi.l 0xffff8000, d0
          0x006a66b6      3c00           move.w d0, d6
          0x006a66b8      4dbc00ff       chk.w 0xff, d6
          0x006a66bc      48c6           ext.l d6
          0x006a66be      2006           move.l d6, d0
          0x006a66c0      e580           asl.l 0x2, d0
          0x006a66c2      2079008541d4   movea.l 0x8541d4, a0
          0x006a66c8      41f00800       lea.l (a0, d0.l), a0
          0x006a66cc      4aa80300       tst.l 0x300(a0)
      < 0x006a66d0      66000092       bne.w 0x6a6764
         0x006a66d4      3005           move.w d5, d0
         0x006a66d6      b041           cmp.w d1, d0
     < 0x006a66d8      6302           bls.b 0x6a66dc
        0x006a66da      4e4e           trap 0xe
     > 0x006a66dc      d040           add.w d0, d0
         0x006a66de      303b0006       move.w 0x6a66e6(pc, d0.w), d0
         0x006a66e2      4efb0002       jmp 0x6a66e6(pc, d0.w)
          0x006a66e6      00100014       ori.b 0x14, (a0)
          0x006a66ea      0018001c       ori.b 0x1c, (a0)+
          0x006a66ee      00200024       ori.b 0x24, -(a0)
          0x006a66f2      0028002c7e05   ori.b 0x2c, 0x7e05(a0)
     < 0x006a66f8      601a           bra.b 0x6a6714
        0x006a66fa      7e01           moveq 0x1, d7
    < 0x006a66fc      6016           bra.b 0x6a6714
       0x006a66fe      7e01           moveq 0x1, d7
   < 0x006a6700      6012           bra.b 0x6a6714
      0x006a6702      7e03           moveq 0x3, d7
  < 0x006a6704      600e           bra.b 0x6a6714
     0x006a6706      7e04           moveq 0x4, d7
  < 0x006a6708      600a           bra.b 0x6a6714
     0x006a670a      7e04           moveq 0x4, d7
  < 0x006a670c      6006           bra.b 0x6a6714
     0x006a670e      7e06           moveq 0x6, d7
  < 0x006a6710      6002           bra.b 0x6a6714
  < 0x006a6712      60e2           bra.b 0x6a66f6
  > 0x006a6714      3005           move.w d5, d0
          0x006a6716      02400001       andi.w 0x1, d0
      < 0x006a671a      661e           bne.b 0x6a673a
         0x006a671c      2f2e0010       move.l 0x10(a6), -(a7)
         0x006a6720      2f2e000c       move.l 0xc(a6), -(a7)
         0x006a6724      48c6           ext.l d6
         0x006a6726      2f06           move.l d6, -(a7)
         0x006a6728      48c7           ext.l d7
         0x006a672a      2f07           move.l d7, -(a7)
         0x006a672c      41fae6c6       lea.l 0x6a4df4(pc), a0
         0x006a6730      7040           moveq 0x40, d0
     > 0x006a6732      2f20           move.l -(a0), -(a7)
     < 0x006a6734      51c8fffc       dbra d0, 0x6a6732
     < 0x006a6738      601c           bra.b 0x6a6756
     > 0x006a673a      2f2e0010       move.l 0x10(a6), -(a7)
         0x006a673e      2f2e000c       move.l 0xc(a6), -(a7)
         0x006a6742      48c6           ext.l d6
         0x006a6744      2f06           move.l d6, -(a7)
         0x006a6746      48c7           ext.l d7
         0x006a6748      2f07           move.l d7, -(a7)
         0x006a674a      41fae7ae       lea.l 0x6a4efa(pc), a0
         0x006a674e      7040           moveq 0x40, d0
     > 0x006a6750      2f20           move.l -(a0), -(a7)
     < 0x006a6752      51c8fffc       dbra d0, 0x6a6750
     > 0x006a6756      3f20           move.w -(a0), -(a7)
          0x006a6758      2f2e0008       move.l 0x8(a6), -(a7)
          0x006a675c      4ebafa1c       jsr TEXTMAV.add_char(pc)
          0x006a6760      defc011a       adda.w 0x11a, a7
       > 0x006a6764      5245           addq.w 0x1, d5
           0x006a6766      ba41           cmp.w d1, d5
        < 0x006a6768      6f00ff30       ble.w 0x6a669a              ; TEXTMAV.check_arrows+0x1a
            0x006a676c      4cdf01e3       movem.l (a7)+, d0-d1/d5-d7/a0
            0x006a6770      4e5e           unlk a6
            0x006a6772      4e75           rts
 152: TEXTMAV.check_accent ();
           0x006a6774      4e56fec6       link.w a6, 0xfec6
           0x006a6778      bfd5           cmpa.l (a5), a7
       < 0x006a677a      6206           bhi.b 0x6a6782
          0x006a677c      44fc0002       move.w 0x2, ccr
          0x006a6780      4e76           trapv
       > 0x006a6782      defc013a       adda.w 0x13a, a7
           0x006a6786      48e7d880       movem.l d0-d1/d3-d4/a0, -(a7)
           0x006a678a      202e0008       move.l 0x8(a6), d0
           0x006a678e      0c8000000002   cmpi.l 0x2, d0
       < 0x006a6794      6302           bls.b 0x6a6798
          0x006a6796      4e4f           trap 0xf
       > 0x006a6798      2800           move.l d0, d4
           0x006a679a      263c00000c26   move.l 0xc26, d3
           0x006a67a0      4eb900406a74   jsr fcn.00406a74
           0x006a67a6      2f04           move.l d4, -(a7)
           0x006a67a8      4280           clr.l d0
           0x006a67aa      302e0112       move.w 0x112(a6), d0
           0x006a67ae      0c8000000100   cmpi.l 0x100, d0
       < 0x006a67b4      6302           bls.b 0x6a67b8
          0x006a67b6      4e4f           trap 0xf
       > 0x006a67b8      2800           move.l d0, d4
           0x006a67ba      760c           moveq 0xc, d3
           0x006a67bc      4eb900406a74   jsr fcn.00406a74
           0x006a67c2      2217           move.l (a7), d1
           0x006a67c4      41f900851d42   lea.l 0x851d42, a0
           0x006a67ca      41f01800       lea.l (a0, d1.l), a0
           0x006a67ce      3230481a       move.w 0x1a(a0, d4.l), d1
           0x006a67d2      0c41ffff       cmpi.w 0xffff, d1
       < 0x006a67d6      6704           beq.b 0x6a67dc
          0x006a67d8      584f           addq.w 0x4, a7
      < 0x006a67da      6028           bra.b 0x6a6804
      > 0x006a67dc      2f2e0118       move.l 0x118(a6), -(a7)
          0x006a67e0      2f2e0114       move.l 0x114(a6), -(a7)
          0x006a67e4      2f00           move.l d0, -(a7)
          0x006a67e6      48780001       pea.l 0x1
          0x006a67ea      41ee0112       lea.l 0x112(a6), a0
          0x006a67ee      7240           moveq 0x40, d1
      > 0x006a67f0      2f20           move.l -(a0), -(a7)
      < 0x006a67f2      51c9fffc       dbra d1, 0x6a67f0
          0x006a67f6      3f20           move.w -(a0), -(a7)
          0x006a67f8      2f2e0008       move.l 0x8(a6), -(a7)
          0x006a67fc      4ebaf97c       jsr TEXTMAV.add_char(pc)
          0x006a6800      defc011e       adda.w 0x11e, a7
      > 0x006a6804      4cdf011b       movem.l (a7)+, d0-d1/d3-d4/a0
           0x006a6808      4e5e           unlk a6
           0x006a680a      4e75           rts
 70: TEXTMAV.an_accent ();
           0x006a680c      4e56ffee       link.w a6, 0xffee
           0x006a6810      bfd5           cmpa.l (a5), a7
       < 0x006a6812      6206           bhi.b 0x6a681a
          0x006a6814      44fc0002       move.w 0x2, ccr
          0x006a6818      4e76           trapv
       > 0x006a681a      defc0010       adda.w 0x10, a7
           0x006a681e      48e78180       movem.l d0/d7/a0, -(a7)
           0x006a6822      422e000a       clr.b 0xa(a6)
           0x006a6826      7e00           moveq 0x0, d7
       > 0x006a6828      4887           ext.w d7
          0x006a682a      3007           move.w d7, d0
          0x006a682c      e340           asl.w 0x1, d0
          0x006a682e      41fae4b0       lea.l 0x6a4ce0(pc), a0
          0x006a6832      30300000       move.w (a0, d0.w), d0
          0x006a6836      b06e0008       cmp.w 0x8(a6), d0
      < 0x006a683a      6606           bne.b 0x6a6842
         0x006a683c      1d7c0001000a   move.b 0x1, 0xa(a6)
      > 0x006a6842      5207           addq.b 0x1, d7
          0x006a6844      0c070006       cmpi.b 0x6, d7
       < 0x006a6848      6fde           ble.b 0x6a6828
           0x006a684a      4cdf0181       movem.l (a7)+, d0/d7/a0
           0x006a684e      4e5e           unlk a6
           0x006a6850      4e75           rts
            ; CALL XREF from TEXTMAV.load_font @ 0x6a6f96
 770: TEXTMAV.reload_font ();
           ; var int32_t var_8h @ a7+0x8
           ; var int32_t var_108h @ a7+0x108
           0x006a6852      4e56fda6       link.w a6, 0xfda6
           0x006a6856      bfd5           cmpa.l (a5), a7
       < 0x006a6858      6206           bhi.b 0x6a6860
          0x006a685a      44fc0002       move.w 0x2, ccr
          0x006a685e      4e76           trapv
       > 0x006a6860      defc0244       adda.w 0x244, a7
           0x006a6864      48e7fff8       movem.l d0-d7/a0-a4, -(a7)
           0x006a6868      45ee001a       lea.l 0x1a(a6), a2
           0x006a686c      47f80000       lea.l 0x0, a3
           0x006a6870      49f900406a74   lea.l fcn.00406a74, a4
           0x006a6876      740c           moveq 0xc, d2
           0x006a6878      594f           subq.w 0x4, a7
           0x006a687a      4eb900402e30   jsr p_Cur_Ticks
           0x006a6880      2d5ffffc       move.l (a7)+, -0x4(a6)
           0x006a6884      13faeb900085.  move.b 0x6a5416(pc), 0x8541c8.l
           0x006a688c      33ee00120085.  move.w 0x12(a6), 0x8541b4.l
           0x006a6894      33ee00140085.  move.w 0x14(a6), 0x8541b6.l
           0x006a689c      4279008541b8   clr.w 0x8541b8
           0x006a68a2      206e000e       movea.l 0xe(a6), a0
           0x006a68a6      7e00           moveq 0x0, d7
       > 0x006a68a8      0c8700000100   cmpi.l 0x100, d7
      < 0x006a68ae      6302           bls.b 0x6a68b2
         0x006a68b0      4e4f           trap 0xf
      > 0x006a68b2      2807           move.l d7, d4
          0x006a68b4      760c           moveq 0xc, d3
          0x006a68b6      4e94           jsr (a4)                    ; fcn.0000000d
          0x006a68b8      2f04           move.l d4, -(a7)
          0x006a68ba      2012           move.l (a2), d0
          0x006a68bc      0c8000000002   cmpi.l 0x2, d0
      < 0x006a68c2      6302           bls.b 0x6a68c6
         0x006a68c4      4e4f           trap 0xf
      > 0x006a68c6      2800           move.l d0, d4
          0x006a68c8      263c00000c26   move.l 0xc26, d3
          0x006a68ce      4e94           jsr (a4)                    ; fcn.0000000d
          0x006a68d0      43f900851d42   lea.l 0x851d42, a1
          0x006a68d6      201f           move.l (a7)+, d0
          0x006a68d8      43f14800       lea.l (a1, d4.l), a1
          0x006a68dc      33bcffff081a   move.w 0xffff, 0x1a(a1, d0.l)
          0x006a68e2      4271081c       clr.w 0x1c(a1, d0.l)
          0x006a68e6      4271081e       clr.w 0x1e(a1, d0.l)
          0x006a68ea      42710820       clr.w 0x20(a1, d0.l)
          0x006a68ee      42710822       clr.w 0x22(a1, d0.l)
          0x006a68f2      42710824       clr.w 0x24(a1, d0.l)
          0x006a68f6      43faeb20       lea.l 0x6a5418(pc), a1
          0x006a68fa      3007           move.w d7, d0
          0x006a68fc      e648           lsr.w 0x3, d0
          0x006a68fe      0c400020       cmpi.w 0x20, d0
      < 0x006a6902      6d04           blt.b 0x6a6908
         0x006a6904      7000           moveq 0x0, d0
     < 0x006a6906      6004           bra.b 0x6a690c
     > 0x006a6908      0f310000       btst.l d7, (a1, d0.w)
     < 0x006a690c      6774           beq.b 0x6a6982
         0x006a690e      0c87000000ff   cmpi.l 0xff, d7
     < 0x006a6914      6302           bls.b 0x6a6918
        0x006a6916      4e4f           trap 0xf
     > 0x006a6918      43f07800       lea.l (a0, d7.l), a1
         0x006a691c      10290100       move.b 0x100(a1), d0
         0x006a6920      4880           ext.w d0
         0x006a6922      0c40ffff       cmpi.w 0xffff, d0
     < 0x006a6926      6302           bls.b 0x6a692a
        0x006a6928      4e4f           trap 0xf
     > 0x006a692a      3c00           move.w d0, d6
         0x006a692c      1011           move.b (a1), d0
         0x006a692e      4880           ext.w d0
         0x006a6930      0c40ffff       cmpi.w 0xffff, d0
     < 0x006a6934      6302           bls.b 0x6a6938
        0x006a6936      4e4f           trap 0xf
     > 0x006a6938      3a00           move.w d0, d5
         0x006a693a      10290200       move.b 0x200(a1), d0
         0x006a693e      4880           ext.w d0
         0x006a6940      3d40fff6       move.w d0, -0xa(a6)
         0x006a6944      2207           move.l d7, d1
         0x006a6946      e581           asl.l 0x2, d1
         0x006a6948      43f01800       lea.l (a0, d1.l), a1
         0x006a694c      222e000a       move.l 0xa(a6), d1
         0x006a6950      d2a90300       add.l 0x300(a1), d1
         0x006a6954      2d41fff8       move.l d1, -0x8(a6)
         0x006a6958      2f2e0016       move.l 0x16(a6), -(a7)
         0x006a695c      2f2e0012       move.l 0x12(a6), -(a7)
         0x006a6960      0c870000ffff   cmpi.l 0xffff, d7
     < 0x006a6966      6302           bls.b 0x6a696a
        0x006a6968      4e4f           trap 0xf
     > 0x006a696a      3f07           move.w d7, -(a7)
         0x006a696c      3f06           move.w d6, -(a7)
         0x006a696e      3f05           move.w d5, -(a7)
         0x006a6970      3f00           move.w d0, -(a7)
         0x006a6972      2f01           move.l d1, -(a7)
         0x006a6974      2f12           move.l (a2), -(a7)
         0x006a6976      1f2e0008       move.b 0x8(a6), -(a7)
         0x006a697a      4ebaf5f2       jsr TEXTMAV.convert_char(pc)
         0x006a697e      defc001a       adda.w 0x1a, a7
      > 0x006a6982      5287           addq.l 0x1, d7
          0x006a6984      0c8700000100   cmpi.l 0x100, d7
       < 0x006a698a      6f00ff1c       ble.w 0x6a68a8
           0x006a698e      4a92           tst.l (a2)
       < 0x006a6990      6610           bne.b 0x6a69a2
          0x006a6992      2f2e0016       move.l 0x16(a6), -(a7)
          0x006a6996      2f2e0012       move.l 0x12(a6), -(a7)
          0x006a699a      2f12           move.l (a2), -(a7)
          0x006a699c      4ebafce2       jsr TEXTMAV.check_arrows(pc)
          0x006a69a0      dec2           adda.w d2, a7
       > 0x006a69a2      4a39008541dc   tst.b 0x8541dc
       < 0x006a69a8      670001a2       beq.w 0x6a6b4c
          0x006a69ac      9efc0100       suba.w 0x100, a7
          0x006a69b0      2f2e0016       move.l 0x16(a6), -(a7)
          0x006a69b4      2f2e0012       move.l 0x12(a6), -(a7)
          0x006a69b8      4853           pea.l (a3)
          0x006a69ba      4eb90044d9f2   jsr SYSTEM_STRING.area_str
          0x006a69c0      9efc00f4       suba.w 0xf4, a7
          0x006a69c4      2f39008541b4   move.l 0x8541b4, -(a7)
          0x006a69ca      4853           pea.l (a3)
          0x006a69cc      4eb90044dd86   jsr SYSTEM_STRING.point_str
          0x006a69d2      504f           addq.w 0x8, a7
          0x006a69d4      487aea8c       pea.l 0x6a5462(pc)
          0x006a69d8      4878000f       pea.l 0xf
          0x006a69dc      2f17           move.l (a7), -(a7)
          0x006a69de      4eb9004047ea   jsr p_wts_o
          0x006a69e4      504f           addq.w 0x8, a7
          0x006a69e6      4eb900402e30   jsr p_Cur_Ticks
          0x006a69ec      2017           move.l (a7), d0
          0x006a69ee      90aefffc       sub.l -0x4(a6), d0
          0x006a69f2      2e80           move.l d0, (a7)
          0x006a69f4      4853           pea.l (a3)
          0x006a69f6      4eb9004070e4   jsr p_wti_o
          0x006a69fc      504f           addq.w 0x8, a7
          0x006a69fe      487aea72       pea.l 0x6a5472(pc)
          0x006a6a02      48780007       pea.l 0x7
          0x006a6a06      2f17           move.l (a7), -(a7)
          0x006a6a08      4eb9004047ea   jsr p_wts_o
          0x006a6a0e      dec2           adda.w d2, a7
          0x006a6a10      486f0101       pea.l 0x101(a7)
          0x006a6a14      42a7           clr.l -(a7)
          0x006a6a16      1f6f01080003   move.b 0x108(a7), 0x3(a7)
          0x006a6a1c      2f17           move.l (a7), -(a7)
          0x006a6a1e      4eb9004047ea   jsr p_wts_o
          0x006a6a24      dec2           adda.w d2, a7
          0x006a6a26      487aea52       pea.l 0x6a547a(pc)
          0x006a6a2a      48780007       pea.l 0x7
          0x006a6a2e      2f17           move.l (a7), -(a7)
          0x006a6a30      4eb9004047ea   jsr p_wts_o
          0x006a6a36      dec2           adda.w d2, a7
          0x006a6a38      486f0001       pea.l 0x1(a7)
          0x006a6a3c      42a7           clr.l -(a7)
          0x006a6a3e      1f6f00080003   move.b 0x8(a7), 0x3(a7)
          0x006a6a44      2f17           move.l (a7), -(a7)
          0x006a6a46      4eb9004047ea   jsr p_wts_o
          0x006a6a4c      defc020c       adda.w 0x20c, a7
          0x006a6a50      487aea30       pea.l 0x6a5482(pc)
          0x006a6a54      48780009       pea.l 0x9
          0x006a6a58      2f17           move.l (a7), -(a7)
          0x006a6a5a      4eb9004047ea   jsr p_wts_o
          0x006a6a60      dec2           adda.w d2, a7
          0x006a6a62      7cff           moveq 0xff, d6
          0x006a6a64      7e00           moveq 0x0, d7
      > 0x006a6a66      2012           move.l (a2), d0
         0x006a6a68      0c8000000002   cmpi.l 0x2, d0
     < 0x006a6a6e      6302           bls.b 0x6a6a72
        0x006a6a70      4e4f           trap 0xf
     > 0x006a6a72      2800           move.l d0, d4
         0x006a6a74      263c00000c26   move.l 0xc26, d3
         0x006a6a7a      4e94           jsr (a4)                    ; fcn.0000000d
         0x006a6a7c      2f04           move.l d4, -(a7)
         0x006a6a7e      0c8700000100   cmpi.l 0x100, d7
     < 0x006a6a84      6302           bls.b 0x6a6a88
        0x006a6a86      4e4f           trap 0xf
     > 0x006a6a88      2807           move.l d7, d4
         0x006a6a8a      760c           moveq 0xc, d3
         0x006a6a8c      4e94           jsr (a4)                    ; fcn.0000000d
         0x006a6a8e      2017           move.l (a7), d0
         0x006a6a90      41f900851d42   lea.l 0x851d42, a0
         0x006a6a96      41f00800       lea.l (a0, d0.l), a0
         0x006a6a9a      584f           addq.w 0x4, a7
         0x006a6a9c      3030481a       move.w 0x1a(a0, d4.l), d0
         0x006a6aa0      0c40ffff       cmpi.w 0xffff, d0
     < 0x006a6aa4      662a           bne.b 0x6a6ad0
        0x006a6aa6      0c86ffffffff   cmpi.l 0xffffffff, d6
    < 0x006a6aac      664c           bne.b 0x6a6afa
       0x006a6aae      2f07           move.l d7, -(a7)
       0x006a6ab0      4853           pea.l (a3)
       0x006a6ab2      4eb9004070e4   jsr p_wti_o
       0x006a6ab8      504f           addq.w 0x8, a7
       0x006a6aba      487ae9d0       pea.l 0x6a548c(pc)
       0x006a6abe      48780003       pea.l 0x3
       0x006a6ac2      2f17           move.l (a7), -(a7)
       0x006a6ac4      4eb9004047ea   jsr p_wts_o
       0x006a6aca      dec2           adda.w d2, a7
       0x006a6acc      2c07           move.l d7, d6
   < 0x006a6ace      602a           bra.b 0x6a6afa
   > 0x006a6ad0      0c86ffffffff   cmpi.l 0xffffffff, d6
   < 0x006a6ad6      6722           beq.b 0x6a6afa
      0x006a6ad8      2f07           move.l d7, -(a7)
      0x006a6ada      5397           subq.l 0x1, (a7)
      0x006a6adc      4853           pea.l (a3)
      0x006a6ade      4eb9004070e4   jsr p_wti_o
      0x006a6ae4      504f           addq.w 0x8, a7
      0x006a6ae6      487ae9a8       pea.l 0x6a5490(pc)
      0x006a6aea      48780002       pea.l 0x2
      0x006a6aee      2f17           move.l (a7), -(a7)
      0x006a6af0      4eb9004047ea   jsr p_wts_o
      0x006a6af6      dec2           adda.w d2, a7
      0x006a6af8      7cff           moveq 0xff, d6
   > 0x006a6afa      5287           addq.l 0x1, d7
         0x006a6afc      0c8700000100   cmpi.l 0x100, d7
      < 0x006a6b02      6f00ff62       ble.w 0x6a6a66
          0x006a6b06      2012           move.l (a2), d0
          0x006a6b08      0c8000000002   cmpi.l 0x2, d0
      < 0x006a6b0e      6302           bls.b 0x6a6b12
         0x006a6b10      4e4f           trap 0xf
      > 0x006a6b12      2800           move.l d0, d4
          0x006a6b14      263c00000c26   move.l 0xc26, d3
          0x006a6b1a      4e94           jsr (a4)                    ; fcn.0000000d
          0x006a6b1c      41f900851d42   lea.l 0x851d42, a0
          0x006a6b22      41f04800       lea.l (a0, d4.l), a0
          0x006a6b26      30280c1a       move.w 0xc1a(a0), d0
          0x006a6b2a      0c40ffff       cmpi.w 0xffff, d0
      < 0x006a6b2e      6616           bne.b 0x6a6b46
         0x006a6b30      0c86ffffffff   cmpi.l 0xffffffff, d6
     < 0x006a6b36      670e           beq.b 0x6a6b46
        0x006a6b38      48780100       pea.l 0x100
        0x006a6b3c      4853           pea.l (a3)
        0x006a6b3e      4eb9004070e4   jsr p_wti_o
        0x006a6b44      504f           addq.w 0x8, a7
     > 0x006a6b46      4eb900404946   jsr p_wtln_o
       > 0x006a6b4c      4cdf1fff       movem.l (a7)+, d0-d7/a0-a4
           0x006a6b50      4e5e           unlk a6
           0x006a6b52      4e75           rts
            ; CALL XREF from TEXTMAV.read_menu_font @ 0x6a6d5c
 338: TEXTMAV.read_font_file ();
           0x006a6b54      4e56fed8       link.w a6, 0xfed8
           0x006a6b58      bfd5           cmpa.l (a5), a7
       < 0x006a6b5a      6206           bhi.b 0x6a6b62
          0x006a6b5c      44fc0002       move.w 0x2, ccr
          0x006a6b60      4e76           trapv
       > 0x006a6b62      defc0128       adda.w 0x128, a7
           0x006a6b66      48e7f8f0       movem.l d0-d4/a0-a3, -(a7)
           0x006a6b6a      45ec0006       lea.l 0x6(a4), a2
           0x006a6b6e      47ec0002       lea.l 0x2(a4), a3
           0x006a6b72      343c0100       move.w 0x100, d2
           0x006a6b76      7601           moveq 0x1, d3
           0x006a6b78      7814           moveq 0x14, d4
           0x006a6b7a      422e0016       clr.b 0x16(a6)
           0x006a6b7e      2683           move.l d3, (a3)
           0x006a6b80      554f           subq.w 0x2, a7
           0x006a6b82      2f2e0012       move.l 0x12(a6), -(a7)
           0x006a6b86      2f2e000e       move.l 0xe(a6), -(a7)
           0x006a6b8a      3f2e000c       move.w 0xc(a6), -(a7)
           0x006a6b8e      1f03           move.b d3, -(a7)
           0x006a6b90      4853           pea.l (a3)
           0x006a6b92      4eb90060477a   jsr F9_FILERDWRT.f_op_block
           0x006a6b98      defc0010       adda.w 0x10, a7
           0x006a6b9c      4a1f           tst.b (a7)+
       < 0x006a6b9e      670000e8       beq.w 0x6a6c88
          0x006a6ba2      24bc00000002   move.l 0x2, (a2)
          0x006a6ba8      554f           subq.w 0x2, a7
          0x006a6baa      2f13           move.l (a3), -(a7)
          0x006a6bac      2f2e0008       move.l 0x8(a6), -(a7)
          0x006a6bb0      4eb900604c60   jsr F9_FILERDWRT.f_seek_to_block
          0x006a6bb6      504f           addq.w 0x8, a7
          0x006a6bb8      4a1f           tst.b (a7)+
      < 0x006a6bba      670000aa       beq.w 0x6a6c66
         0x006a6bbe      554f           subq.w 0x2, a7
         0x006a6bc0      2f13           move.l (a3), -(a7)
         0x006a6bc2      2f12           move.l (a2), -(a7)
         0x006a6bc4      2f39008541d4   move.l 0x8541d4, -(a7)
         0x006a6bca      2f3c00020000   move.l 0x20000, -(a7)
         0x006a6bd0      4852           pea.l (a2)
         0x006a6bd2      4eb900604854   jsr F9_FILERDWRT.f_read_blocks
         0x006a6bd8      dec4           adda.w d4, a7
         0x006a6bda      4a1f           tst.b (a7)+
     < 0x006a6bdc      6776           beq.b 0x6a6c54
        0x006a6bde      2079008541d4   movea.l 0x8541d4, a0
        0x006a6be4      4aa80700       tst.l 0x700(a0)
    < 0x006a6be8      6604           bne.b 0x6a6bee
   < 0x006a6bea      60000090       bra.w 0x6a6c7c
   > 0x006a6bee      20280700       move.l 0x700(a0), d0
       0x006a6bf2      0c80000249f0   cmpi.l 0x249f0, d0
   < 0x006a6bf8      623e           bhi.b 0x6a6c38
      0x006a6bfa      2480           move.l d0, (a2)
      0x006a6bfc      0692000003ff   addi.l 0x3ff, (a2)
      0x006a6c02      2212           move.l (a2), d1
      0x006a6c04      e089           lsr.l 0x8, d1
      0x006a6c06      e489           lsr.l 0x2, d1
      0x006a6c08      2481           move.l d1, (a2)
      0x006a6c0a      2979008541d8.  move.l 0x8541d8, 0xa(a4)
      0x006a6c12      554f           subq.w 0x2, a7
      0x006a6c14      2f13           move.l (a3), -(a7)
      0x006a6c16      2f01           move.l d1, -(a7)
      0x006a6c18      2f2c000a       move.l 0xa(a4), -(a7)
      0x006a6c1c      2f3c00020000   move.l 0x20000, -(a7)
      0x006a6c22      4852           pea.l (a2)
      0x006a6c24      4eb900604854   jsr F9_FILERDWRT.f_read_blocks
      0x006a6c2a      dec4           adda.w d4, a7
      0x006a6c2c      121f           move.b (a7)+, d1
      0x006a6c2e      4881           ext.w d1
      0x006a6c30      4383           chk.w d3, d1
      0x006a6c32      1d410016       move.b d1, 0x16(a6)
  < 0x006a6c36      6044           bra.b 0x6a6c7c
  > 0x006a6c38      487ae859       pea.l 0x6a5493(pc)
      0x006a6c3c      48780012       pea.l 0x12
      0x006a6c40      2f17           move.l (a7), -(a7)
      0x006a6c42      4eb9004047ea   jsr p_wts_o
      0x006a6c48      defc000c       adda.w 0xc, a7
      0x006a6c4c      4eb900404946   jsr p_wtln_o
  < 0x006a6c52      6028           bra.b 0x6a6c7c
  > 0x006a6c54      9ec2           suba.w d2, a7
      0x006a6c56      204f           movea.l a7, a0
      0x006a6c58      43fae84b       lea.l 0x6a54a5(pc), a1
      0x006a6c5c      702b           moveq 0x2b, d0
  > 0x006a6c5e      10d9           move.b (a1)+, (a0)+
  < 0x006a6c60      51c8fffc       dbra d0, 0x6a6c5e
  < 0x006a6c64      6010           bra.b 0x6a6c76
  > 0x006a6c66      9ec2           suba.w d2, a7
      0x006a6c68      204f           movea.l a7, a0
      0x006a6c6a      43fae865       lea.l 0x6a54d1(pc), a1
      0x006a6c6e      702b           moveq 0x2b, d0
  > 0x006a6c70      10d9           move.b (a1)+, (a0)+
  < 0x006a6c72      51c8fffc       dbra d0, 0x6a6c70
  > 0x006a6c76      4ebaed00       jsr TEXTMAV.f_error(pc)
       0x006a6c7a      dec2           adda.w d2, a7
  > 0x006a6c7c      4853           pea.l (a3)
          0x006a6c7e      4eb90060470a   jsr F9_FILERDWRT.f_close
          0x006a6c84      584f           addq.w 0x4, a7
      < 0x006a6c86      6016           bra.b 0x6a6c9e
      > 0x006a6c88      9ec2           suba.w d2, a7
          0x006a6c8a      204f           movea.l a7, a0
          0x006a6c8c      43fae86f       lea.l 0x6a54fd(pc), a1
          0x006a6c90      701c           moveq 0x1c, d0
      > 0x006a6c92      10d9           move.b (a1)+, (a0)+
      < 0x006a6c94      51c8fffc       dbra d0, 0x6a6c92
          0x006a6c98      4ebaecde       jsr TEXTMAV.f_error(pc)
          0x006a6c9c      dec2           adda.w d2, a7
      > 0x006a6c9e      4cdf0f1f       movem.l (a7)+, d0-d4/a0-a3
           0x006a6ca2      4e5e           unlk a6
           0x006a6ca4      4e75           rts
            ; CALL XREFS from TEXTMAV.load_font @ 0x6a6e5a, 0x6a6f4e
            ; CALL XREF from TEXTMAV.cmd_read_menufo @ 0x6a7d64
 206: TEXTMAV.read_menu_font ();
           0x006a6ca6      4e56ffba       link.w a6, 0xffba
           0x006a6caa      bfd5           cmpa.l (a5), a7
       < 0x006a6cac      6206           bhi.b 0x6a6cb4
          0x006a6cae      44fc0002       move.w 0x2, ccr
          0x006a6cb2      4e76           trapv
       > 0x006a6cb4      defc0036       adda.w 0x36, a7
           0x006a6cb8      48e7e0e8       movem.l d0-d2/a0-a2/a4, -(a7)
           0x006a6cbc      41ee000c       lea.l 0xc(a6), a0
           0x006a6cc0      43ee0012       lea.l 0x12(a6), a1
           0x006a6cc4      45ee000e       lea.l 0xe(a6), a2
           0x006a6cc8      7201           moveq 0x1, d1
           0x006a6cca      740e           moveq 0xe, d2
           0x006a6ccc      422e0016       clr.b 0x16(a6)
           0x006a6cd0      554f           subq.w 0x2, a7
           0x006a6cd2      2f11           move.l (a1), -(a7)
           0x006a6cd4      2f12           move.l (a2), -(a7)
           0x006a6cd6      3f10           move.w (a0), -(a7)
           0x006a6cd8      2f3adff2       move.l 0x6a4ccc(pc), -(a7)
           0x006a6cdc      2f3adfea       move.l 0x6a4cc8(pc), -(a7)
           0x006a6ce0      3f3adfe4       move.w 0x6a4cc6(pc), -(a7)
           0x006a6ce4      4eb9005ef3d2   jsr F2_UTILITY.f_fids_eq
           0x006a6cea      defc0014       adda.w 0x14, a7
           0x006a6cee      4a1f           tst.b (a7)+
       < 0x006a6cf0      675a           beq.b 0x6a6d4c
          0x006a6cf2      594f           subq.w 0x4, a7
          0x006a6cf4      48780000       pea.l 0x0
          0x006a6cf8      4eb90062788a   jsr PICTURENET.sysvol_wait
          0x006a6cfe      584f           addq.w 0x4, a7
          0x006a6d00      2097           move.l (a7), (a0)
          0x006a6d02      544f           addq.w 0x2, a7
          0x006a6d04      4850           pea.l (a0)
          0x006a6d06      3f3c0bc2       move.w 0xbc2, -(a7)
          0x006a6d0a      3f3c0bc2       move.w 0xbc2, -(a7)
          0x006a6d0e      1f01           move.b d1, -(a7)
          0x006a6d10      486efff0       pea.l -0x10(a6)
          0x006a6d14      4eb900607986   jsr F10_FILELIST.f_find_file
          0x006a6d1a      dec2           adda.w d2, a7
          0x006a6d1c      4a1f           tst.b (a7)+
      < 0x006a6d1e      6724           beq.b 0x6a6d44
         0x006a6d20      23d0008541ca   move.l (a0), 0x8541ca
         0x006a6d26      23ee00100085.  move.l 0x10(a6), 0x8541ce.l
         0x006a6d2e      33ee00140085.  move.w 0x14(a6), 0x8541d2.l
         0x006a6d36      554f           subq.w 0x2, a7
         0x006a6d38      2f11           move.l (a1), -(a7)
         0x006a6d3a      2f12           move.l (a2), -(a7)
         0x006a6d3c      3f10           move.w (a0), -(a7)
         0x006a6d3e      48780000       pea.l 0x0
     < 0x006a6d42      6014           bra.b 0x6a6d58
     > 0x006a6d44      4eb900404188   jsr p_Unlink
     < 0x006a6d4a      6020           bra.b 0x6a6d6c
     > 0x006a6d4c      554f           subq.w 0x2, a7
         0x006a6d4e      2f11           move.l (a1), -(a7)
         0x006a6d50      2f12           move.l (a2), -(a7)
         0x006a6d52      3f10           move.w (a0), -(a7)
         0x006a6d54      2f2e0008       move.l 0x8(a6), -(a7)
     > 0x006a6d58      49eefff0       lea.l -0x10(a6), a4
          0x006a6d5c      4ebafdf6       jsr TEXTMAV.read_font_file(pc)
          0x006a6d60      dec2           adda.w d2, a7
          0x006a6d62      101f           move.b (a7)+, d0
          0x006a6d64      4880           ext.w d0
          0x006a6d66      4181           chk.w d1, d0
          0x006a6d68      1d400016       move.b d0, 0x16(a6)
      > 0x006a6d6c      4cdf1707       movem.l (a7)+, d0-d2/a0-a2/a4
           0x006a6d70      4e5e           unlk a6
           0x006a6d72      4e75           rts
            ; XREFS: CALL 0x006a72c8  CALL 0x006a730a  CALL 0x006a74ba  
            ; XREFS: CALL 0x006a7b36  CALL 0x006a7c8a  CALL 0x006a7cc2  
            ; XREFS: CALL 0x006a7cda  
 562: TEXTMAV.load_font ();
           ; var int32_t var_8h @ a7+0x8
           0x006a6d74      4e56febc       link.w a6, 0xfebc
           0x006a6d78      bfd5           cmpa.l (a5), a7
       < 0x006a6d7a      6206           bhi.b 0x6a6d82
          0x006a6d7c      44fc0002       move.w 0x2, ccr
          0x006a6d80      4e76           trapv
       > 0x006a6d82      defc0144       adda.w 0x144, a7
           0x006a6d86      48e7fff8       movem.l d0-d7/a0-a4, -(a7)
           0x006a6d8a      47f9006956a6   lea.l fcn.006956a6, a3
           0x006a6d90      49ee0016       lea.l 0x16(a6), a4
           0x006a6d94      720b           moveq 0xb, d1
           0x006a6d96      7401           moveq 0x1, d2
           0x006a6d98      7a02           moveq 0x2, d5
           0x006a6d9a      7c0e           moveq 0xe, d6
           0x006a6d9c      7e0a           moveq 0xa, d7
           0x006a6d9e      4a39008541dc   tst.b 0x8541dc
       < 0x006a6da4      674e           beq.b 0x6a6df4
          0x006a6da6      9efc0100       suba.w 0x100, a7
          0x006a6daa      486e000c       pea.l 0xc(a6)
          0x006a6dae      4eb9005ef416   jsr F2_UTILITY.f_fid_string
          0x006a6db4      584f           addq.w 0x4, a7
          0x006a6db6      487ae763       pea.l 0x6a551b(pc)
          0x006a6dba      4878000a       pea.l 0xa
          0x006a6dbe      2f17           move.l (a7), -(a7)
          0x006a6dc0      4eb9004047ea   jsr p_wts_o
          0x006a6dc6      504f           addq.w 0x8, a7
          0x006a6dc8      2e94           move.l (a4), (a7)
          0x006a6dca      48780000       pea.l 0x0
          0x006a6dce      4eb9004070e4   jsr p_wti_o
          0x006a6dd4      504f           addq.w 0x8, a7
          0x006a6dd6      486f0001       pea.l 0x1(a7)
          0x006a6dda      42a7           clr.l -(a7)
          0x006a6ddc      1f6f00080003   move.b 0x8(a7), 0x3(a7)
          0x006a6de2      2f17           move.l (a7), -(a7)
          0x006a6de4      4eb9004047ea   jsr p_wts_o
          0x006a6dea      defc010c       adda.w 0x10c, a7
          0x006a6dee      4eb900404946   jsr p_wtln_o
       > 0x006a6df4      2014           move.l (a4), d0
           0x006a6df6      b085           cmp.l d5, d0
       < 0x006a6df8      6302           bls.b 0x6a6dfc
          0x006a6dfa      4e4f           trap 0xf
       > 0x006a6dfc      2800           move.l d0, d4
           0x006a6dfe      263c00000c26   move.l 0xc26, d3
           0x006a6e04      4eb900406a74   jsr fcn.00406a74
           0x006a6e0a      41f900851d42   lea.l 0x851d42, a0
           0x006a6e10      43f04800       lea.l (a0, d4.l), a1
           0x006a6e14      45ee000c       lea.l 0xc(a6), a2
           0x006a6e18      7009           moveq 0x9, d0
       > 0x006a6e1a      12da           move.b (a2)+, (a1)+
       < 0x006a6e1c      51c8fffc       dbra d0, 0x6a6e1a
           0x006a6e20      21ae0008480a   move.l 0x8(a6), 0xa(a0, d4.l)
           0x006a6e26      514f           subq.w 0x8, a7
           0x006a6e28      1f01           move.b d1, -(a7)
           0x006a6e2a      4eb9006336ea   jsr HANDCOM.get_area
           0x006a6e30      544f           addq.w 0x2, a7
           0x006a6e32      43f04812       lea.l 0x12(a0, d4.l), a1
           0x006a6e36      244f           movea.l a7, a2
           0x006a6e38      7007           moveq 0x7, d0
       > 0x006a6e3a      12da           move.b (a2)+, (a1)+
       < 0x006a6e3c      51c8fffc       dbra d0, 0x6a6e3a
           0x006a6e40      504f           addq.w 0x8, a7
           0x006a6e42      4a94           tst.l (a4)
       < 0x006a6e44      66000086       bne.w 0x6a6ecc
          0x006a6e48      554f           subq.w 0x2, a7
          0x006a6e4a      2f3ade80       move.l 0x6a4ccc(pc), -(a7)
          0x006a6e4e      2f3ade78       move.l 0x6a4cc8(pc), -(a7)
          0x006a6e52      3f3ade72       move.w 0x6a4cc6(pc), -(a7)
          0x006a6e56      48780000       pea.l 0x0
          0x006a6e5a      4ebafe4a       jsr TEXTMAV.read_menu_font(pc)
          0x006a6e5e      dec6           adda.w d6, a7
          0x006a6e60      4a1f           tst.b (a7)+
      < 0x006a6e62      6722           beq.b 0x6a6e86
         0x006a6e64      48780000       pea.l 0x0
         0x006a6e68      514f           subq.w 0x8, a7
         0x006a6e6a      1f01           move.b d1, -(a7)
         0x006a6e6c      4eb9006336ea   jsr HANDCOM.get_area
         0x006a6e72      544f           addq.w 0x2, a7
         0x006a6e74      2f39008541d4   move.l 0x8541d4, -(a7)
         0x006a6e7a      2f39008541d8   move.l 0x8541d8, -(a7)
     > 0x006a6e80      4227           clr.b -(a7)
    < 0x006a6e82      60000112       bra.w 0x6a6f96
    > 0x006a6e86      594f           subq.w 0x4, a7
        0x006a6e88      4e93           jsr (a3)                    ; fcn.0000000c
        0x006a6e8a      225f           movea.l (a7)+, a1
        0x006a6e8c      b2c2           cmpa.w d2, a1
    < 0x006a6e8e      671e           beq.b 0x6a6eae
       0x006a6e90      48780000       pea.l 0x0
       0x006a6e94      514f           subq.w 0x8, a7
       0x006a6e96      1f01           move.b d1, -(a7)
       0x006a6e98      4eb9006336ea   jsr HANDCOM.get_area
       0x006a6e9e      554f           subq.w 0x2, a7
       0x006a6ea0      4e93           jsr (a3)                    ; fcn.0000000c
       0x006a6ea2      594f           subq.w 0x4, a7
       0x006a6ea4      4e93           jsr (a3)                    ; fcn.0000000c
   > 0x006a6ea6      069700000800   addi.l 0x800, (a7)
   < 0x006a6eac      60d2           bra.b 0x6a6e80
    > 0x006a6eae      487ae676       pea.l 0x6a5526(pc)
        0x006a6eb2      48780015       pea.l 0x15
        0x006a6eb6      2f17           move.l (a7), -(a7)
    > 0x006a6eb8      4eb9004047ea   jsr p_wts_o
       0x006a6ebe      defc000c       adda.w 0xc, a7
       0x006a6ec2      4eb900404946   jsr p_wtln_o
   < 0x006a6ec8      600000d4       bra.w 0x6a6f9e
   > 0x006a6ecc      2014           move.l (a4), d0
       0x006a6ece      b085           cmp.l d5, d0
   < 0x006a6ed0      6650           bne.b 0x6a6f22
      0x006a6ed2      554f           subq.w 0x2, a7
      0x006a6ed4      4227           clr.b -(a7)
      0x006a6ed6      4870480e       pea.l 0xe(a0, d4.l)
      0x006a6eda      48704812       pea.l 0x12(a0, d4.l)
      0x006a6ede      4eb900632858   jsr CACHECOM.new_cache_rec
      0x006a6ee4      dec7           adda.w d7, a7
      0x006a6ee6      4a1f           tst.b (a7)+
      0x006a6ee8      594f           subq.w 0x4, a7
      0x006a6eea      4eb90069c414   jsr fcn.0069c414
      0x006a6ef0      225f           movea.l (a7)+, a1
      0x006a6ef2      b2c2           cmpa.w d2, a1
  < 0x006a6ef4      6720           beq.b 0x6a6f16
     0x006a6ef6      2f00           move.l d0, -(a7)
     0x006a6ef8      2f39008535a4   move.l 0x8535a4, -(a7)
     0x006a6efe      2f39008535a0   move.l 0x8535a0, -(a7)
     0x006a6f04      594f           subq.w 0x4, a7
     0x006a6f06      4eb90069c414   jsr fcn.0069c414
     0x006a6f0c      594f           subq.w 0x4, a7
     0x006a6f0e      4eb90069c414   jsr fcn.0069c414
  < 0x006a6f14      6090           bra.b 0x6a6ea6
  > 0x006a6f16      487ae624       pea.l 0x6a553c(pc)
       0x006a6f1a      4878001a       pea.l 0x1a
       0x006a6f1e      2f17           move.l (a7), -(a7)
    < 0x006a6f20      6096           bra.b 0x6a6eb8
     > 0x006a6f22      554f           subq.w 0x2, a7
         0x006a6f24      4227           clr.b -(a7)
         0x006a6f26      487900852976   pea.l 0x852976
         0x006a6f2c      48790085297a   pea.l 0x85297a
         0x006a6f32      4eb900632858   jsr CACHECOM.new_cache_rec
         0x006a6f38      dec7           adda.w d7, a7
         0x006a6f3a      4a1f           tst.b (a7)+
         0x006a6f3c      554f           subq.w 0x2, a7
         0x006a6f3e      2f2e0012       move.l 0x12(a6), -(a7)
         0x006a6f42      2f2e000e       move.l 0xe(a6), -(a7)
         0x006a6f46      3f2e000c       move.w 0xc(a6), -(a7)
         0x006a6f4a      2f2e0008       move.l 0x8(a6), -(a7)
         0x006a6f4e      4ebafd56       jsr TEXTMAV.read_menu_font(pc)
         0x006a6f52      dec6           adda.w d6, a7
         0x006a6f54      4a1f           tst.b (a7)+
     < 0x006a6f56      671e           beq.b 0x6a6f76
        0x006a6f58      48780001       pea.l 0x1
        0x006a6f5c      2f390085297e   move.l 0x85297e, -(a7)
        0x006a6f62      2f390085297a   move.l 0x85297a, -(a7)
        0x006a6f68      2f39008541d4   move.l 0x8541d4, -(a7)
        0x006a6f6e      2f39008541d8   move.l 0x8541d8, -(a7)
    < 0x006a6f74      601e           bra.b 0x6a6f94
    > 0x006a6f76      48780001       pea.l 0x1
        0x006a6f7a      2f390085297e   move.l 0x85297e, -(a7)
        0x006a6f80      2f390085297a   move.l 0x85297a, -(a7)
        0x006a6f86      594f           subq.w 0x4, a7
        0x006a6f88      4e93           jsr (a3)                    ; fcn.0000000c
        0x006a6f8a      594f           subq.w 0x4, a7
        0x006a6f8c      4e93           jsr (a3)                    ; fcn.0000000c
        0x006a6f8e      069700000800   addi.l 0x800, (a7)
    > 0x006a6f94      1f02           move.b d2, -(a7)
    > 0x006a6f96      4ebaf8ba       jsr TEXTMAV.reload_font(pc)
          0x006a6f9a      defc0016       adda.w 0x16, a7
     > 0x006a6f9e      4cdf1fff       movem.l (a7)+, d0-d7/a0-a4
           0x006a6fa2      4e5e           unlk a6
           0x006a6fa4      4e75           rts
            ; CALL XREF from AFS1_UTIL.afs1_volume_up @ 0x5c7af8
            ; CALL XREF from K94_DESCRIPTION.k94_desc_check @ 0x65e2b4
 70: TEXTMAV.displayable ();
           0x006a6fa6      4e56ffee       link.w a6, 0xffee
           0x006a6faa      bfd5           cmpa.l (a5), a7
       < 0x006a6fac      6206           bhi.b 0x6a6fb4
          0x006a6fae      44fc0002       move.w 0x2, ccr
          0x006a6fb2      4e76           trapv
       > 0x006a6fb4      defc0012       adda.w 0x12, a7
           0x006a6fb8      48e7c080       movem.l d0-d1/a0, -(a7)
           0x006a6fbc      422e000a       clr.b 0xa(a6)
           0x006a6fc0      4280           clr.l d0
           0x006a6fc2      102e0008       move.b 0x8(a6), d0
           0x006a6fc6      720c           moveq 0xc, d1
           0x006a6fc8      c3c0           muls.w d0, d1
           0x006a6fca      41f900851d42   lea.l 0x851d42, a0
           0x006a6fd0      3230101a       move.w 0x1a(a0, d1.w), d1
           0x006a6fd4      0c41ffff       cmpi.w 0xffff, d1
       < 0x006a6fd8      6606           bne.b 0x6a6fe0
          0x006a6fda      0c000020       cmpi.b 0x20, d0
      < 0x006a6fde      6604           bne.b 0x6a6fe4
      > 0x006a6fe0      522e000a       addq.b 0x1, 0xa(a6)
      > 0x006a6fe4      4cdf0103       movem.l (a7)+, d0-d1/a0
           0x006a6fe8      4e5e           unlk a6
           0x006a6fea      4e75           rts
            ; CALL XREFS from TEXTMAV.save_menu_font @ 0x6a72a4, 0x6a72e6
 294: TEXTMAV.save_font ();
           0x006a6fec      4e56fedc       link.w a6, 0xfedc
           0x006a6ff0      bfd5           cmpa.l (a5), a7
       < 0x006a6ff2      6206           bhi.b 0x6a6ffa
          0x006a6ff4      44fc0002       move.w 0x2, ccr
          0x006a6ff8      4e76           trapv
       > 0x006a6ffa      defc0124       adda.w 0x124, a7
           0x006a6ffe      48e7f0f0       movem.l d0-d3/a0-a3, -(a7)
           0x006a7002      45ec0106       lea.l 0x106(a4), a2
           0x006a7006      47f9008541d4   lea.l 0x8541d4, a3
           0x006a700c      323c0100       move.w 0x100, d1
           0x006a7010      7401           moveq 0x1, d2
           0x006a7012      7610           moveq 0x10, d3
           0x006a7014      422e0016       clr.b 0x16(a6)
           0x006a7018      2482           move.l d2, (a2)
           0x006a701a      554f           subq.w 0x2, a7
           0x006a701c      2f2e0012       move.l 0x12(a6), -(a7)
           0x006a7020      2f2e000e       move.l 0xe(a6), -(a7)
           0x006a7024      3f2e000c       move.w 0xc(a6), -(a7)
           0x006a7028      1f02           move.b d2, -(a7)
           0x006a702a      4852           pea.l (a2)
           0x006a702c      4eb90060477a   jsr F9_FILERDWRT.f_op_block
           0x006a7032      dec3           adda.w d3, a7
           0x006a7034      4a1f           tst.b (a7)+
       < 0x006a7036      670000b2       beq.w 0x6a70ea
          0x006a703a      2979008541d8.  move.l 0x8541d8, 0x10a(a4)
          0x006a7042      4aae0008       tst.l 0x8(a6)
      < 0x006a7046      672e           beq.b 0x6a7076
         0x006a7048      554f           subq.w 0x2, a7
         0x006a704a      2f12           move.l (a2), -(a7)
         0x006a704c      2f2e0008       move.l 0x8(a6), -(a7)
         0x006a7050      4eb900604c60   jsr F9_FILERDWRT.f_seek_to_block
         0x006a7056      504f           addq.w 0x8, a7
         0x006a7058      4a1f           tst.b (a7)+
     < 0x006a705a      661a           bne.b 0x6a7076
        0x006a705c      9ec1           suba.w d1, a7
        0x006a705e      204f           movea.l a7, a0
        0x006a7060      43fae4f4       lea.l 0x6a5556(pc), a1
        0x006a7064      7009           moveq 0x9, d0
    > 0x006a7066      20d9           move.l (a1)+, (a0)+
    < 0x006a7068      51c8fffc       dbra d0, 0x6a7066
        0x006a706c      30d9           move.w (a1)+, (a0)+
        0x006a706e      10d9           move.b (a1)+, (a0)+
        0x006a7070      4ebae906       jsr TEXTMAV.f_error(pc)
        0x006a7074      dec1           adda.w d1, a7
     > 0x006a7076      554f           subq.w 0x2, a7
          0x006a7078      2f12           move.l (a2), -(a7)
          0x006a707a      48780002       pea.l 0x2
          0x006a707e      2f13           move.l (a3), -(a7)
          0x006a7080      2f3c00020000   move.l 0x20000, -(a7)
          0x006a7086      4eb9006049ac   jsr F9_FILERDWRT.f_write_blocks
          0x006a708c      dec3           adda.w d3, a7
          0x006a708e      4a1f           tst.b (a7)+
      < 0x006a7090      6746           beq.b 0x6a70d8
         0x006a7092      554f           subq.w 0x2, a7
         0x006a7094      2f12           move.l (a2), -(a7)
         0x006a7096      2053           movea.l (a3), a0
         0x006a7098      2f280700       move.l 0x700(a0), -(a7)
         0x006a709c      0697000003ff   addi.l 0x3ff, (a7)
         0x006a70a2      2017           move.l (a7), d0
         0x006a70a4      e088           lsr.l 0x8, d0
         0x006a70a6      e488           lsr.l 0x2, d0
         0x006a70a8      2e80           move.l d0, (a7)
         0x006a70aa      2f2c010a       move.l 0x10a(a4), -(a7)
         0x006a70ae      2f3c00020000   move.l 0x20000, -(a7)
         0x006a70b4      4eb9006049ac   jsr F9_FILERDWRT.f_write_blocks
         0x006a70ba      dec3           adda.w d3, a7
         0x006a70bc      4a1f           tst.b (a7)+
     < 0x006a70be      6706           beq.b 0x6a70c6
        0x006a70c0      1d420016       move.b d2, 0x16(a6)
    < 0x006a70c4      603a           bra.b 0x6a7100
    > 0x006a70c6      9ec1           suba.w d1, a7
        0x006a70c8      204f           movea.l a7, a0
        0x006a70ca      43fae4b5       lea.l 0x6a5581(pc), a1
        0x006a70ce      701d           moveq 0x1d, d0
    > 0x006a70d0      10d9           move.b (a1)+, (a0)+
    < 0x006a70d2      51c8fffc       dbra d0, 0x6a70d0
    < 0x006a70d6      6022           bra.b 0x6a70fa
    > 0x006a70d8      9ec1           suba.w d1, a7
        0x006a70da      204f           movea.l a7, a0
        0x006a70dc      43fae4c1       lea.l 0x6a559f(pc), a1
        0x006a70e0      7024           moveq 0x24, d0
    > 0x006a70e2      10d9           move.b (a1)+, (a0)+
    < 0x006a70e4      51c8fffc       dbra d0, 0x6a70e2
    < 0x006a70e8      6010           bra.b 0x6a70fa
    > 0x006a70ea      9ec1           suba.w d1, a7
        0x006a70ec      204f           movea.l a7, a0
        0x006a70ee      43fae4d4       lea.l 0x6a55c4(pc), a1
        0x006a70f2      7008           moveq 0x8, d0
    > 0x006a70f4      20d9           move.l (a1)+, (a0)+
    < 0x006a70f6      51c8fffc       dbra d0, 0x6a70f4
    > 0x006a70fa      4ebae87c       jsr TEXTMAV.f_error(pc)
          0x006a70fe      dec1           adda.w d1, a7
    > 0x006a7100      4852           pea.l (a2)
           0x006a7102      4eb90060470a   jsr F9_FILERDWRT.f_close
           0x006a7108      584f           addq.w 0x4, a7
           0x006a710a      4cdf0f0f       movem.l (a7)+, d0-d3/a0-a3
           0x006a710e      4e5e           unlk a6
           0x006a7110      4e75           rts
            ; CALL XREF from TEXTMAV.cmd_save_menufo @ 0x6a7dbc
            ; CALL XREFS from MENUTYPECOM.make_menu_font @ 0x76776a, 0x7677cc
 554: TEXTMAV.save_menu_font (int32_t arg_700h);
           ; var int32_t var_1c1eh @ a6-0x1c1e
           ; var int32_t var_1c1ch @ a6-0x1c1c
           ; var int32_t var_1c1ah @ a6-0x1c1a
           ; arg int32_t arg_700h @ a6+0x700
           0x006a7112      4e56fda8       link.w a6, 0xfda8
           0x006a7116      bfd5           cmpa.l (a5), a7
       < 0x006a7118      6206           bhi.b 0x6a7120
          0x006a711a      44fc0002       move.w 0x2, ccr
          0x006a711e      4e76           trapv
       > 0x006a7120      defc013c       adda.w 0x13c, a7
           0x006a7124      48e7fff8       movem.l d0-d7/a0-a4, -(a7)
           0x006a7128      45f9008541ca   lea.l 0x8541ca, a2
           0x006a712e      47f9008541d0   lea.l 0x8541d0, a3
           0x006a7134      323c0100       move.w 0x100, d1
           0x006a7138      7414           moveq 0x14, d2
           0x006a713a      7612           moveq 0x12, d3
           0x006a713c      7801           moveq 0x1, d4
           0x006a713e      7a0a           moveq 0xa, d5
           0x006a7140      7c0e           moveq 0xe, d6
           0x006a7142      422e0016       clr.b 0x16(a6)
           0x006a7146      554f           subq.w 0x2, a7
           0x006a7148      2f2e0012       move.l 0x12(a6), -(a7)
           0x006a714c      2f2e000e       move.l 0xe(a6), -(a7)
           0x006a7150      3f2e000c       move.w 0xc(a6), -(a7)
           0x006a7154      2f3adb76       move.l 0x6a4ccc(pc), -(a7)
           0x006a7158      2f3adb6e       move.l 0x6a4cc8(pc), -(a7)
           0x006a715c      3f3adb68       move.w 0x6a4cc6(pc), -(a7)
           0x006a7160      4eb9005ef3d2   jsr F2_UTILITY.f_fids_eq
           0x006a7166      dec2           adda.w d2, a7
           0x006a7168      4a1f           tst.b (a7)+
       < 0x006a716a      67000164       beq.w 0x6a72d0
          0x006a716e      554f           subq.w 0x2, a7
          0x006a7170      2f13           move.l (a3), -(a7)
          0x006a7172      2f39008541cc   move.l 0x8541cc, -(a7)
          0x006a7178      3f12           move.w (a2), -(a7)
          0x006a717a      2f3adb50       move.l 0x6a4ccc(pc), -(a7)
          0x006a717e      2f3adb48       move.l 0x6a4cc8(pc), -(a7)
          0x006a7182      3f3adb42       move.w 0x6a4cc6(pc), -(a7)
          0x006a7186      4eb9005ef3d2   jsr F2_UTILITY.f_fids_eq
          0x006a718c      dec2           adda.w d2, a7
          0x006a718e      4a1f           tst.b (a7)+
      < 0x006a7190      662e           bne.b 0x6a71c0
         0x006a7192      554f           subq.w 0x2, a7
         0x006a7194      2f13           move.l (a3), -(a7)
         0x006a7196      2f39008541cc   move.l 0x8541cc, -(a7)
         0x006a719c      3f12           move.w (a2), -(a7)
         0x006a719e      4eb900613864   jsr F18_DIRECTORY.f_file_delete
         0x006a71a4      dec5           adda.w d5, a7
         0x006a71a6      4a1f           tst.b (a7)+
     < 0x006a71a8      6616           bne.b 0x6a71c0
        0x006a71aa      9ec1           suba.w d1, a7
        0x006a71ac      204f           movea.l a7, a0
        0x006a71ae      43fae438       lea.l 0x6a55e8(pc), a1
        0x006a71b2      7009           moveq 0x9, d0
    > 0x006a71b4      20d9           move.l (a1)+, (a0)+
    < 0x006a71b6      51c8fffc       dbra d0, 0x6a71b4
        0x006a71ba      4ebae7bc       jsr TEXTMAV.f_error(pc)
        0x006a71be      dec1           adda.w d1, a7
     > 0x006a71c0      7e00           moveq 0x0, d7
          0x006a71c2      24badb02       move.l 0x6a4cc6(pc), (a2)
          0x006a71c6      23fadb020085.  move.l 0x6a4cca(pc), 0x8541ce.l
          0x006a71ce      33fadafe0085.  move.w 0x6a4cce(pc), 0x8541d2.l
          0x006a71d6      2d7cffff0001.  move.l 0xffff0001, -0x11a(a6)
          0x006a71de      2079008541d4   movea.l 0x8541d4, a0
          0x006a71e4      2d680700fff2   move.l 0x700(a0), -0xe(a6)
          0x006a71ea      06ae000003ff.  addi.l 0x3ff, -0xe(a6)
          0x006a71f2      202efff2       move.l -0xe(a6), d0
          0x006a71f6      e088           lsr.l 0x8, d0
          0x006a71f8      e488           lsr.l 0x2, d0
          0x006a71fa      5480           addq.l 0x2, d0
          0x006a71fc      2d40fff2       move.l d0, -0xe(a6)
          0x006a7200      5d4f           subq.w 0x6, a7
          0x006a7202      48780000       pea.l 0x0
          0x006a7206      4eb90062788a   jsr PICTURENET.sysvol_wait
          0x006a720c      544f           addq.w 0x2, a7
          0x006a720e      3ebc0bc2       move.w 0xbc2, (a7)
          0x006a7212      4480           neg.l d0
          0x006a7214      2f00           move.l d0, -(a7)
          0x006a7216      4852           pea.l (a2)
          0x006a7218      486efee6       pea.l -0x11a(a6)
          0x006a721c      4eb900607936   jsr F10_FILELIST.f_create
          0x006a7222      dec3           adda.w d3, a7
          0x006a7224      4a1f           tst.b (a7)+
      < 0x006a7226      6742           beq.b 0x6a726a
         0x006a7228      2d7ae3e6feea   move.l 0x6a5610(pc), -0x116(a6)
         0x006a722e      2d7ae3e4feee   move.l 0x6a5614(pc), -0x112(a6)
         0x006a7234      3d7ae3e2fef2   move.w 0x6a5618(pc), -0x10e(a6)
         0x006a723a      554f           subq.w 0x2, a7
         0x006a723c      3f02           move.w d2, -(a7)
         0x006a723e      2f2efee6       move.l -0x11a(a6), -(a7)
         0x006a7242      486efeea       pea.l -0x116(a6)
         0x006a7246      4eb9005eedf6   jsr f_put_string
         0x006a724c      dec5           adda.w d5, a7
         0x006a724e      4a1f           tst.b (a7)+
     < 0x006a7250      6614           bne.b 0x6a7266
        0x006a7252      9ec1           suba.w d1, a7
        0x006a7254      204f           movea.l a7, a0
        0x006a7256      43fae3c2       lea.l 0x6a561a(pc), a1
        0x006a725a      7006           moveq 0x6, d0
    > 0x006a725c      20d9           move.l (a1)+, (a0)+
    < 0x006a725e      51c8fffc       dbra d0, 0x6a725c
        0x006a7262      10d9           move.b (a1)+, (a0)+
    < 0x006a7264      6014           bra.b 0x6a727a
    > 0x006a7266      7e01           moveq 0x1, d7
    < 0x006a7268      6016           bra.b 0x6a7280
    > 0x006a726a      9ec1           suba.w d1, a7
        0x006a726c      204f           movea.l a7, a0
        0x006a726e      43fae3c7       lea.l 0x6a5637(pc), a1
        0x006a7272      7017           moveq 0x17, d0
    > 0x006a7274      10d9           move.b (a1)+, (a0)+
    < 0x006a7276      51c8fffc       dbra d0, 0x6a7274
    > 0x006a727a      4ebae6fc       jsr TEXTMAV.f_error(pc)
         0x006a727e      dec1           adda.w d1, a7
     > 0x006a7280      486efee6       pea.l -0x11a(a6)
          0x006a7284      4eb90060500e   jsr F9_FILERDWRT.f_free_block
          0x006a728a      584f           addq.w 0x4, a7
          0x006a728c      4a07           tst.b d7
      < 0x006a728e      6724           beq.b 0x6a72b4
         0x006a7290      554f           subq.w 0x2, a7
         0x006a7292      2f13           move.l (a3), -(a7)
         0x006a7294      2f39008541cc   move.l 0x8541cc, -(a7)
         0x006a729a      3f12           move.w (a2), -(a7)
         0x006a729c      48780000       pea.l 0x0
         0x006a72a0      49eefee4       lea.l -0x11c(a6), a4
         0x006a72a4      4ebafd46       jsr TEXTMAV.save_font(pc)
         0x006a72a8      dec6           adda.w d6, a7
         0x006a72aa      101f           move.b (a7)+, d0
         0x006a72ac      4880           ext.w d0
         0x006a72ae      4184           chk.w d4, d0
         0x006a72b0      1d400016       move.b d0, 0x16(a6)
      > 0x006a72b4      48780000       pea.l 0x0
          0x006a72b8      2f3ada12       move.l 0x6a4ccc(pc), -(a7)
          0x006a72bc      2f3ada0a       move.l 0x6a4cc8(pc), -(a7)
          0x006a72c0      3f3ada04       move.w 0x6a4cc6(pc), -(a7)
          0x006a72c4      48780000       pea.l 0x0
          0x006a72c8      4ebafaaa       jsr TEXTMAV.load_font(pc)
          0x006a72cc      dec3           adda.w d3, a7
      < 0x006a72ce      6064           bra.b 0x6a7334
      > 0x006a72d0      554f           subq.w 0x2, a7
          0x006a72d2      2f2e0012       move.l 0x12(a6), -(a7)
          0x006a72d6      2f2e000e       move.l 0xe(a6), -(a7)
          0x006a72da      3f2e000c       move.w 0xc(a6), -(a7)
          0x006a72de      2f2e0008       move.l 0x8(a6), -(a7)
          0x006a72e2      49eefee4       lea.l -0x11c(a6), a4
          0x006a72e6      4ebafd04       jsr TEXTMAV.save_font(pc)
          0x006a72ea      dec6           adda.w d6, a7
          0x006a72ec      101f           move.b (a7)+, d0
          0x006a72ee      4880           ext.w d0
          0x006a72f0      4184           chk.w d4, d0
          0x006a72f2      1e00           move.b d0, d7
      < 0x006a72f4      671c           beq.b 0x6a7312
         0x006a72f6      48780001       pea.l 0x1
         0x006a72fa      2f2e0012       move.l 0x12(a6), -(a7)
         0x006a72fe      2f2e000e       move.l 0xe(a6), -(a7)
         0x006a7302      3f2e000c       move.w 0xc(a6), -(a7)
         0x006a7306      2f2e0008       move.l 0x8(a6), -(a7)
         0x006a730a      4ebafa68       jsr TEXTMAV.load_font(pc)
         0x006a730e      dec3           adda.w d3, a7
     < 0x006a7310      601a           bra.b 0x6a732c
     > 0x006a7312      487ae33c       pea.l 0x6a5650(pc)
         0x006a7316      48780020       pea.l 0x20
         0x006a731a      2f17           move.l (a7), -(a7)
         0x006a731c      4eb9004047ea   jsr p_wts_o
         0x006a7322      defc000c       adda.w 0xc, a7
         0x006a7326      4eb900404946   jsr p_wtln_o
     > 0x006a732c      4887           ext.w d7
          0x006a732e      4f84           chk.w d4, d7
          0x006a7330      1d470016       move.b d7, 0x16(a6)
      > 0x006a7334      4cdf1fff       movem.l (a7)+, d0-d7/a0-a4
           0x006a7338      4e5e           unlk a6
           0x006a733a      4e75           rts
            ; CALL XREF from MENUTYPECOM.lose_keypad_men @ 0x767882
 430: TEXTMAV.lose_menu_font ();
           0x006a733c      4e56fec6       link.w a6, 0xfec6
           0x006a7340      bfd5           cmpa.l (a5), a7
       < 0x006a7342      6206           bhi.b 0x6a734a
          0x006a7344      44fc0002       move.w 0x2, ccr
          0x006a7348      4e76           trapv
       > 0x006a734a      defc0130       adda.w 0x130, a7
           0x006a734e      48e7f9f8       movem.l d0-d4/d7/a0-a4, -(a7)
           0x006a7352      45eefff6       lea.l -0xa(a6), a2
           0x006a7356      47f9008541d4   lea.l 0x8541d4, a3
           0x006a735c      49ee0008       lea.l 0x8(a6), a4
           0x006a7360      323c0100       move.w 0x100, d1
           0x006a7364      7414           moveq 0x14, d2
           0x006a7366      7601           moveq 0x1, d3
           0x006a7368      7810           moveq 0x10, d4
           0x006a736a      7e00           moveq 0x0, d7
           0x006a736c      554f           subq.w 0x2, a7
           0x006a736e      2f2e0012       move.l 0x12(a6), -(a7)
           0x006a7372      2f2e000e       move.l 0xe(a6), -(a7)
           0x006a7376      3f2e000c       move.w 0xc(a6), -(a7)
           0x006a737a      2f3ad950       move.l 0x6a4ccc(pc), -(a7)
           0x006a737e      2f3ad948       move.l 0x6a4cc8(pc), -(a7)
           0x006a7382      3f3ad942       move.w 0x6a4cc6(pc), -(a7)
           0x006a7386      4eb9005ef3d2   jsr F2_UTILITY.f_fids_eq
           0x006a738c      dec2           adda.w d2, a7
           0x006a738e      4a1f           tst.b (a7)+
       < 0x006a7390      66000112       bne.w 0x6a74a4
          0x006a7394      4a94           tst.l (a4)
      < 0x006a7396      6700010c       beq.w 0x6a74a4
         0x006a739a      2483           move.l d3, (a2)
         0x006a739c      554f           subq.w 0x2, a7
         0x006a739e      2f2e0012       move.l 0x12(a6), -(a7)
         0x006a73a2      2f2e000e       move.l 0xe(a6), -(a7)
         0x006a73a6      3f2e000c       move.w 0xc(a6), -(a7)
         0x006a73aa      1f03           move.b d3, -(a7)
         0x006a73ac      4852           pea.l (a2)
         0x006a73ae      4eb90060477a   jsr F9_FILERDWRT.f_op_block
         0x006a73b4      dec4           adda.w d4, a7
         0x006a73b6      4a1f           tst.b (a7)+
     < 0x006a73b8      670000d2       beq.w 0x6a748c
        0x006a73bc      2d7c00000002.  move.l 0x2, -0x6(a6)
        0x006a73c4      554f           subq.w 0x2, a7
        0x006a73c6      2f12           move.l (a2), -(a7)
        0x006a73c8      2f14           move.l (a4), -(a7)
        0x006a73ca      4eb900604c60   jsr F9_FILERDWRT.f_seek_to_block
        0x006a73d0      504f           addq.w 0x8, a7
        0x006a73d2      4a1f           tst.b (a7)+
    < 0x006a73d4      67000094       beq.w 0x6a746a
       0x006a73d8      554f           subq.w 0x2, a7
       0x006a73da      2f12           move.l (a2), -(a7)
       0x006a73dc      48780002       pea.l 0x2
       0x006a73e0      2f13           move.l (a3), -(a7)
       0x006a73e2      2f3c00020000   move.l 0x20000, -(a7)
       0x006a73e8      486efffa       pea.l -0x6(a6)
       0x006a73ec      4eb900604854   jsr F9_FILERDWRT.f_read_blocks
       0x006a73f2      dec2           adda.w d2, a7
       0x006a73f4      4a1f           tst.b (a7)+
   < 0x006a73f6      6760           beq.b 0x6a7458
      0x006a73f8      2053           movea.l (a3), a0
      0x006a73fa      42a80700       clr.l 0x700(a0)
      0x006a73fe      554f           subq.w 0x2, a7
      0x006a7400      2f12           move.l (a2), -(a7)
      0x006a7402      2f14           move.l (a4), -(a7)
      0x006a7404      4eb900604c60   jsr F9_FILERDWRT.f_seek_to_block
      0x006a740a      504f           addq.w 0x8, a7
      0x006a740c      4a1f           tst.b (a7)+
  < 0x006a740e      6616           bne.b 0x6a7426
     0x006a7410      9ec1           suba.w d1, a7
     0x006a7412      204f           movea.l a7, a0
     0x006a7414      43fae25a       lea.l 0x6a5670(pc), a1
     0x006a7418      7009           moveq 0x9, d0
 > 0x006a741a      20d9           move.l (a1)+, (a0)+
 < 0x006a741c      51c8fffc       dbra d0, 0x6a741a
     0x006a7420      30d9           move.w (a1)+, (a0)+
     0x006a7422      10d9           move.b (a1)+, (a0)+
 < 0x006a7424      6054           bra.b 0x6a747a
 > 0x006a7426      554f           subq.w 0x2, a7
     0x006a7428      2f12           move.l (a2), -(a7)
     0x006a742a      48780002       pea.l 0x2
     0x006a742e      2f13           move.l (a3), -(a7)
     0x006a7430      2f3c00020000   move.l 0x20000, -(a7)
     0x006a7436      4eb9006049ac   jsr F9_FILERDWRT.f_write_blocks
     0x006a743c      dec4           adda.w d4, a7
     0x006a743e      4a1f           tst.b (a7)+
 < 0x006a7440      6704           beq.b 0x6a7446
    0x006a7442      7e01           moveq 0x1, d7
 < 0x006a7444      603a           bra.b 0x6a7480
 > 0x006a7446      9ec1           suba.w d1, a7
     0x006a7448      204f           movea.l a7, a0
     0x006a744a      43fae24f       lea.l 0x6a569b(pc), a1
     0x006a744e      701c           moveq 0x1c, d0
 > 0x006a7450      10d9           move.b (a1)+, (a0)+
 < 0x006a7452      51c8fffc       dbra d0, 0x6a7450
 < 0x006a7456      6022           bra.b 0x6a747a
 > 0x006a7458      9ec1           suba.w d1, a7
     0x006a745a      204f           movea.l a7, a0
     0x006a745c      43fae25a       lea.l 0x6a56b8(pc), a1
     0x006a7460      700a           moveq 0xa, d0
 > 0x006a7462      20d9           move.l (a1)+, (a0)+
 < 0x006a7464      51c8fffc       dbra d0, 0x6a7462
 < 0x006a7468      6010           bra.b 0x6a747a
 > 0x006a746a      9ec1           suba.w d1, a7
     0x006a746c      204f           movea.l a7, a0
     0x006a746e      43fae274       lea.l 0x6a56e4(pc), a1
     0x006a7472      700a           moveq 0xa, d0
 > 0x006a7474      20d9           move.l (a1)+, (a0)+
 < 0x006a7476      51c8fffc       dbra d0, 0x6a7474
 > 0x006a747a      4ebae4fc       jsr TEXTMAV.f_error(pc)
        0x006a747e      dec1           adda.w d1, a7
 > 0x006a7480      4852           pea.l (a2)
        0x006a7482      4eb90060470a   jsr F9_FILERDWRT.f_close
        0x006a7488      584f           addq.w 0x4, a7
    < 0x006a748a      6018           bra.b 0x6a74a4
    > 0x006a748c      9ec1           suba.w d1, a7
        0x006a748e      204f           movea.l a7, a0
        0x006a7490      43fae27e       lea.l 0x6a5710(pc), a1
        0x006a7494      7006           moveq 0x6, d0
    > 0x006a7496      20d9           move.l (a1)+, (a0)+
    < 0x006a7498      51c8fffc       dbra d0, 0x6a7496
        0x006a749c      10d9           move.b (a1)+, (a0)+
        0x006a749e      4ebae4d8       jsr TEXTMAV.f_error(pc)
        0x006a74a2      dec1           adda.w d1, a7
    > 0x006a74a4      4a07           tst.b d7
       < 0x006a74a6      671c           beq.b 0x6a74c4
          0x006a74a8      48780001       pea.l 0x1
          0x006a74ac      2f2e0012       move.l 0x12(a6), -(a7)
          0x006a74b0      2f2e000e       move.l 0xe(a6), -(a7)
          0x006a74b4      3f2e000c       move.w 0xc(a6), -(a7)
          0x006a74b8      2f14           move.l (a4), -(a7)
          0x006a74ba      4ebaf8b8       jsr TEXTMAV.load_font(pc)
          0x006a74be      defc0012       adda.w 0x12, a7
      < 0x006a74c2      601a           bra.b 0x6a74de
      > 0x006a74c4      487ae268       pea.l 0x6a572e(pc)
          0x006a74c8      4878001c       pea.l 0x1c
          0x006a74cc      2f17           move.l (a7), -(a7)
          0x006a74ce      4eb9004047ea   jsr p_wts_o
          0x006a74d4      defc000c       adda.w 0xc, a7
          0x006a74d8      4eb900404946   jsr p_wtln_o
      > 0x006a74de      1d470016       move.b d7, 0x16(a6)
           0x006a74e2      4cdf1f9f       movem.l (a7)+, d0-d4/d7/a0-a4
           0x006a74e6      4e5e           unlk a6
           0x006a74e8      4e75           rts
            ; CALL XREF from TEXTMAV.menufont_init @ 0x6a8864
            ; CALL XREF from MENUTYPECOM.make_menu_font @ 0x7674c6
 190: TEXTMAV.init_fontdata ();
           0x006a74ea      4e56ffd2       link.w a6, 0xffd2
           0x006a74ee      bfd5           cmpa.l (a5), a7
       < 0x006a74f0      6206           bhi.b 0x6a74f8
          0x006a74f2      44fc0002       move.w 0x2, ccr
          0x006a74f6      4e76           trapv
       > 0x006a74f8      defc002c       adda.w 0x2c, a7
           0x006a74fc      48e7c1f0       movem.l d0-d1/d7/a0-a3, -(a7)
           0x006a7500      45f9008541d4   lea.l 0x8541d4, a2
           0x006a7506      47f9008541d8   lea.l 0x8541d8, a3
           0x006a750c      7201           moveq 0x1, d1
           0x006a750e      2052           movea.l (a2), a0
           0x006a7510      b0c1           cmpa.w d1, a0
       < 0x006a7512      660e           bne.b 0x6a7522
          0x006a7514      4852           pea.l (a2)
          0x006a7516      48780800       pea.l 0x800
          0x006a751a      4eb900403a92   jsr p_New
          0x006a7520      504f           addq.w 0x8, a7
       > 0x006a7522      2052           movea.l (a2), a0
           0x006a7524      7e00           moveq 0x0, d7
       > 0x006a7526      4fbc00ff       chk.w 0xff, d7
          0x006a752a      48c7           ext.l d7
          0x006a752c      2007           move.l d7, d0
          0x006a752e      e580           asl.l 0x2, d0
          0x006a7530      43f00800       lea.l (a0, d0.l), a1
          0x006a7534      42a90300       clr.l 0x300(a1)
          0x006a7538      43f07800       lea.l (a0, d7.l), a1
          0x006a753c      137c000f0100   move.b 0xf, 0x100(a1)
          0x006a7542      1281           move.b d1, (a1)
          0x006a7544      5247           addq.w 0x1, d7
          0x006a7546      0c4700ff       cmpi.w 0xff, d7
       < 0x006a754a      6fda           ble.b 0x6a7526
           0x006a754c      2052           movea.l (a2), a0
           0x006a754e      217c00000020.  move.l 0x20, 0x700(a0)
           0x006a7556      2253           movea.l (a3), a1
           0x006a7558      b2c1           cmpa.w d1, a1
       < 0x006a755a      6610           bne.b 0x6a756c
          0x006a755c      4853           pea.l (a3)
          0x006a755e      2f3c000249f1   move.l 0x249f1, -(a7)
          0x006a7564      4eb900403a92   jsr p_New
          0x006a756a      504f           addq.w 0x8, a7
       > 0x006a756c      2f280700       move.l 0x700(a0), -(a7)
           0x006a7570      5397           subq.l 0x1, (a7)
           0x006a7572      7e00           moveq 0x0, d7
           0x006a7574      be97           cmp.l (a7), d7
       < 0x006a7576      6e0c           bgt.b 0x6a7584
          0x006a7578      2017           move.l (a7), d0
          0x006a757a      0c8000007fff   cmpi.l 0x7fff, d0
      < 0x006a7580      6f02           ble.b 0x6a7584
         0x006a7582      4e4f           trap 0xf
     > 0x006a7584      be6f0002       cmp.w 0x2(a7), d7
      < 0x006a7588      6e14           bgt.b 0x6a759e
         0x006a758a      3007           move.w d7, d0
         0x006a758c      0c4049f0       cmpi.w 0x49f0, d0
     < 0x006a7590      6302           bls.b 0x6a7594
        0x006a7592      4e4f           trap 0xf
     > 0x006a7594      2053           movea.l (a3), a0
         0x006a7596      42300000       clr.b (a0, d0.w)
         0x006a759a      5247           addq.w 0x1, d7
     < 0x006a759c      68e6           bvc.b 0x6a7584
       > 0x006a759e      584f           addq.w 0x4, a7
           0x006a75a0      4cdf0f83       movem.l (a7)+, d0-d1/d7/a0-a3
           0x006a75a4      4e5e           unlk a6
           0x006a75a6      4e75           rts
            ; CALL XREF from TEXTMAV.add_menu_font @ 0x6a7a94
            ; CALL XREF from TEXTMAV.cmd_type_char @ 0x6a7d32
            ; CALL XREF from TEXTMAV.cmd_edit_char @ 0x6a81bc
            ; CALL XREF from TEXTMAV @ +0x370a
 618: TEXTMAV.type_char ();
           ; var int32_t var_8h @ a7+0x8
           ; var int32_t var_1dh @ a7+0x1d
           ; var int32_t var_1eh @ a7+0x1e
           ; var int32_t var_1fh @ a7+0x1f
           ; var int32_t var_23h @ a7+0x23
           ; var int32_t var_24h @ a7+0x24
           ; var int32_t var_25h @ a7+0x25
           ; var int32_t var_108h @ a7+0x108
           0x006a75a8      4e56fda8       link.w a6, 0xfda8
           0x006a75ac      bfd5           cmpa.l (a5), a7
       < 0x006a75ae      6206           bhi.b 0x6a75b6
          0x006a75b0      44fc0002       move.w 0x2, ccr
          0x006a75b4      4e76           trapv
       > 0x006a75b6      defc024c       adda.w 0x24c, a7
           0x006a75ba      48e7fff8       movem.l d0-d7/a0-a4, -(a7)
           0x006a75be      45f9004047ea   lea.l p_wts_o, a2
           0x006a75c4      47ee000c       lea.l 0xc(a6), a3
           0x006a75c8      49f80000       lea.l 0x0, a4
           0x006a75cc      740c           moveq 0xc, d2
           0x006a75ce      3013           move.w (a3), d0
           0x006a75d0      41bc0100       chk.w 0x100, d0
           0x006a75d4      c1c2           muls.w d2, d0
           0x006a75d6      222e0008       move.l 0x8(a6), d1
           0x006a75da      0c8100000002   cmpi.l 0x2, d1
       < 0x006a75e0      6302           bls.b 0x6a75e4
          0x006a75e2      4e4f           trap 0xf
       > 0x006a75e4      2801           move.l d1, d4
           0x006a75e6      263c00000c26   move.l 0xc26, d3
           0x006a75ec      4eb900406a74   jsr fcn.00406a74
           0x006a75f2      41f900851d42   lea.l 0x851d42, a0
           0x006a75f8      41f04800       lea.l (a0, d4.l), a0
           0x006a75fc      9efc0104       suba.w 0x104, a7
           0x006a7600      1eb0081c       move.b 0x1c(a0, d0.l), (a7)
           0x006a7604      1f70081d0001   move.b 0x1d(a0, d0.l), 0x1(a7)
           0x006a760a      1f70081e0002   move.b 0x1e(a0, d0.l), 0x2(a7)
           0x006a7610      1f70081f0003   move.b 0x1f(a0, d0.l), 0x3(a7)
           0x006a7616      4854           pea.l (a4)
           0x006a7618      4eb90044dd86   jsr SYSTEM_STRING.point_str
           0x006a761e      9efc00fc       suba.w 0xfc, a7
           0x006a7622      1eb00822       move.b 0x22(a0, d0.l), (a7)
           0x006a7626      1f7008230001   move.b 0x23(a0, d0.l), 0x1(a7)
           0x006a762c      1f7008240002   move.b 0x24(a0, d0.l), 0x2(a7)
           0x006a7632      1f7008250003   move.b 0x25(a0, d0.l), 0x3(a7)
           0x006a7638      4854           pea.l (a4)
           0x006a763a      4eb90044dd86   jsr SYSTEM_STRING.point_str
           0x006a7640      504f           addq.w 0x8, a7
           0x006a7642      487ae10f       pea.l 0x6a5753(pc)
           0x006a7646      4878000a       pea.l 0xa
           0x006a764a      2f17           move.l (a7), -(a7)
           0x006a764c      4e92           jsr (a2)                    ; fcn.00000009+0x2
           0x006a764e      dec2           adda.w d2, a7
           0x006a7650      3213           move.w (a3), d1
           0x006a7652      48c1           ext.l d1
           0x006a7654      2f01           move.l d1, -(a7)
           0x006a7656      4854           pea.l (a4)
           0x006a7658      4eb9004070e4   jsr p_wti_o
           0x006a765e      504f           addq.w 0x8, a7
           0x006a7660      487ae0fc       pea.l 0x6a575e(pc)
           0x006a7664      48780002       pea.l 0x2
           0x006a7668      2f17           move.l (a7), -(a7)
           0x006a766a      4e92           jsr (a2)                    ; fcn.00000009+0x2
           0x006a766c      dec2           adda.w d2, a7
           0x006a766e      3213           move.w (a3), d1
           0x006a7670      48c1           ext.l d1
           0x006a7672      2f01           move.l d1, -(a7)
           0x006a7674      4878ffff       pea.l 0xffff
           0x006a7678      4eb9004070e4   jsr p_wti_o
           0x006a767e      504f           addq.w 0x8, a7
           0x006a7680      487ae0df       pea.l 0x6a5761(pc)
           0x006a7684      4878000c       pea.l 0xc
           0x006a7688      2f17           move.l (a7), -(a7)
           0x006a768a      4e92           jsr (a2)                    ; fcn.00000009+0x2
           0x006a768c      dec2           adda.w d2, a7
           0x006a768e      3230081a       move.w 0x1a(a0, d0.l), d1
           0x006a7692      48c1           ext.l d1
           0x006a7694      2f01           move.l d1, -(a7)
           0x006a7696      4854           pea.l (a4)
           0x006a7698      4eb9004070e4   jsr p_wti_o
           0x006a769e      504f           addq.w 0x8, a7
           0x006a76a0      487ae0cc       pea.l 0x6a576e(pc)
           0x006a76a4      4878000a       pea.l 0xa
           0x006a76a8      2f17           move.l (a7), -(a7)
           0x006a76aa      4e92           jsr (a2)                    ; fcn.00000009+0x2
           0x006a76ac      dec2           adda.w d2, a7
           0x006a76ae      486f0101       pea.l 0x101(a7)
           0x006a76b2      42a7           clr.l -(a7)
           0x006a76b4      1f6f01080003   move.b 0x108(a7), 0x3(a7)
           0x006a76ba      2f17           move.l (a7), -(a7)
           0x006a76bc      4e92           jsr (a2)                    ; fcn.00000009+0x2
           0x006a76be      dec2           adda.w d2, a7
           0x006a76c0      487ae0b7       pea.l 0x6a5779(pc)
           0x006a76c4      4878000b       pea.l 0xb
           0x006a76c8      2f17           move.l (a7), -(a7)
           0x006a76ca      4e92           jsr (a2)                    ; fcn.00000009+0x2
           0x006a76cc      dec2           adda.w d2, a7
           0x006a76ce      32300820       move.w 0x20(a0, d0.l), d1
           0x006a76d2      48c1           ext.l d1
           0x006a76d4      2f01           move.l d1, -(a7)
           0x006a76d6      4854           pea.l (a4)
           0x006a76d8      4eb9004070e4   jsr p_wti_o
           0x006a76de      504f           addq.w 0x8, a7
           0x006a76e0      487ae0a3       pea.l 0x6a5785(pc)
           0x006a76e4      4878000c       pea.l 0xc
           0x006a76e8      2f17           move.l (a7), -(a7)
           0x006a76ea      4e92           jsr (a2)                    ; fcn.00000009+0x2
           0x006a76ec      dec2           adda.w d2, a7
           0x006a76ee      486f0001       pea.l 0x1(a7)
           0x006a76f2      42a7           clr.l -(a7)
           0x006a76f4      1f6f00080003   move.b 0x8(a7), 0x3(a7)
           0x006a76fa      2f17           move.l (a7), -(a7)
           0x006a76fc      4e92           jsr (a2)                    ; fcn.00000009+0x2
           0x006a76fe      defc020c       adda.w 0x20c, a7
           0x006a7702      4eb900404946   jsr p_wtln_o
           0x006a7708      3013           move.w (a3), d0
           0x006a770a      41bc00ff       chk.w 0xff, d0
           0x006a770e      48c0           ext.l d0
           0x006a7710      2200           move.l d0, d1
           0x006a7712      e581           asl.l 0x2, d1
           0x006a7714      2079008541d4   movea.l 0x8541d4, a0
           0x006a771a      43f01800       lea.l (a0, d1.l), a1
           0x006a771e      2e290300       move.l 0x300(a1), d7
           0x006a7722      12300800       move.b (a0, d0.l), d1
           0x006a7726      4881           ext.w d1
           0x006a7728      3f01           move.w d1, -(a7)
           0x006a772a      7a00           moveq 0x0, d5
       > 0x006a772c      ba57           cmp.w (a7), d5
      < 0x006a772e      6e0000d8       bgt.w 0x6a7808
         0x006a7732      2d47fffc       move.l d7, -0x4(a6)
         0x006a7736      3013           move.w (a3), d0
         0x006a7738      41bc00ff       chk.w 0xff, d0
         0x006a773c      2079008541d4   movea.l 0x8541d4, a0
         0x006a7742      41f00000       lea.l (a0, d0.w), a0
         0x006a7746      10280100       move.b 0x100(a0), d0
         0x006a774a      4880           ext.w d0
         0x006a774c      3f00           move.w d0, -(a7)
         0x006a774e      7c00           moveq 0x0, d6
     > 0x006a7750      bc57           cmp.w (a7), d6
    < 0x006a7752      6e36           bgt.b 0x6a778a
       0x006a7754      0c87000249f0   cmpi.l 0x249f0, d7
   < 0x006a775a      6302           bls.b 0x6a775e
      0x006a775c      4e4f           trap 0xf
   > 0x006a775e      2079008541d8   movea.l 0x8541d8, a0
       0x006a7764      10307800       move.b (a0, d7.l), d0
       0x006a7768      0280000000ff   andi.l 0xff, d0
       0x006a776e      ea40           asr.w 0x5, d0
       0x006a7770      41fadfd8       lea.l 0x6a574a(pc), a0
       0x006a7774      1f300000       move.b (a0, d0.w), -(a7)
       0x006a7778      48780001       pea.l 0x1
       0x006a777c      4eb9004048b4   jsr p_wtc_o
       0x006a7782      5c4f           addq.w 0x6, a7
       0x006a7784      5287           addq.l 0x1, d7
       0x006a7786      5246           addq.w 0x1, d6
    < 0x006a7788      68c6           bvc.b 0x6a7750
    > 0x006a778a      544f           addq.w 0x2, a7
         0x006a778c      487ae004       pea.l 0x6a5792(pc)
         0x006a7790      48780003       pea.l 0x3
         0x006a7794      2f17           move.l (a7), -(a7)
         0x006a7796      4e92           jsr (a2)                    ; fcn.00000009+0x2
         0x006a7798      dec2           adda.w d2, a7
         0x006a779a      2e2efffc       move.l -0x4(a6), d7
         0x006a779e      3013           move.w (a3), d0
         0x006a77a0      41bc00ff       chk.w 0xff, d0
         0x006a77a4      2079008541d4   movea.l 0x8541d4, a0
         0x006a77aa      41f00000       lea.l (a0, d0.w), a0
         0x006a77ae      10280100       move.b 0x100(a0), d0
         0x006a77b2      4880           ext.w d0
         0x006a77b4      3f00           move.w d0, -(a7)
         0x006a77b6      7c00           moveq 0x0, d6
     > 0x006a77b8      bc57           cmp.w (a7), d6
    < 0x006a77ba      6e3e           bgt.b 0x6a77fa
       0x006a77bc      0c87000249f0   cmpi.l 0x249f0, d7
   < 0x006a77c2      6302           bls.b 0x6a77c6
      0x006a77c4      4e4f           trap 0xf
   > 0x006a77c6      2079008541d8   movea.l 0x8541d8, a0
       0x006a77cc      10307800       move.b (a0, d7.l), d0
       0x006a77d0      0280000000ff   andi.l 0xff, d0
       0x006a77d6      2f00           move.l d0, -(a7)
       0x006a77d8      4878fffd       pea.l 0xfffd
       0x006a77dc      4eb9004070e4   jsr p_wti_o
       0x006a77e2      5c4f           addq.w 0x6, a7
       0x006a77e4      1ebc0020       move.b 0x20, (a7)
       0x006a77e8      48780001       pea.l 0x1
       0x006a77ec      4eb9004048b4   jsr p_wtc_o
       0x006a77f2      5c4f           addq.w 0x6, a7
       0x006a77f4      5287           addq.l 0x1, d7
       0x006a77f6      5246           addq.w 0x1, d6
    < 0x006a77f8      68be           bvc.b 0x6a77b8
    > 0x006a77fa      544f           addq.w 0x2, a7
         0x006a77fc      4eb900404946   jsr p_wtln_o
         0x006a7802      5245           addq.w 0x1, d5
      < 0x006a7804      6800ff26       bvc.w 0x6a772c
      > 0x006a7808      544f           addq.w 0x2, a7
           0x006a780a      4cdf1fff       movem.l (a7)+, d0-d7/a0-a4
           0x006a780e      4e5e           unlk a6
           0x006a7810      4e75           rts
            ; CALL XREF from TYPECOM.menu_font_add @ 0x76ef40
 656: TEXTMAV.add_menu_font (int32_t arg_ah);
           ; arg int32_t arg_ah @ a6+0xa
           0x006a7812      4e56efa2       link.w a6, 0xefa2
           0x006a7816      bfd5           cmpa.l (a5), a7
       < 0x006a7818      6206           bhi.b 0x6a7820
          0x006a781a      44fc0002       move.w 0x2, ccr
          0x006a781e      4e76           trapv
       > 0x006a7820      defc004e       adda.w 0x4e, a7
           0x006a7824      48e7fff8       movem.l d0-d7/a0-a4, -(a7)
           0x006a7828      47ee000e       lea.l 0xe(a6), a3
           0x006a782c      49ee0010       lea.l 0x10(a6), a4
           0x006a7830      2079008541d4   movea.l 0x8541d4, a0
           0x006a7836      3014           move.w (a4), d0
           0x006a7838      c1d3           muls.w (a3), d0
           0x006a783a      d0a80700       add.l 0x700(a0), d0
           0x006a783e      0c80000249f0   cmpi.l 0x249f0, d0
       < 0x006a7844      631e           bls.b 0x6a7864
          0x006a7846      487adf4e       pea.l 0x6a5796(pc)
          0x006a784a      4878000d       pea.l 0xd
          0x006a784e      2f17           move.l (a7), -(a7)
          0x006a7850      4eb9004047ea   jsr p_wts_o
          0x006a7856      defc000c       adda.w 0xc, a7
          0x006a785a      4eb900404946   jsr p_wtln_o
      < 0x006a7860      60000238       bra.w 0x6a7a9a
      > 0x006a7864      302e0012       move.w 0x12(a6), d0
          0x006a7868      41bc00ff       chk.w 0xff, d0
          0x006a786c      48c0           ext.l d0
          0x006a786e      2200           move.l d0, d1
          0x006a7870      e581           asl.l 0x2, d1
          0x006a7872      43f01800       lea.l (a0, d1.l), a1
          0x006a7876      236807000300   move.l 0x700(a0), 0x300(a1)
          0x006a787c      43f00800       lea.l (a0, d0.l), a1
          0x006a7880      3013           move.w (a3), d0
          0x006a7882      0440ff80       subi.w 0xff80, d0
          0x006a7886      41bc00ff       chk.w 0xff, d0
          0x006a788a      0640ff80       addi.w 0xff80, d0
          0x006a788e      13400100       move.b d0, 0x100(a1)
          0x006a7892      3014           move.w (a4), d0
          0x006a7894      0440ff80       subi.w 0xff80, d0
          0x006a7898      41bc00ff       chk.w 0xff, d0
          0x006a789c      0640ff80       addi.w 0xff80, d0
          0x006a78a0      1280           move.b d0, (a1)
          0x006a78a2      302e0008       move.w 0x8(a6), d0
          0x006a78a6      48c0           ext.l d0
      < 0x006a78a8      6a02           bpl.b 0x6a78ac
         0x006a78aa      4480           neg.l d0
      > 0x006a78ac      0c8000000100   cmpi.l 0x100, d0
      < 0x006a78b2      6f04           ble.b 0x6a78b8
         0x006a78b4      426e0008       clr.w 0x8(a6)
      > 0x006a78b8      302e0008       move.w 0x8(a6), d0
          0x006a78bc      0440ff80       subi.w 0xff80, d0
          0x006a78c0      41bc00ff       chk.w 0xff, d0
          0x006a78c4      0640ff80       addi.w 0xff80, d0
          0x006a78c8      13400200       move.b d0, 0x200(a1)
          0x006a78cc      302e000a       move.w 0xa(a6), d0
          0x006a78d0      48c0           ext.l d0
          0x006a78d2      5280           addq.l 0x1, d0
          0x006a78d4      0480ffff8000   subi.l 0xffff8000, d0
          0x006a78da      0c800000ffff   cmpi.l 0xffff, d0
      < 0x006a78e0      6302           bls.b 0x6a78e4
         0x006a78e2      4e4f           trap 0xf
      > 0x006a78e4      0680ffff8000   addi.l 0xffff8000, d0
          0x006a78ea      3d40000a       move.w d0, 0xa(a6)
          0x006a78ee      302e000c       move.w 0xc(a6), d0
          0x006a78f2      48c0           ext.l d0
          0x006a78f4      5280           addq.l 0x1, d0
          0x006a78f6      0480ffff8000   subi.l 0xffff8000, d0
          0x006a78fc      0c800000ffff   cmpi.l 0xffff, d0
      < 0x006a7902      6302           bls.b 0x6a7906
         0x006a7904      4e4f           trap 0xf
      > 0x006a7906      0680ffff8000   addi.l 0xffff8000, d0
          0x006a790c      3d40000c       move.w d0, 0xc(a6)
          0x006a7910      3013           move.w (a3), d0
          0x006a7912      48c0           ext.l d0
          0x006a7914      5280           addq.l 0x1, d0
          0x006a7916      0480ffff8000   subi.l 0xffff8000, d0
          0x006a791c      0c800000ffff   cmpi.l 0xffff, d0
      < 0x006a7922      6302           bls.b 0x6a7926
         0x006a7924      4e4f           trap 0xf
      > 0x006a7926      0680ffff8000   addi.l 0xffff8000, d0
          0x006a792c      3680           move.w d0, (a3)
          0x006a792e      3014           move.w (a4), d0
          0x006a7930      48c0           ext.l d0
          0x006a7932      5280           addq.l 0x1, d0
          0x006a7934      0480ffff8000   subi.l 0xffff8000, d0
          0x006a793a      0c800000ffff   cmpi.l 0xffff, d0
      < 0x006a7940      6302           bls.b 0x6a7944
         0x006a7942      4e4f           trap 0xf
      > 0x006a7944      0680ffff8000   addi.l 0xffff8000, d0
          0x006a794a      3880           move.w d0, (a4)
          0x006a794c      2d6e000afff8   move.l 0xa(a6), -0x8(a6)
          0x006a7952      2d53fffc       move.l (a3), -0x4(a6)
          0x006a7956      302efff8       move.w -0x8(a6), d0
          0x006a795a      48c0           ext.l d0
          0x006a795c      0280fffffff8   andi.l 0xfffffff8, d0
          0x006a7962      0480ffff8000   subi.l 0xffff8000, d0
          0x006a7968      0c800000ffff   cmpi.l 0xffff, d0
      < 0x006a796e      6302           bls.b 0x6a7972
         0x006a7970      4e4f           trap 0xf
      > 0x006a7972      0680ffff8000   addi.l 0xffff8000, d0
          0x006a7978      3d40fff8       move.w d0, -0x8(a6)
          0x006a797c      322e000a       move.w 0xa(a6), d1
          0x006a7980      48c1           ext.l d1
          0x006a7982      48c0           ext.l d0
          0x006a7984      4480           neg.l d0
          0x006a7986      d081           add.l d1, d0
          0x006a7988      0c800000ffff   cmpi.l 0xffff, d0
      < 0x006a798e      6302           bls.b 0x6a7992
         0x006a7990      4e4f           trap 0xf
      > 0x006a7992      3a00           move.w d0, d5
          0x006a7994      3013           move.w (a3), d0
          0x006a7996      48c0           ext.l d0
          0x006a7998      02850000ffff   andi.l 0xffff, d5
          0x006a799e      d085           add.l d5, d0
          0x006a79a0      5e80           addq.l 0x7, d0
          0x006a79a2      2800           move.l d0, d4
          0x006a79a4      7608           moveq 0x8, d3
          0x006a79a6      4eb900406b50   jsr fcn.00406b50
          0x006a79ac      e784           asl.l 0x3, d4
          0x006a79ae      0484ffff8000   subi.l 0xffff8000, d4
          0x006a79b4      0c840000ffff   cmpi.l 0xffff, d4
      < 0x006a79ba      6302           bls.b 0x6a79be
         0x006a79bc      4e4f           trap 0xf
      > 0x006a79be      0684ffff8000   addi.l 0xffff8000, d4
          0x006a79c4      3d44fffc       move.w d4, -0x4(a6)
          0x006a79c8      4227           clr.b -(a7)
          0x006a79ca      1f3c0003       move.b 0x3, -(a7)
          0x006a79ce      1f3c0001       move.b 0x1, -(a7)
          0x006a79d2      2f2efffc       move.l -0x4(a6), -(a7)
          0x006a79d6      2f2efff8       move.l -0x8(a6), -(a7)
          0x006a79da      43eeeff8       lea.l -0x1008(a6), a1
          0x006a79de      2f09           move.l a1, -(a7)
          0x006a79e0      4eb900521974   jsr BRUSHCOM.br_computer_tra
          0x006a79e6      defc0012       adda.w 0x12, a7
          0x006a79ea      7e00           moveq 0x0, d7
          0x006a79ec      02850000ffff   andi.l 0xffff, d5
          0x006a79f2      3013           move.w (a3), d0
          0x006a79f4      48c0           ext.l d0
          0x006a79f6      d085           add.l d5, d0
          0x006a79f8      7201           moveq 0x1, d1
      > 0x006a79fa      b26efffe       cmp.w -0x2(a6), d1
     < 0x006a79fe      62000084       bhi.w 0x6a7a84
        0x006a7a02      3d41eff0       move.w d1, -0x1010(a6)
        0x006a7a06      7c01           moveq 0x1, d6
    > 0x006a7a08      bc6efffc       cmp.w -0x4(a6), d6
   < 0x006a7a0c      6270           bhi.b 0x6a7a7e
      0x006a7a0e      02870000ffff   andi.l 0xffff, d7
      0x006a7a14      2407           move.l d7, d2
      0x006a7a16      5282           addq.l 0x1, d2
      0x006a7a18      0c820000ffff   cmpi.l 0xffff, d2
  < 0x006a7a1e      6302           bls.b 0x6a7a22
     0x006a7a20      4e4f           trap 0xf
  > 0x006a7a22      3e02           move.w d2, d7
      0x006a7a24      02860000ffff   andi.l 0xffff, d6
      0x006a7a2a      bc85           cmp.l d5, d6
  < 0x006a7a2c      6f4c           ble.b 0x6a7a7a
     0x006a7a2e      02860000ffff   andi.l 0xffff, d6
     0x006a7a34      bc80           cmp.l d0, d6
 < 0x006a7a36      6e42           bgt.b 0x6a7a7a
    0x006a7a38      24280700       move.l 0x700(a0), d2
    0x006a7a3c      0c82000249f0   cmpi.l 0x249f0, d2
 < 0x006a7a42      6302           bls.b 0x6a7a46
    0x006a7a44      4e4f           trap 0xf
 > 0x006a7a46      2279008541d8   movea.l 0x8541d8, a1
    0x006a7a4c      02870000ffff   andi.l 0xffff, d7
    0x006a7a52      2607           move.l d7, d3
    0x006a7a54      5383           subq.l 0x1, d3
    0x006a7a56      0c83000007ff   cmpi.l 0x7ff, d3
 < 0x006a7a5c      6302           bls.b 0x6a7a60
    0x006a7a5e      4e4f           trap 0xf
 > 0x006a7a60      e383           asl.l 0x1, d3
    0x006a7a62      45eeeff0       lea.l -0x1010(a6), a2
    0x006a7a66      4284           clr.l d4
    0x006a7a68      38323808       move.w 0x8(a2, d3.l), d4
    0x006a7a6c      0284000000ff   andi.l 0xff, d4
    0x006a7a72      13842800       move.b d4, (a1, d2.l)
    0x006a7a76      52a80700       addq.l 0x1, 0x700(a0)
 > 0x006a7a7a      5246           addq.w 0x1, d6
   < 0x006a7a7c      648a           bcc.b 0x6a7a08
   > 0x006a7a7e      5241           addq.w 0x1, d1
     < 0x006a7a80      6400ff78       bcc.w 0x6a79fa
     > 0x006a7a84      4a39008541dc   tst.b 0x8541dc
      < 0x006a7a8a      670e           beq.b 0x6a7a9a
         0x006a7a8c      3f2e0012       move.w 0x12(a6), -(a7)
         0x006a7a90      48780000       pea.l 0x0
         0x006a7a94      4ebafb12       jsr TEXTMAV.type_char(pc)
         0x006a7a98      5c4f           addq.w 0x6, a7
      > 0x006a7a9a      4cdf1fff       movem.l (a7)+, d0-d7/a0-a4
           0x006a7a9e      4e5e           unlk a6
           0x006a7aa0      4e75           rts
            ; XREFS: CALL 0x004a2b9e  CALL 0x0051fe14  CALL 0x005247a4  
            ; XREFS: CALL 0x00525280  CALL 0x0052557a  CALL 0x00525662  
            ; XREFS: CALL 0x0052578a  CALL 0x00525926  CALL 0x00525a42  
            ; XREFS: CALL 0x0065585a  CALL 0x0065800e  CALL 0x00658184  
            ; XREFS: CALL 0x006591ec  
 206: TEXTMAV.get_char_data ();
           0x006a7aa2      4e56ffba       link.w a6, 0xffba
           0x006a7aa6      bfd5           cmpa.l (a5), a7
       < 0x006a7aa8      6206           bhi.b 0x6a7ab0
          0x006a7aaa      44fc0002       move.w 0x2, ccr
          0x006a7aae      4e76           trapv
       > 0x006a7ab0      defc0046       adda.w 0x46, a7
           0x006a7ab4      48e7d8f0       movem.l d0-d1/d3-d4/a0-a3, -(a7)
           0x006a7ab8      206e0008       movea.l 0x8(a6), a0
           0x006a7abc      4210           clr.b (a0)
           0x006a7abe      302e000e       move.w 0xe(a6), d0
           0x006a7ac2      43fadce0       lea.l 0x6a57a4(pc), a1
           0x006a7ac6      3200           move.w d0, d1
           0x006a7ac8      e649           lsr.w 0x3, d1
           0x006a7aca      0c410020       cmpi.w 0x20, d1
       < 0x006a7ace      6d04           blt.b 0x6a7ad4
          0x006a7ad0      7200           moveq 0x0, d1
      < 0x006a7ad2      6004           bra.b 0x6a7ad8
      > 0x006a7ad4      01311000       btst.l d0, (a1, d1.w)
      < 0x006a7ad8      67000084       beq.w 0x6a7b5e
          0x006a7adc      202e000c       move.l 0xc(a6), d0
          0x006a7ae0      0c8000000002   cmpi.l 0x2, d0
      < 0x006a7ae6      6302           bls.b 0x6a7aea
         0x006a7ae8      4e4f           trap 0xf
      > 0x006a7aea      2800           move.l d0, d4
          0x006a7aec      263c00000c26   move.l 0xc26, d3
          0x006a7af2      4eb900406a74   jsr fcn.00406a74
          0x006a7af8      43f900851d42   lea.l 0x851d42, a1
          0x006a7afe      45f1481a       lea.l 0x1a(a1, d4.l), a2
          0x006a7b02      2d4a0010       move.l a2, 0x10(a6)
          0x006a7b06      554f           subq.w 0x2, a7
          0x006a7b08      2f31480e       move.l 0xe(a1, d4.l), -(a7)
          0x006a7b0c      48714812       pea.l 0x12(a1, d4.l)
          0x006a7b10      4eb9006328e4   jsr CACHECOM.cache_loaded
          0x006a7b16      504f           addq.w 0x8, a7
          0x006a7b18      4a1f           tst.b (a7)+
      < 0x006a7b1a      664c           bne.b 0x6a7b68
         0x006a7b1c      2f2e000c       move.l 0xc(a6), -(a7)
         0x006a7b20      9efc000a       suba.w 0xa, a7
         0x006a7b24      244f           movea.l a7, a2
         0x006a7b26      47f14800       lea.l (a1, d4.l), a3
         0x006a7b2a      7009           moveq 0x9, d0
     > 0x006a7b2c      14db           move.b (a3)+, (a2)+
     < 0x006a7b2e      51c8fffc       dbra d0, 0x6a7b2c
         0x006a7b32      2f31480a       move.l 0xa(a1, d4.l), -(a7)
         0x006a7b36      4ebaf23c       jsr TEXTMAV.load_font(pc)
         0x006a7b3a      defc0012       adda.w 0x12, a7
         0x006a7b3e      487adc85       pea.l 0x6a57c5(pc)
         0x006a7b42      4878001a       pea.l 0x1a
         0x006a7b46      2f17           move.l (a7), -(a7)
         0x006a7b48      4eb9004047ea   jsr p_wts_o
         0x006a7b4e      defc000c       adda.w 0xc, a7
         0x006a7b52      4eb900404946   jsr p_wtln_o
         0x006a7b58      10bc0001       move.b 0x1, (a0)
     < 0x006a7b5c      600a           bra.b 0x6a7b68
     > 0x006a7b5e      41f900851d5c   lea.l 0x851d5c, a0
         0x006a7b64      2d480010       move.l a0, 0x10(a6)
     > 0x006a7b68      4cdf0f1b       movem.l (a7)+, d0-d1/d3-d4/a0-a3
           0x006a7b6c      4e5e           unlk a6
           0x006a7b6e      4e75           rts
            ; CALL XREF from MENUKEYBDCOM.char_len @ 0x4a4982
            ; CALL XREFS from MENU3DCOM.PAS.draw_dot_mark @ 0xf6e, 0x50aa22
            ; CALL XREF from MENU3DCOM.PAS.draw_keyfrm_mar @ 0x50b144
 154: TEXTMAV.get_ch_data ();
           0x006a7b70      4e56ffd0       link.w a6, 0xffd0
           0x006a7b74      bfd5           cmpa.l (a5), a7
       < 0x006a7b76      6206           bhi.b 0x6a7b7e
          0x006a7b78      44fc0002       move.w 0x2, ccr
          0x006a7b7c      4e76           trapv
       > 0x006a7b7e      defc002e       adda.w 0x2e, a7
           0x006a7b82      48e7e0e0       movem.l d0-d2/a0-a2, -(a7)
           0x006a7b86      45ee0010       lea.l 0x10(a6), a2
           0x006a7b8a      4280           clr.l d0
           0x006a7b8c      102e0014       move.b 0x14(a6), d0
           0x006a7b90      720c           moveq 0xc, d1
           0x006a7b92      c3c0           muls.w d0, d1
           0x006a7b94      41f900851d42   lea.l 0x851d42, a0
           0x006a7b9a      3430101a       move.w 0x1a(a0, d1.w), d2
           0x006a7b9e      0c42ffff       cmpi.w 0xffff, d2
       < 0x006a7ba2      6730           beq.b 0x6a7bd4
          0x006a7ba4      2252           movea.l (a2), a1
          0x006a7ba6      12b0101c       move.b 0x1c(a0, d1.w), (a1)
          0x006a7baa      1370101d0001   move.b 0x1d(a0, d1.w), 0x1(a1)
          0x006a7bb0      1370101e0002   move.b 0x1e(a0, d1.w), 0x2(a1)
          0x006a7bb6      1370101f0003   move.b 0x1f(a0, d1.w), 0x3(a1)
          0x006a7bbc      226e000c       movea.l 0xc(a6), a1
          0x006a7bc0      32b01020       move.w 0x20(a0, d1.w), (a1)
          0x006a7bc4      226e0008       movea.l 0x8(a6), a1
          0x006a7bc8      32b01022       move.w 0x22(a0, d1.w), (a1)
          0x006a7bcc      337010240002   move.w 0x24(a0, d1.w), 0x2(a1)
      < 0x006a7bd2      602e           bra.b 0x6a7c02
      > 0x006a7bd4      0c000020       cmpi.b 0x20, d0
      < 0x006a7bd8      6624           bne.b 0x6a7bfe
         0x006a7bda      2052           movea.l (a2), a0
         0x006a7bdc      554f           subq.w 0x2, a7
         0x006a7bde      486efffe       pea.l -0x2(a6)
         0x006a7be2      4eb900475c00   jsr CONFIG.cfg_size_x4
         0x006a7be8      584f           addq.w 0x4, a7
         0x006a7bea      121f           move.b (a7)+, d1
         0x006a7bec      4881           ext.w d1
         0x006a7bee      43bc0001       chk.w 0x1, d1
         0x006a7bf2      e341           asl.w 0x1, d1
         0x006a7bf4      43fad0e6       lea.l 0x6a4cdc(pc), a1
         0x006a7bf8      30b11000       move.w (a1, d1.w), (a0)
     < 0x006a7bfc      6004           bra.b 0x6a7c02
     > 0x006a7bfe      2052           movea.l (a2), a0
         0x006a7c00      4250           clr.w (a0)
     > 0x006a7c02      4cdf0707       movem.l (a7)+, d0-d2/a0-a2
           0x006a7c06      4e5e           unlk a6
           0x006a7c08      4e75           rts
            ; CALL XREF from MENUTYPECOM.font_browse @ 0x7667e6
            ; CALL XREF from MENUTYPECOM.make_menu_font @ 0x7677e6
            ; CALL XREF from TYPECOM.sel_font @ 0x76eb42
 140: TEXTMAV.set_type_menufo ();
           ; var int32_t var_8h @ a7+0x8
           0x006a7c0a      4e56fef0       link.w a6, 0xfef0
           0x006a7c0e      bfd5           cmpa.l (a5), a7
       < 0x006a7c10      6206           bhi.b 0x6a7c18
          0x006a7c12      44fc0002       move.w 0x2, ccr
          0x006a7c16      4e76           trapv
       > 0x006a7c18      defc0110       adda.w 0x110, a7
           0x006a7c1c      4a39008541dc   tst.b 0x8541dc
       < 0x006a7c22      6752           beq.b 0x6a7c76
          0x006a7c24      9efc0100       suba.w 0x100, a7
          0x006a7c28      486e000c       pea.l 0xc(a6)
          0x006a7c2c      4eb9005ef416   jsr F2_UTILITY.f_fid_string
          0x006a7c32      584f           addq.w 0x4, a7
          0x006a7c34      487adbaa       pea.l 0x6a57e0(pc)
          0x006a7c38      48780011       pea.l 0x11
          0x006a7c3c      2f17           move.l (a7), -(a7)
          0x006a7c3e      4eb9004047ea   jsr p_wts_o
          0x006a7c44      defc000c       adda.w 0xc, a7
          0x006a7c48      486f0001       pea.l 0x1(a7)
          0x006a7c4c      42a7           clr.l -(a7)
          0x006a7c4e      1f6f00080003   move.b 0x8(a7), 0x3(a7)
          0x006a7c54      2f17           move.l (a7), -(a7)
          0x006a7c56      4eb9004047ea   jsr p_wts_o
          0x006a7c5c      defc0108       adda.w 0x108, a7
          0x006a7c60      2eae0008       move.l 0x8(a6), (a7)
          0x006a7c64      4878000c       pea.l 0xc
          0x006a7c68      4eb9004070e4   jsr p_wti_o
          0x006a7c6e      504f           addq.w 0x8, a7
          0x006a7c70      4eb900404946   jsr p_wtln_o
       > 0x006a7c76      48780001       pea.l 0x1
           0x006a7c7a      2f2e0012       move.l 0x12(a6), -(a7)
           0x006a7c7e      2f2e000e       move.l 0xe(a6), -(a7)
           0x006a7c82      3f2e000c       move.w 0xc(a6), -(a7)
           0x006a7c86      2f2e0008       move.l 0x8(a6), -(a7)
           0x006a7c8a      4ebaf0e8       jsr TEXTMAV.load_font(pc)
           0x006a7c8e      defc0012       adda.w 0x12, a7
           0x006a7c92      4e5e           unlk a6
           0x006a7c94      4e75           rts
            ; CALL XREF from TEXTMAV.menufont_init @ 0x6a8868
            ; CALL XREF from MAVIS_PAINT.cleanup_system @ 0x6d28b2
 82: TEXTMAV.load_menufonts ();
           0x006a7c96      4e56ffe2       link.w a6, 0xffe2
           0x006a7c9a      bfd5           cmpa.l (a5), a7
       < 0x006a7c9c      6206           bhi.b 0x6a7ca4
          0x006a7c9e      44fc0002       move.w 0x2, ccr
          0x006a7ca2      4e76           trapv
       > 0x006a7ca4      defc001e       adda.w 0x1e, a7
           0x006a7ca8      48e78080       movem.l d0/a0, -(a7)
           0x006a7cac      41f80000       lea.l 0x0, a0
           0x006a7cb0      7012           moveq 0x12, d0
           0x006a7cb2      4850           pea.l (a0)
           0x006a7cb4      2f3ad016       move.l 0x6a4ccc(pc), -(a7)
           0x006a7cb8      2f3ad00e       move.l 0x6a4cc8(pc), -(a7)
           0x006a7cbc      3f3ad008       move.w 0x6a4cc6(pc), -(a7)
           0x006a7cc0      4850           pea.l (a0)
           0x006a7cc2      4ebaf0b0       jsr TEXTMAV.load_font(pc)
           0x006a7cc6      dec0           adda.w d0, a7
           0x006a7cc8      48780002       pea.l 0x2
           0x006a7ccc      2f3acffe       move.l 0x6a4ccc(pc), -(a7)
           0x006a7cd0      2f3acff6       move.l 0x6a4cc8(pc), -(a7)
           0x006a7cd4      3f3acff0       move.w 0x6a4cc6(pc), -(a7)
           0x006a7cd8      4850           pea.l (a0)
           0x006a7cda      4ebaf098       jsr TEXTMAV.load_font(pc)
           0x006a7cde      dec0           adda.w d0, a7
           0x006a7ce0      4cdf0101       movem.l (a7)+, d0/a0
           0x006a7ce4      4e5e           unlk a6
           0x006a7ce6      4e75           rts
 88: TEXTMAV.cmd_type_char ();
           0x006a7ce8      4e56ffea       link.w a6, 0xffea
           0x006a7cec      bfd5           cmpa.l (a5), a7
       < 0x006a7cee      6206           bhi.b 0x6a7cf6
          0x006a7cf0      44fc0002       move.w 0x2, ccr
          0x006a7cf4      4e76           trapv
       > 0x006a7cf6      defc0014       adda.w 0x14, a7
           0x006a7cfa      48e78000       movem.l d0, -(a7)
           0x006a7cfe      594f           subq.w 0x4, a7
           0x006a7d00      48780000       pea.l 0x0
           0x006a7d04      487800ff       pea.l 0xff
           0x006a7d08      4eb90043e376   jsr G2_EXPRESSION.g_number
           0x006a7d0e      504f           addq.w 0x8, a7
           0x006a7d10      201f           move.l (a7)+, d0
           0x006a7d12      0480ffff8000   subi.l 0xffff8000, d0
           0x006a7d18      0c800000ffff   cmpi.l 0xffff, d0
       < 0x006a7d1e      6302           bls.b 0x6a7d22
          0x006a7d20      4e4f           trap 0xf
       > 0x006a7d22      0680ffff8000   addi.l 0xffff8000, d0
           0x006a7d28      3d40fffe       move.w d0, -0x2(a6)
           0x006a7d2c      3f00           move.w d0, -(a7)
           0x006a7d2e      48780000       pea.l 0x0
           0x006a7d32      4ebaf874       jsr TEXTMAV.type_char(pc)
           0x006a7d36      5c4f           addq.w 0x6, a7
           0x006a7d38      4cdf0001       movem.l (a7)+, d0
           0x006a7d3c      4e5e           unlk a6
           0x006a7d3e      4e75           rts
 88: TEXTMAV.cmd_read_menufo ();
           0x006a7d40      4e56ffec       link.w a6, 0xffec
           0x006a7d44      bfd5           cmpa.l (a5), a7
       < 0x006a7d46      6206           bhi.b 0x6a7d4e
          0x006a7d48      44fc0002       move.w 0x2, ccr
          0x006a7d4c      4e76           trapv
       > 0x006a7d4e      defc0014       adda.w 0x14, a7
           0x006a7d52      554f           subq.w 0x2, a7
           0x006a7d54      2f3acf76       move.l 0x6a4ccc(pc), -(a7)
           0x006a7d58      2f3acf6e       move.l 0x6a4cc8(pc), -(a7)
           0x006a7d5c      3f3acf68       move.w 0x6a4cc6(pc), -(a7)
           0x006a7d60      48780000       pea.l 0x0
           0x006a7d64      4ebaef40       jsr TEXTMAV.read_menu_font(pc)
           0x006a7d68      defc000e       adda.w 0xe, a7
           0x006a7d6c      4a1f           tst.b (a7)+
       < 0x006a7d6e      670a           beq.b 0x6a7d7a
          0x006a7d70      487ada80       pea.l 0x6a57f2(pc)
          0x006a7d74      48780002       pea.l 0x2
      < 0x006a7d78      6008           bra.b 0x6a7d82
      > 0x006a7d7a      487ada79       pea.l 0x6a57f5(pc)
          0x006a7d7e      48780003       pea.l 0x3
      > 0x006a7d82      2f17           move.l (a7), -(a7)
           0x006a7d84      4eb9004047ea   jsr p_wts_o
           0x006a7d8a      defc000c       adda.w 0xc, a7
           0x006a7d8e      4eb900404946   jsr p_wtln_o
           0x006a7d94      4e5e           unlk a6
           0x006a7d96      4e75           rts
 88: TEXTMAV.cmd_save_menufo ();
           0x006a7d98      4e56ffec       link.w a6, 0xffec
           0x006a7d9c      bfd5           cmpa.l (a5), a7
       < 0x006a7d9e      6206           bhi.b 0x6a7da6
          0x006a7da0      44fc0002       move.w 0x2, ccr
          0x006a7da4      4e76           trapv
       > 0x006a7da6      defc0014       adda.w 0x14, a7
           0x006a7daa      554f           subq.w 0x2, a7
           0x006a7dac      2f3acf1e       move.l 0x6a4ccc(pc), -(a7)
           0x006a7db0      2f3acf16       move.l 0x6a4cc8(pc), -(a7)
           0x006a7db4      3f3acf10       move.w 0x6a4cc6(pc), -(a7)
           0x006a7db8      48780000       pea.l 0x0
           0x006a7dbc      4ebaf354       jsr TEXTMAV.save_menu_font(pc)
           0x006a7dc0      defc000e       adda.w 0xe, a7
           0x006a7dc4      4a1f           tst.b (a7)+
       < 0x006a7dc6      670a           beq.b 0x6a7dd2
          0x006a7dc8      487ada2f       pea.l 0x6a57f9(pc)
          0x006a7dcc      48780002       pea.l 0x2
      < 0x006a7dd0      6008           bra.b 0x6a7dda
      > 0x006a7dd2      487ada28       pea.l 0x6a57fc(pc)
          0x006a7dd6      48780003       pea.l 0x3
      > 0x006a7dda      2f17           move.l (a7), -(a7)
           0x006a7ddc      4eb9004047ea   jsr p_wts_o
           0x006a7de2      defc000c       adda.w 0xc, a7
           0x006a7de6      4eb900404946   jsr p_wtln_o
           0x006a7dec      4e5e           unlk a6
           0x006a7dee      4e75           rts
            ; CALL XREF from TEXTMAV.edit_char @ 0x6a8112
 128: TEXTMAV.shuffledown ();
           0x006a7df0      4e56ffdc       link.w a6, 0xffdc
           0x006a7df4      bfd5           cmpa.l (a5), a7
       < 0x006a7df6      6206           bhi.b 0x6a7dfe
          0x006a7df8      44fc0002       move.w 0x2, ccr
          0x006a7dfc      4e76           trapv
       > 0x006a7dfe      defc0020       adda.w 0x20, a7
           0x006a7e02      48e7c1e0       movem.l d0-d1/d7/a0-a2, -(a7)
           0x006a7e06      43ee0010       lea.l 0x10(a6), a1
           0x006a7e0a      45f9008541d8   lea.l 0x8541d8, a2
           0x006a7e10      223c000249f0   move.l 0x249f0, d1
           0x006a7e16      4a91           tst.l (a1)
       < 0x006a7e18      6c28           bge.b 0x6a7e42
          0x006a7e1a      2e2e000c       move.l 0xc(a6), d7
      > 0x006a7e1e      beae0008       cmp.l 0x8(a6), d7
     < 0x006a7e22      6e1c           bgt.b 0x6a7e40
        0x006a7e24      be81           cmp.l d1, d7
    < 0x006a7e26      6302           bls.b 0x6a7e2a
       0x006a7e28      4e4f           trap 0xf
    > 0x006a7e2a      2052           movea.l (a2), a0
        0x006a7e2c      2007           move.l d7, d0
        0x006a7e2e      9091           sub.l (a1), d0
        0x006a7e30      b081           cmp.l d1, d0
    < 0x006a7e32      6302           bls.b 0x6a7e36
       0x006a7e34      4e4f           trap 0xf
    > 0x006a7e36      11b008007800   move.b (a0, d0.l), (a0, d7.l)
        0x006a7e3c      5287           addq.l 0x1, d7
     < 0x006a7e3e      68de           bvc.b 0x6a7e1e
     < 0x006a7e40      6026           bra.b 0x6a7e68
      > 0x006a7e42      2e2e0008       move.l 0x8(a6), d7
      > 0x006a7e46      beae000c       cmp.l 0xc(a6), d7
     < 0x006a7e4a      6d1c           blt.b 0x6a7e68
        0x006a7e4c      be81           cmp.l d1, d7
    < 0x006a7e4e      6302           bls.b 0x6a7e52
       0x006a7e50      4e4f           trap 0xf
    > 0x006a7e52      2052           movea.l (a2), a0
        0x006a7e54      2007           move.l d7, d0
        0x006a7e56      9091           sub.l (a1), d0
        0x006a7e58      b081           cmp.l d1, d0
    < 0x006a7e5a      6302           bls.b 0x6a7e5e
       0x006a7e5c      4e4f           trap 0xf
    > 0x006a7e5e      11b008007800   move.b (a0, d0.l), (a0, d7.l)
        0x006a7e64      5387           subq.l 0x1, d7
     < 0x006a7e66      68de           bvc.b 0x6a7e46
     > 0x006a7e68      4cdf0783       movem.l (a7)+, d0-d1/d7/a0-a2
           0x006a7e6c      4e5e           unlk a6
           0x006a7e6e      4e75           rts
            ; CALL XREF from TEXTMAV @ +0x36ee
 758: TEXTMAV.edit_char (int32_t arg_300h);
           ; arg int32_t arg_300h @ a6+0x300
           0x006a7e70      4e56fbb6       link.w a6, 0xfbb6
           0x006a7e74      bfd5           cmpa.l (a5), a7
       < 0x006a7e76      6206           bhi.b 0x6a7e7e
          0x006a7e78      44fc0002       move.w 0x2, ccr
          0x006a7e7c      4e76           trapv
       > 0x006a7e7e      defc004c       adda.w 0x4c, a7
           0x006a7e82      48e7fff8       movem.l d0-d7/a0-a4, -(a7)
           0x006a7e86      47ee0028       lea.l 0x28(a6), a3
           0x006a7e8a      49eefc02       lea.l -0x3fe(a6), a4
           0x006a7e8e      263c000000ff   move.l 0xff, d3
           0x006a7e94      7880           moveq 0x80, d4
           0x006a7e96      2079008541d4   movea.l 0x8541d4, a0
           0x006a7e9c      2013           move.l (a3), d0
           0x006a7e9e      b083           cmp.l d3, d0
       < 0x006a7ea0      6302           bls.b 0x6a7ea4
          0x006a7ea2      4e4f           trap 0xf
       > 0x006a7ea4      e580           asl.l 0x2, d0
           0x006a7ea6      43f00800       lea.l (a0, d0.l), a1
           0x006a7eaa      2d690300fc0a   move.l 0x300(a1), -0x3f6(a6)
           0x006a7eb0      7e00           moveq 0x0, d7
           0x006a7eb2      7a01           moveq 0x1, d5
       > 0x006a7eb4      baae0014       cmp.l 0x14(a6), d5
      < 0x006a7eb8      6e40           bgt.b 0x6a7efa
         0x006a7eba      2013           move.l (a3), d0
         0x006a7ebc      b083           cmp.l d3, d0
     < 0x006a7ebe      6302           bls.b 0x6a7ec2
        0x006a7ec0      4e4f           trap 0xf
     > 0x006a7ec2      43f00800       lea.l (a0, d0.l), a1
         0x006a7ec6      10290100       move.b 0x100(a1), d0
         0x006a7eca      4880           ext.w d0
         0x006a7ecc      48c0           ext.l d0
         0x006a7ece      d0ae000c       add.l 0xc(a6), d0
         0x006a7ed2      d0ae0008       add.l 0x8(a6), d0
         0x006a7ed6      2f00           move.l d0, -(a7)
         0x006a7ed8      7c00           moveq 0x0, d6
     > 0x006a7eda      bc97           cmp.l (a7), d6
    < 0x006a7edc      6e16           bgt.b 0x6a7ef4
       0x006a7ede      0c87000003e8   cmpi.l 0x3e8, d7
   < 0x006a7ee4      6302           bls.b 0x6a7ee8
      0x006a7ee6      4e4f           trap 0xf
   > 0x006a7ee8      224c           movea.l a4, a1
       0x006a7eea      42317814       clr.b 0x14(a1, d7.l)
       0x006a7eee      5287           addq.l 0x1, d7
       0x006a7ef0      5286           addq.l 0x1, d6
    < 0x006a7ef2      68e6           bvc.b 0x6a7eda
    > 0x006a7ef4      584f           addq.w 0x4, a7
         0x006a7ef6      5285           addq.l 0x1, d5
      < 0x006a7ef8      68ba           bvc.b 0x6a7eb4
      > 0x006a7efa      2013           move.l (a3), d0
           0x006a7efc      b083           cmp.l d3, d0
       < 0x006a7efe      6302           bls.b 0x6a7f02
          0x006a7f00      4e4f           trap 0xf
       > 0x006a7f02      12300800       move.b (a0, d0.l), d1
           0x006a7f06      4881           ext.w d1
           0x006a7f08      48c1           ext.l d1
           0x006a7f0a      2f01           move.l d1, -(a7)
           0x006a7f0c      7a00           moveq 0x0, d5
       > 0x006a7f0e      ba97           cmp.l (a7), d5
      < 0x006a7f10      6e0000ca       bgt.w 0x6a7fdc
         0x006a7f14      7c01           moveq 0x1, d6
     > 0x006a7f16      bcae000c       cmp.l 0xc(a6), d6
    < 0x006a7f1a      6e16           bgt.b 0x6a7f32
       0x006a7f1c      0c87000003e8   cmpi.l 0x3e8, d7
   < 0x006a7f22      6302           bls.b 0x6a7f26
      0x006a7f24      4e4f           trap 0xf
   > 0x006a7f26      224c           movea.l a4, a1
       0x006a7f28      42317814       clr.b 0x14(a1, d7.l)
       0x006a7f2c      5287           addq.l 0x1, d7
       0x006a7f2e      5286           addq.l 0x1, d6
    < 0x006a7f30      68e4           bvc.b 0x6a7f16
    > 0x006a7f32      2013           move.l (a3), d0
         0x006a7f34      b083           cmp.l d3, d0
     < 0x006a7f36      6302           bls.b 0x6a7f3a
        0x006a7f38      4e4f           trap 0xf
     > 0x006a7f3a      43f00800       lea.l (a0, d0.l), a1
         0x006a7f3e      10290100       move.b 0x100(a1), d0
         0x006a7f42      4880           ext.w d0
         0x006a7f44      48c0           ext.l d0
         0x006a7f46      2f00           move.l d0, -(a7)
         0x006a7f48      7c00           moveq 0x0, d6
     > 0x006a7f4a      bc97           cmp.l (a7), d6
    < 0x006a7f4c      6e68           bgt.b 0x6a7fb6
       0x006a7f4e      2013           move.l (a3), d0
       0x006a7f50      b083           cmp.l d3, d0
   < 0x006a7f52      6302           bls.b 0x6a7f56
      0x006a7f54      4e4f           trap 0xf
   > 0x006a7f56      baae0024       cmp.l 0x24(a6), d5
   < 0x006a7f5a      6d52           blt.b 0x6a7fae
      0x006a7f5c      12300800       move.b (a0, d0.l), d1
      0x006a7f60      4881           ext.w d1
      0x006a7f62      48c1           ext.l d1
      0x006a7f64      92ae0020       sub.l 0x20(a6), d1
      0x006a7f68      ba81           cmp.l d1, d5
  < 0x006a7f6a      6e42           bgt.b 0x6a7fae
     0x006a7f6c      bcae001c       cmp.l 0x1c(a6), d6
 < 0x006a7f70      6d3c           blt.b 0x6a7fae
    0x006a7f72      43f00800       lea.l (a0, d0.l), a1
    0x006a7f76      10290100       move.b 0x100(a1), d0
    0x006a7f7a      4880           ext.w d0
    0x006a7f7c      48c0           ext.l d0
    0x006a7f7e      90ae0018       sub.l 0x18(a6), d0
    0x006a7f82      bc80           cmp.l d0, d6
 < 0x006a7f84      6e28           bgt.b 0x6a7fae
    0x006a7f86      0c87000003e8   cmpi.l 0x3e8, d7
 < 0x006a7f8c      6302           bls.b 0x6a7f90
    0x006a7f8e      4e4f           trap 0xf
 > 0x006a7f90      224c           movea.l a4, a1
    0x006a7f92      202efc0a       move.l -0x3f6(a6), d0
    0x006a7f96      0c80000249f0   cmpi.l 0x249f0, d0
 < 0x006a7f9c      6302           bls.b 0x6a7fa0
    0x006a7f9e      4e4f           trap 0xf
 > 0x006a7fa0      2479008541d8   movea.l 0x8541d8, a2
    0x006a7fa6      13b208007814   move.b (a2, d0.l), 0x14(a1, d7.l)
    0x006a7fac      5287           addq.l 0x1, d7
 > 0x006a7fae      52aefc0a       addq.l 0x1, -0x3f6(a6)
       0x006a7fb2      5286           addq.l 0x1, d6
    < 0x006a7fb4      6894           bvc.b 0x6a7f4a
    > 0x006a7fb6      584f           addq.w 0x4, a7
         0x006a7fb8      7c01           moveq 0x1, d6
     > 0x006a7fba      bcae0008       cmp.l 0x8(a6), d6
    < 0x006a7fbe      6e16           bgt.b 0x6a7fd6
       0x006a7fc0      0c87000003e8   cmpi.l 0x3e8, d7
   < 0x006a7fc6      6302           bls.b 0x6a7fca
      0x006a7fc8      4e4f           trap 0xf
   > 0x006a7fca      224c           movea.l a4, a1
       0x006a7fcc      42317814       clr.b 0x14(a1, d7.l)
       0x006a7fd0      5287           addq.l 0x1, d7
       0x006a7fd2      5286           addq.l 0x1, d6
    < 0x006a7fd4      68e4           bvc.b 0x6a7fba
    > 0x006a7fd6      5285           addq.l 0x1, d5
      < 0x006a7fd8      6800ff34       bvc.w 0x6a7f0e
      > 0x006a7fdc      584f           addq.w 0x4, a7
           0x006a7fde      7a01           moveq 0x1, d5
       > 0x006a7fe0      baae0010       cmp.l 0x10(a6), d5
      < 0x006a7fe4      6e40           bgt.b 0x6a8026
         0x006a7fe6      2013           move.l (a3), d0
         0x006a7fe8      b083           cmp.l d3, d0
     < 0x006a7fea      6302           bls.b 0x6a7fee
        0x006a7fec      4e4f           trap 0xf
     > 0x006a7fee      43f00800       lea.l (a0, d0.l), a1
         0x006a7ff2      10290100       move.b 0x100(a1), d0
         0x006a7ff6      4880           ext.w d0
         0x006a7ff8      48c0           ext.l d0
         0x006a7ffa      d0ae000c       add.l 0xc(a6), d0
         0x006a7ffe      d0ae0008       add.l 0x8(a6), d0
         0x006a8002      2f00           move.l d0, -(a7)
         0x006a8004      7c00           moveq 0x0, d6
     > 0x006a8006      bc97           cmp.l (a7), d6
    < 0x006a8008      6e16           bgt.b 0x6a8020
       0x006a800a      0c87000003e8   cmpi.l 0x3e8, d7
   < 0x006a8010      6302           bls.b 0x6a8014
      0x006a8012      4e4f           trap 0xf
   > 0x006a8014      224c           movea.l a4, a1
       0x006a8016      42317814       clr.b 0x14(a1, d7.l)
       0x006a801a      5287           addq.l 0x1, d7
       0x006a801c      5286           addq.l 0x1, d6
    < 0x006a801e      68e6           bvc.b 0x6a8006
    > 0x006a8020      584f           addq.w 0x4, a7
         0x006a8022      5285           addq.l 0x1, d5
      < 0x006a8024      68ba           bvc.b 0x6a7fe0
      > 0x006a8026      2013           move.l (a3), d0
           0x006a8028      b083           cmp.l d3, d0
       < 0x006a802a      6302           bls.b 0x6a802e
          0x006a802c      4e4f           trap 0xf
       > 0x006a802e      2200           move.l d0, d1
           0x006a8030      e581           asl.l 0x2, d1
           0x006a8032      43f01800       lea.l (a0, d1.l), a1
           0x006a8036      222efc0a       move.l -0x3f6(a6), d1
           0x006a803a      92a90300       sub.l 0x300(a1), d1
           0x006a803e      2d41fc0a       move.l d1, -0x3f6(a6)
           0x006a8042      4481           neg.l d1
           0x006a8044      d287           add.l d7, d1
           0x006a8046      2d41fc12       move.l d1, -0x3ee(a6)
           0x006a804a      14300800       move.b (a0, d0.l), d2
           0x006a804e      4882           ext.w d2
           0x006a8050      48c2           ext.l d2
           0x006a8052      94ae0024       sub.l 0x24(a6), d2
           0x006a8056      94ae0020       sub.l 0x20(a6), d2
           0x006a805a      d4ae0014       add.l 0x14(a6), d2
           0x006a805e      d4ae0010       add.l 0x10(a6), d2
           0x006a8062      9484           sub.l d4, d2
           0x006a8064      b483           cmp.l d3, d2
       < 0x006a8066      6302           bls.b 0x6a806a
          0x006a8068      4e4f           trap 0xf
       > 0x006a806a      d484           add.l d4, d2
           0x006a806c      11820800       move.b d2, (a0, d0.l)
           0x006a8070      43f00800       lea.l (a0, d0.l), a1
           0x006a8074      10290100       move.b 0x100(a1), d0
           0x006a8078      4880           ext.w d0
           0x006a807a      48c0           ext.l d0
           0x006a807c      90ae001c       sub.l 0x1c(a6), d0
           0x006a8080      90ae0018       sub.l 0x18(a6), d0
           0x006a8084      d0ae000c       add.l 0xc(a6), d0
           0x006a8088      d0ae0008       add.l 0x8(a6), d0
           0x006a808c      9084           sub.l d4, d0
           0x006a808e      b083           cmp.l d3, d0
       < 0x006a8090      6302           bls.b 0x6a8094
          0x006a8092      4e4f           trap 0xf
       > 0x006a8094      d084           add.l d4, d0
           0x006a8096      13400100       move.b d0, 0x100(a1)
           0x006a809a      10290200       move.b 0x200(a1), d0
           0x006a809e      4880           ext.w d0
           0x006a80a0      48c0           ext.l d0
           0x006a80a2      d0ae0024       add.l 0x24(a6), d0
           0x006a80a6      90ae0014       sub.l 0x14(a6), d0
           0x006a80aa      9084           sub.l d4, d0
           0x006a80ac      b083           cmp.l d3, d0
       < 0x006a80ae      6302           bls.b 0x6a80b2
          0x006a80b0      4e4f           trap 0xf
       > 0x006a80b2      d084           add.l d4, d0
           0x006a80b4      13400200       move.b d0, 0x200(a1)
           0x006a80b8      d3a80700       add.l d1, 0x700(a0)
           0x006a80bc      7a00           moveq 0x0, d5
       > 0x006a80be      ba83           cmp.l d3, d5
      < 0x006a80c0      6302           bls.b 0x6a80c4
         0x006a80c2      4e4f           trap 0xf
      > 0x006a80c4      2005           move.l d5, d0
          0x006a80c6      e580           asl.l 0x2, d0
          0x006a80c8      43f00800       lea.l (a0, d0.l), a1
          0x006a80cc      2013           move.l (a3), d0
          0x006a80ce      b083           cmp.l d3, d0
      < 0x006a80d0      6302           bls.b 0x6a80d4
         0x006a80d2      4e4f           trap 0xf
      > 0x006a80d4      e580           asl.l 0x2, d0
          0x006a80d6      45f00800       lea.l (a0, d0.l), a2
          0x006a80da      20290300       move.l 0x300(a1), d0
          0x006a80de      b0aa0300       cmp.l 0x300(a2), d0
      < 0x006a80e2      630a           bls.b 0x6a80ee
         0x006a80e4      2200           move.l d0, d1
         0x006a80e6      d2aefc12       add.l -0x3ee(a6), d1
         0x006a80ea      23410300       move.l d1, 0x300(a1)
      > 0x006a80ee      5285           addq.l 0x1, d5
          0x006a80f0      ba83           cmp.l d3, d5
       < 0x006a80f2      6fca           ble.b 0x6a80be
           0x006a80f4      2f2efc12       move.l -0x3ee(a6), -(a7)
           0x006a80f8      2013           move.l (a3), d0
           0x006a80fa      b083           cmp.l d3, d0
       < 0x006a80fc      6302           bls.b 0x6a8100
          0x006a80fe      4e4f           trap 0xf
       > 0x006a8100      e580           asl.l 0x2, d0
           0x006a8102      43f00800       lea.l (a0, d0.l), a1
           0x006a8106      2007           move.l d7, d0
           0x006a8108      d0a90300       add.l 0x300(a1), d0
           0x006a810c      2f00           move.l d0, -(a7)
           0x006a810e      2f280700       move.l 0x700(a0), -(a7)
           0x006a8112      4ebafcdc       jsr TEXTMAV.shuffledown(pc)
           0x006a8116      504f           addq.w 0x8, a7
           0x006a8118      2e87           move.l d7, (a7)
           0x006a811a      5397           subq.l 0x1, (a7)
           0x006a811c      7a00           moveq 0x0, d5
       > 0x006a811e      ba97           cmp.l (a7), d5
      < 0x006a8120      6e3a           bgt.b 0x6a815c
         0x006a8122      2013           move.l (a3), d0
         0x006a8124      b083           cmp.l d3, d0
     < 0x006a8126      6302           bls.b 0x6a812a
        0x006a8128      4e4f           trap 0xf
     > 0x006a812a      e580           asl.l 0x2, d0
         0x006a812c      43f00800       lea.l (a0, d0.l), a1
         0x006a8130      2005           move.l d5, d0
         0x006a8132      d0a90300       add.l 0x300(a1), d0
         0x006a8136      0c80000249f0   cmpi.l 0x249f0, d0
     < 0x006a813c      6302           bls.b 0x6a8140
        0x006a813e      4e4f           trap 0xf
     > 0x006a8140      2279008541d8   movea.l 0x8541d8, a1
         0x006a8146      0c85000003e8   cmpi.l 0x3e8, d5
     < 0x006a814c      6302           bls.b 0x6a8150
        0x006a814e      4e4f           trap 0xf
     > 0x006a8150      244c           movea.l a4, a2
         0x006a8152      13b258140800   move.b 0x14(a2, d5.l), (a1, d0.l)
         0x006a8158      5285           addq.l 0x1, d5
      < 0x006a815a      68c2           bvc.b 0x6a811e
      > 0x006a815c      584f           addq.w 0x4, a7
           0x006a815e      4cdf1fff       movem.l (a7)+, d0-d7/a0-a4
           0x006a8162      4e5e           unlk a6
           0x006a8164      4e75           rts
 256: TEXTMAV.cmd_edit_char ();
           0x006a8166      4e56ff54       link.w a6, 0xff54
           0x006a816a      bfd5           cmpa.l (a5), a7
       < 0x006a816c      6206           bhi.b 0x6a8174
          0x006a816e      44fc0002       move.w 0x2, ccr
          0x006a8172      4e76           trapv
       > 0x006a8174      defc0076       adda.w 0x76, a7
           0x006a8178      48e7fff8       movem.l d0-d7/a0-a4, -(a7)
           0x006a817c      47eeffd6       lea.l -0x2a(a6), a3
           0x006a8180      49eeffda       lea.l -0x26(a6), a4
           0x006a8184      223cffff8000   move.l 0xffff8000, d1
           0x006a818a      243c000000ff   move.l 0xff, d2
           0x006a8190      7601           moveq 0x1, d3
           0x006a8192      7810           moveq 0x10, d4
           0x006a8194      594f           subq.w 0x4, a7
           0x006a8196      48780000       pea.l 0x0
           0x006a819a      487800ff       pea.l 0xff
           0x006a819e      4eb90043e376   jsr G2_EXPRESSION.g_number
           0x006a81a4      504f           addq.w 0x8, a7
           0x006a81a6      2e1f           move.l (a7)+, d7
           0x006a81a8      9e81           sub.l d1, d7
           0x006a81aa      0c870000ffff   cmpi.l 0xffff, d7
       < 0x006a81b0      6302           bls.b 0x6a81b4
          0x006a81b2      4e4f           trap 0xf
       > 0x006a81b4      de81           add.l d1, d7
           0x006a81b6      3f07           move.w d7, -(a7)
           0x006a81b8      48780000       pea.l 0x0
           0x006a81bc      4ebaf3ea       jsr TEXTMAV.type_char(pc)
           0x006a81c0      5c4f           addq.w 0x6, a7
           0x006a81c2      4293           clr.l (a3)
           0x006a81c4      4294           clr.l (a4)
           0x006a81c6      7c00           moveq 0x0, d6
           0x006a81c8      7a00           moveq 0x0, d5
           ; CODE XREF from TEXTMAV @ +0x3688
       > 0x006a81ca      554f           subq.w 0x2, a7
          0x006a81cc      4eb90043cc02   jsr G1_INPUT.g_end_of_line
          0x006a81d2      4a1f           tst.b (a7)+
      < 0x006a81d4      6600016c       bne.w 0x6a8342
         0x006a81d8      9efc0012       suba.w 0x12, a7
         0x006a81dc      4eb90043cefe   jsr G1_INPUT.g_name
         0x006a81e2      2d5fffee       move.l (a7)+, -0x12(a6)
         0x006a81e6      2d5ffff2       move.l (a7)+, -0xe(a6)
         0x006a81ea      2d5ffff6       move.l (a7)+, -0xa(a6)
         0x006a81ee      2d5ffffa       move.l (a7)+, -0x6(a6)
         0x006a81f2      1d5ffffe       move.b (a7)+, -0x2(a6)
         0x006a81f6      2079008541d4   movea.l 0x8541d4, a0
         0x006a81fc      9efc0016       suba.w 0x16, a7
         0x006a8200      224f           movea.l a7, a1
         0x006a8202      45fad5fc       lea.l 0x6a5800(pc), a2
         0x006a8206      7004           moveq 0x4, d0
     > 0x006a8208      22da           move.l (a2)+, (a1)+
     < 0x006a820a      51c8fffc       dbra d0, 0x6a8208
         0x006a820e      12da           move.b (a2)+, (a1)+
         0x006a8210      9efc000e       suba.w 0xe, a7
         0x006a8214      2f2effee       move.l -0x12(a6), -(a7)
         0x006a8218      2f6efff20004   move.l -0xe(a6), 0x4(a7)
         0x006a821e      2f6efff60008   move.l -0xa(a6), 0x8(a7)
         0x006a8224      2f6efffa000c   move.l -0x6(a6), 0xc(a7)
         0x006a822a      1f6efffe0010   move.b -0x2(a6), 0x10(a7)
         0x006a8230      554f           subq.w 0x2, a7
         0x006a8232      486f0014       pea.l 0x14(a7)
         0x006a8236      3f03           move.w d3, -(a7)
         0x006a8238      3f3c0015       move.w 0x15, -(a7)
         0x006a823c      486f000a       pea.l 0xa(a7)
         0x006a8240      4267           clr.w -(a7)
         0x006a8242      3f04           move.w d4, -(a7)
         0x006a8244      4eb9004401ac   jsr G4_LEXICAL.g_compare
         0x006a824a      dec4           adda.w d4, a7
         0x006a824c      301f           move.w (a7)+, d0
         0x006a824e      defc0028       adda.w 0x28, a7
         0x006a8252      5340           subq.w 0x1, d0
         0x006a8254      0c400003       cmpi.w 0x3, d0
     < 0x006a8258      620000c6       bhi.w 0x6a8320
        0x006a825c      d040           add.w d0, d0
        0x006a825e      303b0006       move.w 0x6a8266(pc, d0.w), d0
        0x006a8262      4efb0002       jmp 0x6a8266(pc, d0.w)
         0x006a8266      00080034       
         0x006a8267      08003400       
         0x006a8268      0034005e008c   ori.b 0x5e, -0x74(a4, d0.w)
         0x006a826e      be82           cmp.l d2, d7
     < 0x006a8270      6302           bls.b 0x6a8274
        0x006a8272      4e4f           trap 0xf
     > 0x006a8274      594f           subq.w 0x4, a7
         0x006a8276      10307800       move.b (a0, d7.l), d0
         0x006a827a      4880           ext.w d0
         0x006a827c      4440           neg.w d0
         0x006a827e      48c0           ext.l d0
         0x006a8280      2f00           move.l d0, -(a7)
         0x006a8282      10307800       move.b (a0, d7.l), d0
         0x006a8286      4880           ext.w d0
         0x006a8288      48c0           ext.l d0
         0x006a828a      2f00           move.l d0, -(a7)
         0x006a828c      4eb90043e376   jsr G2_EXPRESSION.g_number
         0x006a8292      504f           addq.w 0x8, a7
         0x006a8294      2c1f           move.l (a7)+, d6
     < 0x006a8296      600000a6       bra.w 0x6a833e
        0x006a829a      be82           cmp.l d2, d7
    < 0x006a829c      6302           bls.b 0x6a82a0
       0x006a829e      4e4f           trap 0xf
    > 0x006a82a0      594f           subq.w 0x4, a7
        0x006a82a2      10307800       move.b (a0, d7.l), d0
        0x006a82a6      4880           ext.w d0
        0x006a82a8      4440           neg.w d0
        0x006a82aa      48c0           ext.l d0
        0x006a82ac      2f00           move.l d0, -(a7)
        0x006a82ae      10307800       move.b (a0, d7.l), d0
        0x006a82b2      4880           ext.w d0
        0x006a82b4      48c0           ext.l d0
        0x006a82b6      2f00           move.l d0, -(a7)
        0x006a82b8      4eb90043e376   jsr G2_EXPRESSION.g_number
        0x006a82be      504f           addq.w 0x8, a7
        0x006a82c0      2a1f           move.l (a7)+, d5
    < 0x006a82c2      607a           bra.b 0x6a833e
       0x006a82c4      be82           cmp.l d2, d7
   < 0x006a82c6      6302           bls.b 0x6a82ca
      0x006a82c8      4e4f           trap 0xf
   > 0x006a82ca      43f07800       lea.l (a0, d7.l), a1
       0x006a82ce      594f           subq.w 0x4, a7
       0x006a82d0      10290100       move.b 0x100(a1), d0
       0x006a82d4      4880           ext.w d0
       0x006a82d6      4440           neg.w d0
       0x006a82d8      48c0           ext.l d0
       0x006a82da      2f00           move.l d0, -(a7)
       0x006a82dc      10290100       move.b 0x100(a1), d0
       0x006a82e0      4880           ext.w d0
       0x006a82e2      48c0           ext.l d0
       0x006a82e4      2f00           move.l d0, -(a7)
       0x006a82e6      4eb90043e376   jsr G2_EXPRESSION.g_number
       0x006a82ec      504f           addq.w 0x8, a7
       0x006a82ee      269f           move.l (a7)+, (a3)
   < 0x006a82f0      604c           bra.b 0x6a833e
      0x006a82f2      be82           cmp.l d2, d7
  < 0x006a82f4      6302           bls.b 0x6a82f8
     0x006a82f6      4e4f           trap 0xf
  > 0x006a82f8      43f07800       lea.l (a0, d7.l), a1
      0x006a82fc      594f           subq.w 0x4, a7
      0x006a82fe      10290100       move.b 0x100(a1), d0
      0x006a8302      4880           ext.w d0
      0x006a8304      4440           neg.w d0
      0x006a8306      48c0           ext.l d0
      0x006a8308      2f00           move.l d0, -(a7)
      0x006a830a      10290100       move.b 0x100(a1), d0
      0x006a830e      4880           ext.w d0
      0x006a8310      48c0           ext.l d0
      0x006a8312      2f00           move.l d0, -(a7)
      0x006a8314      4eb90043e376   jsr G2_EXPRESSION.g_number
      0x006a831a      504f           addq.w 0x8, a7
      0x006a831c      289f           move.l (a7)+, (a4)
  < 0x006a831e      601e           bra.b 0x6a833e
  > 0x006a8320      43fad524       lea.l 0x6a5846(pc), a1
      0x006a8324      700b           moveq 0xb, d0
  > 0x006a8326      2f21           move.l -(a1), -(a7)
  < 0x006a8328      51c8fffc       dbra d0, 0x6a8326
      0x006a832c      4857           pea.l (a7)
      0x006a832e      3f03           move.w d3, -(a7)
      0x006a8330      3f3c0030       move.w 0x30, -(a7)
      0x006a8334      4eb90043cd18   jsr G1_INPUT.g_error
      0x006a833a      defc0038       adda.w 0x38, a7
  < 0x006a833e      6000fe8a       bra.w 0x6a81ca              ; TEXTMAV.cmd_edit_char+0x64
       > 0x006a8342      42aeffe6       clr.l -0x1a(a6)
            0x006a8346      42aeffea       clr.l -0x16(a6)
            0x006a834a      42aeffde       clr.l -0x22(a6)
            0x006a834e      42aeffe2       clr.l -0x1e(a6)
            0x006a8352      4a86           tst.l d6
        < 0x006a8354      6c0a           bge.b 0x6a8360
           0x006a8356      2d46ffde       move.l d6, -0x22(a6)
           0x006a835a      44aeffde       neg.l -0x22(a6)
           0x006a835e      7c00           moveq 0x0, d6
        > 0x006a8360      4a85           tst.l d5
        < 0x006a8362      6c0a           bge.b 0x6a836e
           0x006a8364      2d45ffe2       move.l d5, -0x1e(a6)
           0x006a8368      44aeffe2       neg.l -0x1e(a6)
           0x006a836c      7a00           moveq 0x0, d5
        > 0x006a836e      4a93           tst.l (a3)
        < 0x006a8370      6c0a           bge.b 0x6a837c
           0x006a8372      2d53ffe6       move.l (a3), -0x1a(a6)
           0x006a8376      44aeffe6       neg.l -0x1a(a6)
           0x006a837a      4293           clr.l (a3)
        > 0x006a837c      4a94           tst.l (a4)
        < 0x006a837e      6c0a           bge.b 0x6a838a
           0x006a8380      2d54ffea       move.l (a4), -0x16(a6)
           0x006a8384      44aeffea       neg.l -0x16(a6)
           0x006a8388      4294           clr.l (a4)
        > 0x006a838a      2f07           move.l d7, -(a7)
            0x006a838c      2f06           move.l d6, -(a7)
            0x006a838e      2f05           move.l d5, -(a7)
            0x006a8390      2f13           move.l (a3), -(a7)
            0x006a8392      2f14           move.l (a4), -(a7)
            0x006a8394      2f2effde       move.l -0x22(a6), -(a7)
            0x006a8398      2f2effe2       move.l -0x1e(a6), -(a7)
            0x006a839c      2f2effe6       move.l -0x1a(a6), -(a7)
            0x006a83a0      2f2effea       move.l -0x16(a6), -(a7)
            0x006a83a4      4ebafaca       jsr TEXTMAV.edit_char(pc)
            0x006a83a8      defc0024       adda.w 0x24, a7
            0x006a83ac      9e81           sub.l d1, d7
            0x006a83ae      0c870000ffff   cmpi.l 0xffff, d7
        < 0x006a83b4      6302           bls.b 0x6a83b8
           0x006a83b6      4e4f           trap 0xf
        > 0x006a83b8      de81           add.l d1, d7
            0x006a83ba      3f07           move.w d7, -(a7)
            0x006a83bc      48780000       pea.l 0x0
            0x006a83c0      4ebaf1e6       jsr TEXTMAV.type_char(pc)
            0x006a83c4      5c4f           addq.w 0x6, a7
            0x006a83c6      4cdf1fff       movem.l (a7)+, d0-d7/a0-a4
            0x006a83ca      4e5e           unlk a6
            0x006a83cc      4e75           rts
 84: TEXTMAV.cmd_builtin ();
           0x006a83ce      4e56ffe4       link.w a6, 0xffe4
           0x006a83d2      bfd5           cmpa.l (a5), a7
       < 0x006a83d4      6206           bhi.b 0x6a83dc
          0x006a83d6      44fc0002       move.w 0x2, ccr
          0x006a83da      4e76           trapv
       > 0x006a83dc      defc0018       adda.w 0x18, a7
           0x006a83e0      48e780e0       movem.l d0/a0-a2, -(a7)
           0x006a83e4      45f9008541d8   lea.l 0x8541d8, a2
           0x006a83ea      594f           subq.w 0x4, a7
           0x006a83ec      4eb9006956a6   jsr fcn.006956a6
           0x006a83f2      2d5ffffc       move.l (a7)+, -0x4(a6)
           0x006a83f6      2079008541d4   movea.l 0x8541d4, a0
           0x006a83fc      226efffc       movea.l -0x4(a6), a1
           0x006a8400      303c07ff       move.w 0x7ff, d0
       > 0x006a8404      10d9           move.b (a1)+, (a0)+
       < 0x006a8406      51c8fffc       dbra d0, 0x6a8404
           0x006a840a      594f           subq.w 0x4, a7
           0x006a840c      4eb9006956a6   jsr fcn.006956a6
           0x006a8412      249f           move.l (a7)+, (a2)
           0x006a8414      069200000800   addi.l 0x800, (a2)
           0x006a841a      4cdf0701       movem.l (a7)+, d0/a0-a2
           0x006a841e      4e5e           unlk a6
           0x006a8420      4e75           rts
            ; CALL XREFS from TEXTMAV.cmd_assembler @ 0x6a85a0, 0x6a85d0
 182: TEXTMAV.write_bytes ();
           0x006a8422      4e56ffd8       link.w a6, 0xffd8
           0x006a8426      bfd5           cmpa.l (a5), a7
       < 0x006a8428      6206           bhi.b 0x6a8430
          0x006a842a      44fc0002       move.w 0x2, ccr
          0x006a842e      4e76           trapv
       > 0x006a8430      defc0020       adda.w 0x20, a7
           0x006a8434      48e78380       movem.l d0/d6-d7/a0, -(a7)
           0x006a8438      7e00           moveq 0x0, d7
       > 0x006a843a      beae0008       cmp.l 0x8(a6), d7
      < 0x006a843e      6c000090       bge.w 0x6a84d0
         0x006a8442      487ad403       pea.l 0x6a5847(pc)
         0x006a8446      4878000e       pea.l 0xe
         0x006a844a      2f17           move.l (a7), -(a7)
         0x006a844c      4eb9004047ea   jsr p_wts_o
         0x006a8452      defc000c       adda.w 0xc, a7
         0x006a8456      7c01           moveq 0x1, d6
     > 0x006a8458      beae0008       cmp.l 0x8(a6), d7
    < 0x006a845c      6c3e           bge.b 0x6a849c
       0x006a845e      0c8600000001   cmpi.l 0x1, d6
   < 0x006a8464      6f10           ble.b 0x6a8476
      0x006a8466      1f3c002c       move.b 0x2c, -(a7)
      0x006a846a      48780001       pea.l 0x1
      0x006a846e      4eb9004048b4   jsr p_wtc_o
      0x006a8474      5c4f           addq.w 0x6, a7
   > 0x006a8476      206e000c       movea.l 0xc(a6), a0
       0x006a847a      1010           move.b (a0), d0
       0x006a847c      0280000000ff   andi.l 0xff, d0
       0x006a8482      024000ff       andi.w 0xff, d0
       0x006a8486      48c0           ext.l d0
       0x006a8488      2f00           move.l d0, -(a7)
       0x006a848a      4878fffe       pea.l 0xfffe
       0x006a848e      4eb9004070e4   jsr p_wti_o
       0x006a8494      504f           addq.w 0x8, a7
       0x006a8496      52ae000c       addq.l 0x1, 0xc(a6)
       0x006a849a      5287           addq.l 0x1, d7
    > 0x006a849c      5286           addq.l 0x1, d6
        0x006a849e      0c8600000010   cmpi.l 0x10, d6
     < 0x006a84a4      6fb2           ble.b 0x6a8458
         0x006a84a6      487ad3ae       pea.l 0x6a5856(pc)
         0x006a84aa      4878000a       pea.l 0xa
         0x006a84ae      2f17           move.l (a7), -(a7)
         0x006a84b0      4eb9004047ea   jsr p_wts_o
         0x006a84b6      504f           addq.w 0x8, a7
         0x006a84b8      2e87           move.l d7, (a7)
         0x006a84ba      4878fffc       pea.l 0xfffc
         0x006a84be      4eb9004070e4   jsr p_wti_o
         0x006a84c4      504f           addq.w 0x8, a7
         0x006a84c6      4eb900404946   jsr p_wtln_o
      < 0x006a84cc      6000ff6c       bra.w 0x6a843a
      > 0x006a84d0      4cdf01c1       movem.l (a7)+, d0/d6-d7/a0
           0x006a84d4      4e5e           unlk a6
           0x006a84d6      4e75           rts
 278: TEXTMAV.cmd_assembler ();
           0x006a84d8      4e56ffd4       link.w a6, 0xffd4
           0x006a84dc      bfd5           cmpa.l (a5), a7
       < 0x006a84de      6206           bhi.b 0x6a84e6
          0x006a84e0      44fc0002       move.w 0x2, ccr
          0x006a84e4      4e76           trapv
       > 0x006a84e6      defc002c       adda.w 0x2c, a7
           0x006a84ea      48e7c0f8       movem.l d0-d1/a0-a4, -(a7)
           0x006a84ee      43f900404946   lea.l p_wtln_o, a1
           0x006a84f4      45f9004047ea   lea.l p_wts_o, a2
           0x006a84fa      47f80001       lea.l 0x1, a3
           0x006a84fe      49f9004048b4   lea.l p_wtc_o, a4
           0x006a8504      700c           moveq 0xc, d0
           0x006a8506      722a           moveq 0x2a, d1
           0x006a8508      487ad357       pea.l 0x6a5861(pc)
           0x006a850c      48780022       pea.l 0x22
           0x006a8510      2f17           move.l (a7), -(a7)
           0x006a8512      4e92           jsr (a2)                    ; fcn.00000009+0x2
           0x006a8514      dec0           adda.w d0, a7
           0x006a8516      4e91           jsr (a1)                    ; fcn.0000000a
           0x006a8518      1f01           move.b d1, -(a7)
           0x006a851a      4853           pea.l (a3)
           0x006a851c      4e94           jsr (a4)                    ; fcn.0000000d
           0x006a851e      5c4f           addq.w 0x6, a7
           0x006a8520      4e91           jsr (a1)                    ; fcn.0000000a
           0x006a8522      487ad360       pea.l 0x6a5884(pc)
           0x006a8526      48780012       pea.l 0x12
           0x006a852a      2f17           move.l (a7), -(a7)
           0x006a852c      4e92           jsr (a2)                    ; fcn.00000009+0x2
           0x006a852e      dec0           adda.w d0, a7
           0x006a8530      4e91           jsr (a1)                    ; fcn.0000000a
           0x006a8532      1f01           move.b d1, -(a7)
           0x006a8534      4853           pea.l (a3)
           0x006a8536      4e94           jsr (a4)                    ; fcn.0000000d
           0x006a8538      5c4f           addq.w 0x6, a7
           0x006a853a      4e91           jsr (a1)                    ; fcn.0000000a
           0x006a853c      487ad359       pea.l 0x6a5897(pc)
           0x006a8540      48780028       pea.l 0x28
           0x006a8544      2f17           move.l (a7), -(a7)
           0x006a8546      4e92           jsr (a2)                    ; fcn.00000009+0x2
           0x006a8548      dec0           adda.w d0, a7
           0x006a854a      4e91           jsr (a1)                    ; fcn.0000000a
           0x006a854c      487ad372       pea.l 0x6a58c0(pc)
           0x006a8550      4878001c       pea.l 0x1c
           0x006a8554      2f17           move.l (a7), -(a7)
           0x006a8556      4e92           jsr (a2)                    ; fcn.00000009+0x2
           0x006a8558      dec0           adda.w d0, a7
           0x006a855a      4e91           jsr (a1)                    ; fcn.0000000a
           0x006a855c      487ad37f       pea.l 0x6a58dd(pc)
           0x006a8560      48780024       pea.l 0x24
           0x006a8564      2f17           move.l (a7), -(a7)
           0x006a8566      4e92           jsr (a2)                    ; fcn.00000009+0x2
           0x006a8568      dec0           adda.w d0, a7
           0x006a856a      4e91           jsr (a1)                    ; fcn.0000000a
           0x006a856c      487ad394       pea.l 0x6a5902(pc)
           0x006a8570      4878001c       pea.l 0x1c
           0x006a8574      2f17           move.l (a7), -(a7)
           0x006a8576      4e92           jsr (a2)                    ; fcn.00000009+0x2
           0x006a8578      dec0           adda.w d0, a7
           0x006a857a      4e91           jsr (a1)                    ; fcn.0000000a
           0x006a857c      1f01           move.b d1, -(a7)
           0x006a857e      4853           pea.l (a3)
           0x006a8580      4e94           jsr (a4)                    ; fcn.0000000d
           0x006a8582      5c4f           addq.w 0x6, a7
           0x006a8584      4e91           jsr (a1)                    ; fcn.0000000a
           0x006a8586      487ad397       pea.l 0x6a591f(pc)
           0x006a858a      48780009       pea.l 0x9
           0x006a858e      2f17           move.l (a7), -(a7)
           0x006a8590      4e92           jsr (a2)                    ; fcn.00000009+0x2
           0x006a8592      dec0           adda.w d0, a7
           0x006a8594      4e91           jsr (a1)                    ; fcn.0000000a
           0x006a8596      2f39008541d4   move.l 0x8541d4, -(a7)
           0x006a859c      48780800       pea.l 0x800
           0x006a85a0      4ebafe80       jsr TEXTMAV.write_bytes(pc)
           0x006a85a4      5c4f           addq.w 0x6, a7
           0x006a85a6      1e81           move.b d1, (a7)
           0x006a85a8      4853           pea.l (a3)
           0x006a85aa      4e94           jsr (a4)                    ; fcn.0000000d
           0x006a85ac      5c4f           addq.w 0x6, a7
           0x006a85ae      4e91           jsr (a1)                    ; fcn.0000000a
           0x006a85b0      487ad377       pea.l 0x6a5929(pc)
           0x006a85b4      4878000a       pea.l 0xa
           0x006a85b8      2f17           move.l (a7), -(a7)
           0x006a85ba      4e92           jsr (a2)                    ; fcn.00000009+0x2
           0x006a85bc      dec0           adda.w d0, a7
           0x006a85be      4e91           jsr (a1)                    ; fcn.0000000a
           0x006a85c0      2f39008541d8   move.l 0x8541d8, -(a7)
           0x006a85c6      2079008541d4   movea.l 0x8541d4, a0
           0x006a85cc      2f280700       move.l 0x700(a0), -(a7)
           0x006a85d0      4ebafe50       jsr TEXTMAV.write_bytes(pc)
           0x006a85d4      504f           addq.w 0x8, a7
           0x006a85d6      487ad35c       pea.l 0x6a5934(pc)
           0x006a85da      4878000b       pea.l 0xb
           0x006a85de      2f17           move.l (a7), -(a7)
           0x006a85e0      4e92           jsr (a2)                    ; fcn.00000009+0x2
           0x006a85e2      dec0           adda.w d0, a7
           0x006a85e4      4e91           jsr (a1)                    ; fcn.0000000a
           0x006a85e6      4cdf1f03       movem.l (a7)+, d0-d1/a0-a4
           0x006a85ea      4e5e           unlk a6
           0x006a85ec      4e75           rts
 162: TEXTMAV.cmd_debug ();
           ; var int32_t var_16h @ a7+0x16
           ; var int32_t var_1ah @ a7+0x1a
           ; var int32_t var_1eh @ a7+0x1e
           ; var int32_t var_22h @ a7+0x22
           0x006a85ee      4e56ffac       link.w a6, 0xffac
           0x006a85f2      bfd5           cmpa.l (a5), a7
       < 0x006a85f4      6206           bhi.b 0x6a85fc
          0x006a85f6      44fc0002       move.w 0x2, ccr
          0x006a85fa      4e76           trapv
       > 0x006a85fc      defc0054       adda.w 0x54, a7
           0x006a8600      48e7f080       movem.l d0-d3/a0, -(a7)
           0x006a8604      41f9008541dc   lea.l 0x8541dc, a0
           0x006a860a      7201           moveq 0x1, d1
           0x006a860c      742c           moveq 0x2c, d2
           0x006a860e      7610           moveq 0x10, d3
           0x006a8610      2f3ad330       move.l 0x6a5942(pc), -(a7)
           0x006a8614      3f3ad32a       move.w 0x6a5940(pc), -(a7)
           0x006a8618      9efc0012       suba.w 0x12, a7
           0x006a861c      4eb90043cefe   jsr G1_INPUT.g_name
           0x006a8622      9efc000e       suba.w 0xe, a7
           0x006a8626      2f2f000e       move.l 0xe(a7), -(a7)
           0x006a862a      2f6f00160004   move.l 0x16(a7), 0x4(a7)
           0x006a8630      2f6f001a0008   move.l 0x1a(a7), 0x8(a7)
           0x006a8636      2f6f001e000c   move.l 0x1e(a7), 0xc(a7)
           0x006a863c      1f6f00220010   move.b 0x22(a7), 0x10(a7)
           0x006a8642      554f           subq.w 0x2, a7
           0x006a8644      486f0026       pea.l 0x26(a7)
           0x006a8648      3f01           move.w d1, -(a7)
           0x006a864a      3f3c0006       move.w 0x6, -(a7)
           0x006a864e      486f000a       pea.l 0xa(a7)
           0x006a8652      4267           clr.w -(a7)
           0x006a8654      3f03           move.w d3, -(a7)
           0x006a8656      4eb9004401ac   jsr G4_LEXICAL.g_compare
           0x006a865c      dec3           adda.w d3, a7
           0x006a865e      3017           move.w (a7), d0
           0x006a8660      b041           cmp.w d1, d0
       < 0x006a8662      6708           beq.b 0x6a866c
          0x006a8664      0c400002       cmpi.w 0x2, d0
      < 0x006a8668      6708           beq.b 0x6a8672
     < 0x006a866a      600c           bra.b 0x6a8678
     > 0x006a866c      1081           move.b d1, (a0)
         0x006a866e      dec2           adda.w d2, a7
     < 0x006a8670      6018           bra.b 0x6a868a
     > 0x006a8672      4210           clr.b (a0)
         0x006a8674      dec2           adda.w d2, a7
     < 0x006a8676      6012           bra.b 0x6a868a
     > 0x006a8678      1010           move.b (a0), d0
         0x006a867a      4400           neg.b d0
         0x006a867c      5200           addq.b 0x1, d0
         0x006a867e      4880           ext.w d0
         0x006a8680      4181           chk.w d1, d0
         0x006a8682      1080           move.b d0, (a0)
         0x006a8684      dec2           adda.w d2, a7
     < 0x006a8686      6002           bra.b 0x6a868a
         0x006a8688      dec2           adda.w d2, a7
     > 0x006a868a      4cdf010f       movem.l (a7)+, d0-d3/a0
           0x006a868e      4e5e           unlk a6
           0x006a8690      4e75           rts
 22: TEXTMAV.cmd_add_menufon ();
           0x006a8692      4e56fffc       link.w a6, 0xfffc
           0x006a8696      bfd5           cmpa.l (a5), a7
       < 0x006a8698      6206           bhi.b 0x6a86a0
          0x006a869a      44fc0002       move.w 0x2, ccr
          0x006a869e      4e76           trapv
       > 0x006a86a0      defc0004       adda.w 0x4, a7
           0x006a86a4      4e5e           unlk a6
           0x006a86a6      4e75           rts
            ; CALL XREF from HANDCOM.hand_init @ 0x634df2
 460: TEXTMAV.menufont_init ();
           0x006a86a8      4e56ffac       link.w a6, 0xffac
           0x006a86ac      bfd5           cmpa.l (a5), a7
       < 0x006a86ae      6206           bhi.b 0x6a86b6
          0x006a86b0      44fc0002       move.w 0x2, ccr
          0x006a86b4      4e76           trapv
       > 0x006a86b6      defc004c       adda.w 0x4c, a7
           0x006a86ba      48e7f8f0       movem.l d0-d4/a0-a3, -(a7)
           0x006a86be      45f90043b79c   lea.l G0_MAIN.g_new_command, a2
           0x006a86c4      7201           moveq 0x1, d1
           0x006a86c6      7420           moveq 0x20, d2
           0x006a86c8      7612           moveq 0x12, d3
           0x006a86ca      780e           moveq 0xe, d4
           0x006a86cc      4239008541dc   clr.b 0x8541dc
           0x006a86d2      9ec3           suba.w d3, a7
           0x006a86d4      2f3ad270       move.l 0x6a5946(pc), -(a7)
           0x006a86d8      3f7ad2700004   move.w 0x6a594a(pc), 0x4(a7)
           0x006a86de      1f01           move.b d1, -(a7)
           0x006a86e0      48780001       pea.l 0x1
           0x006a86e4      486d0010       pea.l 0x10(a5)
           0x006a86e8      48790043bb9a   pea.l G0_MAIN.g_no_action
           0x006a86ee      4e92           jsr (a2)                    ; fcn.00000009+0x2
           0x006a86f0      dec2           adda.w d2, a7
           0x006a86f2      265f           movea.l (a7)+, a3
           0x006a86f4      9ec3           suba.w d3, a7
           0x006a86f6      2f3ad254       move.l 0x6a594c(pc), -(a7)
           0x006a86fa      1f7ad2540004   move.b 0x6a5950(pc), 0x4(a7)
           0x006a8700      1f01           move.b d1, -(a7)
           0x006a8702      2f0b           move.l a3, -(a7)
           0x006a8704      486efff8       pea.l -0x8(a6)
           0x006a8708      487af5de       pea.l TEXTMAV.cmd_type_char(pc)
           0x006a870c      4e92           jsr (a2)                    ; fcn.00000009+0x2
           0x006a870e      dec2           adda.w d2, a7
           0x006a8710      2d57fffc       move.l (a7), -0x4(a6)
           0x006a8714      9ec3           suba.w d3, a7
           0x006a8716      204f           movea.l a7, a0
           0x006a8718      43fad237       lea.l 0x6a5951(pc), a1
           0x006a871c      7004           moveq 0x4, d0
       > 0x006a871e      10d9           move.b (a1)+, (a0)+
       < 0x006a8720      51c8fffc       dbra d0, 0x6a871e
           0x006a8724      1f01           move.b d1, -(a7)
           0x006a8726      2f0b           move.l a3, -(a7)
           0x006a8728      486efff8       pea.l -0x8(a6)
           0x006a872c      487afa38       pea.l TEXTMAV.cmd_edit_char(pc)
           0x006a8730      4e92           jsr (a2)                    ; fcn.00000009+0x2
           0x006a8732      dec2           adda.w d2, a7
           0x006a8734      2d57fffc       move.l (a7), -0x4(a6)
           0x006a8738      9ec4           suba.w d4, a7
           0x006a873a      2f3ad21a       move.l 0x6a5956(pc), -(a7)
           0x006a873e      1f7ad21a0004   move.b 0x6a595a(pc), 0x4(a7)
           0x006a8744      1f01           move.b d1, -(a7)
           0x006a8746      2f0b           move.l a3, -(a7)
           0x006a8748      486efff8       pea.l -0x8(a6)
           0x006a874c      487af5f2       pea.l TEXTMAV.cmd_read_menufo(pc)
           0x006a8750      4e92           jsr (a2)                    ; fcn.00000009+0x2
           0x006a8752      dec2           adda.w d2, a7
           0x006a8754      2d57fffc       move.l (a7), -0x4(a6)
           0x006a8758      9ec3           suba.w d3, a7
           0x006a875a      204f           movea.l a7, a0
           0x006a875c      43fad1fd       lea.l 0x6a595b(pc), a1
           0x006a8760      7004           moveq 0x4, d0
       > 0x006a8762      10d9           move.b (a1)+, (a0)+
       < 0x006a8764      51c8fffc       dbra d0, 0x6a8762
           0x006a8768      1f01           move.b d1, -(a7)
           0x006a876a      2f0b           move.l a3, -(a7)
           0x006a876c      486efff8       pea.l -0x8(a6)
           0x006a8770      487af626       pea.l TEXTMAV.cmd_save_menufo(pc)
           0x006a8774      4e92           jsr (a2)                    ; fcn.00000009+0x2
           0x006a8776      dec2           adda.w d2, a7
           0x006a8778      2d57fffc       move.l (a7), -0x4(a6)
           0x006a877c      9ec4           suba.w d4, a7
           0x006a877e      2f3ad1e0       move.l 0x6a5960(pc), -(a7)
           0x006a8782      2f7ad1e00004   move.l 0x6a5964(pc), 0x4(a7)
           0x006a8788      1f01           move.b d1, -(a7)
           0x006a878a      2f0b           move.l a3, -(a7)
           0x006a878c      486efff8       pea.l -0x8(a6)
           0x006a8790      487afc3c       pea.l TEXTMAV.cmd_builtin(pc)
           0x006a8794      4e92           jsr (a2)                    ; fcn.00000009+0x2
           0x006a8796      dec2           adda.w d2, a7
           0x006a8798      2d57fffc       move.l (a7), -0x4(a6)
           0x006a879c      9ec4           suba.w d4, a7
           0x006a879e      2f3ad1c8       move.l 0x6a5968(pc), -(a7)
           0x006a87a2      2f7ad1c80004   move.l 0x6a596c(pc), 0x4(a7)
           0x006a87a8      3f7ad1c60008   move.w 0x6a5970(pc), 0x8(a7)
           0x006a87ae      1f01           move.b d1, -(a7)
           0x006a87b0      2f0b           move.l a3, -(a7)
           0x006a87b2      486efff8       pea.l -0x8(a6)
           0x006a87b6      487afd20       pea.l TEXTMAV.cmd_assembler(pc)
           0x006a87ba      4e92           jsr (a2)                    ; fcn.00000009+0x2
           0x006a87bc      dec2           adda.w d2, a7
           0x006a87be      2d57fffc       move.l (a7), -0x4(a6)
           0x006a87c2      9ec4           suba.w d4, a7
           0x006a87c4      2f3ad1ac       move.l 0x6a5972(pc), -(a7)
           0x006a87c8      3f7ad1ac0004   move.w 0x6a5976(pc), 0x4(a7)
           0x006a87ce      1f01           move.b d1, -(a7)
           0x006a87d0      2f0b           move.l a3, -(a7)
           0x006a87d2      486efff8       pea.l -0x8(a6)
           0x006a87d6      487afe16       pea.l TEXTMAV.cmd_debug(pc)
           0x006a87da      4e92           jsr (a2)                    ; fcn.00000009+0x2
           0x006a87dc      dec2           adda.w d2, a7
           0x006a87de      2d5ffffc       move.l (a7)+, -0x4(a6)
           0x006a87e2      23fac4e20085.  move.l 0x6a4cc6(pc), 0x8541ca.l
           0x006a87ea      23fac4de0085.  move.l 0x6a4cca(pc), 0x8541ce.l
           0x006a87f2      33fac4da0085.  move.w 0x6a4cce(pc), 0x8541d2.l
           0x006a87fa      23fac4ca0085.  move.l 0x6a4cc6(pc), 0x851d42.l
           0x006a8802      23fac4c60085.  move.l 0x6a4cca(pc), 0x851d46.l
           0x006a880a      33fac4c20085.  move.w 0x6a4cce(pc), 0x851d4a.l
           0x006a8812      48780001       pea.l 0x1
           0x006a8816      23d700851d50   move.l (a7), 0x851d50
           0x006a881c      23fac4a80085.  move.l 0x6a4cc6(pc), 0x852968.l
           0x006a8824      23fac4a40085.  move.l 0x6a4cca(pc), 0x85296c.l
           0x006a882c      33fac4a00085.  move.w 0x6a4cce(pc), 0x852970.l
           0x006a8834      23d700852976   move.l (a7), 0x852976
           0x006a883a      23fac48a0085.  move.l 0x6a4cc6(pc), 0x85358e.l
           0x006a8842      23fac4860085.  move.l 0x6a4cca(pc), 0x853592.l
           0x006a884a      33fac4820085.  move.w 0x6a4cce(pc), 0x853596.l
           0x006a8852      23df0085359c   move.l (a7)+, 0x85359c
           0x006a8858      23c1008541d8   move.l d1, 0x8541d8
           0x006a885e      23c1008541d4   move.l d1, 0x8541d4
           0x006a8864      4ebaec84       jsr TEXTMAV.init_fontdata(pc)
           0x006a8868      4ebaf42c       jsr TEXTMAV.load_menufonts(pc)
           0x006a886c      4cdf0f1f       movem.l (a7)+, d0-d4/a0-a3
           0x006a8870      4e5e           unlk a6
