            ;-- THREEDMAV:
            0x00679f22      .byte 0x00
            0x00679f23      .byte 0x00
            0x00679f24      .byte 0x00
            0x00679f25      .byte 0x00
            0x00679f26      .byte 0x00
            0x00679f27      .byte 0x00
            0x00679f28      .byte 0x00
            0x00679f29      .byte 0x00
            0x00679f2a      .byte 0x00
            0x00679f2b      .byte 0x00
            0x00679f2c      .byte 0x00
            0x00679f2d      .byte 0x00
            0x00679f2e      .byte 0x02
            0x00679f2f      .byte 0xd0
            0x00679f30      .byte 0x02
            0x00679f31      .byte 0xd8
            0x00679f32      .byte 0x00
            0x00679f33      .byte 0x00
            0x00679f34      .byte 0x00
            0x00679f35      .byte 0x00
            0x00679f36      .byte 0x02
            0x00679f37      .byte 0xd0
            0x00679f38      .byte 0x02
            0x00679f39      .byte 0xd8
            0x00679f3a      .byte 0x00
            0x00679f3b      .byte 0x00
            0x00679f3c      .byte 0x00
            0x00679f3d      .byte 0x80
            0x00679f3e      .byte 0x02
            0x00679f3f      .byte 0xd0
            0x00679f40      .byte 0x02
            0x00679f41      .byte 0x40
            0x00679f42      .byte 0x02
            0x00679f43      .byte 0xd0
            0x00679f44      .byte 0x00
            0x00679f45      .byte 0x80
            0x00679f46      .byte 0x02
            0x00679f47      .byte 0xd0
            0x00679f48      .byte 0x02
            0x00679f49      .byte 0x40
            0x00679f4a      .byte 0x00
            0x00679f4b      .byte 0x00
            0x00679f4c      .byte 0x03
            0x00679f4d      .byte 0x40
            0x00679f4e      .byte 0x02
            0x00679f4f      .byte 0xd0
            0x00679f50      .byte 0x02
            0x00679f51      .byte 0x40
            0x00679f52      .byte 0x02
            0x00679f53      .byte 0xd0
            0x00679f54      .byte 0x03
            0x00679f55      .byte 0x40
            0x00679f56      .byte 0x02
            0x00679f57      .byte 0xd0
            0x00679f58      .byte 0x02
            0x00679f59      .byte 0x40
            0x00679f5a      .byte 0x00
            0x00679f5b      .byte 0x00
            0x00679f5c      .byte 0x00
            0x00679f5d      .byte 0x00
            0x00679f5e      .byte 0x02
            0x00679f5f      .byte 0x98
            0x00679f60      .byte 0x02
            0x00679f61      .byte 0x88
            0x00679f62      .byte 0x02
            0x00679f63      .byte 0x98
            0x00679f64      .byte 0x00
            0x00679f65      .byte 0x00
            0x00679f66      .byte 0x02
            0x00679f67      .byte 0x98
            0x00679f68      .byte 0x02
            0x00679f69      .byte 0x88
            0x00679f6a      .byte 0x00
            0x00679f6b      .byte 0x00
            0x00679f6c      .byte 0x02
            0x00679f6d      .byte 0x88
            0x00679f6e      .byte 0x02
            0x00679f6f      .byte 0x98
            0x00679f70      .byte 0x02
            0x00679f71      .byte 0x88
            0x00679f72      .byte 0x02
            0x00679f73      .byte 0x98
            0x00679f74      .byte 0x02
            0x00679f75      .byte 0x88
            0x00679f76      .byte 0x02
            0x00679f77      .byte 0x98
            0x00679f78      .byte 0x02
            0x00679f79      .byte 0x88
            0x00679f7a      .byte 0x00
            0x00679f7b      .byte 0x00
            0x00679f7c      .byte 0x00
            0x00679f7d      .byte 0x00
            0x00679f7e      .byte 0x05
            0x00679f7f      .byte 0xa0
            0x00679f80      .byte 0x05
            0x00679f81      .byte 0xb0
            0x00679f82      .byte 0x00
            0x00679f83      .byte 0x00
            0x00679f84      .byte 0x00
            0x00679f85      .byte 0x00
            0x00679f86      .byte 0x02
            0x00679f87      .byte 0xd0
            0x00679f88      .byte 0x02
            0x00679f89      .byte 0xd8
            0x00679f8a      .byte 0x00
            0x00679f8b      .byte 0xc8
            0x00679f8c      .byte 0x00
            0x00679f8d      .byte 0x0c
            0x00679f8e      .byte 0x01
            0x00679f8f      .byte 0xb8
            0x00679f90      .byte 0x00
            0x00679f91      .byte 0x6c
            0x00679f92      .byte 0x00
            0x00679f93      .byte 0x00
            0x00679f94      .byte 0x00
            0x00679f95      .byte 0x00
            0x00679f96      .byte 0x02
            0x00679f97      .byte 0xd0
            0x00679f98      .byte 0x00
            0x00679f99      .byte 0x80
            0x00679f9a      .byte 0x00
            0x00679f9b      .byte 0x00
            0x00679f9c      .byte 0x00
            0x00679f9d      .byte 0x00
            0x00679f9e      .byte 0x02
            0x00679f9f      .byte 0xd0
            0x00679fa0      .byte 0x01
            0x00679fa1      .byte 0xe8
            0x00679fa2      .byte 0x00
            0x00679fa3      .byte 0x00
            0x00679fa4      .byte 0x00
            0x00679fa5      .byte 0x00
            0x00679fa6      .byte 0x02
            0x00679fa7      .byte 0xd0
            0x00679fa8      .byte 0x02
            0x00679fa9      .byte 0x40
            0x00679faa      .byte 0x00
            0x00679fab      .byte 0x00
            0x00679fac      .byte 0x00
            0x00679fad      .byte 0x00
            0x00679fae      .byte 0x0b
            0x00679faf      .byte 0x40
            0x00679fb0      .byte 0x0b
            0x00679fb1      .byte 0x60
            0x00679fb2      .byte 0x02
            0x00679fb3      .byte 0xc7
            0x00679fb4      .byte 0x01
            0x00679fb5      .byte 0xe5
            0x00679fb6      .byte 0x03
            0x00679fb7      .byte 0x00
            0x00679fb8      .byte 0x01
            0x00679fb9      .byte 0xe4
            0x00679fba      .byte 0x02
            0x00679fbb      .byte 0xbd
            0x00679fbc      .byte 0x02
            0x00679fbd      .byte 0x3f
            0x00679fbe      .byte 0x3f
            0x00679fbf      .byte 0x80
            0x00679fc0      .byte 0x00
            0x00679fc1      .byte 0x00
            0x00679fc2      .byte 0x00
            0x00679fc3      .byte 0x00
            0x00679fc4      .byte 0x00
            0x00679fc5      .byte 0x00
            0x00679fc6      .byte 0x00
            0x00679fc7      .byte 0x00
            0x00679fc8      .byte 0x00
            0x00679fc9      .byte 0x00
            0x00679fca      .byte 0x00
            0x00679fcb      .byte 0x00
            0x00679fcc      .byte 0x00
            0x00679fcd      .byte 0x00
            0x00679fce      .byte 0x00
            0x00679fcf      .byte 0x00
            0x00679fd0      .byte 0x00
            0x00679fd1      .byte 0x00
            0x00679fd2      .byte 0x3f
            0x00679fd3      .byte 0x80
            0x00679fd4      .byte 0x00
            0x00679fd5      .byte 0x00
            0x00679fd6      .byte 0x00
            0x00679fd7      .byte 0x00
            0x00679fd8      .byte 0x00
            0x00679fd9      .byte 0x00
            0x00679fda      .byte 0x00
            0x00679fdb      .byte 0x00
            0x00679fdc      .byte 0x00
            0x00679fdd      .byte 0x00
            0x00679fde      .byte 0x00
            0x00679fdf      .byte 0x00
            0x00679fe0      .byte 0x00
            0x00679fe1      .byte 0x00
            0x00679fe2      .byte 0x00
            0x00679fe3      .byte 0x00
            0x00679fe4      .byte 0x00
            0x00679fe5      .byte 0x00
            0x00679fe6      .byte 0x3f
            0x00679fe7      .byte 0x80
            0x00679fe8      .byte 0x00
            0x00679fe9      .byte 0x00
            0x00679fea      .byte 0x00
            0x00679feb      .byte 0x00
            0x00679fec      .byte 0x00
            0x00679fed      .byte 0x00
            0x00679fee      .byte 0x3f
            0x00679fef      .byte 0x80
            0x00679ff0      .byte 0x00
            0x00679ff1      .byte 0x00
            0x00679ff2      .byte 0x3f
            0x00679ff3      .byte 0x80
            0x00679ff4      .byte 0x00
            0x00679ff5      .byte 0x00
            0x00679ff6      .byte 0x3f
            0x00679ff7      .byte 0x80
            0x00679ff8      .byte 0x00
            0x00679ff9      .byte 0x00
            0x00679ffa      .byte 0x00
            0x00679ffb      .byte 0x00
            0x00679ffc      .byte 0x00
            0x00679ffd      .byte 0x00
            0x00679ffe      .byte 0x00
            0x00679fff      .byte 0x00
            0x0067a000      .byte 0x00
            0x0067a001      .byte 0x00
            0x0067a002      .byte 0x00
            0x0067a003      .byte 0x00
            0x0067a004      .byte 0x00
            0x0067a005      .byte 0x00
            0x0067a006      .byte 0x01
            0x0067a007      .byte 0x20
            0x0067a008      .byte 0x01
            0x0067a009      .byte 0x20
            0x0067a00a      .byte 0x0f
            0x0067a00b      .byte 0x00
            0x0067a00c      .byte 0x05
            0x0067a00d      .byte 0x00
            0x0067a00e      .byte 0x06
            0x0067a00f      .byte 0x00
            0x0067a010      .byte 0x05
            0x0067a011      .byte 0x00
            0x0067a012      .byte 0x06
            0x0067a013      .byte 0x00
            0x0067a014      .byte 0x05
            0x0067a015      .byte 0x00
            0x0067a016      .byte 0x06
            0x0067a017      .byte 0x00
            0x0067a018      .byte 0x05
            0x0067a019      .byte 0x00
            0x0067a01a      .byte 0x06
            0x0067a01b      .byte 0x00
            0x0067a01c      .byte 0x05
            0x0067a01d      .byte 0x00
            0x0067a01e      .byte 0x06
            0x0067a01f      .byte 0x00
            0x0067a020      .byte 0x05
            0x0067a021      .byte 0x00
            0x0067a022      .byte 0x06
            0x0067a023      .byte 0x00
            0x0067a024      .byte 0x05
            0x0067a025      .byte 0x00
            0x0067a026      .byte 0x06
            0x0067a027      .byte 0x00
            0x0067a028      .byte 0x0f
            0x0067a029      .byte 0x00
            0x0067a02a      .byte 0x0f
            0x0067a02b     .string "extract spin - " ; len=15
            0x0067a03a      .byte 0x10
            0x0067a03b     .string "other extract - " ; len=16
            0x0067a04b      .byte 0x00
            0x0067a04c      .byte 0x06
            0x0067a04d      .byte 0x00
            0x0067a04e      .byte 0x06
            0x0067a04f      .byte 0x05
            0x0067a050     .string "pos  " ; len=5
            0x0067a055      .byte 0x02
            0x0067a056      .byte 0x2c
            0x0067a057      .byte 0x20
            0x0067a058      .byte 0x02
            0x0067a059      .byte 0x2c
            0x0067a05a      .byte 0x20
            0x0067a05b      .byte 0x05
            0x0067a05c     .string "spin " ; len=5
            0x0067a061      .byte 0x02
            0x0067a062      .byte 0x2c
            0x0067a063      .byte 0x20
            0x0067a064      .byte 0x02
            0x0067a065      .byte 0x2c
            0x0067a066      .byte 0x20
            0x0067a067      .byte 0x05
            0x0067a068     .string "size " ; len=5
            0x0067a06d      .byte 0x02
            0x0067a06e      .byte 0x2c
            0x0067a06f      .byte 0x20
            0x0067a070      .byte 0x02
            0x0067a071      .byte 0x2c
            0x0067a072      .byte 0x20
            0x0067a073      .byte 0x05
            0x0067a074     .string "view " ; len=5
            0x0067a079      .byte 0x02
            0x0067a07a      .byte 0x2c
            0x0067a07b      .byte 0x20
            0x0067a07c      .byte 0x02
            0x0067a07d      .byte 0x2c
            0x0067a07e      .byte 0x20
            0x0067a07f      .byte 0x00
            0x0067a080      .byte 0x00
            0x0067a081      .byte 0x00
            0x0067a082      .byte 0x00
            0x0067a083      .byte 0x00
            0x0067a084      .byte 0x00
            0x0067a085      .byte 0x00
            0x0067a086      .byte 0x00
            0x0067a087      .byte 0x00
            0x0067a088      .byte 0x00
            0x0067a089      .byte 0x00
            0x0067a08a      .byte 0x00
            0x0067a08b      .byte 0x00
            0x0067a08c      .byte 0x0d
            0x0067a08d      .byte 0x73
            0x0067a08e      .byte 0x6d
            0x0067a08f      .byte 0x61
            0x0067a090      .byte 0x6c
            0x0067a091      .byte 0x6c
            0x0067a092      .byte 0x20
            0x0067a093      .byte 0x64
            0x0067a094      .byte 0x69
            0x0067a095      .byte 0x76
            0x0067a096      .byte 0x69
            0x0067a097      .byte 0x73
            0x0067a098      .byte 0x6f
            0x0067a099      .byte 0x72
┌ 20: THREEDMAV.dot ();
│           0x0067a09a      4e56ffe4       link.w a6, 0xffe4
│           0x0067a09e      bfd5           cmpa.l (a5), a7
│       ┌─< 0x0067a0a0      6206           bhi.b 0x67a0a8
│       │   0x0067a0a2      44fc0002       move.w 0x2, ccr
│       │   0x0067a0a6      4e76           trapv
│       └─> 0x0067a0a8      defc001c       adda.w 0x1c, a7
│           0x0067a0ac      f227e003       fmovem fp0-fp1, -(a7)
            0x0067a0b0      f22e44000014   fmove.s 0x14(a6), fp0
            0x0067a0b6      f22e44230008   fmul.s 0x8(a6), fp0
            0x0067a0bc      f22e44800018   fmove.s 0x18(a6), fp1
            0x0067a0c2      f22e44a3000c   fmul.s 0xc(a6), fp1
            0x0067a0c8      f20000a2       fadd fp0, fp1
            0x0067a0cc      f22e4400001c   fmove.s 0x1c(a6), fp0
            0x0067a0d2      f22e44230010   fmul.s 0x10(a6), fp0
            0x0067a0d8      f2000422       fadd fp1, fp0
            0x0067a0dc      f22e64000020   fmove.s fp0, 0x20(a6)
            0x0067a0e2      f21fd0c0       fmovem (a7)+, fp0-fp1
            0x0067a0e6      4e5e           unlk a6
            0x0067a0e8      4e75           rts
┌ 20: THREEDMAV.normalise ();
│           0x0067a0ea      4e56ffc8       link.w a6, 0xffc8
│           0x0067a0ee      bfd5           cmpa.l (a5), a7
│       ┌─< 0x0067a0f0      6206           bhi.b 0x67a0f8
│       │   0x0067a0f2      44fc0002       move.w 0x2, ccr
│       │   0x0067a0f6      4e76           trapv
│       └─> 0x0067a0f8      defc0028       adda.w 0x28, a7
│           0x0067a0fc      f227e083       fmovem fp0-fp1/fp7, -(a7)
            0x0067a100      f22e44000008   fmove.s 0x8(a6), fp0
            0x0067a106      f2000023       fmul fp0, fp0
            0x0067a10a      f22e4480000c   fmove.s 0xc(a6), fp1
            0x0067a110      f20004a3       fmul fp1, fp1
            0x0067a114      f20000a2       fadd fp0, fp1
            0x0067a118      f22e44000010   fmove.s 0x10(a6), fp0
            0x0067a11e      f2000023       fmul fp0, fp0
            0x0067a122      f2000422       fadd fp1, fp0
            0x0067a126      f2000384       fsqrt fp0, fp7
            0x0067a12a      f23c44003f80.  fmove.s 1, fp0
            0x0067a132      f2001c20       fdiv fp7, fp0
            0x0067a136      f2000380       fmove fp0, fp7
            0x0067a13a      f22e44000008   fmove.s 0x8(a6), fp0
            0x0067a140      f2001c23       fmul fp7, fp0
            0x0067a144      f22e6400fff4   fmove.s fp0, -0xc(a6)
            0x0067a14a      f22e4400000c   fmove.s 0xc(a6), fp0
            0x0067a150      f2001c23       fmul fp7, fp0
            0x0067a154      f22e6400fff8   fmove.s fp0, -0x8(a6)
            0x0067a15a      f22e44000010   fmove.s 0x10(a6), fp0
            0x0067a160      f2001c23       fmul fp7, fp0
            0x0067a164      f22e6400fffc   fmove.s fp0, -0x4(a6)
            0x0067a16a      2d6efff40014   move.l -0xc(a6), 0x14(a6)
            0x0067a170      2d6efff80018   move.l -0x8(a6), 0x18(a6)
            0x0067a176      2d6efffc001c   move.l -0x4(a6), 0x1c(a6)
            0x0067a17c      f21fd0c1       fmovem (a7)+, fp0-fp1/fp7
            0x0067a180      4e5e           unlk a6
            0x0067a182      4e75           rts
┌ 20: THREEDMAV.xyz_add ();
│           0x0067a184      4e56ffe4       link.w a6, 0xffe4
│           0x0067a188      bfd5           cmpa.l (a5), a7
│       ┌─< 0x0067a18a      6206           bhi.b 0x67a192
│       │   0x0067a18c      44fc0002       move.w 0x2, ccr
│       │   0x0067a190      4e76           trapv
│       └─> 0x0067a192      defc0010       adda.w 0x10, a7
│           0x0067a196      f227e001       fmovem fp0, -(a7)
            0x0067a19a      f22e44000014   fmove.s 0x14(a6), fp0
            0x0067a1a0      f22e44220008   fadd.s 0x8(a6), fp0
            0x0067a1a6      f22e6400fff4   fmove.s fp0, -0xc(a6)
            0x0067a1ac      f22e44000018   fmove.s 0x18(a6), fp0
            0x0067a1b2      f22e4422000c   fadd.s 0xc(a6), fp0
            0x0067a1b8      f22e6400fff8   fmove.s fp0, -0x8(a6)
            0x0067a1be      f22e4400001c   fmove.s 0x1c(a6), fp0
            0x0067a1c4      f22e44220010   fadd.s 0x10(a6), fp0
            0x0067a1ca      f22e6400fffc   fmove.s fp0, -0x4(a6)
            0x0067a1d0      2d6efff40020   move.l -0xc(a6), 0x20(a6)
            0x0067a1d6      2d6efff80024   move.l -0x8(a6), 0x24(a6)
            0x0067a1dc      2d6efffc0028   move.l -0x4(a6), 0x28(a6)
            0x0067a1e2      f21fd080       fmovem (a7)+, fp0
            0x0067a1e6      4e5e           unlk a6
            0x0067a1e8      4e75           rts
┌ 20: THREEDMAV.xyz_sub ();
│           0x0067a1ea      4e56ffe4       link.w a6, 0xffe4
│           0x0067a1ee      bfd5           cmpa.l (a5), a7
│       ┌─< 0x0067a1f0      6206           bhi.b 0x67a1f8
│       │   0x0067a1f2      44fc0002       move.w 0x2, ccr
│       │   0x0067a1f6      4e76           trapv
│       └─> 0x0067a1f8      defc0010       adda.w 0x10, a7
│           0x0067a1fc      f227e001       fmovem fp0, -(a7)
            0x0067a200      f22e44000014   fmove.s 0x14(a6), fp0
            0x0067a206      f22e44280008   fsub.s 0x8(a6), fp0
            0x0067a20c      f22e6400fff4   fmove.s fp0, -0xc(a6)
            0x0067a212      f22e44000018   fmove.s 0x18(a6), fp0
            0x0067a218      f22e4428000c   fsub.s 0xc(a6), fp0
            0x0067a21e      f22e6400fff8   fmove.s fp0, -0x8(a6)
            0x0067a224      f22e4400001c   fmove.s 0x1c(a6), fp0
            0x0067a22a      f22e44280010   fsub.s 0x10(a6), fp0
            0x0067a230      f22e6400fffc   fmove.s fp0, -0x4(a6)
            0x0067a236      2d6efff40020   move.l -0xc(a6), 0x20(a6)
            0x0067a23c      2d6efff80024   move.l -0x8(a6), 0x24(a6)
            0x0067a242      2d6efffc0028   move.l -0x4(a6), 0x28(a6)
            0x0067a248      f21fd080       fmovem (a7)+, fp0
            0x0067a24c      4e5e           unlk a6
            0x0067a24e      4e75           rts
┌ 24: THREEDMAV.xyz_scale ();
│           0x0067a250      4e56ffe0       link.w a6, 0xffe0
│           0x0067a254      bfd5           cmpa.l (a5), a7
│       ┌─< 0x0067a256      6206           bhi.b 0x67a25e
│       │   0x0067a258      44fc0002       move.w 0x2, ccr
│       │   0x0067a25c      4e76           trapv
│       └─> 0x0067a25e      defc0014       adda.w 0x14, a7
│           0x0067a262      48e70080       movem.l a0, -(a7)
│           0x0067a266      f227e001       fmovem fp0, -(a7)
            0x0067a26a      41ee0008       lea.l 0x8(a6), a0
            0x0067a26e      f22e4400000c   fmove.s 0xc(a6), fp0
            0x0067a274      f2104423       fmul.s (a0), fp0
            0x0067a278      f22e6400fff4   fmove.s fp0, -0xc(a6)
            0x0067a27e      f22e44000010   fmove.s 0x10(a6), fp0
            0x0067a284      f2104423       fmul.s (a0), fp0
            0x0067a288      f22e6400fff8   fmove.s fp0, -0x8(a6)
            0x0067a28e      f22e44000014   fmove.s 0x14(a6), fp0
            0x0067a294      f2104423       fmul.s (a0), fp0
            0x0067a298      f22e6400fffc   fmove.s fp0, -0x4(a6)
            0x0067a29e      2d6efff40018   move.l -0xc(a6), 0x18(a6)
            0x0067a2a4      2d6efff8001c   move.l -0x8(a6), 0x1c(a6)
            0x0067a2aa      2d6efffc0020   move.l -0x4(a6), 0x20(a6)
            0x0067a2b0      f21fd080       fmovem (a7)+, fp0
            0x0067a2b4      4cdf0100       movem.l (a7)+, a0
            0x0067a2b8      4e5e           unlk a6
            0x0067a2ba      4e75           rts
┌ 330: THREEDMAV.xyz_string ();
│           0x0067a2bc      4e56fdc2       link.w a6, 0xfdc2
│           0x0067a2c0      bfd5           cmpa.l (a5), a7
│       ┌─< 0x0067a2c2      6206           bhi.b 0x67a2ca
│       │   0x0067a2c4      44fc0002       move.w 0x2, ccr
│       │   0x0067a2c8      4e76           trapv
│       └─> 0x0067a2ca      defc003e       adda.w 0x3e, a7
│           0x0067a2ce      48e7f8f8       movem.l d0-d4/a0-a4, -(a7)
│           0x0067a2d2      45eefe00       lea.l -0x200(a6), a2
│           0x0067a2d6      47eeff00       lea.l -0x100(a6), a3
│           0x0067a2da      49f900406c8a   lea.l p_strovr, a4
│           0x0067a2e0      363c00ff       move.w 0xff, d3
│           0x0067a2e4      7812           moveq 0x12, d4
│           0x0067a2e6      2f2e0010       move.l 0x10(a6), -(a7)
│           0x0067a2ea      2f2e000c       move.l 0xc(a6), -(a7)
│           0x0067a2ee      2f2e0008       move.l 0x8(a6), -(a7)
│           0x0067a2f2      4852           pea.l (a2)
│           0x0067a2f4      3f03           move.w d3, -(a7)
│           0x0067a2f6      4eb90043a136   jsr P17_FRDWRT.p_strf2
│           0x0067a2fc      defc000e       adda.w 0xe, a7
│           0x0067a300      2eae0014       move.l 0x14(a6), (a7)
│           0x0067a304      2f2e000c       move.l 0xc(a6), -(a7)
│           0x0067a308      2f2e0008       move.l 0x8(a6), -(a7)
│           0x0067a30c      4853           pea.l (a3)
│           0x0067a30e      3f03           move.w d3, -(a7)
│           0x0067a310      4eb90043a136   jsr P17_FRDWRT.p_strf2
│           0x0067a316      dec4           adda.w d4, a7
│           0x0067a318      4240           clr.w d0
│           0x0067a31a      1012           move.b (a2), d0
│           0x0067a31c      41f60120fe01   lea.l 0xfe01(a6, d0.w), a0
│           0x0067a322      7201           moveq 0x1, d1
│           0x0067a324      d200           add.b d0, d1
│       ┌─< 0x0067a326      6402           bcc.b 0x67a32a
│       │   0x0067a328      4e94           jsr (a4)                    ; fcn.0000000d
│       └─> 0x0067a32a      7201           moveq 0x1, d1
│           0x0067a32c      3403           move.w d3, d2
│           0x0067a32e      9440           sub.w d0, d2
│           0x0067a330      b242           cmp.w d2, d1
│       ┌─< 0x0067a332      6302           bls.b 0x67a336
│       │   0x0067a334      3202           move.w d2, d1
│       └─> 0x0067a336      d312           add.b d1, (a2)
│           0x0067a338      5301           subq.b 0x1, d1
│       ┌─< 0x0067a33a      650a           bcs.b 0x67a346
│       │   0x0067a33c      43fafcc9       lea.l 0x67a007(pc), a1
│      ┌──> 0x0067a340      10d9           move.b (a1)+, (a0)+
│      └──< 0x0067a342      51c9fffc       dbra d1, 0x67a340
│       └─> 0x0067a346      4240           clr.w d0
│           0x0067a348      1012           move.b (a2), d0
│           0x0067a34a      41f60120fe01   lea.l 0xfe01(a6, d0.w), a0
│           0x0067a350      4241           clr.w d1
│           0x0067a352      1213           move.b (a3), d1
│           0x0067a354      d200           add.b d0, d1
│       ┌─< 0x0067a356      6402           bcc.b 0x67a35a
│       │   0x0067a358      4e94           jsr (a4)                    ; fcn.0000000d
│       └─> 0x0067a35a      4241           clr.w d1
│           0x0067a35c      1213           move.b (a3), d1
│           0x0067a35e      3403           move.w d3, d2
│           0x0067a360      9440           sub.w d0, d2
│           0x0067a362      b242           cmp.w d2, d1
│       ┌─< 0x0067a364      6302           bls.b 0x67a368
│       │   0x0067a366      3202           move.w d2, d1
│       └─> 0x0067a368      d312           add.b d1, (a2)
│           0x0067a36a      5301           subq.b 0x1, d1
│       ┌─< 0x0067a36c      650a           bcs.b 0x67a378
│       │   0x0067a36e      43eeff01       lea.l -0xff(a6), a1
│      ┌──> 0x0067a372      10d9           move.b (a1)+, (a0)+
│      └──< 0x0067a374      51c9fffc       dbra d1, 0x67a372
│       └─> 0x0067a378      2f2e0018       move.l 0x18(a6), -(a7)
│           0x0067a37c      2f2e000c       move.l 0xc(a6), -(a7)
│           0x0067a380      2f2e0008       move.l 0x8(a6), -(a7)
│           0x0067a384      4853           pea.l (a3)
│           0x0067a386      3f03           move.w d3, -(a7)
│           0x0067a388      4eb90043a136   jsr P17_FRDWRT.p_strf2
│           0x0067a38e      dec4           adda.w d4, a7
│           0x0067a390      4240           clr.w d0
│           0x0067a392      1012           move.b (a2), d0
│           0x0067a394      41f60120fe01   lea.l 0xfe01(a6, d0.w), a0
│           0x0067a39a      7201           moveq 0x1, d1
│           0x0067a39c      d200           add.b d0, d1
│       ┌─< 0x0067a39e      6402           bcc.b 0x67a3a2
│       │   0x0067a3a0      4e94           jsr (a4)                    ; fcn.0000000d
│       └─> 0x0067a3a2      7201           moveq 0x1, d1
│           0x0067a3a4      3403           move.w d3, d2
│           0x0067a3a6      9440           sub.w d0, d2
│           0x0067a3a8      b242           cmp.w d2, d1
│       ┌─< 0x0067a3aa      6302           bls.b 0x67a3ae
│       │   0x0067a3ac      3202           move.w d2, d1
│       └─> 0x0067a3ae      d312           add.b d1, (a2)
│           0x0067a3b0      5301           subq.b 0x1, d1
│       ┌─< 0x0067a3b2      650a           bcs.b 0x67a3be
│       │   0x0067a3b4      43fafc53       lea.l 0x67a009(pc), a1
│      ┌──> 0x0067a3b8      10d9           move.b (a1)+, (a0)+
│      └──< 0x0067a3ba      51c9fffc       dbra d1, 0x67a3b8
│       └─> 0x0067a3be      4240           clr.w d0
│           0x0067a3c0      1012           move.b (a2), d0
│           0x0067a3c2      41f60120fe01   lea.l 0xfe01(a6, d0.w), a0
│           0x0067a3c8      4241           clr.w d1
│           0x0067a3ca      1213           move.b (a3), d1
│           0x0067a3cc      d200           add.b d0, d1
│       ┌─< 0x0067a3ce      6402           bcc.b 0x67a3d2
│       │   0x0067a3d0      4e94           jsr (a4)                    ; fcn.0000000d
│       └─> 0x0067a3d2      4241           clr.w d1
│           0x0067a3d4      1213           move.b (a3), d1
│           0x0067a3d6      3403           move.w d3, d2
│           0x0067a3d8      9440           sub.w d0, d2
│           0x0067a3da      b242           cmp.w d2, d1
│       ┌─< 0x0067a3dc      6302           bls.b 0x67a3e0
│       │   0x0067a3de      3202           move.w d2, d1
│       └─> 0x0067a3e0      d312           add.b d1, (a2)
│           0x0067a3e2      5301           subq.b 0x1, d1
│       ┌─< 0x0067a3e4      650a           bcs.b 0x67a3f0
│       │   0x0067a3e6      43eeff01       lea.l -0xff(a6), a1
│      ┌──> 0x0067a3ea      10d9           move.b (a1)+, (a0)+
│      └──< 0x0067a3ec      51c9fffc       dbra d1, 0x67a3ea
│       └─> 0x0067a3f0      41ee001c       lea.l 0x1c(a6), a0
│           0x0067a3f4      224a           movea.l a2, a1
│           0x0067a3f6      703f           moveq 0x3f, d0
│       ┌─> 0x0067a3f8      20d9           move.l (a1)+, (a0)+
│       └─< 0x0067a3fa      51c8fffc       dbra d0, 0x67a3f8
│           0x0067a3fe      4cdf1f1f       movem.l (a7)+, d0-d4/a0-a4
│           0x0067a402      4e5e           unlk a6
└           0x0067a404      4e75           rts
            ; CALL XREFS from PASTECOM.calc_transforms @ 0x67039c, 0x6703fe
┌ 58: THREEDMAV.xyz_point (int32_t arg_8h, int32_t arg_ch, int32_t arg_10h);
│           ; var int32_t var_ch @ a6-0xc
│           ; var int32_t var_8h @ a6-0x8
│           ; var int32_t var_4h @ a6-0x4
│           ; arg int32_t arg_8h @ a6+0x8
│           ; arg int32_t arg_ch @ a6+0xc
│           ; arg int32_t arg_10h @ a6+0x10
│           0x0067a406      4e56fff0       link.w a6, 0xfff0
│           0x0067a40a      bfd5           cmpa.l (a5), a7
│       ┌─< 0x0067a40c      6206           bhi.b 0x67a414
│       │   0x0067a40e      44fc0002       move.w 0x2, ccr
│       │   0x0067a412      4e76           trapv
│       └─> 0x0067a414      defc0004       adda.w 0x4, a7
│           0x0067a418      2d6e0010fff4   move.l 0x10(a6), -0xc(a6)
│           0x0067a41e      2d6e000cfff8   move.l 0xc(a6), -0x8(a6)
│           0x0067a424      2d6e0008fffc   move.l 0x8(a6), -0x4(a6)
│           0x0067a42a      2d6efff40014   move.l -0xc(a6), 0x14(a6)
│           0x0067a430      2d6efff80018   move.l -0x8(a6), 0x18(a6)
│           0x0067a436      2d6efffc001c   move.l -0x4(a6), 0x1c(a6)
│           0x0067a43c      4e5e           unlk a6
└           0x0067a43e      4e75           rts
┌ 20: THREEDMAV.xy_xyz_point ();
│           0x0067a440      4e56ffe4       link.w a6, 0xffe4
│           0x0067a444      bfd5           cmpa.l (a5), a7
│       ┌─< 0x0067a446      6206           bhi.b 0x67a44e
│       │   0x0067a448      44fc0002       move.w 0x2, ccr
│       │   0x0067a44c      4e76           trapv
│       └─> 0x0067a44e      defc0010       adda.w 0x10, a7
│           0x0067a452      f227e001       fmovem fp0, -(a7)
            0x0067a456      2d6e0008fff4   move.l 0x8(a6), -0xc(a6)
            0x0067a45c      2d6e000cfff8   move.l 0xc(a6), -0x8(a6)
            0x0067a462      f23c40000000.  fmove.l 0x0, fp0
            0x0067a46a      f22e6400fffc   fmove.s fp0, -0x4(a6)
            0x0067a470      2d6efff40010   move.l -0xc(a6), 0x10(a6)
            0x0067a476      2d6efff80014   move.l -0x8(a6), 0x14(a6)
            0x0067a47c      2d6efffc0018   move.l -0x4(a6), 0x18(a6)
            0x0067a482      f21fd080       fmovem (a7)+, fp0
            0x0067a486      4e5e           unlk a6
            0x0067a488      4e75           rts
            ; CALL XREFS from PASTECOM.calc_transforms @ 0x66ffe0, 0x670050, 0x6704fc
            ; CALL XREFS from PASTECOM.calc_string @ 0x6705d4, 0x670638
┌ 24: THREEDMAV.multiply_transf ();
│           0x0067a48a      4e56ffcc       link.w a6, 0xffcc
│           0x0067a48e      bfd5           cmpa.l (a5), a7
│       ┌─< 0x0067a490      6206           bhi.b 0x67a498
│       │   0x0067a492      44fc0002       move.w 0x2, ccr
│       │   0x0067a496      4e76           trapv
│       └─> 0x0067a498      defc0034       adda.w 0x34, a7
│           0x0067a49c      48e700e0       movem.l a0-a2, -(a7)
│           0x0067a4a0      f227e003       fmovem fp0-fp1, -(a7)
            0x0067a4a4      206e0008       movea.l 0x8(a6), a0
            0x0067a4a8      226e0010       movea.l 0x10(a6), a1
            0x0067a4ac      246e000c       movea.l 0xc(a6), a2
            0x0067a4b0      f2114400       fmove.s (a1), fp0
            0x0067a4b4      f2124423       fmul.s (a2), fp0
            0x0067a4b8      f22944800010   fmove.s 0x10(a1), fp1
            0x0067a4be      f22a44a30004   fmul.s 0x4(a2), fp1
            0x0067a4c4      f20000a2       fadd fp0, fp1
            0x0067a4c8      f22944000020   fmove.s 0x20(a1), fp0
            0x0067a4ce      f22a44230008   fmul.s 0x8(a2), fp0
            0x0067a4d4      f2000422       fadd fp1, fp0
            0x0067a4d8      f2106400       fmove.s fp0, (a0)
            0x0067a4dc      f22944000004   fmove.s 0x4(a1), fp0
            0x0067a4e2      f2124423       fmul.s (a2), fp0
            0x0067a4e6      f22944800014   fmove.s 0x14(a1), fp1
            0x0067a4ec      f22a44a30004   fmul.s 0x4(a2), fp1
            0x0067a4f2      f20000a2       fadd fp0, fp1
            0x0067a4f6      f22944000024   fmove.s 0x24(a1), fp0
            0x0067a4fc      f22a44230008   fmul.s 0x8(a2), fp0
            0x0067a502      f2000422       fadd fp1, fp0
            0x0067a506      f22864000004   fmove.s fp0, 0x4(a0)
            0x0067a50c      f22944000008   fmove.s 0x8(a1), fp0
            0x0067a512      f2124423       fmul.s (a2), fp0
            0x0067a516      f22944800018   fmove.s 0x18(a1), fp1
            0x0067a51c      f22a44a30004   fmul.s 0x4(a2), fp1
            0x0067a522      f20000a2       fadd fp0, fp1
            0x0067a526      f22944000028   fmove.s 0x28(a1), fp0
            0x0067a52c      f22a44230008   fmul.s 0x8(a2), fp0
            0x0067a532      f2000422       fadd fp1, fp0
            0x0067a536      f22864000008   fmove.s fp0, 0x8(a0)
            0x0067a53c      f2114400       fmove.s (a1), fp0
            0x0067a540      f22a44230010   fmul.s 0x10(a2), fp0
            0x0067a546      f22944800010   fmove.s 0x10(a1), fp1
            0x0067a54c      f22a44a30014   fmul.s 0x14(a2), fp1
            0x0067a552      f20000a2       fadd fp0, fp1
            0x0067a556      f22944000020   fmove.s 0x20(a1), fp0
            0x0067a55c      f22a44230018   fmul.s 0x18(a2), fp0
            0x0067a562      f2000422       fadd fp1, fp0
            0x0067a566      f22864000010   fmove.s fp0, 0x10(a0)
            0x0067a56c      f22944000004   fmove.s 0x4(a1), fp0
            0x0067a572      f22a44230010   fmul.s 0x10(a2), fp0
            0x0067a578      f22944800014   fmove.s 0x14(a1), fp1
            0x0067a57e      f22a44a30014   fmul.s 0x14(a2), fp1
            0x0067a584      f20000a2       fadd fp0, fp1
            0x0067a588      f22944000024   fmove.s 0x24(a1), fp0
            0x0067a58e      f22a44230018   fmul.s 0x18(a2), fp0
            0x0067a594      f2000422       fadd fp1, fp0
            0x0067a598      f22864000014   fmove.s fp0, 0x14(a0)
            0x0067a59e      f22944000008   fmove.s 0x8(a1), fp0
            0x0067a5a4      f22a44230010   fmul.s 0x10(a2), fp0
            0x0067a5aa      f22944800018   fmove.s 0x18(a1), fp1
            0x0067a5b0      f22a44a30014   fmul.s 0x14(a2), fp1
            0x0067a5b6      f20000a2       fadd fp0, fp1
            0x0067a5ba      f22944000028   fmove.s 0x28(a1), fp0
            0x0067a5c0      f22a44230018   fmul.s 0x18(a2), fp0
            0x0067a5c6      f2000422       fadd fp1, fp0
            0x0067a5ca      f22864000018   fmove.s fp0, 0x18(a0)
            0x0067a5d0      f2114400       fmove.s (a1), fp0
            0x0067a5d4      f22a44230020   fmul.s 0x20(a2), fp0
            0x0067a5da      f22944800010   fmove.s 0x10(a1), fp1
            0x0067a5e0      f22a44a30024   fmul.s 0x24(a2), fp1
            0x0067a5e6      f20000a2       fadd fp0, fp1
            0x0067a5ea      f22944000020   fmove.s 0x20(a1), fp0
            0x0067a5f0      f22a44230028   fmul.s 0x28(a2), fp0
            0x0067a5f6      f2000422       fadd fp1, fp0
            0x0067a5fa      f22864000020   fmove.s fp0, 0x20(a0)
            0x0067a600      f22944000004   fmove.s 0x4(a1), fp0
            0x0067a606      f22a44230020   fmul.s 0x20(a2), fp0
            0x0067a60c      f22944800014   fmove.s 0x14(a1), fp1
            0x0067a612      f22a44a30024   fmul.s 0x24(a2), fp1
            0x0067a618      f20000a2       fadd fp0, fp1
            0x0067a61c      f22944000024   fmove.s 0x24(a1), fp0
            0x0067a622      f22a44230028   fmul.s 0x28(a2), fp0
            0x0067a628      f2000422       fadd fp1, fp0
            0x0067a62c      f22864000024   fmove.s fp0, 0x24(a0)
            0x0067a632      f22944000008   fmove.s 0x8(a1), fp0
            0x0067a638      f22a44230020   fmul.s 0x20(a2), fp0
            0x0067a63e      f22944800018   fmove.s 0x18(a1), fp1
            0x0067a644      f22a44a30024   fmul.s 0x24(a2), fp1
            0x0067a64a      f20000a2       fadd fp0, fp1
            0x0067a64e      f22944000028   fmove.s 0x28(a1), fp0
            0x0067a654      f22a44230028   fmul.s 0x28(a2), fp0
            0x0067a65a      f2000422       fadd fp1, fp0
            0x0067a65e      f22864000028   fmove.s fp0, 0x28(a0)
            0x0067a664      4a2e0014       tst.b 0x14(a6)
        ┌─< 0x0067a668      670000dc       beq.w 0x67a746
        │   0x0067a66c      f2294400000c   fmove.s 0xc(a1), fp0
        │   0x0067a672      f2124423       fmul.s (a2), fp0
        │   0x0067a676      f22a44230030   fmul.s 0x30(a2), fp0
        │   0x0067a67c      f2294480001c   fmove.s 0x1c(a1), fp1
        │   0x0067a682      f22a44a30004   fmul.s 0x4(a2), fp1
        │   0x0067a688      f22a44a30034   fmul.s 0x34(a2), fp1
        │   0x0067a68e      f20000a2       fadd fp0, fp1
        │   0x0067a692      f2294400002c   fmove.s 0x2c(a1), fp0
        │   0x0067a698      f22a44230008   fmul.s 0x8(a2), fp0
        │   0x0067a69e      f2000422       fadd fp1, fp0
        │   0x0067a6a2      f22a44230038   fmul.s 0x38(a2), fp0
        │   0x0067a6a8      f22a4422000c   fadd.s 0xc(a2), fp0
        │   0x0067a6ae      f2286400000c   fmove.s fp0, 0xc(a0)
        │   0x0067a6b4      f2294400000c   fmove.s 0xc(a1), fp0
        │   0x0067a6ba      f22a44230010   fmul.s 0x10(a2), fp0
        │   0x0067a6c0      f22a44230030   fmul.s 0x30(a2), fp0
        │   0x0067a6c6      f2294480001c   fmove.s 0x1c(a1), fp1
        │   0x0067a6cc      f22a44a30014   fmul.s 0x14(a2), fp1
        │   0x0067a6d2      f22a44a30034   fmul.s 0x34(a2), fp1
        │   0x0067a6d8      f20000a2       fadd fp0, fp1
        │   0x0067a6dc      f2294400002c   fmove.s 0x2c(a1), fp0
        │   0x0067a6e2      f22a44230018   fmul.s 0x18(a2), fp0
        │   0x0067a6e8      f2000422       fadd fp1, fp0
        │   0x0067a6ec      f22a44230038   fmul.s 0x38(a2), fp0
        │   0x0067a6f2      f22a4422001c   fadd.s 0x1c(a2), fp0
        │   0x0067a6f8      f2286400001c   fmove.s fp0, 0x1c(a0)
        │   0x0067a6fe      f2294400000c   fmove.s 0xc(a1), fp0
        │   0x0067a704      f22a44230020   fmul.s 0x20(a2), fp0
        │   0x0067a70a      f22a44230030   fmul.s 0x30(a2), fp0
        │   0x0067a710      f2294480001c   fmove.s 0x1c(a1), fp1
        │   0x0067a716      f22a44a30024   fmul.s 0x24(a2), fp1
        │   0x0067a71c      f22a44a30034   fmul.s 0x34(a2), fp1
        │   0x0067a722      f20000a2       fadd fp0, fp1
        │   0x0067a726      f2294400002c   fmove.s 0x2c(a1), fp0
        │   0x0067a72c      f22a44230028   fmul.s 0x28(a2), fp0
        │   0x0067a732      f2000422       fadd fp1, fp0
        │   0x0067a736      f22a44230038   fmul.s 0x38(a2), fp0
        │   0x0067a73c      f22a4422002c   fadd.s 0x2c(a2), fp0
       ┌──< 0x0067a742      600000a2       bra.w 0x67a7e6
       │└─> 0x0067a746      f2294400000c   fmove.s 0xc(a1), fp0
       │    0x0067a74c      f2124423       fmul.s (a2), fp0
       │    0x0067a750      f22a4422000c   fadd.s 0xc(a2), fp0
       │    0x0067a756      f2294480001c   fmove.s 0x1c(a1), fp1
       │    0x0067a75c      f22a44a30004   fmul.s 0x4(a2), fp1
       │    0x0067a762      f20000a2       fadd fp0, fp1
       │    0x0067a766      f2294400002c   fmove.s 0x2c(a1), fp0
       │    0x0067a76c      f22a44230008   fmul.s 0x8(a2), fp0
       │    0x0067a772      f2000422       fadd fp1, fp0
       │    0x0067a776      f2286400000c   fmove.s fp0, 0xc(a0)
       │    0x0067a77c      f2294400000c   fmove.s 0xc(a1), fp0
       │    0x0067a782      f22a44230010   fmul.s 0x10(a2), fp0
       │    0x0067a788      f22a4422001c   fadd.s 0x1c(a2), fp0
       │    0x0067a78e      f2294480001c   fmove.s 0x1c(a1), fp1
       │    0x0067a794      f22a44a30014   fmul.s 0x14(a2), fp1
       │    0x0067a79a      f20000a2       fadd fp0, fp1
       │    0x0067a79e      f2294400002c   fmove.s 0x2c(a1), fp0
       │    0x0067a7a4      f22a44230018   fmul.s 0x18(a2), fp0
       │    0x0067a7aa      f2000422       fadd fp1, fp0
       │    0x0067a7ae      f2286400001c   fmove.s fp0, 0x1c(a0)
       │    0x0067a7b4      f2294400000c   fmove.s 0xc(a1), fp0
       │    0x0067a7ba      f22a44230020   fmul.s 0x20(a2), fp0
       │    0x0067a7c0      f22a4422002c   fadd.s 0x2c(a2), fp0
       │    0x0067a7c6      f2294480001c   fmove.s 0x1c(a1), fp1
       │    0x0067a7cc      f22a44a30024   fmul.s 0x24(a2), fp1
       │    0x0067a7d2      f20000a2       fadd fp0, fp1
       │    0x0067a7d6      f2294400002c   fmove.s 0x2c(a1), fp0
       │    0x0067a7dc      f22a44230028   fmul.s 0x28(a2), fp0
       │    0x0067a7e2      f2000422       fadd fp1, fp0
       └──> 0x0067a7e6      f2286400002c   fmove.s fp0, 0x2c(a0)
            0x0067a7ec      f21fd0c0       fmovem (a7)+, fp0-fp1
            0x0067a7f0      4cdf0700       movem.l (a7)+, a0-a2
            0x0067a7f4      4e5e           unlk a6
            0x0067a7f6      4e75           rts
            ; CALL XREF from MENU3DCOM.PAS.update_graphics @ 0x50b926
┌ 24: THREEDMAV.calc_triad ();
│           0x0067a7f8      4e56ff68       link.w a6, 0xff68
│           0x0067a7fc      bfd5           cmpa.l (a5), a7
│       ┌─< 0x0067a7fe      6206           bhi.b 0x67a806
│       │   0x0067a800      44fc0002       move.w 0x2, ccr
│       │   0x0067a804      4e76           trapv
│       └─> 0x0067a806      defc0058       adda.w 0x58, a7
│           0x0067a80a      48e7c0f8       movem.l d0-d1/a0-a4, -(a7)
│           0x0067a80e      f227e0c3       fmovem fp0-fp1/fp6-fp7, -(a7)
            0x0067a812      45ee0020       lea.l 0x20(a6), a2
            0x0067a816      47ee0030       lea.l 0x30(a6), a3
            0x0067a81a      49ee0014       lea.l 0x14(a6), a4
            0x0067a81e      7000           moveq 0x0, d0
            0x0067a820      223c3727c5ac   move.l 0x3727c5ac, d1
            0x0067a826      206e000c       movea.l 0xc(a6), a0
            0x0067a82a      226e0010       movea.l 0x10(a6), a1
            0x0067a82e      f22947000038   fmove.s 0x38(a1), fp6
            0x0067a834      f22e4723004c   fmul.s 0x4c(a6), fp6
            0x0067a83a      f22e4400001c   fmove.s 0x1c(a6), fp0
            0x0067a840      f2001823       fmul fp6, fp0
            0x0067a844      f22e6400001c   fmove.s fp0, 0x1c(a6)
            0x0067a84a      f22e4400002c   fmove.s 0x2c(a6), fp0
            0x0067a850      f2001823       fmul fp6, fp0
            0x0067a854      f22e6400002c   fmove.s fp0, 0x2c(a6)
            0x0067a85a      f22e4400003c   fmove.s 0x3c(a6), fp0
            0x0067a860      f2001823       fmul fp6, fp0
            0x0067a864      f22e6400003c   fmove.s fp0, 0x3c(a6)
            0x0067a86a      f2001b80       fmove fp6, fp7
            0x0067a86e      f22947a30030   fmul.s 0x30(a1), fp7
            0x0067a874      f22e47a30044   fmul.s 0x44(a6), fp7
            0x0067a87a      f2144400       fmove.s (a4), fp0
            0x0067a87e      f2001c23       fmul fp7, fp0
            0x0067a882      f2146400       fmove.s fp0, (a4)
            0x0067a886      f22e44000024   fmove.s 0x24(a6), fp0
            0x0067a88c      f2001c23       fmul fp7, fp0
            0x0067a890      f22e64000024   fmove.s fp0, 0x24(a6)
            0x0067a896      f22e44000034   fmove.s 0x34(a6), fp0
            0x0067a89c      f2001c23       fmul fp7, fp0
            0x0067a8a0      f22e64000034   fmove.s fp0, 0x34(a6)
            0x0067a8a6      f2001b80       fmove fp6, fp7
            0x0067a8aa      f22947a30034   fmul.s 0x34(a1), fp7
            0x0067a8b0      f22e47a30048   fmul.s 0x48(a6), fp7
            0x0067a8b6      f22e44000018   fmove.s 0x18(a6), fp0
            0x0067a8bc      f2001c23       fmul fp7, fp0
            0x0067a8c0      f22e64000018   fmove.s fp0, 0x18(a6)
            0x0067a8c6      f22e44000028   fmove.s 0x28(a6), fp0
            0x0067a8cc      f2001c23       fmul fp7, fp0
            0x0067a8d0      f22e64000028   fmove.s fp0, 0x28(a6)
            0x0067a8d6      f22e44000038   fmove.s 0x38(a6), fp0
            0x0067a8dc      f2001c23       fmul fp7, fp0
            0x0067a8e0      f22e64000038   fmove.s fp0, 0x38(a6)
            0x0067a8e6      f22e44000034   fmove.s 0x34(a6), fp0
            0x0067a8ec      f22844230004   fmul.s 0x4(a0), fp0
            0x0067a8f2      f2144480       fmove.s (a4), fp1
            0x0067a8f6      f20000a2       fadd fp0, fp1
            0x0067a8fa      f2146480       fmove.s fp1, (a4)
            0x0067a8fe      f22e44000038   fmove.s 0x38(a6), fp0
            0x0067a904      f22844230004   fmul.s 0x4(a0), fp0
            0x0067a90a      f22e44800018   fmove.s 0x18(a6), fp1
            0x0067a910      f20000a2       fadd fp0, fp1
            0x0067a914      f22e64800018   fmove.s fp1, 0x18(a6)
            0x0067a91a      f22e44000040   fmove.s 0x40(a6), fp0
            0x0067a920      f22844230004   fmul.s 0x4(a0), fp0
            0x0067a926      f2124480       fmove.s (a2), fp1
            0x0067a92a      f20000a2       fadd fp0, fp1
            0x0067a92e      f2126480       fmove.s fp1, (a2)
            0x0067a932      f22e44000034   fmove.s 0x34(a6), fp0
            0x0067a938      f22844230008   fmul.s 0x8(a0), fp0
            0x0067a93e      f22e44800024   fmove.s 0x24(a6), fp1
            0x0067a944      f20000a2       fadd fp0, fp1
            0x0067a948      f22e64800024   fmove.s fp1, 0x24(a6)
            0x0067a94e      f22e44000038   fmove.s 0x38(a6), fp0
            0x0067a954      f22844230008   fmul.s 0x8(a0), fp0
            0x0067a95a      f22e44800028   fmove.s 0x28(a6), fp1
            0x0067a960      f20000a2       fadd fp0, fp1
            0x0067a964      f22e64800028   fmove.s fp1, 0x28(a6)
            0x0067a96a      f22e44000040   fmove.s 0x40(a6), fp0
            0x0067a970      f22844230008   fmul.s 0x8(a0), fp0
            0x0067a976      f2134480       fmove.s (a3), fp1
            0x0067a97a      f20000a2       fadd fp0, fp1
            0x0067a97e      f2136480       fmove.s fp1, (a3)
            0x0067a982      f2104700       fmove.s (a0), fp6
            0x0067a986      f22e47220040   fadd.s 0x40(a6), fp6
            0x0067a98c      f2001818       fabs fp6, fp0
            0x0067a990      f2014438       fcmp.s d1, fp0
            0x0067a994      f29b0008       fbf.w 0x67a99e
            0x0067a998      f2004380       fmove.l d0, fp7
        ┌─< 0x0067a99c      6008           bra.b 0x67a9a6
        │   0x0067a99e      f2104780       fmove.s (a0), fp7
        │   0x0067a9a2      f2001ba0       fdiv fp6, fp7
        └─> 0x0067a9a6      226e0008       movea.l 0x8(a6), a1
            0x0067a9aa      f2124400       fmove.s (a2), fp0
            0x0067a9ae      f2001c23       fmul fp7, fp0
            0x0067a9b2      f2116400       fmove.s fp0, (a1)
            0x0067a9b6      f2134400       fmove.s (a3), fp0
            0x0067a9ba      f2001c23       fmul fp7, fp0
            0x0067a9be      f22964000004   fmove.s fp0, 0x4(a1)
            0x0067a9c4      f22e4400001c   fmove.s 0x1c(a6), fp0
            0x0067a9ca      f2124422       fadd.s (a2), fp0
            0x0067a9ce      f2001c23       fmul fp7, fp0
            0x0067a9d2      f22964000018   fmove.s fp0, 0x18(a1)
            0x0067a9d8      f22e4400002c   fmove.s 0x2c(a6), fp0
            0x0067a9de      f2134422       fadd.s (a3), fp0
            0x0067a9e2      f2001c23       fmul fp7, fp0
            0x0067a9e6      f2296400001c   fmove.s fp0, 0x1c(a1)
            0x0067a9ec      f2104400       fmove.s (a0), fp0
            0x0067a9f0      f22e44220034   fadd.s 0x34(a6), fp0
            0x0067a9f6      f22e44220040   fadd.s 0x40(a6), fp0
            0x0067a9fc      f2000300       fmove fp0, fp6
            0x0067aa00      f2001818       fabs fp6, fp0
            0x0067aa04      f2014438       fcmp.s d1, fp0
            0x0067aa08      f29b0008       fbf.w 0x67aa12
            0x0067aa0c      f2004380       fmove.l d0, fp7
        ┌─< 0x0067aa10      6008           bra.b 0x67aa1a
        │   0x0067aa12      f2104780       fmove.s (a0), fp7
        │   0x0067aa16      f2001ba0       fdiv fp6, fp7
        └─> 0x0067aa1a      f2144400       fmove.s (a4), fp0
            0x0067aa1e      f2124422       fadd.s (a2), fp0
            0x0067aa22      f2001c23       fmul fp7, fp0
            0x0067aa26      f22964000008   fmove.s fp0, 0x8(a1)
            0x0067aa2c      f22e44000024   fmove.s 0x24(a6), fp0
            0x0067aa32      f2134422       fadd.s (a3), fp0
            0x0067aa36      f2001c23       fmul fp7, fp0
            0x0067aa3a      f2296400000c   fmove.s fp0, 0xc(a1)
            0x0067aa40      f2104400       fmove.s (a0), fp0
            0x0067aa44      f22e44220038   fadd.s 0x38(a6), fp0
            0x0067aa4a      f22e44220040   fadd.s 0x40(a6), fp0
            0x0067aa50      f2000300       fmove fp0, fp6
            0x0067aa54      f2001818       fabs fp6, fp0
            0x0067aa58      f2014438       fcmp.s d1, fp0
            0x0067aa5c      f29b0008       fbf.w 0x67aa66
            0x0067aa60      f2004380       fmove.l d0, fp7
        ┌─< 0x0067aa64      6008           bra.b 0x67aa6e
        │   0x0067aa66      f2104780       fmove.s (a0), fp7
        │   0x0067aa6a      f2001ba0       fdiv fp6, fp7
        └─> 0x0067aa6e      f22e44000018   fmove.s 0x18(a6), fp0
            0x0067aa74      f2124422       fadd.s (a2), fp0
            0x0067aa78      f2001c23       fmul fp7, fp0
            0x0067aa7c      f22964000010   fmove.s fp0, 0x10(a1)
            0x0067aa82      f22e44000028   fmove.s 0x28(a6), fp0
            0x0067aa88      f2134422       fadd.s (a3), fp0
            0x0067aa8c      f2001c23       fmul fp7, fp0
            0x0067aa90      f22964000014   fmove.s fp0, 0x14(a1)
            0x0067aa96      f21fd0c3       fmovem (a7)+, fp0-fp1/fp6-fp7
            0x0067aa9a      4cdf1f03       movem.l (a7)+, d0-d1/a0-a4
            0x0067aa9e      4e5e           unlk a6
            0x0067aaa0      4e75           rts
            ; CALL XREF from PASTECOM.calc_string @ 0x67065e
┌ 24: THREEDMAV.calc_centre ();
│           0x0067aaa2      4e56ffac       link.w a6, 0xffac
│           0x0067aaa6      bfd5           cmpa.l (a5), a7
│       ┌─< 0x0067aaa8      6206           bhi.b 0x67aab0
│       │   0x0067aaaa      44fc0002       move.w 0x2, ccr
│       │   0x0067aaae      4e76           trapv
│       └─> 0x0067aab0      defc0040       adda.w 0x40, a7
│           0x0067aab4      48e700c0       movem.l a0-a1, -(a7)
│           0x0067aab8      f227e0e1       fmovem fp0/fp5-fp7, -(a7)
            0x0067aabc      43eeffec       lea.l -0x14(a6), a1
            0x0067aac0      206e0010       movea.l 0x10(a6), a0
            0x0067aac4      f2284780000c   fmove.s 0xc(a0), fp7
            0x0067aaca      f2284700001c   fmove.s 0x1c(a0), fp6
            0x0067aad0      f2284680002c   fmove.s 0x2c(a0), fp5
            0x0067aad6      206e000c       movea.l 0xc(a6), a0
            0x0067aada      f2001400       fmove fp5, fp0
            0x0067aade      f22844230004   fmul.s 0x4(a0), fp0
            0x0067aae4      f20003a2       fadd fp0, fp7
            0x0067aae8      f2001400       fmove fp5, fp0
            0x0067aaec      f22844230008   fmul.s 0x8(a0), fp0
            0x0067aaf2      f2000322       fadd fp0, fp6
            0x0067aaf6      f2104400       fmove.s (a0), fp0
            0x0067aafa      f2001422       fadd fp5, fp0
            0x0067aafe      f2116400       fmove.s fp0, (a1)
            0x0067ab02      f2114418       fabs.s (a1), fp0
            0x0067ab06      f23c44383727.  fcmp.s 0, fp0
            0x0067ab0e      f29b000c       fbf.w 0x67ab1c
            0x0067ab12      f23c4280000f.  fmove.l 0xf423f, fp5
        ┌─< 0x0067ab1a      6008           bra.b 0x67ab24
        │   0x0067ab1c      f2104680       fmove.s (a0), fp5
        │   0x0067ab20      f21146a0       fdiv.s (a1), fp5
        └─> 0x0067ab24      206e0008       movea.l 0x8(a6), a0
            0x0067ab28      f2001c00       fmove fp7, fp0
            0x0067ab2c      f2001423       fmul fp5, fp0
            0x0067ab30      f2106400       fmove.s fp0, (a0)
            0x0067ab34      f2001800       fmove fp6, fp0
            0x0067ab38      f2001423       fmul fp5, fp0
            0x0067ab3c      f22864000004   fmove.s fp0, 0x4(a0)
            0x0067ab42      f21fd087       fmovem (a7)+, fp0/fp5-fp7
            0x0067ab46      4cdf0300       movem.l (a7)+, a0-a1
            0x0067ab4a      4e5e           unlk a6
            0x0067ab4c      4e75           rts
            ; CALL XREF from PASTECOM.calc_transforms @ 0x6703a4
┌ 24: THREEDMAV.do_pos ();
│           0x0067ab4e      4e56feda       link.w a6, 0xfeda
│           0x0067ab52      bfd5           cmpa.l (a5), a7
│       ┌─< 0x0067ab54      6206           bhi.b 0x67ab5c
│       │   0x0067ab56      44fc0002       move.w 0x2, ccr
│       │   0x0067ab5a      4e76           trapv
│       └─> 0x0067ab5c      defc0082       adda.w 0x82, a7
│           0x0067ab60      48e7fef8       movem.l d0-d6/a0-a4, -(a7)
│           0x0067ab64      f227e0e3       fmovem fp0-fp1/fp5-fp7, -(a7)
            0x0067ab68      45eeffd4       lea.l -0x2c(a6), a2
            0x0067ab6c      47eeffb0       lea.l -0x50(a6), a3
            0x0067ab70      49eeffd0       lea.l -0x30(a6), a4
            0x0067ab74      7400           moveq 0x0, d2
            0x0067ab76      7601           moveq 0x1, d3
            0x0067ab78      7802           moveq 0x2, d4
            0x0067ab7a      2a3c3727c5ac   move.l 0x3727c5ac, d5
            0x0067ab80      7c04           moveq 0x4, d6
            0x0067ab82      102e0014       move.b 0x14(a6), d0
            0x0067ab86      4880           ext.w d0
            0x0067ab88      41faf480       lea.l 0x67a00a(pc), a0
            0x0067ab8c      3200           move.w d0, d1
            0x0067ab8e      e649           lsr.w 0x3, d1
            0x0067ab90      01301000       btst.l d0, (a0, d1.w)
        ┌─< 0x0067ab94      670000cc       beq.w 0x67ac62
        │   0x0067ab98      206e0024       movea.l 0x24(a6), a0
        │   0x0067ab9c      226e0018       movea.l 0x18(a6), a1
        │   0x0067aba0      f2284400002c   fmove.s 0x2c(a0), fp0
        │   0x0067aba6      f2114422       fadd.s (a1), fp0
        │   0x0067abaa      f2146400       fmove.s fp0, (a4)
        │   0x0067abae      f2144418       fabs.s (a4), fp0
        │   0x0067abb2      f2054438       fcmp.s d5, fp0
        │   0x0067abb6      f29b0010       fbf.w 0x67abc8
        │   0x0067abba      f23c4000000f.  fmove.l 0xf423f, fp0
        │   0x0067abc2      f2126400       fmove.s fp0, (a2)
       ┌──< 0x0067abc6      600c           bra.b 0x67abd4
       ││   0x0067abc8      f2034000       fmove.l d3, fp0
       ││   0x0067abcc      f2144420       fdiv.s (a4), fp0
       ││   0x0067abd0      f2126400       fmove.s fp0, (a2)
       └──> 0x0067abd4      f22844000020   fmove.s 0x20(a0), fp0
        │   0x0067abda      f22944230004   fmul.s 0x4(a1), fp0
        │   0x0067abe0      f2104422       fadd.s (a0), fp0
        │   0x0067abe4      f22e6400ffe8   fmove.s fp0, -0x18(a6)
        │   0x0067abea      f22844000024   fmove.s 0x24(a0), fp0
        │   0x0067abf0      f22944230004   fmul.s 0x4(a1), fp0
        │   0x0067abf6      f22844220004   fadd.s 0x4(a0), fp0
        │   0x0067abfc      f22e6400ffec   fmove.s fp0, -0x14(a6)
        │   0x0067ac02      f2284400002c   fmove.s 0x2c(a0), fp0
        │   0x0067ac08      f22944230004   fmul.s 0x4(a1), fp0
        │   0x0067ac0e      f2284422000c   fadd.s 0xc(a0), fp0
        │   0x0067ac14      f22e6400fff0   fmove.s fp0, -0x10(a6)
        │   0x0067ac1a      f22844000020   fmove.s 0x20(a0), fp0
        │   0x0067ac20      f22944230008   fmul.s 0x8(a1), fp0
        │   0x0067ac26      f22844220010   fadd.s 0x10(a0), fp0
        │   0x0067ac2c      f22e6400fff4   fmove.s fp0, -0xc(a6)
        │   0x0067ac32      f22844000024   fmove.s 0x24(a0), fp0
        │   0x0067ac38      f22944230008   fmul.s 0x8(a1), fp0
        │   0x0067ac3e      f22844220014   fadd.s 0x14(a0), fp0
        │   0x0067ac44      f22e6400fff8   fmove.s fp0, -0x8(a6)
        │   0x0067ac4a      f2284400002c   fmove.s 0x2c(a0), fp0
        │   0x0067ac50      f22944230008   fmul.s 0x8(a1), fp0
        │   0x0067ac56      f2284422001c   fadd.s 0x1c(a0), fp0
        │   0x0067ac5c      f22e6400fffc   fmove.s fp0, -0x4(a6)
        └─> 0x0067ac62      3200           move.w d0, d1
            0x0067ac64      0c41000b       cmpi.w 0xb, d1
        ┌─< 0x0067ac68      6302           bls.b 0x67ac6c
        │   0x0067ac6a      4e4e           trap 0xe
        └─> 0x0067ac6c      d241           add.w d1, d1
            0x0067ac6e      323b1006       move.w 0x67ac76(pc, d1.w), d1
            0x0067ac72      4efb1002       jmp 0x67ac76(pc, d1.w)
            0x0067ac76      001803da       ori.b 0xda, (a0)+
            0x0067ac7a      055c           bchg.b d2, (a4)+
            0x0067ac7c      06e0084c       
            0x0067ac7d      e008           lsr.b 0x8, d0
            0x0067ac7f      4c084c08       
            0x0067ac80      084c084c       
            0x0067ac81      4c084c08       
            0x0067ac82      084c084c       
            0x0067ac83      4c084c08       
            0x0067ac84      084c084c       
            0x0067ac85      4c084c08       
            0x0067ac86      084c084c       
            0x0067ac87      4c084c08       
            0x0067ac88      084c084c       
            0x0067ac89      4c084c08       
            0x0067ac8a      084c084c       
            0x0067ac8b      4c084c20       
            0x0067ac8c      084c206e       
            0x0067ac8d      4c206e00       
            0x0067ac8e      206e0018       movea.l 0x18(a6), a0
            0x0067ac92      f2104780       fmove.s (a0), fp7
            0x0067ac96      f21247a3       fmul.s (a2), fp7
            0x0067ac9a      f22e4400ffe8   fmove.s -0x18(a6), fp0
            0x0067aca0      f2001c23       fmul fp7, fp0
            0x0067aca4      f22e6400ff5c   fmove.s fp0, -0xa4(a6)
            0x0067acaa      f22e4400ffec   fmove.s -0x14(a6), fp0
            0x0067acb0      f2001c23       fmul fp7, fp0
            0x0067acb4      f22e6400ff60   fmove.s fp0, -0xa0(a6)
            0x0067acba      f22e4400fff0   fmove.s -0x10(a6), fp0
            0x0067acc0      f2001c23       fmul fp7, fp0
            0x0067acc4      f22e6400ff68   fmove.s fp0, -0x98(a6)
            0x0067acca      f22e4400fff4   fmove.s -0xc(a6), fp0
            0x0067acd0      f2001c23       fmul fp7, fp0
            0x0067acd4      f22e6400ff6c   fmove.s fp0, -0x94(a6)
            0x0067acda      f22e4400fff8   fmove.s -0x8(a6), fp0
            0x0067ace0      f2001c23       fmul fp7, fp0
            0x0067ace4      f22e6400ff70   fmove.s fp0, -0x90(a6)
            0x0067acea      f22e4400fffc   fmove.s -0x4(a6), fp0
            0x0067acf0      f2001c23       fmul fp7, fp0
            0x0067acf4      f22e6400ff78   fmove.s fp0, -0x88(a6)
            0x0067acfa      226e0024       movea.l 0x24(a6), a1
            0x0067acfe      f22944000008   fmove.s 0x8(a1), fp0
            0x0067ad04      f2001c23       fmul fp7, fp0
            0x0067ad08      f22e6400ff64   fmove.s fp0, -0x9c(a6)
            0x0067ad0e      f22944000018   fmove.s 0x18(a1), fp0
            0x0067ad14      f2001c23       fmul fp7, fp0
            0x0067ad18      f22e6400ff74   fmove.s fp0, -0x8c(a6)
            0x0067ad1e      f22944000028   fmove.s 0x28(a1), fp0
            0x0067ad24      f2001c23       fmul fp7, fp0
            0x0067ad28      f22e6400ff84   fmove.s fp0, -0x7c(a6)
            0x0067ad2e      f22944000020   fmove.s 0x20(a1), fp0
            0x0067ad34      f2124423       fmul.s (a2), fp0
            0x0067ad38      f22e6400ff7c   fmove.s fp0, -0x84(a6)
            0x0067ad3e      f22944000024   fmove.s 0x24(a1), fp0
            0x0067ad44      f2124423       fmul.s (a2), fp0
            0x0067ad48      f22e6400ff80   fmove.s fp0, -0x80(a6)
            0x0067ad4e      f22e4400ff5c   fmove.s -0xa4(a6), fp0
            0x0067ad54      f22e4423ff70   fmul.s -0x90(a6), fp0
            0x0067ad5a      f22e4480ff6c   fmove.s -0x94(a6), fp1
            0x0067ad60      f22e44a3ff60   fmul.s -0xa0(a6), fp1
            0x0067ad66      f200049a       fneg fp1
            0x0067ad6a      f20000a2       fadd fp0, fp1
            0x0067ad6e      f2000418       fabs fp1, fp0
            0x0067ad72      f2024438       fcmp.s d2, fp0
            0x0067ad76      f296000c       fbf.w 0x67ad84
            0x0067ad7a      f2034000       fmove.l d3, fp0
            0x0067ad7e      f2136400       fmove.s fp0, (a3)
        ┌─< 0x0067ad82      600c           bra.b 0x67ad90
        │   0x0067ad84      f2034000       fmove.l d3, fp0
        │   0x0067ad88      f2000420       fdiv fp1, fp0
        │   0x0067ad8c      f2136400       fmove.s fp0, (a3)
        └─> 0x0067ad90      f22e4400ff78   fmove.s -0x88(a6), fp0
            0x0067ad96      f22e4423ff60   fmul.s -0xa0(a6), fp0
            0x0067ad9c      f22e4480ff68   fmove.s -0x98(a6), fp1
            0x0067ada2      f22e44a3ff70   fmul.s -0x90(a6), fp1
            0x0067ada8      f200049a       fneg fp1
            0x0067adac      f20000a2       fadd fp0, fp1
            0x0067adb0      f21344a3       fmul.s (a3), fp1
            0x0067adb4      f22e6480ffb4   fmove.s fp1, -0x4c(a6)
            0x0067adba      f22e4400ff6c   fmove.s -0x94(a6), fp0
            0x0067adc0      f22e4423ff68   fmul.s -0x98(a6), fp0
            0x0067adc6      f22e4480ff5c   fmove.s -0xa4(a6), fp1
            0x0067adcc      f22e44a3ff78   fmul.s -0x88(a6), fp1
            0x0067add2      f200049a       fneg fp1
            0x0067add6      f20000a2       fadd fp0, fp1
            0x0067adda      f21344a3       fmul.s (a3), fp1
            0x0067adde      f22e6480ffb8   fmove.s fp1, -0x48(a6)
            0x0067ade4      f22e4680ff6c   fmove.s -0x94(a6), fp5
            0x0067adea      f22e46a3ff80   fmul.s -0x80(a6), fp5
            0x0067adf0      f22e4400ff7c   fmove.s -0x84(a6), fp0
            0x0067adf6      f22e4423ff70   fmul.s -0x90(a6), fp0
            0x0067adfc      f20002a8       fsub fp0, fp5
            0x0067ae00      f21346a3       fmul.s (a3), fp5
            0x0067ae04      f22e46a30008   fmul.s 0x8(a6), fp5
            0x0067ae0a      f20342a2       fadd.l d3, fp5
            0x0067ae0e      f22e4400ff7c   fmove.s -0x84(a6), fp0
            0x0067ae14      f22e4423ff60   fmul.s -0xa0(a6), fp0
            0x0067ae1a      f22e4480ff80   fmove.s -0x80(a6), fp1
            0x0067ae20      f22e44a3ff5c   fmul.s -0xa4(a6), fp1
            0x0067ae26      f200049a       fneg fp1
            0x0067ae2a      f20000a2       fadd fp0, fp1
            0x0067ae2e      f21344a3       fmul.s (a3), fp1
            0x0067ae32      f22e44a3000c   fmul.s 0xc(a6), fp1
            0x0067ae38      f20340a2       fadd.l d3, fp1
            0x0067ae3c      f22e6480ffc0   fmove.s fp1, -0x40(a6)
            0x0067ae42      f22e4400ff78   fmove.s -0x88(a6), fp0
            0x0067ae48      f22e4423ff80   fmul.s -0x80(a6), fp0
            0x0067ae4e      f200001a       fneg fp0
            0x0067ae52      f22e4422ff70   fadd.s -0x90(a6), fp0
            0x0067ae58      f2134423       fmul.s (a3), fp0
            0x0067ae5c      f22e44230008   fmul.s 0x8(a6), fp0
            0x0067ae62      f22e4422ffb4   fadd.s -0x4c(a6), fp0
            0x0067ae68      f2001420       fdiv fp5, fp0
            0x0067ae6c      f22e4480ff68   fmove.s -0x98(a6), fp1
            0x0067ae72      f22e44a3ff80   fmul.s -0x80(a6), fp1
            0x0067ae78      f22e44a8ff60   fsub.s -0xa0(a6), fp1
            0x0067ae7e      f21344a3       fmul.s (a3), fp1
            0x0067ae82      f22e44a3000c   fmul.s 0xc(a6), fp1
            0x0067ae88      f22e44a2ffb4   fadd.s -0x4c(a6), fp1
            0x0067ae8e      f22e44a0ffc0   fdiv.s -0x40(a6), fp1
            0x0067ae94      f20000a2       fadd fp0, fp1
            0x0067ae98      f2044000       fmove.l d4, fp0
            0x0067ae9c      f22e4423ffb4   fmul.s -0x4c(a6), fp0
            0x0067aea2      f200001a       fneg fp0
            0x0067aea6      f2000422       fadd fp1, fp0
            0x0067aeaa      f22e6400ffa4   fmove.s fp0, -0x5c(a6)
            0x0067aeb0      f22e4400ff7c   fmove.s -0x84(a6), fp0
            0x0067aeb6      f22e4423ff78   fmul.s -0x88(a6), fp0
            0x0067aebc      f22e4428ff6c   fsub.s -0x94(a6), fp0
            0x0067aec2      f2134423       fmul.s (a3), fp0
            0x0067aec6      f22e44230008   fmul.s 0x8(a6), fp0
            0x0067aecc      f22e4422ffb8   fadd.s -0x48(a6), fp0
            0x0067aed2      f2001420       fdiv fp5, fp0
            0x0067aed6      f22e4480ff7c   fmove.s -0x84(a6), fp1
            0x0067aedc      f22e44a3ff68   fmul.s -0x98(a6), fp1
            0x0067aee2      f200049a       fneg fp1
            0x0067aee6      f22e44a2ff5c   fadd.s -0xa4(a6), fp1
            0x0067aeec      f21344a3       fmul.s (a3), fp1
            0x0067aef0      f22e44a3000c   fmul.s 0xc(a6), fp1
            0x0067aef6      f22e44a2ffb8   fadd.s -0x48(a6), fp1
            0x0067aefc      f22e44a0ffc0   fdiv.s -0x40(a6), fp1
            0x0067af02      f20000a2       fadd fp0, fp1
            0x0067af06      f2044000       fmove.l d4, fp0
            0x0067af0a      f22e4423ffb8   fmul.s -0x48(a6), fp0
            0x0067af10      f200001a       fneg fp0
            0x0067af14      f2000422       fadd fp1, fp0
            0x0067af18      f22e6400ffa8   fmove.s fp0, -0x58(a6)
            0x0067af1e      122e0016       move.b 0x16(a6), d1
            0x0067af22      4881           ext.w d1
            0x0067af24      033af0e6       btst.l d1, 0x67a00c(pc)
        ┌─< 0x0067af28      677a           beq.b 0x67afa4
        │   0x0067af2a      206e0020       movea.l 0x20(a6), a0
        │   0x0067af2e      f2104400       fmove.s (a0), fp0
        │   0x0067af32      f22e4423ffa4   fmul.s -0x5c(a6), fp0
        │   0x0067af38      f22844800004   fmove.s 0x4(a0), fp1
        │   0x0067af3e      f22e44a3ffa8   fmul.s -0x58(a6), fp1
        │   0x0067af44      f20000a2       fadd fp0, fp1
        │   0x0067af48      f22844a2000c   fadd.s 0xc(a0), fp1
        │   0x0067af4e      f2286480000c   fmove.s fp1, 0xc(a0)
        │   0x0067af54      f22844000010   fmove.s 0x10(a0), fp0
        │   0x0067af5a      f22e4423ffa4   fmul.s -0x5c(a6), fp0
        │   0x0067af60      f22844800014   fmove.s 0x14(a0), fp1
        │   0x0067af66      f22e44a3ffa8   fmul.s -0x58(a6), fp1
        │   0x0067af6c      f20000a2       fadd fp0, fp1
        │   0x0067af70      f22844a2001c   fadd.s 0x1c(a0), fp1
        │   0x0067af76      f2286480001c   fmove.s fp1, 0x1c(a0)
        │   0x0067af7c      f22844000020   fmove.s 0x20(a0), fp0
        │   0x0067af82      f22e4423ffa4   fmul.s -0x5c(a6), fp0
        │   0x0067af88      f22844800024   fmove.s 0x24(a0), fp1
        │   0x0067af8e      f22e44a3ffa8   fmul.s -0x58(a6), fp1
        │   0x0067af94      f20000a2       fadd fp0, fp1
        │   0x0067af98      f22844a2002c   fadd.s 0x2c(a0), fp1
        │   0x0067af9e      f2286480002c   fmove.s fp1, 0x2c(a0)
        └─> 0x0067afa4      033af068       btst.l d1, 0x67a00e(pc)
        ┌─< 0x0067afa8      670000a2       beq.w 0x67b04c
        │   0x0067afac      b204           cmp.b d4, d1
       ┌──< 0x0067afae      6674           bne.b 0x67b024
       ││   0x0067afb0      206e0020       movea.l 0x20(a6), a0
       ││   0x0067afb4      f22844000030   fmove.s 0x30(a0), fp0
       ││   0x0067afba      f2024038       fcmp.l d2, fp0
       ││   0x0067afbe      f299005e       fbf.w 0x67b01e
       ││   0x0067afc2      f22844000034   fmove.s 0x34(a0), fp0
       ││   0x0067afc8      f2024038       fcmp.l d2, fp0
       ││   0x0067afcc      f2990050       fbf.w 0x67b01e
       ││   0x0067afd0      f22844000038   fmove.s 0x38(a0), fp0
       ││   0x0067afd6      f2024038       fcmp.l d2, fp0
       ││   0x0067afda      f2990042       fbf.w 0x67b01e
       ││   0x0067afde      f22844000030   fmove.s 0x30(a0), fp0
       ││   0x0067afe4      f22844230038   fmul.s 0x38(a0), fp0
       ││   0x0067afea      f22e4480ffa4   fmove.s -0x5c(a6), fp1
       ││   0x0067aff0      f20000a0       fdiv fp0, fp1
       ││   0x0067aff4      f200041a       fneg fp1, fp0
       ││   0x0067aff8      f22e6400ffa4   fmove.s fp0, -0x5c(a6)
       ││   0x0067affe      f22844000034   fmove.s 0x34(a0), fp0
       ││   0x0067b004      f22844230038   fmul.s 0x38(a0), fp0
       ││   0x0067b00a      f22e4480ffa8   fmove.s -0x58(a6), fp1
       ││   0x0067b010      f20000a0       fdiv fp0, fp1
       ││   0x0067b014      f200041a       fneg fp1, fp0
       ││   0x0067b018      f22e6400ffa8   fmove.s fp0, -0x58(a6)
       ││   0x0067b01e      206e001c       movea.l 0x1c(a6), a0
      ┌───< 0x0067b022      6004           bra.b 0x67b028
      │└──> 0x0067b024      206e0020       movea.l 0x20(a6), a0
      └───> 0x0067b028      f2284400000c   fmove.s 0xc(a0), fp0
        │   0x0067b02e      f22e4422ffa4   fadd.s -0x5c(a6), fp0
        │   0x0067b034      f2286400000c   fmove.s fp0, 0xc(a0)
        │   0x0067b03a      f2284400001c   fmove.s 0x1c(a0), fp0
        │   0x0067b040      f22e4422ffa8   fadd.s -0x58(a6), fp0
        │   0x0067b046      f2286400001c   fmove.s fp0, 0x1c(a0)
       ┌└─> 0x0067b04c      60000608       bra.w 0x67b656
       │    0x0067b050      206e0024       movea.l 0x24(a6), a0
       │    0x0067b054      f22847800020   fmove.s 0x20(a0), fp7
       │    0x0067b05a      f21447a2       fadd.s (a4), fp7
       │    0x0067b05e      f2034000       fmove.l d3, fp0
       │    0x0067b062      f2001c20       fdiv fp7, fp0
       │    0x0067b066      f2000380       fmove fp0, fp7
       │    0x0067b06a      f22e4700ffe8   fmove.s -0x18(a6), fp6
       │    0x0067b070      f22e4722fff0   fadd.s -0x10(a6), fp6
       │    0x0067b076      f2001f23       fmul fp7, fp6
       │    0x0067b07a      f22e4400fff0   fmove.s -0x10(a6), fp0
       │    0x0067b080      f2124423       fmul.s (a2), fp0
       │    0x0067b084      f2000328       fsub fp0, fp6
       │    0x0067b088      f22e4680fff4   fmove.s -0xc(a6), fp5
       │    0x0067b08e      f22e46a2fffc   fadd.s -0x4(a6), fp5
       │    0x0067b094      f2001ea3       fmul fp7, fp5
       │    0x0067b098      f22e4400fffc   fmove.s -0x4(a6), fp0
       │    0x0067b09e      f2124423       fmul.s (a2), fp0
       │    0x0067b0a2      f20002a8       fsub fp0, fp5
       │    0x0067b0a6      f22e4400ffe8   fmove.s -0x18(a6), fp0
       │    0x0067b0ac      f2001823       fmul fp6, fp0
       │    0x0067b0b0      f2024438       fcmp.s d2, fp0
       │    0x0067b0b4      f29b001c       fbf.w 0x67b0d2
       │    0x0067b0b8      f22e4400fff4   fmove.s -0xc(a6), fp0
       │    0x0067b0be      f2001423       fmul fp5, fp0
       │    0x0067b0c2      f2024438       fcmp.s d2, fp0
       │    0x0067b0c6      f29b000a       fbf.w 0x67b0d2
       │    0x0067b0ca      f2001b1a       fneg fp6
       │    0x0067b0ce      f200169a       fneg fp5
       │    0x0067b0d2      f22e47800008   fmove.s 0x8(a6), fp7
       │    0x0067b0d8      f2001ba3       fmul fp6, fp7
       │    0x0067b0dc      f22e4400000c   fmove.s 0xc(a6), fp0
       │    0x0067b0e2      f2001423       fmul fp5, fp0
       │    0x0067b0e6      f20003a2       fadd fp0, fp7
       │    0x0067b0ea      f21447a3       fmul.s (a4), fp7
       │    0x0067b0ee      f2001c18       fabs fp7, fp0
       │    0x0067b0f2      f2054438       fcmp.s d5, fp0
       │    0x0067b0f6      f29b000a       fbf.w 0x67b102
       │    0x0067b0fa      f22e47800008   fmove.s 0x8(a6), fp7
       │┌─< 0x0067b100      6024           bra.b 0x67b126
       ││   0x0067b102      f2001800       fmove fp6, fp0
       ││   0x0067b106      f2000023       fmul fp0, fp0
       ││   0x0067b10a      f2001480       fmove fp5, fp1
       ││   0x0067b10e      f20004a3       fmul fp1, fp1
       ││   0x0067b112      f20000a2       fadd fp0, fp1
       ││   0x0067b116      f2000484       fsqrt fp1
       ││   0x0067b11a      226e0018       movea.l 0x18(a6), a1
       ││   0x0067b11e      f21144a3       fmul.s (a1), fp1
       ││   0x0067b122      f20007a0       fdiv fp1, fp7
       │└─> 0x0067b126      122e0016       move.b 0x16(a6), d1
       │    0x0067b12a      4881           ext.w d1
       │    0x0067b12c      033aeee2       btst.l d1, 0x67a010(pc)
       │┌─< 0x0067b130      6744           beq.b 0x67b176
       ││   0x0067b132      206e0020       movea.l 0x20(a6), a0
       ││   0x0067b136      f2104400       fmove.s (a0), fp0
       ││   0x0067b13a      f2001c23       fmul fp7, fp0
       ││   0x0067b13e      f2284422000c   fadd.s 0xc(a0), fp0
       ││   0x0067b144      f2286400000c   fmove.s fp0, 0xc(a0)
       ││   0x0067b14a      f22844000010   fmove.s 0x10(a0), fp0
       ││   0x0067b150      f2001c23       fmul fp7, fp0
       ││   0x0067b154      f2284422001c   fadd.s 0x1c(a0), fp0
       ││   0x0067b15a      f2286400001c   fmove.s fp0, 0x1c(a0)
       ││   0x0067b160      f22844000020   fmove.s 0x20(a0), fp0
       ││   0x0067b166      f2001c23       fmul fp7, fp0
       ││   0x0067b16a      f2284422002c   fadd.s 0x2c(a0), fp0
       ││   0x0067b170      f2286400002c   fmove.s fp0, 0x2c(a0)
       │└─> 0x0067b176      033aee9a       btst.l d1, 0x67a012(pc)
       │┌─< 0x0067b17a      6752           beq.b 0x67b1ce
       ││   0x0067b17c      b204           cmp.b d4, d1
      ┌───< 0x0067b17e      663a           bne.b 0x67b1ba
      │││   0x0067b180      206e0020       movea.l 0x20(a6), a0
      │││   0x0067b184      f22844000038   fmove.s 0x38(a0), fp0
      │││   0x0067b18a      f2024038       fcmp.l d2, fp0
      │││   0x0067b18e      f2990024       fbf.w 0x67b1b4
      │││   0x0067b192      f22844000030   fmove.s 0x30(a0), fp0
      │││   0x0067b198      f2024038       fcmp.l d2, fp0
      │││   0x0067b19c      f2990016       fbf.w 0x67b1b4
      │││   0x0067b1a0      f22844000030   fmove.s 0x30(a0), fp0
      │││   0x0067b1a6      f22844230038   fmul.s 0x38(a0), fp0
      │││   0x0067b1ac      f20003a0       fdiv fp0, fp7
      │││   0x0067b1b0      f2001f9a       fneg fp7
      │││   0x0067b1b4      206e001c       movea.l 0x1c(a6), a0
     ┌────< 0x0067b1b8      6004           bra.b 0x67b1be
     │└───> 0x0067b1ba      206e0020       movea.l 0x20(a6), a0
     └────> 0x0067b1be      f2284400000c   fmove.s 0xc(a0), fp0
       ││   0x0067b1c4      f2001c22       fadd fp7, fp0
       ││   0x0067b1c8      f2286400000c   fmove.s fp0, 0xc(a0)
      ┌─└─> 0x0067b1ce      60000486       bra.w 0x67b656
      ││    0x0067b1d2      206e0024       movea.l 0x24(a6), a0
      ││    0x0067b1d6      f22847800024   fmove.s 0x24(a0), fp7
      ││    0x0067b1dc      f21447a2       fadd.s (a4), fp7
      ││    0x0067b1e0      f2034000       fmove.l d3, fp0
      ││    0x0067b1e4      f2001c20       fdiv fp7, fp0
      ││    0x0067b1e8      f2000380       fmove fp0, fp7
      ││    0x0067b1ec      f22e4700ffec   fmove.s -0x14(a6), fp6
      ││    0x0067b1f2      f22e4722fff0   fadd.s -0x10(a6), fp6
      ││    0x0067b1f8      f2001f23       fmul fp7, fp6
      ││    0x0067b1fc      f22e4400fff0   fmove.s -0x10(a6), fp0
      ││    0x0067b202      f2124423       fmul.s (a2), fp0
      ││    0x0067b206      f2000328       fsub fp0, fp6
      ││    0x0067b20a      f22e4680fff8   fmove.s -0x8(a6), fp5
      ││    0x0067b210      f22e46a2fffc   fadd.s -0x4(a6), fp5
      ││    0x0067b216      f2001ea3       fmul fp7, fp5
      ││    0x0067b21a      f22e4400fffc   fmove.s -0x4(a6), fp0
      ││    0x0067b220      f2124423       fmul.s (a2), fp0
      ││    0x0067b224      f20002a8       fsub fp0, fp5
      ││    0x0067b228      f22e4400ffec   fmove.s -0x14(a6), fp0
      ││    0x0067b22e      f2001823       fmul fp6, fp0
      ││    0x0067b232      f2024438       fcmp.s d2, fp0
      ││    0x0067b236      f29b001c       fbf.w 0x67b254
      ││    0x0067b23a      f22e4400fff8   fmove.s -0x8(a6), fp0
      ││    0x0067b240      f2001423       fmul fp5, fp0
      ││    0x0067b244      f2024438       fcmp.s d2, fp0
      ││    0x0067b248      f29b000a       fbf.w 0x67b254
      ││    0x0067b24c      f2001b1a       fneg fp6
      ││    0x0067b250      f200169a       fneg fp5
      ││    0x0067b254      f22e47800008   fmove.s 0x8(a6), fp7
      ││    0x0067b25a      f2001ba3       fmul fp6, fp7
      ││    0x0067b25e      f22e4400000c   fmove.s 0xc(a6), fp0
      ││    0x0067b264      f2001423       fmul fp5, fp0
      ││    0x0067b268      f20003a2       fadd fp0, fp7
      ││    0x0067b26c      f21447a3       fmul.s (a4), fp7
      ││    0x0067b270      f2001c18       fabs fp7, fp0
      ││    0x0067b274      f2054438       fcmp.s d5, fp0
      ││    0x0067b278      f29b000a       fbf.w 0x67b284
      ││    0x0067b27c      f22e4780000c   fmove.s 0xc(a6), fp7
      ││┌─< 0x0067b282      6024           bra.b 0x67b2a8
      │││   0x0067b284      f2001800       fmove fp6, fp0
      │││   0x0067b288      f2000023       fmul fp0, fp0
      │││   0x0067b28c      f2001480       fmove fp5, fp1
      │││   0x0067b290      f20004a3       fmul fp1, fp1
      │││   0x0067b294      f20000a2       fadd fp0, fp1
      │││   0x0067b298      f2000484       fsqrt fp1
      │││   0x0067b29c      226e0018       movea.l 0x18(a6), a1
      │││   0x0067b2a0      f21144a3       fmul.s (a1), fp1
      │││   0x0067b2a4      f20007a0       fdiv fp1, fp7
      ││└─> 0x0067b2a8      122e0016       move.b 0x16(a6), d1
      ││    0x0067b2ac      4881           ext.w d1
      ││    0x0067b2ae      033aed64       btst.l d1, 0x67a014(pc)
      ││┌─< 0x0067b2b2      6746           beq.b 0x67b2fa
      │││   0x0067b2b4      206e0020       movea.l 0x20(a6), a0
      │││   0x0067b2b8      f22844000004   fmove.s 0x4(a0), fp0
      │││   0x0067b2be      f2001c23       fmul fp7, fp0
      │││   0x0067b2c2      f2284422000c   fadd.s 0xc(a0), fp0
      │││   0x0067b2c8      f2286400000c   fmove.s fp0, 0xc(a0)
      │││   0x0067b2ce      f22844000014   fmove.s 0x14(a0), fp0
      │││   0x0067b2d4      f2001c23       fmul fp7, fp0
      │││   0x0067b2d8      f2284422001c   fadd.s 0x1c(a0), fp0
      │││   0x0067b2de      f2286400001c   fmove.s fp0, 0x1c(a0)
      │││   0x0067b2e4      f22844000024   fmove.s 0x24(a0), fp0
      │││   0x0067b2ea      f2001c23       fmul fp7, fp0
      │││   0x0067b2ee      f2284422002c   fadd.s 0x2c(a0), fp0
      │││   0x0067b2f4      f2286400002c   fmove.s fp0, 0x2c(a0)
      ││└─> 0x0067b2fa      033aed1a       btst.l d1, 0x67a016(pc)
      ││┌─< 0x0067b2fe      6752           beq.b 0x67b352
      │││   0x0067b300      b204           cmp.b d4, d1
     ┌────< 0x0067b302      663a           bne.b 0x67b33e
     ││││   0x0067b304      206e0020       movea.l 0x20(a6), a0
     ││││   0x0067b308      f22844000038   fmove.s 0x38(a0), fp0
     ││││   0x0067b30e      f2024038       fcmp.l d2, fp0
     ││││   0x0067b312      f2990024       fbf.w 0x67b338
     ││││   0x0067b316      f22844000034   fmove.s 0x34(a0), fp0
     ││││   0x0067b31c      f2024038       fcmp.l d2, fp0
     ││││   0x0067b320      f2990016       fbf.w 0x67b338
     ││││   0x0067b324      f22844000034   fmove.s 0x34(a0), fp0
     ││││   0x0067b32a      f22844230038   fmul.s 0x38(a0), fp0
     ││││   0x0067b330      f20003a0       fdiv fp0, fp7
     ││││   0x0067b334      f2001f9a       fneg fp7
     ││││   0x0067b338      206e001c       movea.l 0x1c(a6), a0
    ┌─────< 0x0067b33c      6004           bra.b 0x67b342
    │└────> 0x0067b33e      206e0020       movea.l 0x20(a6), a0
    └─────> 0x0067b342      f2284400001c   fmove.s 0x1c(a0), fp0
      │││   0x0067b348      f2001c22       fadd fp7, fp0
      │││   0x0067b34c      f2286400001c   fmove.s fp0, 0x1c(a0)
     ┌──└─> 0x0067b352      60000302       bra.w 0x67b656
     │││    0x0067b356      206e0024       movea.l 0x24(a6), a0
     │││    0x0067b35a      f22847800028   fmove.s 0x28(a0), fp7
     │││    0x0067b360      f21447a2       fadd.s (a4), fp7
     │││    0x0067b364      f2034000       fmove.l d3, fp0
     │││    0x0067b368      f2001c20       fdiv fp7, fp0
     │││    0x0067b36c      f2000380       fmove fp0, fp7
     │││    0x0067b370      f22847000008   fmove.s 0x8(a0), fp6
     │││    0x0067b376      f22e4722fff0   fadd.s -0x10(a6), fp6
     │││    0x0067b37c      f2001f23       fmul fp7, fp6
     │││    0x0067b380      f22e4400fff0   fmove.s -0x10(a6), fp0
     │││    0x0067b386      f2124423       fmul.s (a2), fp0
     │││    0x0067b38a      f2000328       fsub fp0, fp6
     │││    0x0067b38e      f22846800018   fmove.s 0x18(a0), fp5
     │││    0x0067b394      f22e46a2fffc   fadd.s -0x4(a6), fp5
     │││    0x0067b39a      f2001ea3       fmul fp7, fp5
     │││    0x0067b39e      f22e4400fffc   fmove.s -0x4(a6), fp0
     │││    0x0067b3a4      f2124423       fmul.s (a2), fp0
     │││    0x0067b3a8      f20002a8       fsub fp0, fp5
     │││    0x0067b3ac      f22844000008   fmove.s 0x8(a0), fp0
     │││    0x0067b3b2      f2001823       fmul fp6, fp0
     │││    0x0067b3b6      f2024438       fcmp.s d2, fp0
     │││    0x0067b3ba      f29b001c       fbf.w 0x67b3d8
     │││    0x0067b3be      f22844000018   fmove.s 0x18(a0), fp0
     │││    0x0067b3c4      f2001423       fmul fp5, fp0
     │││    0x0067b3c8      f2024438       fcmp.s d2, fp0
     │││    0x0067b3cc      f29b000a       fbf.w 0x67b3d8
     │││    0x0067b3d0      f2001b1a       fneg fp6
     │││    0x0067b3d4      f200169a       fneg fp5
     │││    0x0067b3d8      f22e47800008   fmove.s 0x8(a6), fp7
     │││    0x0067b3de      f2001ba3       fmul fp6, fp7
     │││    0x0067b3e2      f22e4400000c   fmove.s 0xc(a6), fp0
     │││    0x0067b3e8      f2001423       fmul fp5, fp0
     │││    0x0067b3ec      f20003a2       fadd fp0, fp7
     │││    0x0067b3f0      f21447a3       fmul.s (a4), fp7
     │││    0x0067b3f4      f2001c18       fabs fp7, fp0
     │││    0x0067b3f8      f2054438       fcmp.s d5, fp0
     │││    0x0067b3fc      f29b000a       fbf.w 0x67b408
     │││    0x0067b400      f22e47800010   fmove.s 0x10(a6), fp7
     │││┌─< 0x0067b406      6024           bra.b 0x67b42c
     ││││   0x0067b408      f2001800       fmove fp6, fp0
     ││││   0x0067b40c      f2000023       fmul fp0, fp0
     ││││   0x0067b410      f2001480       fmove fp5, fp1
     ││││   0x0067b414      f20004a3       fmul fp1, fp1
     ││││   0x0067b418      f20000a2       fadd fp0, fp1
     ││││   0x0067b41c      f2000484       fsqrt fp1
     ││││   0x0067b420      226e0018       movea.l 0x18(a6), a1
     ││││   0x0067b424      f21144a3       fmul.s (a1), fp1
     ││││   0x0067b428      f20007a0       fdiv fp1, fp7
     │││└─> 0x0067b42c      122e0016       move.b 0x16(a6), d1
     │││    0x0067b430      4881           ext.w d1
     │││    0x0067b432      033aebe4       btst.l d1, 0x67a018(pc)
     │││┌─< 0x0067b436      6746           beq.b 0x67b47e
     ││││   0x0067b438      206e0020       movea.l 0x20(a6), a0
     ││││   0x0067b43c      f22844000008   fmove.s 0x8(a0), fp0
     ││││   0x0067b442      f2001c23       fmul fp7, fp0
     ││││   0x0067b446      f2284422000c   fadd.s 0xc(a0), fp0
     ││││   0x0067b44c      f2286400000c   fmove.s fp0, 0xc(a0)
     ││││   0x0067b452      f22844000018   fmove.s 0x18(a0), fp0
     ││││   0x0067b458      f2001c23       fmul fp7, fp0
     ││││   0x0067b45c      f2284422001c   fadd.s 0x1c(a0), fp0
     ││││   0x0067b462      f2286400001c   fmove.s fp0, 0x1c(a0)
     ││││   0x0067b468      f22844000028   fmove.s 0x28(a0), fp0
     ││││   0x0067b46e      f2001c23       fmul fp7, fp0
     ││││   0x0067b472      f2284422002c   fadd.s 0x2c(a0), fp0
     ││││   0x0067b478      f2286400002c   fmove.s fp0, 0x2c(a0)
     │││└─> 0x0067b47e      033aeb9a       btst.l d1, 0x67a01a(pc)
     │││┌─< 0x0067b482      673a           beq.b 0x67b4be
     ││││   0x0067b484      b204           cmp.b d4, d1
    ┌─────< 0x0067b486      6622           bne.b 0x67b4aa
    │││││   0x0067b488      206e0020       movea.l 0x20(a6), a0
    │││││   0x0067b48c      f22844000038   fmove.s 0x38(a0), fp0
    │││││   0x0067b492      f2024038       fcmp.l d2, fp0
    │││││   0x0067b496      f299000c       fbf.w 0x67b4a4
    │││││   0x0067b49a      f22847a00038   fdiv.s 0x38(a0), fp7
    │││││   0x0067b4a0      f2001f9a       fneg fp7
    │││││   0x0067b4a4      206e001c       movea.l 0x1c(a6), a0
   ┌──────< 0x0067b4a8      6004           bra.b 0x67b4ae
   │└─────> 0x0067b4aa      206e0020       movea.l 0x20(a6), a0
   └──────> 0x0067b4ae      f2284400002c   fmove.s 0x2c(a0), fp0
     ││││   0x0067b4b4      f2001c22       fadd fp7, fp0
     ││││   0x0067b4b8      f2286400002c   fmove.s fp0, 0x2c(a0)
    ┌───└─> 0x0067b4be      60000196       bra.w 0x67b656
    ││││    0x0067b4c2      2d6e0008ffa4   move.l 0x8(a6), -0x5c(a6)
    ││││    0x0067b4c8      2d6e000cffa8   move.l 0xc(a6), -0x58(a6)
    ││││    0x0067b4ce      f22e47000010   fmove.s 0x10(a6), fp6
    ││││    0x0067b4d4      122e0016       move.b 0x16(a6), d1
    ││││    0x0067b4d8      b204           cmp.b d4, d1
    ││││┌─< 0x0067b4da      666c           bne.b 0x67b548
    │││││   0x0067b4dc      b006           cmp.b d6, d0
   ┌──────< 0x0067b4de      672e           beq.b 0x67b50e
   ││││││   0x0067b4e0      206e001c       movea.l 0x1c(a6), a0
   ││││││   0x0067b4e4      f22e4400ffa4   fmove.s -0x5c(a6), fp0
   ││││││   0x0067b4ea      f2284422000c   fadd.s 0xc(a0), fp0
   ││││││   0x0067b4f0      f22e6400ffa4   fmove.s fp0, -0x5c(a6)
   ││││││   0x0067b4f6      f22e4400ffa8   fmove.s -0x58(a6), fp0
   ││││││   0x0067b4fc      f2284422001c   fadd.s 0x1c(a0), fp0
   ││││││   0x0067b502      f22e6400ffa8   fmove.s fp0, -0x58(a6)
   ││││││   0x0067b508      f2284722002c   fadd.s 0x2c(a0), fp6
   └──────> 0x0067b50e      206e001c       movea.l 0x1c(a6), a0
    │││││   0x0067b512      f2284400000c   fmove.s 0xc(a0), fp0
    │││││   0x0067b518      f22e4428ffa4   fsub.s -0x5c(a6), fp0
    │││││   0x0067b51e      f2286400000c   fmove.s fp0, 0xc(a0)
    │││││   0x0067b524      f2284400001c   fmove.s 0x1c(a0), fp0
    │││││   0x0067b52a      f22e4428ffa8   fsub.s -0x58(a6), fp0
    │││││   0x0067b530      f2286400001c   fmove.s fp0, 0x1c(a0)
    │││││   0x0067b536      f2284400002c   fmove.s 0x2c(a0), fp0
    │││││   0x0067b53c      f2001828       fsub fp6, fp0
    │││││   0x0067b540      f2286400002c   fmove.s fp0, 0x2c(a0)
   ┌──────< 0x0067b546      6026           bra.b 0x67b56e
   │││││└─> 0x0067b548      b006           cmp.b d6, d0
   │││││┌─< 0x0067b54a      6722           beq.b 0x67b56e
   ││││││   0x0067b54c      206e0020       movea.l 0x20(a6), a0
   ││││││   0x0067b550      f2024000       fmove.l d2, fp0
   ││││││   0x0067b554      f2286400000c   fmove.s fp0, 0xc(a0)
   ││││││   0x0067b55a      f2024000       fmove.l d2, fp0
   ││││││   0x0067b55e      f2286400001c   fmove.s fp0, 0x1c(a0)
   ││││││   0x0067b564      f2024000       fmove.l d2, fp0
   ││││││   0x0067b568      f2286400002c   fmove.s fp0, 0x2c(a0)
   └────└─> 0x0067b56e      b204           cmp.b d4, d1
    ││││┌─< 0x0067b570      670c           beq.b 0x67b57e
    │││││   0x0067b572      4a01           tst.b d1
   ┌──────< 0x0067b574      660000a8       bne.w 0x67b61e
   ││││││   0x0067b578      b006           cmp.b d6, d0
  ┌───────< 0x0067b57a      660000a2       bne.w 0x67b61e
  ││││││└─> 0x0067b57e      206e0020       movea.l 0x20(a6), a0
  ││││││    0x0067b582      f2104400       fmove.s (a0), fp0
  ││││││    0x0067b586      f22e4423ffa4   fmul.s -0x5c(a6), fp0
  ││││││    0x0067b58c      f22844800004   fmove.s 0x4(a0), fp1
  ││││││    0x0067b592      f22e44a3ffa8   fmul.s -0x58(a6), fp1
  ││││││    0x0067b598      f20000a2       fadd fp0, fp1
  ││││││    0x0067b59c      f22844000008   fmove.s 0x8(a0), fp0
  ││││││    0x0067b5a2      f2001823       fmul fp6, fp0
  ││││││    0x0067b5a6      f2000422       fadd fp1, fp0
  ││││││    0x0067b5aa      f2284422000c   fadd.s 0xc(a0), fp0
  ││││││    0x0067b5b0      f2286400000c   fmove.s fp0, 0xc(a0)
  ││││││    0x0067b5b6      f22844000010   fmove.s 0x10(a0), fp0
  ││││││    0x0067b5bc      f22e4423ffa4   fmul.s -0x5c(a6), fp0
  ││││││    0x0067b5c2      f22844800014   fmove.s 0x14(a0), fp1
  ││││││    0x0067b5c8      f22e44a3ffa8   fmul.s -0x58(a6), fp1
  ││││││    0x0067b5ce      f20000a2       fadd fp0, fp1
  ││││││    0x0067b5d2      f22844000018   fmove.s 0x18(a0), fp0
  ││││││    0x0067b5d8      f2001823       fmul fp6, fp0
  ││││││    0x0067b5dc      f2000422       fadd fp1, fp0
  ││││││    0x0067b5e0      f2284422001c   fadd.s 0x1c(a0), fp0
  ││││││    0x0067b5e6      f2286400001c   fmove.s fp0, 0x1c(a0)
  ││││││    0x0067b5ec      f22844000020   fmove.s 0x20(a0), fp0
  ││││││    0x0067b5f2      f22e4423ffa4   fmul.s -0x5c(a6), fp0
  ││││││    0x0067b5f8      f22844800024   fmove.s 0x24(a0), fp1
  ││││││    0x0067b5fe      f22e44a3ffa8   fmul.s -0x58(a6), fp1
  ││││││    0x0067b604      f20000a2       fadd fp0, fp1
  ││││││    0x0067b608      f22844000028   fmove.s 0x28(a0), fp0
  ││││││    0x0067b60e      f2001823       fmul fp6, fp0
  ││││││    0x0067b612      f2000422       fadd fp1, fp0
  ││││││    0x0067b616      f2284422002c   fadd.s 0x2c(a0), fp0
  ││││││┌─< 0x0067b61c      6032           bra.b 0x67b650
  └└──────> 0x0067b61e      206e0020       movea.l 0x20(a6), a0
    │││││   0x0067b622      f2284400000c   fmove.s 0xc(a0), fp0
    │││││   0x0067b628      f22e4422ffa4   fadd.s -0x5c(a6), fp0
    │││││   0x0067b62e      f2286400000c   fmove.s fp0, 0xc(a0)
    │││││   0x0067b634      f2284400001c   fmove.s 0x1c(a0), fp0
    │││││   0x0067b63a      f22e4422ffa8   fadd.s -0x58(a6), fp0
    │││││   0x0067b640      f2286400001c   fmove.s fp0, 0x1c(a0)
    │││││   0x0067b646      f2284400002c   fmove.s 0x2c(a0), fp0
    │││││   0x0067b64c      f2001822       fadd fp6, fp0
    ││││└─> 0x0067b650      f2286400002c   fmove.s fp0, 0x2c(a0)
    └└└└──> 0x0067b656      f21fd0c7       fmovem (a7)+, fp0-fp1/fp5-fp7
            0x0067b65a      4cdf1f7f       movem.l (a7)+, d0-d6/a0-a4
            0x0067b65e      4e5e           unlk a6
            0x0067b660      4e75           rts
┌ 24: THREEDMAV.do_zspin ();
│           0x0067b662      4e56ffa4       link.w a6, 0xffa4
│           0x0067b666      bfd5           cmpa.l (a5), a7
│       ┌─< 0x0067b668      6206           bhi.b 0x67b670
│       │   0x0067b66a      44fc0002       move.w 0x2, ccr
│       │   0x0067b66e      4e76           trapv
│       └─> 0x0067b670      defc004c       adda.w 0x4c, a7
│           0x0067b674      48e700c0       movem.l a0-a1, -(a7)
│           0x0067b678      f227e0e3       fmovem fp0-fp1/fp5-fp7, -(a7)
            0x0067b67c      43eefffc       lea.l -0x4(a6), a1
            0x0067b680      f22e44000008   fmove.s 0x8(a6), fp0
            0x0067b686      f2000023       fmul fp0, fp0
            0x0067b68a      f23c40220000.  fadd.l 0x1, fp0
            0x0067b692      f2000384       fsqrt fp0, fp7
            0x0067b696      f22e44000008   fmove.s 0x8(a6), fp0
            0x0067b69c      f2001c20       fdiv fp7, fp0
            0x0067b6a0      f2000380       fmove fp0, fp7
            0x0067b6a4      f2001c00       fmove fp7, fp0
            0x0067b6a8      f2000023       fmul fp0, fp0
            0x0067b6ac      f200001a       fneg fp0
            0x0067b6b0      f23c44223f80.  fadd.s 1, fp0
            0x0067b6b8      f2116400       fmove.s fp0, (a1)
            0x0067b6bc      f23c44380000.  fcmp.s 0, fp0
            0x0067b6c4      f29b0004       fbf.w 0x67b6ca
            0x0067b6c8      4291           clr.l (a1)
            0x0067b6ca      f2114704       fsqrt.s (a1), fp6
            0x0067b6ce      206e0010       movea.l 0x10(a6), a0
            0x0067b6d2      f2001800       fmove fp6, fp0
            0x0067b6d6      f2104423       fmul.s (a0), fp0
            0x0067b6da      f2001c80       fmove fp7, fp1
            0x0067b6de      f22844a30004   fmul.s 0x4(a0), fp1
            0x0067b6e4      f200049a       fneg fp1
            0x0067b6e8      f20000a2       fadd fp0, fp1
            0x0067b6ec      f2000680       fmove fp1, fp5
            0x0067b6f0      f2001c00       fmove fp7, fp0
            0x0067b6f4      f2104423       fmul.s (a0), fp0
            0x0067b6f8      f2001880       fmove fp6, fp1
            0x0067b6fc      f22844a30004   fmul.s 0x4(a0), fp1
            0x0067b702      f20000a2       fadd fp0, fp1
            0x0067b706      f22864800004   fmove.s fp1, 0x4(a0)
            0x0067b70c      f2106680       fmove.s fp5, (a0)
            0x0067b710      f2001800       fmove fp6, fp0
            0x0067b714      f22844230010   fmul.s 0x10(a0), fp0
            0x0067b71a      f2001c80       fmove fp7, fp1
            0x0067b71e      f22844a30014   fmul.s 0x14(a0), fp1
            0x0067b724      f200049a       fneg fp1
            0x0067b728      f20000a2       fadd fp0, fp1
            0x0067b72c      f2000680       fmove fp1, fp5
            0x0067b730      f2001c00       fmove fp7, fp0
            0x0067b734      f22844230010   fmul.s 0x10(a0), fp0
            0x0067b73a      f2001880       fmove fp6, fp1
            0x0067b73e      f22844a30014   fmul.s 0x14(a0), fp1
            0x0067b744      f20000a2       fadd fp0, fp1
            0x0067b748      f22864800014   fmove.s fp1, 0x14(a0)
            0x0067b74e      f22866800010   fmove.s fp5, 0x10(a0)
            0x0067b754      f2001800       fmove fp6, fp0
            0x0067b758      f22844230020   fmul.s 0x20(a0), fp0
            0x0067b75e      f2001c80       fmove fp7, fp1
            0x0067b762      f22844a30024   fmul.s 0x24(a0), fp1
            0x0067b768      f200049a       fneg fp1
            0x0067b76c      f20000a2       fadd fp0, fp1
            0x0067b770      f2000680       fmove fp1, fp5
            0x0067b774      f2001c00       fmove fp7, fp0
            0x0067b778      f22844230020   fmul.s 0x20(a0), fp0
            0x0067b77e      f2001880       fmove fp6, fp1
            0x0067b782      f22844a30024   fmul.s 0x24(a0), fp1
            0x0067b788      f20000a2       fadd fp0, fp1
            0x0067b78c      f22864800024   fmove.s fp1, 0x24(a0)
            0x0067b792      f22866800020   fmove.s fp5, 0x20(a0)
            0x0067b798      206e000c       movea.l 0xc(a6), a0
            0x0067b79c      f2104400       fmove.s (a0), fp0
            0x0067b7a0      f2001823       fmul fp6, fp0
            0x0067b7a4      f22844800010   fmove.s 0x10(a0), fp1
            0x0067b7aa      f2001ca3       fmul fp7, fp1
            0x0067b7ae      f200049a       fneg fp1
            0x0067b7b2      f20000a2       fadd fp0, fp1
            0x0067b7b6      f2000680       fmove fp1, fp5
            0x0067b7ba      f2104400       fmove.s (a0), fp0
            0x0067b7be      f2001c23       fmul fp7, fp0
            0x0067b7c2      f22844800010   fmove.s 0x10(a0), fp1
            0x0067b7c8      f20018a3       fmul fp6, fp1
            0x0067b7cc      f20000a2       fadd fp0, fp1
            0x0067b7d0      f22864800010   fmove.s fp1, 0x10(a0)
            0x0067b7d6      f2106680       fmove.s fp5, (a0)
            0x0067b7da      f22844000004   fmove.s 0x4(a0), fp0
            0x0067b7e0      f2001823       fmul fp6, fp0
            0x0067b7e4      f22844800014   fmove.s 0x14(a0), fp1
            0x0067b7ea      f2001ca3       fmul fp7, fp1
            0x0067b7ee      f200049a       fneg fp1
            0x0067b7f2      f20000a2       fadd fp0, fp1
            0x0067b7f6      f2000680       fmove fp1, fp5
            0x0067b7fa      f22844000004   fmove.s 0x4(a0), fp0
            0x0067b800      f2001c23       fmul fp7, fp0
            0x0067b804      f22844800014   fmove.s 0x14(a0), fp1
            0x0067b80a      f20018a3       fmul fp6, fp1
            0x0067b80e      f20000a2       fadd fp0, fp1
            0x0067b812      f22864800014   fmove.s fp1, 0x14(a0)
            0x0067b818      f22866800004   fmove.s fp5, 0x4(a0)
            0x0067b81e      f22844000008   fmove.s 0x8(a0), fp0
            0x0067b824      f2001823       fmul fp6, fp0
            0x0067b828      f22844800018   fmove.s 0x18(a0), fp1
            0x0067b82e      f2001ca3       fmul fp7, fp1
            0x0067b832      f200049a       fneg fp1
            0x0067b836      f20000a2       fadd fp0, fp1
            0x0067b83a      f2000680       fmove fp1, fp5
            0x0067b83e      f22844000008   fmove.s 0x8(a0), fp0
            0x0067b844      f2001c23       fmul fp7, fp0
            0x0067b848      f22844800018   fmove.s 0x18(a0), fp1
            0x0067b84e      f20018a3       fmul fp6, fp1
            0x0067b852      f20000a2       fadd fp0, fp1
            0x0067b856      f22864800018   fmove.s fp1, 0x18(a0)
            0x0067b85c      f22866800008   fmove.s fp5, 0x8(a0)
            0x0067b862      f2284400000c   fmove.s 0xc(a0), fp0
            0x0067b868      f2001823       fmul fp6, fp0
            0x0067b86c      f2284480001c   fmove.s 0x1c(a0), fp1
            0x0067b872      f2001ca3       fmul fp7, fp1
            0x0067b876      f200049a       fneg fp1
            0x0067b87a      f20000a2       fadd fp0, fp1
            0x0067b87e      f2000680       fmove fp1, fp5
            0x0067b882      f2284400000c   fmove.s 0xc(a0), fp0
            0x0067b888      f2001c23       fmul fp7, fp0
            0x0067b88c      f2284480001c   fmove.s 0x1c(a0), fp1
            0x0067b892      f20018a3       fmul fp6, fp1
            0x0067b896      f20000a2       fadd fp0, fp1
            0x0067b89a      f2286480001c   fmove.s fp1, 0x1c(a0)
            0x0067b8a0      f2286680000c   fmove.s fp5, 0xc(a0)
            0x0067b8a6      f21fd0c7       fmovem (a7)+, fp0-fp1/fp5-fp7
            0x0067b8aa      4cdf0300       movem.l (a7)+, a0-a1
            0x0067b8ae      4e5e           unlk a6
            0x0067b8b0      4e75           rts
┌ 24: THREEDMAV.sin_cos ();
│           0x0067b8b2      4e56ff94       link.w a6, 0xff94
│           0x0067b8b6      bfd5           cmpa.l (a5), a7
│       ┌─< 0x0067b8b8      6206           bhi.b 0x67b8c0
│       │   0x0067b8ba      44fc0002       move.w 0x2, ccr
│       │   0x0067b8be      4e76           trapv
│       └─> 0x0067b8c0      defc005c       adda.w 0x5c, a7
│           0x0067b8c4      48e7ffe0       movem.l d0-d7/a0-a2, -(a7)
│           0x0067b8c8      f227e0c1       fmovem fp0/fp6-fp7, -(a7)
            0x0067b8cc      43ee0010       lea.l 0x10(a6), a1
            0x0067b8d0      45ee000c       lea.l 0xc(a6), a2
            0x0067b8d4      7400           moveq 0x0, d2
            0x0067b8d6      263c391ed7fb   move.l 0x391ed7fb, d3
            0x0067b8dc      283cbb992665   move.l 0xbb992665, d4
            0x0067b8e2      2a3c3da33458   move.l 0x3da33458, d5
            0x0067b8e8      2c3cbf255de1   move.l 0xbf255de1, d6
            0x0067b8ee      f2114400       fmove.s (a1), fp0
            0x0067b8f2      f23c44233f22.  fmul.s 0, fp0
            0x0067b8fa      f2116400       fmove.s fp0, (a1)
            0x0067b8fe      f2024038       fcmp.l d2, fp0
            0x0067b902      f29b0012       fbf.w 0x67b916
            0x0067b906      f23c44004080.  fmove.s 4, fp0
            0x0067b90e      f2114422       fadd.s (a1), fp0
            0x0067b912      f2116400       fmove.s fp0, (a1)
            0x0067b916      594f           subq.w 0x4, a7
            0x0067b918      2f11           move.l (a1), -(a7)
            0x0067b91a      4eb9004081f8   jsr p_trunc
            0x0067b920      584f           addq.w 0x4, a7
            0x0067b922      2e1f           move.l (a7)+, d7
            0x0067b924      2007           move.l d7, d0
            0x0067b926      4c7c08010000.  divs.l 0x4, d0
            0x0067b92e      4a81           tst.l d1
        ┌─< 0x0067b930      6c02           bge.b 0x67b934
        │   0x0067b932      5881           addq.l 0x4, d1
        └─> 0x0067b934      2d41fff4       move.l d1, -0xc(a6)
            0x0067b938      0c8100000003   cmpi.l 0x3, d1
        ┌─< 0x0067b93e      6302           bls.b 0x67b942
        │   0x0067b940      4e4e           trap 0xe
        └─> 0x0067b942      d241           add.w d1, d1
            0x0067b944      323b1006       move.w 0x67b94c(pc, d1.w), d1
            0x0067b948      4efb1002       jmp 0x67b94c(pc, d1.w)
            0x0067b94c      0008007e       
            0x0067b94d      08007e00       
            0x0067b94e      007e00f6       
            0x0067b94f      7e00           moveq 0x0, d7
            0x0067b951      f6015ef21144   move16 (a1)+, 0x5ef21144
            0x0067b957      00f20740       
            0x0067b958      f2074028       fsub.l d7, fp0
            0x0067b95c      f2116400       fmove.s fp0, (a1)
            0x0067b960      f2114780       fmove.s (a1), fp7
            0x0067b964      f2001fa3       fmul fp7, fp7
            0x0067b968      2052           movea.l (a2), a0
            0x0067b96a      f2001c00       fmove fp7, fp0
            0x0067b96e      f2034423       fmul.s d3, fp0
            0x0067b972      f2044422       fadd.s d4, fp0
            0x0067b976      f2001c23       fmul fp7, fp0
            0x0067b97a      f2054422       fadd.s d5, fp0
            0x0067b97e      f2001c23       fmul fp7, fp0
            0x0067b982      f2064422       fadd.s d6, fp0
            0x0067b986      f2001c23       fmul fp7, fp0
            0x0067b98a      f23c44223fc9.  fadd.s 1, fp0
            0x0067b992      f2114423       fmul.s (a1), fp0
            0x0067b996      f2106400       fmove.s fp0, (a0)
            0x0067b99a      f2104700       fmove.s (a0), fp6
            0x0067b99e      f2001b23       fmul fp6, fp6
            0x0067b9a2      f2001b1a       fneg fp6
            0x0067b9a6      f23c47223f80.  fadd.s 1, fp6
            0x0067b9ae      f2024738       fcmp.s d2, fp6
            0x0067b9b2      f29b0006       fbf.w 0x67b9ba
            0x0067b9b6      f2024700       fmove.s d2, fp6
        ┌─> 0x0067b9ba      206e0008       movea.l 0x8(a6), a0
        ╎   0x0067b9be      f2001804       fsqrt fp6, fp0
       ┌──> 0x0067b9c2      f2106400       fmove.s fp0, (a0)
      ┌───< 0x0067b9c6      60000150       bra.w 0x67bb18
      │╎╎   0x0067b9ca      2007           move.l d7, d0
      │╎╎   0x0067b9cc      5280           addq.l 0x1, d0
      │╎╎   0x0067b9ce      f2004000       fmove.l d0, fp0
      │╎╎   0x0067b9d2      f2114428       fsub.s (a1), fp0
      │╎╎   0x0067b9d6      f2116400       fmove.s fp0, (a1)
      │╎╎   0x0067b9da      f2114780       fmove.s (a1), fp7
      │╎╎   0x0067b9de      f2001fa3       fmul fp7, fp7
      │╎╎   0x0067b9e2      2052           movea.l (a2), a0
      │╎╎   0x0067b9e4      f2001c00       fmove fp7, fp0
      │╎╎   0x0067b9e8      f2034423       fmul.s d3, fp0
      │╎╎   0x0067b9ec      f2044422       fadd.s d4, fp0
      │╎╎   0x0067b9f0      f2001c23       fmul fp7, fp0
      │╎╎   0x0067b9f4      f2054422       fadd.s d5, fp0
      │╎╎   0x0067b9f8      f2001c23       fmul fp7, fp0
      │╎╎   0x0067b9fc      f2064422       fadd.s d6, fp0
      │╎╎   0x0067ba00      f2001c23       fmul fp7, fp0
      │╎╎   0x0067ba04      f23c44223fc9.  fadd.s 1, fp0
      │╎╎   0x0067ba0c      f2114423       fmul.s (a1), fp0
      │╎╎   0x0067ba10      f2106400       fmove.s fp0, (a0)
      │╎╎   0x0067ba14      f2104700       fmove.s (a0), fp6
      │╎╎   0x0067ba18      f2001b23       fmul fp6, fp6
      │╎╎   0x0067ba1c      f2001b1a       fneg fp6
      │╎╎   0x0067ba20      f23c47223f80.  fadd.s 1, fp6
      │╎╎   0x0067ba28      f2024738       fcmp.s d2, fp6
      │╎╎   0x0067ba2c      f29b0006       fbf.w 0x67ba34
      │╎╎   0x0067ba30      f2024700       fmove.s d2, fp6
     ┌────> 0x0067ba34      206e0008       movea.l 0x8(a6), a0
     ╎│╎╎   0x0067ba38      f2001804       fsqrt fp6, fp0
     ╎│╎╎   0x0067ba3c      f200001a       fneg fp0
     ╎│└──< 0x0067ba40      6080           bra.b 0x67b9c2
     ╎│ ╎   0x0067ba42      f2074000       fmove.l d7, fp0
     ╎│ ╎   0x0067ba46      f2114428       fsub.s (a1), fp0
     ╎│ ╎   0x0067ba4a      f2116400       fmove.s fp0, (a1)
     ╎│ ╎   0x0067ba4e      f2114780       fmove.s (a1), fp7
     ╎│ ╎   0x0067ba52      f2001fa3       fmul fp7, fp7
     ╎│ ╎   0x0067ba56      2052           movea.l (a2), a0
     ╎│ ╎   0x0067ba58      f2001c00       fmove fp7, fp0
     ╎│ ╎   0x0067ba5c      f2034423       fmul.s d3, fp0
     ╎│ ╎   0x0067ba60      f2044422       fadd.s d4, fp0
     ╎│ ╎   0x0067ba64      f2001c23       fmul fp7, fp0
     ╎│ ╎   0x0067ba68      f2054422       fadd.s d5, fp0
     ╎│ ╎   0x0067ba6c      f2001c23       fmul fp7, fp0
     ╎│ ╎   0x0067ba70      f2064422       fadd.s d6, fp0
     ╎│ ╎   0x0067ba74      f2001c23       fmul fp7, fp0
     ╎│ ╎   0x0067ba78      f23c44223fc9.  fadd.s 1, fp0
     ╎│ ╎   0x0067ba80      f2114423       fmul.s (a1), fp0
     ╎│ ╎   0x0067ba84      f2106400       fmove.s fp0, (a0)
     ╎│ ╎   0x0067ba88      f2104700       fmove.s (a0), fp6
     ╎│ ╎   0x0067ba8c      f2001b23       fmul fp6, fp6
     ╎│ ╎   0x0067ba90      f2001b1a       fneg fp6
     ╎│ ╎   0x0067ba94      f23c47223f80.  fadd.s 1, fp6
     ╎│ ╎   0x0067ba9c      f2024738       fcmp.s d2, fp6
     ╎│ ╎   0x0067baa0      f29b0006       fbf.w 0x67baa8
     ╎│ ╎   0x0067baa4      f2024700       fmove.s d2, fp6
     └────< 0x0067baa8      608a           bra.b 0x67ba34
      │ ╎   0x0067baaa      2007           move.l d7, d0
      │ ╎   0x0067baac      5280           addq.l 0x1, d0
      │ ╎   0x0067baae      f2114400       fmove.s (a1), fp0
      │ ╎   0x0067bab2      f2004028       fsub.l d0, fp0
      │ ╎   0x0067bab6      f2116400       fmove.s fp0, (a1)
      │ ╎   0x0067baba      f2114780       fmove.s (a1), fp7
      │ ╎   0x0067babe      f2001fa3       fmul fp7, fp7
      │ ╎   0x0067bac2      2052           movea.l (a2), a0
      │ ╎   0x0067bac4      f2001c00       fmove fp7, fp0
      │ ╎   0x0067bac8      f2034423       fmul.s d3, fp0
      │ ╎   0x0067bacc      f2044422       fadd.s d4, fp0
      │ ╎   0x0067bad0      f2001c23       fmul fp7, fp0
      │ ╎   0x0067bad4      f2054422       fadd.s d5, fp0
      │ ╎   0x0067bad8      f2001c23       fmul fp7, fp0
      │ ╎   0x0067badc      f2064422       fadd.s d6, fp0
      │ ╎   0x0067bae0      f2001c23       fmul fp7, fp0
      │ ╎   0x0067bae4      f23c44223fc9.  fadd.s 1, fp0
      │ ╎   0x0067baec      f2114423       fmul.s (a1), fp0
      │ ╎   0x0067baf0      f2106400       fmove.s fp0, (a0)
      │ ╎   0x0067baf4      f2104700       fmove.s (a0), fp6
      │ ╎   0x0067baf8      f2001b23       fmul fp6, fp6
      │ ╎   0x0067bafc      f2001b1a       fneg fp6
      │ ╎   0x0067bb00      f23c47223f80.  fadd.s 1, fp6
      │ ╎   0x0067bb08      f2024738       fcmp.s d2, fp6
      │ ╎   0x0067bb0c      f29b0006       fbf.w 0x67bb14
      │ ╎   0x0067bb10      f2024700       fmove.s d2, fp6
      │ └─< 0x0067bb14      6000fea4       bra.w 0x67b9ba
      └───> 0x0067bb18      f21fd083       fmovem (a7)+, fp0/fp6-fp7
            0x0067bb1c      4cdf07ff       movem.l (a7)+, d0-d7/a0-a2
            0x0067bb20      4e5e           unlk a6
            0x0067bb22      4e75           rts
┌ 24: THREEDMAV.do_xspin ();
│           0x0067bb24      4e56ffac       link.w a6, 0xffac
│           0x0067bb28      bfd5           cmpa.l (a5), a7
│       ┌─< 0x0067bb2a      6206           bhi.b 0x67bb32
│       │   0x0067bb2c      44fc0002       move.w 0x2, ccr
│       │   0x0067bb30      4e76           trapv
│       └─> 0x0067bb32      defc0048       adda.w 0x48, a7
│           0x0067bb36      48e780f0       movem.l d0/a0-a3, -(a7)
│           0x0067bb3a      f227e083       fmovem fp0-fp1/fp7, -(a7)
            0x0067bb3e      43eefff8       lea.l -0x8(a6), a1
            0x0067bb42      45eefffc       lea.l -0x4(a6), a2
            0x0067bb46      47ec0054       lea.l 0x54(a4), a3
            0x0067bb4a      2f2e000a       move.l 0xa(a6), -(a7)
            0x0067bb4e      4851           pea.l (a1)
            0x0067bb50      4852           pea.l (a2)
            0x0067bb52      4ebafd5e       jsr THREEDMAV.sin_cos(pc)
            0x0067bb56      defc000c       adda.w 0xc, a7
            0x0067bb5a      102c004a       move.b 0x4a(a4), d0
            0x0067bb5e      4880           ext.w d0
            0x0067bb60      013ae4ba       btst.l d0, 0x67a01c(pc)
        ┌─< 0x0067bb64      670000d0       beq.w 0x67bc36
        │   0x0067bb68      2053           movea.l (a3), a0
        │   0x0067bb6a      f2124400       fmove.s (a2), fp0
        │   0x0067bb6e      f22844230004   fmul.s 0x4(a0), fp0
        │   0x0067bb74      f2114480       fmove.s (a1), fp1
        │   0x0067bb78      f22844a30008   fmul.s 0x8(a0), fp1
        │   0x0067bb7e      f200049a       fneg fp1
        │   0x0067bb82      f20000a2       fadd fp0, fp1
        │   0x0067bb86      f2000780       fmove fp1, fp7
        │   0x0067bb8a      f2114400       fmove.s (a1), fp0
        │   0x0067bb8e      f22844230004   fmul.s 0x4(a0), fp0
        │   0x0067bb94      f2124480       fmove.s (a2), fp1
        │   0x0067bb98      f22844a30008   fmul.s 0x8(a0), fp1
        │   0x0067bb9e      f20000a2       fadd fp0, fp1
        │   0x0067bba2      f22864800008   fmove.s fp1, 0x8(a0)
        │   0x0067bba8      f22867800004   fmove.s fp7, 0x4(a0)
        │   0x0067bbae      f2124400       fmove.s (a2), fp0
        │   0x0067bbb2      f22844230014   fmul.s 0x14(a0), fp0
        │   0x0067bbb8      f2114480       fmove.s (a1), fp1
        │   0x0067bbbc      f22844a30018   fmul.s 0x18(a0), fp1
        │   0x0067bbc2      f200049a       fneg fp1
        │   0x0067bbc6      f20000a2       fadd fp0, fp1
        │   0x0067bbca      f2000780       fmove fp1, fp7
        │   0x0067bbce      f2114400       fmove.s (a1), fp0
        │   0x0067bbd2      f22844230014   fmul.s 0x14(a0), fp0
        │   0x0067bbd8      f2124480       fmove.s (a2), fp1
        │   0x0067bbdc      f22844a30018   fmul.s 0x18(a0), fp1
        │   0x0067bbe2      f20000a2       fadd fp0, fp1
        │   0x0067bbe6      f22864800018   fmove.s fp1, 0x18(a0)
        │   0x0067bbec      f22867800014   fmove.s fp7, 0x14(a0)
        │   0x0067bbf2      f2124400       fmove.s (a2), fp0
        │   0x0067bbf6      f22844230024   fmul.s 0x24(a0), fp0
        │   0x0067bbfc      f2114480       fmove.s (a1), fp1
        │   0x0067bc00      f22844a30028   fmul.s 0x28(a0), fp1
        │   0x0067bc06      f200049a       fneg fp1
        │   0x0067bc0a      f20000a2       fadd fp0, fp1
        │   0x0067bc0e      f2000780       fmove fp1, fp7
        │   0x0067bc12      f2114400       fmove.s (a1), fp0
        │   0x0067bc16      f22844230024   fmul.s 0x24(a0), fp0
        │   0x0067bc1c      f2124480       fmove.s (a2), fp1
        │   0x0067bc20      f22844a30028   fmul.s 0x28(a0), fp1
        │   0x0067bc26      f20000a2       fadd fp0, fp1
        │   0x0067bc2a      f22864800028   fmove.s fp1, 0x28(a0)
        │   0x0067bc30      f22867800024   fmove.s fp7, 0x24(a0)
        └─> 0x0067bc36      013ae3e6       btst.l d0, 0x67a01e(pc)
        ┌─< 0x0067bc3a      67000132       beq.w 0x67bd6e
        │   0x0067bc3e      0c000002       cmpi.b 0x2, d0
       ┌──< 0x0067bc42      660e           bne.b 0x67bc52
       ││   0x0067bc44      f211441a       fneg.s (a1), fp0
       ││   0x0067bc48      f2116400       fmove.s fp0, (a1)
       ││   0x0067bc4c      206c0050       movea.l 0x50(a4), a0
      ┌───< 0x0067bc50      6002           bra.b 0x67bc54
      │└──> 0x0067bc52      2053           movea.l (a3), a0
      └───> 0x0067bc54      2888           move.l a0, (a4)
        │   0x0067bc56      2054           movea.l (a4), a0
        │   0x0067bc58      f22844000010   fmove.s 0x10(a0), fp0
        │   0x0067bc5e      f2124423       fmul.s (a2), fp0
        │   0x0067bc62      f22844800020   fmove.s 0x20(a0), fp1
        │   0x0067bc68      f21144a3       fmul.s (a1), fp1
        │   0x0067bc6c      f20000a2       fadd fp0, fp1
        │   0x0067bc70      f2000780       fmove fp1, fp7
        │   0x0067bc74      f22844000010   fmove.s 0x10(a0), fp0
        │   0x0067bc7a      f2114423       fmul.s (a1), fp0
        │   0x0067bc7e      f200001a       fneg fp0
        │   0x0067bc82      f22844800020   fmove.s 0x20(a0), fp1
        │   0x0067bc88      f21244a3       fmul.s (a2), fp1
        │   0x0067bc8c      f20000a2       fadd fp0, fp1
        │   0x0067bc90      f22864800020   fmove.s fp1, 0x20(a0)
        │   0x0067bc96      f22867800010   fmove.s fp7, 0x10(a0)
        │   0x0067bc9c      f22844000014   fmove.s 0x14(a0), fp0
        │   0x0067bca2      f2124423       fmul.s (a2), fp0
        │   0x0067bca6      f22844800024   fmove.s 0x24(a0), fp1
        │   0x0067bcac      f21144a3       fmul.s (a1), fp1
        │   0x0067bcb0      f20000a2       fadd fp0, fp1
        │   0x0067bcb4      f2000780       fmove fp1, fp7
        │   0x0067bcb8      f22844000014   fmove.s 0x14(a0), fp0
        │   0x0067bcbe      f2114423       fmul.s (a1), fp0
        │   0x0067bcc2      f200001a       fneg fp0
        │   0x0067bcc6      f22844800024   fmove.s 0x24(a0), fp1
        │   0x0067bccc      f21244a3       fmul.s (a2), fp1
        │   0x0067bcd0      f20000a2       fadd fp0, fp1
        │   0x0067bcd4      f22864800024   fmove.s fp1, 0x24(a0)
        │   0x0067bcda      f22867800014   fmove.s fp7, 0x14(a0)
        │   0x0067bce0      f22844000018   fmove.s 0x18(a0), fp0
        │   0x0067bce6      f2124423       fmul.s (a2), fp0
        │   0x0067bcea      f22844800028   fmove.s 0x28(a0), fp1
        │   0x0067bcf0      f21144a3       fmul.s (a1), fp1
        │   0x0067bcf4      f20000a2       fadd fp0, fp1
        │   0x0067bcf8      f2000780       fmove fp1, fp7
        │   0x0067bcfc      f22844000018   fmove.s 0x18(a0), fp0
        │   0x0067bd02      f2114423       fmul.s (a1), fp0
        │   0x0067bd06      f200001a       fneg fp0
        │   0x0067bd0a      f22844800028   fmove.s 0x28(a0), fp1
        │   0x0067bd10      f21244a3       fmul.s (a2), fp1
        │   0x0067bd14      f20000a2       fadd fp0, fp1
        │   0x0067bd18      f22864800028   fmove.s fp1, 0x28(a0)
        │   0x0067bd1e      f22867800018   fmove.s fp7, 0x18(a0)
        │   0x0067bd24      4a2e0008       tst.b 0x8(a6)
       ┌──< 0x0067bd28      6744           beq.b 0x67bd6e
       ││   0x0067bd2a      f2284400001c   fmove.s 0x1c(a0), fp0
       ││   0x0067bd30      f2124423       fmul.s (a2), fp0
       ││   0x0067bd34      f2284480002c   fmove.s 0x2c(a0), fp1
       ││   0x0067bd3a      f21144a3       fmul.s (a1), fp1
       ││   0x0067bd3e      f20000a2       fadd fp0, fp1
       ││   0x0067bd42      f2000780       fmove fp1, fp7
       ││   0x0067bd46      f2284400001c   fmove.s 0x1c(a0), fp0
       ││   0x0067bd4c      f2114423       fmul.s (a1), fp0
       ││   0x0067bd50      f200001a       fneg fp0
       ││   0x0067bd54      f2284480002c   fmove.s 0x2c(a0), fp1
       ││   0x0067bd5a      f21244a3       fmul.s (a2), fp1
       ││   0x0067bd5e      f20000a2       fadd fp0, fp1
       ││   0x0067bd62      f2286480002c   fmove.s fp1, 0x2c(a0)
       ││   0x0067bd68      f2286780001c   fmove.s fp7, 0x1c(a0)
       └└─> 0x0067bd6e      2053           movea.l (a3), a0
            0x0067bd70      f2284400003c   fmove.s 0x3c(a0), fp0
            0x0067bd76      f22e4422000a   fadd.s 0xa(a6), fp0
            0x0067bd7c      f2286400003c   fmove.s fp0, 0x3c(a0)
            0x0067bd82      f21fd0c1       fmovem (a7)+, fp0-fp1/fp7
            0x0067bd86      4cdf0f01       movem.l (a7)+, d0/a0-a3
            0x0067bd8a      4e5e           unlk a6
            0x0067bd8c      4e75           rts
┌ 24: THREEDMAV.do_yspin ();
│           0x0067bd8e      4e56ffac       link.w a6, 0xffac
│           0x0067bd92      bfd5           cmpa.l (a5), a7
│       ┌─< 0x0067bd94      6206           bhi.b 0x67bd9c
│       │   0x0067bd96      44fc0002       move.w 0x2, ccr
│       │   0x0067bd9a      4e76           trapv
│       └─> 0x0067bd9c      defc0048       adda.w 0x48, a7
│           0x0067bda0      48e780f0       movem.l d0/a0-a3, -(a7)
│           0x0067bda4      f227e083       fmovem fp0-fp1/fp7, -(a7)
            0x0067bda8      43eefff8       lea.l -0x8(a6), a1
            0x0067bdac      45eefffc       lea.l -0x4(a6), a2
            0x0067bdb0      47ec0054       lea.l 0x54(a4), a3
            0x0067bdb4      2f2e000a       move.l 0xa(a6), -(a7)
            0x0067bdb8      4851           pea.l (a1)
            0x0067bdba      4852           pea.l (a2)
            0x0067bdbc      4ebafaf4       jsr THREEDMAV.sin_cos(pc)
            0x0067bdc0      defc000c       adda.w 0xc, a7
            0x0067bdc4      102c004a       move.b 0x4a(a4), d0
            0x0067bdc8      4880           ext.w d0
            0x0067bdca      013ae254       btst.l d0, 0x67a020(pc)
        ┌─< 0x0067bdce      670000ca       beq.w 0x67be9a
        │   0x0067bdd2      2053           movea.l (a3), a0
        │   0x0067bdd4      f2124400       fmove.s (a2), fp0
        │   0x0067bdd8      f2104423       fmul.s (a0), fp0
        │   0x0067bddc      f2114480       fmove.s (a1), fp1
        │   0x0067bde0      f22844a30008   fmul.s 0x8(a0), fp1
        │   0x0067bde6      f20000a2       fadd fp0, fp1
        │   0x0067bdea      f2000780       fmove fp1, fp7
        │   0x0067bdee      f2114400       fmove.s (a1), fp0
        │   0x0067bdf2      f2104423       fmul.s (a0), fp0
        │   0x0067bdf6      f200001a       fneg fp0
        │   0x0067bdfa      f2124480       fmove.s (a2), fp1
        │   0x0067bdfe      f22844a30008   fmul.s 0x8(a0), fp1
        │   0x0067be04      f20000a2       fadd fp0, fp1
        │   0x0067be08      f22864800008   fmove.s fp1, 0x8(a0)
        │   0x0067be0e      f2106780       fmove.s fp7, (a0)
        │   0x0067be12      f2124400       fmove.s (a2), fp0
        │   0x0067be16      f22844230010   fmul.s 0x10(a0), fp0
        │   0x0067be1c      f2114480       fmove.s (a1), fp1
        │   0x0067be20      f22844a30018   fmul.s 0x18(a0), fp1
        │   0x0067be26      f20000a2       fadd fp0, fp1
        │   0x0067be2a      f2000780       fmove fp1, fp7
        │   0x0067be2e      f2114400       fmove.s (a1), fp0
        │   0x0067be32      f22844230010   fmul.s 0x10(a0), fp0
        │   0x0067be38      f200001a       fneg fp0
        │   0x0067be3c      f2124480       fmove.s (a2), fp1
        │   0x0067be40      f22844a30018   fmul.s 0x18(a0), fp1
        │   0x0067be46      f20000a2       fadd fp0, fp1
        │   0x0067be4a      f22864800018   fmove.s fp1, 0x18(a0)
        │   0x0067be50      f22867800010   fmove.s fp7, 0x10(a0)
        │   0x0067be56      f2124400       fmove.s (a2), fp0
        │   0x0067be5a      f22844230020   fmul.s 0x20(a0), fp0
        │   0x0067be60      f2114480       fmove.s (a1), fp1
        │   0x0067be64      f22844a30028   fmul.s 0x28(a0), fp1
        │   0x0067be6a      f20000a2       fadd fp0, fp1
        │   0x0067be6e      f2000780       fmove fp1, fp7
        │   0x0067be72      f2114400       fmove.s (a1), fp0
        │   0x0067be76      f22844230020   fmul.s 0x20(a0), fp0
        │   0x0067be7c      f200001a       fneg fp0
        │   0x0067be80      f2124480       fmove.s (a2), fp1
        │   0x0067be84      f22844a30028   fmul.s 0x28(a0), fp1
        │   0x0067be8a      f20000a2       fadd fp0, fp1
        │   0x0067be8e      f22864800028   fmove.s fp1, 0x28(a0)
        │   0x0067be94      f22867800020   fmove.s fp7, 0x20(a0)
        └─> 0x0067be9a      013ae186       btst.l d0, 0x67a022(pc)
        ┌─< 0x0067be9e      6700012c       beq.w 0x67bfcc
        │   0x0067bea2      0c000002       cmpi.b 0x2, d0
       ┌──< 0x0067bea6      660e           bne.b 0x67beb6
       ││   0x0067bea8      f211441a       fneg.s (a1), fp0
       ││   0x0067beac      f2116400       fmove.s fp0, (a1)
       ││   0x0067beb0      206c0050       movea.l 0x50(a4), a0
      ┌───< 0x0067beb4      6002           bra.b 0x67beb8
      │└──> 0x0067beb6      2053           movea.l (a3), a0
      └───> 0x0067beb8      2888           move.l a0, (a4)
        │   0x0067beba      2054           movea.l (a4), a0
        │   0x0067bebc      f2104400       fmove.s (a0), fp0
        │   0x0067bec0      f2124423       fmul.s (a2), fp0
        │   0x0067bec4      f22844800020   fmove.s 0x20(a0), fp1
        │   0x0067beca      f21144a3       fmul.s (a1), fp1
        │   0x0067bece      f200049a       fneg fp1
        │   0x0067bed2      f20000a2       fadd fp0, fp1
        │   0x0067bed6      f2000780       fmove fp1, fp7
        │   0x0067beda      f2104400       fmove.s (a0), fp0
        │   0x0067bede      f2114423       fmul.s (a1), fp0
        │   0x0067bee2      f22844800020   fmove.s 0x20(a0), fp1
        │   0x0067bee8      f21244a3       fmul.s (a2), fp1
        │   0x0067beec      f20000a2       fadd fp0, fp1
        │   0x0067bef0      f22864800020   fmove.s fp1, 0x20(a0)
        │   0x0067bef6      f2106780       fmove.s fp7, (a0)
        │   0x0067befa      f22844000004   fmove.s 0x4(a0), fp0
        │   0x0067bf00      f2124423       fmul.s (a2), fp0
        │   0x0067bf04      f22844800024   fmove.s 0x24(a0), fp1
        │   0x0067bf0a      f21144a3       fmul.s (a1), fp1
        │   0x0067bf0e      f200049a       fneg fp1
        │   0x0067bf12      f20000a2       fadd fp0, fp1
        │   0x0067bf16      f2000780       fmove fp1, fp7
        │   0x0067bf1a      f22844000004   fmove.s 0x4(a0), fp0
        │   0x0067bf20      f2114423       fmul.s (a1), fp0
        │   0x0067bf24      f22844800024   fmove.s 0x24(a0), fp1
        │   0x0067bf2a      f21244a3       fmul.s (a2), fp1
        │   0x0067bf2e      f20000a2       fadd fp0, fp1
        │   0x0067bf32      f22864800024   fmove.s fp1, 0x24(a0)
        │   0x0067bf38      f22867800004   fmove.s fp7, 0x4(a0)
        │   0x0067bf3e      f22844000008   fmove.s 0x8(a0), fp0
        │   0x0067bf44      f2124423       fmul.s (a2), fp0
        │   0x0067bf48      f22844800028   fmove.s 0x28(a0), fp1
        │   0x0067bf4e      f21144a3       fmul.s (a1), fp1
        │   0x0067bf52      f200049a       fneg fp1
        │   0x0067bf56      f20000a2       fadd fp0, fp1
        │   0x0067bf5a      f2000780       fmove fp1, fp7
        │   0x0067bf5e      f22844000008   fmove.s 0x8(a0), fp0
        │   0x0067bf64      f2114423       fmul.s (a1), fp0
        │   0x0067bf68      f22844800028   fmove.s 0x28(a0), fp1
        │   0x0067bf6e      f21244a3       fmul.s (a2), fp1
        │   0x0067bf72      f20000a2       fadd fp0, fp1
        │   0x0067bf76      f22864800028   fmove.s fp1, 0x28(a0)
        │   0x0067bf7c      f22867800008   fmove.s fp7, 0x8(a0)
        │   0x0067bf82      4a2e0008       tst.b 0x8(a6)
       ┌──< 0x0067bf86      6744           beq.b 0x67bfcc
       ││   0x0067bf88      f2284400000c   fmove.s 0xc(a0), fp0
       ││   0x0067bf8e      f2124423       fmul.s (a2), fp0
       ││   0x0067bf92      f2284480002c   fmove.s 0x2c(a0), fp1
       ││   0x0067bf98      f21144a3       fmul.s (a1), fp1
       ││   0x0067bf9c      f200049a       fneg fp1
       ││   0x0067bfa0      f20000a2       fadd fp0, fp1
       ││   0x0067bfa4      f2000780       fmove fp1, fp7
       ││   0x0067bfa8      f2284400000c   fmove.s 0xc(a0), fp0
       ││   0x0067bfae      f2114423       fmul.s (a1), fp0
       ││   0x0067bfb2      f2284480002c   fmove.s 0x2c(a0), fp1
       ││   0x0067bfb8      f21244a3       fmul.s (a2), fp1
       ││   0x0067bfbc      f20000a2       fadd fp0, fp1
       ││   0x0067bfc0      f2286480002c   fmove.s fp1, 0x2c(a0)
       ││   0x0067bfc6      f2286780000c   fmove.s fp7, 0xc(a0)
       └└─> 0x0067bfcc      2053           movea.l (a3), a0
            0x0067bfce      f22844000040   fmove.s 0x40(a0), fp0
            0x0067bfd4      f22e4422000a   fadd.s 0xa(a6), fp0
            0x0067bfda      f22864000040   fmove.s fp0, 0x40(a0)
            0x0067bfe0      f21fd0c1       fmovem (a7)+, fp0-fp1/fp7
            0x0067bfe4      4cdf0f01       movem.l (a7)+, d0/a0-a3
            0x0067bfe8      4e5e           unlk a6
            0x0067bfea      4e75           rts
            0x0067bfec      4e56ffac       link.w a6, 0xffac
            0x0067bff0      bfd5           cmpa.l (a5), a7
        ┌─< 0x0067bff2      6206           bhi.b 0x67bffa
        │   0x0067bff4      44fc0002       move.w 0x2, ccr
        │   0x0067bff8      4e76           trapv
        └─> 0x0067bffa      defc0048       adda.w 0x48, a7
            0x0067bffe      48e780f0       movem.l d0/a0-a3, -(a7)
            0x0067c002      f227e083       fmovem fp0-fp1/fp7, -(a7)
            0x0067c006      43eefff8       lea.l -0x8(a6), a1
            0x0067c00a      45eefffc       lea.l -0x4(a6), a2
            0x0067c00e      47ec0054       lea.l 0x54(a4), a3
            0x0067c012      2f2e000a       move.l 0xa(a6), -(a7)
            0x0067c016      4851           pea.l (a1)
            0x0067c018      4852           pea.l (a2)
            0x0067c01a      4ebaf896       jsr THREEDMAV.sin_cos(pc)
            0x0067c01e      defc000c       adda.w 0xc, a7
            0x0067c022      102c004a       move.b 0x4a(a4), d0
            0x0067c026      4880           ext.w d0
            0x0067c028      013adffa       btst.l d0, 0x67a024(pc)
        ┌─< 0x0067c02c      670000ca       beq.w 0x67c0f8
        │   0x0067c030      2053           movea.l (a3), a0
        │   0x0067c032      f2124400       fmove.s (a2), fp0
        │   0x0067c036      f2104423       fmul.s (a0), fp0
        │   0x0067c03a      f2114480       fmove.s (a1), fp1
        │   0x0067c03e      f22844a30004   fmul.s 0x4(a0), fp1
        │   0x0067c044      f200049a       fneg fp1
        │   0x0067c048      f20000a2       fadd fp0, fp1
        │   0x0067c04c      f2000780       fmove fp1, fp7
        │   0x0067c050      f2114400       fmove.s (a1), fp0
        │   0x0067c054      f2104423       fmul.s (a0), fp0
        │   0x0067c058      f2124480       fmove.s (a2), fp1
        │   0x0067c05c      f22844a30004   fmul.s 0x4(a0), fp1
        │   0x0067c062      f20000a2       fadd fp0, fp1
        │   0x0067c066      f22864800004   fmove.s fp1, 0x4(a0)
        │   0x0067c06c      f2106780       fmove.s fp7, (a0)
        │   0x0067c070      f2124400       fmove.s (a2), fp0
        │   0x0067c074      f22844230010   fmul.s 0x10(a0), fp0
        │   0x0067c07a      f2114480       fmove.s (a1), fp1
        │   0x0067c07e      f22844a30014   fmul.s 0x14(a0), fp1
        │   0x0067c084      f200049a       fneg fp1
        │   0x0067c088      f20000a2       fadd fp0, fp1
        │   0x0067c08c      f2000780       fmove fp1, fp7
        │   0x0067c090      f2114400       fmove.s (a1), fp0
        │   0x0067c094      f22844230010   fmul.s 0x10(a0), fp0
        │   0x0067c09a      f2124480       fmove.s (a2), fp1
        │   0x0067c09e      f22844a30014   fmul.s 0x14(a0), fp1
        │   0x0067c0a4      f20000a2       fadd fp0, fp1
        │   0x0067c0a8      f22864800014   fmove.s fp1, 0x14(a0)
        │   0x0067c0ae      f22867800010   fmove.s fp7, 0x10(a0)
        │   0x0067c0b4      f2124400       fmove.s (a2), fp0
        │   0x0067c0b8      f22844230020   fmul.s 0x20(a0), fp0
        │   0x0067c0be      f2114480       fmove.s (a1), fp1
        │   0x0067c0c2      f22844a30024   fmul.s 0x24(a0), fp1
        │   0x0067c0c8      f200049a       fneg fp1
        │   0x0067c0cc      f20000a2       fadd fp0, fp1
        │   0x0067c0d0      f2000780       fmove fp1, fp7
        │   0x0067c0d4      f2114400       fmove.s (a1), fp0
        │   0x0067c0d8      f22844230020   fmul.s 0x20(a0), fp0
        │   0x0067c0de      f2124480       fmove.s (a2), fp1
        │   0x0067c0e2      f22844a30024   fmul.s 0x24(a0), fp1
        │   0x0067c0e8      f20000a2       fadd fp0, fp1
        │   0x0067c0ec      f22864800024   fmove.s fp1, 0x24(a0)
        │   0x0067c0f2      f22867800020   fmove.s fp7, 0x20(a0)
        └─> 0x0067c0f8      013adf2c       btst.l d0, 0x67a026(pc)
        ┌─< 0x0067c0fc      6700012c       beq.w 0x67c22a
        │   0x0067c100      0c000002       cmpi.b 0x2, d0
       ┌──< 0x0067c104      660e           bne.b 0x67c114
       ││   0x0067c106      f211441a       fneg.s (a1), fp0
       ││   0x0067c10a      f2116400       fmove.s fp0, (a1)
       ││   0x0067c10e      206c0050       movea.l 0x50(a4), a0
      ┌───< 0x0067c112      6002           bra.b 0x67c116
      │└──> 0x0067c114      2053           movea.l (a3), a0
      └───> 0x0067c116      2888           move.l a0, (a4)
        │   0x0067c118      2054           movea.l (a4), a0
        │   0x0067c11a      f2104400       fmove.s (a0), fp0
        │   0x0067c11e      f2124423       fmul.s (a2), fp0
        │   0x0067c122      f22844800010   fmove.s 0x10(a0), fp1
        │   0x0067c128      f21144a3       fmul.s (a1), fp1
        │   0x0067c12c      f20000a2       fadd fp0, fp1
        │   0x0067c130      f2000780       fmove fp1, fp7
        │   0x0067c134      f2104400       fmove.s (a0), fp0
        │   0x0067c138      f2114423       fmul.s (a1), fp0
        │   0x0067c13c      f200001a       fneg fp0
        │   0x0067c140      f22844800010   fmove.s 0x10(a0), fp1
        │   0x0067c146      f21244a3       fmul.s (a2), fp1
        │   0x0067c14a      f20000a2       fadd fp0, fp1
        │   0x0067c14e      f22864800010   fmove.s fp1, 0x10(a0)
        │   0x0067c154      f2106780       fmove.s fp7, (a0)
        │   0x0067c158      f22844000004   fmove.s 0x4(a0), fp0
        │   0x0067c15e      f2124423       fmul.s (a2), fp0
        │   0x0067c162      f22844800014   fmove.s 0x14(a0), fp1
        │   0x0067c168      f21144a3       fmul.s (a1), fp1
        │   0x0067c16c      f20000a2       fadd fp0, fp1
        │   0x0067c170      f2000780       fmove fp1, fp7
        │   0x0067c174      f22844000004   fmove.s 0x4(a0), fp0
        │   0x0067c17a      f2114423       fmul.s (a1), fp0
        │   0x0067c17e      f200001a       fneg fp0
        │   0x0067c182      f22844800014   fmove.s 0x14(a0), fp1
        │   0x0067c188      f21244a3       fmul.s (a2), fp1
        │   0x0067c18c      f20000a2       fadd fp0, fp1
        │   0x0067c190      f22864800014   fmove.s fp1, 0x14(a0)
        │   0x0067c196      f22867800004   fmove.s fp7, 0x4(a0)
        │   0x0067c19c      f22844000008   fmove.s 0x8(a0), fp0
        │   0x0067c1a2      f2124423       fmul.s (a2), fp0
        │   0x0067c1a6      f22844800018   fmove.s 0x18(a0), fp1
        │   0x0067c1ac      f21144a3       fmul.s (a1), fp1
        │   0x0067c1b0      f20000a2       fadd fp0, fp1
        │   0x0067c1b4      f2000780       fmove fp1, fp7
        │   0x0067c1b8      f22844000008   fmove.s 0x8(a0), fp0
        │   0x0067c1be      f2114423       fmul.s (a1), fp0
        │   0x0067c1c2      f200001a       fneg fp0
        │   0x0067c1c6      f22844800018   fmove.s 0x18(a0), fp1
        │   0x0067c1cc      f21244a3       fmul.s (a2), fp1
        │   0x0067c1d0      f20000a2       fadd fp0, fp1
        │   0x0067c1d4      f22864800018   fmove.s fp1, 0x18(a0)
        │   0x0067c1da      f22867800008   fmove.s fp7, 0x8(a0)
        │   0x0067c1e0      4a2e0008       tst.b 0x8(a6)
       ┌──< 0x0067c1e4      6744           beq.b 0x67c22a
       ││   0x0067c1e6      f2284400000c   fmove.s 0xc(a0), fp0
       ││   0x0067c1ec      f2124423       fmul.s (a2), fp0
       ││   0x0067c1f0      f2284480001c   fmove.s 0x1c(a0), fp1
       ││   0x0067c1f6      f21144a3       fmul.s (a1), fp1
       ││   0x0067c1fa      f20000a2       fadd fp0, fp1
       ││   0x0067c1fe      f2000780       fmove fp1, fp7
       ││   0x0067c202      f2284400000c   fmove.s 0xc(a0), fp0
       ││   0x0067c208      f2114423       fmul.s (a1), fp0
       ││   0x0067c20c      f200001a       fneg fp0
       ││   0x0067c210      f2284480001c   fmove.s 0x1c(a0), fp1
       ││   0x0067c216      f21244a3       fmul.s (a2), fp1
       ││   0x0067c21a      f20000a2       fadd fp0, fp1
       ││   0x0067c21e      f2286480001c   fmove.s fp1, 0x1c(a0)
       ││   0x0067c224      f2286780000c   fmove.s fp7, 0xc(a0)
       └└─> 0x0067c22a      2053           movea.l (a3), a0
            0x0067c22c      f22844000044   fmove.s 0x44(a0), fp0
            0x0067c232      f22e4422000a   fadd.s 0xa(a6), fp0
            0x0067c238      f22864000044   fmove.s fp0, 0x44(a0)
            0x0067c23e      f21fd0c1       fmovem (a7)+, fp0-fp1/fp7
            0x0067c242      4cdf0f01       movem.l (a7)+, d0/a0-a3
            0x0067c246      4e5e           unlk a6
            0x0067c248      4e75           rts
┌ 24: THREEDMAV.set_nospin ();
│           0x0067c24a      4e56ffe0       link.w a6, 0xffe0
│           0x0067c24e      bfd5           cmpa.l (a5), a7
│       ┌─< 0x0067c250      6206           bhi.b 0x67c258
│       │   0x0067c252      44fc0002       move.w 0x2, ccr
│       │   0x0067c256      4e76           trapv
│       └─> 0x0067c258      defc0020       adda.w 0x20, a7
│           0x0067c25c      48e7c080       movem.l d0-d1/a0, -(a7)
│           0x0067c260      f227e001       fmovem fp0, -(a7)
            0x0067c264      7000           moveq 0x0, d0
            0x0067c266      7201           moveq 0x1, d1
            0x0067c268      206e0008       movea.l 0x8(a6), a0
            0x0067c26c      f2014000       fmove.l d1, fp0
            0x0067c270      f2106400       fmove.s fp0, (a0)
            0x0067c274      f2004000       fmove.l d0, fp0
            0x0067c278      f22864000004   fmove.s fp0, 0x4(a0)
            0x0067c27e      f2004000       fmove.l d0, fp0
            0x0067c282      f22864000008   fmove.s fp0, 0x8(a0)
            0x0067c288      f2004000       fmove.l d0, fp0
            0x0067c28c      f22864000010   fmove.s fp0, 0x10(a0)
            0x0067c292      f2014000       fmove.l d1, fp0
            0x0067c296      f22864000014   fmove.s fp0, 0x14(a0)
            0x0067c29c      f2004000       fmove.l d0, fp0
            0x0067c2a0      f22864000018   fmove.s fp0, 0x18(a0)
            0x0067c2a6      f2004000       fmove.l d0, fp0
            0x0067c2aa      f22864000020   fmove.s fp0, 0x20(a0)
            0x0067c2b0      f2004000       fmove.l d0, fp0
            0x0067c2b4      f22864000024   fmove.s fp0, 0x24(a0)
            0x0067c2ba      f2014000       fmove.l d1, fp0
            0x0067c2be      f22864000028   fmove.s fp0, 0x28(a0)
            0x0067c2c4      f2004000       fmove.l d0, fp0
            0x0067c2c8      f2286400003c   fmove.s fp0, 0x3c(a0)
            0x0067c2ce      f2004000       fmove.l d0, fp0
            0x0067c2d2      f22864000040   fmove.s fp0, 0x40(a0)
            0x0067c2d8      f2004000       fmove.l d0, fp0
            0x0067c2dc      f22864000044   fmove.s fp0, 0x44(a0)
            0x0067c2e2      f21fd080       fmovem (a7)+, fp0
            0x0067c2e6      4cdf0103       movem.l (a7)+, d0-d1/a0
            0x0067c2ea      4e5e           unlk a6
            0x0067c2ec      4e75           rts
            ; CALL XREF from PASTECOM.calc_transforms @ 0x670406
┌ 24: THREEDMAV.do_spin ();
│           0x0067c2ee      4e56ff40       link.w a6, 0xff40
│           0x0067c2f2      bfd5           cmpa.l (a5), a7
│       ┌─< 0x0067c2f4      6206           bhi.b 0x67c2fc
│       │   0x0067c2f6      44fc0002       move.w 0x2, ccr
│       │   0x0067c2fa      4e76           trapv
│       └─> 0x0067c2fc      defc008c       adda.w 0x8c, a7
│           0x0067c300      48e7fef8       movem.l d0-d6/a0-a4, -(a7)
│           0x0067c304      f227e0e7       fmovem fp0-fp2/fp5-fp7, -(a7)
            0x0067c308      45eeffcc       lea.l -0x34(a6), a2
            0x0067c30c      47ee000c       lea.l 0xc(a6), a3
            0x0067c310      7401           moveq 0x1, d2
            0x0067c312      7606           moveq 0x6, d3
            0x0067c314      780b           moveq 0xb, d4
            0x0067c316      2a3c3727c5ac   move.l 0x3727c5ac, d5
            0x0067c31c      7c0a           moveq 0xa, d6
            0x0067c31e      102e0014       move.b 0x14(a6), d0
            0x0067c322      4880           ext.w d0
            0x0067c324      3200           move.w d0, d1
            0x0067c326      b244           cmp.w d4, d1
        ┌─< 0x0067c328      6302           bls.b 0x67c32c
        │   0x0067c32a      4e4e           trap 0xe
        └─> 0x0067c32c      d241           add.w d1, d1
            0x0067c32e      323b1006       move.w 0x67c336(pc, d1.w), d1
            0x0067c332      4efb1002       jmp 0x67c336(pc, d1.w)
            0x0067c336      00440152       ori.w 0x152, d4
            0x0067c33a      01ec0288       bset.b d0, 0x288(a4)
            0x0067c33e      00180308       ori.b 0x8, (a0)+
            0x0067c342      03080308       movep.w 0x308(a0), d1
            0x0067c346      03080308       movep.w 0x308(a0), d1
            0x0067c34a      03080308       movep.w 0x308(a0), d1
            0x0067c34e      2f2e0008       move.l 0x8(a6), -(a7)
            0x0067c352      1f02           move.b d2, -(a7)
            0x0067c354      284a           movea.l a2, a4
            0x0067c356      4ebaf7cc       jsr THREEDMAV.do_xspin(pc)
            0x0067c35a      544f           addq.w 0x2, a7
            0x0067c35c      2e93           move.l (a3), (a7)
            0x0067c35e      1f02           move.b d2, -(a7)
            0x0067c360      284a           movea.l a2, a4
            0x0067c362      4ebafa2a       jsr THREEDMAV.do_yspin(pc)
            0x0067c366      544f           addq.w 0x2, a7
            0x0067c368      2eae0010       move.l 0x10(a6), (a7)
       ┌┌─> 0x0067c36c      1f02           move.b d2, -(a7)
       ╎╎   0x0067c36e      284a           movea.l a2, a4
       ╎╎   0x0067c370      4ebafc7a       jsr 0x67bfec(pc)
     ┌┌───> 0x0067c374      5c4f           addq.w 0x6, a7
    ┌─────< 0x0067c376      60000540       bra.w 0x67c8b8
    │╎╎╎╎   0x0067c37a      206e0024       movea.l 0x24(a6), a0
    │╎╎╎╎   0x0067c37e      f22844000014   fmove.s 0x14(a0), fp0
    │╎╎╎╎   0x0067c384      f22844230028   fmul.s 0x28(a0), fp0
    │╎╎╎╎   0x0067c38a      f22844800024   fmove.s 0x24(a0), fp1
    │╎╎╎╎   0x0067c390      f22844a30018   fmul.s 0x18(a0), fp1
    │╎╎╎╎   0x0067c396      f200049a       fneg fp1
    │╎╎╎╎   0x0067c39a      f20000a2       fadd fp0, fp1
    │╎╎╎╎   0x0067c39e      f22e44a30008   fmul.s 0x8(a6), fp1
    │╎╎╎╎   0x0067c3a4      f22844000024   fmove.s 0x24(a0), fp0
    │╎╎╎╎   0x0067c3aa      f22844230008   fmul.s 0x8(a0), fp0
    │╎╎╎╎   0x0067c3b0      f22845000004   fmove.s 0x4(a0), fp2
    │╎╎╎╎   0x0067c3b6      f22845230028   fmul.s 0x28(a0), fp2
    │╎╎╎╎   0x0067c3bc      f200091a       fneg fp2
    │╎╎╎╎   0x0067c3c0      f2000122       fadd fp0, fp2
    │╎╎╎╎   0x0067c3c4      f2134523       fmul.s (a3), fp2
    │╎╎╎╎   0x0067c3c8      f2000522       fadd fp1, fp2
    │╎╎╎╎   0x0067c3cc      f2276500       fmove.s fp2, -(a7)
    │╎╎╎╎   0x0067c3d0      1f02           move.b d2, -(a7)
    │╎╎╎╎   0x0067c3d2      284a           movea.l a2, a4
    │╎╎╎╎   0x0067c3d4      4ebaf74e       jsr THREEDMAV.do_xspin(pc)
    │╎╎╎╎   0x0067c3d8      5c4f           addq.w 0x6, a7
    │╎╎╎╎   0x0067c3da      f22844000020   fmove.s 0x20(a0), fp0
    │╎╎╎╎   0x0067c3e0      f22844230018   fmul.s 0x18(a0), fp0
    │╎╎╎╎   0x0067c3e6      f22844800010   fmove.s 0x10(a0), fp1
    │╎╎╎╎   0x0067c3ec      f22844a30028   fmul.s 0x28(a0), fp1
    │╎╎╎╎   0x0067c3f2      f200049a       fneg fp1
    │╎╎╎╎   0x0067c3f6      f20000a2       fadd fp0, fp1
    │╎╎╎╎   0x0067c3fa      f22e44a30008   fmul.s 0x8(a6), fp1
    │╎╎╎╎   0x0067c400      f2104400       fmove.s (a0), fp0
    │╎╎╎╎   0x0067c404      f22844230028   fmul.s 0x28(a0), fp0
    │╎╎╎╎   0x0067c40a      f22845000020   fmove.s 0x20(a0), fp2
    │╎╎╎╎   0x0067c410      f22845230008   fmul.s 0x8(a0), fp2
    │╎╎╎╎   0x0067c416      f200091a       fneg fp2
    │╎╎╎╎   0x0067c41a      f2000122       fadd fp0, fp2
    │╎╎╎╎   0x0067c41e      f2134523       fmul.s (a3), fp2
    │╎╎╎╎   0x0067c422      f2000522       fadd fp1, fp2
    │╎╎╎╎   0x0067c426      f2276500       fmove.s fp2, -(a7)
    │╎╎╎╎   0x0067c42a      1f02           move.b d2, -(a7)
    │╎╎╎╎   0x0067c42c      284a           movea.l a2, a4
    │╎╎╎╎   0x0067c42e      4ebaf95e       jsr THREEDMAV.do_yspin(pc)
    │╎╎╎╎   0x0067c432      5c4f           addq.w 0x6, a7
    │╎╎╎╎   0x0067c434      f22844000010   fmove.s 0x10(a0), fp0
    │╎╎╎╎   0x0067c43a      f22844230024   fmul.s 0x24(a0), fp0
    │╎╎╎╎   0x0067c440      f22844800014   fmove.s 0x14(a0), fp1
    │╎╎╎╎   0x0067c446      f22844a30020   fmul.s 0x20(a0), fp1
    │╎╎╎╎   0x0067c44c      f200049a       fneg fp1
    │╎╎╎╎   0x0067c450      f20000a2       fadd fp0, fp1
    │╎╎╎╎   0x0067c454      f22e44a30008   fmul.s 0x8(a6), fp1
    │╎╎╎╎   0x0067c45a      f22844000020   fmove.s 0x20(a0), fp0
    │╎╎╎╎   0x0067c460      f22844230004   fmul.s 0x4(a0), fp0
    │╎╎╎╎   0x0067c466      f2104500       fmove.s (a0), fp2
    │╎╎╎╎   0x0067c46a      f22845230024   fmul.s 0x24(a0), fp2
    │╎╎╎╎   0x0067c470      f200091a       fneg fp2
    │╎╎╎╎   0x0067c474      f2000122       fadd fp0, fp2
    │╎╎╎╎   0x0067c478      f2134523       fmul.s (a3), fp2
    │╎╎╎╎   0x0067c47c      f2000522       fadd fp1, fp2
    │╎╎╎╎   0x0067c480      f2276500       fmove.s fp2, -(a7)
    │╎╎└──< 0x0067c484      6000fee6       bra.w 0x67c36c
    │╎╎ ╎   0x0067c488      206e0024       movea.l 0x24(a6), a0
    │╎╎ ╎   0x0067c48c      f22846980020   fabs.s 0x20(a0), fp5
    │╎╎ ╎   0x0067c492      226e0018       movea.l 0x18(a6), a1
    │╎╎ ╎   0x0067c496      f21146a2       fadd.s (a1), fp5
    │╎╎ ╎   0x0067c49a      f2114400       fmove.s (a1), fp0
    │╎╎ ╎   0x0067c49e      f2001420       fdiv fp5, fp0
    │╎╎ ╎   0x0067c4a2      f2000280       fmove fp0, fp5
    │╎╎ ╎   0x0067c4a6      f2104780       fmove.s (a0), fp7
    │╎╎ ╎   0x0067c4aa      f20017a3       fmul fp5, fp7
    │╎╎ ╎   0x0067c4ae      f22847000010   fmove.s 0x10(a0), fp6
    │╎╎ ╎   0x0067c4b4      f2001723       fmul fp5, fp6
    │╎╎ ╎   0x0067c4b8      f2001c00       fmove fp7, fp0
    │╎╎ ╎   0x0067c4bc      f22e44230008   fmul.s 0x8(a6), fp0
    │╎╎ ╎   0x0067c4c2      f2001880       fmove fp6, fp1
    │╎╎ ╎   0x0067c4c6      f21344a3       fmul.s (a3), fp1
    │╎╎ ╎   0x0067c4ca      f20000a2       fadd fp0, fp1
    │╎╎ ╎   0x0067c4ce      f22e6480ffd0   fmove.s fp1, -0x30(a6)
    │╎╎ ╎   0x0067c4d4      f22e4418ffd0   fabs.s -0x30(a6), fp0
    │╎╎ ╎   0x0067c4da      f2054438       fcmp.s d5, fp0
    │╎╎ ╎   0x0067c4de      f29b000a       fbf.w 0x67c4ea
    │╎╎ ╎   0x0067c4e2      2d6e0010ffd0   move.l 0x10(a6), -0x30(a6)
    │╎╎┌──< 0x0067c4e8      6028           bra.b 0x67c512
    │╎╎│╎   0x0067c4ea      f2001c00       fmove fp7, fp0
    │╎╎│╎   0x0067c4ee      f2000023       fmul fp0, fp0
    │╎╎│╎   0x0067c4f2      f2001880       fmove fp6, fp1
    │╎╎│╎   0x0067c4f6      f20004a3       fmul fp1, fp1
    │╎╎│╎   0x0067c4fa      f20000a2       fadd fp0, fp1
    │╎╎│╎   0x0067c4fe      f2000484       fsqrt fp1
    │╎╎│╎   0x0067c502      f22e4400ffd0   fmove.s -0x30(a6), fp0
    │╎╎│╎   0x0067c508      f2000420       fdiv fp1, fp0
    │╎╎│╎   0x0067c50c      f22e6400ffd0   fmove.s fp0, -0x30(a6)
    │╎╎└──> 0x0067c512      2f2effd0       move.l -0x30(a6), -(a7)
    │╎╎ ╎   0x0067c516      1f02           move.b d2, -(a7)
    │╎╎ ╎   0x0067c518      284a           movea.l a2, a4
    │╎╎ ╎   0x0067c51a      4ebaf608       jsr THREEDMAV.do_xspin(pc)
    │└────< 0x0067c51e      6000fe54       bra.w 0x67c374
    │ ╎ ╎   0x0067c522      206e0024       movea.l 0x24(a6), a0
    │ ╎ ╎   0x0067c526      f22846980024   fabs.s 0x24(a0), fp5
    │ ╎ ╎   0x0067c52c      226e0018       movea.l 0x18(a6), a1
    │ ╎ ╎   0x0067c530      f21146a2       fadd.s (a1), fp5
    │ ╎ ╎   0x0067c534      f2114400       fmove.s (a1), fp0
    │ ╎ ╎   0x0067c538      f2001420       fdiv fp5, fp0
    │ ╎ ╎   0x0067c53c      f2000280       fmove fp0, fp5
    │ ╎ ╎   0x0067c540      f22847800004   fmove.s 0x4(a0), fp7
    │ ╎ ╎   0x0067c546      f20017a3       fmul fp5, fp7
    │ ╎ ╎   0x0067c54a      f22847000014   fmove.s 0x14(a0), fp6
    │ ╎ ╎   0x0067c550      f2001723       fmul fp5, fp6
    │ ╎ ╎   0x0067c554      f2001c00       fmove fp7, fp0
    │ ╎ ╎   0x0067c558      f22e44230008   fmul.s 0x8(a6), fp0
    │ ╎ ╎   0x0067c55e      f2001880       fmove fp6, fp1
    │ ╎ ╎   0x0067c562      f21344a3       fmul.s (a3), fp1
    │ ╎ ╎   0x0067c566      f20000a2       fadd fp0, fp1
    │ ╎ ╎   0x0067c56a      f22e6480ffd4   fmove.s fp1, -0x2c(a6)
    │ ╎ ╎   0x0067c570      f22e4418ffd4   fabs.s -0x2c(a6), fp0
    │ ╎ ╎   0x0067c576      f2054438       fcmp.s d5, fp0
    │ ╎ ╎   0x0067c57a      f29b000a       fbf.w 0x67c586
    │ ╎ ╎   0x0067c57e      2d6e0010ffd4   move.l 0x10(a6), -0x2c(a6)
    │ ╎┌──< 0x0067c584      6028           bra.b 0x67c5ae
    │ ╎│╎   0x0067c586      f2001c00       fmove fp7, fp0
    │ ╎│╎   0x0067c58a      f2000023       fmul fp0, fp0
    │ ╎│╎   0x0067c58e      f2001880       fmove fp6, fp1
    │ ╎│╎   0x0067c592      f20004a3       fmul fp1, fp1
    │ ╎│╎   0x0067c596      f20000a2       fadd fp0, fp1
    │ ╎│╎   0x0067c59a      f2000484       fsqrt fp1
    │ ╎│╎   0x0067c59e      f22e4400ffd4   fmove.s -0x2c(a6), fp0
    │ ╎│╎   0x0067c5a4      f2000420       fdiv fp1, fp0
    │ ╎│╎   0x0067c5a8      f22e6400ffd4   fmove.s fp0, -0x2c(a6)
    │ ╎└──> 0x0067c5ae      2f2effd4       move.l -0x2c(a6), -(a7)
    │ ╎ ╎   0x0067c5b2      1f02           move.b d2, -(a7)
    │ ╎ ╎   0x0067c5b4      284a           movea.l a2, a4
    │ ╎ ╎   0x0067c5b6      4ebaf7d6       jsr THREEDMAV.do_yspin(pc)
    │ └───< 0x0067c5ba      6000fdb8       bra.w 0x67c374
    │   ╎   0x0067c5be      206e0024       movea.l 0x24(a6), a0
    │   ╎   0x0067c5c2      f22846980028   fabs.s 0x28(a0), fp5
    │   ╎   0x0067c5c8      226e0018       movea.l 0x18(a6), a1
    │   ╎   0x0067c5cc      f21146a2       fadd.s (a1), fp5
    │   ╎   0x0067c5d0      f2114400       fmove.s (a1), fp0
    │   ╎   0x0067c5d4      f2001420       fdiv fp5, fp0
    │   ╎   0x0067c5d8      f2000280       fmove fp0, fp5
    │   ╎   0x0067c5dc      f22847800008   fmove.s 0x8(a0), fp7
    │   ╎   0x0067c5e2      f20017a3       fmul fp5, fp7
    │   ╎   0x0067c5e6      f22847000018   fmove.s 0x18(a0), fp6
    │   ╎   0x0067c5ec      f2001723       fmul fp5, fp6
    │   ╎   0x0067c5f0      f2001e80       fmove fp7, fp5
    │   ╎   0x0067c5f4      f22e46a30008   fmul.s 0x8(a6), fp5
    │   ╎   0x0067c5fa      f2001800       fmove fp6, fp0
    │   ╎   0x0067c5fe      f2134423       fmul.s (a3), fp0
    │   ╎   0x0067c602      f20002a2       fadd fp0, fp5
    │   ╎   0x0067c606      f2001418       fabs fp5, fp0
    │   ╎   0x0067c60a      f2054438       fcmp.s d5, fp0
    │   ╎   0x0067c60e      f29b000a       fbf.w 0x67c61a
    │   ╎   0x0067c612      f22e46800010   fmove.s 0x10(a6), fp5
    │  ┌──< 0x0067c618      601c           bra.b 0x67c636
    │  │╎   0x0067c61a      f2001c00       fmove fp7, fp0
    │  │╎   0x0067c61e      f2000023       fmul fp0, fp0
    │  │╎   0x0067c622      f2001880       fmove fp6, fp1
    │  │╎   0x0067c626      f20004a3       fmul fp1, fp1
    │  │╎   0x0067c62a      f20000a2       fadd fp0, fp1
    │  │╎   0x0067c62e      f2000484       fsqrt fp1
    │  │╎   0x0067c632      f20006a0       fdiv fp1, fp5
    │  └──> 0x0067c636      f2276680       fmove.s fp5, -(a7)
    │   └─< 0x0067c63a      6000fd30       bra.w 0x67c36c
    │       0x0067c63e      122e0016       move.b 0x16(a6), d1
    │       0x0067c642      0c010002       cmpi.b 0x2, d1
    │   ┌─< 0x0067c646      660000ec       bne.w 0x67c734
    │   │   0x0067c64a      206e001c       movea.l 0x1c(a6), a0
    │   │   0x0067c64e      4850           pea.l (a0)
    │   │   0x0067c650      1f03           move.b d3, -(a7)
    │   │   0x0067c652      486effe8       pea.l -0x18(a6)
    │   │   0x0067c656      4eb90067ce06   jsr THREEDMAV.extract_spins
    │   │   0x0067c65c      5c4f           addq.w 0x6, a7
    │   │   0x0067c65e      2eaeffe8       move.l -0x18(a6), (a7)
    │   │   0x0067c662      1f02           move.b d2, -(a7)
    │   │   0x0067c664      284a           movea.l a2, a4
    │   │   0x0067c666      4ebaf4bc       jsr THREEDMAV.do_xspin(pc)
    │   │   0x0067c66a      544f           addq.w 0x2, a7
    │   │   0x0067c66c      2eaeffec       move.l -0x14(a6), (a7)
    │   │   0x0067c670      1f02           move.b d2, -(a7)
    │   │   0x0067c672      284a           movea.l a2, a4
    │   │   0x0067c674      4ebaf718       jsr THREEDMAV.do_yspin(pc)
    │   │   0x0067c678      544f           addq.w 0x2, a7
    │   │   0x0067c67a      2eaefff0       move.l -0x10(a6), (a7)
    │   │   0x0067c67e      1f02           move.b d2, -(a7)
    │   │   0x0067c680      284a           movea.l a2, a4
    │   │   0x0067c682      4ebaf968       jsr 0x67bfec(pc)
    │   │   0x0067c686      5c4f           addq.w 0x6, a7
    │   │   0x0067c688      4850           pea.l (a0)
    │   │   0x0067c68a      4ebafbbe       jsr THREEDMAV.set_nospin(pc)
    │   │   0x0067c68e      584f           addq.w 0x4, a7
    │   │   0x0067c690      122e0014       move.b 0x14(a6), d1
    │   │   0x0067c694      0c010009       cmpi.b 0x9, d1
    │  ┌──< 0x0067c698      663a           bne.b 0x67c6d4
    │  ││   0x0067c69a      f22e441afff0   fneg.s -0x10(a6), fp0
    │  ││   0x0067c6a0      f2276400       fmove.s fp0, -(a7)
    │  ││   0x0067c6a4      1f02           move.b d2, -(a7)
    │  ││   0x0067c6a6      284a           movea.l a2, a4
    │  ││   0x0067c6a8      4ebaf942       jsr 0x67bfec(pc)
    │  ││   0x0067c6ac      5c4f           addq.w 0x6, a7
    │  ││   0x0067c6ae      f22e441affec   fneg.s -0x14(a6), fp0
    │  ││   0x0067c6b4      f2276400       fmove.s fp0, -(a7)
    │ ┌───> 0x0067c6b8      1f02           move.b d2, -(a7)
    │ ╎││   0x0067c6ba      284a           movea.l a2, a4
    │ ╎││   0x0067c6bc      4ebaf6d0       jsr THREEDMAV.do_yspin(pc)
    │ ╎││   0x0067c6c0      544f           addq.w 0x2, a7
    │ ╎││   0x0067c6c2      2eae0008       move.l 0x8(a6), (a7)
    │┌────> 0x0067c6c6      1f02           move.b d2, -(a7)
   ┌──────> 0x0067c6c8      284a           movea.l a2, a4
   ╎│╎╎││   0x0067c6ca      4ebaf458       jsr THREEDMAV.do_xspin(pc)
  ┌───────> 0x0067c6ce      5c4f           addq.w 0x6, a7
  ────────< 0x0067c6d0      600001e6       bra.w 0x67c8b8
  ╎╎│╎╎└──> 0x0067c6d4      b206           cmp.b d6, d1
  ╎╎│╎╎┌──< 0x0067c6d6      662c           bne.b 0x67c704
  ╎╎│╎╎││   0x0067c6d8      f22e441afff0   fneg.s -0x10(a6), fp0
  ╎╎│╎╎││   0x0067c6de      f2276400       fmove.s fp0, -(a7)
  ╎╎│╎╎││   0x0067c6e2      1f02           move.b d2, -(a7)
  ╎╎│╎╎││   0x0067c6e4      284a           movea.l a2, a4
  ╎╎│╎╎││   0x0067c6e6      4ebaf904       jsr 0x67bfec(pc)
  ╎╎│╎╎││   0x0067c6ea      544f           addq.w 0x2, a7
  ╎╎│╎╎││   0x0067c6ec      2e93           move.l (a3), (a7)
  ────────> 0x0067c6ee      1f02           move.b d2, -(a7)
  ╎╎│╎╎││   0x0067c6f0      284a           movea.l a2, a4
  ╎╎│╎╎││   0x0067c6f2      4ebaf69a       jsr THREEDMAV.do_yspin(pc)
  ╎╎│╎╎││   0x0067c6f6      5c4f           addq.w 0x6, a7
  ╎╎│╎╎││   0x0067c6f8      f22e441affe8   fneg.s -0x18(a6), fp0
  ╎╎│╎╎││   0x0067c6fe      f2276400       fmove.s fp0, -(a7)
  ╎╎│└────< 0x0067c702      60c2           bra.b 0x67c6c6
  ╎╎│ ╎└──> 0x0067c704      b204           cmp.b d4, d1
  ╎╎│ ╎┌──< 0x0067c706      661a           bne.b 0x67c722
  ╎╎│ ╎││   0x0067c708      2f2e0010       move.l 0x10(a6), -(a7)
  ╎╎│ ╎││   0x0067c70c      1f02           move.b d2, -(a7)
  ╎╎│ ╎││   0x0067c70e      284a           movea.l a2, a4
  ╎╎│ ╎││   0x0067c710      4ebaf8da       jsr 0x67bfec(pc)
  ╎╎│ ╎││   0x0067c714      5c4f           addq.w 0x6, a7
  ╎╎│ ╎││   0x0067c716      f22e441affec   fneg.s -0x14(a6), fp0
  ╎╎│ ╎││   0x0067c71c      f2276400       fmove.s fp0, -(a7)
  ────────< 0x0067c720      60cc           bra.b 0x67c6ee
  ╎╎│ ╎└──> 0x0067c722      2f2e0010       move.l 0x10(a6), -(a7)
  ╎╎│ ╎ │   0x0067c726      1f02           move.b d2, -(a7)
  ╎╎│ ╎ │   0x0067c728      284a           movea.l a2, a4
  ╎╎│ ╎ │   0x0067c72a      4ebaf8c0       jsr 0x67bfec(pc)
  ╎╎│ ╎ │   0x0067c72e      544f           addq.w 0x2, a7
  ╎╎│ ╎ │   0x0067c730      2e93           move.l (a3), (a7)
  ╎╎│ └───< 0x0067c732      6084           bra.b 0x67c6b8
  ╎╎│   └─> 0x0067c734      206e0020       movea.l 0x20(a6), a0
  ╎╎│       0x0067c738      4850           pea.l (a0)
  ╎╎│       0x0067c73a      1f03           move.b d3, -(a7)
  ╎╎│       0x0067c73c      486effe8       pea.l -0x18(a6)
  ╎╎│       0x0067c740      4eb90067ce06   jsr THREEDMAV.extract_spins
  ╎╎│       0x0067c746      dec6           adda.w d6, a7
  ╎╎│       0x0067c748      2d68003cfff4   move.l 0x3c(a0), -0xc(a6)
  ╎╎│       0x0067c74e      2d680040fff8   move.l 0x40(a0), -0x8(a6)
  ╎╎│       0x0067c754      2d680044fffc   move.l 0x44(a0), -0x4(a6)
  ╎╎│       0x0067c75a      4850           pea.l (a0)
  ╎╎│       0x0067c75c      4ebafaec       jsr THREEDMAV.set_nospin(pc)
  ╎╎│       0x0067c760      584f           addq.w 0x4, a7
  ╎╎│       0x0067c762      1d420016       move.b d2, 0x16(a6)
  ╎╎│       0x0067c766      3200           move.w d0, d1
  ╎╎│       0x0067c768      5b41           subq.w 0x5, d1
  ╎╎│       0x0067c76a      b243           cmp.w d3, d1
  ╎╎│   ┌─< 0x0067c76c      6302           bls.b 0x67c770
  ╎╎│   │   0x0067c76e      4e4e           trap 0xe
  ╎╎│   └─> 0x0067c770      d241           add.w d1, d1
  ╎╎│       0x0067c772      323b1006       move.w 0x67c77a(pc, d1.w), d1
  ╎╎│       0x0067c776      4efb1002       jmp 0x67c77a(pc, d1.w)
  ╎╎│       0x0067c77a      000e0038       
  ╎╎│       0x0067c77b      0e003800       
  ╎╎│       0x0067c77c      0038005c0086   ori.b 0x5c, 0x86.w
  ╎╎│       0x0067c782      00a000d80108   ori.l 0xd80108, -(a0)
  ╎╎│       0x0067c788      2f2e0008       move.l 0x8(a6), -(a7)
  ╎╎│       0x0067c78c      4227           clr.b -(a7)
  ╎╎│       0x0067c78e      284a           movea.l a2, a4
  ╎╎│       0x0067c790      4ebaf392       jsr THREEDMAV.do_xspin(pc)
  ╎╎│       0x0067c794      544f           addq.w 0x2, a7
  ╎╎│       0x0067c796      2e93           move.l (a3), (a7)
  ╎╎│       0x0067c798      4227           clr.b -(a7)
  ╎╎│       0x0067c79a      284a           movea.l a2, a4
  ╎╎│       0x0067c79c      4ebaf5f0       jsr THREEDMAV.do_yspin(pc)
  ╎╎│   ┌─> 0x0067c7a0      544f           addq.w 0x2, a7
  ╎╎│   ╎   0x0067c7a2      2eae0010       move.l 0x10(a6), (a7)
  ╎╎│   ╎   0x0067c7a6      4227           clr.b -(a7)
  ╎╎│   ╎   0x0067c7a8      284a           movea.l a2, a4
  ╎╎│   ╎   0x0067c7aa      4ebaf840       jsr 0x67bfec(pc)
  ────────< 0x0067c7ae      6000ff1e       bra.w 0x67c6ce
  ╎╎│   ╎   0x0067c7b2      2f2e0010       move.l 0x10(a6), -(a7)
  ╎╎│   ╎   0x0067c7b6      4227           clr.b -(a7)
  ╎╎│   ╎   0x0067c7b8      284a           movea.l a2, a4
  ╎╎│   ╎   0x0067c7ba      4ebaf830       jsr 0x67bfec(pc)
  ╎╎│   ╎   0x0067c7be      544f           addq.w 0x2, a7
  ╎╎│   ╎   0x0067c7c0      2e93           move.l (a3), (a7)
  ╎╎│   ╎   0x0067c7c2      4227           clr.b -(a7)
  ╎╎│   ╎   0x0067c7c4      284a           movea.l a2, a4
  ╎╎│   ╎   0x0067c7c6      4ebaf5c6       jsr THREEDMAV.do_yspin(pc)
  ╎╎│   ╎   0x0067c7ca      544f           addq.w 0x2, a7
  ╎╎│   ╎   0x0067c7cc      2eae0008       move.l 0x8(a6), (a7)
  ╎╎│   ╎   0x0067c7d0      4227           clr.b -(a7)
  ╎└──────< 0x0067c7d2      6000fef4       bra.w 0x67c6c8
  ╎ │   ╎   0x0067c7d6      2f2e0008       move.l 0x8(a6), -(a7)
  ╎ │   ╎   0x0067c7da      4227           clr.b -(a7)
  ╎ │   ╎   0x0067c7dc      284a           movea.l a2, a4
  ╎ │   ╎   0x0067c7de      4ebaf344       jsr THREEDMAV.do_xspin(pc)
  ╎ │   ╎   0x0067c7e2      544f           addq.w 0x2, a7
  ╎ │   ╎   0x0067c7e4      2eae0010       move.l 0x10(a6), (a7)
  ╎ │   ╎   0x0067c7e8      4227           clr.b -(a7)
  ╎ │   ╎   0x0067c7ea      284a           movea.l a2, a4
  ╎ │   ╎   0x0067c7ec      4ebaf7fe       jsr 0x67bfec(pc)
  ╎ │   ╎   0x0067c7f0      544f           addq.w 0x2, a7
  ╎ │   ╎   0x0067c7f2      2e93           move.l (a3), (a7)
  ╎ │   ╎   0x0067c7f4      4227           clr.b -(a7)
  ╎ │   ╎   0x0067c7f6      284a           movea.l a2, a4
  ╎ │   ╎   0x0067c7f8      4ebaf594       jsr THREEDMAV.do_yspin(pc)
  └───────< 0x0067c7fc      6000fed0       bra.w 0x67c6ce
    │   ╎   0x0067c800      2f13           move.l (a3), -(a7)
    │   ╎   0x0067c802      4227           clr.b -(a7)
    │   ╎   0x0067c804      284a           movea.l a2, a4
    │   ╎   0x0067c806      4ebaf586       jsr THREEDMAV.do_yspin(pc)
    │   ╎   0x0067c80a      544f           addq.w 0x2, a7
    │   ╎   0x0067c80c      2eae0008       move.l 0x8(a6), (a7)
    │   ╎   0x0067c810      4227           clr.b -(a7)
    │   ╎   0x0067c812      284a           movea.l a2, a4
    │   ╎   0x0067c814      4ebaf30e       jsr THREEDMAV.do_xspin(pc)
    │   └─< 0x0067c818      6086           bra.b 0x67c7a0
    │       0x0067c81a      2f2efff0       move.l -0x10(a6), -(a7)
    │       0x0067c81e      4227           clr.b -(a7)
    │       0x0067c820      284a           movea.l a2, a4
    │       0x0067c822      4ebaf7c8       jsr 0x67bfec(pc)
    │       0x0067c826      544f           addq.w 0x2, a7
    │       0x0067c828      2eaeffec       move.l -0x14(a6), (a7)
    │       0x0067c82c      4227           clr.b -(a7)
    │       0x0067c82e      284a           movea.l a2, a4
    │       0x0067c830      4ebaf55c       jsr THREEDMAV.do_yspin(pc)
    │       0x0067c834      544f           addq.w 0x2, a7
    │       0x0067c836      2eae0008       move.l 0x8(a6), (a7)
    │       0x0067c83a      4227           clr.b -(a7)
    │       0x0067c83c      284a           movea.l a2, a4
    │       0x0067c83e      4ebaf2e4       jsr THREEDMAV.do_xspin(pc)
    │       0x0067c842      5c4f           addq.w 0x6, a7
    │       0x0067c844      216efff80040   move.l -0x8(a6), 0x40(a0)
    │   ┌─> 0x0067c84a      216efffc0044   move.l -0x4(a6), 0x44(a0)
    │  ┌──< 0x0067c850      6066           bra.b 0x67c8b8
    │  │╎   0x0067c852      2f2efff0       move.l -0x10(a6), -(a7)
    │  │╎   0x0067c856      4227           clr.b -(a7)
    │  │╎   0x0067c858      284a           movea.l a2, a4
    │  │╎   0x0067c85a      4ebaf790       jsr 0x67bfec(pc)
    │  │╎   0x0067c85e      544f           addq.w 0x2, a7
    │  │╎   0x0067c860      2e93           move.l (a3), (a7)
    │  │╎   0x0067c862      4227           clr.b -(a7)
    │  │╎   0x0067c864      284a           movea.l a2, a4
    │  │╎   0x0067c866      4ebaf526       jsr THREEDMAV.do_yspin(pc)
    │  │╎   0x0067c86a      544f           addq.w 0x2, a7
    │  │╎   0x0067c86c      2eaeffe8       move.l -0x18(a6), (a7)
    │  │╎   0x0067c870      4227           clr.b -(a7)
    │  │╎   0x0067c872      284a           movea.l a2, a4
    │  │╎   0x0067c874      4ebaf2ae       jsr THREEDMAV.do_xspin(pc)
    │  │╎   0x0067c878      5c4f           addq.w 0x6, a7
    │  │╎   0x0067c87a      216efff4003c   move.l -0xc(a6), 0x3c(a0)
    │  │└─< 0x0067c880      60c8           bra.b 0x67c84a
    │  │    0x0067c882      2f2e0010       move.l 0x10(a6), -(a7)
    │  │    0x0067c886      4227           clr.b -(a7)
    │  │    0x0067c888      284a           movea.l a2, a4
    │  │    0x0067c88a      4ebaf760       jsr 0x67bfec(pc)
    │  │    0x0067c88e      544f           addq.w 0x2, a7
    │  │    0x0067c890      2eaeffec       move.l -0x14(a6), (a7)
    │  │    0x0067c894      4227           clr.b -(a7)
    │  │    0x0067c896      284a           movea.l a2, a4
    │  │    0x0067c898      4ebaf4f4       jsr THREEDMAV.do_yspin(pc)
    │  │    0x0067c89c      544f           addq.w 0x2, a7
    │  │    0x0067c89e      2eaeffe8       move.l -0x18(a6), (a7)
    │  │    0x0067c8a2      4227           clr.b -(a7)
    │  │    0x0067c8a4      284a           movea.l a2, a4
    │  │    0x0067c8a6      4ebaf27c       jsr THREEDMAV.do_xspin(pc)
    │  │    0x0067c8aa      5c4f           addq.w 0x6, a7
    │  │    0x0067c8ac      216efff80040   move.l -0x8(a6), 0x40(a0)
    │  │    0x0067c8b2      216efff4003c   move.l -0xc(a6), 0x3c(a0)
  ──└──└──> 0x0067c8b8      f21fd0e7       fmovem (a7)+, fp0-fp2/fp5-fp7
            0x0067c8bc      4cdf1f7f       movem.l (a7)+, d0-d6/a0-a4
            0x0067c8c0      4e5e           unlk a6
            0x0067c8c2      4e75           rts
┌ 24: THREEDMAV.do_size ();
│           0x0067c8c4      4e56ff46       link.w a6, 0xff46
│           0x0067c8c8      bfd5           cmpa.l (a5), a7
│       ┌─< 0x0067c8ca      6206           bhi.b 0x67c8d2
│       │   0x0067c8cc      44fc0002       move.w 0x2, ccr
│       │   0x0067c8d0      4e76           trapv
│       └─> 0x0067c8d2      defc007a       adda.w 0x7a, a7
│           0x0067c8d6      48e7f0f8       movem.l d0-d3/a0-a4, -(a7)
│           0x0067c8da      f227e0e7       fmovem fp0-fp2/fp5-fp7, -(a7)
            0x0067c8de      45eeffd0       lea.l -0x30(a6), a2
            0x0067c8e2      47ee0008       lea.l 0x8(a6), a3
            0x0067c8e6      7401           moveq 0x1, d2
            0x0067c8e8      7600           moveq 0x0, d3
            0x0067c8ea      102e0014       move.b 0x14(a6), d0
            0x0067c8ee      4880           ext.w d0
            0x0067c8f0      41fad736       lea.l 0x67a028(pc), a0
            0x0067c8f4      3200           move.w d0, d1
            0x0067c8f6      e649           lsr.w 0x3, d1
            0x0067c8f8      01301000       btst.l d0, (a0, d1.w)
        ┌─< 0x0067c8fc      670000bc       beq.w 0x67c9ba
        │   0x0067c900      206e0024       movea.l 0x24(a6), a0
        │   0x0067c904      226e0018       movea.l 0x18(a6), a1
        │   0x0067c908      f2284400002c   fmove.s 0x2c(a0), fp0
        │   0x0067c90e      f2114422       fadd.s (a1), fp0
        │   0x0067c912      f2126400       fmove.s fp0, (a2)
        │   0x0067c916      f2124418       fabs.s (a2), fp0
        │   0x0067c91a      f23c44383727.  fcmp.s 0, fp0
        │   0x0067c922      f29b0012       fbf.w 0x67c936
        │   0x0067c926      f23c4000000f.  fmove.l 0xf423f, fp0
        │   0x0067c92e      f22e6400ffd4   fmove.s fp0, -0x2c(a6)
       ┌──< 0x0067c934      600e           bra.b 0x67c944
       ││   0x0067c936      f2024000       fmove.l d2, fp0
       ││   0x0067c93a      f2124420       fdiv.s (a2), fp0
       ││   0x0067c93e      f22e6400ffd4   fmove.s fp0, -0x2c(a6)
       └──> 0x0067c944      f22847800020   fmove.s 0x20(a0), fp7
        │   0x0067c94a      f22947a30004   fmul.s 0x4(a1), fp7
        │   0x0067c950      f21047a2       fadd.s (a0), fp7
        │   0x0067c954      f22847800024   fmove.s 0x24(a0), fp7
        │   0x0067c95a      f22947a30004   fmul.s 0x4(a1), fp7
        │   0x0067c960      f22847a20004   fadd.s 0x4(a0), fp7
        │   0x0067c966      f2284400002c   fmove.s 0x2c(a0), fp0
        │   0x0067c96c      f22944230004   fmul.s 0x4(a1), fp0
        │   0x0067c972      f2284422000c   fadd.s 0xc(a0), fp0
        │   0x0067c978      f22e6400fff0   fmove.s fp0, -0x10(a6)
        │   0x0067c97e      f22847800020   fmove.s 0x20(a0), fp7
        │   0x0067c984      f22947a30008   fmul.s 0x8(a1), fp7
        │   0x0067c98a      f22847a20010   fadd.s 0x10(a0), fp7
        │   0x0067c990      f22847800024   fmove.s 0x24(a0), fp7
        │   0x0067c996      f22947a30008   fmul.s 0x8(a1), fp7
        │   0x0067c99c      f22847a20014   fadd.s 0x14(a0), fp7
        │   0x0067c9a2      f2284400002c   fmove.s 0x2c(a0), fp0
        │   0x0067c9a8      f22944230008   fmul.s 0x8(a1), fp0
        │   0x0067c9ae      f2284422001c   fadd.s 0x1c(a0), fp0
        │   0x0067c9b4      f22e6400fffc   fmove.s fp0, -0x4(a6)
        └─> 0x0067c9ba      122e0016       move.b 0x16(a6), d1
            0x0067c9be      0c010002       cmpi.b 0x2, d1
        ┌─< 0x0067c9c2      6606           bne.b 0x67c9ca
        │   0x0067c9c4      206e001c       movea.l 0x1c(a6), a0
       ┌──< 0x0067c9c8      6004           bra.b 0x67c9ce
       │└─> 0x0067c9ca      206e0020       movea.l 0x20(a6), a0
       └──> 0x0067c9ce      2848           movea.l a0, a4
            0x0067c9d0      0c40000b       cmpi.w 0xb, d0
        ┌─< 0x0067c9d4      6302           bls.b 0x67c9d8
        │   0x0067c9d6      4e4e           trap 0xe
        └─> 0x0067c9d8      d040           add.w d0, d0
            0x0067c9da      303b0006       move.w 0x67c9e2(pc, d0.w), d0
            0x0067c9de      4efb0002       jmp 0x67c9e2(pc, d0.w)
            0x0067c9e2      0018002e       ori.b 0x2e, (a0)+
            0x0067c9e6      009400f801ea   ori.l 0xf801ea, (a4)
            0x0067c9ec      02100210       andi.b 0x10, (a0)
            0x0067c9f0      02100210       andi.b 0x10, (a0)
            0x0067c9f4      02100210       andi.b 0x10, (a0)
            0x0067c9f8      0210f22c       andi.b 0x2c, (a0)
        ╎   0x0067c9fc      4400           neg.b d0
        ╎   0x0067c9fe      0038f22e4422   ori.b 0x2e, 0x4422.w
        ╎   0x0067ca04      0010f22c       ori.b 0x2c, (a0)
      ┌───< 0x0067ca08      64000038       bcc.w 0x67ca42
     ┌────< 0x0067ca0c      600001f4       bra.w 0x67cc02
     ││╎╎   0x0067ca10      206e0024       movea.l 0x24(a6), a0
     ││╎╎   0x0067ca14      f22844000014   fmove.s 0x14(a0), fp0
     ││╎╎   0x0067ca1a      f22844230028   fmul.s 0x28(a0), fp0
     ││╎╎   0x0067ca20      f22844800024   fmove.s 0x24(a0), fp1
     ││╎╎   0x0067ca26      f22844a30018   fmul.s 0x18(a0), fp1
     ││╎╎   0x0067ca2c      f200049a       fneg fp1
     ││╎╎   0x0067ca30      f20000a2       fadd fp0, fp1
     ││╎╎   0x0067ca34      f21344a3       fmul.s (a3), fp1
     ││╎╎   0x0067ca38      f22c44000030   fmove.s 0x30(a4), fp0
     ││╎╎   0x0067ca3e      f2000422       fadd fp1, fp0
     │└───> 0x0067ca42      f22844800024   fmove.s 0x24(a0), fp1
     │ ╎╎   0x0067ca48      f22844a30008   fmul.s 0x8(a0), fp1
     │ ╎╎   0x0067ca4e      f22845000004   fmove.s 0x4(a0), fp2
     │ ╎╎   0x0067ca54      f22845230028   fmul.s 0x28(a0), fp2
     │ ╎╎   0x0067ca5a      f200091a       fneg fp2
     │ ╎╎   0x0067ca5e      f2000522       fadd fp1, fp2
     │ ╎╎   0x0067ca62      f22e4523000c   fmul.s 0xc(a6), fp2
     │ ╎╎   0x0067ca68      f2000122       fadd fp0, fp2
     │ ╎╎   0x0067ca6c      f22c65000030   fmove.s fp2, 0x30(a4)
     │┌───< 0x0067ca72      6000018e       bra.w 0x67cc02
     ││╎╎   0x0067ca76      206e0024       movea.l 0x24(a6), a0
     ││╎╎   0x0067ca7a      f22844000020   fmove.s 0x20(a0), fp0
     ││╎╎   0x0067ca80      f22844230018   fmul.s 0x18(a0), fp0
     ││╎╎   0x0067ca86      f22844800010   fmove.s 0x10(a0), fp1
     ││╎╎   0x0067ca8c      f22844a30028   fmul.s 0x28(a0), fp1
     ││╎╎   0x0067ca92      f200049a       fneg fp1
     ││╎╎   0x0067ca96      f20000a2       fadd fp0, fp1
     ││╎╎   0x0067ca9a      f21344a3       fmul.s (a3), fp1
     ││╎╎   0x0067ca9e      f22c44000034   fmove.s 0x34(a4), fp0
     ││╎╎   0x0067caa4      f2000422       fadd fp1, fp0
     ││╎╎   0x0067caa8      f2104480       fmove.s (a0), fp1
     ││╎╎   0x0067caac      f22844a30028   fmul.s 0x28(a0), fp1
     ││╎╎   0x0067cab2      f22845000020   fmove.s 0x20(a0), fp2
     ││╎╎   0x0067cab8      f22845230008   fmul.s 0x8(a0), fp2
     ││╎╎   0x0067cabe      f200091a       fneg fp2
     ││╎╎   0x0067cac2      f2000522       fadd fp1, fp2
     ││╎╎   0x0067cac6      f22e4523000c   fmul.s 0xc(a6), fp2
     ││╎╎   0x0067cacc      f2000122       fadd fp0, fp2
     ││╎╎   0x0067cad0      f22c65000034   fmove.s fp2, 0x34(a4)
    ┌─────< 0x0067cad6      6000012a       bra.w 0x67cc02
    │││╎╎   0x0067cada      206e0024       movea.l 0x24(a6), a0
    │││╎╎   0x0067cade      f22846800028   fmove.s 0x28(a0), fp5
    │││╎╎   0x0067cae4      f21246a2       fadd.s (a2), fp5
    │││╎╎   0x0067cae8      f2024000       fmove.l d2, fp0
    │││╎╎   0x0067caec      f2001420       fdiv fp5, fp0
    │││╎╎   0x0067caf0      f2000280       fmove fp0, fp5
    │││╎╎   0x0067caf4      f22847800008   fmove.s 0x8(a0), fp7
    │││╎╎   0x0067cafa      f22e47a2fff0   fadd.s -0x10(a6), fp7
    │││╎╎   0x0067cb00      f20017a3       fmul fp5, fp7
    │││╎╎   0x0067cb04      f22e4400fff0   fmove.s -0x10(a6), fp0
    │││╎╎   0x0067cb0a      f22e4423ffd4   fmul.s -0x2c(a6), fp0
    │││╎╎   0x0067cb10      f20003a8       fsub fp0, fp7
    │││╎╎   0x0067cb14      226e0018       movea.l 0x18(a6), a1
    │││╎╎   0x0067cb18      f21147a3       fmul.s (a1), fp7
    │││╎╎   0x0067cb1c      f22847000018   fmove.s 0x18(a0), fp6
    │││╎╎   0x0067cb22      f22e4722fffc   fadd.s -0x4(a6), fp6
    │││╎╎   0x0067cb28      f2001723       fmul fp5, fp6
    │││╎╎   0x0067cb2c      f22e4400fffc   fmove.s -0x4(a6), fp0
    │││╎╎   0x0067cb32      f22e4423ffd4   fmul.s -0x2c(a6), fp0
    │││╎╎   0x0067cb38      f2000328       fsub fp0, fp6
    │││╎╎   0x0067cb3c      f2114723       fmul.s (a1), fp6
    │││╎╎   0x0067cb40      f22844000008   fmove.s 0x8(a0), fp0
    │││╎╎   0x0067cb46      f2001c23       fmul fp7, fp0
    │││╎╎   0x0067cb4a      f2034438       fcmp.s d3, fp0
    │││╎╎   0x0067cb4e      f29b001c       fbf.w 0x67cb6c
    │││╎╎   0x0067cb52      f22844000018   fmove.s 0x18(a0), fp0
    │││╎╎   0x0067cb58      f2001823       fmul fp6, fp0
    │││╎╎   0x0067cb5c      f2034438       fcmp.s d3, fp0
    │││╎╎   0x0067cb60      f29b000a       fbf.w 0x67cb6c
    │││╎╎   0x0067cb64      f2001f9a       fneg fp7
    │││╎╎   0x0067cb68      f2001b1a       fneg fp6
    │││╎╎   0x0067cb6c      f2134680       fmove.s (a3), fp5
    │││╎╎   0x0067cb70      f2001ea3       fmul fp7, fp5
    │││╎╎   0x0067cb74      f22e4400000c   fmove.s 0xc(a6), fp0
    │││╎╎   0x0067cb7a      f2001823       fmul fp6, fp0
    │││╎╎   0x0067cb7e      f20002a2       fadd fp0, fp5
    │││╎╎   0x0067cb82      f21246a3       fmul.s (a2), fp5
    │││╎╎   0x0067cb86      f2001418       fabs fp5, fp0
    │││╎╎   0x0067cb8a      f23c44383727.  fcmp.s 0, fp0
    │││╎╎   0x0067cb92      f29b000a       fbf.w 0x67cb9e
    │││╎╎   0x0067cb96      f22e46800010   fmove.s 0x10(a6), fp5
   ┌──────< 0x0067cb9c      6020           bra.b 0x67cbbe
   ││││╎╎   0x0067cb9e      f2001c00       fmove fp7, fp0
   ││││╎╎   0x0067cba2      f2000023       fmul fp0, fp0
   ││││╎╎   0x0067cba6      f2001880       fmove fp6, fp1
   ││││╎╎   0x0067cbaa      f20004a3       fmul fp1, fp1
   ││││╎╎   0x0067cbae      f20000a2       fadd fp0, fp1
   ││││╎╎   0x0067cbb2      f2000484       fsqrt fp1
   ││││╎╎   0x0067cbb6      f21144a3       fmul.s (a1), fp1
   ││││╎╎   0x0067cbba      f20006a0       fdiv fp1, fp5
   └──────> 0x0067cbbe      f22c44000038   fmove.s 0x38(a4), fp0
    │││╎╎   0x0067cbc4      f2001422       fadd fp5, fp0
    │││└──< 0x0067cbc8      6000fe3c       bra.w 0x67ca06
    │││ ╎   0x0067cbcc      f22c44000030   fmove.s 0x30(a4), fp0
    │││ ╎   0x0067cbd2      f2134422       fadd.s (a3), fp0
    │││ ╎   0x0067cbd6      f22c64000030   fmove.s fp0, 0x30(a4)
    │││ ╎   0x0067cbdc      f22c44000034   fmove.s 0x34(a4), fp0
    │││ ╎   0x0067cbe2      f22e4422000c   fadd.s 0xc(a6), fp0
    │││ ╎   0x0067cbe8      f22c64000034   fmove.s fp0, 0x34(a4)
    │││ └─< 0x0067cbee      6000fe0a       bra.w 0x67c9fa
    │││     0x0067cbf2      29530030       move.l (a3), 0x30(a4)
    │││     0x0067cbf6      296e000c0034   move.l 0xc(a6), 0x34(a4)
    │││     0x0067cbfc      296e00100038   move.l 0x10(a6), 0x38(a4)
    └└└───> 0x0067cc02      f21fd0e7       fmovem (a7)+, fp0-fp2/fp5-fp7
            0x0067cc06      4cdf1f0f       movem.l (a7)+, d0-d3/a0-a4
            0x0067cc0a      4e5e           unlk a6
            0x0067cc0c      4e75           rts
┌ 24: THREEDMAV.extract_spin ();
│           0x0067cc0e      4e56ffd4       link.w a6, 0xffd4
│           0x0067cc12      bfd5           cmpa.l (a5), a7
│       ┌─< 0x0067cc14      6206           bhi.b 0x67cc1c
│       │   0x0067cc16      44fc0002       move.w 0x2, ccr
│       │   0x0067cc1a      4e76           trapv
│       └─> 0x0067cc1c      defc002c       adda.w 0x2c, a7
│           0x0067cc20      48e7c0e0       movem.l d0-d1/a0-a2, -(a7)
│           0x0067cc24      f227e001       fmovem fp0, -(a7)
            0x0067cc28      41ee000c       lea.l 0xc(a6), a0
            0x0067cc2c      43ee0010       lea.l 0x10(a6), a1
            0x0067cc30      45ee0008       lea.l 0x8(a6), a2
            0x0067cc34      7000           moveq 0x0, d0
            0x0067cc36      223c33d6bf95   move.l 0x33d6bf95, d1
            0x0067cc3c      f2124418       fabs.s (a2), fp0
            0x0067cc40      f2014438       fcmp.s d1, fp0
            0x0067cc44      f29b0036       fbf.w 0x67cc7c
            0x0067cc48      f2104418       fabs.s (a0), fp0
            0x0067cc4c      f2014438       fcmp.s d1, fp0
            0x0067cc50      f29b000e       fbf.w 0x67cc60
            0x0067cc54      f2004000       fmove.l d0, fp0
            0x0067cc58      f2116400       fmove.s fp0, (a1)
        ┌─< 0x0067cc5c      60000086       bra.w 0x67cce4
        │   0x0067cc60      f2104400       fmove.s (a0), fp0
        │   0x0067cc64      f2004038       fcmp.l d0, fp0
        │   0x0067cc68      f29d000a       fbf.w 0x67cc74
        │   0x0067cc6c      22bc3fc90fdb   move.l 0x3fc90fdb, (a1)
       ┌──< 0x0067cc72      6070           bra.b 0x67cce4
       ││   0x0067cc74      22bcbfc90fdb   move.l 0xbfc90fdb, (a1)
      ┌───< 0x0067cc7a      6068           bra.b 0x67cce4
      │││   0x0067cc7c      f2104418       fabs.s (a0), fp0
      │││   0x0067cc80      f2014438       fcmp.s d1, fp0
      │││   0x0067cc84      f29b000c       fbf.w 0x67cc92
      │││   0x0067cc88      f2004000       fmove.l d0, fp0
      │││   0x0067cc8c      f2146400       fmove.s fp0, (a4)
     ┌────< 0x0067cc90      6018           bra.b 0x67ccaa
     ││││   0x0067cc92      594f           subq.w 0x4, a7
     ││││   0x0067cc94      f2104400       fmove.s (a0), fp0
     ││││   0x0067cc98      f2124420       fdiv.s (a2), fp0
     ││││   0x0067cc9c      f2276400       fmove.s fp0, -(a7)
     ││││   0x0067cca0      4eb9004388b8   jsr p_fatn
     ││││   0x0067cca6      584f           addq.w 0x4, a7
     ││││   0x0067cca8      289f           move.l (a7)+, (a4)
     └────> 0x0067ccaa      f2124400       fmove.s (a2), fp0
      │││   0x0067ccae      f2004038       fcmp.l d0, fp0
      │││   0x0067ccb2      f29d0006       fbf.w 0x67ccba
      │││   0x0067ccb6      2294           move.l (a4), (a1)
     ┌────< 0x0067ccb8      602a           bra.b 0x67cce4
     ││││   0x0067ccba      f2104400       fmove.s (a0), fp0
     ││││   0x0067ccbe      f2004038       fcmp.l d0, fp0
     ││││   0x0067ccc2      f29d0010       fbf.w 0x67ccd4
     ││││   0x0067ccc6      f2144400       fmove.s (a4), fp0
     ││││   0x0067ccca      f23c44224049.  fadd.s 3, fp0
    ┌─────< 0x0067ccd2      600c           bra.b 0x67cce0
    │││││   0x0067ccd4      f2144400       fmove.s (a4), fp0
    │││││   0x0067ccd8      f23c44284049.  fsub.s 3, fp0
    └─────> 0x0067cce0      f2116400       fmove.s fp0, (a1)
     └└└└─> 0x0067cce4      f21fd080       fmovem (a7)+, fp0
            0x0067cce8      4cdf0703       movem.l (a7)+, d0-d1/a0-a2
            0x0067ccec      4e5e           unlk a6
            0x0067ccee      4e75           rts
┌ 24: THREEDMAV.unwind_spin ();
│           0x0067ccf0      4e56ff7c       link.w a6, 0xff7c
│           0x0067ccf4      bfd5           cmpa.l (a5), a7
│       ┌─< 0x0067ccf6      6206           bhi.b 0x67ccfe
│       │   0x0067ccf8      44fc0002       move.w 0x2, ccr
│       │   0x0067ccfc      4e76           trapv
│       └─> 0x0067ccfe      defc003c       adda.w 0x3c, a7
│           0x0067cd02      48e780f8       movem.l d0/a0-a4, -(a7)
│           0x0067cd06      f227e001       fmovem fp0, -(a7)
            0x0067cd0a      45eeffb8       lea.l -0x48(a6), a2
            0x0067cd0e      47ee0010       lea.l 0x10(a6), a3
            0x0067cd12      49f900438824   lea.l p_fcos, a4
            0x0067cd18      204a           movea.l a2, a0
            0x0067cd1a      43fad2a2       lea.l 0x679fbe(pc), a1
            0x0067cd1e      7011           moveq 0x11, d0
        ┌─> 0x0067cd20      20d9           move.l (a1)+, (a0)+
        └─< 0x0067cd22      51c8fffc       dbra d0, 0x67cd20
            0x0067cd26      102e0014       move.b 0x14(a6), d0
            0x0067cd2a      4880           ext.w d0
            0x0067cd2c      0c400002       cmpi.w 0x2, d0
        ┌─< 0x0067cd30      6302           bls.b 0x67cd34
        │   0x0067cd32      4e4e           trap 0xe
        └─> 0x0067cd34      d040           add.w d0, d0
            0x0067cd36      303b0006       move.w 0x67cd3e(pc, d0.w), d0
            0x0067cd3a      4efb0002       jmp 0x67cd3e(pc, d0.w)
            0x0067cd3e      0006003e       ori.b 0x3e, d6
            0x0067cd42      0072f213441a   ori.w 0xf213, 0x1a(a2, d4.w)
            0x0067cd48      594f           subq.w 0x4, a7
            0x0067cd4a      f2276400       fmove.s fp0, -(a7)
            0x0067cd4e      4e94           jsr (a4)                    ; fcn.0000000d
            0x0067cd50      584f           addq.w 0x4, a7
            0x0067cd52      2d5fffcc       move.l (a7)+, -0x34(a6)
            0x0067cd56      2d6effccffe0   move.l -0x34(a6), -0x20(a6)
            0x0067cd5c      594f           subq.w 0x4, a7
            0x0067cd5e      f2276400       fmove.s fp0, -(a7)
            0x0067cd62      4eb9004387fc   jsr p_fsin
            0x0067cd68      584f           addq.w 0x4, a7
            0x0067cd6a      2d5fffd0       move.l (a7)+, -0x30(a6)
            0x0067cd6e      f22e441affd0   fneg.s -0x30(a6), fp0
            0x0067cd74      f22e6400ffdc   fmove.s fp0, -0x24(a6)
        ┌─< 0x0067cd7a      6066           bra.b 0x67cde2
        │   0x0067cd7c      f213441a       fneg.s (a3), fp0
        │   0x0067cd80      594f           subq.w 0x4, a7
        │   0x0067cd82      f2276400       fmove.s fp0, -(a7)
        │   0x0067cd86      4e94           jsr (a4)                    ; fcn.0000000d
        │   0x0067cd88      584f           addq.w 0x4, a7
        │   0x0067cd8a      249f           move.l (a7)+, (a2)
        │   0x0067cd8c      2d52ffe0       move.l (a2), -0x20(a6)
        │   0x0067cd90      594f           subq.w 0x4, a7
        │   0x0067cd92      f2276400       fmove.s fp0, -(a7)
        │   0x0067cd96      4eb9004387fc   jsr p_fsin
        │   0x0067cd9c      584f           addq.w 0x4, a7
        │   0x0067cd9e      2d5fffd8       move.l (a7)+, -0x28(a6)
        │   0x0067cda2      f22e441affd8   fneg.s -0x28(a6), fp0
        │   0x0067cda8      f22e6400ffc0   fmove.s fp0, -0x40(a6)
       ┌──< 0x0067cdae      6032           bra.b 0x67cde2
       ││   0x0067cdb0      f213441a       fneg.s (a3), fp0
       ││   0x0067cdb4      594f           subq.w 0x4, a7
       ││   0x0067cdb6      f2276400       fmove.s fp0, -(a7)
       ││   0x0067cdba      4e94           jsr (a4)                    ; fcn.0000000d
       ││   0x0067cdbc      584f           addq.w 0x4, a7
       ││   0x0067cdbe      249f           move.l (a7)+, (a2)
       ││   0x0067cdc0      2d52ffcc       move.l (a2), -0x34(a6)
       ││   0x0067cdc4      594f           subq.w 0x4, a7
       ││   0x0067cdc6      f2276400       fmove.s fp0, -(a7)
       ││   0x0067cdca      4eb9004387fc   jsr p_fsin
       ││   0x0067cdd0      584f           addq.w 0x4, a7
       ││   0x0067cdd2      2d5fffbc       move.l (a7)+, -0x44(a6)
       ││   0x0067cdd6      f22e441affbc   fneg.s -0x44(a6), fp0
       ││   0x0067cddc      f22e6400ffc8   fmove.s fp0, -0x38(a6)
       └└─> 0x0067cde2      4227           clr.b -(a7)
            0x0067cde4      206e000c       movea.l 0xc(a6), a0
            0x0067cde8      4850           pea.l (a0)
            0x0067cdea      4852           pea.l (a2)
            0x0067cdec      206e0008       movea.l 0x8(a6), a0
            0x0067cdf0      4850           pea.l (a0)
            0x0067cdf2      4ebad696       jsr THREEDMAV.multiply_transf(pc)
            0x0067cdf6      defc000e       adda.w 0xe, a7
            0x0067cdfa      f21fd080       fmovem (a7)+, fp0
            0x0067cdfe      4cdf1f01       movem.l (a7)+, d0/a0-a4
            0x0067ce02      4e5e           unlk a6
            0x0067ce04      4e75           rts
┌ 24: THREEDMAV.extract_spins ();
│           0x0067ce06      4e56ff22       link.w a6, 0xff22
│           0x0067ce0a      bfd5           cmpa.l (a5), a7
│       ┌─< 0x0067ce0c      6206           bhi.b 0x67ce14
│       │   0x0067ce0e      44fc0002       move.w 0x2, ccr
│       │   0x0067ce12      4e76           trapv
│       └─> 0x0067ce14      defc004a       adda.w 0x4a, a7
│           0x0067ce18      48e7f0f8       movem.l d0-d3/a0-a4, -(a7)
│           0x0067ce1c      f227e001       fmovem fp0, -(a7)
            0x0067ce20      45eeff6c       lea.l -0x94(a6), a2
            0x0067ce24      47fafde8       lea.l THREEDMAV.extract_spin(pc), a3
            0x0067ce28      720a           moveq 0xa, d1
            0x0067ce2a      7402           moveq 0x2, d2
            0x0067ce2c      7601           moveq 0x1, d3
            0x0067ce2e      102e000c       move.b 0xc(a6), d0
            0x0067ce32      4880           ext.w d0
            0x0067ce34      5b40           subq.w 0x5, d0
            0x0067ce36      0c400003       cmpi.w 0x3, d0
        ┌─< 0x0067ce3a      6302           bls.b 0x67ce3e
        │   0x0067ce3c      4e4e           trap 0xe
        └─> 0x0067ce3e      d040           add.w d0, d0
            0x0067ce40      303b0006       move.w 0x67ce48(pc, d0.w), d0
            0x0067ce44      4efb0002       jmp 0x67ce48(pc, d0.w)
            0x0067ce48      0008007a       
            0x0067ce49      08007a01       
            0x0067ce4a      007a0138       
            0x0067ce4b      7a01           moveq 0x1, d5
            0x0067ce4d      3801           move.w d1, d4
            0x0067ce4f      8e20           or.b -(a0), d7
        ┌─< 0x0067ce51      6e000822       bgt.w 0x67d675
       ┌──< 0x0067ce55      6e000e59       bgt.w 0x67dcb0
       ││   0x0067ce59      4ff22944       lea.l (a2, invalid.w), a7
       ││   0x0067ce5d      1a00           move.b d0, d5
       ││   0x0067ce5f      10f22764002f   move.b 0x2f(a2, invalid.w), (a0)+
       ││   0x0067ce65      11284a4e       move.b 0x4a4e(a0), -(a0)
       ││   0x0067ce69      9350           sub.w d1, (a0)
       ││   0x0067ce6b      4f21           chk.l -(a1), d7
       ││   0x0067ce6d      5f00           subq.b 0x7, d0
       ││   0x0067ce6f      081f022f       
       ││   0x0067ce70      1f02           move.b d2, -(a7)
       ││   0x0067ce72      2f280008       move.l 0x8(a0), -(a7)
       ││   0x0067ce76      4851           pea.l (a1)
       ││   0x0067ce78      486eff70       pea.l -0x90(a6)
       ││   0x0067ce7c      4ebafe72       jsr THREEDMAV.unwind_spin(pc)
       ││   0x0067ce80      5c4f           addq.w 0x6, a7
       ││   0x0067ce82      2eaeff90       move.l -0x70(a6), (a7)
       ││   0x0067ce86      2f2eff70       move.l -0x90(a6), -(a7)
       ││   0x0067ce8a      284a           movea.l a2, a4
       ││   0x0067ce8c      4e93           jsr (a3)                    ; fcn.0000000c
       ││   0x0067ce8e      504f           addq.w 0x8, a7
       ││   0x0067ce90      215f0004       move.l (a7)+, 0x4(a0)
       ││   0x0067ce94      1f03           move.b d3, -(a7)
       ││   0x0067ce96      2f280004       move.l 0x4(a0), -(a7)
       ││   0x0067ce9a      486eff70       pea.l -0x90(a6)
       ││   0x0067ce9e      486effb8       pea.l -0x48(a6)
       ││   0x0067cea2      4ebafe4c       jsr THREEDMAV.unwind_spin(pc)
       ││   0x0067cea6      dec1           adda.w d1, a7
       ││   0x0067cea8      f22e441affdc   fneg.s -0x24(a6), fp0
       ││   0x0067ceae      f2276400       fmove.s fp0, -(a7)
       ││   0x0067ceb2      2f2effcc       move.l -0x34(a6), -(a7)
      ┌───> 0x0067ceb6      284a           movea.l a2, a4
      ╎││   0x0067ceb8      4e93           jsr (a3)                    ; fcn.0000000c
      ╎││   0x0067ceba      504f           addq.w 0x8, a7
      ╎││   0x0067cebc      209f           move.l (a7)+, (a0)
     ┌────< 0x0067cebe      60000168       bra.w 0x67d028
     │╎││   0x0067cec2      206e0008       movea.l 0x8(a6), a0
     │╎││   0x0067cec6      226e000e       movea.l 0xe(a6), a1
     │╎││   0x0067ceca      594f           subq.w 0x4, a7
     │╎││   0x0067cecc      2f290018       move.l 0x18(a1), -(a7)
     │╎││   0x0067ced0      2f290028       move.l 0x28(a1), -(a7)
     │╎││   0x0067ced4      284a           movea.l a2, a4
     │╎││   0x0067ced6      4e93           jsr (a3)                    ; fcn.0000000c
     │╎││   0x0067ced8      504f           addq.w 0x8, a7
     │╎││   0x0067ceda      2097           move.l (a7), (a0)
     │╎││   0x0067cedc      2f290004       move.l 0x4(a1), -(a7)
     │╎││   0x0067cee0      2f11           move.l (a1), -(a7)
     │╎││   0x0067cee2      284a           movea.l a2, a4
     │╎││   0x0067cee4      4e93           jsr (a3)                    ; fcn.0000000c
     │╎││   0x0067cee6      504f           addq.w 0x8, a7
     │╎││   0x0067cee8      215f0008       move.l (a7)+, 0x8(a0)
     │╎││   0x0067ceec      f2104418       fabs.s (a0), fp0
     │╎││   0x0067cef0      f23c44284049.  fsub.s 3, fp0
     │╎││   0x0067cef8      f2000018       fabs fp0
     │╎││   0x0067cefc      f23c44383727.  fcmp.s 0, fp0
     │╎││   0x0067cf04      f29b004e       fbf.w 0x67cf54
     │╎││   0x0067cf08      f22844180008   fabs.s 0x8(a0), fp0
     │╎││   0x0067cf0e      f23c44284049.  fsub.s 3, fp0
     │╎││   0x0067cf16      f2000018       fabs fp0
     │╎││   0x0067cf1a      f23c44383727.  fcmp.s 0, fp0
     │╎││   0x0067cf22      f29b0030       fbf.w 0x67cf54
     │╎││   0x0067cf26      594f           subq.w 0x4, a7
     │╎││   0x0067cf28      2f290018       move.l 0x18(a1), -(a7)
     │╎││   0x0067cf2c      f229441a0028   fneg.s 0x28(a1), fp0
     │╎││   0x0067cf32      f2276400       fmove.s fp0, -(a7)
     │╎││   0x0067cf36      284a           movea.l a2, a4
     │╎││   0x0067cf38      4e93           jsr (a3)                    ; fcn.0000000c
     │╎││   0x0067cf3a      504f           addq.w 0x8, a7
     │╎││   0x0067cf3c      2097           move.l (a7), (a0)
     │╎││   0x0067cf3e      2f290004       move.l 0x4(a1), -(a7)
     │╎││   0x0067cf42      f211441a       fneg.s (a1), fp0
     │╎││   0x0067cf46      f2276400       fmove.s fp0, -(a7)
     │╎││   0x0067cf4a      284a           movea.l a2, a4
     │╎││   0x0067cf4c      4e93           jsr (a3)                    ; fcn.0000000c
     │╎││   0x0067cf4e      504f           addq.w 0x8, a7
     │╎││   0x0067cf50      215f0008       move.l (a7)+, 0x8(a0)
     │╎││   0x0067cf54      4227           clr.b -(a7)
     │╎││   0x0067cf56      2f10           move.l (a0), -(a7)
     │╎││   0x0067cf58      4851           pea.l (a1)
     │╎││   0x0067cf5a      486eff70       pea.l -0x90(a6)
     │╎││   0x0067cf5e      4ebafd90       jsr THREEDMAV.unwind_spin(pc)
     │╎││   0x0067cf62      dec1           adda.w d1, a7
     │╎││   0x0067cf64      f22e441aff78   fneg.s -0x88(a6), fp0
     │╎││   0x0067cf6a      f2276400       fmove.s fp0, -(a7)
     │╎││   0x0067cf6e      2f2eff98       move.l -0x68(a6), -(a7)
     │╎││   0x0067cf72      284a           movea.l a2, a4
     │╎││   0x0067cf74      4e93           jsr (a3)                    ; fcn.0000000c
     │╎││   0x0067cf76      504f           addq.w 0x8, a7
     │╎││   0x0067cf78      215f0004       move.l (a7)+, 0x4(a0)
    ┌─────< 0x0067cf7c      600000aa       bra.w 0x67d028
    ││╎││   0x0067cf80      206e0008       movea.l 0x8(a6), a0
    ││╎││   0x0067cf84      226e000e       movea.l 0xe(a6), a1
    ││╎││   0x0067cf88      594f           subq.w 0x4, a7
    ││╎││   0x0067cf8a      2f290020       move.l 0x20(a1), -(a7)
    ││╎││   0x0067cf8e      2f11           move.l (a1), -(a7)
    ││╎││   0x0067cf90      284a           movea.l a2, a4
    ││╎││   0x0067cf92      4e93           jsr (a3)                    ; fcn.0000000c
    ││╎││   0x0067cf94      504f           addq.w 0x8, a7
    ││╎││   0x0067cf96      21570004       move.l (a7), 0x4(a0)
    ││╎││   0x0067cf9a      2f290018       move.l 0x18(a1), -(a7)
    ││╎││   0x0067cf9e      2f290014       move.l 0x14(a1), -(a7)
    ││╎││   0x0067cfa2      284a           movea.l a2, a4
    ││╎││   0x0067cfa4      4e93           jsr (a3)                    ; fcn.0000000c
    ││╎││   0x0067cfa6      504f           addq.w 0x8, a7
    ││╎││   0x0067cfa8      209f           move.l (a7)+, (a0)
    ││╎││   0x0067cfaa      1f03           move.b d3, -(a7)
    ││╎││   0x0067cfac      2f280004       move.l 0x4(a0), -(a7)
    ││╎││   0x0067cfb0      4851           pea.l (a1)
    ││╎││   0x0067cfb2      486eff70       pea.l -0x90(a6)
    ││╎││   0x0067cfb6      4ebafd38       jsr THREEDMAV.unwind_spin(pc)
    ││╎││   0x0067cfba      dec1           adda.w d1, a7
    ││╎││   0x0067cfbc      f22e441aff80   fneg.s -0x80(a6), fp0
    ││╎││   0x0067cfc2      f2276400       fmove.s fp0, -(a7)
    ││╎││   0x0067cfc6      2f2eff70       move.l -0x90(a6), -(a7)
    ││╎││   0x0067cfca      284a           movea.l a2, a4
    ││╎││   0x0067cfcc      4e93           jsr (a3)                    ; fcn.0000000c
    ││╎││   0x0067cfce      504f           addq.w 0x8, a7
    ││╎││   0x0067cfd0      215f0008       move.l (a7)+, 0x8(a0)
   ┌──────< 0x0067cfd4      6052           bra.b 0x67d028
   │││╎││   0x0067cfd6      206e0008       movea.l 0x8(a6), a0
   │││╎││   0x0067cfda      226e000e       movea.l 0xe(a6), a1
   │││╎││   0x0067cfde      594f           subq.w 0x4, a7
   │││╎││   0x0067cfe0      2f290004       move.l 0x4(a1), -(a7)
   │││╎││   0x0067cfe4      2f290014       move.l 0x14(a1), -(a7)
   │││╎││   0x0067cfe8      284a           movea.l a2, a4
   │││╎││   0x0067cfea      4e93           jsr (a3)                    ; fcn.0000000c
   │││╎││   0x0067cfec      504f           addq.w 0x8, a7
   │││╎││   0x0067cfee      21570008       move.l (a7), 0x8(a0)
   │││╎││   0x0067cff2      2f290020       move.l 0x20(a1), -(a7)
   │││╎││   0x0067cff6      2f290028       move.l 0x28(a1), -(a7)
   │││╎││   0x0067cffa      284a           movea.l a2, a4
   │││╎││   0x0067cffc      4e93           jsr (a3)                    ; fcn.0000000c
   │││╎││   0x0067cffe      504f           addq.w 0x8, a7
   │││╎││   0x0067d000      215f0004       move.l (a7)+, 0x4(a0)
   │││╎││   0x0067d004      1f02           move.b d2, -(a7)
   │││╎││   0x0067d006      2f280008       move.l 0x8(a0), -(a7)
   │││╎││   0x0067d00a      4851           pea.l (a1)
   │││╎││   0x0067d00c      486eff70       pea.l -0x90(a6)
   │││╎││   0x0067d010      4ebafcde       jsr THREEDMAV.unwind_spin(pc)
   │││╎││   0x0067d014      dec1           adda.w d1, a7
   │││╎││   0x0067d016      f22e441aff94   fneg.s -0x6c(a6), fp0
   │││╎││   0x0067d01c      f2276400       fmove.s fp0, -(a7)
   │││╎││   0x0067d020      2f2eff84       move.l -0x7c(a6), -(a7)
   │││└───< 0x0067d024      6000fe90       bra.w 0x67ceb6
   └└└────> 0x0067d028      f21fd080       fmovem (a7)+, fp0
       ││   0x0067d02c      4cdf1f0f       movem.l (a7)+, d0-d3/a0-a4
       ││   0x0067d030      4e5e           unlk a6
       ││   0x0067d032      4e75           rts
       ││   ; CALL XREF from MENU3DCOM.PAS.update_graphics @ 0x50b99c
       ││   ; CALL XREF from MENU3DCOM.PAS.update_all @ 0x50caa8
       ││   ; CALL XREF from MENU3DCOM.PAS.hit_undo @ 0x50de14
┌ 24: THREEDMAV.transform_shape ();
│      ││   0x0067d034      4e56ff96       link.w a6, 0xff96
│      ││   0x0067d038      bfd5           cmpa.l (a5), a7
│     ┌───< 0x0067d03a      6206           bhi.b 0x67d042
│     │││   0x0067d03c      44fc0002       move.w 0x2, ccr
│     │││   0x0067d040      4e76           trapv
│     └───> 0x0067d042      defc0060       adda.w 0x60, a7
│      ││   0x0067d046      48e781f0       movem.l d0/d7/a0-a3, -(a7)
│      ││   0x0067d04a      f227e0c3       fmovem fp0-fp1/fp6-fp7, -(a7)
       ││   0x0067d04e      206e0014       movea.l 0x14(a6), a0
       ││   0x0067d052      226e0008       movea.l 0x8(a6), a1
       ││   0x0067d056      246e0010       movea.l 0x10(a6), a2
       ││   0x0067d05a      266e000c       movea.l 0xc(a6), a3
       ││   0x0067d05e      7e01           moveq 0x1, d7
      ┌───> 0x0067d060      48c7           ext.l d7
      ╎││   0x0067d062      2007           move.l d7, d0
      ╎││   0x0067d064      5380           subq.l 0x1, d0
      ╎││   0x0067d066      0c8000000003   cmpi.l 0x3, d0
     ┌────< 0x0067d06c      6302           bls.b 0x67d070
     │╎││   0x0067d06e      4e4f           trap 0xf
     └────> 0x0067d070      f23347000e00   fmove.s (a3, d0.l * 8), fp6
      ╎││   0x0067d076      f22847230020   fmul.s 0x20(a0), fp6
      ╎││   0x0067d07c      f2124722       fadd.s (a2), fp6
      ╎││   0x0067d080      f23344000e04   fmove.s 0x4(a3, d0.l), fp0
      ╎││   0x0067d086      f22844230024   fmul.s 0x24(a0), fp0
      ╎││   0x0067d08c      f2000322       fadd fp0, fp6
      ╎││   0x0067d090      f2284722002c   fadd.s 0x2c(a0), fp6
      ╎││   0x0067d096      f2001818       fabs fp6, fp0
      ╎││   0x0067d09a      f23c44383727.  fcmp.s 0, fp0
      ╎││   0x0067d0a2      f29b000c       fbf.w 0x67d0b0
      ╎││   0x0067d0a6      f23c43800000.  fmove.l 0x0, fp7
     ┌────< 0x0067d0ae      6008           bra.b 0x67d0b8
     │╎││   0x0067d0b0      f2124780       fmove.s (a2), fp7
     │╎││   0x0067d0b4      f2001ba0       fdiv fp6, fp7
     └────> 0x0067d0b8      f23344000e00   fmove.s (a3, d0.l * 8), fp0
      ╎││   0x0067d0be      f2104423       fmul.s (a0), fp0
      ╎││   0x0067d0c2      f23344800e04   fmove.s 0x4(a3, d0.l), fp1
      ╎││   0x0067d0c8      f22844a30004   fmul.s 0x4(a0), fp1
      ╎││   0x0067d0ce      f20000a2       fadd fp0, fp1
      ╎││   0x0067d0d2      f22844a2000c   fadd.s 0xc(a0), fp1
      ╎││   0x0067d0d8      f2001ca3       fmul fp7, fp1
      ╎││   0x0067d0dc      f23164800e00   fmove.s fp1, (a1, d0.l * 8)
      ╎││   0x0067d0e2      f23344000e00   fmove.s (a3, d0.l * 8), fp0
      ╎││   0x0067d0e8      f22844230010   fmul.s 0x10(a0), fp0
      ╎││   0x0067d0ee      f23344800e04   fmove.s 0x4(a3, d0.l), fp1
      ╎││   0x0067d0f4      f22844a30014   fmul.s 0x14(a0), fp1
      ╎││   0x0067d0fa      f20000a2       fadd fp0, fp1
      ╎││   0x0067d0fe      f22844a2001c   fadd.s 0x1c(a0), fp1
      ╎││   0x0067d104      f2001ca3       fmul fp7, fp1
      ╎││   0x0067d108      f23164800e04   fmove.s fp1, 0x4(a1, d0.l)
      ╎││   0x0067d10e      5247           addq.w 0x1, d7
      ╎││   0x0067d110      0c470004       cmpi.w 0x4, d7
      └───< 0x0067d114      6f00ff4a       ble.w 0x67d060
       ││   0x0067d118      f21fd0c3       fmovem (a7)+, fp0-fp1/fp6-fp7
       ││   0x0067d11c      4cdf0f81       movem.l (a7)+, d0/d7/a0-a3
       ││   0x0067d120      4e5e           unlk a6
       ││   0x0067d122      4e75           rts
┌ 24: THREEDMAV.calc_pin_shape ();
│      ││   0x0067d124      4e56ff68       link.w a6, 0xff68
│      ││   0x0067d128      bfd5           cmpa.l (a5), a7
│     ┌───< 0x0067d12a      6206           bhi.b 0x67d132
│     │││   0x0067d12c      44fc0002       move.w 0x2, ccr
│     │││   0x0067d130      4e76           trapv
│     └───> 0x0067d132      defc004c       adda.w 0x4c, a7
│      ││   0x0067d136      48e700f8       movem.l a0-a4, -(a7)
│      ││   0x0067d13a      f227e083       fmovem fp0-fp1/fp7, -(a7)
       ││   0x0067d13e      43ee0050       lea.l 0x50(a6), a1
       ││   0x0067d142      45eeffb8       lea.l -0x48(a6), a2
       ││   0x0067d146      47eeffd8       lea.l -0x28(a6), a3
       ││   0x0067d14a      49eeffdc       lea.l -0x24(a6), a4
       ││   0x0067d14e      f22e47800048   fmove.s 0x48(a6), fp7
       ││   0x0067d154      f21147a3       fmul.s (a1), fp7
       ││   0x0067d158      f22e44000018   fmove.s 0x18(a6), fp0
       ││   0x0067d15e      f2001c23       fmul fp7, fp0
       ││   0x0067d162      f22e64000018   fmove.s fp0, 0x18(a6)
       ││   0x0067d168      f22e44000028   fmove.s 0x28(a6), fp0
       ││   0x0067d16e      f2001c23       fmul fp7, fp0
       ││   0x0067d172      f22e64000028   fmove.s fp0, 0x28(a6)
       ││   0x0067d178      f22e44000038   fmove.s 0x38(a6), fp0
       ││   0x0067d17e      f2001c23       fmul fp7, fp0
       ││   0x0067d182      f22e64000038   fmove.s fp0, 0x38(a6)
       ││   0x0067d188      f22e4780004c   fmove.s 0x4c(a6), fp7
       ││   0x0067d18e      f21147a3       fmul.s (a1), fp7
       ││   0x0067d192      f22e4400001c   fmove.s 0x1c(a6), fp0
       ││   0x0067d198      f2001c23       fmul fp7, fp0
       ││   0x0067d19c      f22e6400001c   fmove.s fp0, 0x1c(a6)
       ││   0x0067d1a2      f22e4400002c   fmove.s 0x2c(a6), fp0
       ││   0x0067d1a8      f2001c23       fmul fp7, fp0
       ││   0x0067d1ac      f22e6400002c   fmove.s fp0, 0x2c(a6)
       ││   0x0067d1b2      f22e4400003c   fmove.s 0x3c(a6), fp0
       ││   0x0067d1b8      f2001c23       fmul fp7, fp0
       ││   0x0067d1bc      f22e6400003c   fmove.s fp0, 0x3c(a6)
       ││   0x0067d1c2      f22e44000020   fmove.s 0x20(a6), fp0
       ││   0x0067d1c8      f2114423       fmul.s (a1), fp0
       ││   0x0067d1cc      f22e64000020   fmove.s fp0, 0x20(a6)
       ││   0x0067d1d2      f22e44000030   fmove.s 0x30(a6), fp0
       ││   0x0067d1d8      f2114423       fmul.s (a1), fp0
       ││   0x0067d1dc      f22e64000030   fmove.s fp0, 0x30(a6)
       ││   0x0067d1e2      f22e44000040   fmove.s 0x40(a6), fp0
       ││   0x0067d1e8      f2114423       fmul.s (a1), fp0
       ││   0x0067d1ec      f22e64000040   fmove.s fp0, 0x40(a6)
       ││   0x0067d1f2      4227           clr.b -(a7)
       ││   0x0067d1f4      206e0014       movea.l 0x14(a6), a0
       ││   0x0067d1f8      4850           pea.l (a0)
       ││   0x0067d1fa      486e0018       pea.l 0x18(a6)
       ││   0x0067d1fe      4852           pea.l (a2)
       ││   0x0067d200      4ebad288       jsr THREEDMAV.multiply_transf(pc)
       ││   0x0067d204      defc000e       adda.w 0xe, a7
       ││   0x0067d208      206e0010       movea.l 0x10(a6), a0
       ││   0x0067d20c      f2134400       fmove.s (a3), fp0
       ││   0x0067d210      f22844230004   fmul.s 0x4(a0), fp0
       ││   0x0067d216      f2124480       fmove.s (a2), fp1
       ││   0x0067d21a      f20000a2       fadd fp0, fp1
       ││   0x0067d21e      f22e44a30060   fmul.s 0x60(a6), fp1
       ││   0x0067d224      f2126480       fmove.s fp1, (a2)
       ││   0x0067d228      f2144400       fmove.s (a4), fp0
       ││   0x0067d22c      f22844230004   fmul.s 0x4(a0), fp0
       ││   0x0067d232      f22e4480ffbc   fmove.s -0x44(a6), fp1
       ││   0x0067d238      f20000a2       fadd fp0, fp1
       ││   0x0067d23c      f22e44a30064   fmul.s 0x64(a6), fp1
       ││   0x0067d242      f22e6480ffbc   fmove.s fp1, -0x44(a6)
       ││   0x0067d248      f22e4400ffe4   fmove.s -0x1c(a6), fp0
       ││   0x0067d24e      f22844230004   fmul.s 0x4(a0), fp0
       ││   0x0067d254      f22e4480ffc4   fmove.s -0x3c(a6), fp1
       ││   0x0067d25a      f20000a2       fadd fp0, fp1
       ││   0x0067d25e      f22e6480ffc4   fmove.s fp1, -0x3c(a6)
       ││   0x0067d264      f2134400       fmove.s (a3), fp0
       ││   0x0067d268      f22844230008   fmul.s 0x8(a0), fp0
       ││   0x0067d26e      f22e4480ffc8   fmove.s -0x38(a6), fp1
       ││   0x0067d274      f20000a2       fadd fp0, fp1
       ││   0x0067d278      f22e44a30060   fmul.s 0x60(a6), fp1
       ││   0x0067d27e      f22e6480ffc8   fmove.s fp1, -0x38(a6)
       ││   0x0067d284      f2144400       fmove.s (a4), fp0
       ││   0x0067d288      f22844230008   fmul.s 0x8(a0), fp0
       ││   0x0067d28e      f22e4480ffcc   fmove.s -0x34(a6), fp1
       ││   0x0067d294      f20000a2       fadd fp0, fp1
       ││   0x0067d298      f22e44a30064   fmul.s 0x64(a6), fp1
       ││   0x0067d29e      f22e6480ffcc   fmove.s fp1, -0x34(a6)
       ││   0x0067d2a4      f22e4400ffe4   fmove.s -0x1c(a6), fp0
       ││   0x0067d2aa      f22844230008   fmul.s 0x8(a0), fp0
       ││   0x0067d2b0      f22e4480ffd4   fmove.s -0x2c(a6), fp1
       ││   0x0067d2b6      f20000a2       fadd fp0, fp1
       ││   0x0067d2ba      f22e6480ffd4   fmove.s fp1, -0x2c(a6)
       ││   0x0067d2c0      f2134400       fmove.s (a3), fp0
       ││   0x0067d2c4      f22e44230060   fmul.s 0x60(a6), fp0
       ││   0x0067d2ca      f2136400       fmove.s fp0, (a3)
       ││   0x0067d2ce      f2144400       fmove.s (a4), fp0
       ││   0x0067d2d2      f22e44230064   fmul.s 0x64(a6), fp0
       ││   0x0067d2d8      f2146400       fmove.s fp0, (a4)
       ││   0x0067d2dc      4852           pea.l (a2)
       ││   0x0067d2de      206e0010       movea.l 0x10(a6), a0
       ││   0x0067d2e2      4850           pea.l (a0)
       ││   0x0067d2e4      206e000c       movea.l 0xc(a6), a0
       ││   0x0067d2e8      4850           pea.l (a0)
       ││   0x0067d2ea      206e0008       movea.l 0x8(a6), a0
       ││   0x0067d2ee      4850           pea.l (a0)
       ││   0x0067d2f0      4ebafd42       jsr THREEDMAV.transform_shape(pc)
       ││   0x0067d2f4      defc0010       adda.w 0x10, a7
       ││   0x0067d2f8      f21fd0c1       fmovem (a7)+, fp0-fp1/fp7
       ││   0x0067d2fc      4cdf1f00       movem.l (a7)+, a0-a4
       ││   0x0067d300      4e5e           unlk a6
       ││   0x0067d302      4e75           rts
┌ 24: THREEDMAV.get_intersect ();
│      ││   0x0067d304      4e56ff5c       link.w a6, 0xff5c
│      ││   0x0067d308      bfd5           cmpa.l (a5), a7
│     ┌───< 0x0067d30a      6206           bhi.b 0x67d312
│     │││   0x0067d30c      44fc0002       move.w 0x2, ccr
│     │││   0x0067d310      4e76           trapv
│     └───> 0x0067d312      defc0098       adda.w 0x98, a7
│      ││   0x0067d316      48e700e0       movem.l a0-a2, -(a7)
│      ││   0x0067d31a      f227e0df       fmovem fp0-fp4/fp6-fp7, -(a7)
       ││   0x0067d31e      43ee0030       lea.l 0x30(a6), a1
       ││   0x0067d322      45ee002c       lea.l 0x2c(a6), a2
       ││   0x0067d326      f22e44000028   fmove.s 0x28(a6), fp0
       ││   0x0067d32c      f2114428       fsub.s (a1), fp0
       ││   0x0067d330      f22e44800014   fmove.s 0x14(a6), fp1
       ││   0x0067d336      f22e44a8001c   fsub.s 0x1c(a6), fp1
       ││   0x0067d33c      f2000300       fmove fp0, fp6
       ││   0x0067d340      f2000723       fmul fp1, fp6
       ││   0x0067d344      f22e45000018   fmove.s 0x18(a6), fp2
       ││   0x0067d34a      f22e45280020   fsub.s 0x20(a6), fp2
       ││   0x0067d350      f22e45800024   fmove.s 0x24(a6), fp3
       ││   0x0067d356      f21245a8       fsub.s (a2), fp3
       ││   0x0067d35a      f2000a00       fmove fp2, fp4
       ││   0x0067d35e      f2000e23       fmul fp3, fp4
       ││   0x0067d362      f2001328       fsub fp4, fp6
       ││   0x0067d366      206e0008       movea.l 0x8(a6), a0
       ││   0x0067d36a      4210           clr.b (a0)
       ││   0x0067d36c      f2001a18       fabs fp6, fp4
       ││   0x0067d370      f23c46383727.  fcmp.s 0, fp4
       ││   0x0067d378      f29b0004       fbf.w 0x67d37e
       ││   0x0067d37c      5210           addq.b 0x1, (a0)
       ││   0x0067d37e      4a10           tst.b (a0)
      ┌───< 0x0067d380      664c           bne.b 0x67d3ce
      │││   0x0067d382      f22e47800018   fmove.s 0x18(a6), fp7
      │││   0x0067d388      f21147a8       fsub.s (a1), fp7
      │││   0x0067d38c      f20007a3       fmul fp1, fp7
      │││   0x0067d390      f22e46000014   fmove.s 0x14(a6), fp4
      │││   0x0067d396      f2124628       fsub.s (a2), fp4
      │││   0x0067d39a      f2000a23       fmul fp2, fp4
      │││   0x0067d39e      f20013a8       fsub fp4, fp7
      │││   0x0067d3a2      f2001ba0       fdiv fp6, fp7
      │││   0x0067d3a6      206e0010       movea.l 0x10(a6), a0
      │││   0x0067d3aa      f2001e00       fmove fp7, fp4
      │││   0x0067d3ae      f2000223       fmul fp0, fp4
      │││   0x0067d3b2      f2114622       fadd.s (a1), fp4
      │││   0x0067d3b6      f2106600       fmove.s fp4, (a0)
      │││   0x0067d3ba      206e000c       movea.l 0xc(a6), a0
      │││   0x0067d3be      f2001e00       fmove fp7, fp4
      │││   0x0067d3c2      f2000e23       fmul fp3, fp4
      │││   0x0067d3c6      f2124622       fadd.s (a2), fp4
      │││   0x0067d3ca      f2106600       fmove.s fp4, (a0)
      └───> 0x0067d3ce      f21fd0fb       fmovem (a7)+, fp0-fp4/fp6-fp7
       ││   0x0067d3d2      4cdf0700       movem.l (a7)+, a0-a2
       ││   0x0067d3d6      4e5e           unlk a6
       ││   0x0067d3d8      4e75           rts
┌ 20: THREEDMAV.x_out ();
│      ││   0x0067d3da      4e56ffd8       link.w a6, 0xffd8
│      ││   0x0067d3de      bfd5           cmpa.l (a5), a7
│     ┌───< 0x0067d3e0      6206           bhi.b 0x67d3e8
│     │││   0x0067d3e2      44fc0002       move.w 0x2, ccr
│     │││   0x0067d3e6      4e76           trapv
│     └───> 0x0067d3e8      defc0028       adda.w 0x28, a7
│      ││   0x0067d3ec      f227e007       fmovem fp0-fp2, -(a7)
       ││   0x0067d3f0      f22c440000fc   fmove.s 0xfc(a4), fp0
       ││   0x0067d3f6      f22e4423000c   fmul.s 0xc(a6), fp0
       ││   0x0067d3fc      f22c44800100   fmove.s 0x100(a4), fp1
       ││   0x0067d402      f22e44a30008   fmul.s 0x8(a6), fp1
       ││   0x0067d408      f20000a2       fadd fp0, fp1
       ││   0x0067d40c      f22c44a20104   fadd.s 0x104(a4), fp1
       ││   0x0067d412      f22c44000114   fmove.s 0x114(a4), fp0
       ││   0x0067d418      f22e4423000c   fmul.s 0xc(a6), fp0
       ││   0x0067d41e      f22c45000118   fmove.s 0x118(a4), fp2
       ││   0x0067d424      f22e45230008   fmul.s 0x8(a6), fp2
       ││   0x0067d42a      f2000122       fadd fp0, fp2
       ││   0x0067d42e      f23c45223f80.  fadd.s 1, fp2
       ││   0x0067d436      f20008a0       fdiv fp2, fp1
       ││   0x0067d43a      f22e64800010   fmove.s fp1, 0x10(a6)
       ││   0x0067d440      f21fd0e0       fmovem (a7)+, fp0-fp2
       ││   0x0067d444      4e5e           unlk a6
       ││   0x0067d446      4e75           rts
┌ 20: THREEDMAV.y_out ();
│      ││   0x0067d448      4e56ffd8       link.w a6, 0xffd8
│      ││   0x0067d44c      bfd5           cmpa.l (a5), a7
│     ┌───< 0x0067d44e      6206           bhi.b 0x67d456
│     │││   0x0067d450      44fc0002       move.w 0x2, ccr
│     │││   0x0067d454      4e76           trapv
│     └───> 0x0067d456      defc0028       adda.w 0x28, a7
│      ││   0x0067d45a      f227e007       fmovem fp0-fp2, -(a7)
       ││   0x0067d45e      f22c44000108   fmove.s 0x108(a4), fp0
       ││   0x0067d464      f22e4423000c   fmul.s 0xc(a6), fp0
       ││   0x0067d46a      f22c4480010c   fmove.s 0x10c(a4), fp1
       ││   0x0067d470      f22e44a30008   fmul.s 0x8(a6), fp1
       ││   0x0067d476      f20000a2       fadd fp0, fp1
       ││   0x0067d47a      f22c44a20110   fadd.s 0x110(a4), fp1
       ││   0x0067d480      f22c44000114   fmove.s 0x114(a4), fp0
       ││   0x0067d486      f22e4423000c   fmul.s 0xc(a6), fp0
       ││   0x0067d48c      f22c45000118   fmove.s 0x118(a4), fp2
       ││   0x0067d492      f22e45230008   fmul.s 0x8(a6), fp2
       ││   0x0067d498      f2000122       fadd fp0, fp2
       ││   0x0067d49c      f23c45223f80.  fadd.s 1, fp2
       ││   0x0067d4a4      f20008a0       fdiv fp2, fp1
       ││   0x0067d4a8      f22e64800010   fmove.s fp1, 0x10(a6)
       ││   0x0067d4ae      f21fd0e0       fmovem (a7)+, fp0-fp2
       ││   0x0067d4b2      4e5e           unlk a6
       ││   0x0067d4b4      4e75           rts
┌ 24: THREEDMAV.first_half ();
│      ││   0x0067d4b6      4e56ff3c       link.w a6, 0xff3c
│      ││   0x0067d4ba      bfd5           cmpa.l (a5), a7
│     ┌───< 0x0067d4bc      6206           bhi.b 0x67d4c4
│     │││   0x0067d4be      44fc0002       move.w 0x2, ccr
│     │││   0x0067d4c2      4e76           trapv
│     └───> 0x0067d4c4      defc00c4       adda.w 0xc4, a7
│      ││   0x0067d4c8      48e7f0f0       movem.l d0-d3/a0-a3, -(a7)
│      ││   0x0067d4cc      f227e01f       fmovem fp0-fp4, -(a7)
       ││   0x0067d4d0      43ec0004       lea.l 0x4(a4), a1
       ││   0x0067d4d4      45ec0008       lea.l 0x8(a4), a2
       ││   0x0067d4d8      47ec0010       lea.l 0x10(a4), a3
       ││   0x0067d4dc      72fc           moveq 0xfc, d1
       ││   0x0067d4de      7404           moveq 0x4, d2
       ││   0x0067d4e0      263c3f800000   move.l 0x3f800000, d3
       ││   0x0067d4e6      206c01f6       movea.l 0x1f6(a4), a0
       ││   0x0067d4ea      f2104400       fmove.s (a0), fp0
       ││   0x0067d4ee      f22844280010   fsub.s 0x10(a0), fp0
       ││   0x0067d4f4      f2146400       fmove.s fp0, (a4)
       ││   0x0067d4f8      f22844000004   fmove.s 0x4(a0), fp0
       ││   0x0067d4fe      f22844280014   fsub.s 0x14(a0), fp0
       ││   0x0067d504      f2116400       fmove.s fp0, (a1)
       ││   0x0067d508      f22844000008   fmove.s 0x8(a0), fp0
       ││   0x0067d50e      f22844280010   fsub.s 0x10(a0), fp0
       ││   0x0067d514      f2126400       fmove.s fp0, (a2)
       ││   0x0067d518      f2284400000c   fmove.s 0xc(a0), fp0
       ││   0x0067d51e      f22844280014   fsub.s 0x14(a0), fp0
       ││   0x0067d524      f22c6400000c   fmove.s fp0, 0xc(a4)
       ││   0x0067d52a      f22844000008   fmove.s 0x8(a0), fp0
       ││   0x0067d530      f22844280018   fsub.s 0x18(a0), fp0
       ││   0x0067d536      f2136400       fmove.s fp0, (a3)
       ││   0x0067d53a      f2284400000c   fmove.s 0xc(a0), fp0
       ││   0x0067d540      f2284428001c   fsub.s 0x1c(a0), fp0
       ││   0x0067d546      f22c64000014   fmove.s fp0, 0x14(a4)
       ││   0x0067d54c      f2114400       fmove.s (a1), fp0
       ││   0x0067d550      f2124423       fmul.s (a2), fp0
       ││   0x0067d554      f22c4480000c   fmove.s 0xc(a4), fp1
       ││   0x0067d55a      f21444a3       fmul.s (a4), fp1
       ││   0x0067d55e      f200049a       fneg fp1
       ││   0x0067d562      f20000a2       fadd fp0, fp1
       ││   0x0067d566      f22c64800090   fmove.s fp1, 0x90(a4)
       ││   0x0067d56c      f2114400       fmove.s (a1), fp0
       ││   0x0067d570      f2134423       fmul.s (a3), fp0
       ││   0x0067d574      f22c44800014   fmove.s 0x14(a4), fp1
       ││   0x0067d57a      f21444a3       fmul.s (a4), fp1
       ││   0x0067d57e      f200049a       fneg fp1
       ││   0x0067d582      f20000a2       fadd fp0, fp1
       ││   0x0067d586      f22c64800094   fmove.s fp1, 0x94(a4)
       ││   0x0067d58c      f2034400       fmove.s d3, fp0
       ││   0x0067d590      f22c44200094   fdiv.s 0x94(a4), fp0
       ││   0x0067d596      f22c64000098   fmove.s fp0, 0x98(a4)
       ││   0x0067d59c      f22c440001d6   fmove.s 0x1d6(a4), fp0
       ││   0x0067d5a2      f22c442801e6   fsub.s 0x1e6(a4), fp0
       ││   0x0067d5a8      f22c64000078   fmove.s fp0, 0x78(a4)
       ││   0x0067d5ae      f22c440001de   fmove.s 0x1de(a4), fp0
       ││   0x0067d5b4      f22c442801e6   fsub.s 0x1e6(a4), fp0
       ││   0x0067d5ba      f22c6400007c   fmove.s fp0, 0x7c(a4)
       ││   0x0067d5c0      f22c440001de   fmove.s 0x1de(a4), fp0
       ││   0x0067d5c6      f22c442801ee   fsub.s 0x1ee(a4), fp0
       ││   0x0067d5cc      f22c64000080   fmove.s fp0, 0x80(a4)
       ││   0x0067d5d2      f22c440001da   fmove.s 0x1da(a4), fp0
       ││   0x0067d5d8      f22c442801ea   fsub.s 0x1ea(a4), fp0
       ││   0x0067d5de      f22c64000084   fmove.s fp0, 0x84(a4)
       ││   0x0067d5e4      f22c440001e2   fmove.s 0x1e2(a4), fp0
       ││   0x0067d5ea      f22c442801ea   fsub.s 0x1ea(a4), fp0
       ││   0x0067d5f0      f22c64000088   fmove.s fp0, 0x88(a4)
       ││   0x0067d5f6      f22c440001e2   fmove.s 0x1e2(a4), fp0
       ││   0x0067d5fc      f22c442801f2   fsub.s 0x1f2(a4), fp0
       ││   0x0067d602      f22c6400008c   fmove.s fp0, 0x8c(a4)
       ││   0x0067d608      f2104400       fmove.s (a0), fp0
       ││   0x0067d60c      f22c442301d6   fmul.s 0x1d6(a4), fp0
       ││   0x0067d612      f22844800010   fmove.s 0x10(a0), fp1
       ││   0x0067d618      f22c44a301e6   fmul.s 0x1e6(a4), fp1
       ││   0x0067d61e      f2000428       fsub fp1, fp0
       ││   0x0067d622      f22c64000074   fmove.s fp0, 0x74(a4)
       ││   0x0067d628      f2104400       fmove.s (a0), fp0
       ││   0x0067d62c      f22c442301da   fmul.s 0x1da(a4), fp0
       ││   0x0067d632      f22845000010   fmove.s 0x10(a0), fp2
       ││   0x0067d638      f22c452301ea   fmul.s 0x1ea(a4), fp2
       ││   0x0067d63e      f2000828       fsub fp2, fp0
       ││   0x0067d642      f22c64000070   fmove.s fp0, 0x70(a4)
       ││   0x0067d648      f22844000004   fmove.s 0x4(a0), fp0
       ││   0x0067d64e      f22c442301d6   fmul.s 0x1d6(a4), fp0
       ││   0x0067d654      f22845800014   fmove.s 0x14(a0), fp3
       ││   0x0067d65a      f22c45a301e6   fmul.s 0x1e6(a4), fp3
       ││   0x0067d660      f2000c28       fsub fp3, fp0
       ││   0x0067d664      f22c6400006c   fmove.s fp0, 0x6c(a4)
       ││   0x0067d66a      f22844000004   fmove.s 0x4(a0), fp0
       ││   0x0067d670      f22c442301da   fmul.s 0x1da(a4), fp0
       │    0x0067d676      f22846000014   fmove.s 0x14(a0), fp4
       │    0x0067d67c      f22c462301ea   fmul.s 0x1ea(a4), fp4
       │    0x0067d682      f2001028       fsub fp4, fp0
       │    0x0067d686      f22c64000068   fmove.s fp0, 0x68(a4)
       │    0x0067d68c      f22844000008   fmove.s 0x8(a0), fp0
       │    0x0067d692      f22c442301de   fmul.s 0x1de(a4), fp0
       │    0x0067d698      f200049a       fneg fp1
       │    0x0067d69c      f20000a2       fadd fp0, fp1
       │    0x0067d6a0      f22c64800064   fmove.s fp1, 0x64(a4)
       │    0x0067d6a6      f22844800008   fmove.s 0x8(a0), fp1
       │    0x0067d6ac      f22c44a301e2   fmul.s 0x1e2(a4), fp1
       │    0x0067d6b2      f200091a       fneg fp2
       │    0x0067d6b6      f2000522       fadd fp1, fp2
       │    0x0067d6ba      f22c65000060   fmove.s fp2, 0x60(a4)
       │    0x0067d6c0      f2284500000c   fmove.s 0xc(a0), fp2
       │    0x0067d6c6      f22c452301de   fmul.s 0x1de(a4), fp2
       │    0x0067d6cc      f2000d9a       fneg fp3
       │    0x0067d6d0      f20009a2       fadd fp2, fp3
       │    0x0067d6d4      f22c6580005c   fmove.s fp3, 0x5c(a4)
       │    0x0067d6da      f2284580000c   fmove.s 0xc(a0), fp3
       │    0x0067d6e0      f22c45a301e2   fmul.s 0x1e2(a4), fp3
       │    0x0067d6e6      f200121a       fneg fp4
       │    0x0067d6ea      f2000e22       fadd fp3, fp4
       │    0x0067d6ee      f22c66000058   fmove.s fp4, 0x58(a4)
       │    0x0067d6f4      f22846000018   fmove.s 0x18(a0), fp4
       │    0x0067d6fa      f22c462301ee   fmul.s 0x1ee(a4), fp4
       │    0x0067d700      f200121a       fneg fp4
       │    0x0067d704      f2000222       fadd fp0, fp4
       │    0x0067d708      f22c66000054   fmove.s fp4, 0x54(a4)
       │    0x0067d70e      f22844000018   fmove.s 0x18(a0), fp0
       │    0x0067d714      f22c442301f2   fmul.s 0x1f2(a4), fp0
       │    0x0067d71a      f200001a       fneg fp0
       │    0x0067d71e      f2000422       fadd fp1, fp0
       │    0x0067d722      f22c64000050   fmove.s fp0, 0x50(a4)
       │    0x0067d728      f2284400001c   fmove.s 0x1c(a0), fp0
       │    0x0067d72e      f22c442301ee   fmul.s 0x1ee(a4), fp0
       │    0x0067d734      f200001a       fneg fp0
       │    0x0067d738      f2000822       fadd fp2, fp0
       │    0x0067d73c      f22c6400004c   fmove.s fp0, 0x4c(a4)
       │    0x0067d742      f2284400001c   fmove.s 0x1c(a0), fp0
       │    0x0067d748      f22c442301f2   fmul.s 0x1f2(a4), fp0
       │    0x0067d74e      f200001a       fneg fp0
       │    0x0067d752      f2000c22       fadd fp3, fp0
       │    0x0067d756      f22c64000048   fmove.s fp0, 0x48(a4)
       │    0x0067d75c      f2134400       fmove.s (a3), fp0
       │    0x0067d760      f22c44230074   fmul.s 0x74(a4), fp0
       │    0x0067d766      f2144480       fmove.s (a4), fp1
       │    0x0067d76a      f22c44a30054   fmul.s 0x54(a4), fp1
       │    0x0067d770      f200049a       fneg fp1
       │    0x0067d774      f20000a2       fadd fp0, fp1
       │    0x0067d778      f22c6480009c   fmove.s fp1, 0x9c(a4)
       │    0x0067d77e      f2134400       fmove.s (a3), fp0
       │    0x0067d782      f22c44230070   fmul.s 0x70(a4), fp0
       │    0x0067d788      f2144480       fmove.s (a4), fp1
       │    0x0067d78c      f22c44a30050   fmul.s 0x50(a4), fp1
       │    0x0067d792      f200049a       fneg fp1
       │    0x0067d796      f20000a2       fadd fp0, fp1
       │    0x0067d79a      f22c648000a0   fmove.s fp1, 0xa0(a4)
       │    0x0067d7a0      f2124400       fmove.s (a2), fp0
       │    0x0067d7a4      f22c44230074   fmul.s 0x74(a4), fp0
       │    0x0067d7aa      f2144480       fmove.s (a4), fp1
       │    0x0067d7ae      f22c44a30064   fmul.s 0x64(a4), fp1
       │    0x0067d7b4      f200049a       fneg fp1
       │    0x0067d7b8      f20000a2       fadd fp0, fp1
       │    0x0067d7bc      f22c648000a4   fmove.s fp1, 0xa4(a4)
       │    0x0067d7c2      f2124400       fmove.s (a2), fp0
       │    0x0067d7c6      f22c44230070   fmul.s 0x70(a4), fp0
       │    0x0067d7cc      f2144480       fmove.s (a4), fp1
       │    0x0067d7d0      f22c44a30060   fmul.s 0x60(a4), fp1
       │    0x0067d7d6      f200049a       fneg fp1
       │    0x0067d7da      f20000a2       fadd fp0, fp1
       │    0x0067d7de      f22c648000a8   fmove.s fp1, 0xa8(a4)
       │    0x0067d7e4      f2134400       fmove.s (a3), fp0
       │    0x0067d7e8      f22c44230078   fmul.s 0x78(a4), fp0
       │    0x0067d7ee      f2144480       fmove.s (a4), fp1
       │    0x0067d7f2      f22c44a30080   fmul.s 0x80(a4), fp1
       │    0x0067d7f8      f200049a       fneg fp1
       │    0x0067d7fc      f20000a2       fadd fp0, fp1
       │    0x0067d800      f22c648000ac   fmove.s fp1, 0xac(a4)
       │    0x0067d806      f2134400       fmove.s (a3), fp0
       │    0x0067d80a      f22c44230084   fmul.s 0x84(a4), fp0
       │    0x0067d810      f2144480       fmove.s (a4), fp1
       │    0x0067d814      f22c44a3008c   fmul.s 0x8c(a4), fp1
       │    0x0067d81a      f200049a       fneg fp1
       │    0x0067d81e      f20000a2       fadd fp0, fp1
       │    0x0067d822      f22c648000b0   fmove.s fp1, 0xb0(a4)
       │    0x0067d828      f2124400       fmove.s (a2), fp0
       │    0x0067d82c      f22c44230078   fmul.s 0x78(a4), fp0
       │    0x0067d832      f2144480       fmove.s (a4), fp1
       │    0x0067d836      f22c44a3007c   fmul.s 0x7c(a4), fp1
       │    0x0067d83c      f200049a       fneg fp1
       │    0x0067d840      f20000a2       fadd fp0, fp1
       │    0x0067d844      f22c648000b4   fmove.s fp1, 0xb4(a4)
       │    0x0067d84a      f2124400       fmove.s (a2), fp0
       │    0x0067d84e      f22c44230084   fmul.s 0x84(a4), fp0
       │    0x0067d854      f2144480       fmove.s (a4), fp1
       │    0x0067d858      f22c44a30088   fmul.s 0x88(a4), fp1
       │    0x0067d85e      f200049a       fneg fp1
       │    0x0067d862      f20000a2       fadd fp0, fp1
       │    0x0067d866      f22c648000b8   fmove.s fp1, 0xb8(a4)
       │    0x0067d86c      f2124400       fmove.s (a2), fp0
       │    0x0067d870      f22c4423006c   fmul.s 0x6c(a4), fp0
       │    0x0067d876      f2144480       fmove.s (a4), fp1
       │    0x0067d87a      f22c44a3005c   fmul.s 0x5c(a4), fp1
       │    0x0067d880      f200049a       fneg fp1
       │    0x0067d884      f20000a2       fadd fp0, fp1
       │    0x0067d888      f22c648000bc   fmove.s fp1, 0xbc(a4)
       │    0x0067d88e      f2124400       fmove.s (a2), fp0
       │    0x0067d892      f22c44230068   fmul.s 0x68(a4), fp0
       │    0x0067d898      f2144480       fmove.s (a4), fp1
       │    0x0067d89c      f22c44a30058   fmul.s 0x58(a4), fp1
       │    0x0067d8a2      f200049a       fneg fp1
       │    0x0067d8a6      f20000a2       fadd fp0, fp1
       │    0x0067d8aa      f22c648000c0   fmove.s fp1, 0xc0(a4)
       │    0x0067d8b0      f2134400       fmove.s (a3), fp0
       │    0x0067d8b4      f22c4423006c   fmul.s 0x6c(a4), fp0
       │    0x0067d8ba      f2144480       fmove.s (a4), fp1
       │    0x0067d8be      f22c44a3004c   fmul.s 0x4c(a4), fp1
       │    0x0067d8c4      f200049a       fneg fp1
       │    0x0067d8c8      f20000a2       fadd fp0, fp1
       │    0x0067d8cc      f22c648000c4   fmove.s fp1, 0xc4(a4)
       │    0x0067d8d2      f2134400       fmove.s (a3), fp0
       │    0x0067d8d6      f22c44230068   fmul.s 0x68(a4), fp0
       │    0x0067d8dc      f2144480       fmove.s (a4), fp1
       │    0x0067d8e0      f22c44a30048   fmul.s 0x48(a4), fp1
       │    0x0067d8e6      f200049a       fneg fp1
       │    0x0067d8ea      f20000a2       fadd fp0, fp1
       │    0x0067d8ee      f22c648000c8   fmove.s fp1, 0xc8(a4)
       │    0x0067d8f4      f22c44000014   fmove.s 0x14(a4), fp0
       │    0x0067d8fa      f22c44230074   fmul.s 0x74(a4), fp0
       │    0x0067d900      f2114480       fmove.s (a1), fp1
       │    0x0067d904      f22c44a30054   fmul.s 0x54(a4), fp1
       │    0x0067d90a      f200049a       fneg fp1
       │    0x0067d90e      f20000a2       fadd fp0, fp1
       │    0x0067d912      f22c648000cc   fmove.s fp1, 0xcc(a4)
       │    0x0067d918      f22c44000014   fmove.s 0x14(a4), fp0
       │    0x0067d91e      f22c44230070   fmul.s 0x70(a4), fp0
       │    0x0067d924      f2114480       fmove.s (a1), fp1
       │    0x0067d928      f22c44a30050   fmul.s 0x50(a4), fp1
       │    0x0067d92e      f200049a       fneg fp1
       │    0x0067d932      f20000a2       fadd fp0, fp1
       │    0x0067d936      f22c648000d0   fmove.s fp1, 0xd0(a4)
       │    0x0067d93c      f22c44000014   fmove.s 0x14(a4), fp0
       │    0x0067d942      f22c4423006c   fmul.s 0x6c(a4), fp0
       │    0x0067d948      f2114480       fmove.s (a1), fp1
       │    0x0067d94c      f22c44a3004c   fmul.s 0x4c(a4), fp1
       │    0x0067d952      f200049a       fneg fp1
       │    0x0067d956      f20000a2       fadd fp0, fp1
       │    0x0067d95a      f22c648000d4   fmove.s fp1, 0xd4(a4)
       │    0x0067d960      f22c44000014   fmove.s 0x14(a4), fp0
       │    0x0067d966      f22c44230068   fmul.s 0x68(a4), fp0
       │    0x0067d96c      f2114480       fmove.s (a1), fp1
       │    0x0067d970      f22c44a30048   fmul.s 0x48(a4), fp1
       │    0x0067d976      f200049a       fneg fp1
       │    0x0067d97a      f20000a2       fadd fp0, fp1
       │    0x0067d97e      f22c648000d8   fmove.s fp1, 0xd8(a4)
       │    0x0067d984      f22c44000014   fmove.s 0x14(a4), fp0
       │    0x0067d98a      f22c44230078   fmul.s 0x78(a4), fp0
       │    0x0067d990      f2114480       fmove.s (a1), fp1
       │    0x0067d994      f22c44a30080   fmul.s 0x80(a4), fp1
       │    0x0067d99a      f200049a       fneg fp1
       │    0x0067d99e      f20000a2       fadd fp0, fp1
       │    0x0067d9a2      f22c648000dc   fmove.s fp1, 0xdc(a4)
       │    0x0067d9a8      f22c44000014   fmove.s 0x14(a4), fp0
       │    0x0067d9ae      f22c44230084   fmul.s 0x84(a4), fp0
       │    0x0067d9b4      f2114480       fmove.s (a1), fp1
       │    0x0067d9b8      f22c44a3008c   fmul.s 0x8c(a4), fp1
       │    0x0067d9be      f200049a       fneg fp1
       │    0x0067d9c2      f20000a2       fadd fp0, fp1
       │    0x0067d9c6      f22c648000e0   fmove.s fp1, 0xe0(a4)
       │    0x0067d9cc      f22c44000090   fmove.s 0x90(a4), fp0
       │    0x0067d9d2      f22c4423009c   fmul.s 0x9c(a4), fp0
       │    0x0067d9d8      f22c44800094   fmove.s 0x94(a4), fp1
       │    0x0067d9de      f22c44a300a4   fmul.s 0xa4(a4), fp1
       │    0x0067d9e4      f200049a       fneg fp1
       │    0x0067d9e8      f20000a2       fadd fp0, fp1
       │    0x0067d9ec      f22c648000e4   fmove.s fp1, 0xe4(a4)
       │    0x0067d9f2      f22c44000090   fmove.s 0x90(a4), fp0
       │    0x0067d9f8      f22c442300ac   fmul.s 0xac(a4), fp0
       │    0x0067d9fe      f22c44800094   fmove.s 0x94(a4), fp1
       │    0x0067da04      f22c44a300b4   fmul.s 0xb4(a4), fp1
       │    0x0067da0a      f200049a       fneg fp1
       │    0x0067da0e      f20000a2       fadd fp0, fp1
       │    0x0067da12      f22c648000e8   fmove.s fp1, 0xe8(a4)
       │    0x0067da18      f22c44000094   fmove.s 0x94(a4), fp0
       │    0x0067da1e      f22c442300bc   fmul.s 0xbc(a4), fp0
       │    0x0067da24      f22c44800090   fmove.s 0x90(a4), fp1
       │    0x0067da2a      f22c44a300c4   fmul.s 0xc4(a4), fp1
       │    0x0067da30      f200049a       fneg fp1
       │    0x0067da34      f20000a2       fadd fp0, fp1
       │    0x0067da38      f22c648000ec   fmove.s fp1, 0xec(a4)
       │    0x0067da3e      f22c44000090   fmove.s 0x90(a4), fp0
       │    0x0067da44      f22c442300a0   fmul.s 0xa0(a4), fp0
       │    0x0067da4a      f22c44800094   fmove.s 0x94(a4), fp1
       │    0x0067da50      f22c44a300a8   fmul.s 0xa8(a4), fp1
       │    0x0067da56      f200049a       fneg fp1
       │    0x0067da5a      f20000a2       fadd fp0, fp1
       │    0x0067da5e      f22c648000f0   fmove.s fp1, 0xf0(a4)
       │    0x0067da64      f22c44000090   fmove.s 0x90(a4), fp0
       │    0x0067da6a      f22c442300b0   fmul.s 0xb0(a4), fp0
       │    0x0067da70      f22c44800094   fmove.s 0x94(a4), fp1
       │    0x0067da76      f22c44a300b8   fmul.s 0xb8(a4), fp1
       │    0x0067da7c      f200049a       fneg fp1
       │    0x0067da80      f20000a2       fadd fp0, fp1
       │    0x0067da84      f22c648000f4   fmove.s fp1, 0xf4(a4)
       │    0x0067da8a      f22c44000094   fmove.s 0x94(a4), fp0
       │    0x0067da90      f22c442300c0   fmul.s 0xc0(a4), fp0
       │    0x0067da96      f22c44800090   fmove.s 0x90(a4), fp1
       │    0x0067da9c      f22c44a300c8   fmul.s 0xc8(a4), fp1
       │    0x0067daa2      f200049a       fneg fp1
       │    0x0067daa6      f20000a2       fadd fp0, fp1
       │    0x0067daaa      f22c648000f8   fmove.s fp1, 0xf8(a4)
       │    0x0067dab0      f22c440000e4   fmove.s 0xe4(a4), fp0
       │    0x0067dab6      f22c442300f8   fmul.s 0xf8(a4), fp0
       │    0x0067dabc      f22c448000f0   fmove.s 0xf0(a4), fp1
       │    0x0067dac2      f22c44a300ec   fmul.s 0xec(a4), fp1
       │    0x0067dac8      f200049a       fneg fp1
       │    0x0067dacc      f20000a2       fadd fp0, fp1
       │    0x0067dad0      f2034400       fmove.s d3, fp0
       │    0x0067dad4      f2000420       fdiv fp1, fp0
       │    0x0067dad8      f22c64000120   fmove.s fp0, 0x120(a4)
       │    0x0067dade      f22c440000f4   fmove.s 0xf4(a4), fp0
       │    0x0067dae4      f22c442300ec   fmul.s 0xec(a4), fp0
       │    0x0067daea      f22c448000e8   fmove.s 0xe8(a4), fp1
       │    0x0067daf0      f22c44a300f8   fmul.s 0xf8(a4), fp1
       │    0x0067daf6      f200049a       fneg fp1
       │    0x0067dafa      f20000a2       fadd fp0, fp1
       │    0x0067dafe      f22c44a30120   fmul.s 0x120(a4), fp1
       │    0x0067db04      f22c64800114   fmove.s fp1, 0x114(a4)
       │    0x0067db0a      f22c440000f4   fmove.s 0xf4(a4), fp0
       │    0x0067db10      f22c442300e4   fmul.s 0xe4(a4), fp0
       │    0x0067db16      f22c448000e8   fmove.s 0xe8(a4), fp1
       │    0x0067db1c      f22c44a300f0   fmul.s 0xf0(a4), fp1
       │    0x0067db22      f200049a       fneg fp1
       │    0x0067db26      f20000a2       fadd fp0, fp1
       │    0x0067db2a      f22c44a30120   fmul.s 0x120(a4), fp1
       │    0x0067db30      f22c64800118   fmove.s fp1, 0x118(a4)
       │    0x0067db36      f22c44000114   fmove.s 0x114(a4), fp0
       │    0x0067db3c      f22c4423009c   fmul.s 0x9c(a4), fp0
       │    0x0067db42      f22c44800118   fmove.s 0x118(a4), fp1
       │    0x0067db48      f22c44a300c4   fmul.s 0xc4(a4), fp1
       │    0x0067db4e      f20000a2       fadd fp0, fp1
       │    0x0067db52      f22c44a200ac   fadd.s 0xac(a4), fp1
       │    0x0067db58      f22c44a30098   fmul.s 0x98(a4), fp1
       │    0x0067db5e      f22c64800100   fmove.s fp1, 0x100(a4)
       │    0x0067db64      f22c44000114   fmove.s 0x114(a4), fp0
       │    0x0067db6a      f22c442300a0   fmul.s 0xa0(a4), fp0
       │    0x0067db70      f22c44800118   fmove.s 0x118(a4), fp1
       │    0x0067db76      f22c44a300c8   fmul.s 0xc8(a4), fp1
       │    0x0067db7c      f20000a2       fadd fp0, fp1
       │    0x0067db80      f22c44a200b0   fadd.s 0xb0(a4), fp1
       │    0x0067db86      f22c44a30098   fmul.s 0x98(a4), fp1
       │    0x0067db8c      f22c6480010c   fmove.s fp1, 0x10c(a4)
       │    0x0067db92      f22c44000114   fmove.s 0x114(a4), fp0
       │    0x0067db98      f22c442300cc   fmul.s 0xcc(a4), fp0
       │    0x0067db9e      f22c44800118   fmove.s 0x118(a4), fp1
       │    0x0067dba4      f22c44a300d4   fmul.s 0xd4(a4), fp1
       │    0x0067dbaa      f20000a2       fadd fp0, fp1
       │    0x0067dbae      f22c44a200dc   fadd.s 0xdc(a4), fp1
       │    0x0067dbb4      f22c44a30098   fmul.s 0x98(a4), fp1
       │    0x0067dbba      f200041a       fneg fp1, fp0
       │    0x0067dbbe      f22c640000fc   fmove.s fp0, 0xfc(a4)
       │    0x0067dbc4      f22c44000114   fmove.s 0x114(a4), fp0
       │    0x0067dbca      f22c442300d0   fmul.s 0xd0(a4), fp0
       │    0x0067dbd0      f22c44800118   fmove.s 0x118(a4), fp1
       │    0x0067dbd6      f22c44a300d8   fmul.s 0xd8(a4), fp1
       │    0x0067dbdc      f20000a2       fadd fp0, fp1
       │    0x0067dbe0      f22c44a200e0   fadd.s 0xe0(a4), fp1
       │    0x0067dbe6      f22c44a30098   fmul.s 0x98(a4), fp1
       │    0x0067dbec      f200041a       fneg fp1, fp0
       │    0x0067dbf0      f22c64000108   fmove.s fp0, 0x108(a4)
       │    0x0067dbf6      f22c44000114   fmove.s 0x114(a4), fp0
       │    0x0067dbfc      f2104423       fmul.s (a0), fp0
       │    0x0067dc00      f22c44800118   fmove.s 0x118(a4), fp1
       │    0x0067dc06      f22844a30004   fmul.s 0x4(a0), fp1
       │    0x0067dc0c      f20000a2       fadd fp0, fp1
       │    0x0067dc10      f20344a2       fadd.s d3, fp1
       │    0x0067dc14      f22c440001d6   fmove.s 0x1d6(a4), fp0
       │    0x0067dc1a      f2000423       fmul fp1, fp0
       │    0x0067dc1e      f22c450000fc   fmove.s 0xfc(a4), fp2
       │    0x0067dc24      f2104523       fmul.s (a0), fp2
       │    0x0067dc28      f200091a       fneg fp2
       │    0x0067dc2c      f2000122       fadd fp0, fp2
       │    0x0067dc30      f22c44000100   fmove.s 0x100(a4), fp0
       │    0x0067dc36      f22844230004   fmul.s 0x4(a0), fp0
       │    0x0067dc3c      f200001a       fneg fp0
       │    0x0067dc40      f2000822       fadd fp2, fp0
       │    0x0067dc44      f22c64000104   fmove.s fp0, 0x104(a4)
       │    0x0067dc4a      f22c44a301da   fmul.s 0x1da(a4), fp1
       │    0x0067dc50      f22c44000108   fmove.s 0x108(a4), fp0
       │    0x0067dc56      f2104423       fmul.s (a0), fp0
       │    0x0067dc5a      f200001a       fneg fp0
       │    0x0067dc5e      f2000422       fadd fp1, fp0
       │    0x0067dc62      f22c4480010c   fmove.s 0x10c(a4), fp1
       │    0x0067dc68      f22844a30004   fmul.s 0x4(a0), fp1
       │    0x0067dc6e      f200049a       fneg fp1
       │    0x0067dc72      f20000a2       fadd fp0, fp1
       │    0x0067dc76      f22c64800110   fmove.s fp1, 0x110(a4)
       │    0x0067dc7c      102c01d4       move.b 0x1d4(a4), d0
       │    0x0067dc80      4880           ext.w d0
       │    0x0067dc82      013ac3c8       btst.l d0, 0x67a04c(pc)
       │┌─< 0x0067dc86      67000146       beq.w 0x67ddce
       ││   0x0067dc8a      594f           subq.w 0x4, a7
       ││   0x0067dc8c      4eb9006338d8   jsr HANDCOM.get_areas_ptr
       ││   0x0067dc92      295701c8       move.l (a7), 0x1c8(a4)
       ││   0x0067dc96      f2014000       fmove.l d1, fp0
       ││   0x0067dc9a      f2276400       fmove.s fp0, -(a7)
       ││   0x0067dc9e      206c01c8       movea.l 0x1c8(a4), a0
       ││   0x0067dca2      2f280024       move.l 0x24(a0), -(a7)
       ││   0x0067dca6      4ebaf732       jsr THREEDMAV.x_out(pc)
       ││   0x0067dcaa      504f           addq.w 0x8, a7
       ││   0x0067dcac      29570158       move.l (a7), 0x158(a4)
       └──> 0x0067dcb0      f2014000       fmove.l d1, fp0
        │   0x0067dcb4      f2276400       fmove.s fp0, -(a7)
        │   0x0067dcb8      206c01c8       movea.l 0x1c8(a4), a0
        │   0x0067dcbc      2f280024       move.l 0x24(a0), -(a7)
        │   0x0067dcc0      4ebaf786       jsr THREEDMAV.y_out(pc)
        │   0x0067dcc4      504f           addq.w 0x8, a7
        │   0x0067dcc6      29570168       move.l (a7), 0x168(a4)
        │   0x0067dcca      f2024000       fmove.l d2, fp0
        │   0x0067dcce      f2276400       fmove.s fp0, -(a7)
        │   0x0067dcd2      206c01c8       movea.l 0x1c8(a4), a0
        │   0x0067dcd6      2f280024       move.l 0x24(a0), -(a7)
        │   0x0067dcda      4ebaf6fe       jsr THREEDMAV.x_out(pc)
        │   0x0067dcde      504f           addq.w 0x8, a7
        │   0x0067dce0      2957015c       move.l (a7), 0x15c(a4)
        │   0x0067dce4      f2024000       fmove.l d2, fp0
        │   0x0067dce8      f2276400       fmove.s fp0, -(a7)
        │   0x0067dcec      206c01c8       movea.l 0x1c8(a4), a0
        │   0x0067dcf0      2f280024       move.l 0x24(a0), -(a7)
        │   0x0067dcf4      4ebaf752       jsr THREEDMAV.y_out(pc)
        │   0x0067dcf8      504f           addq.w 0x8, a7
        │   0x0067dcfa      2957016c       move.l (a7), 0x16c(a4)
        │   0x0067dcfe      f2024000       fmove.l d2, fp0
        │   0x0067dd02      f2276400       fmove.s fp0, -(a7)
        │   0x0067dd06      206c01c8       movea.l 0x1c8(a4), a0
        │   0x0067dd0a      2f280028       move.l 0x28(a0), -(a7)
        │   0x0067dd0e      4ebaf6ca       jsr THREEDMAV.x_out(pc)
        │   0x0067dd12      504f           addq.w 0x8, a7
        │   0x0067dd14      29570160       move.l (a7), 0x160(a4)
        │   0x0067dd18      f2024000       fmove.l d2, fp0
        │   0x0067dd1c      f2276400       fmove.s fp0, -(a7)
        │   0x0067dd20      206c01c8       movea.l 0x1c8(a4), a0
        │   0x0067dd24      2f280028       move.l 0x28(a0), -(a7)
        │   0x0067dd28      4ebaf71e       jsr THREEDMAV.y_out(pc)
        │   0x0067dd2c      504f           addq.w 0x8, a7
        │   0x0067dd2e      29570170       move.l (a7), 0x170(a4)
        │   0x0067dd32      f2014000       fmove.l d1, fp0
        │   0x0067dd36      f2276400       fmove.s fp0, -(a7)
        │   0x0067dd3a      206c01c8       movea.l 0x1c8(a4), a0
        │   0x0067dd3e      2f280028       move.l 0x28(a0), -(a7)
        │   0x0067dd42      4ebaf696       jsr THREEDMAV.x_out(pc)
        │   0x0067dd46      504f           addq.w 0x8, a7
        │   0x0067dd48      29570164       move.l (a7), 0x164(a4)
        │   0x0067dd4c      f2014000       fmove.l d1, fp0
        │   0x0067dd50      f2276400       fmove.s fp0, -(a7)
        │   0x0067dd54      206c01c8       movea.l 0x1c8(a4), a0
        │   0x0067dd58      2f280028       move.l 0x28(a0), -(a7)
        │   0x0067dd5c      4ebaf6ea       jsr THREEDMAV.y_out(pc)
        │   0x0067dd60      504f           addq.w 0x8, a7
        │   0x0067dd62      295f0174       move.l (a7)+, 0x174(a4)
        │   0x0067dd66      2f2c0158       move.l 0x158(a4), -(a7)
        │   0x0067dd6a      2f2c0168       move.l 0x168(a4), -(a7)
        │   0x0067dd6e      2f2c015c       move.l 0x15c(a4), -(a7)
        │   0x0067dd72      2f2c016c       move.l 0x16c(a4), -(a7)
        │   0x0067dd76      2f2c0164       move.l 0x164(a4), -(a7)
        │   0x0067dd7a      2f2c0174       move.l 0x174(a4), -(a7)
        │   0x0067dd7e      2f2c0160       move.l 0x160(a4), -(a7)
        │   0x0067dd82      2f2c0170       move.l 0x170(a4), -(a7)
        │   0x0067dd86      486c0124       pea.l 0x124(a4)
        │   0x0067dd8a      486c012c       pea.l 0x12c(a4)
        │   0x0067dd8e      486c0185       pea.l 0x185(a4)
        │   0x0067dd92      4ebaf570       jsr THREEDMAV.get_intersect(pc)
        │   0x0067dd96      defc0028       adda.w 0x28, a7
        │   0x0067dd9a      2eac0158       move.l 0x158(a4), (a7)
        │   0x0067dd9e      2f2c0168       move.l 0x168(a4), -(a7)
        │   0x0067dda2      2f2c0164       move.l 0x164(a4), -(a7)
        │   0x0067dda6      2f2c0174       move.l 0x174(a4), -(a7)
        │   0x0067ddaa      2f2c015c       move.l 0x15c(a4), -(a7)
        │   0x0067ddae      2f2c016c       move.l 0x16c(a4), -(a7)
        │   0x0067ddb2      2f2c0160       move.l 0x160(a4), -(a7)
        │   0x0067ddb6      2f2c0170       move.l 0x170(a4), -(a7)
        │   0x0067ddba      486c0128       pea.l 0x128(a4)
        │   0x0067ddbe      486c0130       pea.l 0x130(a4)
        │   0x0067ddc2      486c0186       pea.l 0x186(a4)
        │   0x0067ddc6      4ebaf53c       jsr THREEDMAV.get_intersect(pc)
        │   0x0067ddca      defc002c       adda.w 0x2c, a7
        └─> 0x0067ddce      f21fd0f8       fmovem (a7)+, fp0-fp4
            0x0067ddd2      4cdf0f0f       movem.l (a7)+, d0-d3/a0-a3
            0x0067ddd6      4e5e           unlk a6
            0x0067ddd8      4e75           rts
┌ 24: THREEDMAV.calc_pin_transf ();
│           0x0067ddda      4e56fd94       link.w a6, 0xfd94
│           0x0067ddde      bfd5           cmpa.l (a5), a7
│       ┌─< 0x0067dde0      6206           bhi.b 0x67dde8
│       │   0x0067dde2      44fc0002       move.w 0x2, ccr
│       │   0x0067dde6      4e76           trapv
│       └─> 0x0067dde8      defc00a0       adda.w 0xa0, a7
│           0x0067ddec      48e7fcf8       movem.l d0-d5/a0-a4, -(a7)
│           0x0067ddf0      f227e0e7       fmovem fp0-fp2/fp5-fp7, -(a7)
            0x0067ddf4      7201           moveq 0x1, d1
            0x0067ddf6      7400           moveq 0x0, d2
            0x0067ddf8      263c3f800000   move.l 0x3f800000, d3
            0x0067ddfe      7805           moveq 0x5, d4
            0x0067de00      7a20           moveq 0x20, d5
            0x0067de02      49eefe34       lea.l -0x1cc(a6), a4
            0x0067de06      4ebaf6ae       jsr THREEDMAV.first_half(pc)
            0x0067de0a      102e0008       move.b 0x8(a6), d0
            0x0067de0e      4880           ext.w d0
            0x0067de10      013ac23c       btst.l d0, 0x67a04e(pc)
        ┌─< 0x0067de14      67000724       beq.w 0x67e53a
        │   0x0067de18      f22e44000012   fmove.s 0x12(a6), fp0
        │   0x0067de1e      f22e4428000a   fsub.s 0xa(a6), fp0
        │   0x0067de24      f22e44800022   fmove.s 0x22(a6), fp1
        │   0x0067de2a      f22e44a8000a   fsub.s 0xa(a6), fp1
        │   0x0067de30      f20000a3       fmul fp0, fp1
        │   0x0067de34      f22e44000016   fmove.s 0x16(a6), fp0
        │   0x0067de3a      f22e4428000e   fsub.s 0xe(a6), fp0
        │   0x0067de40      f22e45000026   fmove.s 0x26(a6), fp2
        │   0x0067de46      f22e4528000e   fsub.s 0xe(a6), fp2
        │   0x0067de4c      f2000123       fmul fp0, fp2
        │   0x0067de50      f2000522       fadd fp1, fp2
        │   0x0067de54      f2000918       fabs fp2
        │   0x0067de58      f2024538       fcmp.s d2, fp2
        │   0x0067de5c      f299002a       fbf.w 0x67de88
        │   0x0067de60      4a2effb9       tst.b -0x47(a6)
       ┌──< 0x0067de64      6606           bne.b 0x67de6c
       ││   0x0067de66      4a2effba       tst.b -0x46(a6)
      ┌───< 0x0067de6a      671c           beq.b 0x67de88
      │└──> 0x0067de6c      f22e4400000a   fmove.s 0xa(a6), fp0
      │ │   0x0067de72      f23c44283a83.  fsub.s 0, fp0
      │ │   0x0067de7a      f22e6400000a   fmove.s fp0, 0xa(a6)
      │ │   0x0067de80      49eefe34       lea.l -0x1cc(a6), a4
      │ │   0x0067de84      4ebaf630       jsr THREEDMAV.first_half(pc)
      └───> 0x0067de88      4a2effb9       tst.b -0x47(a6)
       ┌──< 0x0067de8c      66000160       bne.w 0x67dfee
       ││   0x0067de90      4a2effba       tst.b -0x46(a6)
      ┌───< 0x0067de94      66000158       bne.w 0x67dfee
      │││   0x0067de98      f22e4400ff58   fmove.s -0xa8(a6), fp0
      │││   0x0067de9e      f22e4428ff5c   fsub.s -0xa4(a6), fp0
      │││   0x0067dea4      f2000080       fmove fp0, fp1
      │││   0x0067dea8      f20000a3       fmul fp0, fp1
      │││   0x0067deac      f22e4400ff60   fmove.s -0xa0(a6), fp0
      │││   0x0067deb2      f22e4428ff64   fsub.s -0x9c(a6), fp0
      │││   0x0067deb8      f2000100       fmove fp0, fp2
      │││   0x0067debc      f2000123       fmul fp0, fp2
      │││   0x0067dec0      f2000522       fadd fp1, fp2
      │││   0x0067dec4      f23c45233e80.  fmul.s 0, fp2
      │││   0x0067decc      f22e6500ff68   fmove.s fp2, -0x98(a6)
      │││   0x0067ded2      f22e4700ff58   fmove.s -0xa8(a6), fp6
      │││   0x0067ded8      f22e4722ff5c   fadd.s -0xa4(a6), fp6
      │││   0x0067dede      f23c47233f00.  fmul.s 0, fp6
      │││   0x0067dee6      f22e4680ff60   fmove.s -0xa0(a6), fp5
      │││   0x0067deec      f22e46a2ff64   fadd.s -0x9c(a6), fp5
      │││   0x0067def2      f23c46a33f00.  fmul.s 0, fp5
      │││   0x0067defa      f2001800       fmove fp6, fp0
      │││   0x0067defe      f2000023       fmul fp0, fp0
      │││   0x0067df02      f22e6400ffac   fmove.s fp0, -0x54(a6)
      │││   0x0067df08      f2001400       fmove fp5, fp0
      │││   0x0067df0c      f2000023       fmul fp0, fp0
      │││   0x0067df10      f22e6400ffb0   fmove.s fp0, -0x50(a6)
      │││   0x0067df16      f22e4780ff68   fmove.s -0x98(a6), fp7
      │││   0x0067df1c      f20143a8       fsub.l d1, fp7
      │││   0x0067df20      f22e4400ffac   fmove.s -0x54(a6), fp0
      │││   0x0067df26      f22e4422ffb0   fadd.s -0x50(a6), fp0
      │││   0x0067df2c      f20003b8       fcmp fp0, fp7
      │││   0x0067df30      f29c0048       fbf.w 0x67df7a
      │││   0x0067df34      42aeffd0       clr.l -0x30(a6)
      │││   0x0067df38      42aeffd4       clr.l -0x2c(a6)
      │││   0x0067df3c      f22e4480ff30   fmove.s -0xd0(a6), fp1
      │││   0x0067df42      f22e44a3ff34   fmul.s -0xcc(a6), fp1
      │││   0x0067df48      f22e4500ff3c   fmove.s -0xc4(a6), fp2
      │││   0x0067df4e      f22e4523ff40   fmul.s -0xc0(a6), fp2
      │││   0x0067df54      f2000522       fadd fp1, fp2
      │││   0x0067df58      f22e4480ff48   fmove.s -0xb8(a6), fp1
      │││   0x0067df5e      f22e44a3ff4c   fmul.s -0xb4(a6), fp1
      │││   0x0067df64      f2000520       fdiv fp1, fp2
      │││   0x0067df68      f2000918       fabs fp2
      │││   0x0067df6c      f2000884       fsqrt fp2, fp1
     ┌────> 0x0067df70      f22e6480ffcc   fmove.s fp1, -0x34(a6)
    ┌─────< 0x0067df76      60000138       bra.w 0x67e0b0
    │╎│││   0x0067df7a      f20247b8       fcmp.s d2, fp7
    │╎│││   0x0067df7e      f29c0056       fbf.w 0x67dfd6
    │╎│││   0x0067df82      f2000084       fsqrt fp0, fp1
    │╎│││   0x0067df86      f22e6480ff74   fmove.s fp1, -0x8c(a6)
    │╎│││   0x0067df8c      f2001c84       fsqrt fp7, fp1
    │╎│││   0x0067df90      f22e44a0ff74   fdiv.s -0x8c(a6), fp1
    │╎│││   0x0067df96      f200049a       fneg fp1
    │╎│││   0x0067df9a      f20344a2       fadd.s d3, fp1
    │╎│││   0x0067df9e      f2000498       fabs fp1
    │╎│││   0x0067dfa2      f22e6480ff78   fmove.s fp1, -0x88(a6)
    │╎│││   0x0067dfa8      f2001880       fmove fp6, fp1
    │╎│││   0x0067dfac      f22e44a3ff78   fmul.s -0x88(a6), fp1
    │╎│││   0x0067dfb2      f22e6480ffd0   fmove.s fp1, -0x30(a6)
    │╎│││   0x0067dfb8      f2001480       fmove fp5, fp1
    │╎│││   0x0067dfbc      f22e44a3ff78   fmul.s -0x88(a6), fp1
    │╎│││   0x0067dfc2      f22e6480ffd4   fmove.s fp1, -0x2c(a6)
    │╎│││   0x0067dfc8      f2014080       fmove.l d1, fp1
    │╎│││   0x0067dfcc      f22e6480ffcc   fmove.s fp1, -0x34(a6)
   ┌──────< 0x0067dfd2      600000dc       bra.w 0x67e0b0
   ││╎│││   0x0067dfd6      f22e6700ffd0   fmove.s fp6, -0x30(a6)
   ││╎│││   0x0067dfdc      f22e6680ffd4   fmove.s fp5, -0x2c(a6)
   ││╎│││   0x0067dfe2      f22e4498ff68   fabs.s -0x98(a6), fp1
   ││╎│││   0x0067dfe8      f2000484       fsqrt fp1
   ││└────< 0x0067dfec      6082           bra.b 0x67df70
   ││ └└──> 0x0067dfee      4a2effb9       tst.b -0x47(a6)
   ││  ┌──< 0x0067dff2      676c           beq.b 0x67e060
   ││  ││   0x0067dff4      4a2effba       tst.b -0x46(a6)
   ││ ┌───< 0x0067dff8      6666           bne.b 0x67e060
   ││ │││   0x0067dffa      f22e47800012   fmove.s 0x12(a6), fp7
   ││ │││   0x0067e000      f22e47a8000a   fsub.s 0xa(a6), fp7
   ││ │││   0x0067e006      f22e47000016   fmove.s 0x16(a6), fp6
   ││ │││   0x0067e00c      f22e4728000e   fsub.s 0xe(a6), fp6
   ││ │││   0x0067e012      f2001e80       fmove fp7, fp5
   ││ │││   0x0067e016      f22e46a3ff5c   fmul.s -0xa4(a6), fp5
   ││ │││   0x0067e01c      f2001800       fmove fp6, fp0
   ││ │││   0x0067e020      f22e4423ff64   fmul.s -0x9c(a6), fp0
   ││┌────> 0x0067e026      f20002a2       fadd fp0, fp5
   ││╎│││   0x0067e02a      f2001c00       fmove fp7, fp0
   ││╎│││   0x0067e02e      f2001c23       fmul fp7, fp0
   ││╎│││   0x0067e032      f2001880       fmove fp6, fp1
   ││╎│││   0x0067e036      f20018a3       fmul fp6, fp1
   ││╎│││   0x0067e03a      f20000a2       fadd fp0, fp1
   ││╎│││   0x0067e03e      f20006a0       fdiv fp1, fp5
   ││╎│││   0x0067e042      f2001c00       fmove fp7, fp0
   ││╎│││   0x0067e046      f2001423       fmul fp5, fp0
   ││╎│││   0x0067e04a      f22e6400ffd0   fmove.s fp0, -0x30(a6)
   ││╎│││   0x0067e050      f2001800       fmove fp6, fp0
   ││╎│││   0x0067e054      f2001423       fmul fp5, fp0
   ││╎│││   0x0067e058      f22e6400ffd4   fmove.s fp0, -0x2c(a6)
  ┌───────< 0x0067e05e      6042           bra.b 0x67e0a2
  │││╎└└──> 0x0067e060      4a2effba       tst.b -0x46(a6)
  │││╎ ┌──< 0x0067e064      6734           beq.b 0x67e09a
  │││╎ ││   0x0067e066      4a2effb9       tst.b -0x47(a6)
  │││╎┌───< 0x0067e06a      662e           bne.b 0x67e09a
  │││╎│││   0x0067e06c      f22e47800012   fmove.s 0x12(a6), fp7
  │││╎│││   0x0067e072      f22e47a8001a   fsub.s 0x1a(a6), fp7
  │││╎│││   0x0067e078      f22e47000016   fmove.s 0x16(a6), fp6
  │││╎│││   0x0067e07e      f22e4728001e   fsub.s 0x1e(a6), fp6
  │││╎│││   0x0067e084      f2001e80       fmove fp7, fp5
  │││╎│││   0x0067e088      f22e46a3ff58   fmul.s -0xa8(a6), fp5
  │││╎│││   0x0067e08e      f2001800       fmove fp6, fp0
  │││╎│││   0x0067e092      f22e4423ff60   fmul.s -0xa0(a6), fp0
  │││└────< 0x0067e098      608c           bra.b 0x67e026
  │││ └└──> 0x0067e09a      42aeffd0       clr.l -0x30(a6)
  │││   │   0x0067e09e      42aeffd4       clr.l -0x2c(a6)
  └───────> 0x0067e0a2      f23c40000000.  fmove.l 0xc, fp0
   ││   │   0x0067e0aa      f22e6400ffcc   fmove.s fp0, -0x34(a6)
   └└─────> 0x0067e0b0      f22e44000022   fmove.s 0x22(a6), fp0
        │   0x0067e0b6      f22e4428000a   fsub.s 0xa(a6), fp0
        │   0x0067e0bc      f22e6400fe4c   fmove.s fp0, -0x1b4(a6)
        │   0x0067e0c2      f22e46800012   fmove.s 0x12(a6), fp5
        │   0x0067e0c8      f22e46a8000a   fsub.s 0xa(a6), fp5
        │   0x0067e0ce      f22e44000012   fmove.s 0x12(a6), fp0
        │   0x0067e0d4      f22e4428001a   fsub.s 0x1a(a6), fp0
        │   0x0067e0da      f22e6400fe54   fmove.s fp0, -0x1ac(a6)
        │   0x0067e0e0      f22e44000022   fmove.s 0x22(a6), fp0
        │   0x0067e0e6      f22e4428001a   fsub.s 0x1a(a6), fp0
        │   0x0067e0ec      f22e6400fe58   fmove.s fp0, -0x1a8(a6)
        │   0x0067e0f2      f22e44000026   fmove.s 0x26(a6), fp0
        │   0x0067e0f8      f22e4428000e   fsub.s 0xe(a6), fp0
        │   0x0067e0fe      f22e6400fe5c   fmove.s fp0, -0x1a4(a6)
        │   0x0067e104      f22e44000016   fmove.s 0x16(a6), fp0
        │   0x0067e10a      f22e4428000e   fsub.s 0xe(a6), fp0
        │   0x0067e110      f22e6400fe60   fmove.s fp0, -0x1a0(a6)
        │   0x0067e116      f22e44000016   fmove.s 0x16(a6), fp0
        │   0x0067e11c      f22e4428001e   fsub.s 0x1e(a6), fp0
        │   0x0067e122      f22e6400fe64   fmove.s fp0, -0x19c(a6)
        │   0x0067e128      f22e44000026   fmove.s 0x26(a6), fp0
        │   0x0067e12e      f22e4428001e   fsub.s 0x1e(a6), fp0
        │   0x0067e134      f22e6400fe68   fmove.s fp0, -0x198(a6)
        │   0x0067e13a      206e002a       movea.l 0x2a(a6), a0
        │   0x0067e13e      f22844000008   fmove.s 0x8(a0), fp0
        │   0x0067e144      f2104428       fsub.s (a0), fp0
        │   0x0067e148      f2034480       fmove.s d3, fp1
        │   0x0067e14c      f20000a0       fdiv fp0, fp1
        │   0x0067e150      f2000780       fmove fp1, fp7
        │   0x0067e154      f2001fa3       fmul fp7, fp7
        │   0x0067e158      f2001700       fmove fp5, fp6
        │   0x0067e15c      f2001b23       fmul fp6, fp6
        │   0x0067e160      f22e4400fe60   fmove.s -0x1a0(a6), fp0
        │   0x0067e166      f2000023       fmul fp0, fp0
        │   0x0067e16a      f2000322       fadd fp0, fp6
        │   0x0067e16e      f2001f23       fmul fp7, fp6
        │   0x0067e172      f22e4680fe58   fmove.s -0x1a8(a6), fp5
        │   0x0067e178      f20016a3       fmul fp5, fp5
        │   0x0067e17c      f22e4400fe68   fmove.s -0x198(a6), fp0
        │   0x0067e182      f2000023       fmul fp0, fp0
        │   0x0067e186      f20002a2       fadd fp0, fp5
        │   0x0067e18a      f2001ea3       fmul fp7, fp5
        │   0x0067e18e      f22844000014   fmove.s 0x14(a0), fp0
        │   0x0067e194      f2284428000c   fsub.s 0xc(a0), fp0
        │   0x0067e19a      f2034480       fmove.s d3, fp1
        │   0x0067e19e      f20000a0       fdiv fp0, fp1
        │   0x0067e1a2      f2000780       fmove fp1, fp7
        │   0x0067e1a6      f2001fa3       fmul fp7, fp7
        │   0x0067e1aa      f22e4400fe4c   fmove.s -0x1b4(a6), fp0
        │   0x0067e1b0      f2000023       fmul fp0, fp0
        │   0x0067e1b4      f22e4480fe5c   fmove.s -0x1a4(a6), fp1
        │   0x0067e1ba      f20004a3       fmul fp1, fp1
        │   0x0067e1be      f20000a2       fadd fp0, fp1
        │   0x0067e1c2      f2001ca3       fmul fp7, fp1
        │   0x0067e1c6      f22e6480fe74   fmove.s fp1, -0x18c(a6)
        │   0x0067e1cc      f22e4400fe54   fmove.s -0x1ac(a6), fp0
        │   0x0067e1d2      f2000023       fmul fp0, fp0
        │   0x0067e1d6      f22e4480fe64   fmove.s -0x19c(a6), fp1
        │   0x0067e1dc      f20004a3       fmul fp1, fp1
        │   0x0067e1e0      f20000a2       fadd fp0, fp1
        │   0x0067e1e4      f2001ca3       fmul fp7, fp1
        │   0x0067e1e8      f22e6480fe78   fmove.s fp1, -0x188(a6)
        │   0x0067e1ee      f2001738       fcmp fp5, fp6
        │   0x0067e1f2      f29d0008       fbf.w 0x67e1fc
        │   0x0067e1f6      f2001b80       fmove fp6, fp7
       ┌──< 0x0067e1fa      6004           bra.b 0x67e200
       ││   0x0067e1fc      f2001780       fmove fp5, fp7
       └──> 0x0067e200      f22e47b8fe74   fcmp.s -0x18c(a6), fp7
        │   0x0067e206      f29b0008       fbf.w 0x67e210
        │   0x0067e20a      f22e4780fe74   fmove.s -0x18c(a6), fp7
        │   0x0067e210      f22e47b8fe78   fcmp.s -0x188(a6), fp7
        │   0x0067e216      f29b0008       fbf.w 0x67e220
        │   0x0067e21a      f22e4780fe78   fmove.s -0x188(a6), fp7
        │   0x0067e220      f2001c04       fsqrt fp7, fp0
        │   0x0067e224      f2034480       fmove.s d3, fp1
        │   0x0067e228      f20000a0       fdiv fp0, fp1
        │   0x0067e22c      f20344a8       fsub.s d3, fp1
        │   0x0067e230      f22e44a3ffcc   fmul.s -0x34(a6), fp1
        │   0x0067e236      f22e6480ff50   fmove.s fp1, -0xb0(a6)
        │   0x0067e23c      206e002e       movea.l 0x2e(a6), a0
        │   0x0067e240      20aeffcc       move.l -0x34(a6), (a0)
        │   0x0067e244      f22e4400ffd0   fmove.s -0x30(a6), fp0
        │   0x0067e24a      f22e4420ffcc   fdiv.s -0x34(a6), fp0
        │   0x0067e250      f22864000004   fmove.s fp0, 0x4(a0)
        │   0x0067e256      f22e4400ffd4   fmove.s -0x2c(a6), fp0
        │   0x0067e25c      f22e4420ffcc   fdiv.s -0x34(a6), fp0
        │   0x0067e262      f22864000008   fmove.s fp0, 0x8(a0)
        │   0x0067e268      226e0036       movea.l 0x36(a6), a1
        │   0x0067e26c      2449           movea.l a1, a2
        │   0x0067e26e      47fabd4e       lea.l 0x679fbe(pc), a3
        │   0x0067e272      7011           moveq 0x11, d0
       ┌──> 0x0067e274      24db           move.l (a3)+, (a2)+
       └──< 0x0067e276      51c8fffc       dbra d0, 0x67e274
        │   0x0067e27a      246e0032       movea.l 0x32(a6), a2
        │   0x0067e27e      47fabd3e       lea.l 0x679fbe(pc), a3
        │   0x0067e282      7011           moveq 0x11, d0
       ┌──> 0x0067e284      24db           move.l (a3)+, (a2)+
       └──< 0x0067e286      51c8fffc       dbra d0, 0x67e284
        │   0x0067e28a      f2014000       fmove.l d1, fp0
        │   0x0067e28e      f22e4420ffcc   fdiv.s -0x34(a6), fp0
        │   0x0067e294      f22e6400ffbc   fmove.s fp0, -0x44(a6)
        │   0x0067e29a      f22e4700ff50   fmove.s -0xb0(a6), fp6
        │   0x0067e2a0      f22e4722ffcc   fadd.s -0x34(a6), fp6
        │   0x0067e2a6      f2001a80       fmove fp6, fp5
        │   0x0067e2aa      f22e46a3ffbc   fmul.s -0x44(a6), fp5
        │   0x0067e2b0      f22e4400ffd0   fmove.s -0x30(a6), fp0
        │   0x0067e2b6      f22e4423ff48   fmul.s -0xb8(a6), fp0
        │   0x0067e2bc      f200001a       fneg fp0
        │   0x0067e2c0      f22e4422ff30   fadd.s -0xd0(a6), fp0
        │   0x0067e2c6      f2001423       fmul fp5, fp0
        │   0x0067e2ca      f2116400       fmove.s fp0, (a1)
        │   0x0067e2ce      f22e4400ffd0   fmove.s -0x30(a6), fp0
        │   0x0067e2d4      f22e4423ff4c   fmul.s -0xb4(a6), fp0
        │   0x0067e2da      f200001a       fneg fp0
        │   0x0067e2de      f22e4422ff34   fadd.s -0xcc(a6), fp0
        │   0x0067e2e4      f2001423       fmul fp5, fp0
        │   0x0067e2e8      f22964000004   fmove.s fp0, 0x4(a1)
        │   0x0067e2ee      f22e4400ff38   fmove.s -0xc8(a6), fp0
        │   0x0067e2f4      f2001823       fmul fp6, fp0
        │   0x0067e2f8      f22e4480ff50   fmove.s -0xb0(a6), fp1
        │   0x0067e2fe      f22e44a3ffd0   fmul.s -0x30(a6), fp1
        │   0x0067e304      f200049a       fneg fp1
        │   0x0067e308      f20000a2       fadd fp0, fp1
        │   0x0067e30c      f22e44a3ffbc   fmul.s -0x44(a6), fp1
        │   0x0067e312      f2296480000c   fmove.s fp1, 0xc(a1)
        │   0x0067e318      f22e4400ffd4   fmove.s -0x2c(a6), fp0
        │   0x0067e31e      f22e4423ff48   fmul.s -0xb8(a6), fp0
        │   0x0067e324      f200001a       fneg fp0
        │   0x0067e328      f22e4422ff3c   fadd.s -0xc4(a6), fp0
        │   0x0067e32e      f2001423       fmul fp5, fp0
        │   0x0067e332      f22964000010   fmove.s fp0, 0x10(a1)
        │   0x0067e338      f22e4400ffd4   fmove.s -0x2c(a6), fp0
        │   0x0067e33e      f22e4423ff4c   fmul.s -0xb4(a6), fp0
        │   0x0067e344      f200001a       fneg fp0
        │   0x0067e348      f22e4422ff40   fadd.s -0xc0(a6), fp0
        │   0x0067e34e      f2001423       fmul fp5, fp0
        │   0x0067e352      f22964000014   fmove.s fp0, 0x14(a1)
        │   0x0067e358      f22e4400ff44   fmove.s -0xbc(a6), fp0
        │   0x0067e35e      f2001823       fmul fp6, fp0
        │   0x0067e362      f22e4480ff50   fmove.s -0xb0(a6), fp1
        │   0x0067e368      f22e44a3ffd4   fmul.s -0x2c(a6), fp1
        │   0x0067e36e      f200049a       fneg fp1
        │   0x0067e372      f20000a2       fadd fp0, fp1
        │   0x0067e376      f22e44a3ffbc   fmul.s -0x44(a6), fp1
        │   0x0067e37c      f2296480001c   fmove.s fp1, 0x1c(a1)
        │   0x0067e382      f22e4400ff48   fmove.s -0xb8(a6), fp0
        │   0x0067e388      f2001823       fmul fp6, fp0
        │   0x0067e38c      f22964000020   fmove.s fp0, 0x20(a1)
        │   0x0067e392      f22e4400ff4c   fmove.s -0xb4(a6), fp0
        │   0x0067e398      f2001823       fmul fp6, fp0
        │   0x0067e39c      f22964000024   fmove.s fp0, 0x24(a1)
        │   0x0067e3a2      236eff50002c   move.l -0xb0(a6), 0x2c(a1)
        │   0x0067e3a8      102e0008       move.b 0x8(a6), d0
        │   0x0067e3ac      0c000002       cmpi.b 0x2, d0
       ┌──< 0x0067e3b0      6600024e       bne.w 0x67e600
       ││   0x0067e3b4      2d69000cffd8   move.l 0xc(a1), -0x28(a6)
       ││   0x0067e3ba      2d69001cffdc   move.l 0x1c(a1), -0x24(a6)
       ││   0x0067e3c0      2d69002cffe0   move.l 0x2c(a1), -0x20(a6)
       ││   0x0067e3c6      f2114400       fmove.s (a1), fp0
       ││   0x0067e3ca      f2000023       fmul fp0, fp0
       ││   0x0067e3ce      f22944800010   fmove.s 0x10(a1), fp1
       ││   0x0067e3d4      f20004a3       fmul fp1, fp1
       ││   0x0067e3d8      f20000a2       fadd fp0, fp1
       ││   0x0067e3dc      f22944000020   fmove.s 0x20(a1), fp0
       ││   0x0067e3e2      f2000023       fmul fp0, fp0
       ││   0x0067e3e6      f2000422       fadd fp1, fp0
       ││   0x0067e3ea      f2000004       fsqrt fp0
       ││   0x0067e3ee      f22e6400fff0   fmove.s fp0, -0x10(a6)
       ││   0x0067e3f4      f22944000004   fmove.s 0x4(a1), fp0
       ││   0x0067e3fa      f2000023       fmul fp0, fp0
       ││   0x0067e3fe      f22944800014   fmove.s 0x14(a1), fp1
       ││   0x0067e404      f20004a3       fmul fp1, fp1
       ││   0x0067e408      f20000a2       fadd fp0, fp1
       ││   0x0067e40c      f22944000024   fmove.s 0x24(a1), fp0
       ││   0x0067e412      f2000023       fmul fp0, fp0
       ││   0x0067e416      f2000422       fadd fp1, fp0
       ││   0x0067e41a      f2000004       fsqrt fp0
       ││   0x0067e41e      f22e6400fff4   fmove.s fp0, -0xc(a6)
       ││   0x0067e424      f2114400       fmove.s (a1), fp0
       ││   0x0067e428      f22e4420fff0   fdiv.s -0x10(a6), fp0
       ││   0x0067e42e      f2116400       fmove.s fp0, (a1)
       ││   0x0067e432      f22944000010   fmove.s 0x10(a1), fp0
       ││   0x0067e438      f22e4420fff0   fdiv.s -0x10(a6), fp0
       ││   0x0067e43e      f22964000010   fmove.s fp0, 0x10(a1)
       ││   0x0067e444      f22944000020   fmove.s 0x20(a1), fp0
       ││   0x0067e44a      f22e4420fff0   fdiv.s -0x10(a6), fp0
       ││   0x0067e450      f22964000020   fmove.s fp0, 0x20(a1)
       ││   0x0067e456      f22944000004   fmove.s 0x4(a1), fp0
       ││   0x0067e45c      f22e4420fff4   fdiv.s -0xc(a6), fp0
       ││   0x0067e462      f22964000004   fmove.s fp0, 0x4(a1)
       ││   0x0067e468      f22944000014   fmove.s 0x14(a1), fp0
       ││   0x0067e46e      f22e4420fff4   fdiv.s -0xc(a6), fp0
       ││   0x0067e474      f22964000014   fmove.s fp0, 0x14(a1)
       ││   0x0067e47a      f22944000024   fmove.s 0x24(a1), fp0
       ││   0x0067e480      f22e4420fff4   fdiv.s -0xc(a6), fp0
       ││   0x0067e486      f22964000024   fmove.s fp0, 0x24(a1)
       ││   0x0067e48c      2d6efff0fff8   move.l -0x10(a6), -0x8(a6)
       ││   0x0067e492      f2014000       fmove.l d1, fp0
       ││   0x0067e496      f22e4420003a   fdiv.s 0x3a(a6), fp0
       ││   0x0067e49c      f22e6400fff0   fmove.s fp0, -0x10(a6)
       ││   0x0067e4a2      f22e4400fff8   fmove.s -0x8(a6), fp0
       ││   0x0067e4a8      f22e4423003e   fmul.s 0x3e(a6), fp0
       ││   0x0067e4ae      f22e4480fff4   fmove.s -0xc(a6), fp1
       ││   0x0067e4b4      f20000a0       fdiv fp0, fp1
       ││   0x0067e4b8      f22e6480fff4   fmove.s fp1, -0xc(a6)
       ││   0x0067e4be      4851           pea.l (a1)
       ││   0x0067e4c0      1f04           move.b d4, -(a7)
       ││   0x0067e4c2      486effe4       pea.l -0x1c(a6)
       ││   0x0067e4c6      4ebae93e       jsr THREEDMAV.extract_spins(pc)
       ││   0x0067e4ca      defc000a       adda.w 0xa, a7
       ││   0x0067e4ce      2449           movea.l a1, a2
       ││   0x0067e4d0      47fabaec       lea.l 0x679fbe(pc), a3
       ││   0x0067e4d4      7011           moveq 0x11, d0
      ┌───> 0x0067e4d6      24db           move.l (a3)+, (a2)+
      └───< 0x0067e4d8      51c8fffc       dbra d0, 0x67e4d6
       ││   0x0067e4dc      4851           pea.l (a1)
       ││   0x0067e4de      4851           pea.l (a1)
       ││   0x0067e4e0      4851           pea.l (a1)
       ││   0x0067e4e2      4850           pea.l (a0)
       ││   0x0067e4e4      1f01           move.b d1, -(a7)
       ││   0x0067e4e6      1f04           move.b d4, -(a7)
       ││   0x0067e4e8      2f2effec       move.l -0x14(a6), -(a7)
       ││   0x0067e4ec      2f2effe8       move.l -0x18(a6), -(a7)
       ││   0x0067e4f0      2f2effe4       move.l -0x1c(a6), -(a7)
       ││   0x0067e4f4      4ebaddf8       jsr THREEDMAV.do_spin(pc)
       ││   0x0067e4f8      dec5           adda.w d5, a7
       ││   0x0067e4fa      4851           pea.l (a1)
       ││   0x0067e4fc      4851           pea.l (a1)
       ││   0x0067e4fe      4851           pea.l (a1)
       ││   0x0067e500      4850           pea.l (a0)
       ││   0x0067e502      1f01           move.b d1, -(a7)
       ││   0x0067e504      1f04           move.b d4, -(a7)
       ││   0x0067e506      2f2effe0       move.l -0x20(a6), -(a7)
       ││   0x0067e50a      2f2effdc       move.l -0x24(a6), -(a7)
       ││   0x0067e50e      2f2effd8       move.l -0x28(a6), -(a7)
       ││   0x0067e512      4ebac63a       jsr THREEDMAV.do_pos(pc)
       ││   0x0067e516      dec5           adda.w d5, a7
       ││   0x0067e518      4851           pea.l (a1)
       ││   0x0067e51a      4851           pea.l (a1)
       ││   0x0067e51c      4851           pea.l (a1)
       ││   0x0067e51e      4850           pea.l (a0)
       ││   0x0067e520      1f01           move.b d1, -(a7)
       ││   0x0067e522      1f04           move.b d4, -(a7)
       ││   0x0067e524      2f2efff8       move.l -0x8(a6), -(a7)
       ││   0x0067e528      2f2efff4       move.l -0xc(a6), -(a7)
       ││   0x0067e52c      2f2efff0       move.l -0x10(a6), -(a7)
       ││   0x0067e530      4ebae392       jsr THREEDMAV.do_size(pc)
       ││   0x0067e534      dec5           adda.w d5, a7
      ┌───< 0x0067e536      600000c8       bra.w 0x67e600
      ││└─> 0x0067e53a      206e002e       movea.l 0x2e(a6), a0
      ││    0x0067e53e      f2014000       fmove.l d1, fp0
      ││    0x0067e542      f2106400       fmove.s fp0, (a0)
      ││    0x0067e546      f2024000       fmove.l d2, fp0
      ││    0x0067e54a      f22864000004   fmove.s fp0, 0x4(a0)
      ││    0x0067e550      f2024000       fmove.l d2, fp0
      ││    0x0067e554      f22864000008   fmove.s fp0, 0x8(a0)
      ││    0x0067e55a      206e0032       movea.l 0x32(a6), a0
      ││    0x0067e55e      43faba5e       lea.l 0x679fbe(pc), a1
      ││    0x0067e562      7011           moveq 0x11, d0
      ││┌─> 0x0067e564      20d9           move.l (a1)+, (a0)+
      ││└─< 0x0067e566      51c8fffc       dbra d0, 0x67e564
      ││    0x0067e56a      206e0036       movea.l 0x36(a6), a0
      ││    0x0067e56e      20aeff30       move.l -0xd0(a6), (a0)
      ││    0x0067e572      216eff340004   move.l -0xcc(a6), 0x4(a0)
      ││    0x0067e578      f2024000       fmove.l d2, fp0
      ││    0x0067e57c      f22864000008   fmove.s fp0, 0x8(a0)
      ││    0x0067e582      216eff38000c   move.l -0xc8(a6), 0xc(a0)
      ││    0x0067e588      216eff3c0010   move.l -0xc4(a6), 0x10(a0)
      ││    0x0067e58e      216eff400014   move.l -0xc0(a6), 0x14(a0)
      ││    0x0067e594      f2024000       fmove.l d2, fp0
      ││    0x0067e598      f22864000018   fmove.s fp0, 0x18(a0)
      ││    0x0067e59e      216eff44001c   move.l -0xbc(a6), 0x1c(a0)
      ││    0x0067e5a4      216eff480020   move.l -0xb8(a6), 0x20(a0)
      ││    0x0067e5aa      216eff4c0024   move.l -0xb4(a6), 0x24(a0)
      ││    0x0067e5b0      f2024000       fmove.l d2, fp0
      ││    0x0067e5b4      f22864000028   fmove.s fp0, 0x28(a0)
      ││    0x0067e5ba      f2024000       fmove.l d2, fp0
      ││    0x0067e5be      f2286400002c   fmove.s fp0, 0x2c(a0)
      ││    0x0067e5c4      217ababa003c   move.l 0x67a080(pc), 0x3c(a0)
      ││    0x0067e5ca      217abab80040   move.l 0x67a084(pc), 0x40(a0)
      ││    0x0067e5d0      217abab60044   move.l 0x67a088(pc), 0x44(a0)
      ││    0x0067e5d6      f2014000       fmove.l d1, fp0
      ││    0x0067e5da      f22864000038   fmove.s fp0, 0x38(a0)
      ││    0x0067e5e0      f2014000       fmove.l d1, fp0
      ││    0x0067e5e4      f22e4420003a   fdiv.s 0x3a(a6), fp0
      ││    0x0067e5ea      f22864000030   fmove.s fp0, 0x30(a0)
      ││    0x0067e5f0      f2014000       fmove.l d1, fp0
      ││    0x0067e5f4      f22e4420003e   fdiv.s 0x3e(a6), fp0
      ││    0x0067e5fa      f22864000034   fmove.s fp0, 0x34(a0)
      └└──> 0x0067e600      f21fd0e7       fmovem (a7)+, fp0-fp2/fp5-fp7
            0x0067e604      4cdf1f3f       movem.l (a7)+, d0-d5/a0-a4
            0x0067e608      4e5e           unlk a6
            0x0067e60a      4e75           rts
┌ 24: THREEDMAV.inv_transform_p ();
│           0x0067e60c      4e56ff56       link.w a6, 0xff56
│           0x0067e610      bfd5           cmpa.l (a5), a7
│       ┌─< 0x0067e612      6206           bhi.b 0x67e61a
│       │   0x0067e614      44fc0002       move.w 0x2, ccr
│       │   0x0067e618      4e76           trapv
│       └─> 0x0067e61a      defc0080       adda.w 0x80, a7
│           0x0067e61e      48e781f0       movem.l d0/d7/a0-a3, -(a7)
│           0x0067e622      f227e0e3       fmovem fp0-fp1/fp5-fp7, -(a7)
            0x0067e626      206e000c       movea.l 0xc(a6), a0
            0x0067e62a      226e0008       movea.l 0x8(a6), a1
            0x0067e62e      f22847000014   fmove.s 0x14(a0), fp6
            0x0067e634      f2284723002c   fmul.s 0x2c(a0), fp6
            0x0067e63a      f2114720       fdiv.s (a1), fp6
            0x0067e63e      f22847220014   fadd.s 0x14(a0), fp6
            0x0067e644      f2284400001c   fmove.s 0x1c(a0), fp0
            0x0067e64a      f22844230024   fmul.s 0x24(a0), fp0
            0x0067e650      f2114420       fdiv.s (a1), fp0
            0x0067e654      f2000328       fsub fp0, fp6
            0x0067e658      f2284680000c   fmove.s 0xc(a0), fp5
            0x0067e65e      f22846a30024   fmul.s 0x24(a0), fp5
            0x0067e664      f21146a0       fdiv.s (a1), fp5
            0x0067e668      f22844000004   fmove.s 0x4(a0), fp0
            0x0067e66e      f2284423002c   fmul.s 0x2c(a0), fp0
            0x0067e674      f2114420       fdiv.s (a1), fp0
            0x0067e678      f20002a8       fsub fp0, fp5
            0x0067e67c      f22846a80004   fsub.s 0x4(a0), fp5
            0x0067e682      f2284400001c   fmove.s 0x1c(a0), fp0
            0x0067e688      f22844230004   fmul.s 0x4(a0), fp0
            0x0067e68e      f2284480000c   fmove.s 0xc(a0), fp1
            0x0067e694      f22844a30014   fmul.s 0x14(a0), fp1
            0x0067e69a      f200049a       fneg fp1
            0x0067e69e      f20000a2       fadd fp0, fp1
            0x0067e6a2      f22e6480ffde   fmove.s fp1, -0x22(a6)
            0x0067e6a8      f2284400001c   fmove.s 0x1c(a0), fp0
            0x0067e6ae      f22844230020   fmul.s 0x20(a0), fp0
            0x0067e6b4      f2114420       fdiv.s (a1), fp0
            0x0067e6b8      f22844800010   fmove.s 0x10(a0), fp1
            0x0067e6be      f22844a3002c   fmul.s 0x2c(a0), fp1
            0x0067e6c4      f21144a0       fdiv.s (a1), fp1
            0x0067e6c8      f200049a       fneg fp1
            0x0067e6cc      f20000a2       fadd fp0, fp1
            0x0067e6d0      f22844a80010   fsub.s 0x10(a0), fp1
            0x0067e6d6      f22e6480ffe2   fmove.s fp1, -0x1e(a6)
            0x0067e6dc      f2104400       fmove.s (a0), fp0
            0x0067e6e0      f2284423002c   fmul.s 0x2c(a0), fp0
            0x0067e6e6      f2114420       fdiv.s (a1), fp0
            0x0067e6ea      f2104422       fadd.s (a0), fp0
            0x0067e6ee      f2284480000c   fmove.s 0xc(a0), fp1
            0x0067e6f4      f22844a30020   fmul.s 0x20(a0), fp1
            0x0067e6fa      f21144a0       fdiv.s (a1), fp1
            0x0067e6fe      f200049a       fneg fp1
            0x0067e702      f20000a2       fadd fp0, fp1
            0x0067e706      f22e6480ffe6   fmove.s fp1, -0x1a(a6)
            0x0067e70c      f2284400000c   fmove.s 0xc(a0), fp0
            0x0067e712      f22844230010   fmul.s 0x10(a0), fp0
            0x0067e718      f2284480001c   fmove.s 0x1c(a0), fp1
            0x0067e71e      f21044a3       fmul.s (a0), fp1
            0x0067e722      f200049a       fneg fp1
            0x0067e726      f20000a2       fadd fp0, fp1
            0x0067e72a      f22e6480ffea   fmove.s fp1, -0x16(a6)
            0x0067e730      f22844000010   fmove.s 0x10(a0), fp0
            0x0067e736      f22844230024   fmul.s 0x24(a0), fp0
            0x0067e73c      f2114420       fdiv.s (a1), fp0
            0x0067e740      f22844800014   fmove.s 0x14(a0), fp1
            0x0067e746      f22844a30020   fmul.s 0x20(a0), fp1
            0x0067e74c      f21144a0       fdiv.s (a1), fp1
            0x0067e750      f200049a       fneg fp1
            0x0067e754      f20000a2       fadd fp0, fp1
            0x0067e758      f22e6480ffee   fmove.s fp1, -0x12(a6)
            0x0067e75e      f22844000004   fmove.s 0x4(a0), fp0
            0x0067e764      f22844230020   fmul.s 0x20(a0), fp0
            0x0067e76a      f2114420       fdiv.s (a1), fp0
            0x0067e76e      f2104480       fmove.s (a0), fp1
            0x0067e772      f22844a30024   fmul.s 0x24(a0), fp1
            0x0067e778      f21144a0       fdiv.s (a1), fp1
            0x0067e77c      f200049a       fneg fp1
            0x0067e780      f20000a2       fadd fp0, fp1
            0x0067e784      f22e6480fff2   fmove.s fp1, -0xe(a6)
            0x0067e78a      f2104400       fmove.s (a0), fp0
            0x0067e78e      f22844230014   fmul.s 0x14(a0), fp0
            0x0067e794      f22844800004   fmove.s 0x4(a0), fp1
            0x0067e79a      f22844a30010   fmul.s 0x10(a0), fp1
            0x0067e7a0      f200049a       fneg fp1
            0x0067e7a4      f20000a2       fadd fp0, fp1
            0x0067e7a8      f22e6480fff6   fmove.s fp1, -0xa(a6)
            0x0067e7ae      246e0010       movea.l 0x10(a6), a2
            0x0067e7b2      266e0014       movea.l 0x14(a6), a3
            0x0067e7b6      7e01           moveq 0x1, d7
        ┌─> 0x0067e7b8      48c7           ext.l d7
        ╎   0x0067e7ba      2007           move.l d7, d0
        ╎   0x0067e7bc      5380           subq.l 0x1, d0
        ╎   0x0067e7be      0c8000000003   cmpi.l 0x3, d0
       ┌──< 0x0067e7c4      6302           bls.b 0x67e7c8
       │╎   0x0067e7c6      4e4f           trap 0xf
       └──> 0x0067e7c8      f22e4780ffee   fmove.s -0x12(a6), fp7
        ╎   0x0067e7ce      f23347a30e00   fmul.s (a3, d0.l * 8), fp7
        ╎   0x0067e7d4      f22e4400fff2   fmove.s -0xe(a6), fp0
        ╎   0x0067e7da      f23344230e04   fmul.s 0x4(a3, d0.l), fp0
        ╎   0x0067e7e0      f20003a2       fadd fp0, fp7
        ╎   0x0067e7e4      f22e47a2fff6   fadd.s -0xa(a6), fp7
        ╎   0x0067e7ea      f2001c18       fabs fp7, fp0
        ╎   0x0067e7ee      f23c44383727.  fcmp.s 0, fp0
        ╎   0x0067e7f6      f29b001c       fbf.w 0x67e814
        ╎   0x0067e7fa      487ab891       pea.l 0x67a08d(pc)
        ╎   0x0067e7fe      4878000d       pea.l 0xd
        ╎   0x0067e802      2f17           move.l (a7), -(a7)
        ╎   0x0067e804      4eb9004047ea   jsr p_wts_o
        ╎   0x0067e80a      defc000c       adda.w 0xc, a7
        ╎   0x0067e80e      4eb900404946   jsr p_wtln_o
        ╎   0x0067e814      f2001800       fmove fp6, fp0
        ╎   0x0067e818      f23344230e00   fmul.s (a3, d0.l * 8), fp0
        ╎   0x0067e81e      f2001480       fmove fp5, fp1
        ╎   0x0067e822      f23344a30e04   fmul.s 0x4(a3, d0.l), fp1
        ╎   0x0067e828      f20000a2       fadd fp0, fp1
        ╎   0x0067e82c      f22e44a2ffde   fadd.s -0x22(a6), fp1
        ╎   0x0067e832      f2001ca0       fdiv fp7, fp1
        ╎   0x0067e836      f23264800e00   fmove.s fp1, (a2, d0.l * 8)
        ╎   0x0067e83c      f22e4400ffe2   fmove.s -0x1e(a6), fp0
        ╎   0x0067e842      f23344230e00   fmul.s (a3, d0.l * 8), fp0
        ╎   0x0067e848      f22e4480ffe6   fmove.s -0x1a(a6), fp1
        ╎   0x0067e84e      f23344a30e04   fmul.s 0x4(a3, d0.l), fp1
        ╎   0x0067e854      f20000a2       fadd fp0, fp1
        ╎   0x0067e858      f22e44a2ffea   fadd.s -0x16(a6), fp1
        ╎   0x0067e85e      f2001ca0       fdiv fp7, fp1
        ╎   0x0067e862      f23264800e04   fmove.s fp1, 0x4(a2, d0.l)
        ╎   0x0067e868      5247           addq.w 0x1, d7
        ╎   0x0067e86a      0c470004       cmpi.w 0x4, d7
        └─< 0x0067e86e      6f00ff48       ble.w 0x67e7b8
            0x0067e872      f21fd0c7       fmovem (a7)+, fp0-fp1/fp5-fp7
            0x0067e876      4cdf0f81       movem.l (a7)+, d0/d7/a0-a3
            0x0067e87a      4e5e           unlk a6
            0x0067e87c      4e75           rts
┌ 24: THREEDMAV.trans_to_quat ();
│           0x0067e87e      4e56ffb8       link.w a6, 0xffb8
│           0x0067e882      bfd5           cmpa.l (a5), a7
│       ┌─< 0x0067e884      6206           bhi.b 0x67e88c
│       │   0x0067e886      44fc0002       move.w 0x2, ccr
│       │   0x0067e88a      4e76           trapv
│       └─> 0x0067e88c      defc0044       adda.w 0x44, a7
│           0x0067e890      48e7e0c0       movem.l d0-d2/a0-a1, -(a7)
│           0x0067e894      f227e083       fmovem fp0-fp1/fp7, -(a7)
            0x0067e898      203c40000000   move.l 0x40000000, d0
            0x0067e89e      223c3f800000   move.l 0x3f800000, d1
            0x0067e8a4      243c38d1b717   move.l 0x38d1b717, d2
            0x0067e8aa      206e0008       movea.l 0x8(a6), a0
            0x0067e8ae      226e000c       movea.l 0xc(a6), a1
            0x0067e8b2      f2014400       fmove.s d1, fp0
            0x0067e8b6      f2114422       fadd.s (a1), fp0
            0x0067e8ba      f22944220014   fadd.s 0x14(a1), fp0
            0x0067e8c0      f22944220028   fadd.s 0x28(a1), fp0
            0x0067e8c6      f23c44204080.  fdiv.s 4, fp0
            0x0067e8ce      f2106400       fmove.s fp0, (a0)
            0x0067e8d2      f2024438       fcmp.s d2, fp0
            0x0067e8d6      f29d006c       fbf.w 0x67e944
            0x0067e8da      f2104404       fsqrt.s (a0), fp0
            0x0067e8de      f2106400       fmove.s fp0, (a0)
            0x0067e8e2      f23c43800000.  fmove.l 0x4, fp7
            0x0067e8ea      f21047a3       fmul.s (a0), fp7
            0x0067e8ee      f23c40000000.  fmove.l 0x1, fp0
            0x0067e8f6      f2001c20       fdiv fp7, fp0
            0x0067e8fa      f2000380       fmove fp0, fp7
            0x0067e8fe      f22944000024   fmove.s 0x24(a1), fp0
            0x0067e904      f22944280018   fsub.s 0x18(a1), fp0
            0x0067e90a      f2001c23       fmul fp7, fp0
            0x0067e90e      f22864000004   fmove.s fp0, 0x4(a0)
            0x0067e914      f22944000008   fmove.s 0x8(a1), fp0
            0x0067e91a      f22944280020   fsub.s 0x20(a1), fp0
            0x0067e920      f2001c23       fmul fp7, fp0
            0x0067e924      f22864000008   fmove.s fp0, 0x8(a0)
            0x0067e92a      f22944000010   fmove.s 0x10(a1), fp0
            0x0067e930      f22944280004   fsub.s 0x4(a1), fp0
            0x0067e936      f2001c23       fmul fp7, fp0
            0x0067e93a      f2286400000c   fmove.s fp0, 0xc(a0)
        ┌─< 0x0067e940      600000ae       bra.w 0x67e9f0
        │   0x0067e944      4290           clr.l (a0)
        │   0x0067e946      f22944000014   fmove.s 0x14(a1), fp0
        │   0x0067e94c      f22944220028   fadd.s 0x28(a1), fp0
        │   0x0067e952      f2004420       fdiv.s d0, fp0
        │   0x0067e956      f200001a       fneg fp0
        │   0x0067e95a      f22864000004   fmove.s fp0, 0x4(a0)
        │   0x0067e960      f2024438       fcmp.s d2, fp0
        │   0x0067e964      f29d0044       fbf.w 0x67e9aa
        │   0x0067e968      f22844040004   fsqrt.s 0x4(a0), fp0
        │   0x0067e96e      f22864000004   fmove.s fp0, 0x4(a0)
        │   0x0067e974      f2004400       fmove.s d0, fp0
        │   0x0067e978      f22844230004   fmul.s 0x4(a0), fp0
        │   0x0067e97e      f22944800010   fmove.s 0x10(a1), fp1
        │   0x0067e984      f20000a0       fdiv fp0, fp1
        │   0x0067e988      f22864800008   fmove.s fp1, 0x8(a0)
        │   0x0067e98e      f2004400       fmove.s d0, fp0
        │   0x0067e992      f22844230004   fmul.s 0x4(a0), fp0
        │   0x0067e998      f22944800020   fmove.s 0x20(a1), fp1
       ┌──> 0x0067e99e      f20000a0       fdiv fp0, fp1
       ╎│   0x0067e9a2      f2286480000c   fmove.s fp1, 0xc(a0)
      ┌───< 0x0067e9a8      6046           bra.b 0x67e9f0
      │╎│   0x0067e9aa      42a80004       clr.l 0x4(a0)
      │╎│   0x0067e9ae      f2014400       fmove.s d1, fp0
      │╎│   0x0067e9b2      f22944280028   fsub.s 0x28(a1), fp0
      │╎│   0x0067e9b8      f2004420       fdiv.s d0, fp0
      │╎│   0x0067e9bc      f22864000008   fmove.s fp0, 0x8(a0)
      │╎│   0x0067e9c2      f2024438       fcmp.s d2, fp0
      │╎│   0x0067e9c6      f29d0020       fbf.w 0x67e9e8
      │╎│   0x0067e9ca      f22844040008   fsqrt.s 0x8(a0), fp0
      │╎│   0x0067e9d0      f22864000008   fmove.s fp0, 0x8(a0)
      │╎│   0x0067e9d6      f2004400       fmove.s d0, fp0
      │╎│   0x0067e9da      f22844230008   fmul.s 0x8(a0), fp0
      │╎│   0x0067e9e0      f22944800024   fmove.s 0x24(a1), fp1
      │└──< 0x0067e9e6      60b6           bra.b 0x67e99e
      │ │   0x0067e9e8      42a80008       clr.l 0x8(a0)
      │ │   0x0067e9ec      2141000c       move.l d1, 0xc(a0)
      └─└─> 0x0067e9f0      f21fd0c1       fmovem (a7)+, fp0-fp1/fp7
            0x0067e9f4      4cdf0307       movem.l (a7)+, d0-d2/a0-a1
            0x0067e9f8      4e5e           unlk a6
            0x0067e9fa      4e75           rts
┌ 24: THREEDMAV.quat_to_trans ();
│           0x0067e9fc      4e56ff64       link.w a6, 0xff64
│           0x0067ea00      bfd5           cmpa.l (a5), a7
│       ┌─< 0x0067ea02      6206           bhi.b 0x67ea0a
│       │   0x0067ea04      44fc0002       move.w 0x2, ccr
│       │   0x0067ea08      4e76           trapv
│       └─> 0x0067ea0a      defc0054       adda.w 0x54, a7
│           0x0067ea0e      48e780f8       movem.l d0/a0-a4, -(a7)
│           0x0067ea12      f227e0e1       fmovem fp0/fp5-fp7, -(a7)
            0x0067ea16      45eefffc       lea.l -0x4(a6), a2
            0x0067ea1a      47eefff4       lea.l -0xc(a6), a3
            0x0067ea1e      49eefff0       lea.l -0x10(a6), a4
            0x0067ea22      203c3f800000   move.l 0x3f800000, d0
            0x0067ea28      206e000c       movea.l 0xc(a6), a0
            0x0067ea2c      226e0008       movea.l 0x8(a6), a1
            0x0067ea30      f2104400       fmove.s (a0), fp0
            0x0067ea34      f2104423       fmul.s (a0), fp0
            0x0067ea38      f22e6400ffc8   fmove.s fp0, -0x38(a6)
            0x0067ea3e      f22847000004   fmove.s 0x4(a0), fp6
            0x0067ea44      f22847230004   fmul.s 0x4(a0), fp6
            0x0067ea4a      f2001800       fmove fp6, fp0
            0x0067ea4e      f2001822       fadd fp6, fp0
            0x0067ea52      f22e6400ffcc   fmove.s fp0, -0x34(a6)
            0x0067ea58      f22846800008   fmove.s 0x8(a0), fp5
            0x0067ea5e      f22846a30008   fmul.s 0x8(a0), fp5
            0x0067ea64      f2001400       fmove fp5, fp0
            0x0067ea68      f2001422       fadd fp5, fp0
            0x0067ea6c      f22e6400ffd0   fmove.s fp0, -0x30(a6)
            0x0067ea72      f2284400000c   fmove.s 0xc(a0), fp0
            0x0067ea78      f2284423000c   fmul.s 0xc(a0), fp0
            0x0067ea7e      f22e6400ffc4   fmove.s fp0, -0x3c(a6)
            0x0067ea84      f22e4422ffc4   fadd.s -0x3c(a6), fp0
            0x0067ea8a      f22e6400ffd4   fmove.s fp0, -0x2c(a6)
            0x0067ea90      f22e4780ffc8   fmove.s -0x38(a6), fp7
            0x0067ea96      f2001ba2       fadd fp6, fp7
            0x0067ea9a      f20017a2       fadd fp5, fp7
            0x0067ea9e      f22e47a2ffc4   fadd.s -0x3c(a6), fp7
            0x0067eaa4      f23c40000000.  fmove.l 0x1, fp0
            0x0067eaac      f2001c20       fdiv fp7, fp0
            0x0067eab0      f2000380       fmove fp0, fp7
            0x0067eab4      f22e4400ffcc   fmove.s -0x34(a6), fp0
            0x0067eaba      f2001c23       fmul fp7, fp0
            0x0067eabe      f22e6400ffd8   fmove.s fp0, -0x28(a6)
            0x0067eac4      f22e4400ffd0   fmove.s -0x30(a6), fp0
            0x0067eaca      f2001c23       fmul fp7, fp0
            0x0067eace      f22e6400ffdc   fmove.s fp0, -0x24(a6)
            0x0067ead4      f22e4400ffd4   fmove.s -0x2c(a6), fp0
            0x0067eada      f2001c23       fmul fp7, fp0
            0x0067eade      f22e6400ffe0   fmove.s fp0, -0x20(a6)
            0x0067eae4      f2104400       fmove.s (a0), fp0
            0x0067eae8      f22844230004   fmul.s 0x4(a0), fp0
            0x0067eaee      f2126400       fmove.s fp0, (a2)
            0x0067eaf2      f2124422       fadd.s (a2), fp0
            0x0067eaf6      f2126400       fmove.s fp0, (a2)
            0x0067eafa      f2104400       fmove.s (a0), fp0
            0x0067eafe      f22844230008   fmul.s 0x8(a0), fp0
            0x0067eb04      f2136400       fmove.s fp0, (a3)
            0x0067eb08      f2134422       fadd.s (a3), fp0
            0x0067eb0c      f2136400       fmove.s fp0, (a3)
            0x0067eb10      f2104680       fmove.s (a0), fp5
            0x0067eb14      f22846a3000c   fmul.s 0xc(a0), fp5
            0x0067eb1a      f2001400       fmove fp5, fp0
            0x0067eb1e      f2001422       fadd fp5, fp0
            0x0067eb22      f2000280       fmove fp0, fp5
            0x0067eb26      f22847000004   fmove.s 0x4(a0), fp6
            0x0067eb2c      f22847230008   fmul.s 0x8(a0), fp6
            0x0067eb32      f2001800       fmove fp6, fp0
            0x0067eb36      f2001822       fadd fp6, fp0
            0x0067eb3a      f2000300       fmove fp0, fp6
            0x0067eb3e      f22844000004   fmove.s 0x4(a0), fp0
            0x0067eb44      f2284423000c   fmul.s 0xc(a0), fp0
            0x0067eb4a      f2146400       fmove.s fp0, (a4)
            0x0067eb4e      f2144422       fadd.s (a4), fp0
            0x0067eb52      f2146400       fmove.s fp0, (a4)
            0x0067eb56      f22844000008   fmove.s 0x8(a0), fp0
            0x0067eb5c      f2284423000c   fmul.s 0xc(a0), fp0
            0x0067eb62      f22e6400fff8   fmove.s fp0, -0x8(a6)
            0x0067eb68      f22e4422fff8   fadd.s -0x8(a6), fp0
            0x0067eb6e      f22e6400fff8   fmove.s fp0, -0x8(a6)
            0x0067eb74      f22e4400ffdc   fmove.s -0x24(a6), fp0
            0x0067eb7a      f22e4422ffe0   fadd.s -0x20(a6), fp0
            0x0067eb80      f200001a       fneg fp0
            0x0067eb84      f2004422       fadd.s d0, fp0
            0x0067eb88      f2116400       fmove.s fp0, (a1)
            0x0067eb8c      f2001800       fmove fp6, fp0
            0x0067eb90      f2001422       fadd fp5, fp0
            0x0067eb94      f2001c23       fmul fp7, fp0
            0x0067eb98      f22964000010   fmove.s fp0, 0x10(a1)
            0x0067eb9e      f2144400       fmove.s (a4), fp0
            0x0067eba2      f2134428       fsub.s (a3), fp0
            0x0067eba6      f2001c23       fmul fp7, fp0
            0x0067ebaa      f22964000020   fmove.s fp0, 0x20(a1)
            0x0067ebb0      f2001800       fmove fp6, fp0
            0x0067ebb4      f2001428       fsub fp5, fp0
            0x0067ebb8      f2001c23       fmul fp7, fp0
            0x0067ebbc      f22964000004   fmove.s fp0, 0x4(a1)
            0x0067ebc2      f22e4400ffd8   fmove.s -0x28(a6), fp0
            0x0067ebc8      f22e4422ffe0   fadd.s -0x20(a6), fp0
            0x0067ebce      f200001a       fneg fp0
            0x0067ebd2      f2004422       fadd.s d0, fp0
            0x0067ebd6      f22964000014   fmove.s fp0, 0x14(a1)
            0x0067ebdc      f22e4400fff8   fmove.s -0x8(a6), fp0
            0x0067ebe2      f2124422       fadd.s (a2), fp0
            0x0067ebe6      f2001c23       fmul fp7, fp0
            0x0067ebea      f22964000024   fmove.s fp0, 0x24(a1)
            0x0067ebf0      f2144400       fmove.s (a4), fp0
            0x0067ebf4      f2134422       fadd.s (a3), fp0
            0x0067ebf8      f2001c23       fmul fp7, fp0
            0x0067ebfc      f22964000008   fmove.s fp0, 0x8(a1)
            0x0067ec02      f22e4400fff8   fmove.s -0x8(a6), fp0
            0x0067ec08      f2124428       fsub.s (a2), fp0
            0x0067ec0c      f2001c23       fmul fp7, fp0
            0x0067ec10      f22964000018   fmove.s fp0, 0x18(a1)
            0x0067ec16      f22e4400ffd8   fmove.s -0x28(a6), fp0
            0x0067ec1c      f22e4422ffdc   fadd.s -0x24(a6), fp0
            0x0067ec22      f200001a       fneg fp0
            0x0067ec26      f2004422       fadd.s d0, fp0
            0x0067ec2a      f22964000028   fmove.s fp0, 0x28(a1)
            0x0067ec30      f21fd087       fmovem (a7)+, fp0/fp5-fp7
            0x0067ec34      4cdf1f01       movem.l (a7)+, d0/a0-a4
            0x0067ec38      4e5e           unlk a6
