            ;-- TYPECOM:
            0x0076d38e      .byte 0x00
            0x0076d38f      .byte 0x88
            0x0076d390      .byte 0x00
            0x0076d391      .byte 0x46
            0x0076d392      .byte 0x00
            0x0076d393      .byte 0xd2
            0x0076d394      .byte 0x00
            0x0076d395      .byte 0x51
            0x0076d396      .byte 0x00
            0x0076d397      .byte 0x80
            0x0076d398      .byte 0x00
            0x0076d399      .byte 0x80
            0x0076d39a      .byte 0x00
            0x0076d39b      .byte 0x3c
            0x0076d39c      .byte 0x00
            0x0076d39d      .byte 0x80
            0x0076d39e      .byte 0x00
            0x0076d39f      .byte 0x80
            0x0076d3a0      .byte 0x00
            0x0076d3a1      .byte 0x32
            0x0076d3a2      .byte 0x00
            0x0076d3a3      .byte 0x80
            0x0076d3a4      .byte 0x00
            0x0076d3a5      .byte 0x80
            0x0076d3a6      .byte 0x00
            0x0076d3a7      .byte 0x10
            0x0076d3a8      .byte 0x00
            0x0076d3a9      .byte 0x80
            0x0076d3aa      .byte 0x00
            0x0076d3ab      .byte 0x80
            0x0076d3ac      .byte 0x00
            0x0076d3ad      .byte 0xa7
            0x0076d3ae      .byte 0x00
            0x0076d3af      .byte 0x72
            0x0076d3b0      .byte 0x00
            0x0076d3b1      .byte 0x9e
            0x0076d3b2      .byte 0x00
            0x0076d3b3      .byte 0xbf
            0x0076d3b4      .byte 0x00
            0x0076d3b5      .byte 0x80
            0x0076d3b6      .byte 0x00
            0x0076d3b7      .byte 0x80
            0x0076d3b8      .byte 0x00
            0x0076d3b9      .byte 0xa0
            0x0076d3ba      .byte 0x00
            0x0076d3bb      .byte 0x96
            0x0076d3bc      .byte 0x00
            0x0076d3bd      .byte 0x74
            0x0076d3be      .byte 0x00
            0x0076d3bf      .byte 0x23
            0x0076d3c0      .byte 0x00
            0x0076d3c1      .byte 0xf0
            0x0076d3c2      .byte 0x00
            0x0076d3c3      .byte 0x6e
            0x0076d3c4      .byte 0x00
            0x0076d3c5      .byte 0x8c
            0x0076d3c6      .byte 0x00
            0x0076d3c7      .byte 0x6e
            0x0076d3c8      .byte 0x00
            0x0076d3c9      .byte 0x6e
            0x0076d3ca      .byte 0x00
            0x0076d3cb      .byte 0xc4
            0x0076d3cc      .byte 0x00
            0x0076d3cd      .byte 0x31
            0x0076d3ce      .byte 0x00
            0x0076d3cf      .byte 0x8c
            0x0076d3d0      .byte 0x00
            0x0076d3d1      .byte 0xa8
            0x0076d3d2      .byte 0x00
            0x0076d3d3      .byte 0x28
            0x0076d3d4      .byte 0x00
            0x0076d3d5      .byte 0xb1
            0x0076d3d6      .byte 0x00
            0x0076d3d7      .byte 0x00
            0x0076d3d8      .byte 0x00
            0x0076d3d9      .byte 0x80
            0x0076d3da      .byte 0x00
            0x0076d3db      .byte 0x80
            0x0076d3dc      .byte 0x00
            0x0076d3dd      .byte 0xff
            0x0076d3de      .byte 0x00
            0x0076d3df      .byte 0x80
            0x0076d3e0      .byte 0x00
            0x0076d3e1      .byte 0x80
            0x0076d3e2      .byte 0x00
            0x0076d3e3      .byte 0xcc
            0x0076d3e4      .byte 0x00
            0x0076d3e5      .byte 0x80
            0x0076d3e6      .byte 0x00
            0x0076d3e7      .byte 0x80
            0x0076d3e8      .byte 0x00
            0x0076d3e9      .byte 0xad
            0x0076d3ea      .byte 0x00
            0x0076d3eb      .byte 0x80
            0x0076d3ec      .byte 0x00
            0x0076d3ed      .byte 0x80
            0x0076d3ee      .byte 0x00
            0x0076d3ef      .byte 0xeb
            0x0076d3f0      .byte 0x00
            0x0076d3f1      .byte 0x80
            0x0076d3f2      .byte 0x00
            0x0076d3f3      .byte 0x80
            0x0076d3f4      .byte 0x00
            0x0076d3f5      .byte 0x10
            0x0076d3f6      .byte 0x00
            0x0076d3f7      .byte 0x80
            0x0076d3f8      .byte 0x00
            0x0076d3f9      .byte 0x80
            0x0076d3fa      .byte 0x00
            0x0076d3fb      .byte 0x80
            0x0076d3fc      .byte 0x00
            0x0076d3fd      .byte 0x80
            0x0076d3fe      .byte 0x00
            0x0076d3ff      .byte 0x80
            0x0076d400      .byte 0x00
            0x0076d401      .byte 0x51
            0x0076d402      .byte 0x00
            0x0076d403      .byte 0x5a
            0x0076d404      .byte 0x00
            0x0076d405      .byte 0xf0
            0x0076d406      .byte 0x00
            0x0076d407      .byte 0xd2
            0x0076d408      .byte 0x00
            0x0076d409      .byte 0x10
            0x0076d40a      .byte 0x00
            0x0076d40b      .byte 0x92
            0x0076d40c      .byte 0x00
            0x0076d40d      .byte 0x29
            0x0076d40e      .byte 0x00
            0x0076d40f      .byte 0xf0
            0x0076d410      .byte 0x00
            0x0076d411      .byte 0x6e
            0x0076d412      .byte 0x00
            0x0076d413      .byte 0x91
            0x0076d414      .byte 0x00
            0x0076d415      .byte 0x36
            0x0076d416      .byte 0x00
            0x0076d417      .byte 0x22
            0x0076d418      .byte 0x00
            0x0076d419      .byte 0xa2
            0x0076d41a      .byte 0x00
            0x0076d41b      .byte 0x2c
            0x0076d41c      .byte 0x00
            0x0076d41d      .byte 0x8e
            0x0076d41e      .byte 0x00
            0x0076d41f      .byte 0x83
            0x0076d420      .byte 0x00
            0x0076d421      .byte 0x9c
            0x0076d422      .byte 0x00
            0x0076d423      .byte 0x2c
            0x0076d424      .byte 0x00
            0x0076d425      .byte 0x70
            0x0076d426      .byte 0x00
            0x0076d427      .byte 0x48
            0x0076d428      .byte 0x00
            0x0076d429      .byte 0x3a
            0x0076d42a      .byte 0x00
            0x0076d42b      .byte 0x54
            0x0076d42c      .byte 0x00
            0x0076d42d      .byte 0xb8
            0x0076d42e      .byte 0x00
            0x0076d42f      .byte 0xc6
            0x0076d430      .byte 0x00
            0x0076d431      .byte 0x41
            0x0076d432      .byte 0x00
            0x0076d433      .byte 0x64
            0x0076d434      .byte 0x00
            0x0076d435      .byte 0xd4
            0x0076d436      .byte 0x00
            0x0076d437      .byte 0x23
            0x0076d438      .byte 0x00
            0x0076d439      .byte 0xd4
            0x0076d43a      .byte 0x00
            0x0076d43b      .byte 0x72
            0x0076d43c      .byte 0x00
            0x0076d43d      .byte 0xd2
            0x0076d43e      .byte 0x00
            0x0076d43f      .byte 0x10
            0x0076d440      .byte 0x00
            0x0076d441      .byte 0x92
            0x0076d442      .byte 0x00
            0x0076d443      .byte 0xaa
            0x0076d444      .byte 0x00
            0x0076d445      .byte 0xa6
            0x0076d446      .byte 0x00
            0x0076d447      .byte 0x10
            0x0076d448      .byte 0x00
            0x0076d449      .byte 0x91
            0x0076d44a      .byte 0x00
            0x0076d44b      .byte 0x36
            0x0076d44c      .byte 0x00
            0x0076d44d      .byte 0x22
            0x0076d44e      .byte 0x00
            0x0076d44f      .byte 0x6a
            0x0076d450      .byte 0x00
            0x0076d451      .byte 0xca
            0x0076d452      .byte 0x00
            0x0076d453      .byte 0xde
            0x0076d454      .byte 0x00
            0x0076d455      .byte 0x51
            0x0076d456      .byte 0x00
            0x0076d457      .byte 0x5a
            0x0076d458      .byte 0x00
            0x0076d459      .byte 0xf0
            0x0076d45a      .byte 0x00
            0x0076d45b      .byte 0x29
            0x0076d45c      .byte 0x00
            0x0076d45d      .byte 0xf0
            0x0076d45e      .byte 0x00
            0x0076d45f      .byte 0x6e
            0x0076d460      .byte 0x00
            0x0076d461      .byte 0x02
            0x0076d462      .byte 0x71
            0x0076d463      .byte 0x02
            0x0076d464      .byte 0x00
            0x0076d465      .byte 0x03
            0x0076d466      .byte 0xa9
            0x0076d467      .byte 0x89
            0x0076d468      .byte 0x00
            0x0076d469      .byte 0x04
            0x0076d46a      .byte 0xe2
            0x0076d46b      .byte 0x10
            0x0076d46c      .byte 0x00
            0x0076d46d      .byte 0x06
            0x0076d46e      .byte 0x1d
            0x0076d46f      .byte 0xdc
            0x0076d470      .byte 0x00
            0x0076d471      .byte 0x07
            0x0076d472      .byte 0x57
            0x0076d473      .byte 0x0e
            0x0076d474      .byte 0x00
            0x0076d475      .byte 0x08
            0x0076d476      .byte 0x90
            0x0076d477      .byte 0x42
            0x0076d478      .byte 0x10
            0x0076d479      .byte 0x4d
            0x0076d47a      .byte 0xe4
            0x0076d47b      .byte 0xe3
            0x0076d47c      .byte 0x2a
            0x0076d47d      .byte 0xf5
            0x0076d47e      .byte 0x74
            0x0076d47f      .byte 0xfc
            0x0076d480      .byte 0x31
            0x0076d481      .byte 0xb4
            0x0076d482      .byte 0x09
            0x0076d483      .byte 0x86
            0x0076d484      .byte 0x35
            0x0076d485      .byte 0x21
            0x0076d486      .byte 0xc9
            0x0076d487      .byte 0x34
            0x0076d488      .byte 0x00
            0x0076d489      .byte 0xea
            0x0076d48a      .byte 0x3a
            0x0076d48b      .byte 0xcb
            0x0076d48c      .byte 0x30
            0x0076d48d      .byte 0x42
            0x0076d48e      .byte 0x8a
            0x0076d48f      .byte 0x19
            0x0076d490      .byte 0x00
            0x0076d491      .byte 0x00
            0x0076d492      .byte 0x00
            0x0076d493      .byte 0x00
            0x0076d494      .byte 0x00
            0x0076d495      .byte 0x00
            0x0076d496      .byte 0x00
            0x0076d497      .byte 0x00
            0x0076d498      .byte 0x00
            0x0076d499      .byte 0x00
            0x0076d49a      .byte 0x3f
            0x0076d49b      .byte 0x80
            0x0076d49c      .byte 0x00
            0x0076d49d      .byte 0x00
            0x0076d49e      .byte 0x3f
            0x0076d49f      .byte 0x80
            0x0076d4a0      .byte 0x00
            0x0076d4a1      .byte 0x00
            0x0076d4a2      .byte 0x00
            0x0076d4a3      .byte 0x00
            0x0076d4a4      .byte 0x00
            0x0076d4a5      .byte 0x00
            0x0076d4a6      .byte 0x00
            0x0076d4a7      .byte 0x00
            0x0076d4a8      .byte 0x00
            0x0076d4a9      .byte 0x00
            0x0076d4aa      .byte 0x02
            0x0076d4ab      .byte 0x00
            0x0076d4ac      .byte 0x00
            0x0076d4ad      .byte 0x00
            0x0076d4ae      .byte 0x3f
            0x0076d4af      .byte 0x80
            0x0076d4b0      .byte 0x00
            0x0076d4b1      .byte 0x00
            0x0076d4b2      .byte 0x3f
            0x0076d4b3      .byte 0x80
            0x0076d4b4      .byte 0x00
            0x0076d4b5      .byte 0x00
            0x0076d4b6      .byte 0x00
            0x0076d4b7      .byte 0x00
            0x0076d4b8      .byte 0x00
            0x0076d4b9      .byte 0x00
            0x0076d4ba      .byte 0x00
            0x0076d4bb      .byte 0x00
            0x0076d4bc      .byte 0x00
            0x0076d4bd      .byte 0x00
            0x0076d4be      .byte 0x02
            0x0076d4bf      .byte 0xc7
            0x0076d4c0      .byte 0x01
            0x0076d4c1      .byte 0xe5
            0x0076d4c2      .byte 0x03
            0x0076d4c3      .byte 0x00
            0x0076d4c4      .byte 0x01
            0x0076d4c5      .byte 0xe4
            0x0076d4c6      .byte 0x02
            0x0076d4c7      .byte 0xbd
            0x0076d4c8      .byte 0x02
            0x0076d4c9      .byte 0x3f
            0x0076d4ca      .byte 0x00
            0x0076d4cb      .byte 0x0a
            0x0076d4cc      .byte 0x00
            0x0076d4cd      .byte 0x08
            0x0076d4ce      .byte 0x00
            0x0076d4cf      .byte 0x2a
            0x0076d4d0      .byte 0x01
            0x0076d4d1      .byte 0x00
            0x0076d4d2      .byte 0x00
            0x0076d4d3      .byte 0x36
            0x0076d4d4      .byte 0x01
            0x0076d4d5      .byte 0x00
            0x0076d4d6      .byte 0x00
            0x0076d4d7      .byte 0x1d
            0x0076d4d8      .byte 0x02
            0x0076d4d9      .byte 0x00
            0x0076d4da      .byte 0x00
            0x0076d4db      .byte 0x00
            0x0076d4dc      .byte 0x00
            0x0076d4dd      .byte 0x00
            0x0076d4de      .byte 0x00
            0x0076d4df      .byte 0x00
            0x0076d4e0      .byte 0x00
            0x0076d4e1      .byte 0x00
            0x0076d4e2      .byte 0x00
            0x0076d4e3      .byte 0x00
            0x0076d4e4      .byte 0x00
            0x0076d4e5      .byte 0x00
            0x0076d4e6      .byte 0x00
            0x0076d4e7      .byte 0x00
            0x0076d4e8      .byte 0x00
            0x0076d4e9      .byte 0x00
            0x0076d4ea      .byte 0x00
            0x0076d4eb      .byte 0x00
            0x0076d4ec      .byte 0x00
            0x0076d4ed      .byte 0x00
            0x0076d4ee      .byte 0x00
            0x0076d4ef      .byte 0x00
            0x0076d4f0      .byte 0x00
            0x0076d4f1      .byte 0x00
            0x0076d4f2      .byte 0x00
            0x0076d4f3      .byte 0x00
            0x0076d4f4      .byte 0x00
            0x0076d4f5      .byte 0x00
            0x0076d4f6      .byte 0x00
            0x0076d4f7      .byte 0x00
            0x0076d4f8      .byte 0x00
            0x0076d4f9      .byte 0x00
            0x0076d4fa      .byte 0x00
            0x0076d4fb      .byte 0x00
            0x0076d4fc      .byte 0x00
            0x0076d4fd      .byte 0x1a
            0x0076d4fe      .byte 0x00
            0x0076d4ff      .byte 0x00
            0x0076d500      .byte 0x00
            0x0076d501      .byte 0x16
            0x0076d502      .byte 0x00
            0x0076d503      .byte 0x00
            0x0076d504      .byte 0x00
            0x0076d505      .byte 0x00
            0x0076d506      .byte 0x00
            0x0076d507      .byte 0x00
            0x0076d508      .byte 0x00
            0x0076d509      .byte 0x00
            0x0076d50a      .byte 0x00
            0x0076d50b      .byte 0x00
            0x0076d50c      .byte 0x00
            0x0076d50d      .byte 0x00
            0x0076d50e      .byte 0x00
            0x0076d50f      .byte 0x00
            0x0076d510      .byte 0x00
            0x0076d511      .byte 0x00
            0x0076d512      .byte 0x00
            0x0076d513      .byte 0x00
            0x0076d514      .byte 0x00
            0x0076d515      .byte 0x00
            0x0076d516      .byte 0x00
            0x0076d517      .byte 0x00
            0x0076d518      .byte 0x00
            0x0076d519      .byte 0x00
            0x0076d51a      .byte 0x00
            0x0076d51b      .byte 0x00
            0x0076d51c      .byte 0x00
            0x0076d51d      .byte 0x00
            0x0076d51e      .byte 0x00
            0x0076d51f      .byte 0x00
            0x0076d520      .byte 0x00
            0x0076d521      .byte 0x00
            0x0076d522      .byte 0x00
            0x0076d523      .byte 0x00
            0x0076d524      .byte 0x00
            0x0076d525      .byte 0x00
            0x0076d526      .byte 0x00
            0x0076d527      .byte 0x00
            0x0076d528      .byte 0x00
            0x0076d529      .byte 0x00
            0x0076d52a      .byte 0x00
            0x0076d52b      .byte 0x00
            0x0076d52c      .byte 0x00
            0x0076d52d      .byte 0x00
            0x0076d52e      .byte 0x00
            0x0076d52f      .byte 0x00
            0x0076d530      .byte 0x00
            0x0076d531      .byte 0x00
            0x0076d532      .byte 0x00
            0x0076d533      .byte 0x00
            0x0076d534      .byte 0x00
            0x0076d535      .byte 0x00
            0x0076d536      .byte 0x00
            0x0076d537      .byte 0x00
            0x0076d538      .byte 0x00
            0x0076d539      .byte 0x00
            0x0076d53a      .byte 0x00
            0x0076d53b      .byte 0x00
            0x0076d53c      .byte 0x00
            0x0076d53d      .byte 0x00
            0x0076d53e      .byte 0x00
            0x0076d53f      .byte 0x00
            0x0076d540      .byte 0x00
            0x0076d541      .byte 0x00
            0x0076d542      .byte 0x00
            0x0076d543      .byte 0x00
            0x0076d544      .byte 0x00
            0x0076d545      .byte 0x00
            0x0076d546      .byte 0x00
            0x0076d547      .byte 0x00
            0x0076d548      .byte 0x00
            0x0076d549      .byte 0x00
            0x0076d54a      .byte 0x00
            0x0076d54b      .byte 0x00
            0x0076d54c      .byte 0x00
            0x0076d54d      .byte 0x00
            0x0076d54e      .byte 0x00
            0x0076d54f      .byte 0x00
            0x0076d550      .byte 0x00
            0x0076d551      .byte 0x00
            0x0076d552      .byte 0x00
            0x0076d553      .byte 0x00
            0x0076d554      .byte 0x00
            0x0076d555      .byte 0x00
            0x0076d556      .byte 0x00
            0x0076d557      .byte 0x00
            0x0076d558      .byte 0x00
            0x0076d559      .byte 0x00
            0x0076d55a      .byte 0x00
            0x0076d55b      .byte 0x00
            0x0076d55c      .byte 0x00
            0x0076d55d      .byte 0x00
            0x0076d55e      .byte 0x00
            0x0076d55f      .byte 0x00
            0x0076d560      .byte 0x00
            0x0076d561      .byte 0x21
            0x0076d562      .byte 0x00
            0x0076d563      .byte 0x00
            0x0076d564      .byte 0x00
            0x0076d565      .byte 0x93
            0x0076d566      .byte 0x00
            0x0076d567      .byte 0x00
            0x0076d568      .byte 0x00
            0x0076d569      .byte 0x23
            0x0076d56a      .byte 0x00
            0x0076d56b      .byte 0x00
            0x0076d56c      .byte 0x00
            0x0076d56d      .byte 0x24
            0x0076d56e      .byte 0x00
            0x0076d56f      .byte 0x00
            0x0076d570      .byte 0x00
            0x0076d571      .byte 0x25
            0x0076d572      .byte 0x00
            0x0076d573      .byte 0x00
            0x0076d574      .byte 0x00
            0x0076d575      .byte 0x26
            0x0076d576      .byte 0x00
            0x0076d577      .byte 0x00
            0x0076d578      .byte 0x00
            0x0076d579      .byte 0x92
            0x0076d57a      .byte 0x00
            0x0076d57b      .byte 0x00
            0x0076d57c      .byte 0x00
            0x0076d57d      .byte 0x28
            0x0076d57e      .byte 0x00
            0x0076d57f      .byte 0x00
            0x0076d580      .byte 0x00
            0x0076d581      .byte 0x29
            0x0076d582      .byte 0x00
            0x0076d583      .byte 0x00
            0x0076d584      .byte 0x00
            0x0076d585      .byte 0x2a
            0x0076d586      .byte 0x00
            0x0076d587      .byte 0x00
            0x0076d588      .byte 0x00
            0x0076d589      .byte 0x2b
            0x0076d58a      .byte 0x00
            0x0076d58b      .byte 0x00
            0x0076d58c      .byte 0x00
            0x0076d58d      .byte 0x2c
            0x0076d58e      .byte 0x00
            0x0076d58f      .byte 0x00
            0x0076d590      .byte 0x00
            0x0076d591      .byte 0x2d
            0x0076d592      .byte 0x00
            0x0076d593      .byte 0x00
            0x0076d594      .byte 0x00
            0x0076d595      .byte 0x2e
            0x0076d596      .byte 0x00
            0x0076d597      .byte 0x00
            0x0076d598      .byte 0x00
            0x0076d599      .byte 0x2f
            0x0076d59a      .byte 0x00
            0x0076d59b      .byte 0x00
            0x0076d59c      .byte 0x00
            0x0076d59d      .byte 0x30
            0x0076d59e      .byte 0x00
            0x0076d59f      .byte 0x00
            0x0076d5a0      .byte 0x00
            0x0076d5a1      .byte 0x31
            0x0076d5a2      .byte 0x00
            0x0076d5a3      .byte 0x00
            0x0076d5a4      .byte 0x00
            0x0076d5a5      .byte 0x32
            0x0076d5a6      .byte 0x00
            0x0076d5a7      .byte 0x00
            0x0076d5a8      .byte 0x00
            0x0076d5a9      .byte 0x33
            0x0076d5aa      .byte 0x00
            0x0076d5ab      .byte 0x00
            0x0076d5ac      .byte 0x00
            0x0076d5ad      .byte 0x34
            0x0076d5ae      .byte 0x00
            0x0076d5af      .byte 0x00
            0x0076d5b0      .byte 0x00
            0x0076d5b1      .byte 0x35
            0x0076d5b2      .byte 0x00
            0x0076d5b3      .byte 0x00
            0x0076d5b4      .byte 0x00
            0x0076d5b5      .byte 0x36
            0x0076d5b6      .byte 0x00
            0x0076d5b7      .byte 0x00
            0x0076d5b8      .byte 0x00
            0x0076d5b9      .byte 0x37
            0x0076d5ba      .byte 0x00
            0x0076d5bb      .byte 0x00
            0x0076d5bc      .byte 0x00
            0x0076d5bd      .byte 0x38
            0x0076d5be      .byte 0x00
            0x0076d5bf      .byte 0x00
            0x0076d5c0      .byte 0x00
            0x0076d5c1      .byte 0x39
            0x0076d5c2      .byte 0x00
            0x0076d5c3      .byte 0x00
            0x0076d5c4      .byte 0x00
            0x0076d5c5      .byte 0x3a
            0x0076d5c6      .byte 0x00
            0x0076d5c7      .byte 0x00
            0x0076d5c8      .byte 0x00
            0x0076d5c9      .byte 0x3b
            0x0076d5ca      .byte 0x00
            0x0076d5cb      .byte 0x00
            0x0076d5cc      .byte 0x00
            0x0076d5cd      .byte 0x8b
            0x0076d5ce      .byte 0x00
            0x0076d5cf      .byte 0x00
            0x0076d5d0      .byte 0x00
            0x0076d5d1      .byte 0x3d
            0x0076d5d2      .byte 0x00
            0x0076d5d3      .byte 0x00
            0x0076d5d4      .byte 0x00
            0x0076d5d5      .byte 0x9b
            0x0076d5d6      .byte 0x00
            0x0076d5d7      .byte 0x00
            0x0076d5d8      .byte 0x00
            0x0076d5d9      .byte 0x3f
            0x0076d5da      .byte 0x00
            0x0076d5db      .byte 0x00
            0x0076d5dc      .byte 0x00
            0x0076d5dd      .byte 0x40
            0x0076d5de      .byte 0x00
            0x0076d5df      .byte 0x00
            0x0076d5e0      .byte 0x00
            0x0076d5e1      .byte 0x41
            0x0076d5e2      .byte 0x00
            0x0076d5e3      .byte 0x00
            0x0076d5e4      .byte 0x00
            0x0076d5e5      .byte 0x42
            0x0076d5e6      .byte 0x00
            0x0076d5e7      .byte 0x00
            0x0076d5e8      .byte 0x00
            0x0076d5e9      .byte 0x43
            0x0076d5ea      .byte 0x00
            0x0076d5eb      .byte 0x00
            0x0076d5ec      .byte 0x00
            0x0076d5ed      .byte 0x44
            0x0076d5ee      .byte 0x00
            0x0076d5ef      .byte 0x00
            0x0076d5f0      .byte 0x00
            0x0076d5f1      .byte 0x45
            0x0076d5f2      .byte 0x00
            0x0076d5f3      .byte 0x00
            0x0076d5f4      .byte 0x00
            0x0076d5f5      .byte 0x46
            0x0076d5f6      .byte 0x00
            0x0076d5f7      .byte 0x00
            0x0076d5f8      .byte 0x00
            0x0076d5f9      .byte 0x47
            0x0076d5fa      .byte 0x00
            0x0076d5fb      .byte 0x00
            0x0076d5fc      .byte 0x00
            0x0076d5fd      .byte 0x48
            0x0076d5fe      .byte 0x00
            0x0076d5ff      .byte 0x00
            0x0076d600      .byte 0x00
            0x0076d601      .byte 0x49
            0x0076d602      .byte 0x00
            0x0076d603      .byte 0x00
            0x0076d604      .byte 0x00
            0x0076d605      .byte 0x4a
            0x0076d606      .byte 0x00
            0x0076d607      .byte 0x00
            0x0076d608      .byte 0x00
            0x0076d609      .byte 0x4b
            0x0076d60a      .byte 0x00
            0x0076d60b      .byte 0x00
            0x0076d60c      .byte 0x00
            0x0076d60d      .byte 0x4c
            0x0076d60e      .byte 0x00
            0x0076d60f      .byte 0x00
            0x0076d610      .byte 0x00
            0x0076d611      .byte 0x4d
            0x0076d612      .byte 0x00
            0x0076d613      .byte 0x00
            0x0076d614      .byte 0x00
            0x0076d615      .byte 0x4e
            0x0076d616      .byte 0x00
            0x0076d617      .byte 0x00
            0x0076d618      .byte 0x00
            0x0076d619      .byte 0x4f
            0x0076d61a      .byte 0x00
            0x0076d61b      .byte 0x00
            0x0076d61c      .byte 0x00
            0x0076d61d      .byte 0x50
            0x0076d61e      .byte 0x00
            0x0076d61f      .byte 0x00
            0x0076d620      .byte 0x00
            0x0076d621      .byte 0x51
            0x0076d622      .byte 0x00
            0x0076d623      .byte 0x00
            0x0076d624      .byte 0x00
            0x0076d625      .byte 0x52
            0x0076d626      .byte 0x00
            0x0076d627      .byte 0x00
            0x0076d628      .byte 0x00
            0x0076d629      .byte 0x53
            0x0076d62a      .byte 0x00
            0x0076d62b      .byte 0x00
            0x0076d62c      .byte 0x00
            0x0076d62d      .byte 0x54
            0x0076d62e      .byte 0x00
            0x0076d62f      .byte 0x00
            0x0076d630      .byte 0x00
            0x0076d631      .byte 0x55
            0x0076d632      .byte 0x00
            0x0076d633      .byte 0x00
            0x0076d634      .byte 0x00
            0x0076d635      .byte 0x56
            0x0076d636      .byte 0x00
            0x0076d637      .byte 0x00
            0x0076d638      .byte 0x00
            0x0076d639      .byte 0x57
            0x0076d63a      .byte 0x00
            0x0076d63b      .byte 0x00
            0x0076d63c      .byte 0x00
            0x0076d63d      .byte 0x58
            0x0076d63e      .byte 0x00
            0x0076d63f      .byte 0x00
            0x0076d640      .byte 0x00
            0x0076d641      .byte 0x59
            0x0076d642      .byte 0x00
            0x0076d643      .byte 0x00
            0x0076d644      .byte 0x00
            0x0076d645      .byte 0x5a
            0x0076d646      .byte 0x00
            0x0076d647      .byte 0x00
            0x0076d648      .byte 0x00
            0x0076d649      .byte 0x03
            0x0076d64a      .byte 0x00
            0x0076d64b      .byte 0x00
            0x0076d64c      .byte 0x00
            0x0076d64d      .byte 0xa3
            0x0076d64e      .byte 0x00
            0x0076d64f      .byte 0x00
            0x0076d650      .byte 0x00
            0x0076d651      .byte 0x07
            0x0076d652      .byte 0x00
            0x0076d653      .byte 0x00
            0x0076d654      .byte 0x00
            0x0076d655      .byte 0x04
            0x0076d656      .byte 0x00
            0x0076d657      .byte 0x00
            0x0076d658      .byte 0x00
            0x0076d659      .byte 0x94
            0x0076d65a      .byte 0x00
            0x0076d65b      .byte 0x00
            0x0076d65c      .byte 0x00
            0x0076d65d      .byte 0x91
            0x0076d65e      .byte 0x00
            0x0076d65f      .byte 0x00
            0x0076d660      .byte 0x00
            0x0076d661      .byte 0x61
            0x0076d662      .byte 0x00
            0x0076d663      .byte 0x00
            0x0076d664      .byte 0x00
            0x0076d665      .byte 0x62
            0x0076d666      .byte 0x00
            0x0076d667      .byte 0x00
            0x0076d668      .byte 0x00
            0x0076d669      .byte 0x63
            0x0076d66a      .byte 0x00
            0x0076d66b      .byte 0x00
            0x0076d66c      .byte 0x00
            0x0076d66d      .byte 0x64
            0x0076d66e      .byte 0x00
            0x0076d66f      .byte 0x00
            0x0076d670      .byte 0x00
            0x0076d671      .byte 0x65
            0x0076d672      .byte 0x00
            0x0076d673      .byte 0x00
            0x0076d674      .byte 0x00
            0x0076d675      .byte 0x66
            0x0076d676      .byte 0x00
            0x0076d677      .byte 0x00
            0x0076d678      .byte 0x00
            0x0076d679      .byte 0x67
            0x0076d67a      .byte 0x00
            0x0076d67b      .byte 0x00
            0x0076d67c      .byte 0x00
            0x0076d67d      .byte 0x68
            0x0076d67e      .byte 0x00
            0x0076d67f      .byte 0x00
            0x0076d680      .byte 0x00
            0x0076d681      .byte 0x69
            0x0076d682      .byte 0x00
            0x0076d683      .byte 0x00
            0x0076d684      .byte 0x00
            0x0076d685      .byte 0x6a
            0x0076d686      .byte 0x00
            0x0076d687      .byte 0x00
            0x0076d688      .byte 0x00
            0x0076d689      .byte 0x6b
            0x0076d68a      .byte 0x00
            0x0076d68b      .byte 0x00
            0x0076d68c      .byte 0x00
            0x0076d68d      .byte 0x6c
            0x0076d68e      .byte 0x00
            0x0076d68f      .byte 0x00
            0x0076d690      .byte 0x00
            0x0076d691      .byte 0x6d
            0x0076d692      .byte 0x00
            0x0076d693      .byte 0x00
            0x0076d694      .byte 0x00
            0x0076d695      .byte 0x6e
            0x0076d696      .byte 0x00
            0x0076d697      .byte 0x00
            0x0076d698      .byte 0x00
            0x0076d699      .byte 0x6f
            0x0076d69a      .byte 0x00
            0x0076d69b      .byte 0x00
            0x0076d69c      .byte 0x00
            0x0076d69d      .byte 0x70
            0x0076d69e      .byte 0x00
            0x0076d69f      .byte 0x00
            0x0076d6a0      .byte 0x00
            0x0076d6a1      .byte 0x71
            0x0076d6a2      .byte 0x00
            0x0076d6a3      .byte 0x00
            0x0076d6a4      .byte 0x00
            0x0076d6a5      .byte 0x72
            0x0076d6a6      .byte 0x00
            0x0076d6a7      .byte 0x00
            0x0076d6a8      .byte 0x00
            0x0076d6a9      .byte 0x73
            0x0076d6aa      .byte 0x00
            0x0076d6ab      .byte 0x00
            0x0076d6ac      .byte 0x00
            0x0076d6ad      .byte 0x74
            0x0076d6ae      .byte 0x00
            0x0076d6af      .byte 0x00
            0x0076d6b0      .byte 0x00
            0x0076d6b1      .byte 0x75
            0x0076d6b2      .byte 0x00
            0x0076d6b3      .byte 0x00
            0x0076d6b4      .byte 0x00
            0x0076d6b5      .byte 0x76
            0x0076d6b6      .byte 0x00
            0x0076d6b7      .byte 0x00
            0x0076d6b8      .byte 0x00
            0x0076d6b9      .byte 0x77
            0x0076d6ba      .byte 0x00
            0x0076d6bb      .byte 0x00
            0x0076d6bc      .byte 0x00
            0x0076d6bd      .byte 0x78
            0x0076d6be      .byte 0x00
            0x0076d6bf      .byte 0x00
            0x0076d6c0      .byte 0x00
            0x0076d6c1      .byte 0x79
            0x0076d6c2      .byte 0x00
            0x0076d6c3      .byte 0x00
            0x0076d6c4      .byte 0x00
            0x0076d6c5      .byte 0x7a
            0x0076d6c6      .byte 0x00
            0x0076d6c7      .byte 0x00
            0x0076d6c8      .byte 0x00
            0x0076d6c9      .byte 0xb4
            0x0076d6ca      .byte 0x00
            0x0076d6cb      .byte 0x00
            0x0076d6cc      .byte 0x00
            0x0076d6cd      .byte 0x8c
            0x0076d6ce      .byte 0x00
            0x0076d6cf      .byte 0x00
            0x0076d6d0      .byte 0x00
            0x0076d6d1      .byte 0x60
            0x0076d6d2      .byte 0x00
            0x0076d6d3      .byte 0x00
            0x0076d6d4      .byte 0x00
            0x0076d6d5      .byte 0x05
            0x0076d6d6      .byte 0x00
            0x0076d6d7      .byte 0x00
            0x0076d6d8      .byte 0x00
            0x0076d6d9      .byte 0x00
            0x0076d6da      .byte 0x00
            0x0076d6db      .byte 0x00
            0x0076d6dc      .byte 0x00
            0x0076d6dd      .byte 0x00
            0x0076d6de      .byte 0x00
            0x0076d6df      .byte 0x00
            0x0076d6e0      .byte 0x00
            0x0076d6e1      .byte 0x00
            0x0076d6e2      .byte 0x00
            0x0076d6e3      .byte 0x00
            0x0076d6e4      .byte 0x00
            0x0076d6e5      .byte 0x00
            0x0076d6e6      .byte 0x00
            0x0076d6e7      .byte 0x00
            0x0076d6e8      .byte 0x00
            0x0076d6e9      .byte 0x00
            0x0076d6ea      .byte 0x00
            0x0076d6eb      .byte 0x00
            0x0076d6ec      .byte 0x00
            0x0076d6ed      .byte 0x00
            0x0076d6ee      .byte 0x00
            0x0076d6ef      .byte 0x00
            0x0076d6f0      .byte 0x00
            0x0076d6f1      .byte 0x00
            0x0076d6f2      .byte 0x00
            0x0076d6f3      .byte 0x00
            0x0076d6f4      .byte 0x00
            0x0076d6f5      .byte 0x00
            0x0076d6f6      .byte 0x00
            0x0076d6f7      .byte 0x00
            0x0076d6f8      .byte 0x00
            0x0076d6f9      .byte 0x00
            0x0076d6fa      .byte 0x00
            0x0076d6fb      .byte 0x00
            0x0076d6fc      .byte 0x00
            0x0076d6fd      .byte 0x00
            0x0076d6fe      .byte 0x00
            0x0076d6ff      .byte 0x00
            0x0076d700      .byte 0x00
            0x0076d701      .byte 0x00
            0x0076d702      .byte 0x00
            0x0076d703      .byte 0x00
            0x0076d704      .byte 0x00
            0x0076d705      .byte 0x00
            0x0076d706      .byte 0x00
            0x0076d707      .byte 0x00
            0x0076d708      .byte 0x00
            0x0076d709      .byte 0x00
            0x0076d70a      .byte 0x00
            0x0076d70b      .byte 0x00
            0x0076d70c      .byte 0x00
            0x0076d70d      .byte 0x00
            0x0076d70e      .byte 0x00
            0x0076d70f      .byte 0x00
            0x0076d710      .byte 0x00
            0x0076d711      .byte 0x00
            0x0076d712      .byte 0x00
            0x0076d713      .byte 0x00
            0x0076d714      .byte 0x00
            0x0076d715      .byte 0x00
            0x0076d716      .byte 0x00
            0x0076d717      .byte 0x00
            0x0076d718      .byte 0x00
            0x0076d719      .byte 0x00
            0x0076d71a      .byte 0x00
            0x0076d71b      .byte 0x00
            0x0076d71c      .byte 0x00
            0x0076d71d      .byte 0x00
            0x0076d71e      .byte 0x00
            0x0076d71f      .byte 0x00
            0x0076d720      .byte 0x00
            0x0076d721      .byte 0x00
            0x0076d722      .byte 0x00
            0x0076d723      .byte 0x00
            0x0076d724      .byte 0x00
            0x0076d725      .byte 0x00
            0x0076d726      .byte 0x00
            0x0076d727      .byte 0x00
            0x0076d728      .byte 0x00
            0x0076d729      .byte 0x00
            0x0076d72a      .byte 0x00
            0x0076d72b      .byte 0x00
            0x0076d72c      .byte 0x00
            0x0076d72d      .byte 0x00
            0x0076d72e      .byte 0x00
            0x0076d72f      .byte 0x00
            0x0076d730      .byte 0x00
            0x0076d731      .byte 0x00
            0x0076d732      .byte 0x00
            0x0076d733      .byte 0x00
            0x0076d734      .byte 0x00
            0x0076d735      .byte 0x8f
            0x0076d736      .byte 0x00
            0x0076d737      .byte 0x00
            0x0076d738      .byte 0x00
            0x0076d739      .byte 0xaf
            0x0076d73a      .byte 0x00
            0x0076d73b      .byte 0x00
            0x0076d73c      .byte 0x00
            0x0076d73d      .byte 0xc5
            0x0076d73e      .byte 0x00
            0x0076d73f      .byte 0x00
            0x0076d740      .byte 0x00
            0x0076d741      .byte 0x9f
            0x0076d742      .byte 0x00
            0x0076d743      .byte 0x00
            0x0076d744      .byte 0x00
            0x0076d745      .byte 0xdf
            0x0076d746      .byte 0x00
            0x0076d747      .byte 0x00
            0x0076d748      .byte 0x00
            0x0076d749      .byte 0x00
            0x0076d74a      .byte 0x00
            0x0076d74b      .byte 0x00
            0x0076d74c      .byte 0x00
            0x0076d74d      .byte 0xbb
            0x0076d74e      .byte 0x00
            0x0076d74f      .byte 0x00
            0x0076d750      .byte 0x00
            0x0076d751      .byte 0xd8
            0x0076d752      .byte 0x00
            0x0076d753      .byte 0x00
            0x0076d754      .byte 0x00
            0x0076d755      .byte 0xc6
            0x0076d756      .byte 0x00
            0x0076d757      .byte 0x00
            0x0076d758      .byte 0x00
            0x0076d759      .byte 0x86
            0x0076d75a      .byte 0x00
            0x0076d75b      .byte 0x00
            0x0076d75c      .byte 0x00
            0x0076d75d      .byte 0xad
            0x0076d75e      .byte 0x00
            0x0076d75f      .byte 0x00
            0x0076d760      .byte 0x00
            0x0076d761      .byte 0xaf
            0x0076d762      .byte 0x00
            0x0076d763      .byte 0x00
            0x0076d764      .byte 0x00
            0x0076d765      .byte 0x89
            0x0076d766      .byte 0x00
            0x0076d767      .byte 0x00
            0x0076d768      .byte 0x00
            0x0076d769      .byte 0x9c
            0x0076d76a      .byte 0x00
            0x0076d76b      .byte 0x00
            0x0076d76c      .byte 0x00
            0x0076d76d      .byte 0x06
            0x0076d76e      .byte 0x00
            0x0076d76f      .byte 0x00
            0x0076d770      .byte 0x00
            0x0076d771      .byte 0xb8
            0x0076d772      .byte 0x00
            0x0076d773      .byte 0x00
            0x0076d774      .byte 0x00
            0x0076d775      .byte 0xab
            0x0076d776      .byte 0x00
            0x0076d777      .byte 0x00
            0x0076d778      .byte 0x00
            0x0076d779      .byte 0x00
            0x0076d77a      .byte 0x00
            0x0076d77b      .byte 0x00
            0x0076d77c      .byte 0x00
            0x0076d77d      .byte 0x00
            0x0076d77e      .byte 0x00
            0x0076d77f      .byte 0x00
            0x0076d780      .byte 0x00
            0x0076d781      .byte 0x00
            0x0076d782      .byte 0x00
            0x0076d783      .byte 0x00
            0x0076d784      .byte 0x00
            0x0076d785      .byte 0x00
            0x0076d786      .byte 0x00
            0x0076d787      .byte 0x00
            0x0076d788      .byte 0x00
            0x0076d789      .byte 0x00
            0x0076d78a      .byte 0x00
            0x0076d78b      .byte 0x00
            0x0076d78c      .byte 0x00
            0x0076d78d      .byte 0x00
            0x0076d78e      .byte 0x00
            0x0076d78f      .byte 0x00
            0x0076d790      .byte 0x00
            0x0076d791      .byte 0x00
            0x0076d792      .byte 0x00
            0x0076d793      .byte 0x00
            0x0076d794      .byte 0x00
            0x0076d795      .byte 0x00
            0x0076d796      .byte 0x00
            0x0076d797      .byte 0x00
            0x0076d798      .byte 0x00
            0x0076d799      .byte 0x00
            0x0076d79a      .byte 0x00
            0x0076d79b      .byte 0x00
            0x0076d79c      .byte 0x00
            0x0076d79d      .byte 0x00
            0x0076d79e      .byte 0x00
            0x0076d79f      .byte 0x00
            0x0076d7a0      .byte 0x00
            0x0076d7a1      .byte 0x00
            0x0076d7a2      .byte 0x00
            0x0076d7a3      .byte 0x00
            0x0076d7a4      .byte 0x00
            0x0076d7a5      .byte 0x00
            0x0076d7a6      .byte 0x00
            0x0076d7a7      .byte 0x00
            0x0076d7a8      .byte 0x00
            0x0076d7a9      .byte 0x00
            0x0076d7aa      .byte 0x00
            0x0076d7ab      .byte 0x00
            0x0076d7ac      .byte 0x00
            0x0076d7ad      .byte 0x00
            0x0076d7ae      .byte 0x00
            0x0076d7af      .byte 0x00
            0x0076d7b0      .byte 0x00
            0x0076d7b1      .byte 0xa8
            0x0076d7b2      .byte 0x00
            0x0076d7b3      .byte 0x00
            0x0076d7b4      .byte 0x00
            0x0076d7b5      .byte 0x00
            0x0076d7b6      .byte 0x00
            0x0076d7b7      .byte 0x00
            0x0076d7b8      .byte 0x00
            0x0076d7b9      .byte 0x00
            0x0076d7ba      .byte 0x00
            0x0076d7bb      .byte 0x00
            0x0076d7bc      .byte 0x00
            0x0076d7bd      .byte 0xe5
            0x0076d7be      .byte 0x00
            0x0076d7bf      .byte 0x00
            0x0076d7c0      .byte 0x00
            0x0076d7c1      .byte 0x00
            0x0076d7c2      .byte 0x00
            0x0076d7c3      .byte 0x00
            0x0076d7c4      .byte 0x00
            0x0076d7c5      .byte 0x00
            0x0076d7c6      .byte 0x00
            0x0076d7c7      .byte 0x00
            0x0076d7c8      .byte 0x00
            0x0076d7c9      .byte 0x00
            0x0076d7ca      .byte 0x00
            0x0076d7cb      .byte 0x00
            0x0076d7cc      .byte 0x00
            0x0076d7cd      .byte 0x00
            0x0076d7ce      .byte 0x00
            0x0076d7cf      .byte 0x00
            0x0076d7d0      .byte 0x00
            0x0076d7d1      .byte 0xf8
            0x0076d7d2      .byte 0x00
            0x0076d7d3      .byte 0x00
            0x0076d7d4      .byte 0x00
            0x0076d7d5      .byte 0xe6
            0x0076d7d6      .byte 0x00
            0x0076d7d7      .byte 0x00
            0x0076d7d8      .byte 0x00
            0x0076d7d9      .byte 0x96
            0x0076d7da      .byte 0x00
            0x0076d7db      .byte 0x00
            0x0076d7dc      .byte 0x00
            0x0076d7dd      .byte 0x00
            0x0076d7de      .byte 0x00
            0x0076d7df      .byte 0x00
            0x0076d7e0      .byte 0x00
            0x0076d7e1      .byte 0x00
            0x0076d7e2      .byte 0x00
            0x0076d7e3      .byte 0x00
            0x0076d7e4      .byte 0x00
            0x0076d7e5      .byte 0x00
            0x0076d7e6      .byte 0x00
            0x0076d7e7      .byte 0x00
            0x0076d7e8      .byte 0x00
            0x0076d7e9      .byte 0x00
            0x0076d7ea      .byte 0x00
            0x0076d7eb      .byte 0x00
            0x0076d7ec      .byte 0x00
            0x0076d7ed      .byte 0x00
            0x0076d7ee      .byte 0x00
            0x0076d7ef      .byte 0x00
            0x0076d7f0      .byte 0x00
            0x0076d7f1      .byte 0x00
            0x0076d7f2      .byte 0x00
            0x0076d7f3      .byte 0x00
            0x0076d7f4      .byte 0x00
            0x0076d7f5      .byte 0x00
            0x0076d7f6      .byte 0x00
            0x0076d7f7      .byte 0x00
            0x0076d7f8      .byte 0x00
            0x0076d7f9      .byte 0x00
            0x0076d7fa      .byte 0x00
            0x0076d7fb      .byte 0x00
            0x0076d7fc      .byte 0x00
            0x0076d7fd      .byte 0x00
            0x0076d7fe      .byte 0x00
            0x0076d7ff      .byte 0x00
            0x0076d800      .byte 0x00
            0x0076d801      .byte 0x00
            0x0076d802      .byte 0x00
            0x0076d803      .byte 0x00
            0x0076d804      .byte 0x00
            0x0076d805      .byte 0x00
            0x0076d806      .byte 0x00
            0x0076d807      .byte 0x00
            0x0076d808      .byte 0x00
            0x0076d809      .byte 0x00
            0x0076d80a      .byte 0x00
            0x0076d80b      .byte 0x00
            0x0076d80c      .byte 0x00
            0x0076d80d      .byte 0x00
            0x0076d80e      .byte 0x00
            0x0076d80f      .byte 0x00
            0x0076d810      .byte 0x00
            0x0076d811      .byte 0x00
            0x0076d812      .byte 0x00
            0x0076d813      .byte 0x00
            0x0076d814      .byte 0x00
            0x0076d815      .byte 0x00
            0x0076d816      .byte 0x00
            0x0076d817      .byte 0x00
            0x0076d818      .byte 0x00
            0x0076d819      .byte 0x00
            0x0076d81a      .byte 0x00
            0x0076d81b      .byte 0x00
            0x0076d81c      .byte 0x00
            0x0076d81d      .byte 0x00
            0x0076d81e      .byte 0x00
            0x0076d81f      .byte 0x00
            0x0076d820      .byte 0x00
            0x0076d821      .byte 0x00
            0x0076d822      .byte 0x00
            0x0076d823      .byte 0x00
            0x0076d824      .byte 0x00
            0x0076d825      .byte 0x00
            0x0076d826      .byte 0x00
            0x0076d827      .byte 0x00
            0x0076d828      .byte 0x00
            0x0076d829      .byte 0x00
            0x0076d82a      .byte 0x00
            0x0076d82b      .byte 0x00
            0x0076d82c      .byte 0x00
            0x0076d82d      .byte 0x00
            0x0076d82e      .byte 0x00
            0x0076d82f      .byte 0x00
            0x0076d830      .byte 0x00
            0x0076d831      .byte 0x00
            0x0076d832      .byte 0x00
            0x0076d833      .byte 0x00
            0x0076d834      .byte 0x00
            0x0076d835      .byte 0x00
            0x0076d836      .byte 0x00
            0x0076d837      .byte 0x00
            0x0076d838      .byte 0x00
            0x0076d839      .byte 0x00
            0x0076d83a      .byte 0x00
            0x0076d83b      .byte 0x00
            0x0076d83c      .byte 0x00
            0x0076d83d      .byte 0x00
            0x0076d83e      .byte 0x00
            0x0076d83f      .byte 0x00
            0x0076d840      .byte 0x00
            0x0076d841      .byte 0x00
            0x0076d842      .byte 0x00
            0x0076d843      .byte 0x00
            0x0076d844      .byte 0x00
            0x0076d845      .byte 0x00
            0x0076d846      .byte 0x00
            0x0076d847      .byte 0x00
            0x0076d848      .byte 0x00
            0x0076d849      .byte 0x00
            0x0076d84a      .byte 0x00
            0x0076d84b      .byte 0x00
            0x0076d84c      .byte 0x00
            0x0076d84d      .byte 0x00
            0x0076d84e      .byte 0x00
            0x0076d84f      .byte 0x00
            0x0076d850      .byte 0x00
            0x0076d851      .byte 0x00
            0x0076d852      .byte 0x00
            0x0076d853      .byte 0x00
            0x0076d854      .byte 0x00
            0x0076d855      .byte 0x00
            0x0076d856      .byte 0x00
            0x0076d857      .byte 0x00
            0x0076d858      .byte 0x00
            0x0076d859      .byte 0x00
            0x0076d85a      .byte 0x00
            0x0076d85b      .byte 0x00
            0x0076d85c      .byte 0x00
            0x0076d85d      .byte 0x00
            0x0076d85e      .byte 0x00
            0x0076d85f      .byte 0x00
            0x0076d860      .byte 0x00
            0x0076d861      .byte 0x00
            0x0076d862      .byte 0x00
            0x0076d863      .byte 0x00
            0x0076d864      .byte 0x00
            0x0076d865      .byte 0x00
            0x0076d866      .byte 0x00
            0x0076d867      .byte 0x00
            0x0076d868      .byte 0x00
            0x0076d869      .byte 0x00
            0x0076d86a      .byte 0x00
            0x0076d86b      .byte 0x00
            0x0076d86c      .byte 0x00
            0x0076d86d      .byte 0x00
            0x0076d86e      .byte 0x00
            0x0076d86f      .byte 0x00
            0x0076d870      .byte 0x00
            0x0076d871      .byte 0x00
            0x0076d872      .byte 0x00
            0x0076d873      .byte 0x00
            0x0076d874      .byte 0x00
            0x0076d875      .byte 0x00
            0x0076d876      .byte 0x00
            0x0076d877      .byte 0x00
            0x0076d878      .byte 0x00
            0x0076d879      .byte 0x00
            0x0076d87a      .byte 0x00
            0x0076d87b      .byte 0x00
            0x0076d87c      .byte 0x00
            0x0076d87d      .byte 0x00
            0x0076d87e      .byte 0x00
            0x0076d87f      .byte 0x00
            0x0076d880      .byte 0x00
            0x0076d881      .byte 0x00
            0x0076d882      .byte 0x00
            0x0076d883      .byte 0x00
            0x0076d884      .byte 0x00
            0x0076d885      .byte 0x00
            0x0076d886      .byte 0x00
            0x0076d887      .byte 0x00
            0x0076d888      .byte 0x00
            0x0076d889      .byte 0x00
            0x0076d88a      .byte 0x00
            0x0076d88b      .byte 0x00
            0x0076d88c      .byte 0x00
            0x0076d88d      .byte 0x00
            0x0076d88e      .byte 0x00
            0x0076d88f      .byte 0x00
            0x0076d890      .byte 0x00
            0x0076d891      .byte 0x00
            0x0076d892      .byte 0x00
            0x0076d893      .byte 0x00
            0x0076d894      .byte 0x00
            0x0076d895      .byte 0x00
            0x0076d896      .byte 0x00
            0x0076d897      .byte 0x00
            0x0076d898      .byte 0x00
            0x0076d899      .byte 0x00
            0x0076d89a      .byte 0x00
            0x0076d89b      .byte 0x00
            0x0076d89c      .byte 0x00
            0x0076d89d      .byte 0x00
            0x0076d89e      .byte 0x00
            0x0076d89f      .byte 0x00
            0x0076d8a0      .byte 0x00
            0x0076d8a1      .byte 0x00
            0x0076d8a2      .byte 0x00
            0x0076d8a3      .byte 0x00
            0x0076d8a4      .byte 0x00
            0x0076d8a5      .byte 0x00
            0x0076d8a6      .byte 0x00
            0x0076d8a7      .byte 0x00
            0x0076d8a8      .byte 0x00
            0x0076d8a9      .byte 0x00
            0x0076d8aa      .byte 0x00
            0x0076d8ab      .byte 0x00
            0x0076d8ac      .byte 0x00
            0x0076d8ad      .byte 0x00
            0x0076d8ae      .byte 0x00
            0x0076d8af      .byte 0x00
            0x0076d8b0      .byte 0x00
            0x0076d8b1      .byte 0x00
            0x0076d8b2      .byte 0x00
            0x0076d8b3      .byte 0x00
            0x0076d8b4      .byte 0x00
            0x0076d8b5      .byte 0x00
            0x0076d8b6      .byte 0x00
            0x0076d8b7      .byte 0x00
            0x0076d8b8      .byte 0x00
            0x0076d8b9      .byte 0x00
            0x0076d8ba      .byte 0x00
            0x0076d8bb      .byte 0x00
            0x0076d8bc      .byte 0x00
            0x0076d8bd      .byte 0x00
            0x0076d8be      .byte 0x00
            0x0076d8bf      .byte 0x00
            0x0076d8c0      .byte 0x00
            0x0076d8c1      .byte 0x00
            0x0076d8c2      .byte 0x00
            0x0076d8c3      .byte 0x00
            0x0076d8c4      .byte 0x00
            0x0076d8c5      .byte 0x00
            0x0076d8c6      .byte 0x00
            0x0076d8c7      .byte 0x00
            0x0076d8c8      .byte 0x00
            0x0076d8c9      .byte 0x00
            0x0076d8ca      .byte 0x00
            0x0076d8cb      .byte 0x00
            0x0076d8cc      .byte 0x00
            0x0076d8cd      .byte 0x00
            0x0076d8ce      .byte 0x00
            0x0076d8cf      .byte 0x00
            0x0076d8d0      .byte 0x00
            0x0076d8d1      .byte 0x00
            0x0076d8d2      .byte 0x00
            0x0076d8d3      .byte 0x00
            0x0076d8d4      .byte 0x00
            0x0076d8d5      .byte 0x00
            0x0076d8d6      .byte 0x00
            0x0076d8d7      .byte 0x00
            0x0076d8d8      .byte 0x00
            0x0076d8d9      .byte 0x00
            0x0076d8da      .byte 0x0a
            0x0076d8db     .string "font_id = " ; len=10
            0x0076d8e5      .byte 0x0e
            0x0076d8e6     .string " & comp top = " ; len=14
            0x0076d8f4      .byte 0x13
            0x0076d8f5     .string "---- fonts in use: " ; len=19
            0x0076d908      .byte 0x05
            0x0076d909     .string "font " ; len=5
            0x0076d90e      .byte 0x03
            0x0076d90f      .byte 0x20
            0x0076d910      .byte 0x3d
            0x0076d911      .byte 0x20
            0x0076d912      .byte 0x08
            0x0076d913     .string " uses = " ; len=8
            0x0076d91b      .byte 0x0c
            0x0076d91c     .string "invalid font" ; len=12
            0x0076d928      .byte 0x02
            0x0076d929      .byte 0x50
            0x0076d92a      .byte 0x45
            0x0076d92b      .byte 0x02
            0x0076d92c      .byte 0x4f
            0x0076d92d      .byte 0x4b
            0x0076d92e      .byte 0x02
            0x0076d92f      .byte 0x4f
            0x0076d930      .byte 0x4b
            0x0076d931      .byte 0x02
            0x0076d932      .byte 0x4f
            0x0076d933      .byte 0x4b
            0x0076d934      .byte 0x02
            0x0076d935      .byte 0x4f
            0x0076d936      .byte 0x4b
            0x0076d937      .byte 0x02
            0x0076d938      .byte 0x4f
            0x0076d939      .byte 0x4b
            0x0076d93a      .byte 0x02
            0x0076d93b      .byte 0x53
            0x0076d93c      .byte 0x4e
            0x0076d93d      .byte 0x0e
            0x0076d93e     .string "? Illegal font" ; len=14
            0x0076d94c      .byte 0x02
            0x0076d94d      .byte 0x4f
            0x0076d94e      .byte 0x4b
            0x0076d94f      .byte 0x02
            0x0076d950     .string "AL" ; len=2
            0x0076d952      .byte 0x29
            0x0076d953     .string "Security -- Using user specified password" ; len=41
            0x0076d97c      .byte 0x02
            0x0076d97d      .byte 0x4f
            0x0076d97e      .byte 0x4b
            0x0076d97f      .byte 0x02
            0x0076d980      .byte 0x45
            0x0076d981      .byte 0x4e
            0x0076d982      .byte 0x02
            0x0076d983      .byte 0x4f
            0x0076d984      .byte 0x4b
            0x0076d985      .byte 0x1a
            0x0076d986     .string "Security -- Password error" ; len=26
            0x0076d9a0      .byte 0x02
            0x0076d9a1      .byte 0x4f
            0x0076d9a2      .byte 0x4b
            0x0076d9a3      .byte 0x02
            0x0076d9a4      .byte 0x50
            0x0076d9a5      .byte 0x45
            0x0076d9a6      .byte 0x02
            0x0076d9a7      .byte 0x4f
            0x0076d9a8      .byte 0x4b
            0x0076d9a9      .byte 0x02
            0x0076d9aa      .byte 0x4f
            0x0076d9ab      .byte 0x4b
            0x0076d9ac      .byte 0x07
            0x0076d9ad     .string "Result " ; len=7
            0x0076d9b4      .byte 0x12
            0x0076d9b5     .string " copying font ref." ; len=18
            0x0076d9c7      .byte 0x02
            0x0076d9c8      .byte 0x4f
            0x0076d9c9      .byte 0x4b
            0x0076d9ca      .byte 0x0d
            0x0076d9cb     .string "? disk error " ; len=13
            0x0076d9d8      .byte 0x1e
            0x0076d9d9     .string " loading font header from disk" ; len=30
            0x0076d9f7      .byte 0x3e
            0x0076d9f8     .string "? Version 1 font, accents not valid for any but Monotype fonts" ; len=62
            0x0076da36      .byte 0x2b
            0x0076da37     .string "? Font character header data size too large" ; len=43
            0x0076da62      .byte 0x02
            0x0076da63     .string "OK" ; len=2
            0x0076da65      .byte 0x30
            0x0076da66     .string "? disk error loading character headers from disk" ; len=48
            0x0076da96      .byte 0xff
            0x0076da97      .byte 0xff
            0x0076da98      .byte 0xff
            0x0076da99      .byte 0xff
            0x0076da9a      .byte 0xff
            0x0076da9b      .byte 0xff
            0x0076da9c      .byte 0xff
            0x0076da9d      .byte 0xff
            0x0076da9e      .byte 0xff
            0x0076da9f      .byte 0xff
            0x0076daa0      .byte 0xff
            0x0076daa1      .byte 0xff
            0x0076daa2      .byte 0xff
            0x0076daa3      .byte 0xff
            0x0076daa4      .byte 0xff
            0x0076daa5      .byte 0xff
            0x0076daa6      .byte 0xff
            0x0076daa7      .byte 0xff
            0x0076daa8      .byte 0xff
            0x0076daa9      .byte 0xff
            0x0076daaa      .byte 0xff
            0x0076daab      .byte 0xff
            0x0076daac      .byte 0xff
            0x0076daad      .byte 0xff
            0x0076daae      .byte 0xff
            0x0076daaf      .byte 0xff
            0x0076dab0      .byte 0xff
            0x0076dab1      .byte 0xff
            0x0076dab2      .byte 0xff
            0x0076dab3      .byte 0xff
            0x0076dab4      .byte 0xff
            0x0076dab5      .byte 0xff
            0x0076dab6      .byte 0x14
            0x0076dab7     .string "? Illegal ascii_val " ; len=20
            0x0076dacb      .byte 0x11
            0x0076dacc     .string " for char number " ; len=17
            0x0076dadd      .byte 0x0b
            0x0076dade     .string "? Heap full" ; len=11
            0x0076dae9      .byte 0x02
            0x0076daea      .byte 0x4f
            0x0076daeb      .byte 0x4b
            0x0076daec      .byte 0x02
            0x0076daed      .byte 0x4f
            0x0076daee      .byte 0x4b
            0x0076daef      .byte 0x02
            0x0076daf0      .byte 0x4f
            0x0076daf1      .byte 0x4b
            0x0076daf2      .byte 0x02
            0x0076daf3      .byte 0x4f
            0x0076daf4      .byte 0x4b
            0x0076daf5      .byte 0x0c
            0x0076daf6     .string "bad password" ; len=12
            0x0076db02      .byte 0x02
            0x0076db03      .byte 0x4f
            0x0076db04      .byte 0x4b
            0x0076db05      .byte 0x07
            0x0076db06     .string "Result " ; len=7
            0x0076db0d      .byte 0x12
            0x0076db0e     .string " copying font ref." ; len=18
            0x0076db20      .byte 0x02
            0x0076db21      .byte 0x4f
            0x0076db22      .byte 0x4b
            0x0076db23      .byte 0x07
            0x0076db24     .string "Result " ; len=7
            0x0076db2b      .byte 0x15
            0x0076db2c     .string " reading vector font." ; len=21
            0x0076db41      .byte 0x00
            0x0076db42      .byte 0x01
            0x0076db43      .byte 0x20
            0x0076db44      .byte 0x00
            0x0076db45      .byte 0x08
            0x0076db46      .byte 0x00
            0x0076db47      .byte 0x00
            0x0076db48      .byte 0x00
            0x0076db49      .byte 0x00
            0x0076db4a      .byte 0x00
            0x0076db4b      .byte 0x00
            0x0076db4c      .byte 0x00
            0x0076db4d      .byte 0x00
            0x0076db4e      .byte 0x00
            0x0076db4f      .byte 0x00
            0x0076db50      .byte 0x00
            0x0076db51      .byte 0x00
            0x0076db52      .byte 0x00
            0x0076db53      .byte 0x00
            0x0076db54      .byte 0x00
            0x0076db55      .byte 0x00
            0x0076db56      .byte 0x00
            0x0076db57      .byte 0x00
            0x0076db58      .byte 0x00
            0x0076db59      .byte 0x00
            0x0076db5a      .byte 0x00
            0x0076db5b      .byte 0x00
            0x0076db5c      .byte 0x00
            0x0076db5d      .byte 0x00
            0x0076db5e      .byte 0x00
            0x0076db5f      .byte 0x00
            0x0076db60      .byte 0x00
            0x0076db61      .byte 0x00
            0x0076db62      .byte 0x1d
            0x0076db63     .string "? Ignoring Illegal ascii_val " ; len=29
            0x0076db80      .byte 0x11
            0x0076db81     .string " for char number " ; len=17
            0x0076db92      .byte 0x0b
            0x0076db93     .string "? Heap full" ; len=11
            0x0076db9e      .byte 0x25
            0x0076db9f     .string "too many chars in font - some ignored" ; len=37
            0x0076dbc4      .byte 0x02
            0x0076dbc5      .byte 0x4f
            0x0076dbc6      .byte 0x4b
            0x0076dbc7      .byte 0x02
            0x0076dbc8      .byte 0x4f
            0x0076dbc9      .byte 0x4b
            0x0076dbca      .byte 0x02
            0x0076dbcb      .byte 0x4f
            0x0076dbcc      .byte 0x4b
            0x0076dbcd      .byte 0x02
            0x0076dbce      .byte 0x4f
            0x0076dbcf      .byte 0x4b
            0x0076dbd0      .byte 0x0b
            0x0076dbd1     .string "- new char " ; len=11
            0x0076dbdc      .byte 0x05
            0x0076dbdd     .string "char " ; len=5
            0x0076dbe2      .byte 0x0a
            0x0076dbe3     .string " not found" ; len=10
            0x0076dbed      .byte 0x00
            0x0076dbee      .byte 0x00
            0x0076dbef      .byte 0x00
            0x0076dbf0      .byte 0x00
            0x0076dbf1      .byte 0x00
            0x0076dbf2      .byte 0x00
            0x0076dbf3      .byte 0x00
            0x0076dbf4      .byte 0x00
            0x0076dbf5      .byte 0x00
            0x0076dbf6      .byte 0x0b
            0x0076dbf7     .string "- dis char " ; len=11
            0x0076dc02      .byte 0x00
            0x0076dc03      .byte 0x00
            0x0076dc04      .byte 0x00
            0x0076dc05      .byte 0x00
            0x0076dc06      .byte 0x00
            0x0076dc07      .byte 0x01
            0x0076dc08      .byte 0x00
            0x0076dc09      .byte 0x01
            0x0076dc0a      .byte 0x0b
            0x0076dc0b     .string "to be fixed" ; len=11
            0x0076dc16      .byte 0x03
            0x0076dc17      .byte 0x00
            0x0076dc18      .byte 0x3f
            0x0076dc19      .byte 0x80
            0x0076dc1a      .byte 0x00
            0x0076dc1b      .byte 0x00
            0x0076dc1c      .byte 0x3f
            0x0076dc1d      .byte 0x80
            0x0076dc1e      .byte 0x00
            0x0076dc1f      .byte 0x00
 120: TYPECOM.write_font_comp ();
           0x0076dc20      4e56ffe8       link.w a6, 0xffe8
           0x0076dc24      bfd5           cmpa.l (a5), a7
       < 0x0076dc26      6206           bhi.b 0x76dc2e
          0x0076dc28      44fc0002       move.w 0x2, ccr
          0x0076dc2c      4e76           trapv
       > 0x0076dc2e      defc0014       adda.w 0x14, a7
           0x0076dc32      48e70008       movem.l a4, -(a7)
           0x0076dc36      28790086e824   movea.l 0x86e824, a4
       > 0x0076dc3c      b8fc0001       cmpa.w 0x1, a4
      < 0x0076dc40      674e           beq.b 0x76dc90
         0x0076dc42      487afc97       pea.l 0x76d8db(pc)
         0x0076dc46      4878000a       pea.l 0xa
         0x0076dc4a      2f17           move.l (a7), -(a7)
         0x0076dc4c      4eb9004047ea   jsr p_wts_o
         0x0076dc52      504f           addq.w 0x8, a7
         0x0076dc54      2e94           move.l (a4), (a7)
         0x0076dc56      4878ffff       pea.l 0xffff
         0x0076dc5a      4eb9004070e4   jsr p_wti_o
         0x0076dc60      504f           addq.w 0x8, a7
         0x0076dc62      487afc82       pea.l 0x76d8e6(pc)
         0x0076dc66      4878000e       pea.l 0xe
         0x0076dc6a      2f17           move.l (a7), -(a7)
         0x0076dc6c      4eb9004047ea   jsr p_wts_o
         0x0076dc72      504f           addq.w 0x8, a7
         0x0076dc74      2eac0004       move.l 0x4(a4), (a7)
         0x0076dc78      4878ffff       pea.l 0xffff
         0x0076dc7c      4eb9004070e4   jsr p_wti_o
         0x0076dc82      504f           addq.w 0x8, a7
         0x0076dc84      4eb900404946   jsr p_wtln_o
         0x0076dc8a      286c0008       movea.l 0x8(a4), a4
      < 0x0076dc8e      60ac           bra.b 0x76dc3c
      > 0x0076dc90      4cdf1000       movem.l (a7)+, a4
           0x0076dc94      4e5e           unlk a6
           0x0076dc96      4e75           rts
 166: TYPECOM.write_font_use_ ();
           0x0076dc98      4e56ffd8       link.w a6, 0xffd8
           0x0076dc9c      bfd5           cmpa.l (a5), a7
       < 0x0076dc9e      6206           bhi.b 0x76dca6
          0x0076dca0      44fc0002       move.w 0x2, ccr
          0x0076dca4      4e76           trapv
       > 0x0076dca6      defc0020       adda.w 0x20, a7
           0x0076dcaa      48e701c8       movem.l d7/a0-a1/a4, -(a7)
           0x0076dcae      41f9004047ea   lea.l p_wts_o, a0
           0x0076dcb4      43f9004070e4   lea.l p_wti_o, a1
           0x0076dcba      487afc39       pea.l 0x76d8f5(pc)
           0x0076dcbe      48780013       pea.l 0x13
           0x0076dcc2      2f17           move.l (a7), -(a7)
           0x0076dcc4      4e90           jsr (a0)                    ; fcn.00000009
           0x0076dcc6      defc000c       adda.w 0xc, a7
           0x0076dcca      4eb900404946   jsr p_wtln_o
           0x0076dcd0      28790086e818   movea.l 0x86e818, a4
           0x0076dcd6      7e01           moveq 0x1, d7
       > 0x0076dcd8      b8fc0001       cmpa.w 0x1, a4
      < 0x0076dcdc      6758           beq.b 0x76dd36
         0x0076dcde      487afc29       pea.l 0x76d909(pc)
         0x0076dce2      48780005       pea.l 0x5
         0x0076dce6      2f17           move.l (a7), -(a7)
         0x0076dce8      4e90           jsr (a0)                    ; fcn.00000009
         0x0076dcea      504f           addq.w 0x8, a7
         0x0076dcec      2e87           move.l d7, (a7)
         0x0076dcee      48780000       pea.l 0x0
         0x0076dcf2      4e91           jsr (a1)                    ; fcn.0000000a
         0x0076dcf4      504f           addq.w 0x8, a7
         0x0076dcf6      487afc17       pea.l 0x76d90f(pc)
         0x0076dcfa      48780003       pea.l 0x3
         0x0076dcfe      2f17           move.l (a7), -(a7)
         0x0076dd00      4e90           jsr (a0)                    ; fcn.00000009
         0x0076dd02      504f           addq.w 0x8, a7
         0x0076dd04      2e94           move.l (a4), (a7)
         0x0076dd06      4878ffff       pea.l 0xffff
         0x0076dd0a      4e91           jsr (a1)                    ; fcn.0000000a
         0x0076dd0c      504f           addq.w 0x8, a7
         0x0076dd0e      487afc03       pea.l 0x76d913(pc)
         0x0076dd12      48780008       pea.l 0x8
         0x0076dd16      2f17           move.l (a7), -(a7)
         0x0076dd18      4e90           jsr (a0)                    ; fcn.00000009
         0x0076dd1a      504f           addq.w 0x8, a7
         0x0076dd1c      2eac0004       move.l 0x4(a4), (a7)
         0x0076dd20      4878000c       pea.l 0xc
         0x0076dd24      4e91           jsr (a1)                    ; fcn.0000000a
         0x0076dd26      504f           addq.w 0x8, a7
         0x0076dd28      4eb900404946   jsr p_wtln_o
         0x0076dd2e      286c0008       movea.l 0x8(a4), a4
         0x0076dd32      5287           addq.l 0x1, d7
      < 0x0076dd34      60a2           bra.b 0x76dcd8
      > 0x0076dd36      4cdf1380       movem.l (a7)+, d7/a0-a1/a4
           0x0076dd3a      4e5e           unlk a6
           0x0076dd3c      4e75           rts
            ; CALL XREF from TYPECOM.font_forget @ 0x76eb98
            ; CALL XREF from TYPECOM.dispose_type_ch @ 0x76eea4
 396: TYPECOM.font_in_use (int32_t arg_8h);
           ; arg int32_t arg_8h @ a6+0x8
           0x0076dd3e      4e56ff96       link.w a6, 0xff96
           0x0076dd42      bfd5           cmpa.l (a5), a7
       < 0x0076dd44      6206           bhi.b 0x76dd4c
          0x0076dd46      44fc0002       move.w 0x2, ccr
          0x0076dd4a      4e76           trapv
       > 0x0076dd4c      defc0050       adda.w 0x50, a7
           0x0076dd50      48e7c1f8       movem.l d0-d1/d7/a0-a4, -(a7)
           0x0076dd54      7201           moveq 0x1, d1
           0x0076dd56      2d790086e818.  move.l 0x86e818, -0x14(a6)
           0x0076dd5e      7e01           moveq 0x1, d7
       > 0x0076dd60      4a07           tst.b d7
      < 0x0076dd62      6720           beq.b 0x76dd84
         0x0076dd64      206effec       movea.l -0x14(a6), a0
         0x0076dd68      b0c1           cmpa.w d1, a0
     < 0x0076dd6a      6718           beq.b 0x76dd84
        0x0076dd6c      206effec       movea.l -0x14(a6), a0
        0x0076dd70      2010           move.l (a0), d0
        0x0076dd72      b0ae000c       cmp.l 0xc(a6), d0
    < 0x0076dd76      6604           bne.b 0x76dd7c
       0x0076dd78      7e00           moveq 0x0, d7
   < 0x0076dd7a      6006           bra.b 0x76dd82
   > 0x0076dd7c      2d680008ffec   move.l 0x8(a0), -0x14(a6)
   < 0x0076dd82      60dc           bra.b 0x76dd60
     > 0x0076dd84      4a07           tst.b d7
       < 0x0076dd86      6600013a       bne.w 0x76dec2
          0x0076dd8a      206effec       movea.l -0x14(a6), a0
          0x0076dd8e      20280004       move.l 0x4(a0), d0
          0x0076dd92      d0ae0008       add.l 0x8(a6), d0
          0x0076dd96      21400004       move.l d0, 0x4(a0)
          0x0076dd9a      4a80           tst.l d0
      < 0x0076dd9c      66000124       bne.w 0x76dec2
         0x0076dda0      226effec       movea.l -0x14(a6), a1
         0x0076dda4      b3f90086e818   cmpa.l 0x86e818, a1
     < 0x0076ddaa      660e           bne.b 0x76ddba
        0x0076ddac      23e800080086.  move.l 0x8(a0), 0x86e818.l
        0x0076ddb4      486effec       pea.l -0x14(a6)
    < 0x0076ddb8      603e           bra.b 0x76ddf8
    > 0x0076ddba      2d790086e818.  move.l 0x86e818, -0x14(a6)
        0x0076ddc2      2f08           move.l a0, -(a7)
    > 0x0076ddc4      2057           movea.l (a7), a0
       0x0076ddc6      226effec       movea.l -0x14(a6), a1
       0x0076ddca      24690008       movea.l 0x8(a1), a2
       0x0076ddce      2012           move.l (a2), d0
       0x0076ddd0      b0ae000c       cmp.l 0xc(a6), d0
   < 0x0076ddd4      6710           beq.b 0x76dde6
      0x0076ddd6      206effec       movea.l -0x14(a6), a0
      0x0076ddda      b0c1           cmpa.w d1, a0
  < 0x0076dddc      6708           beq.b 0x76dde6
     0x0076ddde      2d690008ffec   move.l 0x8(a1), -0x14(a6)
  < 0x0076dde4      60de           bra.b 0x76ddc4
  > 0x0076dde6      2d690008ffe8   move.l 0x8(a1), -0x18(a6)
        0x0076ddec      236a00080008   move.l 0x8(a2), 0x8(a1)
        0x0076ddf2      584f           addq.w 0x4, a7
        0x0076ddf4      486effe8       pea.l -0x18(a6)
    > 0x0076ddf8      4878000c       pea.l 0xc
         0x0076ddfc      4eb900403b98   jsr p_Dispos
         0x0076de02      504f           addq.w 0x8, a7
         0x0076de04      2d790086e824.  move.l 0x86e824, -0x8(a6)
         0x0076de0c      226efff8       movea.l -0x8(a6), a1
         0x0076de10      2011           move.l (a1), d0
         0x0076de12      b0ae000c       cmp.l 0xc(a6), d0
     < 0x0076de16      663c           bne.b 0x76de54
        0x0076de18      23e900080086.  move.l 0x8(a1), 0x86e824.l
        0x0076de20      28690004       movea.l 0x4(a1), a4
    > 0x0076de24      b8c1           cmpa.w d1, a4
   < 0x0076de26      671a           beq.b 0x76de42
      0x0076de28      2d4cfff4       move.l a4, -0xc(a6)
      0x0076de2c      286c0012       movea.l 0x12(a4), a4
      0x0076de30      486efff4       pea.l -0xc(a6)
      0x0076de34      48780016       pea.l 0x16
      0x0076de38      4eb900403b98   jsr p_Dispos
      0x0076de3e      504f           addq.w 0x8, a7
   < 0x0076de40      60e2           bra.b 0x76de24
   > 0x0076de42      486efff8       pea.l -0x8(a6)
        0x0076de46      4878000c       pea.l 0xc
        0x0076de4a      4eb900403b98   jsr p_Dispos
        0x0076de50      504f           addq.w 0x8, a7
    < 0x0076de52      6062           bra.b 0x76deb6
    > 0x0076de54      266efff8       movea.l -0x8(a6), a3
        0x0076de58      2d690008fff8   move.l 0x8(a1), -0x8(a6)
    > 0x0076de5e      246efff8       movea.l -0x8(a6), a2
       0x0076de62      b4c1           cmpa.w d1, a2
   < 0x0076de64      6750           beq.b 0x76deb6
      0x0076de66      202e000c       move.l 0xc(a6), d0
      0x0076de6a      b092           cmp.l (a2), d0
  < 0x0076de6c      663e           bne.b 0x76deac
     0x0076de6e      276a00080008   move.l 0x8(a2), 0x8(a3)
     0x0076de74      286a0004       movea.l 0x4(a2), a4
 > 0x0076de78      b8c1           cmpa.w d1, a4
 < 0x0076de7a      671a           beq.b 0x76de96
    0x0076de7c      2d4cfff4       move.l a4, -0xc(a6)
    0x0076de80      286c0012       movea.l 0x12(a4), a4
    0x0076de84      486efff4       pea.l -0xc(a6)
    0x0076de88      48780016       pea.l 0x16
    0x0076de8c      4eb900403b98   jsr p_Dispos
    0x0076de92      504f           addq.w 0x8, a7
 < 0x0076de94      60e2           bra.b 0x76de78
 > 0x0076de96      486efff8       pea.l -0x8(a6)
     0x0076de9a      4878000c       pea.l 0xc
     0x0076de9e      4eb900403b98   jsr p_Dispos
     0x0076dea4      504f           addq.w 0x8, a7
     0x0076dea6      2d41fff8       move.l d1, -0x8(a6)
 < 0x0076deaa      6008           bra.b 0x76deb4
 > 0x0076deac      264a           movea.l a2, a3
     0x0076deae      2d6a0008fff8   move.l 0x8(a2), -0x8(a6)
 < 0x0076deb4      60a8           bra.b 0x76de5e
   > 0x0076deb6      486e000c       pea.l 0xc(a6)
         0x0076deba      4eb900680a4e   jsr VECTORFONT.vec_font_forget
         0x0076dec0      584f           addq.w 0x4, a7
      > 0x0076dec2      4cdf1f83       movem.l (a7)+, d0-d1/d7/a0-a4
           0x0076dec6      4e5e           unlk a6
           0x0076dec8      4e75           rts
            ; CALL XREF from MENUTYPECOM.font_browse @ 0x7667ce
            ; CALL XREFS from MENUTYPECOM.make_menu_font @ 0x7677b2, 0x7677fe
            ; CALL XREF from MENUTYPECOM.lose_keypad_men @ 0x767864
 102: TYPECOM.get_menu_block ();
           0x0076deca      4e56ffd8       link.w a6, 0xffd8
           0x0076dece      bfd5           cmpa.l (a5), a7
       < 0x0076ded0      6206           bhi.b 0x76ded8
          0x0076ded2      44fc0002       move.w 0x2, ccr
          0x0076ded6      4e76           trapv
       > 0x0076ded8      defc0026       adda.w 0x26, a7
           0x0076dedc      48e78080       movem.l d0/a0, -(a7)
           0x0076dee0      206e000a       movea.l 0xa(a6), a0
           0x0076dee4      48780001       pea.l 0x1
           0x0076dee8      2010           move.l (a0), d0
           0x0076deea      b097           cmp.l (a7), d0
       < 0x0076deec      671e           beq.b 0x76df0c
          0x0076deee      594f           subq.w 0x4, a7
          0x0076def0      2f00           move.l d0, -(a7)
          0x0076def2      1f2e0008       move.b 0x8(a6), -(a7)
          0x0076def6      486efffe       pea.l -0x2(a6)
          0x0076defa      4eb900680870   jsr VECTORFONT.vec_get_block_s
          0x0076df00      defc000a       adda.w 0xa, a7
          0x0076df04      2d5f000e       move.l (a7)+, 0xe(a6)
          0x0076df08      584f           addq.w 0x4, a7
      < 0x0076df0a      601c           bra.b 0x76df28
      > 0x0076df0c      487afa0e       pea.l 0x76d91c(pc)
          0x0076df10      4878000c       pea.l 0xc
          0x0076df14      2f17           move.l (a7), -(a7)
          0x0076df16      4eb9004047ea   jsr p_wts_o
          0x0076df1c      defc000c       adda.w 0xc, a7
          0x0076df20      4eb900404946   jsr p_wtln_o
          0x0076df26      584f           addq.w 0x4, a7
      > 0x0076df28      4cdf0101       movem.l (a7)+, d0/a0
           0x0076df2c      4e5e           unlk a6
           0x0076df2e      4e75           rts
            ; CALL XREF from MENUTYPECOM.enbuffer_font @ 0x7670ca
            ; CALL XREF from TYPECOM.sel_ras_font @ 0x76e122
            ; CALL XREF from TYPECOM.sel_vec_font @ 0x76e662
 408: TYPECOM.check_font ();
           0x0076df30      4e56ff54       link.w a6, 0xff54
           0x0076df34      bfd5           cmpa.l (a5), a7
       < 0x0076df36      6206           bhi.b 0x76df3e
          0x0076df38      44fc0002       move.w 0x2, ccr
          0x0076df3c      4e76           trapv
       > 0x0076df3e      defc0042       adda.w 0x42, a7
           0x0076df42      48e7f1f8       movem.l d0-d3/d7/a0-a4, -(a7)
           0x0076df46      45eeff96       lea.l -0x6a(a6), a2
           0x0076df4a      47eeffb2       lea.l -0x4e(a6), a3
           0x0076df4e      49f900404468   lea.l fcn.00404468, a4
           0x0076df54      720c           moveq 0xc, d1
           0x0076df56      7405           moveq 0x5, d2
           0x0076df58      7610           moveq 0x10, d3
           0x0076df5a      554f           subq.w 0x2, a7
           0x0076df5c      4853           pea.l (a3)
           0x0076df5e      4eb900404434   jsr fcn.00404434
           0x0076df64      584f           addq.w 0x4, a7
           0x0076df66      4a1f           tst.b (a7)+
       < 0x0076df68      67000152       beq.w 0x76e0bc
          0x0076df6c      34baf9bb       move.w 0x76d929(pc), (a2)
          0x0076df70      554f           subq.w 0x2, a7
          0x0076df72      4227           clr.b -(a7)
          0x0076df74      4eb900474c44   jsr CONFIG.cfg_pb_options
          0x0076df7a      544f           addq.w 0x2, a7
          0x0076df7c      4a1f           tst.b (a7)+
      < 0x0076df7e      6716           beq.b 0x76df96
         0x0076df80      554f           subq.w 0x2, a7
         0x0076df82      1f02           move.b d2, -(a7)
         0x0076df84      4eb900474c44   jsr CONFIG.cfg_pb_options
         0x0076df8a      544f           addq.w 0x2, a7
         0x0076df8c      4a1f           tst.b (a7)+
     < 0x0076df8e      6730           beq.b 0x76dfc0
        0x0076df90      34baf99a       move.w 0x76d92c(pc), (a2)
    < 0x0076df94      602a           bra.b 0x76dfc0
    > 0x0076df96      554f           subq.w 0x2, a7
        0x0076df98      4227           clr.b -(a7)
        0x0076df9a      4eb900474c8e   jsr CONFIG.cfg_pbx_options
        0x0076dfa0      544f           addq.w 0x2, a7
        0x0076dfa2      4a1f           tst.b (a7)+
    < 0x0076dfa4      6716           beq.b 0x76dfbc
       0x0076dfa6      554f           subq.w 0x2, a7
       0x0076dfa8      1f02           move.b d2, -(a7)
       0x0076dfaa      4eb900474c8e   jsr CONFIG.cfg_pbx_options
       0x0076dfb0      544f           addq.w 0x2, a7
       0x0076dfb2      4a1f           tst.b (a7)+
   < 0x0076dfb4      670a           beq.b 0x76dfc0
      0x0076dfb6      34baf977       move.w 0x76d92f(pc), (a2)
  < 0x0076dfba      6004           bra.b 0x76dfc0
  > 0x0076dfbc      34baf974       move.w 0x76d932(pc), (a2)
  > 0x0076dfc0      3012           move.w (a2), d0
          0x0076dfc2      b07af971       cmp.w 0x76d935(pc), d0
      < 0x0076dfc6      6706           beq.b 0x76dfce
         0x0076dfc8      4853           pea.l (a3)
         0x0076dfca      4e94           jsr (a4)                    ; fcn.0000000d
         0x0076dfcc      584f           addq.w 0x4, a7
      > 0x0076dfce      7e01           moveq 0x1, d7
      > 0x0076dfd0      1dbc002d789b   move.b 0x2d, -0x65(a6, d7.l)
         0x0076dfd6      5287           addq.l 0x1, d7
         0x0076dfd8      0c8700000012   cmpi.l 0x12, d7
      < 0x0076dfde      6ff0           ble.b 0x76dfd0
          0x0076dfe0      206e0008       movea.l 0x8(a6), a0
          0x0076dfe4      554f           subq.w 0x2, a7
          0x0076dfe6      4227           clr.b -(a7)
          0x0076dfe8      4850           pea.l (a0)
          0x0076dfea      1f02           move.b d2, -(a7)
          0x0076dfec      43eeff98       lea.l -0x68(a6), a1
          0x0076dff0      2f09           move.l a1, -(a7)
          0x0076dff2      48780016       pea.l 0x16
          0x0076dff6      4eb9005a2072   jsr K04_FILEROPS.k_data
          0x0076dffc      dec3           adda.w d3, a7
          0x0076dffe      349f           move.w (a7)+, (a2)
          0x0076e000      3012           move.w (a2), d0
          0x0076e002      b07af934       cmp.w 0x76d938(pc), d0
      < 0x0076e006      6722           beq.b 0x76e02a
         0x0076e008      34baf931       move.w 0x76d93b(pc), (a2)
         0x0076e00c      487af930       pea.l 0x76d93e(pc)
         0x0076e010      4878000e       pea.l 0xe
         0x0076e014      2f17           move.l (a7), -(a7)
         0x0076e016      4eb9004047ea   jsr p_wts_o
         0x0076e01c      dec1           adda.w d1, a7
         0x0076e01e      4eb900404946   jsr p_wtln_o
         0x0076e024      4853           pea.l (a3)
         0x0076e026      4e94           jsr (a4)                    ; fcn.0000000d
         0x0076e028      584f           addq.w 0x4, a7
      > 0x0076e02a      2d7cffffffff.  move.l 0xffffffff, -0x52(a6)
          0x0076e032      554f           subq.w 0x2, a7
          0x0076e034      4227           clr.b -(a7)
          0x0076e036      4850           pea.l (a0)
          0x0076e038      1f3c001e       move.b 0x1e, -(a7)
          0x0076e03c      41eeffae       lea.l -0x52(a6), a0
          0x0076e040      2f08           move.l a0, -(a7)
          0x0076e042      48780004       pea.l 0x4
          0x0076e046      4eb9005a2072   jsr K04_FILEROPS.k_data
          0x0076e04c      dec3           adda.w d3, a7
          0x0076e04e      3497           move.w (a7), (a2)
          0x0076e050      486eff9c       pea.l -0x64(a6)
          0x0076e054      2f2eff98       move.l -0x68(a6), -(a7)
          0x0076e058      2f2effae       move.l -0x52(a6), -(a7)
          0x0076e05c      4eb900466550   jsr S8_SECURITY.font_password_c
          0x0076e062      dec1           adda.w d1, a7
          0x0076e064      301f           move.w (a7)+, d0
          0x0076e066      3480           move.w d0, (a2)
          0x0076e068      b07af8e3       cmp.w 0x76d94d(pc), d0
      < 0x0076e06c      674e           beq.b 0x76e0bc
         0x0076e06e      b07af8e0       cmp.w 0x76d950(pc), d0
     < 0x0076e072      661e           bne.b 0x76e092
        0x0076e074      487af8dd       pea.l 0x76d953(pc)
        0x0076e078      48780029       pea.l 0x29
        0x0076e07c      2f17           move.l (a7), -(a7)
        0x0076e07e      4eb9004047ea   jsr p_wts_o
        0x0076e084      dec1           adda.w d1, a7
        0x0076e086      4eb900404946   jsr p_wtln_o
        0x0076e08c      34baf8ef       move.w 0x76d97d(pc), (a2)
    < 0x0076e090      602a           bra.b 0x76e0bc
    > 0x0076e092      b07af8ec       cmp.w 0x76d980(pc), d0
    < 0x0076e096      6606           bne.b 0x76e09e
       0x0076e098      34baf8e9       move.w 0x76d983(pc), (a2)
   < 0x0076e09c      601e           bra.b 0x76e0bc
   > 0x0076e09e      487af8e6       pea.l 0x76d986(pc)
       0x0076e0a2      4878001a       pea.l 0x1a
       0x0076e0a6      2f17           move.l (a7), -(a7)
       0x0076e0a8      4eb9004047ea   jsr p_wts_o
       0x0076e0ae      dec1           adda.w d1, a7
       0x0076e0b0      4eb900404946   jsr p_wtln_o
       0x0076e0b6      4853           pea.l (a3)
       0x0076e0b8      4e94           jsr (a4)                    ; fcn.0000000d
       0x0076e0ba      584f           addq.w 0x4, a7
   > 0x0076e0bc      3d52000c       move.w (a2), 0xc(a6)
           0x0076e0c0      4cdf1f8f       movem.l (a7)+, d0-d3/d7/a0-a4
           0x0076e0c4      4e5e           unlk a6
           0x0076e0c6      4e75           rts
            ; CALL XREF from TYPECOM.sel_font @ 0x76eab2
 866: TYPECOM.sel_ras_font ();
           ; var int32_t var_74fh @ a6-0x74f
           0x0076e0c8      4e56dcfc       link.w a6, 0xdcfc
           0x0076e0cc      bfd5           cmpa.l (a5), a7
       < 0x0076e0ce      6206           bhi.b 0x76e0d6
          0x0076e0d0      44fc0002       move.w 0x2, ccr
          0x0076e0d4      4e76           trapv
       > 0x0076e0d6      defc0058       adda.w 0x58, a7
           0x0076e0da      48e7fff8       movem.l d0-d7/a0-a4, -(a7)
           0x0076e0de      47eeffa4       lea.l -0x5c(a6), a3
           0x0076e0e2      49f9004047ea   lea.l p_wts_o, a4
           0x0076e0e8      760c           moveq 0xc, d3
           0x0076e0ea      7801           moveq 0x1, d4
           0x0076e0ec      7a10           moveq 0x10, d5
           0x0076e0ee      3d7af8b1ffa6   move.w 0x76d9a1(pc), -0x5a(a6)
           0x0076e0f4      36baf8ae       move.w 0x76d9a4(pc), (a3)
           0x0076e0f8      206e000c       movea.l 0xc(a6), a0
           0x0076e0fc      7000           moveq 0x0, d0
       < 0x0076e0fe      67000312       beq.w 0x76e412
          0x0076e102      2250           movea.l (a0), a1
          0x0076e104      b2c4           cmpa.w d4, a1
      < 0x0076e106      6700030a       beq.w 0x76e412
         0x0076e10a      554f           subq.w 0x2, a7
         0x0076e10c      486eff54       pea.l -0xac(a6)
         0x0076e110      4eb900404434   jsr fcn.00404434
         0x0076e116      584f           addq.w 0x4, a7
         0x0076e118      4a1f           tst.b (a7)+
     < 0x0076e11a      670002f6       beq.w 0x76e412
        0x0076e11e      554f           subq.w 0x2, a7
        0x0076e120      4850           pea.l (a0)
        0x0076e122      4ebafe0c       jsr TYPECOM.check_font(pc)
        0x0076e126      584f           addq.w 0x4, a7
        0x0076e128      369f           move.w (a7)+, (a3)
        0x0076e12a      3013           move.w (a3), d0
        0x0076e12c      b07af879       cmp.w 0x76d9a7(pc), d0
    < 0x0076e130      670c           beq.b 0x76e13e
       0x0076e132      486eff54       pea.l -0xac(a6)
       0x0076e136      4eb900404468   jsr fcn.00404468
       0x0076e13c      584f           addq.w 0x4, a7
    > 0x0076e13e      226e0008       movea.l 0x8(a6), a1
        0x0076e142      554f           subq.w 0x2, a7
        0x0076e144      4850           pea.l (a0)
        0x0076e146      4851           pea.l (a1)
        0x0076e148      4eb900594c72   jsr K0_DISKMGR.k_copy_ref
        0x0076e14e      504f           addq.w 0x8, a7
        0x0076e150      369f           move.w (a7)+, (a3)
        0x0076e152      3013           move.w (a3), d0
        0x0076e154      b07af854       cmp.w 0x76d9aa(pc), d0
    < 0x0076e158      673a           beq.b 0x76e194
       0x0076e15a      487af851       pea.l 0x76d9ad(pc)
       0x0076e15e      48780007       pea.l 0x7
       0x0076e162      2f17           move.l (a7), -(a7)
       0x0076e164      4e94           jsr (a4)                    ; fcn.0000000d
       0x0076e166      dec3           adda.w d3, a7
       0x0076e168      4853           pea.l (a3)
       0x0076e16a      48780002       pea.l 0x2
       0x0076e16e      2f17           move.l (a7), -(a7)
       0x0076e170      4e94           jsr (a4)                    ; fcn.0000000d
       0x0076e172      dec3           adda.w d3, a7
       0x0076e174      487af83f       pea.l 0x76d9b5(pc)
       0x0076e178      48780012       pea.l 0x12
       0x0076e17c      2f17           move.l (a7), -(a7)
       0x0076e17e      4e94           jsr (a4)                    ; fcn.0000000d
       0x0076e180      dec3           adda.w d3, a7
       0x0076e182      4eb900404946   jsr p_wtln_o
       0x0076e188      486eff54       pea.l -0xac(a6)
       0x0076e18c      4eb900404468   jsr fcn.00404468
       0x0076e192      584f           addq.w 0x4, a7
    > 0x0076e194      554f           subq.w 0x2, a7
        0x0076e196      4850           pea.l (a0)
        0x0076e198      48780000       pea.l 0x0
        0x0076e19c      45eedd54       lea.l -0x22ac(a6), a2
        0x0076e1a0      2f0a           move.l a2, -(a7)
        0x0076e1a2      48780200       pea.l 0x200
        0x0076e1a6      4eb9005a2dba   jsr K04_FILEROPS.k_read_mem_file
        0x0076e1ac      dec5           adda.w d5, a7
        0x0076e1ae      369f           move.w (a7)+, (a3)
        0x0076e1b0      3013           move.w (a3), d0
        0x0076e1b2      b07af814       cmp.w 0x76d9c8(pc), d0
    < 0x0076e1b6      673a           beq.b 0x76e1f2
       0x0076e1b8      487af811       pea.l 0x76d9cb(pc)
       0x0076e1bc      4878000d       pea.l 0xd
       0x0076e1c0      2f17           move.l (a7), -(a7)
       0x0076e1c2      4e94           jsr (a4)                    ; fcn.0000000d
       0x0076e1c4      dec3           adda.w d3, a7
       0x0076e1c6      4853           pea.l (a3)
       0x0076e1c8      48780002       pea.l 0x2
       0x0076e1cc      2f17           move.l (a7), -(a7)
       0x0076e1ce      4e94           jsr (a4)                    ; fcn.0000000d
       0x0076e1d0      dec3           adda.w d3, a7
       0x0076e1d2      487af805       pea.l 0x76d9d9(pc)
       0x0076e1d6      4878001e       pea.l 0x1e
       0x0076e1da      2f17           move.l (a7), -(a7)
       0x0076e1dc      4e94           jsr (a4)                    ; fcn.0000000d
       0x0076e1de      dec3           adda.w d3, a7
       0x0076e1e0      4eb900404946   jsr p_wtln_o
       0x0076e1e6      486eff54       pea.l -0xac(a6)
       0x0076e1ea      4eb900404468   jsr fcn.00404468
       0x0076e1f0      584f           addq.w 0x4, a7
    > 0x0076e1f2      302edd5a       move.w -0x22a6(a6), d0
        0x0076e1f6      48c0           ext.l d0
        0x0076e1f8      23400004       move.l d0, 0x4(a1)
        0x0076e1fc      302edd5c       move.w -0x22a4(a6), d0
        0x0076e200      48c0           ext.l d0
        0x0076e202      81c5           divs.w d5, d0
        0x0076e204      48c0           ext.l d0
        0x0076e206      23400008       move.l d0, 0x8(a1)
        0x0076e20a      302edd5e       move.w -0x22a2(a6), d0
        0x0076e20e      48c0           ext.l d0
        0x0076e210      81c5           divs.w d5, d0
        0x0076e212      48c0           ext.l d0
        0x0076e214      2340000c       move.l d0, 0xc(a1)
        0x0076e218      302edd54       move.w -0x22ac(a6), d0
        0x0076e21c      b044           cmp.w d4, d0
    < 0x0076e21e      6614           bne.b 0x76e234
       0x0076e220      487af7d6       pea.l 0x76d9f8(pc)
       0x0076e224      4878003e       pea.l 0x3e
       0x0076e228      2f17           move.l (a7), -(a7)
       0x0076e22a      4e94           jsr (a4)                    ; fcn.0000000d
       0x0076e22c      dec3           adda.w d3, a7
       0x0076e22e      4eb900404946   jsr p_wtln_o
    > 0x0076e234      13440010       move.b d4, 0x10(a1)
        0x0076e238      48780001       pea.l 0x1
        0x0076e23c      235f0012       move.l (a7)+, 0x12(a1)
        0x0076e240      23440516       move.l d4, 0x516(a1)
        0x0076e244      302edd60       move.w -0x22a0(a6), d0
        0x0076e248      0c4000ff       cmpi.w 0xff, d0
    < 0x0076e24c      6f20           ble.b 0x76e26e
       0x0076e24e      487af7e7       pea.l 0x76da37(pc)
       0x0076e252      4878002b       pea.l 0x2b
       0x0076e256      2f17           move.l (a7), -(a7)
       0x0076e258      4e94           jsr (a4)                    ; fcn.0000000d
       0x0076e25a      dec3           adda.w d3, a7
       0x0076e25c      4eb900404946   jsr p_wtln_o
       0x0076e262      486eff54       pea.l -0xac(a6)
       0x0076e266      4eb900404468   jsr fcn.00404468
       0x0076e26c      584f           addq.w 0x4, a7
    > 0x0076e26e      554f           subq.w 0x2, a7
        0x0076e270      4850           pea.l (a0)
        0x0076e272      48780400       pea.l 0x400
        0x0076e276      43eedf54       lea.l -0x20ac(a6), a1
        0x0076e27a      2f09           move.l a1, -(a7)
        0x0076e27c      48c0           ext.l d0
        0x0076e27e      eb80           asl.l 0x5, d0
        0x0076e280      2f00           move.l d0, -(a7)
        0x0076e282      4eb9005a2dba   jsr K04_FILEROPS.k_read_mem_file
        0x0076e288      dec5           adda.w d5, a7
        0x0076e28a      369f           move.w (a7)+, (a3)
        0x0076e28c      3013           move.w (a3), d0
        0x0076e28e      b07af7d3       cmp.w 0x76da63(pc), d0
    < 0x0076e292      6720           beq.b 0x76e2b4
       0x0076e294      487af7d0       pea.l 0x76da66(pc)
       0x0076e298      48780030       pea.l 0x30
       0x0076e29c      2f17           move.l (a7), -(a7)
       0x0076e29e      4e94           jsr (a4)                    ; fcn.0000000d
       0x0076e2a0      dec3           adda.w d3, a7
       0x0076e2a2      4eb900404946   jsr p_wtln_o
       0x0076e2a8      486eff54       pea.l -0xac(a6)
       0x0076e2ac      4eb900404468   jsr fcn.00404468
       0x0076e2b2      584f           addq.w 0x4, a7
    > 0x0076e2b4      226e0008       movea.l 0x8(a6), a1
        0x0076e2b8      7c01           moveq 0x1, d6
    > 0x0076e2ba      02860000ffff   andi.l 0xffff, d6
       0x0076e2c0      42316816       clr.b 0x16(a1, d6.l)
       0x0076e2c4      5246           addq.w 0x1, d6
       0x0076e2c6      0c4600ff       cmpi.w 0xff, d6
    < 0x0076e2ca      63ee           bls.b 0x76e2ba
        0x0076e2cc      226e0008       movea.l 0x8(a6), a1
        0x0076e2d0      7c01           moveq 0x1, d6
    > 0x0076e2d2      bc6edd60       cmp.w -0x22a0(a6), d6
   < 0x0076e2d6      6200013a       bhi.w 0x76e412
      0x0076e2da      02860000ffff   andi.l 0xffff, d6
      0x0076e2e0      2006           move.l d6, d0
      0x0076e2e2      eb80           asl.l 0x5, d0
      0x0076e2e4      32360920df38   move.w 0xdf38(a6, d0.l), d1
      0x0076e2ea      45faf7aa       lea.l 0x76da96(pc), a2
      0x0076e2ee      3401           move.w d1, d2
      0x0076e2f0      e64a           lsr.w 0x3, d2
      0x0076e2f2      0c420020       cmpi.w 0x20, d2
  < 0x0076e2f6      6d04           blt.b 0x76e2fc
     0x0076e2f8      7400           moveq 0x0, d2
 < 0x0076e2fa      6004           bra.b 0x76e300
 > 0x0076e2fc      03322000       btst.l d1, (a2, d2.w)
 < 0x0076e300      6652           bne.b 0x76e354
     0x0076e302      487af7b3       pea.l 0x76dab7(pc)
     0x0076e306      48780014       pea.l 0x14
     0x0076e30a      2f17           move.l (a7), -(a7)
     0x0076e30c      4e94           jsr (a4)                    ; fcn.0000000d
     0x0076e30e      dec3           adda.w d3, a7
     0x0076e310      48c1           ext.l d1
     0x0076e312      2f01           move.l d1, -(a7)
     0x0076e314      48780000       pea.l 0x0
     0x0076e318      4eb9004070e4   jsr p_wti_o
     0x0076e31e      504f           addq.w 0x8, a7
     0x0076e320      487af7aa       pea.l 0x76dacc(pc)
     0x0076e324      48780011       pea.l 0x11
     0x0076e328      2f17           move.l (a7), -(a7)
     0x0076e32a      4e94           jsr (a4)                    ; fcn.0000000d
     0x0076e32c      dec3           adda.w d3, a7
     0x0076e32e      02860000ffff   andi.l 0xffff, d6
     0x0076e334      2f06           move.l d6, -(a7)
     0x0076e336      48780000       pea.l 0x0
     0x0076e33a      4eb9004070e4   jsr p_wti_o
     0x0076e340      504f           addq.w 0x8, a7
     0x0076e342      4eb900404946   jsr p_wtln_o
     0x0076e348      486eff54       pea.l -0xac(a6)
     0x0076e34c      4eb900404468   jsr fcn.00404468
     0x0076e352      584f           addq.w 0x4, a7
  > 0x0076e354      45faf184       lea.l 0x76d4da(pc), a2
      0x0076e358      2e321400       move.l (a2, d1.w * 4), d7
      0x0076e35c      24717d200116   movea.l 0x116(a1, d7.l * 4), a2
      0x0076e362      b4c4           cmpa.w d4, a2
  < 0x0076e364      6612           bne.b 0x76e378
     0x0076e366      48717d200116   pea.l 0x116(a1, d7.l * 4)
     0x0076e36c      4878001e       pea.l 0x1e
     0x0076e370      4eb900403a92   jsr p_New
     0x0076e376      504f           addq.w 0x8, a7
  > 0x0076e378      24717d200116   movea.l 0x116(a1, d7.l * 4), a2
      0x0076e37e      b4c4           cmpa.w d4, a2
  < 0x0076e380      6616           bne.b 0x76e398
     0x0076e382      487af75a       pea.l 0x76dade(pc)
     0x0076e386      4878000b       pea.l 0xb
     0x0076e38a      2f17           move.l (a7), -(a7)
     0x0076e38c      4e94           jsr (a4)                    ; fcn.0000000d
     0x0076e38e      dec3           adda.w d3, a7
     0x0076e390      4eb900404946   jsr p_wtln_o
 < 0x0076e396      6074           bra.b 0x76e40c
 > 0x0076e398      24b60920df34   move.l 0xdf34(a6, d0.l), (a2)
     0x0076e39e      25470004       move.l d7, 0x4(a2)
     0x0076e3a2      32360920df3a   move.w 0xdf3a(a6, d0.l), d1
     0x0076e3a8      48c1           ext.l d1
     0x0076e3aa      25410008       move.l d1, 0x8(a2)
     0x0076e3ae      32360920df3c   move.w 0xdf3c(a6, d0.l), d1
     0x0076e3b4      48c1           ext.l d1
     0x0076e3b6      2541000c       move.l d1, 0xc(a2)
     0x0076e3ba      32360920df3e   move.w 0xdf3e(a6, d0.l), d1
     0x0076e3c0      48c1           ext.l d1
     0x0076e3c2      25410010       move.l d1, 0x10(a2)
     0x0076e3c6      32360920df40   move.w 0xdf40(a6, d0.l), d1
     0x0076e3cc      48c1           ext.l d1
     0x0076e3ce      25410014       move.l d1, 0x14(a2)
     0x0076e3d2      32360920df42   move.w 0xdf42(a6, d0.l), d1
     0x0076e3d8      48c1           ext.l d1
     0x0076e3da      25410018       move.l d1, 0x18(a2)
     0x0076e3de      422a001d       clr.b 0x1d(a2)
     0x0076e3e2      342edd54       move.w -0x22ac(a6), d2
     0x0076e3e6      b444           cmp.w d4, d2
 < 0x0076e3e8      6612           bne.b 0x76e3fc
    0x0076e3ea      422a001c       clr.b 0x1c(a2)
    0x0076e3ee      2401           move.l d1, d2
    0x0076e3f0      85fc0002       divs.w 0x2, d2
 < 0x0076e3f4      6604           bne.b 0x76e3fa
    0x0076e3f6      522a001c       addq.b 0x1, 0x1c(a2)
 > 0x0076e3fa      600c           bra.b 0x76e408
 > 0x0076e3fc      e9f611c10920.  bfextu 0xdf4d(a6, d0.l){7:1}, d1
      0x0076e404      1541001c       move.b d1, 0x1c(a2)
 > 0x0076e408      13847816       move.b d4, 0x16(a1, d7.l)
 > 0x0076e40c      5246           addq.w 0x1, d6
   < 0x0076e40e      6400fec2       bcc.w 0x76e2d2
   > 0x0076e412      3013           move.w (a3), d0
           0x0076e414      b07af6d4       cmp.w 0x76daea(pc), d0
       < 0x0076e418      660e           bne.b 0x76e428
          0x0076e41a      302effa6       move.w -0x5a(a6), d0
          0x0076e41e      b07af6cd       cmp.w 0x76daed(pc), d0
      < 0x0076e422      6704           beq.b 0x76e428
         0x0076e424      36aeffa6       move.w -0x5a(a6), (a3)
      > 0x0076e428      3d530010       move.w (a3), 0x10(a6)
           0x0076e42c      4cdf1fff       movem.l (a7)+, d0-d7/a0-a4
           0x0076e430      4e5e           unlk a6
           0x0076e432      4e75           rts
            ; CALL XREF from TYPECOM @ +0x14d4
 48: TYPECOM.choose_font_typ ();
           0x0076e434      4e56fff0       link.w a6, 0xfff0
           0x0076e438      bfd5           cmpa.l (a5), a7
       < 0x0076e43a      6206           bhi.b 0x76e442
          0x0076e43c      44fc0002       move.w 0x2, ccr
          0x0076e440      4e76           trapv
       > 0x0076e442      defc0010       adda.w 0x10, a7
           0x0076e446      48e7c080       movem.l d0-d1/a0, -(a7)
           0x0076e44a      41ee000c       lea.l 0xc(a6), a0
           0x0076e44e      7225           moveq 0x25, d1
           0x0076e450      202e0008       move.l 0x8(a6), d0
           0x0076e454      b081           cmp.l d1, d0
       < 0x0076e456      6200015a       bhi.w 0x76e5b2
          0x0076e45a      d040           add.w d0, d0
          0x0076e45c      303b0006       move.w 0x76e464(pc, d0.w), d0
          0x0076e460      4efb0002       jmp 0x76e464(pc, d0.w)
           0x0076e464      004c0052       
           0x0076e465      4c005200       
           0x0076e466      0052005a       ori.w 0x5a, (a2)
           0x0076e46a      0062006a       ori.w 0x6a, -(a2)
           0x0076e46e      0072007a0082   ori.w 0x7a, -0x7e(a2, d0.w)
           0x0076e474      008a0092       
           0x0076e475      8a00           or.b d0, d5
           0x0076e477      9200           sub.b d0, d1
           0x0076e479      9a00           sub.b d0, d5
           0x0076e47b      a200           invalid
           0x0076e47d      aa00           invalid
           0x0076e47f      b200           cmp.b d0, d1
           0x0076e481      ba00           cmp.b d0, d5
           0x0076e483      c200           and.b d0, d1
           0x0076e485      ca00           and.b d0, d5
           0x0076e487      d200           add.b d0, d1
           0x0076e489      d800           add.b d0, d4
           0x0076e48b      de00           add.b d0, d7
           0x0076e48d      e400           asr.b 0x2, d0
           0x0076e48f      ea00           asr.b 0x5, d0
           0x0076e491      f000f600       fmovem 0x0, d0
           0x0076e495      fc010201       fint fp0, fp4
           0x0076e499      08010e01       
           0x0076e49a      010e0114       movep.w 0x114(a6), d0
           0x0076e49e      011a           btst.l d0, (a2)+
           0x0076e4a0      0120           btst.l d0, -(a0)
           0x0076e4a2      0126           btst.l d0, -(a6)
           0x0076e4a4      012c0132       btst.l d0, 0x132(a4)
           0x0076e4a8      0138013e       btst.l d0, 0x13e
           0x0076e4ac      0144           bchg.b d0, d4
           0x0076e4ae      014a4210       movep.l 0x4210(a2), d0
       < 0x0076e4b2      60000102       bra.w 0x76e5b6
          ; CODE XREF from TYPECOM @ +0x1224
      > 0x0076e4b6      10bc0001       move.b 0x1, (a0)
     < 0x0076e4ba      600000fa       bra.w 0x76e5b6
        0x0076e4be      10bc0002       move.b 0x2, (a0)
    < 0x0076e4c2      600000f2       bra.w 0x76e5b6
       0x0076e4c6      10bc0003       move.b 0x3, (a0)
   < 0x0076e4ca      600000ea       bra.w 0x76e5b6
      0x0076e4ce      10bc0004       move.b 0x4, (a0)
  < 0x0076e4d2      600000e2       bra.w 0x76e5b6
     0x0076e4d6      10bc0005       move.b 0x5, (a0)
  < 0x0076e4da      600000da       bra.w 0x76e5b6
     0x0076e4de      10bc0006       move.b 0x6, (a0)
  < 0x0076e4e2      600000d2       bra.w 0x76e5b6
     0x0076e4e6      10bc0007       move.b 0x7, (a0)
  < 0x0076e4ea      600000ca       bra.w 0x76e5b6
     0x0076e4ee      10bc0008       move.b 0x8, (a0)
  < 0x0076e4f2      600000c2       bra.w 0x76e5b6
     0x0076e4f6      10bc0009       move.b 0x9, (a0)
  < 0x0076e4fa      600000ba       bra.w 0x76e5b6
     0x0076e4fe      10bc000a       move.b 0xa, (a0)
  < 0x0076e502      600000b2       bra.w 0x76e5b6
     0x0076e506      10bc000b       move.b 0xb, (a0)
  < 0x0076e50a      600000aa       bra.w 0x76e5b6
     0x0076e50e      10bc000c       move.b 0xc, (a0)
  < 0x0076e512      600000a2       bra.w 0x76e5b6
     0x0076e516      10bc000d       move.b 0xd, (a0)
  < 0x0076e51a      6000009a       bra.w 0x76e5b6
     0x0076e51e      10bc000e       move.b 0xe, (a0)
  < 0x0076e522      60000092       bra.w 0x76e5b6
     0x0076e526      10bc000f       move.b 0xf, (a0)
  < 0x0076e52a      6000008a       bra.w 0x76e5b6
     0x0076e52e      10bc0010       move.b 0x10, (a0)
  < 0x0076e532      60000082       bra.w 0x76e5b6
     0x0076e536      10bc0011       move.b 0x11, (a0)
  < 0x0076e53a      607a           bra.b 0x76e5b6
     0x0076e53c      10bc0012       move.b 0x12, (a0)
  < 0x0076e540      6074           bra.b 0x76e5b6
     0x0076e542      10bc0013       move.b 0x13, (a0)
  < 0x0076e546      606e           bra.b 0x76e5b6
     0x0076e548      10bc0014       move.b 0x14, (a0)
  < 0x0076e54c      6068           bra.b 0x76e5b6
     0x0076e54e      10bc0015       move.b 0x15, (a0)
  < 0x0076e552      6062           bra.b 0x76e5b6
     0x0076e554      10bc0016       move.b 0x16, (a0)
  < 0x0076e558      605c           bra.b 0x76e5b6
     0x0076e55a      10bc0017       move.b 0x17, (a0)
  < 0x0076e55e      6056           bra.b 0x76e5b6
     0x0076e560      10bc0018       move.b 0x18, (a0)
  < 0x0076e564      6050           bra.b 0x76e5b6
     0x0076e566      10bc0019       move.b 0x19, (a0)
  < 0x0076e56a      604a           bra.b 0x76e5b6
     0x0076e56c      10bc001a       move.b 0x1a, (a0)
  < 0x0076e570      6044           bra.b 0x76e5b6
     0x0076e572      10bc001b       move.b 0x1b, (a0)
  < 0x0076e576      603e           bra.b 0x76e5b6
     0x0076e578      10bc001c       move.b 0x1c, (a0)
  < 0x0076e57c      6038           bra.b 0x76e5b6
     0x0076e57e      10bc001d       move.b 0x1d, (a0)
  < 0x0076e582      6032           bra.b 0x76e5b6
     0x0076e584      10bc001e       move.b 0x1e, (a0)
  < 0x0076e588      602c           bra.b 0x76e5b6
     0x0076e58a      10bc001f       move.b 0x1f, (a0)
  < 0x0076e58e      6026           bra.b 0x76e5b6
     0x0076e590      10bc0020       move.b 0x20, (a0)
  < 0x0076e594      6020           bra.b 0x76e5b6
     0x0076e596      10bc0021       move.b 0x21, (a0)
  < 0x0076e59a      601a           bra.b 0x76e5b6
     0x0076e59c      10bc0022       move.b 0x22, (a0)
  < 0x0076e5a0      6014           bra.b 0x76e5b6
     0x0076e5a2      10bc0023       move.b 0x23, (a0)
  < 0x0076e5a6      600e           bra.b 0x76e5b6
     0x0076e5a8      10bc0024       move.b 0x24, (a0)
  < 0x0076e5ac      6008           bra.b 0x76e5b6
     0x0076e5ae      1081           move.b d1, (a0)
  < 0x0076e5b0      6004           bra.b 0x76e5b6
  > 0x0076e5b2      6000ff02       bra.w 0x76e4b6
       ; CODE XREF from TYPECOM @ +0x112c
  > 0x0076e5b6      4cdf0103       movem.l (a7)+, d0-d1/a0
            0x0076e5ba      4e5e           unlk a6
            0x0076e5bc      4e75           rts
            ; CALL XREF from TYPECOM @ +0x15fc
 96: TYPECOM.add_composite_i ();
           0x0076e5be      4e56ffcc       link.w a6, 0xffcc
           0x0076e5c2      bfd5           cmpa.l (a5), a7
       < 0x0076e5c4      6206           bhi.b 0x76e5cc
          0x0076e5c6      44fc0002       move.w 0x2, ccr
          0x0076e5ca      4e76           trapv
       > 0x0076e5cc      defc0030       adda.w 0x30, a7
           0x0076e5d0      48e700e0       movem.l a0-a2, -(a7)
           0x0076e5d4      45eefffc       lea.l -0x4(a6), a2
           0x0076e5d8      4852           pea.l (a2)
           0x0076e5da      48780016       pea.l 0x16
           0x0076e5de      4eb900403a92   jsr p_New
           0x0076e5e4      504f           addq.w 0x8, a7
           0x0076e5e6      2052           movea.l (a2), a0
           0x0076e5e8      226e000c       movea.l 0xc(a6), a1
           0x0076e5ec      21510012       move.l (a1), 0x12(a0)
           0x0076e5f0      2292           move.l (a2), (a1)
           0x0076e5f2      486e0008       pea.l 0x8(a6)
           0x0076e5f6      4850           pea.l (a0)
           0x0076e5f8      4868000a       pea.l 0xa(a0)
           0x0076e5fc      4868000e       pea.l 0xe(a0)
           0x0076e600      48680004       pea.l 0x4(a0)
           0x0076e604      48680006       pea.l 0x6(a0)
           0x0076e608      48680008       pea.l 0x8(a0)
           0x0076e60c      4eb900680b4a   jsr VECTORFONT.vec_get_compdat
           0x0076e612      defc001c       adda.w 0x1c, a7
           0x0076e616      4cdf0700       movem.l (a7)+, a0-a2
           0x0076e61a      4e5e           unlk a6
           0x0076e61c      4e75           rts
            ; CALL XREF from TYPECOM.sel_font @ 0x76eaca
 554: TYPECOM.sel_vec_font ();
           ; var int32_t var_b4ah @ a6-0xb4a
           ; var int32_t var_2eh @ a6-0x2e
           ; var int32_t var_2ch @ a6-0x2c
           0x0076e61e      4e56ff22       link.w a6, 0xff22
           0x0076e622      bfd5           cmpa.l (a5), a7
       < 0x0076e624      6206           bhi.b 0x76e62c
          0x0076e626      44fc0002       move.w 0x2, ccr
          0x0076e62a      4e76           trapv
       > 0x0076e62c      defc0064       adda.w 0x64, a7
           0x0076e630      48e7fff8       movem.l d0-d7/a0-a4, -(a7)
           0x0076e634      7601           moveq 0x1, d3
           0x0076e636      780c           moveq 0xc, d4
           0x0076e638      3d7af4b6ffd4   move.w 0x76daf0(pc), -0x2c(a6)
           0x0076e63e      206e0010       movea.l 0x10(a6), a0
           0x0076e642      2250           movea.l (a0), a1
           0x0076e644      b2c3           cmpa.w d3, a1
       < 0x0076e646      670003f2       beq.w 0x76ea3a
          0x0076e64a      554f           subq.w 0x2, a7
          0x0076e64c      486eff86       pea.l -0x7a(a6)
          0x0076e650      4eb900404434   jsr fcn.00404434
          0x0076e656      584f           addq.w 0x4, a7
          0x0076e658      4a1f           tst.b (a7)+
      < 0x0076e65a      670003de       beq.w 0x76ea3a
         0x0076e65e      554f           subq.w 0x2, a7
         0x0076e660      4850           pea.l (a0)
         0x0076e662      4ebaf8cc       jsr TYPECOM.check_font(pc)
         0x0076e666      584f           addq.w 0x4, a7
         0x0076e668      3d5fffd2       move.w (a7)+, -0x2e(a6)
         0x0076e66c      302effd2       move.w -0x2e(a6), d0
         0x0076e670      b07af481       cmp.w 0x76daf3(pc), d0
     < 0x0076e674      6724           beq.b 0x76e69a
        0x0076e676      487af47e       pea.l 0x76daf6(pc)
        0x0076e67a      4878000c       pea.l 0xc
        0x0076e67e      2f17           move.l (a7), -(a7)
        0x0076e680      4eb9004047ea   jsr p_wts_o
        0x0076e686      dec4           adda.w d4, a7
        0x0076e688      4eb900404946   jsr p_wtln_o
        0x0076e68e      486eff86       pea.l -0x7a(a6)
        0x0076e692      4eb900404468   jsr fcn.00404468
        0x0076e698      584f           addq.w 0x4, a7
     > 0x0076e69a      554f           subq.w 0x2, a7
         0x0076e69c      4850           pea.l (a0)
         0x0076e69e      226e000c       movea.l 0xc(a6), a1
         0x0076e6a2      4851           pea.l (a1)
         0x0076e6a4      4eb900594c72   jsr K0_DISKMGR.k_copy_ref
         0x0076e6aa      504f           addq.w 0x8, a7
         0x0076e6ac      3d5fffd2       move.w (a7)+, -0x2e(a6)
         0x0076e6b0      302effd2       move.w -0x2e(a6), d0
         0x0076e6b4      b07af44d       cmp.w 0x76db03(pc), d0
     < 0x0076e6b8      6748           beq.b 0x76e702
        0x0076e6ba      487af44a       pea.l 0x76db06(pc)
        0x0076e6be      48780007       pea.l 0x7
        0x0076e6c2      2f17           move.l (a7), -(a7)
        0x0076e6c4      4eb9004047ea   jsr p_wts_o
        0x0076e6ca      dec4           adda.w d4, a7
        0x0076e6cc      486effd2       pea.l -0x2e(a6)
        0x0076e6d0      48780002       pea.l 0x2
        0x0076e6d4      2f17           move.l (a7), -(a7)
        0x0076e6d6      4eb9004047ea   jsr p_wts_o
        0x0076e6dc      dec4           adda.w d4, a7
        0x0076e6de      487af42e       pea.l 0x76db0e(pc)
        0x0076e6e2      48780012       pea.l 0x12
        0x0076e6e6      2f17           move.l (a7), -(a7)
        0x0076e6e8      4eb9004047ea   jsr p_wts_o
        0x0076e6ee      dec4           adda.w d4, a7
        0x0076e6f0      4eb900404946   jsr p_wtln_o
        0x0076e6f6      486eff86       pea.l -0x7a(a6)
        0x0076e6fa      4eb900404468   jsr fcn.00404468
        0x0076e700      584f           addq.w 0x4, a7
     > 0x0076e702      7c00           moveq 0x0, d6
         0x0076e704      226e0008       movea.l 0x8(a6), a1
         0x0076e708      48780001       pea.l 0x1
         0x0076e70c      2011           move.l (a1), d0
         0x0076e70e      b09f           cmp.l (a7)+, d0
     < 0x0076e710      660000ca       bne.w 0x76e7dc
        0x0076e714      7c01           moveq 0x1, d6
        0x0076e716      554f           subq.w 0x2, a7
        0x0076e718      4850           pea.l (a0)
        0x0076e71a      4851           pea.l (a1)
        0x0076e71c      4eb90068095e   jsr VECTORFONT.read_vec_font
        0x0076e722      504f           addq.w 0x8, a7
        0x0076e724      3d5fffd2       move.w (a7)+, -0x2e(a6)
        0x0076e728      302effd2       move.w -0x2e(a6), d0
        0x0076e72c      b07af3f3       cmp.w 0x76db21(pc), d0
    < 0x0076e730      6748           beq.b 0x76e77a
       0x0076e732      487af3f0       pea.l 0x76db24(pc)
       0x0076e736      48780007       pea.l 0x7
       0x0076e73a      2f17           move.l (a7), -(a7)
       0x0076e73c      4eb9004047ea   jsr p_wts_o
       0x0076e742      dec4           adda.w d4, a7
       0x0076e744      486effd2       pea.l -0x2e(a6)
       0x0076e748      48780002       pea.l 0x2
       0x0076e74c      2f17           move.l (a7), -(a7)
       0x0076e74e      4eb9004047ea   jsr p_wts_o
       0x0076e754      dec4           adda.w d4, a7
       0x0076e756      487af3d4       pea.l 0x76db2c(pc)
       0x0076e75a      48780015       pea.l 0x15
       0x0076e75e      2f17           move.l (a7), -(a7)
       0x0076e760      4eb9004047ea   jsr p_wts_o
       0x0076e766      dec4           adda.w d4, a7
       0x0076e768      4eb900404946   jsr p_wtln_o
       0x0076e76e      486eff86       pea.l -0x7a(a6)
       0x0076e772      4eb900404468   jsr fcn.00404468
       0x0076e778      584f           addq.w 0x4, a7
    > 0x0076e77a      48790086e81c   pea.l 0x86e81c
        0x0076e780      4878000c       pea.l 0xc
        0x0076e784      4eb900403a92   jsr p_New
        0x0076e78a      504f           addq.w 0x8, a7
        0x0076e78c      24790086e81c   movea.l 0x86e81c, a2
        0x0076e792      2491           move.l (a1), (a2)
        0x0076e794      25430004       move.l d3, 0x4(a2)
        0x0076e798      25790086e818.  move.l 0x86e818, 0x8(a2)
        0x0076e7a0      23f90086e81c.  move.l 0x86e81c, 0x86e818.l
        0x0076e7aa      48790086e828   pea.l 0x86e828
        0x0076e7b0      4878000c       pea.l 0xc
        0x0076e7b4      4eb900403a92   jsr p_New
        0x0076e7ba      504f           addq.w 0x8, a7
        0x0076e7bc      24790086e828   movea.l 0x86e828, a2
        0x0076e7c2      25790086e824.  move.l 0x86e824, 0x8(a2)
        0x0076e7ca      23f90086e828.  move.l 0x86e828, 0x86e824.l
        0x0076e7d4      2491           move.l (a1), (a2)
        0x0076e7d6      25430004       move.l d3, 0x4(a2)
    < 0x0076e7da      6028           bra.b 0x76e804
    > 0x0076e7dc      28790086e824   movea.l 0x86e824, a4
        0x0076e7e2      226e000c       movea.l 0xc(a6), a1
        0x0076e7e6      246e0008       movea.l 0x8(a6), a2
    > 0x0076e7ea      b8c3           cmpa.w d3, a4
   < 0x0076e7ec      6716           beq.b 0x76e804
      0x0076e7ee      2012           move.l (a2), d0
      0x0076e7f0      b094           cmp.l (a4), d0
  < 0x0076e7f2      660a           bne.b 0x76e7fe
     0x0076e7f4      236c00040516   move.l 0x4(a4), 0x516(a1)
     0x0076e7fa      3843           movea.w d3, a4
 < 0x0076e7fc      6004           bra.b 0x76e802
 > 0x0076e7fe      286c0008       movea.l 0x8(a4), a4
 < 0x0076e802      60e6           bra.b 0x76e7ea
   > 0x0076e804      226e000c       movea.l 0xc(a6), a1
         0x0076e808      246e0008       movea.l 0x8(a6), a2
         0x0076e80c      2f12           move.l (a2), -(a7)
         0x0076e80e      48690004       pea.l 0x4(a1)
         0x0076e812      48690008       pea.l 0x8(a1)
         0x0076e816      4869000c       pea.l 0xc(a1)
         0x0076e81a      486effda       pea.l -0x26(a6)
         0x0076e81e      486efffa       pea.l -0x6(a6)
         0x0076e822      4eb900680ac2   jsr VECTORFONT.vec_get_fontdat
         0x0076e828      defc0018       adda.w 0x18, a7
         0x0076e82c      20290004       move.l 0x4(a1), d0
         0x0076e830      e980           asl.l 0x4, d0
         0x0076e832      23400004       move.l d0, 0x4(a1)
         0x0076e836      20290008       move.l 0x8(a1), d0
         0x0076e83a      e980           asl.l 0x4, d0
         0x0076e83c      23400008       move.l d0, 0x8(a1)
         0x0076e840      4a80           tst.l d0
     < 0x0076e842      6614           bne.b 0x76e858
        0x0076e844      7003           moveq 0x3, d0
        0x0076e846      4c290800000c   muls.l 0xc(a1), d0
         0x0076e84c      4c7c08000000.  divs.l 0x2, d0
         0x0076e854      23400008       move.l d0, 0x8(a1)
      > 0x0076e858      226e000c       movea.l 0xc(a6), a1
          0x0076e85c      554f           subq.w 0x2, a7
          0x0076e85e      2f2efffa       move.l -0x6(a6), -(a7)
          0x0076e862      4ebafbd0       jsr TYPECOM.choose_font_typ(pc)
          0x0076e866      584f           addq.w 0x4, a7
          0x0076e868      135f051a       move.b (a7)+, 0x51a(a1)
          0x0076e86c      42290010       clr.b 0x10(a1)
          0x0076e870      246e0008       movea.l 0x8(a6), a2
          0x0076e874      23520012       move.l (a2), 0x12(a1)
          0x0076e878      7a00           moveq 0x0, d5
          0x0076e87a      226e000c       movea.l 0xc(a6), a1
          0x0076e87e      7e01           moveq 0x1, d7
      > 0x0076e880      02870000ffff   andi.l 0xffff, d7
         0x0076e886      42317816       clr.b 0x16(a1, d7.l)
         0x0076e88a      5247           addq.w 0x1, d7
         0x0076e88c      0c4700ff       cmpi.w 0xff, d7
      < 0x0076e890      63ee           bls.b 0x76e880
          0x0076e892      226e0008       movea.l 0x8(a6), a1
          0x0076e896      2f2effda       move.l -0x26(a6), -(a7)
          0x0076e89a      7e01           moveq 0x1, d7
      > 0x0076e89c      be6f0002       cmp.w 0x2(a7), d7
     < 0x0076e8a0      62000166       bhi.w 0x76ea08
        0x0076e8a4      2f11           move.l (a1), -(a7)
        0x0076e8a6      02870000ffff   andi.l 0xffff, d7
        0x0076e8ac      2f07           move.l d7, -(a7)
        0x0076e8ae      486effde       pea.l -0x22(a6)
        0x0076e8b2      486effe2       pea.l -0x1e(a6)
        0x0076e8b6      486effd6       pea.l -0x2a(a6)
        0x0076e8ba      486effe6       pea.l -0x1a(a6)
        0x0076e8be      486effe7       pea.l -0x19(a6)
        0x0076e8c2      4eb900680c2c   jsr VECTORFONT.vec_get_chardat
        0x0076e8c8      defc001c       adda.w 0x1c, a7
        0x0076e8cc      202effd6       move.l -0x2a(a6), d0
        0x0076e8d0      e980           asl.l 0x4, d0
        0x0076e8d2      2d40ffd6       move.l d0, -0x2a(a6)
        0x0076e8d6      4aaeffde       tst.l -0x22(a6)
    < 0x0076e8da      6d0c           blt.b 0x76e8e8
       0x0076e8dc      222effde       move.l -0x22(a6), d1
       0x0076e8e0      0c81000000ff   cmpi.l 0xff, d1
   < 0x0076e8e6      6f06           ble.b 0x76e8ee
   > 0x0076e8e8      7a01           moveq 0x1, d5
   < 0x0076e8ea      60000116       bra.w 0x76ea02
   > 0x0076e8ee      322effe0       move.w -0x20(a6), d1
       0x0076e8f2      45faf24e       lea.l 0x76db42(pc), a2
       0x0076e8f6      3401           move.w d1, d2
       0x0076e8f8      e64a           lsr.w 0x3, d2
       0x0076e8fa      0c420020       cmpi.w 0x20, d2
   < 0x0076e8fe      6d04           blt.b 0x76e904
      0x0076e900      7400           moveq 0x0, d2
  < 0x0076e902      6004           bra.b 0x76e908
  > 0x0076e904      03322000       btst.l d1, (a2, d2.w)
      ; CODE XREF from TYPECOM @ +0x1574
  < 0x0076e908      6752           beq.b 0x76e95c
      0x0076e90a      487af257       pea.l 0x76db63(pc)
      0x0076e90e      4878001d       pea.l 0x1d
      0x0076e912      2f17           move.l (a7), -(a7)
      0x0076e914      4eb9004047ea   jsr p_wts_o
      0x0076e91a      504f           addq.w 0x8, a7
      0x0076e91c      2eaeffde       move.l -0x22(a6), (a7)
      0x0076e920      48780000       pea.l 0x0
      0x0076e924      4eb9004070e4   jsr p_wti_o
      0x0076e92a      504f           addq.w 0x8, a7
      0x0076e92c      487af253       pea.l 0x76db81(pc)
      0x0076e930      48780011       pea.l 0x11
      0x0076e934      2f17           move.l (a7), -(a7)
      0x0076e936      4eb9004047ea   jsr p_wts_o
      0x0076e93c      dec4           adda.w d4, a7
      0x0076e93e      02870000ffff   andi.l 0xffff, d7
      0x0076e944      2f07           move.l d7, -(a7)
      0x0076e946      48780000       pea.l 0x0
      0x0076e94a      4eb9004070e4   jsr p_wti_o
      0x0076e950      504f           addq.w 0x8, a7
      0x0076e952      4eb900404946   jsr p_wtln_o
  < 0x0076e958      600000a8       bra.w 0x76ea02
  > 0x0076e95c      4a2effe6       tst.b -0x1a(a6)
  < 0x0076e960      6710           beq.b 0x76e972
     0x0076e962      2f2effde       move.l -0x22(a6), -(a7)
     0x0076e966      1f03           move.b d3, -(a7)
     0x0076e968      4eb9004a11c4   jsr MENUKEYBDCOM.set_char_accent
     0x0076e96e      5c4f           addq.w 0x6, a7
  < 0x0076e970      601e           bra.b 0x76e990
  > 0x0076e972      4a2effe7       tst.b -0x19(a6)
  < 0x0076e976      6718           beq.b 0x76e990
     0x0076e978      4a06           tst.b d6
  < 0x0076e97a      6714           beq.b 0x76e990
     0x0076e97c      24790086e824   movea.l 0x86e824, a2
     0x0076e982      486a0004       pea.l 0x4(a2)
     0x0076e986      2f2effe2       move.l -0x1e(a6), -(a7)
     0x0076e98a      4ebafc32       jsr TYPECOM.add_composite_i(pc)
     0x0076e98e      504f           addq.w 0x8, a7
     ; CODE XREF from TYPECOM @ +0x15e2
  > 0x0076e990      246e000c       movea.l 0xc(a6), a2
      0x0076e994      222effde       move.l -0x22(a6), d1
      0x0076e998      26721d200116   movea.l 0x116(a2, d1.l * 4), a3
      0x0076e99e      b6c3           cmpa.w d3, a3
  < 0x0076e9a0      6612           bne.b 0x76e9b4
     0x0076e9a2      48721d200116   pea.l 0x116(a2, d1.l * 4)
     0x0076e9a8      4878001e       pea.l 0x1e
     0x0076e9ac      4eb900403a92   jsr p_New
     0x0076e9b2      504f           addq.w 0x8, a7
  > 0x0076e9b4      26721d200116   movea.l 0x116(a2, d1.l * 4), a3
      0x0076e9ba      b6c3           cmpa.w d3, a3
  < 0x0076e9bc      6618           bne.b 0x76e9d6
     0x0076e9be      487af1d3       pea.l 0x76db93(pc)
     0x0076e9c2      4878000b       pea.l 0xb
     0x0076e9c6      2f17           move.l (a7), -(a7)
     0x0076e9c8      4eb9004047ea   jsr p_wts_o
     0x0076e9ce      dec4           adda.w d4, a7
     0x0076e9d0      4eb900404946   jsr p_wtln_o
  > 0x0076e9d6      27400018       move.l d0, 0x18(a3)
      0x0076e9da      176effe6001c   move.b -0x1a(a6), 0x1c(a3)
      0x0076e9e0      176effe7001d   move.b -0x19(a6), 0x1d(a3)
      0x0076e9e6      26aeffe2       move.l -0x1e(a6), (a3)
      0x0076e9ea      27410004       move.l d1, 0x4(a3)
      0x0076e9ee      27400008       move.l d0, 0x8(a3)
      0x0076e9f2      2743000c       move.l d3, 0xc(a3)
      0x0076e9f6      42ab0010       clr.l 0x10(a3)
      0x0076e9fa      42ab0014       clr.l 0x14(a3)
      0x0076e9fe      15831816       move.b d3, 0x16(a2, d1.l)
      ; CODE XREFS from TYPECOM @ +0x155c, +0x15ca
  > 0x0076ea02      5247           addq.w 0x1, d7
     < 0x0076ea04      6400fe96       bcc.w 0x76e89c
     > 0x0076ea08      584f           addq.w 0x4, a7
          0x0076ea0a      4a06           tst.b d6
      < 0x0076ea0c      6710           beq.b 0x76ea1e
         0x0076ea0e      226e000c       movea.l 0xc(a6), a1
         0x0076ea12      24790086e824   movea.l 0x86e824, a2
         0x0076ea18      236a00040516   move.l 0x4(a2), 0x516(a1)
      > 0x0076ea1e      4a05           tst.b d5
      < 0x0076ea20      6718           beq.b 0x76ea3a
         0x0076ea22      487af17b       pea.l 0x76db9f(pc)
         0x0076ea26      48780025       pea.l 0x25
         0x0076ea2a      2f17           move.l (a7), -(a7)
         0x0076ea2c      4eb9004047ea   jsr p_wts_o
         0x0076ea32      dec4           adda.w d4, a7
         0x0076ea34      4eb900404946   jsr p_wtln_o
      > 0x0076ea3a      302effd2       move.w -0x2e(a6), d0
            0x0076ea3e      b07af185       cmp.w 0x76dbc5(pc), d0
        < 0x0076ea42      6610           bne.b 0x76ea54
           0x0076ea44      302effd4       move.w -0x2c(a6), d0
           0x0076ea48      b07af17e       cmp.w 0x76dbc8(pc), d0
       < 0x0076ea4c      6706           beq.b 0x76ea54
          0x0076ea4e      3d6effd4ffd2   move.w -0x2c(a6), -0x2e(a6)
       > 0x0076ea54      3d6effd20014   move.w -0x2e(a6), 0x14(a6)
            0x0076ea5a      4cdf1fff       movem.l (a7)+, d0-d7/a0-a4
            0x0076ea5e      4e5e           unlk a6
            0x0076ea60      4e75           rts
            ; CALL XREF from MENUTYPECOM.font_browse @ 0x766434
            ; CALL XREF from MENUTYPECOM.sel_font_title @ 0x766d4c
 264: TYPECOM.sel_font ();
           0x0076ea62      4e56ff64       link.w a6, 0xff64
           0x0076ea66      bfd5           cmpa.l (a5), a7
       < 0x0076ea68      6206           bhi.b 0x76ea70
          0x0076ea6a      44fc0002       move.w 0x2, ccr
          0x0076ea6e      4e76           trapv
       > 0x0076ea70      defc003c       adda.w 0x3c, a7
           0x0076ea74      48e7c0f8       movem.l d0-d1/a0-a4, -(a7)
           0x0076ea78      47eeffea       lea.l -0x16(a6), a3
           0x0076ea7c      49ee000a       lea.l 0xa(a6), a4
           0x0076ea80      720c           moveq 0xc, d1
           0x0076ea82      206e0014       movea.l 0x14(a6), a0
           0x0076ea86      2250           movea.l (a0), a1
           0x0076ea88      b2fc0001       cmpa.w 0x1, a1
       < 0x0076ea8c      670000d0       beq.w 0x76eb5e
          0x0076ea90      554f           subq.w 0x2, a7
          0x0076ea92      486effa0       pea.l -0x60(a6)
          0x0076ea96      4eb900404434   jsr fcn.00404434
          0x0076ea9c      584f           addq.w 0x4, a7
          0x0076ea9e      4a1f           tst.b (a7)+
      < 0x0076eaa0      670000bc       beq.w 0x76eb5e
         0x0076eaa4      4a2e0012       tst.b 0x12(a6)
     < 0x0076eaa8      6712           beq.b 0x76eabc
        0x0076eaaa      554f           subq.w 0x2, a7
        0x0076eaac      4850           pea.l (a0)
        0x0076eaae      2254           movea.l (a4), a1
        0x0076eab0      4851           pea.l (a1)
        0x0076eab2      4ebaf614       jsr TYPECOM.sel_ras_font(pc)
        0x0076eab6      504f           addq.w 0x8, a7
        0x0076eab8      369f           move.w (a7)+, (a3)
    < 0x0076eaba      6076           bra.b 0x76eb32
    > 0x0076eabc      2254           movea.l (a4), a1
        0x0076eabe      246e000e       movea.l 0xe(a6), a2
        0x0076eac2      554f           subq.w 0x2, a7
        0x0076eac4      4850           pea.l (a0)
        0x0076eac6      4851           pea.l (a1)
        0x0076eac8      4852           pea.l (a2)
        0x0076eaca      4ebafb52       jsr TYPECOM.sel_vec_font(pc)
        0x0076eace      dec1           adda.w d1, a7
        0x0076ead0      369f           move.w (a7)+, (a3)
        0x0076ead2      3013           move.w (a3), d0
        0x0076ead4      b07af0f5       cmp.w 0x76dbcb(pc), d0
    < 0x0076ead8      670c           beq.b 0x76eae6
       0x0076eada      486effa0       pea.l -0x60(a6)
       0x0076eade      4eb900404468   jsr fcn.00404468
       0x0076eae4      584f           addq.w 0x4, a7
    > 0x0076eae6      4a2e0008       tst.b 0x8(a6)
    < 0x0076eaea      6660           bne.b 0x76eb4c
       0x0076eaec      594f           subq.w 0x4, a7
       0x0076eaee      2f12           move.l (a2), -(a7)
       0x0076eaf0      4227           clr.b -(a7)
       0x0076eaf2      486efffa       pea.l -0x6(a6)
       0x0076eaf6      4eb900680870   jsr VECTORFONT.vec_get_block_s
       0x0076eafc      defc000a       adda.w 0xa, a7
       0x0076eb00      2d5ffffc       move.l (a7)+, -0x4(a6)
       0x0076eb04      4a2efffa       tst.b -0x6(a6)
   < 0x0076eb08      6728           beq.b 0x76eb32
      0x0076eb0a      4851           pea.l (a1)
      0x0076eb0c      486efff0       pea.l -0x10(a6)
      0x0076eb10      486effec       pea.l -0x14(a6)
      0x0076eb14      486effed       pea.l -0x13(a6)
      0x0076eb18      4eb900598736   jsr K0_DISKMGR.k_gen_fid
      0x0076eb1e      dec1           adda.w d1, a7
      0x0076eb20      2eaefff6       move.l -0xa(a6), (a7)
      0x0076eb24      2f2efff2       move.l -0xe(a6), -(a7)
      0x0076eb28      3f2efff0       move.w -0x10(a6), -(a7)
      0x0076eb2c      2f2efffc       move.l -0x4(a6), -(a7)
  < 0x0076eb30      6010           bra.b 0x76eb42
  > 0x0076eb32      2f3ae962       move.l 0x76d496(pc), -(a7)
       0x0076eb36      2f3ae95a       move.l 0x76d492(pc), -(a7)
       0x0076eb3a      3f3ae954       move.w 0x76d490(pc), -(a7)
       0x0076eb3e      48780000       pea.l 0x0
  > 0x0076eb42      4eb9006a7c0a   jsr TEXTMAV.set_type_menufo
        0x0076eb48      defc000e       adda.w 0xe, a7
     > 0x0076eb4c      3013           move.w (a3), d0
         0x0076eb4e      b07af07e       cmp.w 0x76dbce(pc), d0
     < 0x0076eb52      660a           bne.b 0x76eb5e
        0x0076eb54      2254           movea.l (a4), a1
        0x0076eb56      23e905160086.  move.l 0x516(a1), 0x86e820.l
     > 0x0076eb5e      3d530018       move.w (a3), 0x18(a6)
           0x0076eb62      4cdf1f03       movem.l (a7)+, d0-d1/a0-a4
           0x0076eb66      4e5e           unlk a6
           0x0076eb68      4e75           rts
            ; CALL XREF from MENUTYPECOM.font_browse @ 0x76678a
            ; CALL XREFS from MENUTYPECOM.debuffer_font @ 0x76729c, 0x7672f4
 62: TYPECOM.font_forget ();
           0x0076eb6a      4e56ffe0       link.w a6, 0xffe0
           0x0076eb6e      bfd5           cmpa.l (a5), a7
       < 0x0076eb70      6206           bhi.b 0x76eb78
          0x0076eb72      44fc0002       move.w 0x2, ccr
          0x0076eb76      4e76           trapv
       > 0x0076eb78      defc0020       adda.w 0x20, a7
           0x0076eb7c      48e78080       movem.l d0/a0, -(a7)
           0x0076eb80      206e0008       movea.l 0x8(a6), a0
           0x0076eb84      48780001       pea.l 0x1
           0x0076eb88      2010           move.l (a0), d0
           0x0076eb8a      b097           cmp.l (a7), d0
       < 0x0076eb8c      6604           bne.b 0x76eb92
          0x0076eb8e      584f           addq.w 0x4, a7
      < 0x0076eb90      600e           bra.b 0x76eba0
      > 0x0076eb92      2f00           move.l d0, -(a7)
          0x0076eb94      4878ffff       pea.l 0xffff
          0x0076eb98      4ebaf1a4       jsr TYPECOM.font_in_use(pc)
          0x0076eb9c      defc000c       adda.w 0xc, a7
      > 0x0076eba0      4cdf0101       movem.l (a7)+, d0/a0
           0x0076eba4      4e5e           unlk a6
           0x0076eba6      4e75           rts
            ; XREFS: CALL 0x00765afe  CALL 0x00765d48  CALL 0x00766142  
            ; XREFS: CALL 0x00766636  CALL 0x0076671a  CALL 0x007668b8  
            ; XREFS: CALL 0x007674ae  CALL 0x00767994  CALL 0x00767aaa  
            ; XREFS: CALL 0x00767b42  CALL 0x0076a4d8  CALL 0x0076a840  
 24: TYPECOM.make_new_char ();
           0x0076eba8      4e56ff98       link.w a6, 0xff98
           0x0076ebac      bfd5           cmpa.l (a5), a7
       < 0x0076ebae      6206           bhi.b 0x76ebb6
          0x0076ebb0      44fc0002       move.w 0x2, ccr
          0x0076ebb4      4e76           trapv
       > 0x0076ebb6      defc0060       adda.w 0x60, a7
           0x0076ebba      48e7fff8       movem.l d0-d7/a0-a4, -(a7)
           0x0076ebbe      f227e001       fmovem fp0, -(a7)
            0x0076ebc2      49f80001       lea.l 0x1, a4
            0x0076ebc6      7401           moveq 0x1, d2
            0x0076ebc8      7602           moveq 0x2, d3
            0x0076ebca      780c           moveq 0xc, d4
            0x0076ebcc      7c00           moveq 0x0, d6
            0x0076ebce      302e001e       move.w 0x1e(a6), d0
            0x0076ebd2      0c400020       cmpi.w 0x20, d0
        < 0x0076ebd6      670c           beq.b 0x76ebe4
           0x0076ebd8      0c40000d       cmpi.w 0xd, d0
       < 0x0076ebdc      6706           beq.b 0x76ebe4
          0x0076ebde      0c400404       cmpi.w 0x404, d0
      < 0x0076ebe2      6602           bne.b 0x76ebe6
      > 0x0076ebe4      5206           addq.b 0x1, d6
      > 0x0076ebe6      7a00           moveq 0x0, d5
            0x0076ebe8      7e00           moveq 0x0, d7
            0x0076ebea      0c400100       cmpi.w 0x100, d0
        < 0x0076ebee      6c02           bge.b 0x76ebf2
           0x0076ebf0      5207           addq.b 0x1, d7
        > 0x0076ebf2      4a07           tst.b d7
        < 0x0076ebf4      6724           beq.b 0x76ec1a
           0x0076ebf6      206e0020       movea.l 0x20(a6), a0
           0x0076ebfa      4a300016       tst.b 0x16(a0, d0.w)
       < 0x0076ebfe      670c           beq.b 0x76ec0c
          0x0076ec00      227005200116   movea.l 0x116(a0, d0.w * 4), a1
          0x0076ec06      b2c2           cmpa.w d2, a1
      < 0x0076ec08      6702           beq.b 0x76ec0c
         0x0076ec0a      2a11           move.l (a1), d5
      > 0x0076ec0c      7e00           moveq 0x0, d7
           0x0076ec0e      4a06           tst.b d6
       < 0x0076ec10      6604           bne.b 0x76ec16
          0x0076ec12      4a85           tst.l d5
      < 0x0076ec14      6702           beq.b 0x76ec18
      > 0x0076ec16      5207           addq.b 0x1, d7
      < 0x0076ec18      600a           bra.b 0x76ec24
       > 0x0076ec1a      7e00           moveq 0x0, d7
           0x0076ec1c      0c400404       cmpi.w 0x404, d0
       < 0x0076ec20      6602           bne.b 0x76ec24
          0x0076ec22      5207           addq.b 0x1, d7
       > 0x0076ec24      206e0008       movea.l 0x8(a6), a0
            0x0076ec28      4850           pea.l (a0)
            0x0076ec2a      48780082       pea.l 0x82
            0x0076ec2e      4eb900403a92   jsr p_New
            0x0076ec34      504f           addq.w 0x8, a7
            0x0076ec36      226e0020       movea.l 0x20(a6), a1
            0x0076ec3a      4854           pea.l (a4)
            0x0076ec3c      22290012       move.l 0x12(a1), d1
            0x0076ec40      b297           cmp.l (a7), d1
        < 0x0076ec42      670a           beq.b 0x76ec4e
           0x0076ec44      2f01           move.l d1, -(a7)
           0x0076ec46      4854           pea.l (a4)
           0x0076ec48      4ebaf0f4       jsr TYPECOM.font_in_use(pc)
           0x0076ec4c      504f           addq.w 0x8, a7
        > 0x0076ec4e      584f           addq.w 0x4, a7
            0x0076ec50      2450           movea.l (a0), a2
            0x0076ec52      25420012       move.l d2, 0x12(a2)
            0x0076ec56      554f           subq.w 0x2, a7
            0x0076ec58      4851           pea.l (a1)
            0x0076ec5a      486a0012       pea.l 0x12(a2)
            0x0076ec5e      4eb900594c72   jsr K0_DISKMGR.k_copy_ref
            0x0076ec64      504f           addq.w 0x8, a7
            0x0076ec66      3d5ffffe       move.w (a7)+, -0x2(a6)
            0x0076ec6a      2569000c0040   move.l 0xc(a1), 0x40(a2)
            0x0076ec70      35400010       move.w d0, 0x10(a2)
            0x0076ec74      4a07           tst.b d7
        < 0x0076ec76      670000d2       beq.w 0x76ed4a
           0x0076ec7a      4a06           tst.b d6
       < 0x0076ec7c      6754           beq.b 0x76ecd2
          0x0076ec7e      426a002c       clr.w 0x2c(a2)
          0x0076ec82      3569000e002e   move.w 0xe(a1), 0x2e(a2)
          0x0076ec88      426a0024       clr.w 0x24(a2)
          0x0076ec8c      426a0026       clr.w 0x26(a2)
          0x0076ec90      22290004       move.l 0x4(a1), d1
          0x0076ec94      4c7c18010000.  divs.l 0x10, d1
          0x0076ec9c      35410028       move.w d1, 0x28(a2)
          0x0076eca0      2229000c       move.l 0xc(a1), d1
          0x0076eca4      4c7c18010000.  divs.l 0x8, d1
          0x0076ecac      3541002a       move.w d1, 0x2a(a2)
          0x0076ecb0      22290004       move.l 0x4(a1), d1
          0x0076ecb4      4c431801       divs.l d3, d1
          0x0076ecb8      25410044       move.l d1, 0x44(a2)
          0x0076ecbc      4c431801       divs.l d3, d1
          0x0076ecc0      2541003c       move.l d1, 0x3c(a2)
          0x0076ecc4      42aa001e       clr.l 0x1e(a2)
          0x0076ecc8      422a0022       clr.b 0x22(a2)
          0x0076eccc      422a000e       clr.b 0xe(a2)
      < 0x0076ecd0      6072           bra.b 0x76ed44
      > 0x0076ecd2      267105200116   movea.l 0x116(a1, d0.w * 4), a3
          0x0076ecd8      222b0014       move.l 0x14(a3), d1
          0x0076ecdc      4c431801       divs.l d3, d1
          0x0076ece0      3541002c       move.w d1, 0x2c(a2)
          0x0076ece4      222b0010       move.l 0x10(a3), d1
          0x0076ece8      4c431801       divs.l d3, d1
          0x0076ecec      3541002e       move.w d1, 0x2e(a2)
          0x0076ecf0      426a0024       clr.w 0x24(a2)
          0x0076ecf4      426a0026       clr.w 0x26(a2)
          0x0076ecf8      222b0008       move.l 0x8(a3), d1
      < 0x0076ecfc      6a02           bpl.b 0x76ed00
         0x0076ecfe      4481           neg.l d1
      > 0x0076ed00      35410028       move.w d1, 0x28(a2)
          0x0076ed04      222b000c       move.l 0xc(a3), d1
      < 0x0076ed08      6a02           bpl.b 0x76ed0c
         0x0076ed0a      4481           neg.l d1
      > 0x0076ed0c      3541002a       move.w d1, 0x2a(a2)
          0x0076ed10      222b0018       move.l 0x18(a3), d1
          0x0076ed14      4c431801       divs.l d3, d1
          0x0076ed18      25410044       move.l d1, 0x44(a2)
          0x0076ed1c      4c431801       divs.l d3, d1
          0x0076ed20      2541003c       move.l d1, 0x3c(a2)
          0x0076ed24      2553001e       move.l (a3), 0x1e(a2)
          0x0076ed28      15420022       move.b d2, 0x22(a2)
          0x0076ed2c      554f           subq.w 0x2, a7
          0x0076ed2e      48c0           ext.l d0
          0x0076ed30      2f00           move.l d0, -(a7)
          0x0076ed32      4eb9004a114e   jsr MENUKEYBDCOM.get_char_accent
          0x0076ed38      584f           addq.w 0x4, a7
          0x0076ed3a      155f000e       move.b (a7)+, 0xe(a2)
          0x0076ed3e      156b001d000d   move.b 0x1d(a3), 0xd(a2)
      > 0x0076ed44      1d420024       move.b d2, 0x24(a6)
       < 0x0076ed48      6076           bra.b 0x76edc0
       > 0x0076ed4a      487aee91       pea.l 0x76dbdd(pc)
           0x0076ed4e      48780005       pea.l 0x5
           0x0076ed52      2f17           move.l (a7), -(a7)
           0x0076ed54      4eb9004047ea   jsr p_wts_o
           0x0076ed5a      dec4           adda.w d4, a7
           0x0076ed5c      48c0           ext.l d0
           0x0076ed5e      2f00           move.l d0, -(a7)
           0x0076ed60      4878ffff       pea.l 0xffff
           0x0076ed64      4eb9004070e4   jsr p_wti_o
           0x0076ed6a      504f           addq.w 0x8, a7
           0x0076ed6c      487aee75       pea.l 0x76dbe3(pc)
           0x0076ed70      4878000a       pea.l 0xa
           0x0076ed74      2f17           move.l (a7), -(a7)
           0x0076ed76      4eb9004047ea   jsr p_wts_o
           0x0076ed7c      dec4           adda.w d4, a7
           0x0076ed7e      4eb900404946   jsr p_wtln_o
           0x0076ed84      2650           movea.l (a0), a3
           0x0076ed86      b6c2           cmpa.w d2, a3
       < 0x0076ed88      6732           beq.b 0x76edbc
          0x0076ed8a      426b002c       clr.w 0x2c(a3)
          0x0076ed8e      3769000e002e   move.w 0xe(a1), 0x2e(a3)
          0x0076ed94      426b0024       clr.w 0x24(a3)
          0x0076ed98      426b0026       clr.w 0x26(a3)
          0x0076ed9c      426b0028       clr.w 0x28(a3)
          0x0076eda0      426b002a       clr.w 0x2a(a3)
          0x0076eda4      42ab0048       clr.l 0x48(a3)
          0x0076eda8      42ab0044       clr.l 0x44(a3)
          0x0076edac      42ab003c       clr.l 0x3c(a3)
          0x0076edb0      42ab001e       clr.l 0x1e(a3)
          0x0076edb4      422b0022       clr.b 0x22(a3)
          0x0076edb8      422b000e       clr.b 0xe(a3)
       > 0x0076edbc      422e0024       clr.b 0x24(a6)
       > 0x0076edc0      156900100008   move.b 0x10(a1), 0x8(a2)
            0x0076edc6      256900120016   move.l 0x12(a1), 0x16(a2)
            0x0076edcc      4854           pea.l (a4)
            0x0076edce      2557001a       move.l (a7), 0x1a(a2)
            0x0076edd2      2482           move.l d2, (a2)
            0x0076edd4      25420004       move.l d2, 0x4(a2)
            0x0076edd8      25570030       move.l (a7), 0x30(a2)
            0x0076eddc      255f0034       move.l (a7)+, 0x34(a2)
            0x0076ede0      256e001a0038   move.l 0x1a(a6), 0x38(a2)
            0x0076ede6      4a2a000e       tst.b 0xe(a2)
        < 0x0076edea      6706           beq.b 0x76edf2
           0x0076edec      42aa0048       clr.l 0x48(a2)
       < 0x0076edf0      600a           bra.b 0x76edfc
       > 0x0076edf2      322e0016       move.w 0x16(a6), d1
           0x0076edf6      48c1           ext.l d1
           0x0076edf8      25410048       move.l d1, 0x48(a2)
       > 0x0076edfc      594f           subq.w 0x4, a7
            0x0076edfe      f22e4400000c   fmove.s 0xc(a6), fp0
            0x0076ee04      f22a40230044   fmul.l 0x44(a2), fp0
            0x0076ee0a      f2276400       fmove.s fp0, -(a7)
            0x0076ee0e      4eb9004081d2   jsr p_round
            0x0076ee14      584f           addq.w 0x4, a7
            0x0076ee16      201f           move.l (a7)+, d0
            0x0076ee18      d0aa0048       add.l 0x48(a2), d0
            0x0076ee1c      25400044       move.l d0, 0x44(a2)
            0x0076ee20      4a06           tst.b d6
        < 0x0076ee22      670e           beq.b 0x76ee32
           0x0076ee24      302e0018       move.w 0x18(a6), d0
           0x0076ee28      48c0           ext.l d0
           0x0076ee2a      d1aa0048       add.l d0, 0x48(a2)
           0x0076ee2e      d1aa0044       add.l d0, 0x44(a2)
        > 0x0076ee32      302e0014       move.w 0x14(a6), d0
            0x0076ee36      48c0           ext.l d0
            0x0076ee38      2540004c       move.l d0, 0x4c(a2)
            0x0076ee3c      156e00120050   move.b 0x12(a6), 0x50(a2)
            0x0076ee42      156e00100051   move.b 0x10(a6), 0x51(a2)
            0x0076ee48      422a000c       clr.b 0xc(a2)
            0x0076ee4c      257c3f800000.  move.l 0x3f800000, 0x78(a2)
            0x0076ee54      257aed98005a   move.l 0x76dbee(pc), 0x5a(a2)
            0x0076ee5a      257aed96005e   move.l 0x76dbf2(pc), 0x5e(a2)
            0x0076ee60      422a007c       clr.b 0x7c(a2)
            0x0076ee64      25690516007e   move.l 0x516(a1), 0x7e(a2)
            0x0076ee6a      f21fd080       fmovem (a7)+, fp0
            0x0076ee6e      4cdf1fff       movem.l (a7)+, d0-d7/a0-a4
            0x0076ee72      4e5e           unlk a6
            0x0076ee74      4e75           rts
            ; XREFS: CALL 0x00765976  CALL 0x007666e4  CALL 0x0076676e  
            ; XREFS: CALL 0x00766ac6  CALL 0x00766bd6  CALL 0x0076761c  
            ; XREFS: CALL 0x00767a06  CALL 0x00767ad0  CALL 0x00767b86  
            ; XREFS: CALL 0x0076a904  CALL 0x0076ab52  CALL 0x0076abd2  
 122: TYPECOM.dispose_type_ch ();
           0x0076ee76      4e56ffd6       link.w a6, 0xffd6
           0x0076ee7a      bfd5           cmpa.l (a5), a7
       < 0x0076ee7c      6206           bhi.b 0x76ee84
          0x0076ee7e      44fc0002       move.w 0x2, ccr
          0x0076ee82      4e76           trapv
       > 0x0076ee84      defc0028       adda.w 0x28, a7
           0x0076ee88      48e780c0       movem.l d0/a0-a1, -(a7)
           0x0076ee8c      206e0008       movea.l 0x8(a6), a0
           0x0076ee90      2250           movea.l (a0), a1
           0x0076ee92      48780001       pea.l 0x1
           0x0076ee96      20290016       move.l 0x16(a1), d0
           0x0076ee9a      b097           cmp.l (a7), d0
       < 0x0076ee9c      670c           beq.b 0x76eeaa
          0x0076ee9e      2f00           move.l d0, -(a7)
          0x0076eea0      4878ffff       pea.l 0xffff
          0x0076eea4      4ebaee98       jsr TYPECOM.font_in_use(pc)
          0x0076eea8      504f           addq.w 0x8, a7
       > 0x0076eeaa      544f           addq.w 0x2, a7
           0x0076eeac      48690012       pea.l 0x12(a1)
           0x0076eeb0      4eb900594e02   jsr K0_DISKMGR.k_lose_ref
           0x0076eeb6      584f           addq.w 0x4, a7
           0x0076eeb8      3d5ffffe       move.w (a7)+, -0x2(a6)
           0x0076eebc      48690030       pea.l 0x30(a1)
           0x0076eec0      4eb900632826   jsr CACHECOM.remove_cache_re
           0x0076eec6      584f           addq.w 0x4, a7
           0x0076eec8      48690034       pea.l 0x34(a1)
           0x0076eecc      4eb900632826   jsr CACHECOM.remove_cache_re
           0x0076eed2      584f           addq.w 0x4, a7
           0x0076eed4      4850           pea.l (a0)
           0x0076eed6      48780082       pea.l 0x82
           0x0076eeda      4eb900403b98   jsr p_Dispos
           0x0076eee0      504f           addq.w 0x8, a7
           0x0076eee2      20bc00000001   move.l 0x1, (a0)
           0x0076eee8      4cdf0301       movem.l (a7)+, d0/a0-a1
           0x0076eeec      4e5e           unlk a6
           0x0076eeee      4e75           rts
            ; CALL XREF from MENUTYPECOM.make_menu_font @ 0x7675e8
 98: TYPECOM.menu_font_add ();
           0x0076eef0      4e56ffde       link.w a6, 0xffde
           0x0076eef4      bfd5           cmpa.l (a5), a7
       < 0x0076eef6      6206           bhi.b 0x76eefe
          0x0076eef8      44fc0002       move.w 0x2, ccr
          0x0076eefc      4e76           trapv
       > 0x0076eefe      defc0022       adda.w 0x22, a7
           0x0076ef02      48e780e0       movem.l d0/a0-a2, -(a7)
           0x0076ef06      41f90086e80e   lea.l 0x86e80e, a0
           0x0076ef0c      43f90086e812   lea.l 0x86e812, a1
           0x0076ef12      45f90086e816   lea.l 0x86e816, a2
           0x0076ef18      302e0008       move.w 0x8(a6), d0
           0x0076ef1c      0c400020       cmpi.w 0x20, d0
       < 0x0076ef20      670c           beq.b 0x76ef2e
          0x0076ef22      0c40000d       cmpi.w 0xd, d0
      < 0x0076ef26      6706           beq.b 0x76ef2e
         0x0076ef28      0c400404       cmpi.w 0x404, d0
     < 0x0076ef2c      660a           bne.b 0x76ef38
     > 0x0076ef2e      20baecd2       move.l 0x76dc02(pc), (a0)
          0x0076ef32      22baecd2       move.l 0x76dc06(pc), (a1)
          0x0076ef36      4252           clr.w (a2)
     > 0x0076ef38      3f00           move.w d0, -(a7)
           0x0076ef3a      2f11           move.l (a1), -(a7)
           0x0076ef3c      2f10           move.l (a0), -(a7)
           0x0076ef3e      3f12           move.w (a2), -(a7)
           0x0076ef40      4eb9006a7812   jsr TEXTMAV.add_menu_font
           0x0076ef46      defc000c       adda.w 0xc, a7
           0x0076ef4a      4cdf0701       movem.l (a7)+, d0/a0-a2
           0x0076ef4e      4e5e           unlk a6
           0x0076ef50      4e75           rts
 24: TYPECOM.check_char_in_a ();
           0x0076ef52      4e56ffc8       link.w a6, 0xffc8
           0x0076ef56      bfd5           cmpa.l (a5), a7
       < 0x0076ef58      6206           bhi.b 0x76ef60
          0x0076ef5a      44fc0002       move.w 0x2, ccr
          0x0076ef5e      4e76           trapv
       > 0x0076ef60      defc0028       adda.w 0x28, a7
           0x0076ef64      48e7e0c0       movem.l d0-d2/a0-a1, -(a7)
           0x0076ef68      f227e001       fmovem fp0, -(a7)
            0x0076ef6c      41eefff8       lea.l -0x8(a6), a0
            0x0076ef70      43eefffc       lea.l -0x4(a6), a1
            0x0076ef74      7402           moveq 0x2, d2
            0x0076ef76      202e0018       move.l 0x18(a6), d0
            0x0076ef7a      4c7c08000001.  divs.l 0x10000, d0
            0x0076ef82      f2004000       fmove.l d0, fp0
            0x0076ef86      f2106400       fmove.s fp0, (a0)
            0x0076ef8a      f22e44000010   fmove.s 0x10(a6), fp0
            0x0076ef90      f2024020       fdiv.l d2, fp0
            0x0076ef94      202e001c       move.l 0x1c(a6), d0
            0x0076ef98      4c7c08000001.  divs.l 0x10000, d0
            0x0076efa0      f2004022       fadd.l d0, fp0
            0x0076efa4      f2116400       fmove.s fp0, (a1)
            0x0076efa8      f22e44180014   fabs.s 0x14(a6), fp0
            0x0076efae      f2104422       fadd.s (a0), fp0
            0x0076efb2      f22e6400fff0   fmove.s fp0, -0x10(a6)
            0x0076efb8      f23c40000000.  fmove.l 0x3, fp0
            0x0076efc0      f22e44230010   fmul.s 0x10(a6), fp0
            0x0076efc6      f2024020       fdiv.l d2, fp0
            0x0076efca      f200001a       fneg fp0
            0x0076efce      f2114422       fadd.s (a1), fp0
            0x0076efd2      f22e6400fff4   fmove.s fp0, -0xc(a6)
            0x0076efd8      422e0020       clr.b 0x20(a6)
            0x0076efdc      302e0008       move.w 0x8(a6), d0
            0x0076efe0      48c0           ext.l d0
            0x0076efe2      322e000c       move.w 0xc(a6), d1
            0x0076efe6      48c1           ext.l d1
            0x0076efe8      d280           add.l d0, d1
            0x0076efea      f2104400       fmove.s (a0), fp0
            0x0076efee      f2014038       fcmp.l d1, fp0
            0x0076eff2      f2920042       fbf.w 0x76f036
            0x0076eff6      322e000a       move.w 0xa(a6), d1
            0x0076effa      48c1           ext.l d1
            0x0076effc      f2114400       fmove.s (a1), fp0
            0x0076f000      f2014038       fcmp.l d1, fp0
            0x0076f004      f2940030       fbf.w 0x76f036
            0x0076f008      f22e4400fff0   fmove.s -0x10(a6), fp0
            0x0076f00e      f2004038       fcmp.l d0, fp0
            0x0076f012      f2940022       fbf.w 0x76f036
            0x0076f016      302e000a       move.w 0xa(a6), d0
            0x0076f01a      48c0           ext.l d0
            0x0076f01c      322e000e       move.w 0xe(a6), d1
            0x0076f020      48c1           ext.l d1
            0x0076f022      d280           add.l d0, d1
            0x0076f024      f22e4400fff4   fmove.s -0xc(a6), fp0
            0x0076f02a      f2014038       fcmp.l d1, fp0
            0x0076f02e      f2920006       fbf.w 0x76f036
            0x0076f032      522e0020       addq.b 0x1, 0x20(a6)
            0x0076f036      f21fd080       fmovem (a7)+, fp0
            0x0076f03a      4cdf0307       movem.l (a7)+, d0-d2/a0-a1
            0x0076f03e      4e5e           unlk a6
            0x0076f040      4e75           rts
 94: TYPECOM.check_for_compo ();
           0x0076f042      4e56ffe6       link.w a6, 0xffe6
           0x0076f046      bfd5           cmpa.l (a5), a7
       < 0x0076f048      6206           bhi.b 0x76f050
          0x0076f04a      44fc0002       move.w 0x2, ccr
          0x0076f04e      4e76           trapv
       > 0x0076f050      defc0014       adda.w 0x14, a7
           0x0076f054      48e7c108       movem.l d0-d1/d7/a4, -(a7)
           0x0076f058      7201           moveq 0x1, d1
           0x0076f05a      286e0008       movea.l 0x8(a6), a4
           0x0076f05e      b8c1           cmpa.w d1, a4
       < 0x0076f060      6604           bne.b 0x76f066
          0x0076f062      7e00           moveq 0x0, d7
      < 0x0076f064      6002           bra.b 0x76f068
      > 0x0076f066      7e01           moveq 0x1, d7
      > 0x0076f068      4a07           tst.b d7
      < 0x0076f06a      6728           beq.b 0x76f094
         0x0076f06c      302e000e       move.w 0xe(a6), d0
         0x0076f070      48c0           ext.l d0
         0x0076f072      b0ac000a       cmp.l 0xa(a4), d0
     < 0x0076f076      6610           bne.b 0x76f088
        0x0076f078      302e000c       move.w 0xc(a6), d0
        0x0076f07c      48c0           ext.l d0
        0x0076f07e      b0ac000e       cmp.l 0xe(a4), d0
    < 0x0076f082      6604           bne.b 0x76f088
       0x0076f084      7e00           moveq 0x0, d7
   < 0x0076f086      6004           bra.b 0x76f08c
   > 0x0076f088      286c0012       movea.l 0x12(a4), a4
   > 0x0076f08c      b8c1           cmpa.w d1, a4
     < 0x0076f08e      6602           bne.b 0x76f092
        0x0076f090      7e00           moveq 0x0, d7
     < 0x0076f092      60d4           bra.b 0x76f068
      > 0x0076f094      2d4c0010       move.l a4, 0x10(a6)
           0x0076f098      4cdf1083       movem.l (a7)+, d0-d1/d7/a4
           0x0076f09c      4e5e           unlk a6
           0x0076f09e      4e75           rts
 24: TYPECOM.horizontal_scri ();
           0x0076f0a0      4e56ff48       link.w a6, 0xff48
           0x0076f0a4      bfd5           cmpa.l (a5), a7
       < 0x0076f0a6      6206           bhi.b 0x76f0ae
          0x0076f0a8      44fc0002       move.w 0x2, ccr
          0x0076f0ac      4e76           trapv
       > 0x0076f0ae      defc00ac       adda.w 0xac, a7
           0x0076f0b2      48e7f3f0       movem.l d0-d3/d6-d7/a0-a3, -(a7)
           0x0076f0b6      f227e00f       fmovem fp0-fp3, -(a7)
            0x0076f0ba      7601           moveq 0x1, d3
            0x0076f0bc      29430010       move.l d3, 0x10(a4)
            0x0076f0c0      206c0068       movea.l 0x68(a4), a0
            0x0076f0c4      296800080004   move.l 0x8(a0), 0x4(a4)
            0x0076f0ca      102c005a       move.b 0x5a(a4), d0
            0x0076f0ce      b003           cmp.b d3, d0
        < 0x0076f0d0      6634           bne.b 0x76f106
           0x0076f0d2      206c0004       movea.l 0x4(a4), a0
           0x0076f0d6      594f           subq.w 0x4, a7
           0x0076f0d8      f22c44000060   fmove.s 0x60(a4), fp0
           0x0076f0de      f22840230044   fmul.l 0x44(a0), fp0
           0x0076f0e4      f22844230038   fmul.s 0x38(a0), fp0
           0x0076f0ea      f22840200040   fdiv.l 0x40(a0), fp0
           0x0076f0f0      f2276400       fmove.s fp0, -(a7)
           0x0076f0f4      4eb9004081d2   jsr p_round
           0x0076f0fa      584f           addq.w 0x4, a7
           0x0076f0fc      201f           move.l (a7)+, d0
           0x0076f0fe      e180           asl.l 0x8, d0
           0x0076f100      eb80           asl.l 0x5, d0
           0x0076f102      91ac0014       sub.l d0, 0x14(a4)
        > 0x0076f106      f23c40000000.  fmove.l 0x2000, fp0
            0x0076f10e      f22c44230060   fmul.s 0x60(a4), fp0
            0x0076f114      f23c40800000.  fmove.l 0x2000, fp1
            0x0076f11c      f22c44a30064   fmul.s 0x64(a4), fp1
        > 0x0076f122      206c0004       movea.l 0x4(a4), a0
           0x0076f126      b0c3           cmpa.w d3, a0
       < 0x0076f128      6700045a       beq.w 0x76f584
          0x0076f12c      f22845000038   fmove.s 0x38(a0), fp2
          0x0076f132      f23c41380000.  fcmp.l 0x258, fp2
          0x0076f13a      f29d0010       fbf.w 0x76f14c
          0x0076f13e      f23c41000000.  fmove.l 0x258, fp2
          0x0076f146      f22865000038   fmove.s fp2, 0x38(a0)
          0x0076f14c      f22845000038   fmove.s 0x38(a0), fp2
          0x0076f152      f22841200040   fdiv.l 0x40(a0), fp2
          0x0076f158      594f           subq.w 0x4, a7
          0x0076f15a      f2000180       fmove fp0, fp3
          0x0076f15e      f20009a3       fmul fp2, fp3
          0x0076f162      f2276580       fmove.s fp3, -(a7)
          0x0076f166      4eb9004081d2   jsr p_round
          0x0076f16c      584f           addq.w 0x4, a7
          0x0076f16e      2957001c       move.l (a7), 0x1c(a4)
          0x0076f172      f2000523       fmul fp1, fp2
          0x0076f176      f2276500       fmove.s fp2, -(a7)
          0x0076f17a      4eb9004081d2   jsr p_round
          0x0076f180      584f           addq.w 0x4, a7
          0x0076f182      201f           move.l (a7)+, d0
          0x0076f184      29400020       move.l d0, 0x20(a4)
          0x0076f188      3228002e       move.w 0x2e(a0), d1
          0x0076f18c      48c1           ext.l d1
          0x0076f18e      d2a8004c       add.l 0x4c(a0), d1
          0x0076f192      4c001800       muls.l d0, d1
          0x0076f196      4481           neg.l d1
          0x0076f198      d2ac0018       add.l 0x18(a4), d1
          0x0076f19c      21410056       move.l d1, 0x56(a0)
          0x0076f1a0      4a28000e       tst.b 0xe(a0)
      < 0x0076f1a4      670001bc       beq.w 0x76f362
         0x0076f1a8      226c0010       movea.l 0x10(a4), a1
         0x0076f1ac      b2c3           cmpa.w d3, a1
     < 0x0076f1ae      660000ae       bne.w 0x76f25e
        0x0076f1b2      24680004       movea.l 0x4(a0), a2
        0x0076f1b6      b4c3           cmpa.w d3, a2
    < 0x0076f1b8      661e           bne.b 0x76f1d8
   > 0x0076f1ba      3228002c       move.w 0x2c(a0), d1
      0x0076f1be      48c1           ext.l d1
      0x0076f1c0      4481           neg.l d1
      0x0076f1c2      d2a80048       add.l 0x48(a0), d1
      0x0076f1c6      4c2c1800001c   muls.l 0x1c(a4), d1
      0x0076f1cc      d2ac0014       add.l 0x14(a4), d1
      0x0076f1d0      21410052       move.l d1, 0x52(a0)
  < 0x0076f1d4      600003a0       bra.w 0x76f576
  > 0x0076f1d8      594f           subq.w 0x4, a7
      0x0076f1da      3f2a0010       move.w 0x10(a2), -(a7)
      0x0076f1de      3f280010       move.w 0x10(a0), -(a7)
      0x0076f1e2      2f28007e       move.l 0x7e(a0), -(a7)
      0x0076f1e6      4ebafe5a       jsr TYPECOM.check_for_compo(pc)
      0x0076f1ea      504f           addq.w 0x8, a7
      0x0076f1ec      295f0042       move.l (a7)+, 0x42(a4)
      0x0076f1f0      226c0042       movea.l 0x42(a4), a1
      0x0076f1f4      b2c3           cmpa.w d3, a1
  < 0x0076f1f6      6762           beq.b 0x76f25a
     0x0076f1f8      32290006       move.w 0x6(a1), d1
     0x0076f1fc      48c1           ext.l d1
     0x0076f1fe      34290004       move.w 0x4(a1), d2
     0x0076f202      48c2           ext.l d2
     0x0076f204      4482           neg.l d2
     0x0076f206      d481           add.l d1, d2
     0x0076f208      4c2c2800001c   muls.l 0x1c(a4), d2
     0x0076f20e      e782           asl.l 0x3, d2
     0x0076f210      d4ac0014       add.l 0x14(a4), d2
     0x0076f214      3228002c       move.w 0x2c(a0), d1
     0x0076f218      48c1           ext.l d1
     0x0076f21a      4481           neg.l d1
     0x0076f21c      d2a80048       add.l 0x48(a0), d1
     0x0076f220      4c2c1800001c   muls.l 0x1c(a4), d1
     0x0076f226      d282           add.l d2, d1
     0x0076f228      21410052       move.l d1, 0x52(a0)
     0x0076f22c      32290008       move.w 0x8(a1), d1
     0x0076f230      48c1           ext.l d1
     0x0076f232      4c2c1800001c   muls.l 0x1c(a4), d1
     0x0076f238      e781           asl.l 0x3, d1
     0x0076f23a      4481           neg.l d1
     0x0076f23c      d2ac0018       add.l 0x18(a4), d1
  > 0x0076f240      3428002e       move.w 0x2e(a0), d2
     0x0076f244      48c2           ext.l d2
     0x0076f246      d4a8004c       add.l 0x4c(a0), d2
     0x0076f24a      4c002800       muls.l d0, d2
     0x0076f24e      4482           neg.l d2
     0x0076f250      d481           add.l d1, d2
     0x0076f252      21420056       move.l d2, 0x56(a0)
  < 0x0076f256      6000031e       bra.w 0x76f576
  > 0x0076f25a      6000ff5e       bra.w 0x76f1ba
    > 0x0076f25e      594f           subq.w 0x4, a7
        0x0076f260      3f290010       move.w 0x10(a1), -(a7)
        0x0076f264      3f280010       move.w 0x10(a0), -(a7)
        0x0076f268      2f28007e       move.l 0x7e(a0), -(a7)
        0x0076f26c      4ebafdd4       jsr TYPECOM.check_for_compo(pc)
        0x0076f270      504f           addq.w 0x8, a7
        0x0076f272      295f0042       move.l (a7)+, 0x42(a4)
        0x0076f276      246c0042       movea.l 0x42(a4), a2
        0x0076f27a      b4c3           cmpa.w d3, a2
    < 0x0076f27c      676c           beq.b 0x76f2ea
       0x0076f27e      322a0006       move.w 0x6(a2), d1
       0x0076f282      48c1           ext.l d1
       0x0076f284      342a0004       move.w 0x4(a2), d2
       0x0076f288      48c2           ext.l d2
       0x0076f28a      4482           neg.l d2
       0x0076f28c      d481           add.l d1, d2
       0x0076f28e      4c2c2800001c   muls.l 0x1c(a4), d2
       0x0076f294      e782           asl.l 0x3, d2
       0x0076f296      d4a90052       add.l 0x52(a1), d2
       0x0076f29a      21420052       move.l d2, 0x52(a0)
       0x0076f29e      4a2c005a       tst.b 0x5a(a4)
   < 0x0076f2a2      6614           bne.b 0x76f2b8
      0x0076f2a4      3228002c       move.w 0x2c(a0), d1
      0x0076f2a8      48c1           ext.l d1
      0x0076f2aa      4481           neg.l d1
      0x0076f2ac      d2a80048       add.l 0x48(a0), d1
      0x0076f2b0      4c2c1800001c   muls.l 0x1c(a4), d1
  < 0x0076f2b6      6014           bra.b 0x76f2cc
  > 0x0076f2b8      3228002c       move.w 0x2c(a0), d1
      0x0076f2bc      48c1           ext.l d1
      0x0076f2be      4481           neg.l d1
      0x0076f2c0      d2a80048       add.l 0x48(a0), d1
      0x0076f2c4      4c2c1800001c   muls.l 0x1c(a4), d1
      0x0076f2ca      4481           neg.l d1
  > 0x0076f2cc      d282           add.l d2, d1
       0x0076f2ce      21410052       move.l d1, 0x52(a0)
       0x0076f2d2      322a0008       move.w 0x8(a2), d1
       0x0076f2d6      48c1           ext.l d1
       0x0076f2d8      4c2c1800001c   muls.l 0x1c(a4), d1
       0x0076f2de      e781           asl.l 0x3, d1
       0x0076f2e0      4481           neg.l d1
       0x0076f2e2      d2a90056       add.l 0x56(a1), d1
  < 0x0076f2e6      6000ff58       bra.w 0x76f240
    > 0x0076f2ea      4a2c005a       tst.b 0x5a(a4)
    < 0x0076f2ee      6612           bne.b 0x76f302
       0x0076f2f0      3229002c       move.w 0x2c(a1), d1
       0x0076f2f4      48c1           ext.l d1
       0x0076f2f6      d2a9003c       add.l 0x3c(a1), d1
       0x0076f2fa      4c2c1800001c   muls.l 0x1c(a4), d1
   < 0x0076f300      6012           bra.b 0x76f314
   > 0x0076f302      3229002c       move.w 0x2c(a1), d1
       0x0076f306      48c1           ext.l d1
       0x0076f308      d2a9003c       add.l 0x3c(a1), d1
       0x0076f30c      4c2c1800001c   muls.l 0x1c(a4), d1
       0x0076f312      4481           neg.l d1
   > 0x0076f314      d2a90052       add.l 0x52(a1), d1
        0x0076f318      2941002c       move.l d1, 0x2c(a4)
        0x0076f31c      4a2c005a       tst.b 0x5a(a4)
    < 0x0076f320      6624           bne.b 0x76f346
       0x0076f322      22280048       move.l 0x48(a0), d1
       0x0076f326      92a8003c       sub.l 0x3c(a0), d1
       0x0076f32a      3428002c       move.w 0x2c(a0), d2
       0x0076f32e      48c2           ext.l d2
       0x0076f330      4482           neg.l d2
       0x0076f332      d481           add.l d1, d2
       0x0076f334      4c2c2800001c   muls.l 0x1c(a4), d2
   > 0x0076f33a      d4ac002c       add.l 0x2c(a4), d2
      0x0076f33e      21420052       move.l d2, 0x52(a0)
  < 0x0076f342      60000232       bra.w 0x76f576
  > 0x0076f346      22280048       move.l 0x48(a0), d1
      0x0076f34a      92a8003c       sub.l 0x3c(a0), d1
      0x0076f34e      3428002c       move.w 0x2c(a0), d2
      0x0076f352      48c2           ext.l d2
      0x0076f354      4482           neg.l d2
      0x0076f356      d481           add.l d1, d2
      0x0076f358      4c2c2800001c   muls.l 0x1c(a4), d2
      0x0076f35e      4482           neg.l d2
  < 0x0076f360      60d8           bra.b 0x76f33a
    > 0x0076f362      30280010       move.w 0x10(a0), d0
        0x0076f366      0c400020       cmpi.w 0x20, d0
    < 0x0076f36a      670c           beq.b 0x76f378
       0x0076f36c      0c40000d       cmpi.w 0xd, d0
   < 0x0076f370      6706           beq.b 0x76f378
      0x0076f372      0c400404       cmpi.w 0x404, d0
  < 0x0076f376      6608           bne.b 0x76f380
  > 0x0076f378      216c00140052   move.l 0x14(a4), 0x52(a0)
   < 0x0076f37e      6034           bra.b 0x76f3b4
  > 0x0076f380      4a2c005a       tst.b 0x5a(a4)
   < 0x0076f384      6614           bne.b 0x76f39a
      0x0076f386      3028002c       move.w 0x2c(a0), d0
      0x0076f38a      48c0           ext.l d0
      0x0076f38c      4480           neg.l d0
      0x0076f38e      d0a80048       add.l 0x48(a0), d0
      0x0076f392      4c2c0800001c   muls.l 0x1c(a4), d0
  < 0x0076f398      6012           bra.b 0x76f3ac
  > 0x0076f39a      3028002c       move.w 0x2c(a0), d0
      0x0076f39e      48c0           ext.l d0
      0x0076f3a0      d0a80048       add.l 0x48(a0), d0
      0x0076f3a4      4c2c0800001c   muls.l 0x1c(a4), d0
      0x0076f3aa      4480           neg.l d0
  > 0x0076f3ac      d0ac0014       add.l 0x14(a4), d0
       0x0076f3b0      21400052       move.l d0, 0x52(a0)
    > 0x0076f3b4      30280010       move.w 0x10(a0), d0
        0x0076f3b8      0c400404       cmpi.w 0x404, d0
    < 0x0076f3bc      6600009c       bne.w 0x76f45a
       0x0076f3c0      302c005c       move.w 0x5c(a4), d0
       0x0076f3c4      48c0           ext.l d0
       0x0076f3c6      e180           asl.l 0x8, d0
       0x0076f3c8      eb80           asl.l 0x5, d0
       0x0076f3ca      594f           subq.w 0x4, a7
       0x0076f3cc      222c0014       move.l 0x14(a4), d1
       0x0076f3d0      9280           sub.l d0, d1
       0x0076f3d2      f2014100       fmove.l d1, fp2
       0x0076f3d6      f22c45200060   fdiv.s 0x60(a4), fp2
       0x0076f3dc      f2276500       fmove.s fp2, -(a7)
       0x0076f3e0      4eb9004081d2   jsr p_round
       0x0076f3e6      584f           addq.w 0x4, a7
       0x0076f3e8      29570024       move.l (a7), 0x24(a4)
       0x0076f3ec      322c005e       move.w 0x5e(a4), d1
       0x0076f3f0      48c1           ext.l d1
       0x0076f3f2      e181           asl.l 0x8, d1
       0x0076f3f4      eb81           asl.l 0x5, d1
       0x0076f3f6      4481           neg.l d1
       0x0076f3f8      d2ac0018       add.l 0x18(a4), d1
       0x0076f3fc      f2014100       fmove.l d1, fp2
       0x0076f400      f22c45200064   fdiv.s 0x64(a4), fp2
       0x0076f406      f2276500       fmove.s fp2, -(a7)
       0x0076f40a      4eb9004081d2   jsr p_round
       0x0076f410      584f           addq.w 0x4, a7
       0x0076f412      295f0028       move.l (a7)+, 0x28(a4)
       0x0076f416      4a2c005a       tst.b 0x5a(a4)
   < 0x0076f41a      660a           bne.b 0x76f426
      0x0076f41c      1f03           move.b d3, -(a7)
      0x0076f41e      486c0024       pea.l 0x24(a4)
      0x0076f422      4227           clr.b -(a7)
  < 0x0076f424      6008           bra.b 0x76f42e
  > 0x0076f426      1f03           move.b d3, -(a7)
      0x0076f428      486c0024       pea.l 0x24(a4)
      0x0076f42c      1f03           move.b d3, -(a7)
  > 0x0076f42e      4eb9004feeda   jsr MENUGRIDCOM.next_tab_pos
       0x0076f434      504f           addq.w 0x8, a7
       0x0076f436      594f           subq.w 0x4, a7
       0x0076f438      f22c41000024   fmove.l 0x24(a4), fp2
       0x0076f43e      f22c45230060   fmul.s 0x60(a4), fp2
       0x0076f444      f2276500       fmove.s fp2, -(a7)
       0x0076f448      4eb9004081d2   jsr p_round
       0x0076f44e      584f           addq.w 0x4, a7
       0x0076f450      d09f           add.l (a7)+, d0
       0x0076f452      29400014       move.l d0, 0x14(a4)
   < 0x0076f456      60000118       bra.w 0x76f570
   > 0x0076f45a      4a280008       tst.b 0x8(a0)
   < 0x0076f45e      660000c2       bne.w 0x76f522
      0x0076f462      4aa8001e       tst.l 0x1e(a0)
  < 0x0076f466      670000ba       beq.w 0x76f522
     0x0076f46a      4a2c005a       tst.b 0x5a(a4)
  < 0x0076f46e      661a           bne.b 0x76f48a
     0x0076f470      2e28001e       move.l 0x1e(a0), d7
     0x0076f474      22680004       movea.l 0x4(a0), a1
     0x0076f478      b2c3           cmpa.w d3, a1
  < 0x0076f47a      6608           bne.b 0x76f484
     0x0076f47c      48780001       pea.l 0x1
     0x0076f480      2c1f           move.l (a7)+, d6
  < 0x0076f482      601e           bra.b 0x76f4a2
  > 0x0076f484      2c29001e       move.l 0x1e(a1), d6
  < 0x0076f488      6018           bra.b 0x76f4a2
  > 0x0076f48a      2c28001e       move.l 0x1e(a0), d6
     0x0076f48e      22680004       movea.l 0x4(a0), a1
     0x0076f492      b2c3           cmpa.w d3, a1
  < 0x0076f494      6608           bne.b 0x76f49e
     0x0076f496      48780001       pea.l 0x1
     0x0076f49a      2e1f           move.l (a7)+, d7
  < 0x0076f49c      6004           bra.b 0x76f4a2
  > 0x0076f49e      2e29001e       move.l 0x1e(a1), d7
  > 0x0076f4a2      594f           subq.w 0x4, a7
     0x0076f4a4      2f07           move.l d7, -(a7)
     0x0076f4a6      2f06           move.l d6, -(a7)
     0x0076f4a8      2f280016       move.l 0x16(a0), -(a7)
     0x0076f4ac      48780000       pea.l 0x0
     0x0076f4b0      2f280038       move.l 0x38(a0), -(a7)
     0x0076f4b4      f22845000038   fmove.s 0x38(a0), fp2
     0x0076f4ba      f22841200040   fdiv.l 0x40(a0), fp2
     0x0076f4c0      f2276500       fmove.s fp2, -(a7)
     0x0076f4c4      4eb9006808bc   jsr VECTORFONT.vec_char_spacin
     0x0076f4ca      defc0018       adda.w 0x18, a7
     0x0076f4ce      295f003e       move.l (a7)+, 0x3e(a4)
     0x0076f4d2      4a2c005a       tst.b 0x5a(a4)
  < 0x0076f4d6      6624           bne.b 0x76f4fc
     0x0076f4d8      594f           subq.w 0x4, a7
     0x0076f4da      f22c4500003e   fmove.s 0x3e(a4), fp2
     0x0076f4e0      f23c41230001.  fmul.l 0x10000, fp2
     0x0076f4e8      f2276500       fmove.s fp2, -(a7)
     0x0076f4ec      4eb9004081d2   jsr p_round
     0x0076f4f2      584f           addq.w 0x4, a7
     0x0076f4f4      202c0014       move.l 0x14(a4), d0
     0x0076f4f8      d09f           add.l (a7)+, d0
  < 0x0076f4fa      6022           bra.b 0x76f51e
  > 0x0076f4fc      594f           subq.w 0x4, a7
     0x0076f4fe      f22c4500003e   fmove.s 0x3e(a4), fp2
     0x0076f504      f23c41230001.  fmul.l 0x10000, fp2
     0x0076f50c      f2276500       fmove.s fp2, -(a7)
     0x0076f510      4eb9004081d2   jsr p_round
     0x0076f516      584f           addq.w 0x4, a7
     0x0076f518      202c0014       move.l 0x14(a4), d0
     0x0076f51c      909f           sub.l (a7)+, d0
  > 0x0076f51e      29400014       move.l d0, 0x14(a4)
  > 0x0076f522      4a2c005a       tst.b 0x5a(a4)
   < 0x0076f526      6610           bne.b 0x76f538
      0x0076f528      202c001c       move.l 0x1c(a4), d0
      0x0076f52c      4c2808000044   muls.l 0x44(a0), d0
      0x0076f532      d1ac0014       add.l d0, 0x14(a4)
  < 0x0076f536      6038           bra.b 0x76f570
  > 0x0076f538      22680004       movea.l 0x4(a0), a1
      0x0076f53c      b2c3           cmpa.w d3, a1
  < 0x0076f53e      660c           bne.b 0x76f54c
     0x0076f540      202c001c       move.l 0x1c(a4), d0
     0x0076f544      4c2808000044   muls.l 0x44(a0), d0
  < 0x0076f54a      6020           bra.b 0x76f56c
  > 0x0076f54c      2649           movea.l a1, a3
  > 0x0076f54e      4a2b000e       tst.b 0xe(a3)
  < 0x0076f552      670e           beq.b 0x76f562
     0x0076f554      246b0004       movea.l 0x4(a3), a2
     0x0076f558      b4c3           cmpa.w d3, a2
  < 0x0076f55a      6706           beq.b 0x76f562
     0x0076f55c      266b0004       movea.l 0x4(a3), a3
  < 0x0076f560      60ec           bra.b 0x76f54e
  > 0x0076f562      202c001c       move.l 0x1c(a4), d0
      0x0076f566      4c2b08000044   muls.l 0x44(a3), d0
  > 0x0076f56c      91ac0014       sub.l d0, 0x14(a4)
  > 0x0076f570      296c00040010   move.l 0x4(a4), 0x10(a4)
  > 0x0076f576      226c0004       movea.l 0x4(a4), a1
          0x0076f57a      296900040004   move.l 0x4(a1), 0x4(a4)
       < 0x0076f580      6000fba0       bra.w 0x76f122
       > 0x0076f584      f21fd0f0       fmovem (a7)+, fp0-fp3
            0x0076f588      4cdf0fcf       movem.l (a7)+, d0-d3/d6-d7/a0-a3
            0x0076f58c      4e5e           unlk a6
            0x0076f58e      4e75           rts
 24: TYPECOM.vertical_script ();
           0x0076f590      4e56ff7c       link.w a6, 0xff7c
           0x0076f594      bfd5           cmpa.l (a5), a7
       < 0x0076f596      6206           bhi.b 0x76f59e
          0x0076f598      44fc0002       move.w 0x2, ccr
          0x0076f59c      4e76           trapv
       > 0x0076f59e      defc0084       adda.w 0x84, a7
           0x0076f5a2      48e7f0f0       movem.l d0-d3/a0-a3, -(a7)
           0x0076f5a6      f227e00f       fmovem fp0-fp3, -(a7)
            0x0076f5aa      7401           moveq 0x1, d2
            0x0076f5ac      7602           moveq 0x2, d3
            0x0076f5ae      29420010       move.l d2, 0x10(a4)
            0x0076f5b2      206c0068       movea.l 0x68(a4), a0
            0x0076f5b6      296800080004   move.l 0x8(a0), 0x4(a4)
            0x0076f5bc      102c005b       move.b 0x5b(a4), d0
            0x0076f5c0      b002           cmp.b d2, d0
        < 0x0076f5c2      6634           bne.b 0x76f5f8
           0x0076f5c4      206c0004       movea.l 0x4(a4), a0
           0x0076f5c8      594f           subq.w 0x4, a7
           0x0076f5ca      f22c44000060   fmove.s 0x60(a4), fp0
           0x0076f5d0      f22840230044   fmul.l 0x44(a0), fp0
           0x0076f5d6      f22844230038   fmul.s 0x38(a0), fp0
           0x0076f5dc      f22840200040   fdiv.l 0x40(a0), fp0
           0x0076f5e2      f2276400       fmove.s fp0, -(a7)
           0x0076f5e6      4eb9004081d2   jsr p_round
           0x0076f5ec      584f           addq.w 0x4, a7
           0x0076f5ee      201f           move.l (a7)+, d0
           0x0076f5f0      e180           asl.l 0x8, d0
           0x0076f5f2      eb80           asl.l 0x5, d0
           0x0076f5f4      91ac0014       sub.l d0, 0x14(a4)
        > 0x0076f5f8      f23c40000000.  fmove.l 0x2000, fp0
            0x0076f600      f22c44230060   fmul.s 0x60(a4), fp0
            0x0076f606      f23c40800000.  fmove.l 0x2000, fp1
            0x0076f60e      f22c44a30064   fmul.s 0x64(a4), fp1
        > 0x0076f614      206c0004       movea.l 0x4(a4), a0
           0x0076f618      b0c2           cmpa.w d2, a0
       < 0x0076f61a      670002ca       beq.w 0x76f8e6
          0x0076f61e      f22845000038   fmove.s 0x38(a0), fp2
          0x0076f624      f22841200040   fdiv.l 0x40(a0), fp2
          0x0076f62a      594f           subq.w 0x4, a7
          0x0076f62c      f2000180       fmove fp0, fp3
          0x0076f630      f20009a3       fmul fp2, fp3
          0x0076f634      f2276580       fmove.s fp3, -(a7)
          0x0076f638      4eb9004081d2   jsr p_round
          0x0076f63e      584f           addq.w 0x4, a7
          0x0076f640      2957001c       move.l (a7), 0x1c(a4)
          0x0076f644      f2000523       fmul fp1, fp2
          0x0076f648      f2276500       fmove.s fp2, -(a7)
          0x0076f64c      4eb9004081d2   jsr p_round
          0x0076f652      584f           addq.w 0x4, a7
          0x0076f654      295f0020       move.l (a7)+, 0x20(a4)
          0x0076f658      3028002c       move.w 0x2c(a0), d0
          0x0076f65c      48c0           ext.l d0
          0x0076f65e      4480           neg.l d0
          0x0076f660      d0a8004c       add.l 0x4c(a0), d0
          0x0076f664      4c2c0800001c   muls.l 0x1c(a4), d0
          0x0076f66a      d0ac0014       add.l 0x14(a4), d0
          0x0076f66e      21400052       move.l d0, 0x52(a0)
          0x0076f672      4a28000e       tst.b 0xe(a0)
      < 0x0076f676      6700012a       beq.w 0x76f7a2
         0x0076f67a      226c0010       movea.l 0x10(a4), a1
         0x0076f67e      b2c2           cmpa.w d2, a1
     < 0x0076f680      6600008a       bne.w 0x76f70c
        0x0076f684      24680004       movea.l 0x4(a0), a2
        0x0076f688      b4c2           cmpa.w d2, a2
    < 0x0076f68a      661e           bne.b 0x76f6aa
   > 0x0076f68c      3028002c       move.w 0x2c(a0), d0
      0x0076f690      48c0           ext.l d0
      0x0076f692      4480           neg.l d0
      0x0076f694      d0a80048       add.l 0x48(a0), d0
      0x0076f698      4c2c0800001c   muls.l 0x1c(a4), d0
      0x0076f69e      d0ac0014       add.l 0x14(a4), d0
      0x0076f6a2      21400052       move.l d0, 0x52(a0)
  < 0x0076f6a6      60000234       bra.w 0x76f8dc
  > 0x0076f6aa      594f           subq.w 0x4, a7
      0x0076f6ac      3f2a0010       move.w 0x10(a2), -(a7)
      0x0076f6b0      3f280010       move.w 0x10(a0), -(a7)
      0x0076f6b4      266c0056       movea.l 0x56(a4), a3
      0x0076f6b8      2f2b0516       move.l 0x516(a3), -(a7)
      0x0076f6bc      4ebaf984       jsr TYPECOM.check_for_compo(pc)
      0x0076f6c0      504f           addq.w 0x8, a7
      0x0076f6c2      295f0042       move.l (a7)+, 0x42(a4)
      0x0076f6c6      266c0042       movea.l 0x42(a4), a3
      0x0076f6ca      b6c2           cmpa.w d2, a3
  < 0x0076f6cc      673c           beq.b 0x76f70a
     0x0076f6ce      302b0006       move.w 0x6(a3), d0
     0x0076f6d2      48c0           ext.l d0
     0x0076f6d4      322b0004       move.w 0x4(a3), d1
     0x0076f6d8      48c1           ext.l d1
     0x0076f6da      4481           neg.l d1
     0x0076f6dc      d280           add.l d0, d1
     0x0076f6de      4c2c1800001c   muls.l 0x1c(a4), d1
     0x0076f6e4      e781           asl.l 0x3, d1
     0x0076f6e6      d2ac0014       add.l 0x14(a4), d1
     0x0076f6ea      21410052       move.l d1, 0x52(a0)
     0x0076f6ee      302b0008       move.w 0x8(a3), d0
     0x0076f6f2      48c0           ext.l d0
     0x0076f6f4      4c2c0800001c   muls.l 0x1c(a4), d0
     0x0076f6fa      e780           asl.l 0x3, d0
     0x0076f6fc      4480           neg.l d0
     0x0076f6fe      d0ac0018       add.l 0x18(a4), d0
  > 0x0076f702      21400056       move.l d0, 0x56(a0)
  < 0x0076f706      600001d4       bra.w 0x76f8dc
  > 0x0076f70a      6080           bra.b 0x76f68c
    > 0x0076f70c      594f           subq.w 0x4, a7
        0x0076f70e      3f290010       move.w 0x10(a1), -(a7)
        0x0076f712      3f280010       move.w 0x10(a0), -(a7)
        0x0076f716      246c0056       movea.l 0x56(a4), a2
        0x0076f71a      2f2a0516       move.l 0x516(a2), -(a7)
        0x0076f71e      4ebaf922       jsr TYPECOM.check_for_compo(pc)
        0x0076f722      504f           addq.w 0x8, a7
        0x0076f724      295f0042       move.l (a7)+, 0x42(a4)
        0x0076f728      246c0042       movea.l 0x42(a4), a2
        0x0076f72c      b4c2           cmpa.w d2, a2
    < 0x0076f72e      6736           beq.b 0x76f766
       0x0076f730      302a0006       move.w 0x6(a2), d0
       0x0076f734      48c0           ext.l d0
       0x0076f736      322a0004       move.w 0x4(a2), d1
       0x0076f73a      48c1           ext.l d1
       0x0076f73c      4481           neg.l d1
       0x0076f73e      d280           add.l d0, d1
       0x0076f740      4c2c1800001c   muls.l 0x1c(a4), d1
       0x0076f746      e781           asl.l 0x3, d1
       0x0076f748      d2a90052       add.l 0x52(a1), d1
       0x0076f74c      21410052       move.l d1, 0x52(a0)
       0x0076f750      302a0008       move.w 0x8(a2), d0
       0x0076f754      48c0           ext.l d0
       0x0076f756      4c2c0800001c   muls.l 0x1c(a4), d0
       0x0076f75c      e780           asl.l 0x3, d0
       0x0076f75e      4480           neg.l d0
       0x0076f760      d0a90056       add.l 0x56(a1), d0
  < 0x0076f764      609c           bra.b 0x76f702
    > 0x0076f766      3029002c       move.w 0x2c(a1), d0
        0x0076f76a      48c0           ext.l d0
        0x0076f76c      d0a9003c       add.l 0x3c(a1), d0
        0x0076f770      4c2c0800001c   muls.l 0x1c(a4), d0
        0x0076f776      d0a90052       add.l 0x52(a1), d0
        0x0076f77a      2940002c       move.l d0, 0x2c(a4)
        0x0076f77e      20280048       move.l 0x48(a0), d0
        0x0076f782      90a8003c       sub.l 0x3c(a0), d0
        0x0076f786      3228002c       move.w 0x2c(a0), d1
        0x0076f78a      48c1           ext.l d1
        0x0076f78c      4481           neg.l d1
        0x0076f78e      d280           add.l d0, d1
        0x0076f790      4c2c1800001c   muls.l 0x1c(a4), d1
        0x0076f796      d2ac002c       add.l 0x2c(a4), d1
        0x0076f79a      21410052       move.l d1, 0x52(a0)
    < 0x0076f79e      6000013c       bra.w 0x76f8dc
    > 0x0076f7a2      30280010       move.w 0x10(a0), d0
        0x0076f7a6      0c400020       cmpi.w 0x20, d0
    < 0x0076f7aa      670c           beq.b 0x76f7b8
       0x0076f7ac      0c40000d       cmpi.w 0xd, d0
   < 0x0076f7b0      6706           beq.b 0x76f7b8
      0x0076f7b2      0c400404       cmpi.w 0x404, d0
  < 0x0076f7b6      6602           bne.b 0x76f7ba
  > 0x0076f7b8      6014           bra.b 0x76f7ce
  > 0x0076f7ba      3028002e       move.w 0x2e(a0), d0
        0x0076f7be      48c0           ext.l d0
        0x0076f7c0      d0a80048       add.l 0x48(a0), d0
        0x0076f7c4      4c2c08000020   muls.l 0x20(a4), d0
        0x0076f7ca      d1ac0018       add.l d0, 0x18(a4)
  > 0x0076f7ce      216c00180056   move.l 0x18(a4), 0x56(a0)
        0x0076f7d4      30280010       move.w 0x10(a0), d0
        0x0076f7d8      0c400404       cmpi.w 0x404, d0
    < 0x0076f7dc      6600009e       bne.w 0x76f87c
       0x0076f7e0      594f           subq.w 0x4, a7
       0x0076f7e2      302c005c       move.w 0x5c(a4), d0
       0x0076f7e6      48c0           ext.l d0
       0x0076f7e8      e180           asl.l 0x8, d0
       0x0076f7ea      eb80           asl.l 0x5, d0
       0x0076f7ec      4480           neg.l d0
       0x0076f7ee      d0ac0014       add.l 0x14(a4), d0
       0x0076f7f2      f2004100       fmove.l d0, fp2
       0x0076f7f6      f22c45200060   fdiv.s 0x60(a4), fp2
       0x0076f7fc      f2276500       fmove.s fp2, -(a7)
       0x0076f800      4eb9004081d2   jsr p_round
       0x0076f806      584f           addq.w 0x4, a7
       0x0076f808      295f0024       move.l (a7)+, 0x24(a4)
       0x0076f80c      302c005e       move.w 0x5e(a4), d0
       0x0076f810      48c0           ext.l d0
       0x0076f812      e180           asl.l 0x8, d0
       0x0076f814      eb80           asl.l 0x5, d0
       0x0076f816      594f           subq.w 0x4, a7
       0x0076f818      222c0018       move.l 0x18(a4), d1
       0x0076f81c      9280           sub.l d0, d1
       0x0076f81e      f2014100       fmove.l d1, fp2
       0x0076f822      f22c45200064   fdiv.s 0x64(a4), fp2
       0x0076f828      f2276500       fmove.s fp2, -(a7)
       0x0076f82c      4eb9004081d2   jsr p_round
       0x0076f832      584f           addq.w 0x4, a7
       0x0076f834      295f0028       move.l (a7)+, 0x28(a4)
       0x0076f838      4a2c005b       tst.b 0x5b(a4)
   < 0x0076f83c      660a           bne.b 0x76f848
      0x0076f83e      4227           clr.b -(a7)
      0x0076f840      486c0024       pea.l 0x24(a4)
      0x0076f844      4227           clr.b -(a7)
  < 0x0076f846      6008           bra.b 0x76f850
  > 0x0076f848      4227           clr.b -(a7)
      0x0076f84a      486c0024       pea.l 0x24(a4)
      0x0076f84e      1f02           move.b d2, -(a7)
  > 0x0076f850      4eb9004feeda   jsr MENUGRIDCOM.next_tab_pos
       0x0076f856      504f           addq.w 0x8, a7
       0x0076f858      594f           subq.w 0x4, a7
       0x0076f85a      f22c41000028   fmove.l 0x28(a4), fp2
       0x0076f860      f22c45230060   fmul.s 0x60(a4), fp2
       0x0076f866      f2004122       fadd.l d0, fp2
       0x0076f86a      f2276500       fmove.s fp2, -(a7)
       0x0076f86e      4eb9004081d2   jsr p_round
       0x0076f874      584f           addq.w 0x4, a7
       0x0076f876      295f0018       move.l (a7)+, 0x18(a4)
   < 0x0076f87a      605c           bra.b 0x76f8d8
   > 0x0076f87c      102c005a       move.b 0x5a(a4), d0
       0x0076f880      b003           cmp.b d3, d0
   < 0x0076f882      663a           bne.b 0x76f8be
      0x0076f884      594f           subq.w 0x4, a7
      0x0076f886      f22c45000064   fmove.s 0x64(a4), fp2
      0x0076f88c      f22845230038   fmul.s 0x38(a0), fp2
      0x0076f892      f23c41230001.  fmul.l 0x10000, fp2
      0x0076f89a      f23c41230000.  fmul.l 0x3, fp2
      0x0076f8a2      f2034120       fdiv.l d3, fp2
      0x0076f8a6      f2276500       fmove.s fp2, -(a7)
      0x0076f8aa      4eb9004081d2   jsr p_round
      0x0076f8b0      584f           addq.w 0x4, a7
      0x0076f8b2      202c0018       move.l 0x18(a4), d0
      0x0076f8b6      d09f           add.l (a7)+, d0
      0x0076f8b8      29400018       move.l d0, 0x18(a4)
  < 0x0076f8bc      601a           bra.b 0x76f8d8
  > 0x0076f8be      487ae34b       pea.l 0x76dc0b(pc)
      0x0076f8c2      4878000b       pea.l 0xb
      0x0076f8c6      2f17           move.l (a7), -(a7)
      0x0076f8c8      4eb9004047ea   jsr p_wts_o
      0x0076f8ce      defc000c       adda.w 0xc, a7
      0x0076f8d2      4eb900404946   jsr p_wtln_o
  > 0x0076f8d8      29480010       move.l a0, 0x10(a4)
  > 0x0076f8dc      296800040004   move.l 0x4(a0), 0x4(a4)
       < 0x0076f8e2      6000fd30       bra.w 0x76f614
       > 0x0076f8e6      f21fd0f0       fmovem (a7)+, fp0-fp3
            0x0076f8ea      4cdf0f0f       movem.l (a7)+, d0-d3/a0-a3
            0x0076f8ee      4e5e           unlk a6
            0x0076f8f0      4e75           rts
 24: TYPECOM.calc_position_t ();
           0x0076f8f2      4e56ff60       link.w a6, 0xff60
           0x0076f8f6      bfd5           cmpa.l (a5), a7
       < 0x0076f8f8      6206           bhi.b 0x76f900
          0x0076f8fa      44fc0002       move.w 0x2, ccr
          0x0076f8fe      4e76           trapv
       > 0x0076f900      defc005e       adda.w 0x5e, a7
           0x0076f904      48e7e7f8       movem.l d0-d2/d5-d7/a0-a4, -(a7)
           0x0076f908      f227e001       fmovem fp0, -(a7)
            0x0076f90c      7401           moveq 0x1, d2
            0x0076f90e      2d6e0026ffce   move.l 0x26(a6), -0x32(a6)
            0x0076f914      2d6e002affd2   move.l 0x2a(a6), -0x2e(a6)
            0x0076f91a      2e2effce       move.l -0x32(a6), d7
            0x0076f91e      102e0014       move.b 0x14(a6), d0
            0x0076f922      4880           ext.w d0
            0x0076f924      013ae2f0       btst.l d0, 0x76dc16(pc)
        < 0x0076f928      670a           beq.b 0x76f934
           0x0076f92a      49eeffba       lea.l -0x46(a6), a4
           0x0076f92e      4ebaf770       jsr TYPECOM.horizontal_scri(pc)
       < 0x0076f932      6008           bra.b 0x76f93c
       > 0x0076f934      49eeffba       lea.l -0x46(a6), a4
           0x0076f938      4ebafc56       jsr TYPECOM.vertical_script(pc)
       > 0x0076f93c      286effba       movea.l -0x46(a6), a4
            0x0076f940      206e0022       movea.l 0x22(a6), a0
            0x0076f944      4a280018       tst.b 0x18(a0)
        < 0x0076f948      670000aa       beq.w 0x76f9f4
           0x0076f94c      2d680008ffbe   move.l 0x8(a0), -0x42(a6)
           0x0076f952      2f08           move.l a0, -(a7)
       > 0x0076f954      2057           movea.l (a7), a0
          0x0076f956      226effbe       movea.l -0x42(a6), a1
          0x0076f95a      b2c2           cmpa.w d2, a1
      < 0x0076f95c      6606           bne.b 0x76f964
         0x0076f95e      584f           addq.w 0x4, a7
     < 0x0076f960      60000092       bra.w 0x76f9f4
     > 0x0076f964      2d49ffc2       move.l a1, -0x3e(a6)
         0x0076f968      2a290052       move.l 0x52(a1), d5
         0x0076f96c      7e00           moveq 0x0, d7
         0x0076f96e      2f08           move.l a0, -(a7)
     > 0x0076f970      2057           movea.l (a7), a0
        0x0076f972      246effbe       movea.l -0x42(a6), a2
        0x0076f976      b4c2           cmpa.w d2, a2
    < 0x0076f978      6604           bne.b 0x76f97e
   > 0x0076f97a      7e01           moveq 0x1, d7
  < 0x0076f97c      601a           bra.b 0x76f998
  > 0x0076f97e      302a0010       move.w 0x10(a2), d0
      0x0076f982      0c400404       cmpi.w 0x404, d0
  < 0x0076f986      6708           beq.b 0x76f990
     0x0076f988      206a0004       movea.l 0x4(a2), a0
     0x0076f98c      b0c2           cmpa.w d2, a0
  < 0x0076f98e      6602           bne.b 0x76f992
  > 0x0076f990      60e8           bra.b 0x76f97a
  > 0x0076f992      2d6a0004ffbe   move.l 0x4(a2), -0x42(a6)
  > 0x0076f998      4a07           tst.b d7
     < 0x0076f99a      67d4           beq.b 0x76f970
         0x0076f99c      584f           addq.w 0x4, a7
         0x0076f99e      246effbe       movea.l -0x42(a6), a2
         0x0076f9a2      2c2a0052       move.l 0x52(a2), d6
         0x0076f9a6      9c85           sub.l d5, d6
         0x0076f9a8      246e0022       movea.l 0x22(a6), a2
         0x0076f9ac      102a0018       move.b 0x18(a2), d0
         0x0076f9b0      b002           cmp.b d2, d0
     < 0x0076f9b2      6608           bne.b 0x76f9bc
        0x0076f9b4      4c7c68060000.  divs.l 0x2, d6
     > 0x0076f9bc      266effc2       movea.l -0x3e(a6), a3
         0x0076f9c0      b6c2           cmpa.w d2, a3
     < 0x0076f9c2      6722           beq.b 0x76f9e6
   > 0x0076f9c4      9dab0052       sub.l d6, 0x52(a3)
      0x0076f9c8      266b0004       movea.l 0x4(a3), a3
      0x0076f9cc      b6c2           cmpa.w d2, a3
  < 0x0076f9ce      6716           beq.b 0x76f9e6
     0x0076f9d0      246effbe       movea.l -0x42(a6), a2
     0x0076f9d4      302a0010       move.w 0x10(a2), d0
     0x0076f9d8      0c400404       cmpi.w 0x404, d0
  < 0x0076f9dc      66e6           bne.b 0x76f9c4
      0x0076f9de      2453           movea.l (a3), a2
      0x0076f9e0      b5eeffbe       cmpa.l -0x42(a6), a2
   < 0x0076f9e4      66de           bne.b 0x76f9c4
  > 0x0076f9e6      246effbe       movea.l -0x42(a6), a2
         0x0076f9ea      2d6a0004ffbe   move.l 0x4(a2), -0x42(a6)
      < 0x0076f9f0      6000ff62       bra.w 0x76f954
     > 0x0076f9f4      206e0022       movea.l 0x22(a6), a0
            0x0076f9f8      2d680008ffbe   move.l 0x8(a0), -0x42(a6)
        > 0x0076f9fe      206effbe       movea.l -0x42(a6), a0
           0x0076fa02      b0c2           cmpa.w d2, a0
       < 0x0076fa04      675e           beq.b 0x76fa64
          0x0076fa06      7000           moveq 0x0, d0
          0x0076fa08      32280010       move.w 0x10(a0), d1
          0x0076fa0c      0c410020       cmpi.w 0x20, d1
      < 0x0076fa10      6746           beq.b 0x76fa58
         0x0076fa12      554f           subq.w 0x2, a7
         0x0076fa14      2f280056       move.l 0x56(a0), -(a7)
         0x0076fa18      2f280052       move.l 0x52(a0), -(a7)
         0x0076fa1c      32280028       move.w 0x28(a0), d1
         0x0076fa20      48c1           ext.l d1
         0x0076fa22      f2014000       fmove.l d1, fp0
         0x0076fa26      f23c40200000.  fdiv.l 0x10, fp0
         0x0076fa2e      f22844230038   fmul.s 0x38(a0), fp0
         0x0076fa34      f22840200040   fdiv.l 0x40(a0), fp0
         0x0076fa3a      f2276400       fmove.s fp0, -(a7)
         0x0076fa3e      2f280038       move.l 0x38(a0), -(a7)
         0x0076fa42      2f2e000c       move.l 0xc(a6), -(a7)
         0x0076fa46      2f2e0008       move.l 0x8(a6), -(a7)
         0x0076fa4a      4ebaf506       jsr TYPECOM.check_char_in_a(pc)
         0x0076fa4e      defc0018       adda.w 0x18, a7
         0x0076fa52      4a1f           tst.b (a7)+
     < 0x0076fa54      6702           beq.b 0x76fa58
        0x0076fa56      5200           addq.b 0x1, d0
     > 0x0076fa58      1140000a       move.b d0, 0xa(a0)
          0x0076fa5c      2d680004ffbe   move.l 0x4(a0), -0x42(a6)
       < 0x0076fa62      609a           bra.b 0x76f9fe
       > 0x0076fa64      f21fd080       fmovem (a7)+, fp0
            0x0076fa68      4cdf1fe7       movem.l (a7)+, d0-d2/d5-d7/a0-a4
            0x0076fa6c      4e5e           unlk a6
            0x0076fa6e      4e75           rts
 174: TYPECOM.enlarge_area ();
           0x0076fa70      4e56ffd6       link.w a6, 0xffd6
           0x0076fa74      bfd5           cmpa.l (a5), a7
       < 0x0076fa76      6206           bhi.b 0x76fa7e
          0x0076fa78      44fc0002       move.w 0x2, ccr
          0x0076fa7c      4e76           trapv
       > 0x0076fa7e      defc0022       adda.w 0x22, a7
           0x0076fa82      48e7e180       movem.l d0-d2/d7/a0, -(a7)
           0x0076fa86      206e0008       movea.l 0x8(a6), a0
           0x0076fa8a      302e000c       move.w 0xc(a6), d0
           0x0076fa8e      b050           cmp.w (a0), d0
       < 0x0076fa90      6c16           bge.b 0x76faa8
          0x0076fa92      3210           move.w (a0), d1
          0x0076fa94      48c1           ext.l d1
          0x0076fa96      48c0           ext.l d0
          0x0076fa98      9280           sub.l d0, d1
          0x0076fa9a      34280004       move.w 0x4(a0), d2
          0x0076fa9e      48c2           ext.l d2
          0x0076faa0      d282           add.l d2, d1
          0x0076faa2      31410004       move.w d1, 0x4(a0)
          0x0076faa6      3080           move.w d0, (a0)
       > 0x0076faa8      48c0           ext.l d0
           0x0076faaa      322e0010       move.w 0x10(a6), d1
           0x0076faae      48c1           ext.l d1
           0x0076fab0      d280           add.l d0, d1
           0x0076fab2      2e01           move.l d1, d7
           0x0076fab4      3010           move.w (a0), d0
           0x0076fab6      48c0           ext.l d0
           0x0076fab8      32280004       move.w 0x4(a0), d1
           0x0076fabc      48c1           ext.l d1
           0x0076fabe      d280           add.l d0, d1
           0x0076fac0      be81           cmp.l d1, d7
       < 0x0076fac2      6f08           ble.b 0x76facc
          0x0076fac4      2207           move.l d7, d1
          0x0076fac6      9280           sub.l d0, d1
          0x0076fac8      31410004       move.w d1, 0x4(a0)
       > 0x0076facc      302e000e       move.w 0xe(a6), d0
           0x0076fad0      b0680002       cmp.w 0x2(a0), d0
       < 0x0076fad4      6c1a           bge.b 0x76faf0
          0x0076fad6      32280002       move.w 0x2(a0), d1
          0x0076fada      48c1           ext.l d1
          0x0076fadc      48c0           ext.l d0
          0x0076fade      9280           sub.l d0, d1
          0x0076fae0      34280006       move.w 0x6(a0), d2
          0x0076fae4      48c2           ext.l d2
          0x0076fae6      d282           add.l d2, d1
          0x0076fae8      31410006       move.w d1, 0x6(a0)
          0x0076faec      31400002       move.w d0, 0x2(a0)
       > 0x0076faf0      48c0           ext.l d0
           0x0076faf2      322e0012       move.w 0x12(a6), d1
           0x0076faf6      48c1           ext.l d1
           0x0076faf8      d280           add.l d0, d1
           0x0076fafa      2e01           move.l d1, d7
           0x0076fafc      30280002       move.w 0x2(a0), d0
           0x0076fb00      48c0           ext.l d0
           0x0076fb02      32280006       move.w 0x6(a0), d1
           0x0076fb06      48c1           ext.l d1
           0x0076fb08      d280           add.l d0, d1
           0x0076fb0a      be81           cmp.l d1, d7
       < 0x0076fb0c      6f08           ble.b 0x76fb16
          0x0076fb0e      2207           move.l d7, d1
          0x0076fb10      9280           sub.l d0, d1
          0x0076fb12      31410006       move.w d1, 0x6(a0)
       > 0x0076fb16      4cdf0187       movem.l (a7)+, d0-d2/d7/a0
           0x0076fb1a      4e5e           unlk a6
           0x0076fb1c      4e75           rts
 186: TYPECOM.quad_wipe ();
           0x0076fb1e      4e56ffcc       link.w a6, 0xffcc
           0x0076fb22      bfd5           cmpa.l (a5), a7
       < 0x0076fb24      6206           bhi.b 0x76fb2c
          0x0076fb26      44fc0002       move.w 0x2, ccr
          0x0076fb2a      4e76           trapv
       > 0x0076fb2c      defc0034       adda.w 0x34, a7
           0x0076fb30      48e7f8f0       movem.l d0-d4/a0-a3, -(a7)
           0x0076fb34      41ee0008       lea.l 0x8(a6), a0
           0x0076fb38      43ee000c       lea.l 0xc(a6), a1
           0x0076fb3c      45f9005213b4   lea.l BRUSHCOM.br_wipe, a2
           0x0076fb42      47ee000e       lea.l 0xe(a6), a3
           0x0076fb46      7401           moveq 0x1, d2
           0x0076fb48      760c           moveq 0xc, d3
           0x0076fb4a      7802           moveq 0x2, d4
           0x0076fb4c      3f3ad88e       move.w 0x76d3dc(pc), -(a7)
           0x0076fb50      2f3ad88c       move.l 0x76d3de(pc), -(a7)
           0x0076fb54      3f3ad886       move.w 0x76d3dc(pc), -(a7)
           0x0076fb58      4eb900520fe8   jsr BRUSHCOM.set_br_key_colo
           0x0076fb5e      5c4f           addq.w 0x6, a7
           0x0076fb60      4217           clr.b (a7)
           0x0076fb62      1f02           move.b d2, -(a7)
           0x0076fb64      2f11           move.l (a1), -(a7)
           0x0076fb66      2f10           move.l (a0), -(a7)
           0x0076fb68      4e92           jsr (a2)                    ; fcn.00000009+0x2
           0x0076fb6a      dec3           adda.w d3, a7
           0x0076fb6c      3011           move.w (a1), d0
           0x0076fb6e      48c0           ext.l d0
           0x0076fb70      81c4           divs.w d4, d0
           0x0076fb72      3280           move.w d0, (a1)
           0x0076fb74      3013           move.w (a3), d0
           0x0076fb76      48c0           ext.l d0
           0x0076fb78      81c4           divs.w d4, d0
           0x0076fb7a      3680           move.w d0, (a3)
           0x0076fb7c      3f3ad858       move.w 0x76d3d6(pc), -(a7)
           0x0076fb80      2f3ad856       move.l 0x76d3d8(pc), -(a7)
           0x0076fb84      3f3ad850       move.w 0x76d3d6(pc), -(a7)
           0x0076fb88      4eb900520fe8   jsr BRUSHCOM.set_br_key_colo
           0x0076fb8e      5c4f           addq.w 0x6, a7
           0x0076fb90      4217           clr.b (a7)
           0x0076fb92      1f02           move.b d2, -(a7)
           0x0076fb94      2f11           move.l (a1), -(a7)
           0x0076fb96      2f10           move.l (a0), -(a7)
           0x0076fb98      4e92           jsr (a2)                    ; fcn.00000009+0x2
           0x0076fb9a      dec3           adda.w d3, a7
           0x0076fb9c      3010           move.w (a0), d0
           0x0076fb9e      48c0           ext.l d0
           0x0076fba0      3211           move.w (a1), d1
           0x0076fba2      48c1           ext.l d1
           0x0076fba4      d280           add.l d0, d1
           0x0076fba6      3081           move.w d1, (a0)
           0x0076fba8      302e000a       move.w 0xa(a6), d0
           0x0076fbac      48c0           ext.l d0
           0x0076fbae      3213           move.w (a3), d1
           0x0076fbb0      48c1           ext.l d1
           0x0076fbb2      d280           add.l d0, d1
           0x0076fbb4      3d41000a       move.w d1, 0xa(a6)
           0x0076fbb8      3010           move.w (a0), d0
           0x0076fbba      48c0           ext.l d0
           0x0076fbbc      0280fffffff8   andi.l 0xfffffff8, d0
           0x0076fbc2      3080           move.w d0, (a0)
           0x0076fbc4      4227           clr.b -(a7)
           0x0076fbc6      1f02           move.b d2, -(a7)
           0x0076fbc8      2f11           move.l (a1), -(a7)
           0x0076fbca      2f10           move.l (a0), -(a7)
           0x0076fbcc      4e92           jsr (a2)                    ; fcn.00000009+0x2
           0x0076fbce      dec3           adda.w d3, a7
           0x0076fbd0      4cdf0f1f       movem.l (a7)+, d0-d4/a0-a3
           0x0076fbd4      4e5e           unlk a6
           0x0076fbd6      4e75           rts
            ; CALL XREFS from MENUTYPECOM.font_browse @ 0x76667e, 0x766760
            ; CALL XREF from MENUTYPECOM.char_browse @ 0x766ab8
            ; CALL XREF from MENUTYPECOM.make_menu_font @ 0x7675dc
 24: TYPECOM.display_type_li ();
           0x0076fbd8      4e56ff32       link.w a6, 0xff32
           0x0076fbdc      bfd5           cmpa.l (a5), a7
       < 0x0076fbde      6206           bhi.b 0x76fbe6
          0x0076fbe0      44fc0002       move.w 0x2, ccr
          0x0076fbe4      4e76           trapv
       > 0x0076fbe6      defc007e       adda.w 0x7e, a7
           0x0076fbea      48e7fff8       movem.l d0-d7/a0-a4, -(a7)
           0x0076fbee      f227e081       fmovem fp0/fp7, -(a7)
            0x0076fbf2      43ee0030       lea.l 0x30(a6), a1
            0x0076fbf6      45eeffbc       lea.l -0x44(a6), a2
            0x0076fbfa      7801           moveq 0x1, d4
            0x0076fbfc      2d6e0010ffc4   move.l 0x10(a6), -0x3c(a6)
            0x0076fc02      2d7c3f800000.  move.l 0x3f800000, -0x38(a6)
            0x0076fc0a      24bae00c       move.l 0x76dc18(pc), (a2)
            0x0076fc0e      2d7ae00cffc0   move.l 0x76dc1c(pc), -0x40(a6)
            0x0076fc14      2051           movea.l (a1), a0
            0x0076fc16      594f           subq.w 0x4, a7
            0x0076fc18      30280010       move.w 0x10(a0), d0
            0x0076fc1c      48c0           ext.l d0
            0x0076fc1e      f2004000       fmove.l d0, fp0
            0x0076fc22      f2124423       fmul.s (a2), fp0
            0x0076fc26      302e0028       move.w 0x28(a6), d0
            0x0076fc2a      48c0           ext.l d0
            0x0076fc2c      f2004022       fadd.l d0, fp0
            0x0076fc30      f23c40230000.  fmul.l 0x2000, fp0
            0x0076fc38      f2276400       fmove.s fp0, -(a7)
            0x0076fc3c      4eb9004081d2   jsr p_round
            0x0076fc42      584f           addq.w 0x4, a7
            0x0076fc44      2d57ffe0       move.l (a7), -0x20(a6)
            0x0076fc48      30280012       move.w 0x12(a0), d0
            0x0076fc4c      48c0           ext.l d0
            0x0076fc4e      f2004000       fmove.l d0, fp0
            0x0076fc52      f22e4423ffc0   fmul.s -0x40(a6), fp0
            0x0076fc58      302e002a       move.w 0x2a(a6), d0
            0x0076fc5c      48c0           ext.l d0
            0x0076fc5e      f2004022       fadd.l d0, fp0
            0x0076fc62      f23c40230000.  fmul.l 0x2000, fp0
            0x0076fc6a      f2276400       fmove.s fp0, -(a7)
            0x0076fc6e      4eb9004081d2   jsr p_round
            0x0076fc74      584f           addq.w 0x4, a7
            0x0076fc76      2d5fffe4       move.l (a7)+, -0x1c(a6)
            0x0076fc7a      216e00280014   move.l 0x28(a6), 0x14(a0)
            0x0076fc80      2f2effe4       move.l -0x1c(a6), -(a7)
            0x0076fc84      2f2effe0       move.l -0x20(a6), -(a7)
            0x0076fc88      2f11           move.l (a1), -(a7)
            0x0076fc8a      2f2effc0       move.l -0x40(a6), -(a7)
            0x0076fc8e      2f12           move.l (a2), -(a7)
            0x0076fc90      2f2e0028       move.l 0x28(a6), -(a7)
            0x0076fc94      3f2e000c       move.w 0xc(a6), -(a7)
            0x0076fc98      2f2e0008       move.l 0x8(a6), -(a7)
            0x0076fc9c      2f2e0024       move.l 0x24(a6), -(a7)
            0x0076fca0      2f2e0020       move.l 0x20(a6), -(a7)
            0x0076fca4      49eeffb0       lea.l -0x50(a6), a4
            0x0076fca8      4ebafc48       jsr TYPECOM.calc_position_t(pc)
            0x0076fcac      defc0024       adda.w 0x24, a7
            0x0076fcb0      1ebc0003       move.b 0x3, (a7)
            0x0076fcb4      2f2e0024       move.l 0x24(a6), -(a7)
            0x0076fcb8      2f2e0020       move.l 0x20(a6), -(a7)
            0x0076fcbc      4eb9005223fc   jsr BRUSHCOM.str_write_area
            0x0076fcc2      504f           addq.w 0x8, a7
            0x0076fcc4      3ebc4000       move.w 0x4000, (a7)
            0x0076fcc8      4eb900521034   jsr BRUSHCOM.br_pressure
            0x0076fcce      544f           addq.w 0x2, a7
            0x0076fcd0      4a2e0014       tst.b 0x14(a6)
        < 0x0076fcd4      670e           beq.b 0x76fce4
           0x0076fcd6      3f3ad704       move.w 0x76d3dc(pc), -(a7)
           0x0076fcda      2f3ad702       move.l 0x76d3de(pc), -(a7)
           0x0076fcde      3f3ad6fc       move.w 0x76d3dc(pc), -(a7)
       < 0x0076fce2      600c           bra.b 0x76fcf0
       > 0x0076fce4      3f3ad6f0       move.w 0x76d3d6(pc), -(a7)
           0x0076fce8      2f3ad6ee       move.l 0x76d3d8(pc), -(a7)
           0x0076fcec      3f3ad6e8       move.w 0x76d3d6(pc), -(a7)
       > 0x0076fcf0      4eb900520fe8   jsr BRUSHCOM.set_br_key_colo
            0x0076fcf6      504f           addq.w 0x8, a7
            0x0076fcf8      3f3c0006       move.w 0x6, -(a7)
            0x0076fcfc      4eb90051f362   jsr BRUSHCOM.b_setup_control
            0x0076fd02      544f           addq.w 0x2, a7
            0x0076fd04      7c00           moveq 0x0, d6
            0x0076fd06      2051           movea.l (a1), a0
            0x0076fd08      26680008       movea.l 0x8(a0), a3
        > 0x0076fd0c      b6c4           cmpa.w d4, a3
       < 0x0076fd0e      670003a4       beq.w 0x7700b4
          0x0076fd12      202b0052       move.l 0x52(a3), d0
          0x0076fd16      4c7c08000001.  divs.l 0x10000, d0
          0x0076fd1e      37400062       move.w d0, 0x62(a3)
          0x0076fd22      202b0056       move.l 0x56(a3), d0
          0x0076fd26      4c7c08000001.  divs.l 0x10000, d0
          0x0076fd2e      37400064       move.w d0, 0x64(a3)
          0x0076fd32      2d6b0052ffe8   move.l 0x52(a3), -0x18(a6)
          0x0076fd38      02ae0000ffff.  andi.l 0xffff, -0x18(a6)
          0x0076fd40      2d6b0056ffec   move.l 0x56(a3), -0x14(a6)
          0x0076fd46      02ae0000ffff.  andi.l 0xffff, -0x14(a6)
          0x0076fd4e      4a2b000a       tst.b 0xa(a3)
      < 0x0076fd52      670002bc       beq.w 0x770010
         0x0076fd56      176b0022000a   move.b 0x22(a3), 0xa(a3)
     < 0x0076fd5c      670002b2       beq.w 0x770010
        0x0076fd60      f22b47800038   fmove.s 0x38(a3), fp7
        0x0076fd66      f22b43a00040   fdiv.l 0x40(a3), fp7
        0x0076fd6c      f21247a3       fmul.s (a2), fp7
        0x0076fd70      554f           subq.w 0x2, a7
        0x0076fd72      2f2b0034       move.l 0x34(a3), -(a7)
        0x0076fd76      486effcc       pea.l -0x34(a6)
        0x0076fd7a      4eb9006328e4   jsr CACHECOM.cache_loaded
        0x0076fd80      504f           addq.w 0x8, a7
        0x0076fd82      4a1f           tst.b (a7)+
    < 0x0076fd84      673c           beq.b 0x76fdc2
       0x0076fd86      4a2e0016       tst.b 0x16(a6)
   < 0x0076fd8a      6706           beq.b 0x76fd92
      0x0076fd8c      4a2b007c       tst.b 0x7c(a3)
  < 0x0076fd90      6730           beq.b 0x76fdc2
  > 0x0076fd92      f2001c00       fmove fp7, fp0
      0x0076fd96      f22b44280078   fsub.s 0x78(a3), fp0
      0x0076fd9c      f2000018       fabs fp0
      0x0076fda0      f23c44383727.  fcmp.s 0, fp0
      0x0076fda8      f2920018       fbf.w 0x76fdc2
      0x0076fdac      202effe8       move.l -0x18(a6), d0
      0x0076fdb0      b0ab005a       cmp.l 0x5a(a3), d0
  < 0x0076fdb4      660c           bne.b 0x76fdc2
     0x0076fdb6      202effec       move.l -0x14(a6), d0
     0x0076fdba      b0ab005e       cmp.l 0x5e(a3), d0
  < 0x0076fdbe      67000102       beq.w 0x76fec2
  > 0x0076fdc2      1e2e0016       move.b 0x16(a6), d7
        0x0076fdc6      4a2e0016       tst.b 0x16(a6)
    < 0x0076fdca      660c           bne.b 0x76fdd8
       0x0076fdcc      0c8600000002   cmpi.l 0x2, d6
   < 0x0076fdd2      6c04           bge.b 0x76fdd8
      0x0076fdd4      7e01           moveq 0x1, d7
      0x0076fdd6      5286           addq.l 0x1, d6
   > 0x0076fdd8      f22b67800078   fmove.s fp7, 0x78(a3)
        0x0076fdde      1747007c       move.b d7, 0x7c(a3)
        0x0076fde2      276effe8005a   move.l -0x18(a6), 0x5a(a3)
        0x0076fde8      276effec005e   move.l -0x14(a6), 0x5e(a3)
        0x0076fdee      276e00180070   move.l 0x18(a6), 0x70(a3)
        0x0076fdf4      276e001c0074   move.l 0x1c(a6), 0x74(a3)
        0x0076fdfa      2f2b001e       move.l 0x1e(a3), -(a7)
        0x0076fdfe      2f2b0016       move.l 0x16(a3), -(a7)
        0x0076fe02      2f2effec       move.l -0x14(a6), -(a7)
        0x0076fe06      2f2effe8       move.l -0x18(a6), -(a7)
        0x0076fe0a      f2276780       fmove.s fp7, -(a7)
        0x0076fe0e      2f2effc8       move.l -0x38(a6), -(a7)
        0x0076fe12      2f2effc4       move.l -0x3c(a6), -(a7)
        0x0076fe16      1f2b0050       move.b 0x50(a3), -(a7)
        0x0076fe1a      1f2b0051       move.b 0x51(a3), -(a7)
        0x0076fe1e      486b0070       pea.l 0x70(a3)
        0x0076fe22      486b001a       pea.l 0x1a(a3)
        0x0076fe26      1f07           move.b d7, -(a7)
        0x0076fe28      486efff6       pea.l -0xa(a6)
        0x0076fe2c      4eb900680cbc   jsr VECTORFONT.vec_char_precal
        0x0076fe32      defc002e       adda.w 0x2e, a7
        0x0076fe36      376b00700066   move.w 0x70(a3), 0x66(a3)
        0x0076fe3c      376b00720068   move.w 0x72(a3), 0x68(a3)
        0x0076fe42      554f           subq.w 0x2, a7
        0x0076fe44      1f04           move.b d4, -(a7)
        0x0076fe46      486b0034       pea.l 0x34(a3)
        0x0076fe4a      486b0070       pea.l 0x70(a3)
        0x0076fe4e      4eb900632858   jsr CACHECOM.new_cache_rec
        0x0076fe54      defc000a       adda.w 0xa, a7
        0x0076fe58      4eb90040452a   jsr p_Assert
        0x0076fe5e      544f           addq.w 0x2, a7
        0x0076fe60      376b0070006a   move.w 0x70(a3), 0x6a(a3)
        0x0076fe66      376b0072006c   move.w 0x72(a3), 0x6c(a3)
        0x0076fe6c      302b006a       move.w 0x6a(a3), d0
        0x0076fe70      48c0           ext.l d0
        0x0076fe72      322b0066       move.w 0x66(a3), d1
        0x0076fe76      48c1           ext.l d1
        0x0076fe78      4481           neg.l d1
        0x0076fe7a      d280           add.l d0, d1
        0x0076fe7c      3d41ffd4       move.w d1, -0x2c(a6)
        0x0076fe80      302b006c       move.w 0x6c(a3), d0
        0x0076fe84      48c0           ext.l d0
        0x0076fe86      322b0068       move.w 0x68(a3), d1
        0x0076fe8a      48c1           ext.l d1
        0x0076fe8c      4481           neg.l d1
        0x0076fe8e      d280           add.l d0, d1
        0x0076fe90      3d41ffd6       move.w d1, -0x2a(a6)
        0x0076fe94      4eb90051f298   jsr BRUSHCOM.brush_wait
        0x0076fe9a      2f2effd4       move.l -0x2c(a6), -(a7)
        0x0076fe9e      4227           clr.b -(a7)
        0x0076fea0      486b001a       pea.l 0x1a(a3)
        0x0076fea4      4eb900680dc4   jsr VECTORFONT.vec_char_load
        0x0076feaa      defc000a       adda.w 0xa, a7
        0x0076feae      4eb90051f298   jsr BRUSHCOM.brush_wait
        0x0076feb4      3f3c0006       move.w 0x6, -(a7)
        0x0076feb8      4eb90051f362   jsr BRUSHCOM.b_setup_control
        0x0076febe      544f           addq.w 0x2, a7
    < 0x0076fec0      6006           bra.b 0x76fec8
  > 0x0076fec2      276effd00074   move.l -0x30(a6), 0x74(a3)
    > 0x0076fec8      302b0062       move.w 0x62(a3), d0
        0x0076fecc      48c0           ext.l d0
        0x0076fece      322b0066       move.w 0x66(a3), d1
        0x0076fed2      48c1           ext.l d1
        0x0076fed4      d280           add.l d0, d1
        0x0076fed6      37410062       move.w d1, 0x62(a3)
        0x0076feda      302b0064       move.w 0x64(a3), d0
        0x0076fede      48c0           ext.l d0
        0x0076fee0      322b0068       move.w 0x68(a3), d1
        0x0076fee4      48c1           ext.l d1
        0x0076fee6      d280           add.l d0, d1
        0x0076fee8      37410064       move.w d1, 0x64(a3)
        0x0076feec      276b00620070   move.l 0x62(a3), 0x70(a3)
        0x0076fef2      2f2b006a       move.l 0x6a(a3), -(a7)
        0x0076fef6      4eb90051f5e2   jsr BRUSHCOM.b_disk_org
        0x0076fefc      2eab0062       move.l 0x62(a3), (a7)
        0x0076ff00      2f2b0074       move.l 0x74(a3), -(a7)
        0x0076ff04      4eb90051f62e   jsr BRUSHCOM.b_main_org_len
        0x0076ff0a      504f           addq.w 0x8, a7
        0x0076ff0c      4eb90051f298   jsr BRUSHCOM.brush_wait
        0x0076ff12      4eb90051fa16   jsr BRUSHCOM.b_go
        0x0076ff18      2051           movea.l (a1), a0
        0x0076ff1a      b7e80008       cmpa.l 0x8(a0), a3
    < 0x0076ff1e      6646           bne.b 0x76ff66
       0x0076ff20      23eefff60086.  move.l -0xa(a6), 0x86e80e.l
       0x0076ff28      23eefffa0086.  move.l -0x6(a6), 0x86e812.l
       0x0076ff30      302b0062       move.w 0x62(a3), d0
       0x0076ff34      48c0           ext.l d0
       0x0076ff36      5280           addq.l 0x1, d0
       0x0076ff38      33c00086e80e   move.w d0, 0x86e80e
       0x0076ff3e      33eb00640086.  move.w 0x64(a3), 0x86e810.l
       0x0076ff46      202effe4       move.l -0x1c(a6), d0
       0x0076ff4a      4c7c08000001.  divs.l 0x10000, d0
       0x0076ff52      322b0064       move.w 0x64(a3), d1
       0x0076ff56      48c1           ext.l d1
       0x0076ff58      4480           neg.l d0
       0x0076ff5a      d081           add.l d1, d0
       0x0076ff5c      33c00086e816   move.w d0, 0x86e816
   < 0x0076ff62      600000ac       bra.w 0x770010
   > 0x0076ff66      302b0064       move.w 0x64(a3), d0
       0x0076ff6a      b0790086e810   cmp.w 0x86e810, d0
   < 0x0076ff70      6c36           bge.b 0x76ffa8
      0x0076ff72      322efffc       move.w -0x4(a6), d1
      0x0076ff76      b2790086e814   cmp.w 0x86e814, d1
  < 0x0076ff7c      6f08           ble.b 0x76ff86
     0x0076ff7e      33c10086e814   move.w d1, 0x86e814
  < 0x0076ff84      601c           bra.b 0x76ffa2
  > 0x0076ff86      32390086e810   move.w 0x86e810, d1
      0x0076ff8c      48c1           ext.l d1
      0x0076ff8e      48c0           ext.l d0
      0x0076ff90      9280           sub.l d0, d1
      0x0076ff92      34390086e814   move.w 0x86e814, d2
      0x0076ff98      48c2           ext.l d2
      0x0076ff9a      d481           add.l d1, d2
      0x0076ff9c      33c20086e814   move.w d2, 0x86e814
  > 0x0076ffa2      33c00086e810   move.w d0, 0x86e810
   > 0x0076ffa8      302b0062       move.w 0x62(a3), d0
       0x0076ffac      48c0           ext.l d0
       0x0076ffae      5280           addq.l 0x1, d0
       0x0076ffb0      32390086e80e   move.w 0x86e80e, d1
       0x0076ffb6      48c1           ext.l d1
       0x0076ffb8      b081           cmp.l d1, d0
   < 0x0076ffba      6c2e           bge.b 0x76ffea
      0x0076ffbc      342efffa       move.w -0x6(a6), d2
      0x0076ffc0      b4790086e812   cmp.w 0x86e812, d2
  < 0x0076ffc6      6f08           ble.b 0x76ffd0
     0x0076ffc8      33c20086e812   move.w d2, 0x86e812
  < 0x0076ffce      6014           bra.b 0x76ffe4
  > 0x0076ffd0      2401           move.l d1, d2
      0x0076ffd2      9480           sub.l d0, d2
      0x0076ffd4      36390086e812   move.w 0x86e812, d3
      0x0076ffda      48c3           ext.l d3
      0x0076ffdc      d682           add.l d2, d3
      0x0076ffde      33c30086e812   move.w d3, 0x86e812
  > 0x0076ffe4      33c00086e80e   move.w d0, 0x86e80e
   > 0x0076ffea      202effe4       move.l -0x1c(a6), d0
       0x0076ffee      4c7c08000001.  divs.l 0x10000, d0
       0x0076fff6      322b0064       move.w 0x64(a3), d1
       0x0076fffa      48c1           ext.l d1
       0x0076fffc      4480           neg.l d0
       0x0076fffe      d081           add.l d1, d0
       0x00770000      3a00           move.w d0, d5
       0x00770002      ba790086e816   cmp.w 0x86e816, d5
   < 0x00770008      6c06           bge.b 0x770010
      0x0077000a      33c50086e816   move.w d5, 0x86e816
   > 0x00770010      4a2b000a       tst.b 0xa(a3)
      < 0x00770014      6730           beq.b 0x770046
         0x00770016      2051           movea.l (a1), a0
         0x00770018      4a280022       tst.b 0x22(a0)
     < 0x0077001c      6612           bne.b 0x770030
        0x0077001e      11440022       move.b d4, 0x22(a0)
        0x00770022      216b00700024   move.l 0x70(a3), 0x24(a0)
        0x00770028      216b00740028   move.l 0x74(a3), 0x28(a0)
    < 0x0077002e      607c           bra.b 0x7700ac
    > 0x00770030      2f2b0074       move.l 0x74(a3), -(a7)
        0x00770034      2f2b0070       move.l 0x70(a3), -(a7)
        0x00770038      48680024       pea.l 0x24(a0)
        0x0077003c      4ebafa32       jsr TYPECOM.enlarge_area(pc)
        0x00770040      defc000c       adda.w 0xc, a7
    < 0x00770044      6066           bra.b 0x7700ac
    > 0x00770046      376b00620070   move.w 0x62(a3), 0x70(a3)
        0x0077004c      376b00640072   move.w 0x64(a3), 0x72(a3)
        0x00770052      202b0044       move.l 0x44(a3), d0
        0x00770056      90ab0048       sub.l 0x48(a3), d0
        0x0077005a      4c7c08000000.  divs.l 0x8, d0
        0x00770062      594f           subq.w 0x4, a7
        0x00770064      f22b44000038   fmove.s 0x38(a3), fp0
        0x0077006a      f22b40200040   fdiv.l 0x40(a3), fp0
        0x00770070      f2004023       fmul.l d0, fp0
        0x00770074      f22e44230010   fmul.s 0x10(a6), fp0
        0x0077007a      f2276400       fmove.s fp0, -(a7)
        0x0077007e      4eb9004081d2   jsr p_round
        0x00770084      584f           addq.w 0x4, a7
        0x00770086      376f00020074   move.w 0x2(a7), 0x74(a3)
        0x0077008c      f22b44000038   fmove.s 0x38(a3), fp0
        0x00770092      f22e4423ffc0   fmul.s -0x40(a6), fp0
        0x00770098      f2276400       fmove.s fp0, -(a7)
        0x0077009c      4eb9004081d2   jsr p_round
        0x007700a2      584f           addq.w 0x4, a7
        0x007700a4      376f00020076   move.w 0x2(a7), 0x76(a3)
        0x007700aa      584f           addq.w 0x4, a7
    > 0x007700ac      266b0004       movea.l 0x4(a3), a3
       < 0x007700b0      6000fc5a       bra.w 0x76fd0c
       > 0x007700b4      f21fd081       fmovem (a7)+, fp0/fp7
            0x007700b8      4cdf1fff       movem.l (a7)+, d0-d7/a0-a4
            0x007700bc      4e5e           unlk a6
            0x007700be      4e75           rts
            ; CALL XREF from MENUTYPECOM.menutype_init @ 0x76c16c
 68: TYPECOM.type_init ();
           0x007700c0      4e56fff0       link.w a6, 0xfff0
           0x007700c4      bfd5           cmpa.l (a5), a7
       < 0x007700c6      6206           bhi.b 0x7700ce
          0x007700c8      44fc0002       move.w 0x2, ccr
          0x007700cc      4e76           trapv
       > 0x007700ce      defc0010       adda.w 0x10, a7
           0x007700d2      48e78000       movem.l d0, -(a7)
           0x007700d6      7001           moveq 0x1, d0
           0x007700d8      42b90086e80a   clr.l 0x86e80a
           0x007700de      23c00086e818   move.l d0, 0x86e818
           0x007700e4      48790086e820   pea.l 0x86e820
           0x007700ea      48780016       pea.l 0x16
           0x007700ee      4eb900403a92   jsr p_New
           0x007700f4      504f           addq.w 0x8, a7
           0x007700f6      23c00086e824   move.l d0, 0x86e824
           0x007700fc      4cdf0001       movem.l (a7)+, d0
           0x00770100      4e5e           unlk a6
