            ;-- USER2_DISK:
            0x006ba538      .byte 0x00
            0x006ba539      .byte 0x00
            0x006ba53a      .byte 0x00
            0x006ba53b      .byte 0x00
            0x006ba53c      .byte 0x00
            0x006ba53d      .byte 0x00
            0x006ba53e      .byte 0x00
            0x006ba53f      .byte 0x00
            0x006ba540      .byte 0x00
            0x006ba541      .byte 0x00
            0x006ba542      .byte 0x00
            0x006ba543      .byte 0x80
            0x006ba544      .byte 0xf5
            0x006ba545      .byte 0x00
            0x006ba546      .byte 0x00
            0x006ba547      .byte 0x00
            0x006ba548      .byte 0x00
            0x006ba549      .byte 0x80
            0x006ba54a      .byte 0xf5
            0x006ba54b      .byte 0x00
            0x006ba54c      .byte 0x00
            0x006ba54d      .byte 0x00
            0x006ba54e      .byte 0x01
            0x006ba54f      .byte 0x80
            0x006ba550      .byte 0xf5
            0x006ba551      .byte 0x00
            0x006ba552      .byte 0x00
            0x006ba553      .byte 0x00
            0x006ba554      .byte 0xff
            0x006ba555      .byte 0xff
            0x006ba556      .byte 0xff
            0x006ba557      .byte 0xff
            0x006ba558      .byte 0xff
            0x006ba559      .byte 0xff
            0x006ba55a      .byte 0xff
            0x006ba55b      .byte 0xff
            0x006ba55c      .byte 0x07
            0x006ba55d     .string "DEFAULT" ; len=7
            0x006ba564      .byte 0xff
            0x006ba565      .byte 0xff
            0x006ba566      .byte 0xff
            0x006ba567      .byte 0xfd
            0x006ba568      .byte 0x00
            0x006ba569      .byte 0x00
            0x006ba56a      .byte 0x00
            0x006ba56b      .byte 0x00
            0x006ba56c      .byte 0x00
            0x006ba56d      .byte 0x00
            0x006ba56e      .byte 0x00
            0x006ba56f      .byte 0x00
            0x006ba570      .byte 0x00
            0x006ba571      .byte 0x00
            0x006ba572      .byte 0x00
            0x006ba573      .byte 0x00
            0x006ba574      .byte 0x00
            0x006ba575      .byte 0x00
            0x006ba576      .byte 0x00
            0x006ba577      .byte 0x00
            0x006ba578      .byte 0x00
            0x006ba579      .byte 0x00
            0x006ba57a      .byte 0x00
            0x006ba57b      .byte 0x00
            0x006ba57c      .byte 0x00
            0x006ba57d      .byte 0x00
            0x006ba57e      .byte 0x06
            0x006ba57f     .string "nobody" ; len=6
            0x006ba585      .byte 0x00
            0x006ba586      .byte 0xff
            0x006ba587      .byte 0xff
            0x006ba588      .byte 0xff
            0x006ba589      .byte 0xff
            0x006ba58a      .byte 0x00
            0x006ba58b      .byte 0x00
            0x006ba58c      .byte 0x00
            0x006ba58d      .byte 0x00
            0x006ba58e      .byte 0x17
            0x006ba58f     .string " waiting for drive gate" ; len=23
            0x006ba5a6      .byte 0x1e
            0x006ba5a7     .string "? error waiting for drive gate" ; len=30
            0x006ba5c5      .byte 0x23
            0x006ba5c6     .string "? Drive gate already open. Count = " ; len=35
            0x006ba5e9      .byte 0x0c
            0x006ba5ea     .string "? bad scope " ; len=12
            0x006ba5f6      .byte 0x18
            0x006ba5f7     .string "Drive_gate not waited on" ; len=24
            0x006ba60f      .byte 0x00
            0x006ba610      .byte 0x0c
            0x006ba611      .byte 0x03
            0x006ba612      .byte 0x4e
            0x006ba613      .byte 0x6f
            0x006ba614      .byte 0x20
            0x006ba615      .byte 0x14
            0x006ba616     .string " exchangeable drives" ; len=20
            0x006ba62a      .byte 0x15
            0x006ba62b     .string " exchangeable drives:" ; len=21
            0x006ba640      .byte 0x02
            0x006ba641      .byte 0x20
            0x006ba642      .byte 0x20
            0x006ba643      .byte 0x08
            0x006ba644     .string ": range " ; len=8
            0x006ba64c      .byte 0x08
            0x006ba64d     .string ", drive " ; len=8
            0x006ba655      .byte 0x27
            0x006ba656     .string "? no heap left in new_user_table_record" ; len=39
            0x006ba67d      .byte 0x1f
            0x006ba67e     .string "no existing record for station " ; len=31
            0x006ba69d      .byte 0x06
            0x006ba69e     .string " found" ; len=6
            0x006ba6a4      .byte 0x11
            0x006ba6a5     .string "empty linked list" ; len=17
            0x006ba6b6      .byte 0x15
            0x006ba6b7     .string "non-empty linked list" ; len=21
            0x006ba6cc      .byte 0x15
            0x006ba6cd     .string "end of list, station " ; len=21
            0x006ba6e2      .byte 0x22
            0x006ba6e3     .string "found existing record for station " ; len=34
            0x006ba705      .byte 0x1d
            0x006ba706     .string "attempting to set username to" ; len=29
            0x006ba723      .byte 0x13
            0x006ba724     .string "suitable 1 (scope) " ; len=19
            0x006ba737      .byte 0x16
            0x006ba738     .string "suitable 2 (phys vol) " ; len=22
            0x006ba74e      .byte 0x0b
            0x006ba74f     .string "suitable 3 " ; len=11
            0x006ba75a      .byte 0x03
            0x006ba75b      .byte 0x0b
            0x006ba75c     .string "suitable 4 " ; len=11
            0x006ba767      .byte 0x0b
            0x006ba768     .string "suitable 5 " ; len=11
            0x006ba773      .byte 0x0b
            0x006ba774     .string "suitable 8 " ; len=11
            0x006ba77f      .byte 0x0b
            0x006ba780     .string "suitable 9 " ; len=11
            0x006ba78b      .byte 0x10
            0x006ba78c     .string "volume: suitable" ; len=16
            0x006ba79c      .byte 0x0c
            0x006ba79d     .string "Unsuitable: " ; len=12
            0x006ba7a9      .byte 0x0d
            0x006ba7aa     .string "cache volume " ; len=13
            0x006ba7b7      .byte 0x09
            0x006ba7b8     .string "indirect " ; len=9
            0x006ba7c1      .byte 0x0b
            0x006ba7c2     .string "unreadable " ; len=11
            0x006ba7cd      .byte 0x0b
            0x006ba7ce     .string "removeable " ; len=11
            0x006ba7d9      .byte 0x09
            0x006ba7da     .string "not local" ; len=9
            0x006ba7e3      .byte 0x0a
            0x006ba7e4     .string "not public" ; len=10
            0x006ba7ee      .byte 0x0b
            0x006ba7ef     .string "not clipbox" ; len=11
            0x006ba7fa      .byte 0x0e
            0x006ba7fb     .string "wrong station " ; len=14
            0x006ba809      .byte 0x09
            0x006ba80a     .string "not pnet " ; len=9
            0x006ba813      .byte 0x0d
            0x006ba814     .string "not mailable " ; len=13
            0x006ba821      .byte 0x0a
            0x006ba822     .string "not pbank " ; len=10
            0x006ba82c      .byte 0x20
            0x006ba82d     .string "? Dont know what scope is drive " ; len=32
            0x006ba84d      .byte 0x00
            0x006ba84e      .byte 0x13
            0x006ba84f      .byte 0x00
            0x006ba850      .byte 0x13
            0x006ba851      .byte 0x1c
            0x006ba852     .string "? max_fixed_number of 0 for " ; len=28
            0x006ba86e      .byte 0x1e
            0x006ba86f     .string "? no record for this station: " ; len=30
            0x006ba88d      .byte 0x11
            0x006ba88e     .string "exch_num: number " ; len=17
            0x006ba89f      .byte 0x09
            0x006ba8a0     .string ", entry: " ; len=9
            0x006ba8a9      .byte 0x09
            0x006ba8aa     .string ", region " ; len=9
            0x006ba8b3      .byte 0x00
            0x006ba8b4      .byte 0x13
            0x006ba8b5      .byte 0x00
            0x006ba8b6      .byte 0x13
            0x006ba8b7      .byte 0x18
            0x006ba8b8     .string "? unexpected entry type " ; len=24
            0x006ba8d0      .byte 0x13
            0x006ba8d1      .byte 0x00
            0x006ba8d2      .byte 0x13
            0x006ba8d3      .byte 0x00
            0x006ba8d4      .byte 0x13
            0x006ba8d5      .byte 0x00
            0x006ba8d6      .byte 0x13
            0x006ba8d7      .byte 0x0d
            0x006ba8d8     .string "on_exch: num " ; len=13
            0x006ba8e5      .byte 0x0b
            0x006ba8e6     .string ", exch_vol " ; len=11
            0x006ba8f1      .byte 0x0c
            0x006ba8f2     .string "- Removeable" ; len=12
            0x006ba8fe      .byte 0x15
            0x006ba8ff      .byte 0x12
            0x006ba900     .string "No volume on drive" ; len=18
            0x006ba912      .byte 0x07
            0x006ba913     .string "- Fixed" ; len=7
            0x006ba91a      .byte 0x11
            0x006ba91b     .string "on_exchangeable: " ; len=17
            0x006ba92c      .byte 0x10
            0x006ba92d     .string "- searching for " ; len=16
            0x006ba93d      .byte 0x08
            0x006ba93e     .string " volumes" ; len=8
            0x006ba946      .byte 0x11
            0x006ba947     .string " volumes in total" ; len=17
            0x006ba958      .byte 0x0f
            0x006ba959     .string "Found suitable " ; len=15
            0x006ba968      .byte 0x08
            0x006ba969     .string " volume " ; len=8
            0x006ba971      .byte 0x00
            0x006ba972      .byte 0x14
            0x006ba973      .byte 0x15
            0x006ba974     .string "setting lowest drive " ; len=21
            0x006ba989      .byte 0x06
            0x006ba98a     .string ", bus " ; len=6
            0x006ba990      .byte 0x09
            0x006ba991     .string ", volume " ; len=9
            0x006ba99a      .byte 0x0a
            0x006ba99b     .string "returning " ; len=10
            0x006ba9a5      .byte 0x16
            0x006ba9a6     .string " number master: drive " ; len=22
            0x006ba9bc      .byte 0x06
            0x006ba9bd     .string ", lun " ; len=6
            0x006ba9c3      .byte 0x06
            0x006ba9c4     .string ", vol " ; len=6
            0x006ba9ca      .byte 0x03
            0x006ba9cb      .byte 0x6e
            0x006ba9cc      .byte 0x6f
            0x006ba9cd      .byte 0x20
            0x006ba9ce      .byte 0x0e
            0x006ba9cf     .string " volumes found" ; len=14
            0x006ba9dd      .byte 0x08
            0x006ba9de     .string " volume " ; len=8
            0x006ba9e6      .byte 0x0f
            0x006ba9e7     .string " not accessible" ; len=15
            0x006ba9f6      .byte 0x28
            0x006ba9f7     .string "? f_create in create_and_clear returned;" ; len=40
            0x006baa1f      .byte 0x28
            0x006baa20     .string "f_op_block in create_and_clear returned;" ; len=40
            0x006baa48      .byte 0x2c
            0x006baa49     .string "f_cached_block in create_and_clear returned;" ; len=44
            0x006baa75      .byte 0x28
            0x006baa76     .string "f_make_map in create_and_clear returned;" ; len=40
            0x006baa9e      .byte 0x09
            0x006baa9f     .string "Creating " ; len=9
            0x006baaa8      .byte 0x10
            0x006baaa9     .string " files for user " ; len=16
            0x006baab9      .byte 0x24
            0x006baaba     .string "? failed to create user file on vol " ; len=36
            0x006baade      .byte 0x13
            0x006baadf     .string "User file for user " ; len=19
            0x006baaf2      .byte 0x12
            0x006baaf3     .string "Created user file " ; len=18
            0x006bab05      .byte 0x1f
            0x006bab06     .string "Creating stack table file size " ; len=31
            0x006bab25      .byte 0x2b
            0x006bab26     .string "? failed to create stack table file on vol " ; len=43
            0x006bab51      .byte 0x10
            0x006bab52     .string "Stacks for user " ; len=16
            0x006bab62      .byte 0x19
            0x006bab63     .string "Created stack table file " ; len=25
            0x006bab7c      .byte 0x2d
            0x006bab7d     .string "? failed to create picture table file on vol " ; len=45
            0x006babaa      .byte 0x19
            0x006babab     .string "Picture numbers for user " ; len=25
            0x006babc4      .byte 0x1a
            0x006babc5     .string "Created picnum table file " ; len=26
            0x006babdf      .byte 0x23
            0x006babe0     .string "All user files successfully created" ; len=35
            0x006bac03      .byte 0x1b
            0x006bac04     .string "? error creating user files" ; len=27
            0x006bac1f      .byte 0x1a
            0x006bac20     .string "No public volume available" ; len=26
            0x006bac3a      .byte 0x0e
            0x006bac3b     .string "Public volume " ; len=14
            0x006bac49      .byte 0x0e
            0x006bac4a     .string " not available" ; len=14
            0x006bac58      .byte 0x1b
            0x006bac59     .string "No clipbox volume available" ; len=27
            0x006bac74      .byte 0x0f
            0x006bac75     .string "clipbox volume " ; len=15
            0x006bac84      .byte 0x0e
            0x006bac85     .string " not available" ; len=14
            0x006bac93      .byte 0x17
            0x006bac94     .string "? No local volume known" ; len=23
            0x006bacab      .byte 0x0f
            0x006bacac     .string "? Local volume " ; len=15
            0x006bacbb      .byte 0x0e
            0x006bacbc     .string " not available" ; len=14
            0x006bacca      .byte 0x08
            0x006baccb     .string "Station " ; len=8
            0x006bacd3      .byte 0x0a
            0x006bacd4     .string " not known" ; len=10
            0x006bacde      .byte 0x16
            0x006bacdf     .string "No volume for station " ; len=22
            0x006bacf5      .byte 0x0a
            0x006bacf6     .string " available" ; len=10
            0x006bad00      .byte 0x07
            0x006bad01     .string "Volume " ; len=7
            0x006bad08      .byte 0x0c
            0x006bad09     .string " on station " ; len=12
            0x006bad15      .byte 0x0e
            0x006bad16     .string " not available" ; len=14
            0x006bad24      .byte 0x26
            0x006bad25     .string "what scope you trying to give me man ?" ; len=38
            0x006bad4b      .byte 0x16
            0x006bad4c     .string "Find tables for user '" ; len=22
            0x006bad62      .byte 0x0c
            0x006bad63     .string "' on volume " ; len=12
            0x006bad6f      .byte 0x10
            0x006bad70     .string "Found user file " ; len=16
            0x006bad80      .byte 0x17
            0x006bad81     .string "Got header of user file" ; len=23
            0x006bad98      .byte 0x1e
            0x006bad99     .string "not our user file, belongs to " ; len=30
            0x006badb7      .byte 0x25
            0x006badb8     .string "f_get_header in find_tables returned:" ; len=37
            0x006baddd      .byte 0x1f
            0x006badde     .string "? error scanning for user files" ; len=31
            0x006badfd      .byte 0x14
            0x006badfe     .string "found user file for " ; len=20
            0x006bae12      .byte 0x02
            0x006bae13      .byte 0x2c
            0x006bae14      .byte 0x20
            0x006bae15      .byte 0x06
            0x006bae16     .string " type " ; len=6
            0x006bae1c      .byte 0x2b
            0x006bae1d     .string "? error extracting picture/stack table fids" ; len=43
            0x006bae48      .byte 0x24
            0x006bae49     .string "extracted picture number table file " ; len=36
            0x006bae6d      .byte 0x22
            0x006bae6e     .string "extracted stack number table file " ; len=34
            0x006bae90      .byte 0x2b
            0x006bae91     .string "? failed to open picture number table file " ; len=43
            0x006baebc      .byte 0x29
            0x006baebd     .string "? failed to open stack number table file " ; len=41
            0x006baee6      .byte 0x1b
            0x006baee7     .string "Opened picture number file " ; len=27
            0x006baf02      .byte 0x18
            0x006baf03     .string ", and stack number file " ; len=24
            0x006baf1b      .byte 0x27
            0x006baf1c     .string "? Unable to open number files for user " ; len=39
            0x006baf43      .byte 0x08
            0x006baf44     .string " on vol " ; len=8
            0x006baf4c      .byte 0x05
            0x006baf4d     .string "Task " ; len=5
            0x006baf52      .byte 0x09
            0x006baf53     .string " setting " ; len=9
            0x006baf5c      .byte 0x05
            0x006baf5d     .string "local" ; len=5
            0x006baf62      .byte 0x06
            0x006baf63     .string "public" ; len=6
            0x006baf69      .byte 0x07
            0x006baf6a     .string "clipbox" ; len=7
            0x006baf71      .byte 0x0d
            0x006baf72     .string "pnet station " ; len=13
            0x006baf7f      .byte 0x16
            0x006baf80     .string " fixed files for user " ; len=22
            0x006baf96      .byte 0x1f
            0x006baf97     .string "ntable_volume returning volume " ; len=31
            0x006bafb6      .byte 0x20
            0x006bafb7     .string " - Number tables known and valid" ; len=32
            0x006bafd7      .byte 0x1a
            0x006bafd8     .string " - Number tables not valid" ; len=26
            0x006baff2      .byte 0x27
            0x006baff3     .string "Local failed_already - not trying again" ; len=39
            0x006bb01a      .byte 0x38
            0x006bb01b     .string "- Opened number tables for PMan after previous failure -" ; len=56
            0x006bb053      .byte 0x0b
            0x006bb054     .string "found user " ; len=11
            0x006bb05f      .byte 0x03
            0x006bb060      .byte 0x20
            0x006bb061      .byte 0x6f
            0x006bb062      .byte 0x6b
            0x006bb063      .byte 0x00
            0x006bb064      .byte 0x13
            0x006bb065      .byte 0x09
            0x006bb066     .string "made new " ; len=9
            0x006bb06f      .byte 0x0d
            0x006bb070     .string " table record" ; len=13
            0x006bb07d      .byte 0x07
            0x006bb07e     .string "? Task " ; len=7
            0x006bb085      .byte 0x0f
            0x006bb086     .string " failed to set " ; len=15
            0x006bb095      .byte 0x06
            0x006bb096     .string " user " ; len=6
            0x006bb09c      .byte 0x28
            0x006bb09d     .string "Setting record back to NULL for station " ; len=40
            0x006bb0c5      .byte 0x09
            0x006bb0c6     .string "made new " ; len=9
            0x006bb0cf      .byte 0x14
            0x006bb0d0     .string " table record anyway" ; len=20
            0x006bb0e4      .byte 0x05
            0x006bb0e5     .string "Task " ; len=5
            0x006bb0ea      .byte 0x08
            0x006bb0eb     .string " setting" ; len=8
            0x006bb0f3      .byte 0x15
            0x006bb0f4     .string " exch files for user " ; len=21
            0x006bb109      .byte 0x0b
            0x006bb10a     .string " on volume " ; len=11
            0x006bb115      .byte 0x24
            0x006bb116     .string "already tried this volume, giving up" ; len=36
            0x006bb13a      .byte 0x23
            0x006bb13b     .string "set_exch_user: ? no volume in drive" ; len=35
            0x006bb15e      .byte 0x10
            0x006bb15f     .string "found exch user " ; len=16
            0x006bb16f      .byte 0x03
            0x006bb170      .byte 0x20
            0x006bb171      .byte 0x6f
            0x006bb172      .byte 0x6b
            0x006bb173      .byte 0x07
            0x006bb174     .string "? Task " ; len=7
            0x006bb17b      .byte 0x19
            0x006bb17c     .string " failed to set exch user " ; len=25
            0x006bb195      .byte 0x1f
            0x006bb196     .string "? no heap left in get_exch_fids" ; len=31
            0x006bb1b5      .byte 0x0e
            0x006bb1b6     .string "fids_ptr = NIL" ; len=14
            0x006bb1c4      .byte 0x26
            0x006bb1c5     .string "found stored fids for volume in drive " ; len=38
            0x006bb1eb      .byte 0x07
            0x006bb1ec     .string "volume " ; len=7
            0x006bb1f3      .byte 0x20
            0x006bb1f4     .string " in drive is different from fids" ; len=32
            0x006bb214      .byte 0x0d
            0x006bb215     .string " with volume " ; len=13
            0x006bb222      .byte 0x11
            0x006bb223     .string " currently stored" ; len=17
            0x006bb234      .byte 0x11
            0x006bb235     .string "exch_vol_tried = " ; len=17
            0x006bb246      .byte 0x21
            0x006bb247     .string "no fids found, search for them..." ; len=33
            0x006bb268      .byte 0x1a
            0x006bb269     .string "made new exch_fids_record " ; len=26
            0x006bb283      .byte 0x11
            0x006bb284     .string "empty linked list" ; len=17
            0x006bb295      .byte 0x15
            0x006bb296     .string "non-empty linked list" ; len=21
            0x006bb2ab      .byte 0x12
            0x006bb2ac     .string "end of list drive " ; len=18
            0x006bb2be      .byte 0x21
            0x006bb2bf     .string "newly opened exch files for user " ; len=33
            0x006bb2e0      .byte 0x0f
            0x006bb2e1     .string "found exch fids" ; len=15
            0x006bb2f0      .byte 0x19
            0x006bb2f1     .string "? couldn't find exch fids" ; len=25
            0x006bb30a      .byte 0x13
            0x006bb30b      .byte 0x05
            0x006bb30c     .string "made " ; len=5
            0x006bb311      .byte 0x0d
            0x006bb312     .string " table record" ; len=13
            0x006bb31f      .byte 0x13
            0x006bb320     .string "Unknown table type " ; len=19
            0x006bb333      .byte 0x00
            0x006bb334      .byte 0x13
            0x006bb335      .byte 0x13
            0x006bb336     .string "Unknown table type " ; len=19
            0x006bb349      .byte 0x13
            0x006bb34a     .string "Unknown table type " ; len=19
            0x006bb35d      .byte 0x00
            0x006bb35e      .byte 0x06
            0x006bb35f      .byte 0x00
            0x006bb360      .byte 0x11
            0x006bb361     .string "Removeable drive " ; len=17
            0x006bb372      .byte 0x02
            0x006bb373      .byte 0x20
            0x006bb374      .byte 0x28
            0x006bb375      .byte 0x1a
            0x006bb376     .string ") number table fid is null" ; len=26
            0x006bb390      .byte 0x1a
            0x006bb391     .string "Fixed drives not available" ; len=26
            0x006bb3ab      .byte 0x0c
            0x006bb3ac     .string "Fixed drive " ; len=12
            0x006bb3b8      .byte 0x02
            0x006bb3b9     .string " (" ; len=2
            0x006bb3bb      .byte 0x27
            0x006bb3bc     .string ") number table fid is null - cannot set" ; len=39
            0x006bb3e3      .byte 0x1c
            0x006bb3e4     .string "newly opened files for user " ; len=28
            0x006bb400      .byte 0x19
            0x006bb401     .string " number table fid is null" ; len=25
            0x006bb41a      .byte 0x1d
            0x006bb41b      .byte 0x3f
            0x006bb41c     .string " error opening number table \"failed to get number table header " ; len=63
            0x006bb45b      .byte 0x1c
            0x006bb45c     .string "failed to open number table " ; len=28
            0x006bb478      .byte 0x18
            0x006bb479     .string "Drive_gate not waited on" ; len=24
            0x006bb491      .byte 0x18
            0x006bb492     .string "Drive_gate not waited on" ; len=24
            0x006bb4aa      .byte 0x12
            0x006bb4ab     .string "creating grab file" ; len=18
            0x006bb4bd      .byte 0x09
            0x006bb4be     .string "Grab file" ; len=9
            0x006bb4c7      .byte 0x12
            0x006bb4c8     .string "created grab file " ; len=18
            0x006bb4da      .byte 0x13
            0x006bb4db     .string "? grab fid not null" ; len=19
            0x006bb4ee      .byte 0x1d
            0x006bb4ef     .string "? failed to delete grab file " ; len=29
            0x006bb50c      .byte 0x1a
            0x006bb50d     .string "? failed to open grab file" ; len=26
            0x006bb527      .byte 0x1a
            0x006bb528     .string "grab_file: unknown action." ; len=26
            0x006bb542      .byte 0x11
            0x006bb543     .string "grab_file: failed" ; len=17
            0x006bb554      .byte 0x06
            0x006bb555     .string "Found " ; len=6
            0x006bb55b      .byte 0x06
            0x006bb55c     .string " file " ; len=6
            0x006bb562      .byte 0x0d
            0x006bb563     .string "no file found" ; len=13
            0x006bb570      .byte 0x15
            0x006bb571     .string "? error scanning for " ; len=21
            0x006bb586      .byte 0x07
            0x006bb587     .string " files:" ; len=7
            0x006bb58e      .byte 0x19
            0x006bb58f     .string "- searching for existing " ; len=25
            0x006bb5a8      .byte 0x06
            0x006bb5a9     .string " files" ; len=6
            0x006bb5af      .byte 0x12
            0x006bb5b0     .string "... belonging to /" ; len=18
            0x006bb5c2      .byte 0x0a
            0x006bb5c3     .string "- deleted " ; len=10
            0x006bb5cd      .byte 0x06
            0x006bb5ce     .string " file " ; len=6
            0x006bb5d4      .byte 0x0f
            0x006bb5d5     .string "Error deleting " ; len=15
            0x006bb5e4      .byte 0x06
            0x006bb5e5     .string " file " ; len=6
            0x006bb5eb      .byte 0x1c
            0x006bb5ec     .string " - but unable to read header" ; len=28
            0x006bb608      .byte 0x21
            0x006bb609     .string "f_get_header in restore returned:" ; len=33
            0x006bb62a      .byte 0x27
            0x006bb62b     .string "? error getting header in ntab_restore:" ; len=39
            0x006bb652      .byte 0x22
            0x006bb653     .string "- multiple numbers found for file " ; len=34
            0x006bb675      .byte 0x0f
            0x006bb676     .string ", previous was " ; len=15
            0x006bb685      .byte 0x05
            0x006bb686     .string " now " ; len=5
            0x006bb68b      .byte 0x0f
            0x006bb68c     .string "no number found" ; len=15
            0x006bb69b      .byte 0x0d
            0x006bb69c     .string "found number " ; len=13
            0x006bb6a9      .byte 0x0a
            0x006bb6aa     .string " for file " ; len=10
            0x006bb6b4      .byte 0x13
            0x006bb6b5     .string "set picture number " ; len=19
            0x006bb6c8      .byte 0x0a
            0x006bb6c9     .string " for file " ; len=10
            0x006bb6d3      .byte 0x09
            0x006bb6d4     .string " in table" ; len=9
            0x006bb6dd      .byte 0x17
            0x006bb6de     .string "? failed to set number " ; len=23
            0x006bb6f5      .byte 0x17
            0x006bb6f6     .string " in pic table for file " ; len=23
            0x006bb70d      .byte 0x0e
            0x006bb70e     .string "failed title: " ; len=14
            0x006bb71c      .byte 0x11
            0x006bb71d     .string "set stack number " ; len=17
            0x006bb72e      .byte 0x0a
            0x006bb72f     .string " for file " ; len=10
            0x006bb739      .byte 0x09
            0x006bb73a     .string " in table" ; len=9
            0x006bb743      .byte 0x17
            0x006bb744     .string "? failed to set number " ; len=23
            0x006bb75b      .byte 0x19
            0x006bb75c     .string " in stack table for file " ; len=25
            0x006bb775      .byte 0x0e
            0x006bb776     .string "failed title: " ; len=14
            0x006bb784      .byte 0x0b
            0x006bb785     .string "set number " ; len=11
            0x006bb790      .byte 0x0a
            0x006bb791     .string " for file " ; len=10
            0x006bb79b      .byte 0x0a
            0x006bb79c     .string " in header" ; len=10
            0x006bb7a6      .byte 0x29
            0x006bb7a7     .string "? failed to set number in picture header " ; len=41
            0x006bb7d0      .byte 0x37
            0x006bb7d1     .string "? failed to get header to set number in picture header " ; len=55
            0x006bb808      .byte 0x04
            0x006bb809      .byte 0x20
            0x006bb80a      .byte 0x20
            0x006bb80b      .byte 0x20
            0x006bb80c      .byte 0x20
            0x006bb80d      .byte 0x04
            0x006bb80e      .byte 0x20
            0x006bb80f      .byte 0x20
            0x006bb810      .byte 0x20
            0x006bb811      .byte 0x20
            0x006bb812      .byte 0x10
            0x006bb813     .string "Scanning volume " ; len=16
            0x006bb823      .byte 0x03
            0x006bb824      .byte 0x2e
            0x006bb825      .byte 0x2e
            0x006bb826      .byte 0x2e
            0x006bb827      .byte 0x07
            0x006bb828     .string "picture" ; len=7
            0x006bb82f      .byte 0x1c
            0x006bb830     .string "Scanning stencils on volume " ; len=28
            0x006bb84c      .byte 0x03
            0x006bb84d      .byte 0x2e
            0x006bb84e      .byte 0x2e
            0x006bb84f      .byte 0x2e
            0x006bb850      .byte 0x07
            0x006bb851     .string "stencil" ; len=7
            0x006bb858      .byte 0x1b
            0x006bb859     .string "Scanning cutouts on volume " ; len=27
            0x006bb874      .byte 0x03
            0x006bb875      .byte 0x2e
            0x006bb876      .byte 0x2e
            0x006bb877      .byte 0x2e
            0x006bb878      .byte 0x06
            0x006bb879     .string "cutout" ; len=6
            0x006bb87f      .byte 0x19
            0x006bb880     .string "Scanning clips on volume " ; len=25
            0x006bb899      .byte 0x03
            0x006bb89a      .byte 0x2e
            0x006bb89b      .byte 0x2e
            0x006bb89c      .byte 0x2e
            0x006bb89d      .byte 0x04
            0x006bb89e      .byte 0x63
            0x006bb89f      .byte 0x6c
            0x006bb8a0      .byte 0x69
            0x006bb8a1      .byte 0x70
            0x006bb8a2      .byte 0x1a
            0x006bb8a3     .string "Scanning stacks on volume " ; len=26
            0x006bb8bd      .byte 0x03
            0x006bb8be      .byte 0x2e
            0x006bb8bf      .byte 0x2e
            0x006bb8c0      .byte 0x2e
            0x006bb8c1      .byte 0x05
            0x006bb8c2     .string "stack" ; len=5
            0x006bb8c7      .byte 0x07
            0x006bb8c8     .string "Volume " ; len=7
            0x006bb8cf      .byte 0x14
            0x006bb8d0     .string " is not exchangeable" ; len=20
            0x006bb8e4      .byte 0x13
            0x006bb8e5     .string "Volume not readable" ; len=19
            0x006bb8f8      .byte 0x1a
            0x006bb8f9     .string "No fixed disks on station " ; len=26
            0x006bb913      .byte 0x06
            0x006bb914     .string " known" ; len=6
            0x006bb91a      .byte 0x0a
            0x006bb91b     .string "Restoring " ; len=10
            0x006bb925      .byte 0x1b
            0x006bb926     .string " exchangable volume, range " ; len=27
            0x006bb941      .byte 0x03
            0x006bb942      .byte 0x58
            0x006bb943      .byte 0x58
            0x006bb944      .byte 0x58
            0x006bb945      .byte 0x1f
            0x006bb946     .string "Restoring local number table..." ; len=31
            0x006bb965      .byte 0x1d
            0x006bb966     .string "Restoring SUB number table..." ; len=29
            0x006bb983      .byte 0x21
            0x006bb984     .string "Restoring clipbox number table..." ; len=33
            0x006bb9a5      .byte 0x19
            0x006bb9a6     .string "Fixed drives for station " ; len=25
            0x006bb9bf      .byte 0x0b
            0x006bb9c0     .string " not known." ; len=11
            0x006bb9cb      .byte 0x0a
            0x006bb9cc     .string "Restoring " ; len=10
            0x006bb9d6      .byte 0x10
            0x006bb9d7     .string " number table..." ; len=16
            0x006bb9e7      .byte 0x12
            0x006bb9e8     .string "Volume not mounted" ; len=18
            0x006bb9fa      .byte 0x1d
            0x006bb9fb     .string "- Number table master: drive " ; len=29
            0x006bba18      .byte 0x06
            0x006bba19     .string ", lun " ; len=6
            0x006bba1f      .byte 0x06
            0x006bba20     .string ", vol " ; len=6
            0x006bba26      .byte 0x0a
            0x006bba27     .string ", station " ; len=10
            0x006bba31      .byte 0x07
            0x006bba32     .string "Volume " ; len=7
            0x006bba39      .byte 0x13
            0x006bba3a     .string " is write protected" ; len=19
            0x006bba4d      .byte 0x04
            0x006bba4e      .byte 0x55
            0x006bba4f      .byte 0x73
            0x006bba50      .byte 0x65
            0x006bba51      .byte 0x72
            0x006bba52      .byte 0x0c
            0x006bba53     .string "number table" ; len=12
            0x006bba5f      .byte 0x0b
            0x006bba60     .string "stack table" ; len=11
            0x006bba6b      .byte 0x21
            0x006bba6c     .string "? Unable to create new user files" ; len=33
            0x006bba8d      .byte 0x2d
            0x006bba8e     .string "? cannot find user file that was just created" ; len=45
            0x006bbabb      .byte 0x12
            0x006bbabc     .string "new user file fid " ; len=18
            0x006bbace      .byte 0x1d
            0x006bbacf     .string "no numbered pictures restored" ; len=29
            0x006bbaec      .byte 0x1b
            0x006bbaed     .string " numbered pictures restored" ; len=27
            0x006bbb08      .byte 0x1c
            0x006bbb09     .string "no numbered cutouts restored" ; len=28
            0x006bbb25      .byte 0x1a
            0x006bbb26     .string " numbered cutouts restored" ; len=26
            0x006bbb40      .byte 0x1d
            0x006bbb41     .string "no numbered stencils restored" ; len=29
            0x006bbb5e      .byte 0x1b
            0x006bbb5f     .string " numbered stencils restored" ; len=27
            0x006bbb7a      .byte 0x1b
            0x006bbb7b     .string "no numbered stacks restored" ; len=27
            0x006bbb96      .byte 0x19
            0x006bbb97     .string " numbered stacks restored" ; len=25
            0x006bbbb0      .byte 0x1a
            0x006bbbb1     .string "no numbered clips restored" ; len=26
            0x006bbbcb      .byte 0x18
            0x006bbbcc     .string " numbered clips restored" ; len=24
            0x006bbbe4      .byte 0x12
            0x006bbbe5     .string "adding exch drive " ; len=18
            0x006bbbf7      .byte 0x0d
            0x006bbbf8     .string " with region " ; len=13
            0x006bbc05      .byte 0x00
            0x006bbc06      .byte 0x13
            0x006bbc07      .byte 0x06
            0x006bbc08     .string "Added " ; len=6
            0x006bbc0e      .byte 0x0c
            0x006bbc0f     .string " exch drive " ; len=12
            0x006bbc1b      .byte 0x07
            0x006bbc1c     .string " range " ; len=7
            0x006bbc23      .byte 0x0f
            0x006bbc24     .string "Max fixed pnum " ; len=15
            0x006bbc33      .byte 0x07
            0x006bbc34     .string ", snum " ; len=7
            0x006bbc3b      .byte 0x28
            0x006bbc3c     .string "? add_exch_drive: no record for station " ; len=40
            0x006bbc64      .byte 0x18
            0x006bbc65     .string "? add_Exch_drive: drive " ; len=24
            0x006bbc7d      .byte 0x10
            0x006bbc7e     .string " not on station " ; len=16
            0x006bbc8e      .byte 0x06
            0x006bbc8f     .string "Added " ; len=6
            0x006bbc95      .byte 0x0c
            0x006bbc96     .string " exch drive " ; len=12
            0x006bbca2      .byte 0x07
            0x006bbca3     .string " range " ; len=7
            0x006bbcaa      .byte 0x0f
            0x006bbcab     .string "Max fixed pnum " ; len=15
            0x006bbcba      .byte 0x07
            0x006bbcbb     .string ", snum " ; len=7
            0x006bbcc2      .byte 0x18
            0x006bbcc3     .string "Drive_gate not waited on" ; len=24
            0x006bbcdb      .byte 0x00
            0x006bbcdc      .byte 0x13
            0x006bbcdd      .byte 0x00
            0x006bbcde      .byte 0x00
            0x006bbcdf      .byte 0x00
            0x006bbce0      .byte 0x00
            0x006bbce1      .byte 0x00
            0x006bbce2      .byte 0x01
            0x006bbce3      .byte 0x00
            0x006bbce4      .byte 0x00
            0x006bbce5      .byte 0x00
            0x006bbce6      .byte 0x04
            0x006bbce7      .byte 0x00
            0x006bbce8      .byte 0x00
            0x006bbce9      .byte 0x00
            0x006bbcea      .byte 0x13
            0x006bbceb     .string "%? vol_in_list, no " ; len=19
            0x006bbcfe      .byte 0x72
            0x006bbcff     .string "ecord for station 'Ukn scope. dunno whether in list or not" ; len=58
            0x006bbd39      .byte 0x1e
            0x006bbd3a     .string "No stn record yet created for " ; len=30
            0x006bbd58      .byte 0x0d
            0x006bbd59     .string "Scan station " ; len=13
            0x006bbd66      .byte 0x11
            0x006bbd67     .string " for exchangables" ; len=17
            0x006bbd78      .byte 0x13
            0x006bbd79     .string " drives on station " ; len=19
            0x006bbd8c      .byte 0x2c
            0x006bbd8d     .string "? no heap for Pnet drive record for station " ; len=44
            0x006bbdb9      .byte 0x1c
            0x006bbdba     .string "Made new record for station " ; len=28
            0x006bbdd6      .byte 0x18
            0x006bbdd7     .string "Drive_gate not waited on" ; len=24
            0x006bbdef      .byte 0x14
            0x006bbdf0     .string "assigned pnet drive " ; len=20
            0x006bbe04      .byte 0x06
            0x006bbe05     .string ", bus " ; len=6
            0x006bbe0b      .byte 0x08
            0x006bbe0c     .string " volume " ; len=8
            0x006bbe14      .byte 0x0d
            0x006bbe15     .string " for station " ; len=13
            0x006bbe22      .byte 0x0f
            0x006bbe23     .string "- pnet station " ; len=15
            0x006bbe32      .byte 0x16
            0x006bbe33     .string " number master: drive " ; len=22
            0x006bbe49      .byte 0x02
            0x006bbe4a      .byte 0x41
            0x006bbe4b      .byte 0x3a
            0x006bbe4c      .byte 0x02
            0x006bbe4d      .byte 0x42
            0x006bbe4e      .byte 0x3a
            0x006bbe4f      .byte 0x02
            0x006bbe50      .byte 0x2c
            0x006bbe51      .byte 0x20
            0x006bbe52      .byte 0x08
            0x006bbe53     .string ".  Vol: " ; len=8
            0x006bbe5b      .byte 0x09
            0x006bbe5c     .string " - NOT ok" ; len=9
            0x006bbe65      .byte 0x00
            0x006bbe66      .byte 0x26
            0x006bbe67      .byte 0x00
            0x006bbe68     .string "0? local volume up, (I didn't know it was down !)" ; len=49
            0x006bbe99      .byte 0x16
            0x006bbe9a     .string "Local volume recovered" ; len=22
            0x006bbeb0      .byte 0x76
            0x006bbeb1      .byte 0x00
            0x006bbeb2     .string ",Volume up, no previous SUB number volume set" ; len=45
            0x006bbedf      .byte 0x00
            0x006bbee0      .byte 0x01
            0x006bbee1      .byte 0x00
            0x006bbee2      .byte 0x00
            0x006bbee3      .byte 0x00
            0x006bbee4     .string "%Ignoring suitable SUB drive addr/lun -, number table drive can only be at address 0" ; len=84
            0x006bbf38      .byte 0x14
            0x006bbf39     .string "No public volume set" ; len=20
            0x006bbf4d      .byte 0x1e
            0x006bbf4e     .string "- public number master: drive " ; len=30
            0x006bbf6c      .byte 0x06
            0x006bbf6d     .string ", lun " ; len=6
            0x006bbf73      .byte 0x06
            0x006bbf74     .string ", vol " ; len=6
            0x006bbf7a      .byte 0x15
            0x006bbf7b     .string "public number volume " ; len=21
            0x006bbf90      .byte 0x12
            0x006bbf91     .string " up, already known" ; len=18
            0x006bbfa3      .byte 0x00
            0x006bbfa4      .byte 0x01
            0x006bbfa5      .byte 0x00
            0x006bbfa6      .byte 0x00
            0x006bbfa7      .byte 0x00
            0x006bbfa8     .string " Ignoring suitable public volume " ; len=33
            0x006bbfc9      .byte 0x15
            0x006bbfca     .string "public number volume " ; len=21
            0x006bbfdf      .byte 0x0a
            0x006bbfe0     .string " recovered" ; len=10
            0x006bbfea      .byte 0x01
            0x006bbfeb      .byte 0x00
            0x006bbfec      .byte 0x00
            0x006bbfed      .byte 0x00
            0x006bbfee      .byte 0x19
            0x006bbfef     .string "Still waiting for volume " ; len=25
            0x006bc008      .byte 0x12
            0x006bc009     .string " to return (sniff)" ; len=18
            0x006bc01b      .byte 0x30
            0x006bc01c     .string "Volume up, no previous clipbox number volume set" ; len=48
            0x006bc04c      .byte 0x04
            0x006bc04d      .byte 0x00
            0x006bc04e      .byte 0x00
            0x006bc04f      .byte 0x00
            0x006bc050     .string ")Ignoring suitable clipbox drive addr/lun -, number table drive can only be at address 0" ; len=88
            0x006bc0a8      .byte 0x15
            0x006bc0a9     .string "No clipbox volume set" ; len=21
            0x006bc0be      .byte 0x1f
            0x006bc0bf     .string "- clipbox number master: drive " ; len=31
            0x006bc0de      .byte 0x06
            0x006bc0df     .string ", lun " ; len=6
            0x006bc0e5      .byte 0x06
            0x006bc0e6     .string ", vol " ; len=6
            0x006bc0ec      .byte 0x16
            0x006bc0ed     .string "clipbox number volume " ; len=22
            0x006bc103      .byte 0x12
            0x006bc104     .string " up, already known" ; len=18
            0x006bc116      .byte 0x04
            0x006bc117      .byte 0x00
            0x006bc118      .byte 0x00
            0x006bc119      .byte 0x00
            0x006bc11a     .string "!Ignoring suitable clipbox volume " ; len=34
            0x006bc13c      .byte 0x16
            0x006bc13d     .string "clipbox number volume " ; len=22
            0x006bc153      .byte 0x0a
            0x006bc154     .string " recovered" ; len=10
            0x006bc15e      .byte 0x04
            0x006bc15f      .byte 0x00
            0x006bc160      .byte 0x00
            0x006bc161      .byte 0x00
            0x006bc162      .byte 0x19
            0x006bc163     .string "Still waiting for volume " ; len=25
            0x006bc17c      .byte 0x12
            0x006bc17d     .string " to return (sniff)" ; len=18
            0x006bc18f      .byte 0x00
            0x006bc190      .byte 0x06
            0x006bc191      .byte 0x00
            0x006bc192      .byte 0x15
            0x006bc193     .string "volume up on station " ; len=21
            0x006bc1a8      .byte 0x33
            0x006bc1a9     .string "Pnet volume up, no previous volume set for station " ; len=51
            0x006bc1dc      .byte 0x13
            0x006bc1dd     .string "pnet number volume " ; len=19
            0x006bc1f0      .byte 0x10
            0x006bc1f1     .string " up, on station " ; len=16
            0x006bc201      .byte 0x0e
            0x006bc202     .string " already known" ; len=14
            0x006bc210      .byte 0x1e
            0x006bc211     .string "Ignoring suitable pnet volume " ; len=30
            0x006bc22f      .byte 0x0c
            0x006bc230     .string " on station " ; len=12
            0x006bc23c      .byte 0x21
            0x006bc23d     .string "volume suitable, we have this one" ; len=33
            0x006bc25e      .byte 0x0d
            0x006bc25f     .string "Pnet station " ; len=13
            0x006bc26c      .byte 0x10
            0x006bc26d     .string ", number volume " ; len=16
            0x006bc27d      .byte 0x0a
            0x006bc27e     .string " recovered" ; len=10
            0x006bc288      .byte 0x12
            0x006bc289     .string "Still waiting for " ; len=18
            0x006bc29b      .byte 0x0f
            0x006bc29c     .string " master volume " ; len=15
            0x006bc2ab      .byte 0x12
            0x006bc2ac     .string " to return (sniff)" ; len=18
            0x006bc2be      .byte 0x13
            0x006bc2bf     .string "@? the exch drive t" ; len=19
            0x006bc2d2      .byte 0x68
            0x006bc2d3     .string "at this volume is on wasnt known to me before.Out of sorts: exchangeable volume up on drive " ; len=92
            0x006bc32f      .byte 0x08
            0x006bc330     .string " region " ; len=8
            0x006bc338      .byte 0x1a
            0x006bc339     .string "? Local number volume down" ; len=26
            0x006bc353      .byte 0x1e
            0x006bc354     .string "Public number volume gone down" ; len=30
            0x006bc372      .byte 0x1f
            0x006bc373     .string "Clipbox number volume gone down" ; len=31
            0x006bc392      .byte 0x28
            0x006bc393     .string "Pnet number volume gone down on station " ; len=40
            0x006bc3bb      .byte 0x00
            0x006bc3bc      .byte 0x13
            0x006bc3bd      .byte 0x00
            0x006bc3be      .byte 0x00
            0x006bc3bf      .byte 0x00
            0x006bc3c0      .byte 0x00
            0x006bc3c1      .byte 0x00
            0x006bc3c2      .byte 0x01
            0x006bc3c3      .byte 0x00
            0x006bc3c4      .byte 0x00
            0x006bc3c5      .byte 0x00
            0x006bc3c6      .byte 0x04
            0x006bc3c7      .byte 0x00
            0x006bc3c8      .byte 0x00
            0x006bc3c9      .byte 0x00
            0x006bc3ca      .byte 0x12
            0x006bc3cb     .string "drive_update_task " ; len=18
            0x006bc3dd      .byte 0x02
            0x006bc3de      .byte 0x20
            0x006bc3df      .byte 0x20
            0x006bc3e0      .byte 0x12
            0x006bc3e1     .string "add_to_update_rec " ; len=18
            0x006bc3f3      .byte 0x02
            0x006bc3f4      .byte 0x20
            0x006bc3f5      .byte 0x20
            0x006bc3f6      .byte 0x26
            0x006bc3f7      .byte 0x00
            0x006bc3f8      .byte 0x76
            0x006bc3f9      .byte 0x00
            0x006bc3fa      .byte 0x10
            0x006bc3fb     .string "found grab file " ; len=16
            0x006bc40b      .byte 0x06
            0x006bc40c     .string " type " ; len=6
            0x006bc412      .byte 0x21
            0x006bc413     .string "error during search for grab file" ; len=33
            0x006bc434      .byte 0x56
            0x006bc435      .byte 0x00
            0x006bc436      .byte 0x56
            0x006bc437      .byte 0x00
            0x006bc438      .byte 0x01
            0x006bc439      .byte 0x00
            0x006bc43a      .byte 0x00
            0x006bc43b      .byte 0x00
            0x006bc43c     .string ".? only drive 0 is valid for SUB number volumes" ; len=47
            0x006bc46b      .byte 0x0f
            0x006bc46c     .string "lowest addr of " ; len=15
            0x006bc47b      .byte 0x06
            0x006bc47c     .string " (lun " ; len=6
            0x006bc482      .byte 0x0f
            0x006bc483     .string ") not permitted" ; len=15
            0x006bc492      .byte 0x22
            0x006bc493     .string "- no suitable public volumes found" ; len=34
            0x006bc4b5      .byte 0x10
            0x006bc4b6     .string "- public volume " ; len=16
            0x006bc4c6      .byte 0x0f
            0x006bc4c7     .string " not accessible" ; len=15
            0x006bc4d6      .byte 0x1e
            0x006bc4d7     .string "- public number master: drive " ; len=30
            0x006bc4f5      .byte 0x06
            0x006bc4f6     .string ", lun " ; len=6
            0x006bc4fc      .byte 0x06
            0x006bc4fd     .string ", vol " ; len=6
            0x006bc503      .byte 0x00
            0x006bc504      .byte 0x06
            0x006bc505      .byte 0x00
            0x006bc506      .byte 0x04
            0x006bc507      .byte 0x00
            0x006bc508      .byte 0x00
            0x006bc509      .byte 0x00
            0x006bc50a     .string "2? only drive 0 is valid for Clipbox number volumes" ; len=51
            0x006bc53d      .byte 0x0f
            0x006bc53e     .string "lowest addr of " ; len=15
            0x006bc54d      .byte 0x06
            0x006bc54e     .string " (lun " ; len=6
            0x006bc554      .byte 0x0f
            0x006bc555     .string ") not permitted" ; len=15
            0x006bc564      .byte 0x23
            0x006bc565     .string "- no suitable Clipbox volumes found" ; len=35
            0x006bc588      .byte 0x11
            0x006bc589     .string "- Clipbox volume " ; len=17
            0x006bc59a      .byte 0x0f
            0x006bc59b     .string " not accessible" ; len=15
            0x006bc5aa      .byte 0x1f
            0x006bc5ab     .string "- Clipbox number master: drive " ; len=31
            0x006bc5ca      .byte 0x06
            0x006bc5cb     .string ", lun " ; len=6
            0x006bc5d1      .byte 0x06
            0x006bc5d2     .string ", vol " ; len=6
            0x006bc5d8      .byte 0x06
            0x006bc5d9      .byte 0x00
            0x006bc5da      .byte 0x07
            0x006bc5db     .string "volume " ; len=7
            0x006bc5e2      .byte 0x16
            0x006bc5e3     .string " station zero ! Drive " ; len=22
            0x006bc5f9      .byte 0x06
            0x006bc5fa     .string "drive " ; len=6
            0x006bc600      .byte 0x0c
            0x006bc601     .string " on station " ; len=12
            0x006bc60d      .byte 0x0d
            0x006bc60e     .string " not suitable" ; len=13
            0x006bc61b      .byte 0x26
            0x006bc61c     .string "- no suitable picturenet volumes found" ; len=38
            0x006bc642      .byte 0x0a
            0x006bc643     .string "there are " ; len=10
            0x006bc64d      .byte 0x1c
            0x006bc64e     .string " drives known to the system." ; len=28
            0x006bc66a      .byte 0x00
            0x006bc66b      .byte 0x00
            0x006bc66c      .byte 0x00
            0x006bc66d      .byte 0x00
            0x006bc66e      .byte 0x01
            0x006bc66f      .byte 0x00
            0x006bc670      .byte 0x00
            0x006bc671      .byte 0x00
            0x006bc672      .byte 0x04
            0x006bc673      .byte 0x00
            0x006bc674      .byte 0x00
            0x006bc675      .byte 0x00
            0x006bc676      .byte 0x06
            0x006bc677      .byte 0x00
            0x006bc678      .byte 0x76
            0x006bc679      .byte 0x00
            0x006bc67a     .string ") volumes went up/down during initial scan" ; len=42
            0x006bc6a4      .byte 0x11
            0x006bc6a5     .string "Drive update task" ; len=17
            0x006bc6b6      .byte 0x12
            0x006bc6b7     .string "Local   : SCSI id " ; len=18
            0x006bc6c9      .byte 0x06
            0x006bc6ca     .string ", lun " ; len=6
            0x006bc6d0      .byte 0x0a
            0x006bc6d1     .string ".  Volume " ; len=10
            0x006bc6db      .byte 0x05
            0x006bc6dc     .string ": ok." ; len=5
            0x006bc6e1      .byte 0x09
            0x006bc6e2     .string ": NOT ok." ; len=9
            0x006bc6eb      .byte 0x09
            0x006bc6ec     .string " max p/s " ; len=9
            0x006bc6f5      .byte 0x07
            0x006bc6f6     .string "  exch " ; len=7
            0x006bc6fd      .byte 0x08
            0x006bc6fe     .string ": range " ; len=8
            0x006bc706      .byte 0x08
            0x006bc707     .string ", drive " ; len=8
            0x006bc70f      .byte 0x12
            0x006bc710     .string "Public  : SCSI id " ; len=18
            0x006bc722      .byte 0x06
            0x006bc723     .string ", lun " ; len=6
            0x006bc729      .byte 0x0a
            0x006bc72a     .string ".  Volume " ; len=10
            0x006bc734      .byte 0x05
            0x006bc735     .string ": ok." ; len=5
            0x006bc73a      .byte 0x09
            0x006bc73b     .string ": NOT ok." ; len=9
            0x006bc744      .byte 0x09
            0x006bc745     .string " max p/s " ; len=9
            0x006bc74e      .byte 0x07
            0x006bc74f     .string "  exch " ; len=7
            0x006bc756      .byte 0x08
            0x006bc757     .string ": range " ; len=8
            0x006bc75f      .byte 0x08
            0x006bc760     .string ", drive " ; len=8
            0x006bc768      .byte 0x12
            0x006bc769     .string "Clipbox : SCSI id " ; len=18
            0x006bc77b      .byte 0x06
            0x006bc77c     .string ", lun " ; len=6
            0x006bc782      .byte 0x0a
            0x006bc783     .string ".  Volume " ; len=10
            0x006bc78d      .byte 0x05
            0x006bc78e     .string ": ok." ; len=5
            0x006bc793      .byte 0x09
            0x006bc794     .string ": NOT ok." ; len=9
            0x006bc79d      .byte 0x09
            0x006bc79e     .string " max p/s " ; len=9
            0x006bc7a7      .byte 0x07
            0x006bc7a8     .string "  exch " ; len=7
            0x006bc7af      .byte 0x08
            0x006bc7b0     .string ": range " ; len=8
            0x006bc7b8      .byte 0x08
            0x006bc7b9     .string ", drive " ; len=8
            0x006bc7c1      .byte 0x13
            0x006bc7c2     .string "Pnet NOT configured" ; len=19
            0x006bc7d5      .byte 0x05
            0x006bc7d6     .string "Pnet " ; len=5
            0x006bc7db      .byte 0x07
            0x006bc7dc     .string ": SCSI " ; len=7
            0x006bc7e3      .byte 0x02
            0x006bc7e4      .byte 0x41
            0x006bc7e5      .byte 0x3a
            0x006bc7e6      .byte 0x02
            0x006bc7e7      .byte 0x42
            0x006bc7e8      .byte 0x3a
            0x006bc7e9      .byte 0x02
            0x006bc7ea      .byte 0x2c
            0x006bc7eb      .byte 0x20
            0x006bc7ec      .byte 0x0a
            0x006bc7ed     .string ".  Volume " ; len=10
            0x006bc7f7      .byte 0x05
            0x006bc7f8     .string ": ok." ; len=5
            0x006bc7fd      .byte 0x09
            0x006bc7fe     .string ": NOT ok." ; len=9
            0x006bc807      .byte 0x09
            0x006bc808     .string " max p/s " ; len=9
            0x006bc811      .byte 0x07
            0x006bc812     .string "  exch " ; len=7
            0x006bc819      .byte 0x08
            0x006bc81a     .string ": range " ; len=8
            0x006bc822      .byte 0x08
            0x006bc823     .string ", drive " ; len=8
            0x006bc82b      .byte 0x1b
            0x006bc82c      .byte 0x6e
            0x006bc82d      .byte 0x6f
            0x006bc82e      .byte 0x20
            0x006bc82f      .byte 0x70
            0x006bc830      .byte 0x69
            0x006bc831      .byte 0x63
            0x006bc832      .byte 0x74
            0x006bc833      .byte 0x75
            0x006bc834      .byte 0x72
            0x006bc835      .byte 0x65
            0x006bc836      .byte 0x6e
            0x006bc837      .byte 0x65
            0x006bc838      .byte 0x74
            0x006bc839      .byte 0x20
            0x006bc83a      .byte 0x76
            0x006bc83b      .byte 0x6f
            0x006bc83c      .byte 0x6c
            0x006bc83d      .byte 0x75
            0x006bc83e      .byte 0x6d
            0x006bc83f      .byte 0x65
            0x006bc840      .byte 0x73
            0x006bc841      .byte 0x20
            0x006bc842      .byte 0x66
            0x006bc843      .byte 0x6f
            0x006bc844      .byte 0x75
            0x006bc845      .byte 0x6e
            0x006bc846      .byte 0x64
            0x006bc847      .byte 0x69
            ; XREFS: CALL 0x006bcbba  CALL 0x006bd124  CALL 0x006bdb22  
            ; XREFS: CALL 0x006bdd00  CALL 0x006be1c6  CALL 0x006be774  
            ; XREFS: CALL 0x006bf42e  CALL 0x006c1684  CALL 0x006c16e6  
            ; XREFS: CALL 0x006c2658  CALL 0x006c343a  CALL 0x006c3b9a  
            ; XREFS: CALL 0x006c4b18  CALL 0x006c572a  CALL 0x006c5774  
 146: USER2_DISK.close_gate ();
           ; var int32_t var_8h @ a7+0x8
           0x006bc848      4e56fee8       link.w a6, 0xfee8
           0x006bc84c      bfd5           cmpa.l (a5), a7
       < 0x006bc84e      6206           bhi.b 0x6bc856
          0x006bc850      44fc0002       move.w 0x2, ccr
          0x006bc854      4e76           trapv
       > 0x006bc856      defc0118       adda.w 0x118, a7
           0x006bc85a      48e78080       movem.l d0/a0, -(a7)
           0x006bc85e      41f9004047ea   lea.l p_wts_o, a0
           0x006bc864      700c           moveq 0xc, d0
           0x006bc866      4a790085621a   tst.w 0x85621a
       < 0x006bc86c      6e32           bgt.b 0x6bc8a0
          0x006bc86e      9efc0100       suba.w 0x100, a7
          0x006bc872      4eb9006b91ea   jsr USER1_UTILS.p_task_name
          0x006bc878      486f0001       pea.l 0x1(a7)
          0x006bc87c      42a7           clr.l -(a7)
          0x006bc87e      1f6f00080003   move.b 0x8(a7), 0x3(a7)
          0x006bc884      2f17           move.l (a7), -(a7)
          0x006bc886      4e90           jsr (a0)                    ; fcn.00000009
          0x006bc888      defc010c       adda.w 0x10c, a7
          0x006bc88c      487add01       pea.l 0x6ba58f(pc)
          0x006bc890      48780017       pea.l 0x17
          0x006bc894      2f17           move.l (a7), -(a7)
          0x006bc896      4e90           jsr (a0)                    ; fcn.00000009
          0x006bc898      dec0           adda.w d0, a7
          0x006bc89a      4eb900404946   jsr p_wtln_o
       > 0x006bc8a0      554f           subq.w 0x2, a7
           0x006bc8a2      487900856210   pea.l 0x856210
           0x006bc8a8      4878004b       pea.l 0x4b
           0x006bc8ac      4eb90040262a   jsr p_Timed_Wait
           0x006bc8b2      504f           addq.w 0x8, a7
           0x006bc8b4      4a1f           tst.b (a7)+
       < 0x006bc8b6      661a           bne.b 0x6bc8d2
          0x006bc8b8      487adced       pea.l 0x6ba5a7(pc)
          0x006bc8bc      4878001e       pea.l 0x1e
          0x006bc8c0      2f17           move.l (a7), -(a7)
          0x006bc8c2      4e90           jsr (a0)                    ; fcn.00000009
          0x006bc8c4      dec0           adda.w d0, a7
          0x006bc8c6      4eb900404946   jsr p_wtln_o
          0x006bc8cc      4eb900401620   jsr p_walkback
       > 0x006bc8d2      4cdf0101       movem.l (a7)+, d0/a0
           0x006bc8d6      4e5e           unlk a6
           0x006bc8d8      4e75           rts
            ; XREFS: CALL 0x006bcbc2  CALL 0x006bd140  CALL 0x006bdc3e  
            ; XREFS: CALL 0x006bdf4e  CALL 0x006be358  CALL 0x006be822  
            ; XREFS: CALL 0x006bf66e  CALL 0x006c16d6  CALL 0x006c174e  
            ; XREFS: CALL 0x006c29fa  CALL 0x006c34a4  CALL 0x006c4734  
            ; XREFS: CALL 0x006c570a  CALL 0x006c573a  CALL 0x006c5dc8  
 106: USER2_DISK.open_gate ();
           0x006bc8da      4e56ffe8       link.w a6, 0xffe8
           0x006bc8de      bfd5           cmpa.l (a5), a7
       < 0x006bc8e0      6206           bhi.b 0x6bc8e8
          0x006bc8e2      44fc0002       move.w 0x2, ccr
          0x006bc8e6      4e76           trapv
       > 0x006bc8e8      defc0018       adda.w 0x18, a7
           0x006bc8ec      48e78080       movem.l d0/a0, -(a7)
           0x006bc8f0      41f90085621a   lea.l 0x85621a, a0
           0x006bc8f6      4a50           tst.w (a0)
       < 0x006bc8f8      6f34           ble.b 0x6bc92e
          0x006bc8fa      487adcca       pea.l 0x6ba5c6(pc)
          0x006bc8fe      48780023       pea.l 0x23
          0x006bc902      2f17           move.l (a7), -(a7)
          0x006bc904      4eb9004047ea   jsr p_wts_o
          0x006bc90a      defc000c       adda.w 0xc, a7
          0x006bc90e      3010           move.w (a0), d0
          0x006bc910      48c0           ext.l d0
          0x006bc912      2f00           move.l d0, -(a7)
          0x006bc914      48780000       pea.l 0x0
          0x006bc918      4eb9004070e4   jsr p_wti_o
          0x006bc91e      504f           addq.w 0x8, a7
          0x006bc920      4eb900404946   jsr p_wtln_o
          0x006bc926      4eb900401620   jsr p_walkback
      < 0x006bc92c      600e           bra.b 0x6bc93c
      > 0x006bc92e      487900856210   pea.l 0x856210
          0x006bc934      4eb90040234e   jsr p_Signal
          0x006bc93a      584f           addq.w 0x4, a7
      > 0x006bc93c      4cdf0101       movem.l (a7)+, d0/a0
           0x006bc940      4e5e           unlk a6
           0x006bc942      4e75           rts
            ; XREFS: CALL 0x006bdcfa  CALL 0x006bdf82  CALL 0x006be1be  
            ; XREFS: CALL 0x006be38a  CALL 0x006be888  CALL 0x006bf428  
            ; XREFS: CALL 0x006bfc9e  CALL 0x006c0706  CALL 0x006c0c26  
            ; XREFS: CALL 0x006c0f36  CALL 0x006c264c  
 112: USER2_DISK.check_scope ();
           ; var int32_t var_8h @ a7+0x8
           0x006bc944      4e56fef0       link.w a6, 0xfef0
           0x006bc948      bfd5           cmpa.l (a5), a7
       < 0x006bc94a      6206           bhi.b 0x6bc952
          0x006bc94c      44fc0002       move.w 0x2, ccr
          0x006bc950      4e76           trapv
       > 0x006bc952      defc0110       adda.w 0x110, a7
           0x006bc956      554f           subq.w 0x2, a7
           0x006bc958      1f2e0008       move.b 0x8(a6), -(a7)
           0x006bc95c      4eb9006ba282   jsr USER1_UTILS.scope_ok
           0x006bc962      544f           addq.w 0x2, a7
           0x006bc964      4a1f           tst.b (a7)+
       < 0x006bc966      6648           bne.b 0x6bc9b0
          0x006bc968      9efc0100       suba.w 0x100, a7
          0x006bc96c      1f2e0008       move.b 0x8(a6), -(a7)
          0x006bc970      4eb9006b8e28   jsr USER1_UTILS.scope_str
          0x006bc976      544f           addq.w 0x2, a7
          0x006bc978      487adc70       pea.l 0x6ba5ea(pc)
          0x006bc97c      4878000c       pea.l 0xc
          0x006bc980      2f17           move.l (a7), -(a7)
          0x006bc982      4eb9004047ea   jsr p_wts_o
          0x006bc988      defc000c       adda.w 0xc, a7
          0x006bc98c      486f0001       pea.l 0x1(a7)
          0x006bc990      42a7           clr.l -(a7)
          0x006bc992      1f6f00080003   move.b 0x8(a7), 0x3(a7)
          0x006bc998      2f17           move.l (a7), -(a7)
          0x006bc99a      4eb9004047ea   jsr p_wts_o
          0x006bc9a0      defc010c       adda.w 0x10c, a7
          0x006bc9a4      4eb900404946   jsr p_wtln_o
          0x006bc9aa      4eb900401620   jsr p_walkback
       > 0x006bc9b0      4e5e           unlk a6
           0x006bc9b2      4e75           rts
            ; XREFS: CALL 0x006bdff8  CALL 0x006be116  CALL 0x006be7da  
            ; XREFS: CALL 0x006c2908  CALL 0x006c3462  CALL 0x006c3976  
            ; XREFS: CALL 0x006c44d4  CALL 0x006c4686  CALL 0x006c536c  
            ; XREFS: CALL 0x006c53f6  CALL 0x006c544c  CALL 0x006c562e  
            ; XREFS: CALL 0x006c5b8e  
 100: USER2_DISK.stn_known ();
           0x006bc9b4      4e56ffe4       link.w a6, 0xffe4
           0x006bc9b8      bfd5           cmpa.l (a5), a7
       < 0x006bc9ba      6206           bhi.b 0x6bc9c2
          0x006bc9bc      44fc0002       move.w 0x2, ccr
          0x006bc9c0      4e76           trapv
       > 0x006bc9c2      defc001c       adda.w 0x1c, a7
           0x006bc9c6      48e7d880       movem.l d0-d1/d3-d4/a0, -(a7)
           0x006bc9ca      721e           moveq 0x1e, d1
           0x006bc9cc      422e0010       clr.b 0x10(a6)
           0x006bc9d0      202e000c       move.l 0xc(a6), d0
           0x006bc9d4      5380           subq.l 0x1, d0
           0x006bc9d6      b081           cmp.l d1, d0
       < 0x006bc9d8      6302           bls.b 0x6bc9dc
          0x006bc9da      4e4f           trap 0xf
       > 0x006bc9dc      2800           move.l d0, d4
           0x006bc9de      767c           moveq 0x7c, d3
           0x006bc9e0      4eb900406a74   jsr fcn.00406a74
           0x006bc9e6      202e0008       move.l 0x8(a6), d0
           0x006bc9ea      5380           subq.l 0x1, d0
           0x006bc9ec      b081           cmp.l d1, d0
       < 0x006bc9ee      6302           bls.b 0x6bc9f2
          0x006bc9f0      4e4f           trap 0xf
       > 0x006bc9f2      e580           asl.l 0x2, d0
           0x006bc9f4      41f90085519a   lea.l 0x85519a, a0
           0x006bc9fa      41f04800       lea.l (a0, d4.l), a0
           0x006bc9fe      41f00800       lea.l (a0, d0.l), a0
           0x006bca02      20680172       movea.l 0x172(a0), a0
           0x006bca06      b0fc0001       cmpa.w 0x1, a0
       < 0x006bca0a      6704           beq.b 0x6bca10
          0x006bca0c      522e0010       addq.b 0x1, 0x10(a6)
       > 0x006bca10      4cdf011b       movem.l (a7)+, d0-d1/d3-d4/a0
           0x006bca14      4e5e           unlk a6
           0x006bca16      4e75           rts
            ; CALL XREF from USER2_DISK.show_exch @ 0x6bcbbe
 400: USER2_DISK.show_exch_list ();
           ; var int32_t var_8h @ a7+0x8
           0x006bca18      4e56feb8       link.w a6, 0xfeb8
           0x006bca1c      bfd5           cmpa.l (a5), a7
       < 0x006bca1e      6206           bhi.b 0x6bca26
          0x006bca20      44fc0002       move.w 0x2, ccr
          0x006bca24      4e76           trapv
       > 0x006bca26      defc0142       adda.w 0x142, a7
           0x006bca2a      48e7f3f8       movem.l d0-d3/d6-d7/a0-a4, -(a7)
           0x006bca2e      47f9004047ea   lea.l p_wts_o, a3
           0x006bca34      49f900404946   lea.l p_wtln_o, a4
           0x006bca3a      760c           moveq 0xc, d3
           0x006bca3c      4a790085621a   tst.w 0x85621a
       < 0x006bca42      6f16           ble.b 0x6bca5a
          0x006bca44      487adbb1       pea.l 0x6ba5f7(pc)
          0x006bca48      48780018       pea.l 0x18
          0x006bca4c      2f17           move.l (a7), -(a7)
          0x006bca4e      4e93           jsr (a3)                    ; fcn.0000000c
          0x006bca50      dec3           adda.w d3, a7
          0x006bca52      4e94           jsr (a4)                    ; fcn.0000000d
          0x006bca54      4eb900401620   jsr p_walkback
       > 0x006bca5a      7c00           moveq 0x0, d6
       > 0x006bca5c      4886           ext.w d6
          0x006bca5e      0d3adbb0       btst.l d6, 0x6ba610(pc)
      < 0x006bca62      66000132       bne.w 0x6bcb96
         0x006bca66      4886           ext.w d6
         0x006bca68      7048           moveq 0x48, d0
         0x006bca6a      c1c6           muls.w d6, d0
         0x006bca6c      41f90085519a   lea.l 0x85519a, a0
         0x006bca72      4ab00046       tst.l 0x46(a0, d0.w)
     < 0x006bca76      6644           bne.b 0x6bcabc
        0x006bca78      9efc0100       suba.w 0x100, a7
        0x006bca7c      1f06           move.b d6, -(a7)
        0x006bca7e      4eb9006b8e28   jsr USER1_UTILS.scope_str
        0x006bca84      544f           addq.w 0x2, a7
        0x006bca86      487adb8a       pea.l 0x6ba612(pc)
        0x006bca8a      48780003       pea.l 0x3
        0x006bca8e      2f17           move.l (a7), -(a7)
        0x006bca90      4e93           jsr (a3)                    ; fcn.0000000c
        0x006bca92      dec3           adda.w d3, a7
        0x006bca94      486f0001       pea.l 0x1(a7)
        0x006bca98      42a7           clr.l -(a7)
        0x006bca9a      1f6f00080003   move.b 0x8(a7), 0x3(a7)
        0x006bcaa0      2f17           move.l (a7), -(a7)
        0x006bcaa2      4e93           jsr (a3)                    ; fcn.0000000c
        0x006bcaa4      defc010c       adda.w 0x10c, a7
        0x006bcaa8      487adb6c       pea.l 0x6ba616(pc)
        0x006bcaac      48780014       pea.l 0x14
        0x006bcab0      2f17           move.l (a7), -(a7)
        0x006bcab2      4e93           jsr (a3)                    ; fcn.0000000c
        0x006bcab4      dec3           adda.w d3, a7
        0x006bcab6      4e94           jsr (a4)                    ; fcn.0000000d
    < 0x006bcab8      600000dc       bra.w 0x6bcb96
    > 0x006bcabc      9efc0100       suba.w 0x100, a7
        0x006bcac0      1f06           move.b d6, -(a7)
        0x006bcac2      4eb9006b8e28   jsr USER1_UTILS.scope_str
        0x006bcac8      544f           addq.w 0x2, a7
        0x006bcaca      2f300046       move.l 0x46(a0, d0.w), -(a7)
        0x006bcace      48780000       pea.l 0x0
        0x006bcad2      4eb9004070e4   jsr p_wti_o
        0x006bcad8      5c4f           addq.w 0x6, a7
        0x006bcada      1ebc0020       move.b 0x20, (a7)
        0x006bcade      48780001       pea.l 0x1
        0x006bcae2      4eb9004048b4   jsr p_wtc_o
        0x006bcae8      5c4f           addq.w 0x6, a7
        0x006bcaea      486f0001       pea.l 0x1(a7)
        0x006bcaee      42a7           clr.l -(a7)
        0x006bcaf0      1f6f00080003   move.b 0x8(a7), 0x3(a7)
        0x006bcaf6      2f17           move.l (a7), -(a7)
        0x006bcaf8      4e93           jsr (a3)                    ; fcn.0000000c
        0x006bcafa      defc010c       adda.w 0x10c, a7
        0x006bcafe      487adb2b       pea.l 0x6ba62b(pc)
        0x006bcb02      48780015       pea.l 0x15
        0x006bcb06      2f17           move.l (a7), -(a7)
        0x006bcb08      4e93           jsr (a3)                    ; fcn.0000000c
        0x006bcb0a      dec3           adda.w d3, a7
        0x006bcb0c      4e94           jsr (a4)                    ; fcn.0000000d
        0x006bcb0e      7248           moveq 0x48, d1
        0x006bcb10      c3c6           muls.w d6, d1
        0x006bcb12      43f90085519a   lea.l 0x85519a, a1
        0x006bcb18      2f300046       move.l 0x46(a0, d0.w), -(a7)
        0x006bcb1c      7e01           moveq 0x1, d7
    > 0x006bcb1e      be97           cmp.l (a7), d7
   < 0x006bcb20      6e72           bgt.b 0x6bcb94
      0x006bcb22      2407           move.l d7, d2
      0x006bcb24      5382           subq.l 0x1, d2
      0x006bcb26      0c8200000005   cmpi.l 0x5, d2
  < 0x006bcb2c      6302           bls.b 0x6bcb30
     0x006bcb2e      4e4f           trap 0xf
  > 0x006bcb30      e782           asl.l 0x3, d2
      0x006bcb32      45f11000       lea.l (a1, d1.w), a2
      0x006bcb36      487adb09       pea.l 0x6ba641(pc)
      0x006bcb3a      48780002       pea.l 0x2
      0x006bcb3e      2f17           move.l (a7), -(a7)
      0x006bcb40      4e93           jsr (a3)                    ; fcn.0000000c
      0x006bcb42      504f           addq.w 0x8, a7
      0x006bcb44      2e87           move.l d7, (a7)
      0x006bcb46      48780000       pea.l 0x0
      0x006bcb4a      4eb9004070e4   jsr p_wti_o
      0x006bcb50      504f           addq.w 0x8, a7
      0x006bcb52      487adaf0       pea.l 0x6ba644(pc)
      0x006bcb56      48780008       pea.l 0x8
      0x006bcb5a      2f17           move.l (a7), -(a7)
      0x006bcb5c      4e93           jsr (a3)                    ; fcn.0000000c
      0x006bcb5e      504f           addq.w 0x8, a7
      0x006bcb60      2eb2281a       move.l 0x1a(a2, d2.l), (a7)
      0x006bcb64      48780000       pea.l 0x0
      0x006bcb68      4eb9004070e4   jsr p_wti_o
      0x006bcb6e      504f           addq.w 0x8, a7
      0x006bcb70      487adadb       pea.l 0x6ba64d(pc)
      0x006bcb74      48780008       pea.l 0x8
      0x006bcb78      2f17           move.l (a7), -(a7)
      0x006bcb7a      4e93           jsr (a3)                    ; fcn.0000000c
      0x006bcb7c      504f           addq.w 0x8, a7
      0x006bcb7e      2eb22816       move.l 0x16(a2, d2.l), (a7)
      0x006bcb82      4878ffff       pea.l 0xffff
      0x006bcb86      4eb9004070e4   jsr p_wti_o
      0x006bcb8c      504f           addq.w 0x8, a7
      0x006bcb8e      4e94           jsr (a4)                    ; fcn.0000000d
      0x006bcb90      5287           addq.l 0x1, d7
   < 0x006bcb92      688a           bvc.b 0x6bcb1e
   > 0x006bcb94      584f           addq.w 0x4, a7
    > 0x006bcb96      5206           addq.b 0x1, d6
          0x006bcb98      0c060004       cmpi.b 0x4, d6
       < 0x006bcb9c      6f00febe       ble.w 0x6bca5c
           0x006bcba0      4cdf1fcf       movem.l (a7)+, d0-d3/d6-d7/a0-a4
           0x006bcba4      4e5e           unlk a6
           0x006bcba6      4e75           rts
            ; CALL XREF from USER2_DISK.init_user @ 0x6c55f2
 34: USER2_DISK.show_exch ();
           0x006bcba8      4e56fffc       link.w a6, 0xfffc
           0x006bcbac      bfd5           cmpa.l (a5), a7
       < 0x006bcbae      6206           bhi.b 0x6bcbb6
          0x006bcbb0      44fc0002       move.w 0x2, ccr
          0x006bcbb4      4e76           trapv
       > 0x006bcbb6      defc0004       adda.w 0x4, a7
           0x006bcbba      4ebafc8c       jsr USER2_DISK.close_gate(pc)
           0x006bcbbe      4ebafe58       jsr USER2_DISK.show_exch_list(pc)
           0x006bcbc2      4ebafd16       jsr USER2_DISK.open_gate(pc)
           0x006bcbc6      4e5e           unlk a6
           0x006bcbc8      4e75           rts
            ; CALL XREF from USER2_DISK.ntable_drive @ 0x6bea2a
 68: USER2_DISK.lower_address ();
           0x006bcbca      4e56fff6       link.w a6, 0xfff6
           0x006bcbce      bfd5           cmpa.l (a5), a7
       < 0x006bcbd0      6206           bhi.b 0x6bcbd8
          0x006bcbd2      44fc0002       move.w 0x2, ccr
          0x006bcbd6      4e76           trapv
       > 0x006bcbd8      defc000a       adda.w 0xa, a7
           0x006bcbdc      48e78000       movem.l d0, -(a7)
           0x006bcbe0      302e000e       move.w 0xe(a6), d0
           0x006bcbe4      b06e000a       cmp.w 0xa(a6), d0
       < 0x006bcbe8      6d10           blt.b 0x6bcbfa
          0x006bcbea      b06e000a       cmp.w 0xa(a6), d0
      < 0x006bcbee      6612           bne.b 0x6bcc02
         0x006bcbf0      302e000c       move.w 0xc(a6), d0
         0x006bcbf4      b06e0008       cmp.w 0x8(a6), d0
     < 0x006bcbf8      6c08           bge.b 0x6bcc02
     > 0x006bcbfa      1d7c00010010   move.b 0x1, 0x10(a6)
     < 0x006bcc00      6004           bra.b 0x6bcc06
     > 0x006bcc02      422e0010       clr.b 0x10(a6)
       > 0x006bcc06      4cdf0001       movem.l (a7)+, d0
           0x006bcc0a      4e5e           unlk a6
           0x006bcc0c      4e75           rts
            ; CALL XREF from USER2_DISK.clr_drive_data @ 0x6bccc6
            ; CALL XREF from USER2_DISK.ntable_drive @ 0x6be8d8
            ; CALL XREFS from USER2_DISK.init_user @ 0x6c4ee2, 0x6c50c2
 54: USER2_DISK.clr_drv_info ();
           0x006bcc0e      4e56fff0       link.w a6, 0xfff0
           0x006bcc12      bfd5           cmpa.l (a5), a7
       < 0x006bcc14      6206           bhi.b 0x6bcc1c
          0x006bcc16      44fc0002       move.w 0x2, ccr
          0x006bcc1a      4e76           trapv
       > 0x006bcc1c      defc0010       adda.w 0x10, a7
           0x006bcc20      48e78080       movem.l d0/a0, -(a7)
           0x006bcc24      7008           moveq 0x8, d0
           0x006bcc26      206e0008       movea.l 0x8(a6), a0
           0x006bcc2a      42a80004       clr.l 0x4(a0)
           0x006bcc2e      4228000a       clr.b 0xa(a0)
           0x006bcc32      3080           move.w d0, (a0)
           0x006bcc34      31400002       move.w d0, 0x2(a0)
           0x006bcc38      31400008       move.w d0, 0x8(a0)
           0x006bcc3c      4cdf0101       movem.l (a7)+, d0/a0
           0x006bcc40      4e5e           unlk a6
           0x006bcc42      4e75           rts
            ; CALL XREF from USER2_DISK.clr_drive_data @ 0x6bccce
            ; CALL XREF from USER2_DISK.sort_drive_list @ 0x6c3394
 102: USER2_DISK.clear_exch_list ();
           0x006bcc44      4e56ffe0       link.w a6, 0xffe0
           0x006bcc48      bfd5           cmpa.l (a5), a7
       < 0x006bcc4a      6206           bhi.b 0x6bcc52
          0x006bcc4c      44fc0002       move.w 0x2, ccr
          0x006bcc50      4e76           trapv
       > 0x006bcc52      defc001c       adda.w 0x1c, a7
           0x006bcc56      48e781e0       movem.l d0/d7/a0-a2, -(a7)
           0x006bcc5a      206e0008       movea.l 0x8(a6), a0
           0x006bcc5e      42a8003c       clr.l 0x3c(a0)
           0x006bcc62      217c0000270f.  move.l 0x270f, 0x40(a0)
           0x006bcc6a      217c000003e7.  move.l 0x3e7, 0x44(a0)
           0x006bcc72      206e0008       movea.l 0x8(a6), a0
           0x006bcc76      7e01           moveq 0x1, d7
       > 0x006bcc78      2007           move.l d7, d0
          0x006bcc7a      5380           subq.l 0x1, d0
          0x006bcc7c      0c8000000005   cmpi.l 0x5, d0
      < 0x006bcc82      6302           bls.b 0x6bcc86
         0x006bcc84      4e4f           trap 0xf
      > 0x006bcc86      e780           asl.l 0x3, d0
          0x006bcc88      43f0080c       lea.l 0xc(a0, d0.l), a1
          0x006bcc8c      45fad8f8       lea.l 0x6ba586(pc), a2
          0x006bcc90      7007           moveq 0x7, d0
      > 0x006bcc92      12da           move.b (a2)+, (a1)+
      < 0x006bcc94      51c8fffc       dbra d0, 0x6bcc92
          0x006bcc98      5287           addq.l 0x1, d7
          0x006bcc9a      0c8700000006   cmpi.l 0x6, d7
       < 0x006bcca0      6fd6           ble.b 0x6bcc78
           0x006bcca2      4cdf0781       movem.l (a7)+, d0/d7/a0-a2
           0x006bcca6      4e5e           unlk a6
           0x006bcca8      4e75           rts
            ; CALL XREF from USER2_DISK.new_pnet_stn @ 0x6c3882
            ; CALL XREF from USER2_DISK.init_user @ 0x6c4b50
 50: USER2_DISK.clr_drive_data ();
           0x006bccaa      4e56ffec       link.w a6, 0xffec
           0x006bccae      bfd5           cmpa.l (a5), a7
       < 0x006bccb0      6206           bhi.b 0x6bccb8
          0x006bccb2      44fc0002       move.w 0x2, ccr
          0x006bccb6      4e76           trapv
       > 0x006bccb8      defc0010       adda.w 0x10, a7
           0x006bccbc      48e70080       movem.l a0, -(a7)
           0x006bccc0      206e0008       movea.l 0x8(a6), a0
           0x006bccc4      4850           pea.l (a0)
           0x006bccc6      4ebaff46       jsr USER2_DISK.clr_drv_info(pc)
           0x006bccca      584f           addq.w 0x4, a7
           0x006bcccc      4850           pea.l (a0)
           0x006bccce      4ebaff74       jsr USER2_DISK.clear_exch_list(pc)
           0x006bccd2      584f           addq.w 0x4, a7
           0x006bccd4      4cdf0100       movem.l (a7)+, a0
           0x006bccd8      4e5e           unlk a6
           0x006bccda      4e75           rts
 106: USER2_DISK.init_user_env ();
           0x006bccdc      4e56ffde       link.w a6, 0xffde
           0x006bcce0      bfd5           cmpa.l (a5), a7
       < 0x006bcce2      6206           bhi.b 0x6bccea
          0x006bcce4      44fc0002       move.w 0x2, ccr
          0x006bcce8      4e76           trapv
       > 0x006bccea      defc001c       adda.w 0x1c, a7
           0x006bccee      48e7c1c8       movem.l d0-d1/d7/a0-a1/a4, -(a7)
           0x006bccf2      286e0008       movea.l 0x8(a6), a4
           0x006bccf6      b9ecfffc       cmpa.l -0x4(a4), a4
       < 0x006bccfa      6702           beq.b 0x6bccfe
          0x006bccfc      4e4d           trap 0xd
       > 0x006bccfe      204c           movea.l a4, a0
           0x006bcd00      43fad87c       lea.l 0x6ba57e(pc), a1
           0x006bcd04      7006           moveq 0x6, d0
       > 0x006bcd06      10d9           move.b (a1)+, (a0)+
       < 0x006bcd08      51c8fffc       dbra d0, 0x6bcd06
           0x006bcd0c      7e00           moveq 0x0, d7
       > 0x006bcd0e      4887           ext.w d7
          0x006bcd10      48c7           ext.l d7
          0x006bcd12      204c           movea.l a4, a0
          0x006bcd14      2007           move.l d7, d0
          0x006bcd16      e698           ror.l 0x3, d0
          0x006bcd18      d0c0           adda.w d0, a0
          0x006bcd1a      4840           swap d0
          0x006bcd1c      e758           rol.w 0x3, d0
          0x006bcd1e      323cff7f       move.w 0xff7f, d1
          0x006bcd22      e079           ror.w d0, d1
          0x006bcd24      c3280015       and.b d1, 0x15(a0)
          0x006bcd28      4887           ext.w d7
          0x006bcd2a      3007           move.w d7, d0
          0x006bcd2c      e540           asl.w 0x2, d0
          0x006bcd2e      29bc00000001.  move.l 0x1, 0x16(a4, d0.w)
          0x006bcd36      5207           addq.b 0x1, d7
          0x006bcd38      0c070004       cmpi.b 0x4, d7
       < 0x006bcd3c      6fd0           ble.b 0x6bcd0e
           0x006bcd3e      4cdf1383       movem.l (a7)+, d0-d1/d7/a0-a1/a4
           0x006bcd42      4e5e           unlk a6
           0x006bcd44      4e75           rts
            ; CALL XREF from USER.cur_user_name @ 0x6b7500
            ; CALL XREF from USER2_DISK.set_username @ 0x6bd0d4
            ; CALL XREF from PANEL_CMDS.env_command @ 0x788da0
            ; CALL XREF from PANEL_CMDS.validate_comman @ 0x789a0a
 30: USER2_DISK.get_user_env_pt ();
           0x006bcd46      4e56fff4       link.w a6, 0xfff4
           0x006bcd4a      bfd5           cmpa.l (a5), a7
       < 0x006bcd4c      6206           bhi.b 0x6bcd54
          0x006bcd4e      44fc0002       move.w 0x2, ccr
          0x006bcd52      4e76           trapv
       > 0x006bcd54      defc0004       adda.w 0x4, a7
           0x006bcd58      2d7900856246.  move.l 0x856246, 0x8(a6)
           0x006bcd60      4e5e           unlk a6
           0x006bcd62      4e75           rts
            ; XREFS: CALL 0x006bcf54  CALL 0x006bd002  CALL 0x006c00da  
            ; XREFS: CALL 0x006c0378  CALL 0x006c0c76  CALL 0x00788ea6  
 166: USER2_DISK.new_user_table_ ();
           0x006bcd64      4e56ffcc       link.w a6, 0xffcc
           0x006bcd68      bfd5           cmpa.l (a5), a7
       < 0x006bcd6a      6206           bhi.b 0x6bcd72
          0x006bcd6c      44fc0002       move.w 0x2, ccr
          0x006bcd70      4e76           trapv
       > 0x006bcd72      defc0030       adda.w 0x30, a7
           0x006bcd76      48e7c0f8       movem.l d0-d1/a0-a4, -(a7)
           0x006bcd7a      47eefffc       lea.l -0x4(a6), a3
           0x006bcd7e      49fad7b8       lea.l 0x6ba538(pc), a4
           0x006bcd82      7201           moveq 0x1, d1
           0x006bcd84      4853           pea.l (a3)
           0x006bcd86      4878002a       pea.l 0x2a
           0x006bcd8a      4eb900403a92   jsr p_New
           0x006bcd90      504f           addq.w 0x8, a7
           0x006bcd92      2053           movea.l (a3), a0
           0x006bcd94      b0c1           cmpa.w d1, a0
       < 0x006bcd96      661a           bne.b 0x6bcdb2
          0x006bcd98      487ad8bc       pea.l 0x6ba656(pc)
          0x006bcd9c      48780027       pea.l 0x27
          0x006bcda0      2f17           move.l (a7), -(a7)
          0x006bcda2      4eb9004047ea   jsr p_wts_o
          0x006bcda8      defc000c       adda.w 0xc, a7
          0x006bcdac      4eb900404946   jsr p_wtln_o
       > 0x006bcdb2      4227           clr.b -(a7)
           0x006bcdb4      b0c1           cmpa.w d1, a0
       < 0x006bcdb6      6702           beq.b 0x6bcdba
          0x006bcdb8      5217           addq.b 0x1, (a7)
       > 0x006bcdba      4eb90040452a   jsr p_Assert
           0x006bcdc0      544f           addq.w 0x2, a7
           0x006bcdc2      b1e8fffc       cmpa.l -0x4(a0), a0
       < 0x006bcdc6      6702           beq.b 0x6bcdca
          0x006bcdc8      4e4d           trap 0xd
       > 0x006bcdca      2248           movea.l a0, a1
           0x006bcdcc      244c           movea.l a4, a2
           0x006bcdce      7009           moveq 0x9, d0
       > 0x006bcdd0      12da           move.b (a2)+, (a1)+
       < 0x006bcdd2      51c8fffc       dbra d0, 0x6bcdd0
           0x006bcdd6      43e8000a       lea.l 0xa(a0), a1
           0x006bcdda      244c           movea.l a4, a2
           0x006bcddc      7009           moveq 0x9, d0
       > 0x006bcdde      12da           move.b (a2)+, (a1)+
       < 0x006bcde0      51c8fffc       dbra d0, 0x6bcdde
           0x006bcde4      43e80014       lea.l 0x14(a0), a1
           0x006bcde8      244c           movea.l a4, a2
           0x006bcdea      7009           moveq 0x9, d0
       > 0x006bcdec      12da           move.b (a2)+, (a1)+
       < 0x006bcdee      51c8fffc       dbra d0, 0x6bcdec
           0x006bcdf2      2141001e       move.l d1, 0x1e(a0)
           0x006bcdf6      42a80022       clr.l 0x22(a0)
           0x006bcdfa      21410026       move.l d1, 0x26(a0)
           0x006bcdfe      2d530008       move.l (a3), 0x8(a6)
           0x006bce02      4cdf1f03       movem.l (a7)+, d0-d1/a0-a4
           0x006bce06      4e5e           unlk a6
           0x006bce08      4e75           rts
            ; CALL XREF from USER2_DISK.get_station_ptr @ 0x6bceac
            ; CALL XREF from USER2_DISK.table_fid @ 0x6c0e54
            ; CALL XREF from USER2_DISK.cur_user_fid @ 0x6c47e8
 112: USER2_DISK.user_station_re ();
           0x006bce0a      4e56ffd2       link.w a6, 0xffd2
           0x006bce0e      bfd5           cmpa.l (a5), a7
       < 0x006bce10      6206           bhi.b 0x6bce18
          0x006bce12      44fc0002       move.w 0x2, ccr
          0x006bce16      4e76           trapv
       > 0x006bce18      defc0024       adda.w 0x24, a7
           0x006bce1c      48e7e118       movem.l d0-d2/d7/a3-a4, -(a7)
           0x006bce20      7401           moveq 0x1, d2
           0x006bce22      267900856246   movea.l 0x856246, a3
           0x006bce28      b6c2           cmpa.w d2, a3
       < 0x006bce2a      6606           bne.b 0x6bce32
          0x006bce2c      2d420010       move.l d2, 0x10(a6)
      < 0x006bce30      6040           bra.b 0x6bce72
      > 0x006bce32      b7ebfffc       cmpa.l -0x4(a3), a3
      < 0x006bce36      6702           beq.b 0x6bce3a
         0x006bce38      4e4d           trap 0xd
      > 0x006bce3a      286b001e       movea.l 0x1e(a3), a4
          0x006bce3e      7e00           moveq 0x0, d7
          0x006bce40      202e000c       move.l 0xc(a6), d0
          0x006bce44      e180           asl.l 0x8, d0
          0x006bce46      d0ae0008       add.l 0x8(a6), d0
      > 0x006bce4a      4a07           tst.b d7
     < 0x006bce4c      6620           bne.b 0x6bce6e
        0x006bce4e      b8c2           cmpa.w d2, a4
    < 0x006bce50      671c           beq.b 0x6bce6e
       0x006bce52      7200           moveq 0x0, d1
       0x006bce54      b9ecfffc       cmpa.l -0x4(a4), a4
   < 0x006bce58      6702           beq.b 0x6bce5c
      0x006bce5a      4e4d           trap 0xd
   > 0x006bce5c      b0ac0022       cmp.l 0x22(a4), d0
   < 0x006bce60      6602           bne.b 0x6bce64
      0x006bce62      5201           addq.b 0x1, d1
   > 0x006bce64      1e01           move.b d1, d7
   < 0x006bce66      6604           bne.b 0x6bce6c
      0x006bce68      286c0026       movea.l 0x26(a4), a4
   < 0x006bce6c      60dc           bra.b 0x6bce4a
    > 0x006bce6e      2d4c0010       move.l a4, 0x10(a6)
      > 0x006bce72      4cdf1887       movem.l (a7)+, d0-d2/d7/a3-a4
           0x006bce76      4e5e           unlk a6
           0x006bce78      4e75           rts
            ; CALL XREFS from USER2_DISK.set_fixed_user @ 0x6bfe06, 0x6c01b8
            ; CALL XREF from USER2_DISK.get_exch_fids @ 0x6c0730
            ; CALL XREF from PANEL_CMDS.env_command @ 0x788f9a
 576: USER2_DISK.get_station_ptr ();
           0x006bce7a      4e56ffc2       link.w a6, 0xffc2
           0x006bce7e      bfd5           cmpa.l (a5), a7
       < 0x006bce80      6206           bhi.b 0x6bce88
          0x006bce82      44fc0002       move.w 0x2, ccr
          0x006bce86      4e76           trapv
       > 0x006bce88      defc0034       adda.w 0x34, a7
           0x006bce8c      48e7f0f8       movem.l d0-d3/a0-a4, -(a7)
           0x006bce90      45f9004047ea   lea.l p_wts_o, a2
           0x006bce96      7201           moveq 0x1, d1
           0x006bce98      740c           moveq 0xc, d2
           0x006bce9a      762d           moveq 0x2d, d3
           0x006bce9c      267900856246   movea.l 0x856246, a3
           0x006bcea2      594f           subq.w 0x4, a7
           0x006bcea4      2f2e000c       move.l 0xc(a6), -(a7)
           0x006bcea8      2f2e0008       move.l 0x8(a6), -(a7)
           0x006bceac      4ebaff5c       jsr USER2_DISK.user_station_re(pc)
           0x006bceb0      504f           addq.w 0x8, a7
           0x006bceb2      285f           movea.l (a7)+, a4
           0x006bceb4      b6c1           cmpa.w d1, a3
       < 0x006bceb6      6608           bne.b 0x6bcec0
          0x006bceb8      2d410010       move.l d1, 0x10(a6)
      < 0x006bcebc      600001f4       bra.w 0x6bd0b2
      > 0x006bcec0      b8c1           cmpa.w d1, a4
      < 0x006bcec2      6600019c       bne.w 0x6bd060
         0x006bcec6      554f           subq.w 0x2, a7
         0x006bcec8      4eb9006ba3c2   jsr USER1_UTILS.udebug_on
         0x006bcece      4a1f           tst.b (a7)+
     < 0x006bced0      6750           beq.b 0x6bcf22
        0x006bced2      487ad7aa       pea.l 0x6ba67e(pc)
        0x006bced6      4878001f       pea.l 0x1f
        0x006bceda      2f17           move.l (a7), -(a7)
        0x006bcedc      4e92           jsr (a2)                    ; fcn.00000009+0x2
        0x006bcede      504f           addq.w 0x8, a7
        0x006bcee0      2eae000c       move.l 0xc(a6), (a7)
        0x006bcee4      48780000       pea.l 0x0
        0x006bcee8      4eb9004070e4   jsr p_wti_o
        0x006bceee      5c4f           addq.w 0x6, a7
        0x006bcef0      1e83           move.b d3, (a7)
        0x006bcef2      48780001       pea.l 0x1
        0x006bcef6      4eb9004048b4   jsr p_wtc_o
        0x006bcefc      544f           addq.w 0x2, a7
        0x006bcefe      2eae0008       move.l 0x8(a6), (a7)
        0x006bcf02      48780000       pea.l 0x0
        0x006bcf06      4eb9004070e4   jsr p_wti_o
        0x006bcf0c      504f           addq.w 0x8, a7
        0x006bcf0e      487ad78e       pea.l 0x6ba69e(pc)
        0x006bcf12      48780006       pea.l 0x6
        0x006bcf16      2f17           move.l (a7), -(a7)
        0x006bcf18      4e92           jsr (a2)                    ; fcn.00000009+0x2
        0x006bcf1a      dec2           adda.w d2, a7
        0x006bcf1c      4eb900404946   jsr p_wtln_o
     > 0x006bcf22      b7ebfffc       cmpa.l -0x4(a3), a3
     < 0x006bcf26      6702           beq.b 0x6bcf2a
        0x006bcf28      4e4d           trap 0xd
     > 0x006bcf2a      286b001e       movea.l 0x1e(a3), a4
         0x006bcf2e      b8c1           cmpa.w d1, a4
     < 0x006bcf30      664c           bne.b 0x6bcf7e
        0x006bcf32      554f           subq.w 0x2, a7
        0x006bcf34      4eb9006ba3c2   jsr USER1_UTILS.udebug_on
        0x006bcf3a      4a1f           tst.b (a7)+
    < 0x006bcf3c      6714           beq.b 0x6bcf52
       0x006bcf3e      487ad765       pea.l 0x6ba6a5(pc)
       0x006bcf42      48780011       pea.l 0x11
       0x006bcf46      2f17           move.l (a7), -(a7)
       0x006bcf48      4e92           jsr (a2)                    ; fcn.00000009+0x2
       0x006bcf4a      dec2           adda.w d2, a7
       0x006bcf4c      4eb900404946   jsr p_wtln_o
    > 0x006bcf52      594f           subq.w 0x4, a7
        0x006bcf54      4ebafe0e       jsr USER2_DISK.new_user_table_(pc)
        0x006bcf58      275f001e       move.l (a7)+, 0x1e(a3)
        0x006bcf5c      206b001e       movea.l 0x1e(a3), a0
        0x006bcf60      b1e8fffc       cmpa.l -0x4(a0), a0
    < 0x006bcf64      6702           beq.b 0x6bcf68
       0x006bcf66      4e4d           trap 0xd
    > 0x006bcf68      202e000c       move.l 0xc(a6), d0
        0x006bcf6c      e180           asl.l 0x8, d0
        0x006bcf6e      d0ae0008       add.l 0x8(a6), d0
        0x006bcf72      21400022       move.l d0, 0x22(a0)
        0x006bcf76      286b001e       movea.l 0x1e(a3), a4
    < 0x006bcf7a      600000ac       bra.w 0x6bd028
    > 0x006bcf7e      554f           subq.w 0x2, a7
        0x006bcf80      4eb9006ba3c2   jsr USER1_UTILS.udebug_on
        0x006bcf86      4a1f           tst.b (a7)+
    < 0x006bcf88      6714           beq.b 0x6bcf9e
       0x006bcf8a      487ad72b       pea.l 0x6ba6b7(pc)
       0x006bcf8e      48780015       pea.l 0x15
       0x006bcf92      2f17           move.l (a7), -(a7)
       0x006bcf94      4e92           jsr (a2)                    ; fcn.00000009+0x2
       0x006bcf96      dec2           adda.w d2, a7
       0x006bcf98      4eb900404946   jsr p_wtln_o
   > 0x006bcf9e      b9ecfffc       cmpa.l -0x4(a4), a4
   < 0x006bcfa2      6702           beq.b 0x6bcfa6
      0x006bcfa4      4e4d           trap 0xd
   > 0x006bcfa6      206c0026       movea.l 0x26(a4), a0
       0x006bcfaa      b0c1           cmpa.w d1, a0
   < 0x006bcfac      6704           beq.b 0x6bcfb2
      0x006bcfae      2848           movea.l a0, a4
   < 0x006bcfb0      60ec           bra.b 0x6bcf9e
    > 0x006bcfb2      554f           subq.w 0x2, a7
        0x006bcfb4      4eb9006ba3c2   jsr USER1_UTILS.udebug_on
        0x006bcfba      4a1f           tst.b (a7)+
    < 0x006bcfbc      6724           beq.b 0x6bcfe2
       0x006bcfbe      487ad70d       pea.l 0x6ba6cd(pc)
       0x006bcfc2      48780015       pea.l 0x15
       0x006bcfc6      2f17           move.l (a7), -(a7)
       0x006bcfc8      4e92           jsr (a2)                    ; fcn.00000009+0x2
       0x006bcfca      504f           addq.w 0x8, a7
       0x006bcfcc      2eac0022       move.l 0x22(a4), (a7)
       0x006bcfd0      48780000       pea.l 0x0
       0x006bcfd4      4eb9004070e4   jsr p_wti_o
       0x006bcfda      504f           addq.w 0x8, a7
       0x006bcfdc      4eb900404946   jsr p_wtln_o
    > 0x006bcfe2      b9ecfffc       cmpa.l -0x4(a4), a4
    < 0x006bcfe6      6702           beq.b 0x6bcfea
       0x006bcfe8      4e4d           trap 0xd
    > 0x006bcfea      4227           clr.b -(a7)
        0x006bcfec      b8c1           cmpa.w d1, a4
    < 0x006bcfee      670a           beq.b 0x6bcffa
       0x006bcff0      206c0026       movea.l 0x26(a4), a0
       0x006bcff4      b0c1           cmpa.w d1, a0
   < 0x006bcff6      6602           bne.b 0x6bcffa
      0x006bcff8      5217           addq.b 0x1, (a7)
   > 0x006bcffa      4eb90040452a   jsr p_Assert
        0x006bd000      554f           subq.w 0x2, a7
        0x006bd002      4ebafd60       jsr USER2_DISK.new_user_table_(pc)
        0x006bd006      295f0026       move.l (a7)+, 0x26(a4)
        0x006bd00a      206c0026       movea.l 0x26(a4), a0
        0x006bd00e      b1e8fffc       cmpa.l -0x4(a0), a0
    < 0x006bd012      6702           beq.b 0x6bd016
       0x006bd014      4e4d           trap 0xd
    > 0x006bd016      202e000c       move.l 0xc(a6), d0
        0x006bd01a      e180           asl.l 0x8, d0
        0x006bd01c      d0ae0008       add.l 0x8(a6), d0
        0x006bd020      21400022       move.l d0, 0x22(a0)
        0x006bd024      286c0026       movea.l 0x26(a4), a4
    > 0x006bd028      b9ecfffc       cmpa.l -0x4(a4), a4
     < 0x006bd02c      6702           beq.b 0x6bd030
        0x006bd02e      4e4d           trap 0xd
     > 0x006bd030      204c           movea.l a4, a0
         0x006bd032      43fad504       lea.l 0x6ba538(pc), a1
         0x006bd036      7009           moveq 0x9, d0
     > 0x006bd038      10d9           move.b (a1)+, (a0)+
     < 0x006bd03a      51c8fffc       dbra d0, 0x6bd038
         0x006bd03e      41ec000a       lea.l 0xa(a4), a0
         0x006bd042      43fad4f4       lea.l 0x6ba538(pc), a1
         0x006bd046      7009           moveq 0x9, d0
     > 0x006bd048      10d9           move.b (a1)+, (a0)+
     < 0x006bd04a      51c8fffc       dbra d0, 0x6bd048
         0x006bd04e      41ec0014       lea.l 0x14(a4), a0
         0x006bd052      43fad4e4       lea.l 0x6ba538(pc), a1
         0x006bd056      7009           moveq 0x9, d0
     > 0x006bd058      10d9           move.b (a1)+, (a0)+
     < 0x006bd05a      51c8fffc       dbra d0, 0x6bd058
     < 0x006bd05e      604e           bra.b 0x6bd0ae
     > 0x006bd060      554f           subq.w 0x2, a7
         0x006bd062      4eb9006ba3c2   jsr USER1_UTILS.udebug_on
         0x006bd068      4a1f           tst.b (a7)+
     < 0x006bd06a      6742           beq.b 0x6bd0ae
        0x006bd06c      487ad675       pea.l 0x6ba6e3(pc)
        0x006bd070      48780022       pea.l 0x22
        0x006bd074      2f17           move.l (a7), -(a7)
        0x006bd076      4e92           jsr (a2)                    ; fcn.00000009+0x2
        0x006bd078      504f           addq.w 0x8, a7
        0x006bd07a      2eae000c       move.l 0xc(a6), (a7)
        0x006bd07e      48780000       pea.l 0x0
        0x006bd082      4eb9004070e4   jsr p_wti_o
        0x006bd088      5c4f           addq.w 0x6, a7
        0x006bd08a      1e83           move.b d3, (a7)
        0x006bd08c      48780001       pea.l 0x1
        0x006bd090      4eb9004048b4   jsr p_wtc_o
        0x006bd096      544f           addq.w 0x2, a7
        0x006bd098      2eae0008       move.l 0x8(a6), (a7)
        0x006bd09c      48780000       pea.l 0x0
        0x006bd0a0      4eb9004070e4   jsr p_wti_o
        0x006bd0a6      504f           addq.w 0x8, a7
        0x006bd0a8      4eb900404946   jsr p_wtln_o
     > 0x006bd0ae      2d4c0010       move.l a4, 0x10(a6)
      > 0x006bd0b2      4cdf1f0f       movem.l (a7)+, d0-d3/a0-a4
           0x006bd0b6      4e5e           unlk a6
           0x006bd0b8      4e75           rts
            ; CALL XREF from USER2_DISK.ntab_restore @ 0x6c2bc0
 88: USER2_DISK.set_username ();
           ; var int32_t var_8h @ a7+0x8
           0x006bd0ba      4e56ffe8       link.w a6, 0xffe8
           0x006bd0be      bfd5           cmpa.l (a5), a7
       < 0x006bd0c0      6206           bhi.b 0x6bd0c8
          0x006bd0c2      44fc0002       move.w 0x2, ccr
          0x006bd0c6      4e76           trapv
       > 0x006bd0c8      defc0014       adda.w 0x14, a7
           0x006bd0cc      48e78000       movem.l d0, -(a7)
           0x006bd0d0      700c           moveq 0xc, d0
           0x006bd0d2      594f           subq.w 0x4, a7
           0x006bd0d4      4ebafc70       jsr USER2_DISK.get_user_env_pt(pc)
           0x006bd0d8      2d5ffffc       move.l (a7)+, -0x4(a6)
           0x006bd0dc      487ad628       pea.l 0x6ba706(pc)
           0x006bd0e0      4878001d       pea.l 0x1d
           0x006bd0e4      2f17           move.l (a7), -(a7)
           0x006bd0e6      4eb9004047ea   jsr p_wts_o
           0x006bd0ec      dec0           adda.w d0, a7
           0x006bd0ee      486e0009       pea.l 0x9(a6)
           0x006bd0f2      42a7           clr.l -(a7)
           0x006bd0f4      1f6e00080003   move.b 0x8(a6), 0x3(a7)
           0x006bd0fa      2f17           move.l (a7), -(a7)
           0x006bd0fc      4eb9004047ea   jsr p_wts_o
           0x006bd102      dec0           adda.w d0, a7
           0x006bd104      4eb900404946   jsr p_wtln_o
           0x006bd10a      4cdf0001       movem.l (a7)+, d0
           0x006bd10e      4e5e           unlk a6
           0x006bd110      4e75           rts
 54: USER2_DISK.get_grab_fid ();
           0x006bd112      4e56fffc       link.w a6, 0xfffc
           0x006bd116      bfd5           cmpa.l (a5), a7
       < 0x006bd118      6206           bhi.b 0x6bd120
          0x006bd11a      44fc0002       move.w 0x2, ccr
          0x006bd11e      4e76           trapv
       > 0x006bd120      defc0004       adda.w 0x4, a7
           0x006bd124      4ebaf722       jsr USER2_DISK.close_gate(pc)
           0x006bd128      2d790085519a.  move.l 0x85519a, 0x8(a6)
           0x006bd130      2d790085519e.  move.l 0x85519e, 0xc(a6)
           0x006bd138      3d79008551a2.  move.w 0x8551a2, 0x10(a6)
           0x006bd140      4ebaf798       jsr USER2_DISK.open_gate(pc)
           0x006bd144      4e5e           unlk a6
           0x006bd146      4e75           rts
            ; CALL XREF from USER2_DISK.drive_removeabl @ 0x6bd772
            ; CALL XREF from USER2_DISK.drive_scope @ 0x6bd8dc
            ; CALL XREF from USER2_DISK.nums_on_drive @ 0x6bda7c
 90: USER2_DISK.drive_status ();
           0x006bd148      4e56ffe4       link.w a6, 0xffe4
           0x006bd14c      bfd5           cmpa.l (a5), a7
       < 0x006bd14e      6206           bhi.b 0x6bd156
          0x006bd150      44fc0002       move.w 0x2, ccr
          0x006bd154      4e76           trapv
       > 0x006bd156      defc001a       adda.w 0x1a, a7
           0x006bd15a      48e78080       movem.l d0/a0, -(a7)
           0x006bd15e      41ee0008       lea.l 0x8(a6), a0
           0x006bd162      700a           moveq 0xa, d0
           0x006bd164      554f           subq.w 0x2, a7
           0x006bd166      2f10           move.l (a0), -(a7)
           0x006bd168      4eb90066e8fe   jsr N10_UTILS.n_stn_id
           0x006bd16e      584f           addq.w 0x4, a7
           0x006bd170      3d5ffffe       move.w (a7)+, -0x2(a6)
       < 0x006bd174      660c           bne.b 0x6bd182
          0x006bd176      9ec0           suba.w d0, a7
          0x006bd178      2f10           move.l (a0), -(a7)
          0x006bd17a      4eb9005f8748   jsr F6_DRIVE.f_drv_status
      < 0x006bd180      600a           bra.b 0x6bd18c
      > 0x006bd182      9ec0           suba.w d0, a7
          0x006bd184      2f10           move.l (a0), -(a7)
          0x006bd186      4eb90066d596   jsr N5_PICTURENET.n5_drv_status
      > 0x006bd18c      584f           addq.w 0x4, a7
           0x006bd18e      2d5f000c       move.l (a7)+, 0xc(a6)
           0x006bd192      2d5f0010       move.l (a7)+, 0x10(a6)
           0x006bd196      3d5f0014       move.w (a7)+, 0x14(a6)
           0x006bd19a      4cdf0101       movem.l (a7)+, d0/a0
           0x006bd19e      4e5e           unlk a6
           0x006bd1a0      4e75           rts
            ; CALL XREF from USER2_DISK.volume_protecte @ 0x6bd210
            ; CALL XREF from USER2_DISK.volume_suitable @ 0x6bd2d0
            ; CALL XREF from USER2_DISK.volume_removeab @ 0x6bd700
            ; CALL XREF from USER2_DISK.volume_scope @ 0x6bd7c2
            ; CALL XREF from USER2_DISK.numbers_on_vol @ 0x6bda12
 82: USER2_DISK.physical_volume ();
           0x006bd1a2      4e56fff4       link.w a6, 0xfff4
           0x006bd1a6      bfd5           cmpa.l (a5), a7
       < 0x006bd1a8      6206           bhi.b 0x6bd1b0
          0x006bd1aa      44fc0002       move.w 0x2, ccr
          0x006bd1ae      4e76           trapv
       > 0x006bd1b0      defc000c       adda.w 0xc, a7
           0x006bd1b4      48e78000       movem.l d0, -(a7)
           0x006bd1b8      4aae0008       tst.l 0x8(a6)
       < 0x006bd1bc      6606           bne.b 0x6bd1c4
    > 0x006bd1be      422e000c       clr.b 0xc(a6)
   < 0x006bd1c2      6028           bra.b 0x6bd1ec
   > 0x006bd1c4      202e0008       move.l 0x8(a6), d0
       0x006bd1c8      0c80fffffffd   cmpi.l 0xfffffffd, d0
   < 0x006bd1ce      6602           bne.b 0x6bd1d2
   < 0x006bd1d0      60ec           bra.b 0x6bd1be
    > 0x006bd1d2      0c80ffffffff   cmpi.l 0xffffffff, d0
    < 0x006bd1d8      6602           bne.b 0x6bd1dc
    < 0x006bd1da      60e2           bra.b 0x6bd1be
     > 0x006bd1dc      0c80fffffffe   cmpi.l 0xfffffffe, d0
     < 0x006bd1e2      6602           bne.b 0x6bd1e6
     < 0x006bd1e4      60d8           bra.b 0x6bd1be
      > 0x006bd1e6      1d7c0001000c   move.b 0x1, 0xc(a6)
   > 0x006bd1ec      4cdf0001       movem.l (a7)+, d0
           0x006bd1f0      4e5e           unlk a6
           0x006bd1f2      4e75           rts
            ; CALL XREF from USER2_DISK.ntab_restore @ 0x6c2ad4
 98: USER2_DISK.volume_protecte ();
           0x006bd1f4      4e56ffdc       link.w a6, 0xffdc
           0x006bd1f8      bfd5           cmpa.l (a5), a7
       < 0x006bd1fa      6206           bhi.b 0x6bd202
          0x006bd1fc      44fc0002       move.w 0x2, ccr
          0x006bd200      4e76           trapv
       > 0x006bd202      defc0018       adda.w 0x18, a7
           0x006bd206      48e78000       movem.l d0, -(a7)
           0x006bd20a      554f           subq.w 0x2, a7
           0x006bd20c      2f2e0008       move.l 0x8(a6), -(a7)
           0x006bd210      4ebaff90       jsr USER2_DISK.physical_volume(pc)
           0x006bd214      584f           addq.w 0x4, a7
           0x006bd216      4a1f           tst.b (a7)+
       < 0x006bd218      6606           bne.b 0x6bd220
          0x006bd21a      422e000c       clr.b 0xc(a6)
      < 0x006bd21e      602e           bra.b 0x6bd24e
      > 0x006bd220      9efc000c       suba.w 0xc, a7
          0x006bd224      2f2e0008       move.l 0x8(a6), -(a7)
          0x006bd228      4eb9005fb748   jsr F6_VOLUME.f_vol_status
          0x006bd22e      584f           addq.w 0x4, a7
          0x006bd230      2d5ffff4       move.l (a7)+, -0xc(a6)
          0x006bd234      2d5ffff8       move.l (a7)+, -0x8(a6)
          0x006bd238      2d5ffffc       move.l (a7)+, -0x4(a6)
          0x006bd23c      102efff5       move.b -0xb(a6), d0
          0x006bd240      4400           neg.b d0
          0x006bd242      5200           addq.b 0x1, d0
          0x006bd244      4880           ext.w d0
          0x006bd246      41bc0001       chk.w 0x1, d0
          0x006bd24a      1d40000c       move.b d0, 0xc(a6)
      > 0x006bd24e      4cdf0001       movem.l (a7)+, d0
           0x006bd252      4e5e           unlk a6
           0x006bd254      4e75           rts
            ; XREFS: CALL 0x006b24e4  CALL 0x006b418e  CALL 0x006b70d8  
            ; XREFS: CALL 0x006be968  CALL 0x006c2d50  CALL 0x006c3c88  
            ; XREFS: CALL 0x006c3de2  CALL 0x006c3e64  CALL 0x006c3eee  
            ; XREFS: CALL 0x006c4036  CALL 0x006c40ae  CALL 0x006c4210  
            ; XREFS: CALL 0x006c42aa  CALL 0x006c4426  CALL 0x006c5228  
 1162: USER2_DISK.volume_suitable ();
           ; var int32_t var_10h @ a6-0x10
           0x006bd256      4e56ffa2       link.w a6, 0xffa2
           0x006bd25a      bfd5           cmpa.l (a5), a7
       < 0x006bd25c      6206           bhi.b 0x6bd264
          0x006bd25e      44fc0002       move.w 0x2, ccr
          0x006bd262      4e76           trapv
       > 0x006bd264      defc004a       adda.w 0x4a, a7
           0x006bd268      48e7fff8       movem.l d0-d7/a0-a4, -(a7)
           0x006bd26c      41eefff4       lea.l -0xc(a6), a0
           0x006bd270      43f9004047ea   lea.l p_wts_o, a1
           0x006bd276      45ee0008       lea.l 0x8(a6), a2
           0x006bd27a      47f9006ba3c2   lea.l USER1_UTILS.udebug_on, a3
           0x006bd280      49f900404946   lea.l p_wtln_o, a4
           0x006bd286      7a0c           moveq 0xc, d5
           0x006bd288      7c01           moveq 0x1, d6
           0x006bd28a      554f           subq.w 0x2, a7
           0x006bd28c      1f12           move.b (a2), -(a7)
           0x006bd28e      4eb9006ba282   jsr USER1_UTILS.scope_ok
           0x006bd294      544f           addq.w 0x2, a7
           0x006bd296      101f           move.b (a7)+, d0
           0x006bd298      4880           ext.w d0
           0x006bd29a      4186           chk.w d6, d0
           0x006bd29c      1e00           move.b d0, d7
           0x006bd29e      554f           subq.w 0x2, a7
           0x006bd2a0      4e93           jsr (a3)                    ; fcn.0000000c
           0x006bd2a2      4a1f           tst.b (a7)+
       < 0x006bd2a4      6720           beq.b 0x6bd2c6
          0x006bd2a6      487ad47c       pea.l 0x6ba724(pc)
          0x006bd2aa      48780013       pea.l 0x13
          0x006bd2ae      2f17           move.l (a7), -(a7)
          0x006bd2b0      4e91           jsr (a1)                    ; fcn.0000000a
          0x006bd2b2      defc000a       adda.w 0xa, a7
          0x006bd2b6      1e87           move.b d7, (a7)
          0x006bd2b8      48780005       pea.l 0x5
          0x006bd2bc      4eb90040718c   jsr p_wtb_o
          0x006bd2c2      5c4f           addq.w 0x6, a7
          0x006bd2c4      4e94           jsr (a4)                    ; fcn.0000000d
       > 0x006bd2c6      4a07           tst.b d7
       < 0x006bd2c8      6714           beq.b 0x6bd2de
          0x006bd2ca      554f           subq.w 0x2, a7
          0x006bd2cc      2f2e000c       move.l 0xc(a6), -(a7)
          0x006bd2d0      4ebafed0       jsr USER2_DISK.physical_volume(pc)
          0x006bd2d4      584f           addq.w 0x4, a7
          0x006bd2d6      101f           move.b (a7)+, d0
          0x006bd2d8      4880           ext.w d0
          0x006bd2da      4186           chk.w d6, d0
          0x006bd2dc      1e00           move.b d0, d7
       > 0x006bd2de      554f           subq.w 0x2, a7
           0x006bd2e0      4e93           jsr (a3)                    ; fcn.0000000c
           0x006bd2e2      4a1f           tst.b (a7)+
       < 0x006bd2e4      6720           beq.b 0x6bd306
          0x006bd2e6      487ad450       pea.l 0x6ba738(pc)
          0x006bd2ea      48780016       pea.l 0x16
          0x006bd2ee      2f17           move.l (a7), -(a7)
          0x006bd2f0      4e91           jsr (a1)                    ; fcn.0000000a
          0x006bd2f2      defc000a       adda.w 0xa, a7
          0x006bd2f6      1e87           move.b d7, (a7)
          0x006bd2f8      48780005       pea.l 0x5
          0x006bd2fc      4eb90040718c   jsr p_wtb_o
          0x006bd302      5c4f           addq.w 0x6, a7
          0x006bd304      4e94           jsr (a4)                    ; fcn.0000000d
       > 0x006bd306      4a07           tst.b d7
       < 0x006bd308      6718           beq.b 0x6bd322
          0x006bd30a      9ec5           suba.w d5, a7
          0x006bd30c      2f2e000c       move.l 0xc(a6), -(a7)
          0x006bd310      4eb9005fb748   jsr F6_VOLUME.f_vol_status
          0x006bd316      584f           addq.w 0x4, a7
          0x006bd318      2d5fffec       move.l (a7)+, -0x14(a6)
          0x006bd31c      2d5ffff0       move.l (a7)+, -0x10(a6)
          0x006bd320      209f           move.l (a7)+, (a0)
       > 0x006bd322      4a07           tst.b d7
       < 0x006bd324      6714           beq.b 0x6bd33a
          0x006bd326      7e00           moveq 0x0, d7
          0x006bd328      4a2effec       tst.b -0x14(a6)
      < 0x006bd32c      670c           beq.b 0x6bd33a
         0x006bd32e      2010           move.l (a0), d0
         0x006bd330      028000000004   andi.l 0x4, d0
     < 0x006bd336      6602           bne.b 0x6bd33a
        0x006bd338      5207           addq.b 0x1, d7
     > 0x006bd33a      554f           subq.w 0x2, a7
           0x006bd33c      4e93           jsr (a3)                    ; fcn.0000000c
           0x006bd33e      4a1f           tst.b (a7)+
       < 0x006bd340      6720           beq.b 0x6bd362
          0x006bd342      487ad40b       pea.l 0x6ba74f(pc)
          0x006bd346      4878000b       pea.l 0xb
          0x006bd34a      2f17           move.l (a7), -(a7)
          0x006bd34c      4e91           jsr (a1)                    ; fcn.0000000a
          0x006bd34e      defc000a       adda.w 0xa, a7
          0x006bd352      1e87           move.b d7, (a7)
          0x006bd354      48780005       pea.l 0x5
          0x006bd358      4eb90040718c   jsr p_wtb_o
          0x006bd35e      5c4f           addq.w 0x6, a7
          0x006bd360      4e94           jsr (a4)                    ; fcn.0000000d
       > 0x006bd362      4a07           tst.b d7
       < 0x006bd364      6714           beq.b 0x6bd37a
          0x006bd366      1012           move.b (a2), d0
          0x006bd368      4880           ext.w d0
          0x006bd36a      013ad3ee       btst.l d0, 0x6ba75a(pc)
      < 0x006bd36e      670a           beq.b 0x6bd37a
         0x006bd370      102effef       move.b -0x11(a6), d0
         0x006bd374      4400           neg.b d0
         0x006bd376      5200           addq.b 0x1, d0
         0x006bd378      ce00           and.b d0, d7
      > 0x006bd37a      554f           subq.w 0x2, a7
           0x006bd37c      4e93           jsr (a3)                    ; fcn.0000000c
           0x006bd37e      4a1f           tst.b (a7)+
       < 0x006bd380      6720           beq.b 0x6bd3a2
          0x006bd382      487ad3d8       pea.l 0x6ba75c(pc)
          0x006bd386      4878000b       pea.l 0xb
          0x006bd38a      2f17           move.l (a7), -(a7)
          0x006bd38c      4e91           jsr (a1)                    ; fcn.0000000a
          0x006bd38e      defc000a       adda.w 0xa, a7
          0x006bd392      1e87           move.b d7, (a7)
          0x006bd394      48780005       pea.l 0x5
          0x006bd398      4eb90040718c   jsr p_wtb_o
          0x006bd39e      5c4f           addq.w 0x6, a7
          0x006bd3a0      4e94           jsr (a4)                    ; fcn.0000000d
       > 0x006bd3a2      4a07           tst.b d7
       < 0x006bd3a4      670001d4       beq.w 0x6bd57a
          0x006bd3a8      4a12           tst.b (a2)
      < 0x006bd3aa      662c           bne.b 0x6bd3d8
         0x006bd3ac      7e00           moveq 0x0, d7
         0x006bd3ae      2010           move.l (a0), d0
         0x006bd3b0      028000000800   andi.l 0x800, d0
     < 0x006bd3b6      671c           beq.b 0x6bd3d4
        0x006bd3b8      2010           move.l (a0), d0
        0x006bd3ba      c086           and.l d6, d0
    < 0x006bd3bc      6616           bne.b 0x6bd3d4
       0x006bd3be      2010           move.l (a0), d0
       0x006bd3c0      028000000200   andi.l 0x200, d0
   < 0x006bd3c6      660c           bne.b 0x6bd3d4
      0x006bd3c8      2010           move.l (a0), d0
      0x006bd3ca      028000004000   andi.l 0x4000, d0
  < 0x006bd3d0      6602           bne.b 0x6bd3d4
     0x006bd3d2      5207           addq.b 0x1, d7
 > 0x006bd3d4      600001a4       bra.w 0x6bd57a
     > 0x006bd3d8      1012           move.b (a2), d0
         0x006bd3da      b006           cmp.b d6, d0
     < 0x006bd3dc      662c           bne.b 0x6bd40a
        0x006bd3de      7e00           moveq 0x0, d7
        0x006bd3e0      2210           move.l (a0), d1
        0x006bd3e2      c286           and.l d6, d1
    < 0x006bd3e4      6720           beq.b 0x6bd406
       0x006bd3e6      2210           move.l (a0), d1
       0x006bd3e8      028100000800   andi.l 0x800, d1
   < 0x006bd3ee      6616           bne.b 0x6bd406
      0x006bd3f0      2210           move.l (a0), d1
      0x006bd3f2      028100000200   andi.l 0x200, d1
  < 0x006bd3f8      660c           bne.b 0x6bd406
     0x006bd3fa      2210           move.l (a0), d1
     0x006bd3fc      028100004000   andi.l 0x4000, d1
 < 0x006bd402      6602           bne.b 0x6bd406
    0x006bd404      5207           addq.b 0x1, d7
 > 0x006bd406      60000172       bra.w 0x6bd57a
     > 0x006bd40a      0c000004       cmpi.b 0x4, d0
     < 0x006bd40e      663c           bne.b 0x6bd44c
        0x006bd410      2d6efff0fffa   move.l -0x10(a6), -0x6(a6)
        0x006bd416      7e00           moveq 0x0, d7
        0x006bd418      122efffb       move.b -0x5(a6), d1
        0x006bd41c      ef09           lsl.b 0x7, d1
        0x006bd41e      ee09           lsr.b 0x7, d1
    < 0x006bd420      6626           bne.b 0x6bd448
       0x006bd422      2210           move.l (a0), d1
       0x006bd424      028100004000   andi.l 0x4000, d1
   < 0x006bd42a      671c           beq.b 0x6bd448
      0x006bd42c      2210           move.l (a0), d1
      0x006bd42e      028100000800   andi.l 0x800, d1
  < 0x006bd434      6612           bne.b 0x6bd448
     0x006bd436      2210           move.l (a0), d1
     0x006bd438      c286           and.l d6, d1
 < 0x006bd43a      660c           bne.b 0x6bd448
    0x006bd43c      2210           move.l (a0), d1
    0x006bd43e      028100000200   andi.l 0x200, d1
 < 0x006bd444      6602           bne.b 0x6bd448
    0x006bd446      5207           addq.b 0x1, d7
 > 0x006bd448      60000130       bra.w 0x6bd57a
     > 0x006bd44c      0c000002       cmpi.b 0x2, d0
     < 0x006bd450      66000128       bne.w 0x6bd57a
        0x006bd454      2d6efff0fffa   move.l -0x10(a6), -0x6(a6)
        0x006bd45a      7e00           moveq 0x0, d7
        0x006bd45c      2210           move.l (a0), d1
        0x006bd45e      028100004000   andi.l 0x4000, d1
        0x006bd464      2410           move.l (a0), d2
        0x006bd466      028200000200   andi.l 0x200, d2
    < 0x006bd46c      6716           beq.b 0x6bd484
       0x006bd46e      2410           move.l (a0), d2
       0x006bd470      028200000800   andi.l 0x800, d2
   < 0x006bd476      660c           bne.b 0x6bd484
      0x006bd478      2410           move.l (a0), d2
      0x006bd47a      c486           and.l d6, d2
  < 0x006bd47c      6606           bne.b 0x6bd484
     0x006bd47e      4a81           tst.l d1
 < 0x006bd480      6602           bne.b 0x6bd484
    0x006bd482      5207           addq.b 0x1, d7
 > 0x006bd484      554f           subq.w 0x2, a7
        0x006bd486      4e93           jsr (a3)                    ; fcn.0000000c
        0x006bd488      4a1f           tst.b (a7)+
    < 0x006bd48a      6720           beq.b 0x6bd4ac
       0x006bd48c      487ad2da       pea.l 0x6ba768(pc)
       0x006bd490      4878000b       pea.l 0xb
       0x006bd494      2f17           move.l (a7), -(a7)
       0x006bd496      4e91           jsr (a1)                    ; fcn.0000000a
       0x006bd498      defc000a       adda.w 0xa, a7
       0x006bd49c      1e87           move.b d7, (a7)
       0x006bd49e      48780005       pea.l 0x5
       0x006bd4a2      4eb90040718c   jsr p_wtb_o
       0x006bd4a8      5c4f           addq.w 0x6, a7
       0x006bd4aa      4e94           jsr (a4)                    ; fcn.0000000d
    > 0x006bd4ac      4a07           tst.b d7
    < 0x006bd4ae      674a           beq.b 0x6bd4fa
       0x006bd4b0      7e00           moveq 0x0, d7
       0x006bd4b2      2410           move.l (a0), d2
       0x006bd4b4      028200001000   andi.l 0x1000, d2
       0x006bd4ba      2610           move.l (a0), d3
       0x006bd4bc      028300002000   andi.l 0x2000, d3
       0x006bd4c2      182efffb       move.b -0x5(a6), d4
       0x006bd4c6      ef0c           lsl.b 0x7, d4
       0x006bd4c8      ee0c           lsr.b 0x7, d4
   < 0x006bd4ca      660c           bne.b 0x6bd4d8
      0x006bd4cc      4a82           tst.l d2
  < 0x006bd4ce      6608           bne.b 0x6bd4d8
     0x006bd4d0      4a83           tst.l d3
 < 0x006bd4d2      6604           bne.b 0x6bd4d8
    0x006bd4d4      4a81           tst.l d1
 < 0x006bd4d6      6720           beq.b 0x6bd4f8
 > 0x006bd4d8      b806           cmp.b d6, d4
   < 0x006bd4da      660c           bne.b 0x6bd4e8
      0x006bd4dc      4a82           tst.l d2
  < 0x006bd4de      6708           beq.b 0x6bd4e8
     0x006bd4e0      4a83           tst.l d3
 < 0x006bd4e2      6604           bne.b 0x6bd4e8
    0x006bd4e4      4a81           tst.l d1
 < 0x006bd4e6      6710           beq.b 0x6bd4f8
 > 0x006bd4e8      b806           cmp.b d6, d4
   < 0x006bd4ea      660e           bne.b 0x6bd4fa
      0x006bd4ec      4a82           tst.l d2
  < 0x006bd4ee      660a           bne.b 0x6bd4fa
     0x006bd4f0      4a83           tst.l d3
 < 0x006bd4f2      6706           beq.b 0x6bd4fa
    0x006bd4f4      4a81           tst.l d1
 < 0x006bd4f6      6602           bne.b 0x6bd4fa
 > 0x006bd4f8      5207           addq.b 0x1, d7
 > 0x006bd4fa      554f           subq.w 0x2, a7
        0x006bd4fc      4e93           jsr (a3)                    ; fcn.0000000c
        0x006bd4fe      4a1f           tst.b (a7)+
    < 0x006bd500      6720           beq.b 0x6bd522
       0x006bd502      487ad270       pea.l 0x6ba774(pc)
       0x006bd506      4878000b       pea.l 0xb
       0x006bd50a      2f17           move.l (a7), -(a7)
       0x006bd50c      4e91           jsr (a1)                    ; fcn.0000000a
       0x006bd50e      defc000a       adda.w 0xa, a7
       0x006bd512      1e87           move.b d7, (a7)
       0x006bd514      48780005       pea.l 0x5
       0x006bd518      4eb90040718c   jsr p_wtb_o
       0x006bd51e      5c4f           addq.w 0x6, a7
       0x006bd520      4e94           jsr (a4)                    ; fcn.0000000d
    > 0x006bd522      4a07           tst.b d7
    < 0x006bd524      672c           beq.b 0x6bd552
       0x006bd526      4a6e000a       tst.w 0xa(a6)
   < 0x006bd52a      6726           beq.b 0x6bd552
      0x006bd52c      554f           subq.w 0x2, a7
      0x006bd52e      2f2efff0       move.l -0x10(a6), -(a7)
      0x006bd532      4eb90066e8fe   jsr N10_UTILS.n_stn_id
      0x006bd538      584f           addq.w 0x4, a7
      0x006bd53a      3d5ffffe       move.w (a7)+, -0x2(a6)
      0x006bd53e      7200           moveq 0x0, d1
      0x006bd540      4a07           tst.b d7
  < 0x006bd542      670c           beq.b 0x6bd550
     0x006bd544      342efffe       move.w -0x2(a6), d2
     0x006bd548      b46e000a       cmp.w 0xa(a6), d2
 < 0x006bd54c      6602           bne.b 0x6bd550
    0x006bd54e      5201           addq.b 0x1, d1
 > 0x006bd550      1e01           move.b d1, d7
   > 0x006bd552      554f           subq.w 0x2, a7
        0x006bd554      4e93           jsr (a3)                    ; fcn.0000000c
        0x006bd556      4a1f           tst.b (a7)+
    < 0x006bd558      6720           beq.b 0x6bd57a
       0x006bd55a      487ad224       pea.l 0x6ba780(pc)
       0x006bd55e      4878000b       pea.l 0xb
       0x006bd562      2f17           move.l (a7), -(a7)
       0x006bd564      4e91           jsr (a1)                    ; fcn.0000000a
       0x006bd566      defc000a       adda.w 0xa, a7
       0x006bd56a      1e87           move.b d7, (a7)
       0x006bd56c      48780005       pea.l 0x5
       0x006bd570      4eb90040718c   jsr p_wtb_o
       0x006bd576      5c4f           addq.w 0x6, a7
       0x006bd578      4e94           jsr (a4)                    ; fcn.0000000d
 > 0x006bd57a      554f           subq.w 0x2, a7
           0x006bd57c      4e93           jsr (a3)                    ; fcn.0000000c
           0x006bd57e      4a1f           tst.b (a7)+
       < 0x006bd580      67000152       beq.w 0x6bd6d4
          0x006bd584      4a07           tst.b d7
      < 0x006bd586      670c           beq.b 0x6bd594
         0x006bd588      487ad202       pea.l 0x6ba78c(pc)
         0x006bd58c      48780010       pea.l 0x10
     < 0x006bd590      6000013a       bra.w 0x6bd6cc
     > 0x006bd594      487ad207       pea.l 0x6ba79d(pc)
         0x006bd598      4878000c       pea.l 0xc
         0x006bd59c      2f17           move.l (a7), -(a7)
         0x006bd59e      4e91           jsr (a1)                    ; fcn.0000000a
         0x006bd5a0      dec5           adda.w d5, a7
         0x006bd5a2      202e000c       move.l 0xc(a6), d0
         0x006bd5a6      0c80ffffffff   cmpi.l 0xffffffff, d0
     < 0x006bd5ac      660e           bne.b 0x6bd5bc
        0x006bd5ae      487ad1fa       pea.l 0x6ba7aa(pc)
        0x006bd5b2      4878000d       pea.l 0xd
        0x006bd5b6      2f17           move.l (a7), -(a7)
        0x006bd5b8      4e91           jsr (a1)                    ; fcn.0000000a
        0x006bd5ba      dec5           adda.w d5, a7
     > 0x006bd5bc      4a2effef       tst.b -0x11(a6)
     < 0x006bd5c0      670e           beq.b 0x6bd5d0
        0x006bd5c2      487ad1f4       pea.l 0x6ba7b8(pc)
        0x006bd5c6      48780009       pea.l 0x9
        0x006bd5ca      2f17           move.l (a7), -(a7)
        0x006bd5cc      4e91           jsr (a1)                    ; fcn.0000000a
        0x006bd5ce      dec5           adda.w d5, a7
     > 0x006bd5d0      4a2effec       tst.b -0x14(a6)
     < 0x006bd5d4      660e           bne.b 0x6bd5e4
        0x006bd5d6      487ad1ea       pea.l 0x6ba7c2(pc)
        0x006bd5da      4878000b       pea.l 0xb
        0x006bd5de      2f17           move.l (a7), -(a7)
        0x006bd5e0      4e91           jsr (a1)                    ; fcn.0000000a
        0x006bd5e2      dec5           adda.w d5, a7
     > 0x006bd5e4      2010           move.l (a0), d0
         0x006bd5e6      028000000004   andi.l 0x4, d0
     < 0x006bd5ec      670e           beq.b 0x6bd5fc
        0x006bd5ee      487ad1de       pea.l 0x6ba7ce(pc)
        0x006bd5f2      4878000b       pea.l 0xb
        0x006bd5f6      2f17           move.l (a7), -(a7)
        0x006bd5f8      4e91           jsr (a1)                    ; fcn.0000000a
        0x006bd5fa      dec5           adda.w d5, a7
     > 0x006bd5fc      2010           move.l (a0), d0
         0x006bd5fe      028000000800   andi.l 0x800, d0
     < 0x006bd604      6612           bne.b 0x6bd618
        0x006bd606      4a12           tst.b (a2)
    < 0x006bd608      660e           bne.b 0x6bd618
       0x006bd60a      487ad1ce       pea.l 0x6ba7da(pc)
       0x006bd60e      48780009       pea.l 0x9
       0x006bd612      2f17           move.l (a7), -(a7)
       0x006bd614      4e91           jsr (a1)                    ; fcn.0000000a
       0x006bd616      dec5           adda.w d5, a7
    > 0x006bd618      2010           move.l (a0), d0
         0x006bd61a      c086           and.l d6, d0
     < 0x006bd61c      6614           bne.b 0x6bd632
        0x006bd61e      1012           move.b (a2), d0
        0x006bd620      b006           cmp.b d6, d0
    < 0x006bd622      660e           bne.b 0x6bd632
       0x006bd624      487ad1be       pea.l 0x6ba7e4(pc)
       0x006bd628      4878000a       pea.l 0xa
       0x006bd62c      2f17           move.l (a7), -(a7)
       0x006bd62e      4e91           jsr (a1)                    ; fcn.0000000a
       0x006bd630      dec5           adda.w d5, a7
    > 0x006bd632      2010           move.l (a0), d0
         0x006bd634      028000004000   andi.l 0x4000, d0
     < 0x006bd63a      6616           bne.b 0x6bd652
        0x006bd63c      1012           move.b (a2), d0
        0x006bd63e      0c000004       cmpi.b 0x4, d0
    < 0x006bd642      660e           bne.b 0x6bd652
       0x006bd644      487ad1a9       pea.l 0x6ba7ef(pc)
       0x006bd648      4878000b       pea.l 0xb
       0x006bd64c      2f17           move.l (a7), -(a7)
       0x006bd64e      4e91           jsr (a1)                    ; fcn.0000000a
       0x006bd650      dec5           adda.w d5, a7
    > 0x006bd652      1012           move.b (a2), d0
         0x006bd654      0c000002       cmpi.b 0x2, d0
     < 0x006bd658      6678           bne.b 0x6bd6d2
        0x006bd65a      4a6e000a       tst.w 0xa(a6)
    < 0x006bd65e      672a           beq.b 0x6bd68a
       0x006bd660      554f           subq.w 0x2, a7
       0x006bd662      2f2efff0       move.l -0x10(a6), -(a7)
       0x006bd666      4eb90066e8fe   jsr N10_UTILS.n_stn_id
       0x006bd66c      584f           addq.w 0x4, a7
       0x006bd66e      3d5ffffe       move.w (a7)+, -0x2(a6)
       0x006bd672      302efffe       move.w -0x2(a6), d0
       0x006bd676      b06e000a       cmp.w 0xa(a6), d0
   < 0x006bd67a      670e           beq.b 0x6bd68a
      0x006bd67c      487ad17d       pea.l 0x6ba7fb(pc)
      0x006bd680      4878000e       pea.l 0xe
      0x006bd684      2f17           move.l (a7), -(a7)
      0x006bd686      4e91           jsr (a1)                    ; fcn.0000000a
      0x006bd688      dec5           adda.w d5, a7
   > 0x006bd68a      2010           move.l (a0), d0
        0x006bd68c      028000000200   andi.l 0x200, d0
    < 0x006bd692      660e           bne.b 0x6bd6a2
       0x006bd694      487ad174       pea.l 0x6ba80a(pc)
       0x006bd698      48780009       pea.l 0x9
       0x006bd69c      2f17           move.l (a7), -(a7)
       0x006bd69e      4e91           jsr (a1)                    ; fcn.0000000a
       0x006bd6a0      dec5           adda.w d5, a7
    > 0x006bd6a2      2010           move.l (a0), d0
        0x006bd6a4      028000001000   andi.l 0x1000, d0
    < 0x006bd6aa      660e           bne.b 0x6bd6ba
       0x006bd6ac      487ad166       pea.l 0x6ba814(pc)
       0x006bd6b0      4878000d       pea.l 0xd
       0x006bd6b4      2f17           move.l (a7), -(a7)
       0x006bd6b6      4e91           jsr (a1)                    ; fcn.0000000a
       0x006bd6b8      dec5           adda.w d5, a7
    > 0x006bd6ba      2010           move.l (a0), d0
        0x006bd6bc      028000002000   andi.l 0x2000, d0
    < 0x006bd6c2      660e           bne.b 0x6bd6d2
       0x006bd6c4      487ad15c       pea.l 0x6ba822(pc)
       0x006bd6c8      4878000a       pea.l 0xa
    > 0x006bd6cc      2f17           move.l (a7), -(a7)
        0x006bd6ce      4e91           jsr (a1)                    ; fcn.0000000a
        0x006bd6d0      dec5           adda.w d5, a7
    > 0x006bd6d2      4e94           jsr (a4)                    ; fcn.0000000d
       > 0x006bd6d4      1d470010       move.b d7, 0x10(a6)
           0x006bd6d8      4cdf1fff       movem.l (a7)+, d0-d7/a0-a4
           0x006bd6dc      4e5e           unlk a6
           0x006bd6de      4e75           rts
            ; XREFS: CALL 0x006b13e4  CALL 0x006b1876  CALL 0x006b3734  
            ; XREFS: CALL 0x006b3b7c  CALL 0x006b3f02  CALL 0x006b454a  
            ; XREFS: CALL 0x006b479e  CALL 0x006b5814  CALL 0x006b6458  
            ; XREFS: CALL 0x006b6738  CALL 0x006be404  CALL 0x006be50c  
            ; XREFS: CALL 0x006c44e6  
 98: USER2_DISK.volume_removeab ();
           0x006bd6e0      4e56ffd8       link.w a6, 0xffd8
           0x006bd6e4      bfd5           cmpa.l (a5), a7
       < 0x006bd6e6      6206           bhi.b 0x6bd6ee
          0x006bd6e8      44fc0002       move.w 0x2, ccr
          0x006bd6ec      4e76           trapv
       > 0x006bd6ee      defc001c       adda.w 0x1c, a7
           0x006bd6f2      48e78080       movem.l d0/a0, -(a7)
           0x006bd6f6      41ee000c       lea.l 0xc(a6), a0
           0x006bd6fa      554f           subq.w 0x2, a7
           0x006bd6fc      2f2e0008       move.l 0x8(a6), -(a7)
           0x006bd700      4ebafaa0       jsr USER2_DISK.physical_volume(pc)
           0x006bd704      584f           addq.w 0x4, a7
           0x006bd706      4a1f           tst.b (a7)+
       < 0x006bd708      6604           bne.b 0x6bd70e
          0x006bd70a      4210           clr.b (a0)
      < 0x006bd70c      602c           bra.b 0x6bd73a
      > 0x006bd70e      9efc000c       suba.w 0xc, a7
          0x006bd712      2f2e0008       move.l 0x8(a6), -(a7)
          0x006bd716      4eb9005fb748   jsr F6_VOLUME.f_vol_status
          0x006bd71c      584f           addq.w 0x4, a7
          0x006bd71e      2d5ffff4       move.l (a7)+, -0xc(a6)
          0x006bd722      2d5ffff8       move.l (a7)+, -0x8(a6)
          0x006bd726      2d5ffffc       move.l (a7)+, -0x4(a6)
          0x006bd72a      4210           clr.b (a0)
          0x006bd72c      202efffc       move.l -0x4(a6), d0
          0x006bd730      028000000004   andi.l 0x4, d0
      < 0x006bd736      6702           beq.b 0x6bd73a
         0x006bd738      5210           addq.b 0x1, (a0)
      > 0x006bd73a      4cdf0101       movem.l (a7)+, d0/a0
           0x006bd73e      4e5e           unlk a6
           0x006bd740      4e75           rts
            ; CALL XREF from USER2_DISK.scan_station_fo @ 0x6c376c
            ; CALL XREF from USER2_DISK.init_user @ 0x6c5594
 90: USER2_DISK.drive_removeabl ();
           0x006bd742      4e56ffd4       link.w a6, 0xffd4
           0x006bd746      bfd5           cmpa.l (a5), a7
       < 0x006bd748      6206           bhi.b 0x6bd750
          0x006bd74a      44fc0002       move.w 0x2, ccr
          0x006bd74e      4e76           trapv
       > 0x006bd750      defc0022       adda.w 0x22, a7
           0x006bd754      48e7c080       movem.l d0-d1/a0, -(a7)
           0x006bd758      41ee000c       lea.l 0xc(a6), a0
           0x006bd75c      202e0008       move.l 0x8(a6), d0
           0x006bd760      0c807fffffff   cmpi.l 0x7fffffff, d0
       < 0x006bd766      6604           bne.b 0x6bd76c
          0x006bd768      4210           clr.b (a0)
      < 0x006bd76a      6028           bra.b 0x6bd794
      > 0x006bd76c      9efc000a       suba.w 0xa, a7
          0x006bd770      2f00           move.l d0, -(a7)
          0x006bd772      4ebaf9d4       jsr USER2_DISK.drive_status(pc)
          0x006bd776      584f           addq.w 0x4, a7
          0x006bd778      2d5ffff6       move.l (a7)+, -0xa(a6)
          0x006bd77c      2d5ffffa       move.l (a7)+, -0x6(a6)
          0x006bd780      3d5ffffe       move.w (a7)+, -0x2(a6)
          0x006bd784      4210           clr.b (a0)
          0x006bd786      222efff8       move.l -0x8(a6), d1
          0x006bd78a      028100000004   andi.l 0x4, d1
      < 0x006bd790      6702           beq.b 0x6bd794
         0x006bd792      5210           addq.b 0x1, (a0)
      > 0x006bd794      4cdf0103       movem.l (a7)+, d0-d1/a0
           0x006bd798      4e5e           unlk a6
           0x006bd79a      4e75           rts
            ; CALL XREF from USER2_DISK.volume_region @ 0x6bd850
 144: USER2_DISK.volume_scope ();
           0x006bd79c      4e56ffd0       link.w a6, 0xffd0
           0x006bd7a0      bfd5           cmpa.l (a5), a7
       < 0x006bd7a2      6206           bhi.b 0x6bd7aa
          0x006bd7a4      44fc0002       move.w 0x2, ccr
          0x006bd7a8      4e76           trapv
       > 0x006bd7aa      defc0024       adda.w 0x24, a7
           0x006bd7ae      48e7c0c0       movem.l d0-d1/a0-a1, -(a7)
           0x006bd7b2      41eefffc       lea.l -0x4(a6), a0
           0x006bd7b6      43ee000c       lea.l 0xc(a6), a1
           0x006bd7ba      7201           moveq 0x1, d1
           0x006bd7bc      554f           subq.w 0x2, a7
           0x006bd7be      2f2e0008       move.l 0x8(a6), -(a7)
           0x006bd7c2      4ebaf9de       jsr USER2_DISK.physical_volume(pc)
           0x006bd7c6      584f           addq.w 0x4, a7
           0x006bd7c8      4a1f           tst.b (a7)+
       < 0x006bd7ca      6602           bne.b 0x6bd7ce
      < 0x006bd7cc      6052           bra.b 0x6bd820
      > 0x006bd7ce      9efc000c       suba.w 0xc, a7
          0x006bd7d2      2f2e0008       move.l 0x8(a6), -(a7)
          0x006bd7d6      4eb9005fb748   jsr F6_VOLUME.f_vol_status
          0x006bd7dc      584f           addq.w 0x4, a7
          0x006bd7de      2d5ffff4       move.l (a7)+, -0xc(a6)
          0x006bd7e2      2d5ffff8       move.l (a7)+, -0x8(a6)
          0x006bd7e6      209f           move.l (a7)+, (a0)
          0x006bd7e8      2010           move.l (a0), d0
          0x006bd7ea      028000000200   andi.l 0x200, d0
      < 0x006bd7f0      6706           beq.b 0x6bd7f8
         0x006bd7f2      12bc0002       move.b 0x2, (a1)
     < 0x006bd7f6      602c           bra.b 0x6bd824
     > 0x006bd7f8      2010           move.l (a0), d0
         0x006bd7fa      c081           and.l d1, d0
     < 0x006bd7fc      6704           beq.b 0x6bd802
        0x006bd7fe      1281           move.b d1, (a1)
    < 0x006bd800      6022           bra.b 0x6bd824
    > 0x006bd802      2010           move.l (a0), d0
        0x006bd804      028000000800   andi.l 0x800, d0
    < 0x006bd80a      6704           beq.b 0x6bd810
       0x006bd80c      4211           clr.b (a1)
   < 0x006bd80e      6014           bra.b 0x6bd824
   > 0x006bd810      2010           move.l (a0), d0
       0x006bd812      028000004000   andi.l 0x4000, d0
   < 0x006bd818      6706           beq.b 0x6bd820
      0x006bd81a      12bc0004       move.b 0x4, (a1)
  < 0x006bd81e      6004           bra.b 0x6bd824
  > 0x006bd820      12bc0003       move.b 0x3, (a1)
  > 0x006bd824      4cdf0303       movem.l (a7)+, d0-d1/a0-a1
           0x006bd828      4e5e           unlk a6
           0x006bd82a      4e75           rts
            ; XREFS: CALL 0x00594f32  CALL 0x005c0df2  CALL 0x005c10e0  
            ; XREFS: CALL 0x005c3358  CALL 0x005c79a4  CALL 0x005c99ae  
            ; XREFS: CALL 0x005e4ce4  CALL 0x006b1bde  CALL 0x006b2c7e  
            ; XREFS: CALL 0x006b5746  CALL 0x006b57c4  CALL 0x006b6438  
            ; XREFS: CALL 0x006b676c  CALL 0x006b7278  CALL 0x006be672  
            ; XREFS: CALL 0x006beed2  CALL 0x006c3bcc  CALL 0x006c4532  
            ; XREFS: CALL 0x006cab2a  
 120: USER2_DISK.volume_region ();
           ; var int32_t var_4h @ a6-0x4
           0x006bd82c      4e56ffd6       link.w a6, 0xffd6
           0x006bd830      bfd5           cmpa.l (a5), a7
       < 0x006bd832      6206           bhi.b 0x6bd83a
          0x006bd834      44fc0002       move.w 0x2, ccr
          0x006bd838      4e76           trapv
       > 0x006bd83a      defc001a       adda.w 0x1a, a7
           0x006bd83e      48e78000       movem.l d0, -(a7)
           0x006bd842      422efffe       clr.b -0x2(a6)
           0x006bd846      422effff       clr.b -0x1(a6)
           0x006bd84a      554f           subq.w 0x2, a7
           0x006bd84c      2f2e0008       move.l 0x8(a6), -(a7)
           0x006bd850      4ebaff4a       jsr USER2_DISK.volume_scope(pc)
           0x006bd854      584f           addq.w 0x4, a7
           0x006bd856      101f           move.b (a7)+, d0
           0x006bd858      4880           ext.w d0
           0x006bd85a      41bc0004       chk.w 0x4, d0
           0x006bd85e      1d40fffc       move.b d0, -0x4(a6)
           0x006bd862      0c000002       cmpi.b 0x2, d0
       < 0x006bd866      662e           bne.b 0x6bd896
          0x006bd868      9efc000c       suba.w 0xc, a7
          0x006bd86c      2f2e0008       move.l 0x8(a6), -(a7)
          0x006bd870      4eb9005fb748   jsr F6_VOLUME.f_vol_status
          0x006bd876      584f           addq.w 0x4, a7
          0x006bd878      2d5ffff0       move.l (a7)+, -0x10(a6)
          0x006bd87c      2d5ffff4       move.l (a7)+, -0xc(a6)
          0x006bd880      2d57fff8       move.l (a7), -0x8(a6)
          0x006bd884      544f           addq.w 0x2, a7
          0x006bd886      2f2efff4       move.l -0xc(a6), -(a7)
          0x006bd88a      4eb90066e8fe   jsr N10_UTILS.n_stn_id
          0x006bd890      584f           addq.w 0x4, a7
          0x006bd892      3d5ffffe       move.w (a7)+, -0x2(a6)
       > 0x006bd896      2d6efffc000c   move.l -0x4(a6), 0xc(a6)
           0x006bd89c      4cdf0001       movem.l (a7)+, d0
           0x006bd8a0      4e5e           unlk a6
           0x006bd8a2      4e75           rts
            ; CALL XREF from USER2_DISK.drive_region @ 0x6bd980
 188: USER2_DISK.drive_scope ();
           0x006bd8a4      4e56ffcc       link.w a6, 0xffcc
           0x006bd8a8      bfd5           cmpa.l (a5), a7
       < 0x006bd8aa      6206           bhi.b 0x6bd8b2
          0x006bd8ac      44fc0002       move.w 0x2, ccr
          0x006bd8b0      4e76           trapv
       > 0x006bd8b2      defc002a       adda.w 0x2a, a7
           0x006bd8b6      48e7e0c0       movem.l d0-d2/a0-a1, -(a7)
           0x006bd8ba      41ee000c       lea.l 0xc(a6), a0
           0x006bd8be      43eefff8       lea.l -0x8(a6), a1
           0x006bd8c2      7401           moveq 0x1, d2
           0x006bd8c4      202e0008       move.l 0x8(a6), d0
           0x006bd8c8      0c807fffffff   cmpi.l 0x7fffffff, d0
       < 0x006bd8ce      6606           bne.b 0x6bd8d6
      > 0x006bd8d0      4210           clr.b (a0)
     < 0x006bd8d2      60000084       bra.w 0x6bd958
     > 0x006bd8d6      9efc000a       suba.w 0xa, a7
         0x006bd8da      2f00           move.l d0, -(a7)
         0x006bd8dc      4ebaf86a       jsr USER2_DISK.drive_status(pc)
         0x006bd8e0      584f           addq.w 0x4, a7
         0x006bd8e2      2d5ffff6       move.l (a7)+, -0xa(a6)
         0x006bd8e6      2d5ffffa       move.l (a7)+, -0x6(a6)
         0x006bd8ea      3d5ffffe       move.w (a7)+, -0x2(a6)
         0x006bd8ee      2211           move.l (a1), d1
         0x006bd8f0      028100000800   andi.l 0x800, d1
     < 0x006bd8f6      6702           beq.b 0x6bd8fa
     < 0x006bd8f8      60d6           bra.b 0x6bd8d0
      > 0x006bd8fa      2211           move.l (a1), d1
          0x006bd8fc      c282           and.l d2, d1
      < 0x006bd8fe      6704           beq.b 0x6bd904
         0x006bd900      1082           move.b d2, (a0)
     < 0x006bd902      6054           bra.b 0x6bd958
     > 0x006bd904      2211           move.l (a1), d1
         0x006bd906      028100000200   andi.l 0x200, d1
     < 0x006bd90c      6706           beq.b 0x6bd914
        0x006bd90e      10bc0002       move.b 0x2, (a0)
    < 0x006bd912      6044           bra.b 0x6bd958
    > 0x006bd914      2211           move.l (a1), d1
        0x006bd916      028100004000   andi.l 0x4000, d1
    < 0x006bd91c      6706           beq.b 0x6bd924
       0x006bd91e      10bc0004       move.b 0x4, (a0)
   < 0x006bd922      6034           bra.b 0x6bd958
   > 0x006bd924      487acf07       pea.l 0x6ba82d(pc)
       0x006bd928      48780020       pea.l 0x20
       0x006bd92c      2f17           move.l (a7), -(a7)
       0x006bd92e      4eb9004047ea   jsr p_wts_o
       0x006bd934      504f           addq.w 0x8, a7
       0x006bd936      2e80           move.l d0, (a7)
       0x006bd938      4878ffff       pea.l 0xffff
       0x006bd93c      4eb9004070e4   jsr p_wti_o
       0x006bd942      504f           addq.w 0x8, a7
       0x006bd944      4eb900404946   jsr p_wtln_o
       0x006bd94a      2f00           move.l d0, -(a7)
       0x006bd94c      4eb9006b8448   jsr USER1_UTILS.show_drive
       0x006bd952      584f           addq.w 0x4, a7
       0x006bd954      10bc0003       move.b 0x3, (a0)
   > 0x006bd958      4cdf0307       movem.l (a7)+, d0-d2/a0-a1
           0x006bd95c      4e5e           unlk a6
           0x006bd95e      4e75           rts
            ; CALL XREF from USER2_DISK.ntab_restore @ 0x6c268a
            ; CALL XREFS from USER2_DISK.scan_station_fo @ 0x6c378c, 0x6c37a8
            ; CALL XREF from USER2_DISK.init_user @ 0x6c55b8
 88: USER2_DISK.drive_region ();
           ; var int32_t var_4h @ a6-0x4
           0x006bd960      4e56ffec       link.w a6, 0xffec
           0x006bd964      bfd5           cmpa.l (a5), a7
       < 0x006bd966      6206           bhi.b 0x6bd96e
          0x006bd968      44fc0002       move.w 0x2, ccr
          0x006bd96c      4e76           trapv
       > 0x006bd96e      defc0010       adda.w 0x10, a7
           0x006bd972      48e78000       movem.l d0, -(a7)
           0x006bd976      426efffe       clr.w -0x2(a6)
           0x006bd97a      554f           subq.w 0x2, a7
           0x006bd97c      2f2e0008       move.l 0x8(a6), -(a7)
           0x006bd980      4ebaff22       jsr USER2_DISK.drive_scope(pc)
           0x006bd984      584f           addq.w 0x4, a7
           0x006bd986      101f           move.b (a7)+, d0
           0x006bd988      4880           ext.w d0
           0x006bd98a      41bc0004       chk.w 0x4, d0
           0x006bd98e      1d40fffc       move.b d0, -0x4(a6)
           0x006bd992      0c000002       cmpi.b 0x2, d0
       < 0x006bd996      6612           bne.b 0x6bd9aa
          0x006bd998      554f           subq.w 0x2, a7
          0x006bd99a      2f2e0008       move.l 0x8(a6), -(a7)
          0x006bd99e      4eb90066e8fe   jsr N10_UTILS.n_stn_id
          0x006bd9a4      584f           addq.w 0x4, a7
          0x006bd9a6      3d5ffffe       move.w (a7)+, -0x2(a6)
       > 0x006bd9aa      2d6efffc000c   move.l -0x4(a6), 0xc(a6)
           0x006bd9b0      4cdf0001       movem.l (a7)+, d0
           0x006bd9b4      4e5e           unlk a6
           0x006bd9b6      4e75           rts
            ; CALL XREF from USER2_DISK.numbers_on_vol @ 0x6bda44
            ; CALL XREF from USER2_DISK.nums_on_drive @ 0x6bdab4
 62: USER2_DISK.flagsok ();
           0x006bd9b8      4e56fff8       link.w a6, 0xfff8
           0x006bd9bc      bfd5           cmpa.l (a5), a7
       < 0x006bd9be      6206           bhi.b 0x6bd9c6
          0x006bd9c0      44fc0002       move.w 0x2, ccr
          0x006bd9c4      4e76           trapv
       > 0x006bd9c6      defc0008       adda.w 0x8, a7
           0x006bd9ca      48e78000       movem.l d0, -(a7)
           0x006bd9ce      422e000c       clr.b 0xc(a6)
           0x006bd9d2      202e0008       move.l 0x8(a6), d0
           0x006bd9d6      028000000008   andi.l 0x8, d0
       < 0x006bd9dc      6610           bne.b 0x6bd9ee
          0x006bd9de      202e0008       move.l 0x8(a6), d0
          0x006bd9e2      028000000010   andi.l 0x10, d0
      < 0x006bd9e8      6604           bne.b 0x6bd9ee
         0x006bd9ea      522e000c       addq.b 0x1, 0xc(a6)
      > 0x006bd9ee      4cdf0001       movem.l (a7)+, d0
           0x006bd9f2      4e5e           unlk a6
           0x006bd9f4      4e75           rts
            ; XREFS: CALL 0x006afefa  CALL 0x006b0c72  CALL 0x006b12ca  
            ; XREFS: CALL 0x006b1780  CALL 0x006b1e02  CALL 0x006b20c2  
            ; XREFS: CALL 0x006c451c  
 104: USER2_DISK.numbers_on_vol ();
           0x006bd9f6      4e56ffdc       link.w a6, 0xffdc
           0x006bd9fa      bfd5           cmpa.l (a5), a7
       < 0x006bd9fc      6206           bhi.b 0x6bda04
          0x006bd9fe      44fc0002       move.w 0x2, ccr
          0x006bda02      4e76           trapv
       > 0x006bda04      defc0018       adda.w 0x18, a7
           0x006bda08      48e78000       movem.l d0, -(a7)
           0x006bda0c      554f           subq.w 0x2, a7
           0x006bda0e      2f2e0008       move.l 0x8(a6), -(a7)
           0x006bda12      4ebaf78e       jsr USER2_DISK.physical_volume(pc)
           0x006bda16      584f           addq.w 0x4, a7
           0x006bda18      4a1f           tst.b (a7)+
       < 0x006bda1a      6606           bne.b 0x6bda22
          0x006bda1c      422e000c       clr.b 0xc(a6)
      < 0x006bda20      6034           bra.b 0x6bda56
      > 0x006bda22      9efc000c       suba.w 0xc, a7
          0x006bda26      2f2e0008       move.l 0x8(a6), -(a7)
          0x006bda2a      4eb9005fb748   jsr F6_VOLUME.f_vol_status
          0x006bda30      584f           addq.w 0x4, a7
          0x006bda32      2d5ffff4       move.l (a7)+, -0xc(a6)
          0x006bda36      2d5ffff8       move.l (a7)+, -0x8(a6)
          0x006bda3a      2d57fffc       move.l (a7), -0x4(a6)
          0x006bda3e      544f           addq.w 0x2, a7
          0x006bda40      2f2efffc       move.l -0x4(a6), -(a7)
          0x006bda44      4ebaff72       jsr USER2_DISK.flagsok(pc)
          0x006bda48      584f           addq.w 0x4, a7
          0x006bda4a      101f           move.b (a7)+, d0
          0x006bda4c      4880           ext.w d0
          0x006bda4e      41bc0001       chk.w 0x1, d0
          0x006bda52      1d40000c       move.b d0, 0xc(a6)
      > 0x006bda56      4cdf0001       movem.l (a7)+, d0
           0x006bda5a      4e5e           unlk a6
           0x006bda5c      4e75           rts
            ; CALL XREF from USER2_DISK.scan_station_fo @ 0x6c377c
            ; CALL XREF from USER2_DISK.init_user @ 0x6c55a4
 112: USER2_DISK.nums_on_drive ();
           0x006bda5e      4e56ffe0       link.w a6, 0xffe0
           0x006bda62      bfd5           cmpa.l (a5), a7
       < 0x006bda64      6206           bhi.b 0x6bda6c
          0x006bda66      44fc0002       move.w 0x2, ccr
          0x006bda6a      4e76           trapv
       > 0x006bda6c      defc0016       adda.w 0x16, a7
           0x006bda70      48e78000       movem.l d0, -(a7)
           0x006bda74      9efc000a       suba.w 0xa, a7
           0x006bda78      2f2e0008       move.l 0x8(a6), -(a7)
           0x006bda7c      4ebaf6ca       jsr USER2_DISK.drive_status(pc)
           0x006bda80      584f           addq.w 0x4, a7
           0x006bda82      2d5ffff6       move.l (a7)+, -0xa(a6)
           0x006bda86      2d5ffffa       move.l (a7)+, -0x6(a6)
           0x006bda8a      3d5ffffe       move.w (a7)+, -0x2(a6)
           0x006bda8e      202e0008       move.l 0x8(a6), d0
           0x006bda92      0c807fffffff   cmpi.l 0x7fffffff, d0
       < 0x006bda98      6606           bne.b 0x6bdaa0
      > 0x006bda9a      422e000c       clr.b 0xc(a6)
     < 0x006bda9e      6026           bra.b 0x6bdac6
     > 0x006bdaa0      202efff8       move.l -0x8(a6), d0
         0x006bdaa4      028000000008   andi.l 0x8, d0
     < 0x006bdaaa      6702           beq.b 0x6bdaae
     < 0x006bdaac      60ec           bra.b 0x6bda9a
      > 0x006bdaae      554f           subq.w 0x2, a7
          0x006bdab0      2f2efff8       move.l -0x8(a6), -(a7)
          0x006bdab4      4ebaff02       jsr USER2_DISK.flagsok(pc)
          0x006bdab8      584f           addq.w 0x4, a7
          0x006bdaba      101f           move.b (a7)+, d0
          0x006bdabc      4880           ext.w d0
          0x006bdabe      41bc0001       chk.w 0x1, d0
          0x006bdac2      1d40000c       move.b d0, 0xc(a6)
     > 0x006bdac6      4cdf0001       movem.l (a7)+, d0
           0x006bdaca      4e5e           unlk a6
           0x006bdacc      4e75           rts
            ; XREFS: CALL 0x006b0076  CALL 0x006b659a  CALL 0x006b65be  
            ; XREFS: CALL 0x006be58e  CALL 0x006be748  CALL 0x00784314  
            ; XREFS: CALL 0x007843aa  CALL 0x00784416  
 114: USER2_DISK.max_fixed_numbe ();
           ; var int32_t var_8h @ a7+0x8
           ; var int32_t var_108h @ a7+0x108
           0x006bdace      4e56fdba       link.w a6, 0xfdba
           0x006bdad2      bfd5           cmpa.l (a5), a7
       < 0x006bdad4      6206           bhi.b 0x6bdadc
          0x006bdad6      44fc0002       move.w 0x2, ccr
          0x006bdada      4e76           trapv
       > 0x006bdadc      defc0244       adda.w 0x244, a7
           0x006bdae0      48e7fff8       movem.l d0-d7/a0-a4, -(a7)
           0x006bdae4      43f90085519a   lea.l 0x85519a, a1
           0x006bdaea      45ee0008       lea.l 0x8(a6), a2
           0x006bdaee      47ee000a       lea.l 0xa(a6), a3
           0x006bdaf2      49ee000b       lea.l 0xb(a6), a4
           0x006bdaf6      761e           moveq 0x1e, d3
           0x006bdaf8      283c0000ffff   move.l 0xffff, d4
           0x006bdafe      7a04           moveq 0x4, d5
           0x006bdb00      7c02           moveq 0x2, d6
           0x006bdb02      7e00           moveq 0x0, d7
           0x006bdb04      554f           subq.w 0x2, a7
           0x006bdb06      1f12           move.b (a2), -(a7)
           0x006bdb08      4eb9006ba282   jsr USER1_UTILS.scope_ok
           0x006bdb0e      544f           addq.w 0x2, a7
           0x006bdb10      1017           move.b (a7), d0
           0x006bdb12      4880           ext.w d0
           0x006bdb14      41bc0001       chk.w 0x1, d0
           0x006bdb18      1e80           move.b d0, (a7)
           0x006bdb1a      4eb90040452a   jsr p_Assert
           0x006bdb20      544f           addq.w 0x2, a7
           0x006bdb22      4ebaed24       jsr USER2_DISK.close_gate(pc)
           0x006bdb26      102e000c       move.b 0xc(a6), d0
           0x006bdb2a      4880           ext.w d0
           0x006bdb2c      5340           subq.w 0x1, d0
           0x006bdb2e      0c400009       cmpi.w 0x9, d0
       < 0x006bdb32      62000108       bhi.w 0x6bdc3c
          0x006bdb36      d040           add.w d0, d0
          0x006bdb38      303b0006       move.w 0x6bdb40(pc, d0.w), d0
          0x006bdb3c      4efb0002       jmp 0x6bdb40(pc, d0.w)
           0x006bdb40      00140088       ori.b 0x88, (a4)
           0x006bdb44      001400fc       ori.b 0xfc, (a4)
           0x006bdb48      00fc0014       
           0x006bdb49      fc001400       fmove fp5, fp0
           0x006bdb4d      fc00fc00       fmovem invalid, d0
           0x006bdb51      1400           move.b d0, d2
           0x006bdb53      1410           move.b (a0), d2
           0x006bdb55      12488001       
           0x006bdb56      4880           ext.w d0
           0x006bdb58      013accf4       btst.l d0, 0x6ba84e(pc)
       < 0x006bdb5c      6714           beq.b 0x6bdb72
          0x006bdb5e      4185           chk.w d5, d0
          0x006bdb60      7248           moveq 0x48, d1
          0x006bdb62      c3c0           muls.w d0, d1
          0x006bdb64      2049           movea.l a1, a0
          0x006bdb66      2230104a       move.l 0x4a(a0, d1.w), d1
          0x006bdb6a      b284           cmp.l d4, d1
      < 0x006bdb6c      6302           bls.b 0x6bdb70
         0x006bdb6e      4e4f           trap 0xf
     > 0x006bdb70      6052           bra.b 0x6bdbc4
      > 0x006bdb72      b006           cmp.b d6, d0
      < 0x006bdb74      6650           bne.b 0x6bdbc6
         0x006bdb76      554f           subq.w 0x2, a7
         0x006bdb78      4281           clr.l d1
         0x006bdb7a      1213           move.b (a3), d1
         0x006bdb7c      2f01           move.l d1, -(a7)
         0x006bdb7e      4281           clr.l d1
         0x006bdb80      1214           move.b (a4), d1
         0x006bdb82      2f01           move.l d1, -(a7)
         0x006bdb84      4ebaee2e       jsr USER2_DISK.stn_known(pc)
         0x006bdb88      504f           addq.w 0x8, a7
         0x006bdb8a      4a1f           tst.b (a7)+
     < 0x006bdb8c      6738           beq.b 0x6bdbc6
        0x006bdb8e      4281           clr.l d1
        0x006bdb90      1214           move.b (a4), d1
        0x006bdb92      5341           subq.w 0x1, d1
        0x006bdb94      4383           chk.w d3, d1
        0x006bdb96      e541           asl.w 0x2, d1
        0x006bdb98      4282           clr.l d2
        0x006bdb9a      1413           move.b (a3), d2
        0x006bdb9c      5342           subq.w 0x1, d2
        0x006bdb9e      4583           chk.w d3, d2
        0x006bdba0      c5fc007c       muls.w 0x7c, d2
        0x006bdba4      2049           movea.l a1, a0
        0x006bdba6      41f02000       lea.l (a0, d2.w), a0
        0x006bdbaa      41f01000       lea.l (a0, d1.w), a0
        0x006bdbae      20680172       movea.l 0x172(a0), a0
        0x006bdbb2      b1e8fffc       cmpa.l -0x4(a0), a0
    < 0x006bdbb6      6702           beq.b 0x6bdbba
       0x006bdbb8      4e4d           trap 0xd
    > 0x006bdbba      22280040       move.l 0x40(a0), d1
        0x006bdbbe      b284           cmp.l d4, d1
    < 0x006bdbc0      6302           bls.b 0x6bdbc4
       0x006bdbc2      4e4f           trap 0xf
    > 0x006bdbc4      3e01           move.w d1, d7
     > 0x006bdbc6      6076           bra.b 0x6bdc3e
          0x006bdbc8      1012           move.b (a2), d0
          0x006bdbca      4880           ext.w d0
          0x006bdbcc      013acc82       btst.l d0, 0x6ba850(pc)
      < 0x006bdbd0      6714           beq.b 0x6bdbe6
         0x006bdbd2      4185           chk.w d5, d0
         0x006bdbd4      7248           moveq 0x48, d1
         0x006bdbd6      c3c0           muls.w d0, d1
         0x006bdbd8      2049           movea.l a1, a0
         0x006bdbda      2230104e       move.l 0x4e(a0, d1.w), d1
         0x006bdbde      b284           cmp.l d4, d1
     < 0x006bdbe0      6302           bls.b 0x6bdbe4
        0x006bdbe2      4e4f           trap 0xf
    > 0x006bdbe4      6052           bra.b 0x6bdc38
     > 0x006bdbe6      b006           cmp.b d6, d0
     < 0x006bdbe8      6650           bne.b 0x6bdc3a
        0x006bdbea      554f           subq.w 0x2, a7
        0x006bdbec      4281           clr.l d1
        0x006bdbee      1213           move.b (a3), d1
        0x006bdbf0      2f01           move.l d1, -(a7)
        0x006bdbf2      4281           clr.l d1
        0x006bdbf4      1214           move.b (a4), d1
        0x006bdbf6      2f01           move.l d1, -(a7)
        0x006bdbf8      4ebaedba       jsr USER2_DISK.stn_known(pc)
        0x006bdbfc      504f           addq.w 0x8, a7
        0x006bdbfe      4a1f           tst.b (a7)+
    < 0x006bdc00      6738           beq.b 0x6bdc3a
       0x006bdc02      4281           clr.l d1
       0x006bdc04      1214           move.b (a4), d1
       0x006bdc06      5341           subq.w 0x1, d1
       0x006bdc08      4383           chk.w d3, d1
       0x006bdc0a      e541           asl.w 0x2, d1
       0x006bdc0c      4282           clr.l d2
       0x006bdc0e      1413           move.b (a3), d2
       0x006bdc10      5342           subq.w 0x1, d2
       0x006bdc12      4583           chk.w d3, d2
       0x006bdc14      c5fc007c       muls.w 0x7c, d2
       0x006bdc18      2049           movea.l a1, a0
       0x006bdc1a      41f02000       lea.l (a0, d2.w), a0
       0x006bdc1e      41f01000       lea.l (a0, d1.w), a0
       0x006bdc22      20680172       movea.l 0x172(a0), a0
       0x006bdc26      b1e8fffc       cmpa.l -0x4(a0), a0
   < 0x006bdc2a      6702           beq.b 0x6bdc2e
      0x006bdc2c      4e4d           trap 0xd
   > 0x006bdc2e      22280044       move.l 0x44(a0), d1
       0x006bdc32      b284           cmp.l d4, d1
   < 0x006bdc34      6302           bls.b 0x6bdc38
      0x006bdc36      4e4f           trap 0xf
   > 0x006bdc38      3e01           move.w d1, d7
    > 0x006bdc3a      6002           bra.b 0x6bdc3e
      > 0x006bdc3c      7e00           moveq 0x0, d7
    > 0x006bdc3e      4ebaec9a       jsr USER2_DISK.open_gate(pc)
            0x006bdc42      4a47           tst.w d7
        < 0x006bdc44      6676           bne.b 0x6bdcbc
           0x006bdc46      9efc0100       suba.w 0x100, a7
           0x006bdc4a      2f12           move.l (a2), -(a7)
           0x006bdc4c      4eb9006b8ed2   jsr USER1_UTILS.region_str
           0x006bdc52      9efc00fc       suba.w 0xfc, a7
           0x006bdc56      1f2e000c       move.b 0xc(a6), -(a7)
           0x006bdc5a      4eb9006b835c   jsr USER1_UTILS.entry_t_str
           0x006bdc60      544f           addq.w 0x2, a7
           0x006bdc62      487acbee       pea.l 0x6ba852(pc)
           0x006bdc66      4878001c       pea.l 0x1c
           0x006bdc6a      2f17           move.l (a7), -(a7)
           0x006bdc6c      4eb9004047ea   jsr p_wts_o
           0x006bdc72      defc000c       adda.w 0xc, a7
           0x006bdc76      486f0101       pea.l 0x101(a7)
           0x006bdc7a      42a7           clr.l -(a7)
           0x006bdc7c      1f6f01080003   move.b 0x108(a7), 0x3(a7)
           0x006bdc82      2f17           move.l (a7), -(a7)
           0x006bdc84      4eb9004047ea   jsr p_wts_o
           0x006bdc8a      defc000a       adda.w 0xa, a7
           0x006bdc8e      1ebc0020       move.b 0x20, (a7)
           0x006bdc92      48780001       pea.l 0x1
           0x006bdc96      4eb9004048b4   jsr p_wtc_o
           0x006bdc9c      5c4f           addq.w 0x6, a7
           0x006bdc9e      486f0001       pea.l 0x1(a7)
           0x006bdca2      42a7           clr.l -(a7)
           0x006bdca4      1f6f00080003   move.b 0x8(a7), 0x3(a7)
           0x006bdcaa      2f17           move.l (a7), -(a7)
           0x006bdcac      4eb9004047ea   jsr p_wts_o
           0x006bdcb2      defc020c       adda.w 0x20c, a7
           0x006bdcb6      4eb900404946   jsr p_wtln_o
        > 0x006bdcbc      3d47000e       move.w d7, 0xe(a6)
            0x006bdcc0      4cdf1fff       movem.l (a7)+, d0-d7/a0-a4
            0x006bdcc4      4e5e           unlk a6
            0x006bdcc6      4e75           rts
            ; XREFS: CALL 0x00594fa4  CALL 0x006b37a2  CALL 0x006b3aa6  
            ; XREFS: CALL 0x006b3c74  CALL 0x006b3f24  CALL 0x006b4962  
            ; XREFS: CALL 0x006b6f4c  CALL 0x006be3f6  CALL 0x0077e24a  
            ; XREFS: CALL 0x0077e28c  CALL 0x0077e2c4  CALL 0x0077e448  
            ; XREFS: CALL 0x0077e490  CALL 0x0077f1fc  CALL 0x0077f45a  
            ; XREFS: CALL 0x0078429e  CALL 0x0078437c  CALL 0x00784fae  
 348: USER2_DISK.exch_num ();
           ; var int32_t var_8h @ a7+0x8
           ; var int32_t var_108h @ a7+0x108
           0x006bdcc8      4e56fdbc       link.w a6, 0xfdbc
           0x006bdccc      bfd5           cmpa.l (a5), a7
       < 0x006bdcce      6206           bhi.b 0x6bdcd6
          0x006bdcd0      44fc0002       move.w 0x2, ccr
          0x006bdcd4      4e76           trapv
       > 0x006bdcd6      defc0244       adda.w 0x244, a7
           0x006bdcda      48e7fff8       movem.l d0-d7/a0-a4, -(a7)
           0x006bdcde      45ee0010       lea.l 0x10(a6), a2
           0x006bdce2      47f90085519a   lea.l 0x85519a, a3
           0x006bdce8      49f9004047ea   lea.l p_wts_o, a4
           0x006bdcee      781e           moveq 0x1e, d4
           0x006bdcf0      7a0c           moveq 0xc, d5
           0x006bdcf2      7c02           moveq 0x2, d6
           0x006bdcf4      7e7c           moveq 0x7c, d7
           0x006bdcf6      1f2e0008       move.b 0x8(a6), -(a7)
           0x006bdcfa      4ebaec48       jsr USER2_DISK.check_scope(pc)
           0x006bdcfe      544f           addq.w 0x2, a7
           0x006bdd00      4ebaeb46       jsr USER2_DISK.close_gate(pc)
           0x006bdd04      4212           clr.b (a2)
           0x006bdd06      102e0008       move.b 0x8(a6), d0
           0x006bdd0a      b006           cmp.b d6, d0
       < 0x006bdd0c      6664           bne.b 0x6bdd72
          0x006bdd0e      4280           clr.l d0
          0x006bdd10      102e000a       move.b 0xa(a6), d0
          0x006bdd14      5340           subq.w 0x1, d0
          0x006bdd16      4184           chk.w d4, d0
          0x006bdd18      c1c7           muls.w d7, d0
          0x006bdd1a      4281           clr.l d1
          0x006bdd1c      122e000b       move.b 0xb(a6), d1
          0x006bdd20      5341           subq.w 0x1, d1
          0x006bdd22      4384           chk.w d4, d1
          0x006bdd24      e541           asl.w 0x2, d1
          0x006bdd26      204b           movea.l a3, a0
          0x006bdd28      41f00000       lea.l (a0, d0.w), a0
          0x006bdd2c      41f01000       lea.l (a0, d1.w), a0
          0x006bdd30      20680172       movea.l 0x172(a0), a0
          0x006bdd34      b0fc0001       cmpa.w 0x1, a0
      < 0x006bdd38      6638           bne.b 0x6bdd72
         0x006bdd3a      9efc0100       suba.w 0x100, a7
         0x006bdd3e      3f2e000a       move.w 0xa(a6), -(a7)
         0x006bdd42      4eb90066ea9c   jsr N10_UTILS.n_stn_str
         0x006bdd48      544f           addq.w 0x2, a7
         0x006bdd4a      487acb23       pea.l 0x6ba86f(pc)
         0x006bdd4e      4878001e       pea.l 0x1e
         0x006bdd52      2f17           move.l (a7), -(a7)
         0x006bdd54      4e94           jsr (a4)                    ; fcn.0000000d
         0x006bdd56      dec5           adda.w d5, a7
         0x006bdd58      486f0001       pea.l 0x1(a7)
         0x006bdd5c      42a7           clr.l -(a7)
         0x006bdd5e      1f6f00080003   move.b 0x8(a7), 0x3(a7)
         0x006bdd64      2f17           move.l (a7), -(a7)
         0x006bdd66      4e94           jsr (a4)                    ; fcn.0000000d
         0x006bdd68      defc010c       adda.w 0x10c, a7
         0x006bdd6c      4eb900404946   jsr p_wtln_o
      > 0x006bdd72      554f           subq.w 0x2, a7
           0x006bdd74      4eb9006ba3c2   jsr USER1_UTILS.udebug_on
           0x006bdd7a      4a1f           tst.b (a7)+
       < 0x006bdd7c      6700008a       beq.w 0x6bde08
          0x006bdd80      9efc0100       suba.w 0x100, a7
          0x006bdd84      1f2e000c       move.b 0xc(a6), -(a7)
          0x006bdd88      4eb9006b835c   jsr USER1_UTILS.entry_t_str
          0x006bdd8e      9efc00fe       suba.w 0xfe, a7
          0x006bdd92      2f2e0008       move.l 0x8(a6), -(a7)
          0x006bdd96      4eb9006b8ed2   jsr USER1_UTILS.region_str
          0x006bdd9c      584f           addq.w 0x4, a7
          0x006bdd9e      487acaee       pea.l 0x6ba88e(pc)
          0x006bdda2      48780011       pea.l 0x11
          0x006bdda6      2f17           move.l (a7), -(a7)
          0x006bdda8      4e94           jsr (a4)                    ; fcn.0000000d
          0x006bddaa      dec5           adda.w d5, a7
          0x006bddac      4280           clr.l d0
          0x006bddae      302e000e       move.w 0xe(a6), d0
          0x006bddb2      2f00           move.l d0, -(a7)
          0x006bddb4      48780000       pea.l 0x0
          0x006bddb8      4eb9004070e4   jsr p_wti_o
          0x006bddbe      504f           addq.w 0x8, a7
          0x006bddc0      487acade       pea.l 0x6ba8a0(pc)
          0x006bddc4      48780009       pea.l 0x9
          0x006bddc8      2f17           move.l (a7), -(a7)
          0x006bddca      4e94           jsr (a4)                    ; fcn.0000000d
          0x006bddcc      dec5           adda.w d5, a7
          0x006bddce      486f0101       pea.l 0x101(a7)
          0x006bddd2      42a7           clr.l -(a7)
          0x006bddd4      1f6f01080003   move.b 0x108(a7), 0x3(a7)
          0x006bddda      2f17           move.l (a7), -(a7)
          0x006bdddc      4e94           jsr (a4)                    ; fcn.0000000d
          0x006bddde      dec5           adda.w d5, a7
          0x006bdde0      487acac8       pea.l 0x6ba8aa(pc)
          0x006bdde4      48780009       pea.l 0x9
          0x006bdde8      2f17           move.l (a7), -(a7)
          0x006bddea      4e94           jsr (a4)                    ; fcn.0000000d
          0x006bddec      dec5           adda.w d5, a7
          0x006bddee      486f0001       pea.l 0x1(a7)
          0x006bddf2      42a7           clr.l -(a7)
          0x006bddf4      1f6f00080003   move.b 0x8(a7), 0x3(a7)
          0x006bddfa      2f17           move.l (a7), -(a7)
          0x006bddfc      4e94           jsr (a4)                    ; fcn.0000000d
          0x006bddfe      defc020c       adda.w 0x20c, a7
          0x006bde02      4eb900404946   jsr p_wtln_o
       > 0x006bde08      102e000c       move.b 0xc(a6), d0
           0x006bde0c      4880           ext.w d0
           0x006bde0e      3200           move.w d0, d1
           0x006bde10      5341           subq.w 0x1, d1
           0x006bde12      0c410009       cmpi.w 0x9, d1
       < 0x006bde16      62000100       bhi.w 0x6bdf18
          0x006bde1a      d241           add.w d1, d1
          0x006bde1c      323b1006       move.w 0x6bde24(pc, d1.w), d1
          0x006bde20      4efb1002       jmp 0x6bde24(pc, d1.w)
           0x006bde24      00140084       ori.b 0x84, (a4)
           0x006bde28      001400f2       ori.b 0xf2, (a4)
           0x006bde2c      00f40014       
           0x006bde2d      f400           invalid
           0x006bde2f      1400           move.b d0, d2
           0x006bde31      f400           invalid
           0x006bde33      f2001400       fmove fp5, fp0
           0x006bde37      1412           move.b (a2), d2
           0x006bde39      2e00           move.l d0, d7
           0x006bde3b      08488103       
           0x006bde3c      4881           ext.w d1
           0x006bde3e      033aca74       btst.l d1, 0x6ba8b4(pc)
       < 0x006bde42      6718           beq.b 0x6bde5c
          0x006bde44      4212           clr.b (a2)
          0x006bde46      7448           moveq 0x48, d2
          0x006bde48      c5c1           muls.w d1, d2
          0x006bde4a      204b           movea.l a3, a0
          0x006bde4c      4283           clr.l d3
          0x006bde4e      362e000e       move.w 0xe(a6), d3
          0x006bde52      b6b0204a       cmp.l 0x4a(a0, d2.w), d3
      < 0x006bde56      6f02           ble.b 0x6bde5a
         0x006bde58      5212           addq.b 0x1, (a2)
     > 0x006bde5a      6048           bra.b 0x6bdea4
      > 0x006bde5c      b206           cmp.b d6, d1
      < 0x006bde5e      6644           bne.b 0x6bdea4
         0x006bde60      4282           clr.l d2
         0x006bde62      142e000b       move.b 0xb(a6), d2
         0x006bde66      5342           subq.w 0x1, d2
         0x006bde68      4584           chk.w d4, d2
         0x006bde6a      e542           asl.w 0x2, d2
         0x006bde6c      4283           clr.l d3
         0x006bde6e      162e000a       move.b 0xa(a6), d3
         0x006bde72      5343           subq.w 0x1, d3
         0x006bde74      4784           chk.w d4, d3
         0x006bde76      c7c7           muls.w d7, d3
         0x006bde78      204b           movea.l a3, a0
         0x006bde7a      41f03000       lea.l (a0, d3.w), a0
         0x006bde7e      41f02000       lea.l (a0, d2.w), a0
         0x006bde82      22680172       movea.l 0x172(a0), a1
         0x006bde86      b2fc0001       cmpa.w 0x1, a1
     < 0x006bde8a      6718           beq.b 0x6bdea4
        0x006bde8c      4212           clr.b (a2)
        0x006bde8e      b3e9fffc       cmpa.l -0x4(a1), a1
    < 0x006bde92      6702           beq.b 0x6bde96
       0x006bde94      4e4d           trap 0xd
    > 0x006bde96      4282           clr.l d2
        0x006bde98      342e000e       move.w 0xe(a6), d2
        0x006bde9c      b4a90040       cmp.l 0x40(a1), d2
    < 0x006bdea0      6f02           ble.b 0x6bdea4
       0x006bdea2      5212           addq.b 0x1, (a2)
   > 0x006bdea4      600000a8       bra.w 0x6bdf4e
          0x006bdea8      122e0008       move.b 0x8(a6), d1
          0x006bdeac      4881           ext.w d1
          0x006bdeae      033aca06       btst.l d1, 0x6ba8b6(pc)
      < 0x006bdeb2      6718           beq.b 0x6bdecc
         0x006bdeb4      4212           clr.b (a2)
         0x006bdeb6      7448           moveq 0x48, d2
         0x006bdeb8      c5c1           muls.w d1, d2
         0x006bdeba      204b           movea.l a3, a0
         0x006bdebc      4283           clr.l d3
         0x006bdebe      362e000e       move.w 0xe(a6), d3
         0x006bdec2      b6b0204e       cmp.l 0x4e(a0, d2.w), d3
     < 0x006bdec6      6f02           ble.b 0x6bdeca
        0x006bdec8      5212           addq.b 0x1, (a2)
    > 0x006bdeca      6048           bra.b 0x6bdf14
     > 0x006bdecc      b206           cmp.b d6, d1
     < 0x006bdece      6644           bne.b 0x6bdf14
        0x006bded0      4282           clr.l d2
        0x006bded2      142e000b       move.b 0xb(a6), d2
        0x006bded6      5342           subq.w 0x1, d2
        0x006bded8      4584           chk.w d4, d2
        0x006bdeda      e542           asl.w 0x2, d2
        0x006bdedc      4283           clr.l d3
        0x006bdede      162e000a       move.b 0xa(a6), d3
        0x006bdee2      5343           subq.w 0x1, d3
        0x006bdee4      4784           chk.w d4, d3
        0x006bdee6      c7c7           muls.w d7, d3
        0x006bdee8      204b           movea.l a3, a0
        0x006bdeea      41f03000       lea.l (a0, d3.w), a0
        0x006bdeee      41f02000       lea.l (a0, d2.w), a0
        0x006bdef2      22680172       movea.l 0x172(a0), a1
        0x006bdef6      b2fc0001       cmpa.w 0x1, a1
    < 0x006bdefa      6718           beq.b 0x6bdf14
       0x006bdefc      4212           clr.b (a2)
       0x006bdefe      b3e9fffc       cmpa.l -0x4(a1), a1
   < 0x006bdf02      6702           beq.b 0x6bdf06
      0x006bdf04      4e4d           trap 0xd
   > 0x006bdf06      4282           clr.l d2
       0x006bdf08      342e000e       move.w 0xe(a6), d2
       0x006bdf0c      b4a90044       cmp.l 0x44(a1), d2
   < 0x006bdf10      6f02           ble.b 0x6bdf14
      0x006bdf12      5212           addq.b 0x1, (a2)
  > 0x006bdf14      6038           bra.b 0x6bdf4e
     < 0x006bdf16      6036           bra.b 0x6bdf4e
     > 0x006bdf18      9efc0100       suba.w 0x100, a7
         0x006bdf1c      1f00           move.b d0, -(a7)
         0x006bdf1e      4eb9006b835c   jsr USER1_UTILS.entry_t_str
         0x006bdf24      544f           addq.w 0x2, a7
         0x006bdf26      487ac990       pea.l 0x6ba8b8(pc)
         0x006bdf2a      48780018       pea.l 0x18
         0x006bdf2e      2f17           move.l (a7), -(a7)
         0x006bdf30      4e94           jsr (a4)                    ; fcn.0000000d
         0x006bdf32      dec5           adda.w d5, a7
         0x006bdf34      486f0001       pea.l 0x1(a7)
         0x006bdf38      42a7           clr.l -(a7)
         0x006bdf3a      1f6f00080003   move.b 0x8(a7), 0x3(a7)
         0x006bdf40      2f17           move.l (a7), -(a7)
         0x006bdf42      4e94           jsr (a4)                    ; fcn.0000000d
         0x006bdf44      defc010c       adda.w 0x10c, a7
         0x006bdf48      4eb900404946   jsr p_wtln_o
  > 0x006bdf4e      4ebae98a       jsr USER2_DISK.open_gate(pc)
            0x006bdf52      4cdf1fff       movem.l (a7)+, d0-d7/a0-a4
            0x006bdf56      4e5e           unlk a6
            0x006bdf58      4e75           rts
            ; XREFS: CALL 0x005c79dc  CALL 0x006b1abe  CALL 0x006b1b06  
            ; XREFS: CALL 0x006b2c92  CALL 0x006b4432  CALL 0x006b5e78  
            ; XREFS: CALL 0x006b6488  CALL 0x006b64a4  CALL 0x006b64e6  
            ; XREFS: CALL 0x006be47a  CALL 0x006be534  CALL 0x006be6ce  
            ; XREFS: CALL 0x006c27be  CALL 0x00784fee  CALL 0x0079887c  
            ; XREFS: CALL 0x007988a4  
 282: USER2_DISK.drive_range ();
           0x006bdf5a      4e56ffaa       link.w a6, 0xffaa
           0x006bdf5e      bfd5           cmpa.l (a5), a7
       < 0x006bdf60      6206           bhi.b 0x6bdf68
          0x006bdf62      44fc0002       move.w 0x2, ccr
          0x006bdf66      4e76           trapv
       > 0x006bdf68      defc004c       adda.w 0x4c, a7
           0x006bdf6c      48e7fff0       movem.l d0-d7/a0-a3, -(a7)
           0x006bdf70      45ee0008       lea.l 0x8(a6), a2
           0x006bdf74      47f90085519a   lea.l 0x85519a, a3
           0x006bdf7a      7c00           moveq 0x0, d6
           0x006bdf7c      7e01           moveq 0x1, d7
           0x006bdf7e      7a00           moveq 0x0, d5
           0x006bdf80      1f12           move.b (a2), -(a7)
           0x006bdf82      4ebae9c0       jsr USER2_DISK.check_scope(pc)
           0x006bdf86      544f           addq.w 0x2, a7
           0x006bdf88      1012           move.b (a2), d0
           0x006bdf8a      4880           ext.w d0
           0x006bdf8c      013ac942       btst.l d0, 0x6ba8d0(pc)
       < 0x006bdf90      674c           beq.b 0x6bdfde
          0x006bdf92      1212           move.b (a2), d1
          0x006bdf94      4881           ext.w d1
          0x006bdf96      c3fc0048       muls.w 0x48, d1
          0x006bdf9a      204b           movea.l a3, a0
      > 0x006bdf9c      4a06           tst.b d6
     < 0x006bdf9e      660000cc       bne.w 0x6be06c
        0x006bdfa2      beb01046       cmp.l 0x46(a0, d1.w), d7
    < 0x006bdfa6      6e0000c4       bgt.w 0x6be06c
       0x006bdfaa      7400           moveq 0x0, d2
       0x006bdfac      2607           move.l d7, d3
       0x006bdfae      5383           subq.l 0x1, d3
       0x006bdfb0      0c8300000005   cmpi.l 0x5, d3
   < 0x006bdfb6      6302           bls.b 0x6bdfba
      0x006bdfb8      4e4f           trap 0xf
   > 0x006bdfba      e783           asl.l 0x3, d3
       0x006bdfbc      43f01000       lea.l (a0, d1.w), a1
       0x006bdfc0      28313816       move.l 0x16(a1, d3.l), d4
       0x006bdfc4      b8ae000c       cmp.l 0xc(a6), d4
   < 0x006bdfc8      6602           bne.b 0x6bdfcc
      0x006bdfca      5202           addq.b 0x1, d2
   > 0x006bdfcc      1c02           move.b d2, d6
   < 0x006bdfce      6706           beq.b 0x6bdfd6
      0x006bdfd0      2a31381a       move.l 0x1a(a1, d3.l), d5
  < 0x006bdfd4      6002           bra.b 0x6bdfd8
  > 0x006bdfd6      5287           addq.l 0x1, d7
  < 0x006bdfd8      60c2           bra.b 0x6bdf9c
     < 0x006bdfda      60000090       bra.w 0x6be06c              ; USER2_DISK.drive_range+0x112
    > 0x006bdfde      0c000002       cmpi.b 0x2, d0
    < 0x006bdfe2      66000088       bne.w 0x6be06c
       0x006bdfe6      554f           subq.w 0x2, a7
       0x006bdfe8      4281           clr.l d1
       0x006bdfea      122e000a       move.b 0xa(a6), d1
       0x006bdfee      2f01           move.l d1, -(a7)
       0x006bdff0      4281           clr.l d1
       0x006bdff2      122e000b       move.b 0xb(a6), d1
       0x006bdff6      2f01           move.l d1, -(a7)
       0x006bdff8      4ebae9ba       jsr USER2_DISK.stn_known(pc)
       0x006bdffc      504f           addq.w 0x8, a7
       0x006bdffe      4a1f           tst.b (a7)+
   < 0x006be000      676a           beq.b 0x6be06c
  > 0x006be002      4281           clr.l d1
     0x006be004      122e000b       move.b 0xb(a6), d1
     0x006be008      5341           subq.w 0x1, d1
     0x006be00a      43bc001e       chk.w 0x1e, d1
     0x006be00e      e541           asl.w 0x2, d1
     0x006be010      4282           clr.l d2
     0x006be012      142e000a       move.b 0xa(a6), d2
     0x006be016      5342           subq.w 0x1, d2
     0x006be018      45bc001e       chk.w 0x1e, d2
     0x006be01c      c5fc007c       muls.w 0x7c, d2
     0x006be020      204b           movea.l a3, a0
     0x006be022      41f02000       lea.l (a0, d2.w), a0
     0x006be026      41f01000       lea.l (a0, d1.w), a0
     0x006be02a      20680172       movea.l 0x172(a0), a0
     0x006be02e      b1e8fffc       cmpa.l -0x4(a0), a0
 < 0x006be032      6702           beq.b 0x6be036
    0x006be034      4e4d           trap 0xd
 > 0x006be036      4a06           tst.b d6
 < 0x006be038      6632           bne.b 0x6be06c
    0x006be03a      bea8003c       cmp.l 0x3c(a0), d7
 < 0x006be03e      6e2c           bgt.b 0x6be06c
    0x006be040      7200           moveq 0x0, d1
    0x006be042      2407           move.l d7, d2
    0x006be044      5382           subq.l 0x1, d2
    0x006be046      0c8200000005   cmpi.l 0x5, d2
 < 0x006be04c      6302           bls.b 0x6be050
    0x006be04e      4e4f           trap 0xf
 > 0x006be050      e782           asl.l 0x3, d2
    0x006be052      2630280c       move.l 0xc(a0, d2.l), d3
    0x006be056      b6ae000c       cmp.l 0xc(a6), d3
 < 0x006be05a      6602           bne.b 0x6be05e
    0x006be05c      5201           addq.b 0x1, d1
 > 0x006be05e      1c01           move.b d1, d6
 < 0x006be060      6706           beq.b 0x6be068
    0x006be062      2a302810       move.l 0x10(a0, d2.l), d5
 < 0x006be066      6002           bra.b 0x6be06a
 > 0x006be068      5287           addq.l 0x1, d7
 < 0x006be06a      6096           bra.b 0x6be002
 > 0x006be06c      2d450010       move.l d5, 0x10(a6)
           0x006be070      4cdf0fff       movem.l (a7)+, d0-d7/a0-a3
           0x006be074      4e5e           unlk a6
           0x006be076      4e75           rts
 276: USER2_DISK.range_drive ();
           0x006be078      4e56ffae       link.w a6, 0xffae
           0x006be07c      bfd5           cmpa.l (a5), a7
       < 0x006be07e      6206           bhi.b 0x6be086
          0x006be080      44fc0002       move.w 0x2, ccr
          0x006be084      4e76           trapv
       > 0x006be086      defc004c       adda.w 0x4c, a7
           0x006be08a      48e7fff0       movem.l d0-d7/a0-a3, -(a7)
           0x006be08e      45ee000a       lea.l 0xa(a6), a2
           0x006be092      47f90085519a   lea.l 0x85519a, a3
           0x006be098      7a05           moveq 0x5, d5
           0x006be09a      24bcffffffff   move.l 0xffffffff, (a2)
           0x006be0a0      7c00           moveq 0x0, d6
           0x006be0a2      7e01           moveq 0x1, d7
           0x006be0a4      102c0008       move.b 0x8(a4), d0
           0x006be0a8      4880           ext.w d0
           0x006be0aa      013ac826       btst.l d0, 0x6ba8d2(pc)
       < 0x006be0ae      674c           beq.b 0x6be0fc
          0x006be0b0      122c0008       move.b 0x8(a4), d1
          0x006be0b4      4881           ext.w d1
          0x006be0b6      c3fc0048       muls.w 0x48, d1
          0x006be0ba      204b           movea.l a3, a0
      > 0x006be0bc      beb01046       cmp.l 0x46(a0, d1.w), d7
     < 0x006be0c0      6e0000c6       bgt.w 0x6be188
        0x006be0c4      4a06           tst.b d6
    < 0x006be0c6      660000c0       bne.w 0x6be188
       0x006be0ca      7400           moveq 0x0, d2
       0x006be0cc      2607           move.l d7, d3
       0x006be0ce      5383           subq.l 0x1, d3
       0x006be0d0      b685           cmp.l d5, d3
   < 0x006be0d2      6302           bls.b 0x6be0d6
      0x006be0d4      4e4f           trap 0xf
   > 0x006be0d6      e783           asl.l 0x3, d3
       0x006be0d8      43f01000       lea.l (a0, d1.w), a1
       0x006be0dc      4284           clr.l d4
       0x006be0de      382e0008       move.w 0x8(a6), d4
       0x006be0e2      b8b1381a       cmp.l 0x1a(a1, d3.l), d4
   < 0x006be0e6      6602           bne.b 0x6be0ea
      0x006be0e8      5202           addq.b 0x1, d2
   > 0x006be0ea      1c02           move.b d2, d6
   < 0x006be0ec      6706           beq.b 0x6be0f4
      0x006be0ee      24b13816       move.l 0x16(a1, d3.l), (a2)
  < 0x006be0f2      6002           bra.b 0x6be0f6
  > 0x006be0f4      5287           addq.l 0x1, d7
  < 0x006be0f6      60c4           bra.b 0x6be0bc
     < 0x006be0f8      6000008e       bra.w 0x6be188              ; USER2_DISK.range_drive+0x110
    > 0x006be0fc      0c000002       cmpi.b 0x2, d0
    < 0x006be100      66000086       bne.w 0x6be188
       0x006be104      554f           subq.w 0x2, a7
       0x006be106      4281           clr.l d1
       0x006be108      122c000a       move.b 0xa(a4), d1
       0x006be10c      2f01           move.l d1, -(a7)
       0x006be10e      4281           clr.l d1
       0x006be110      122c000b       move.b 0xb(a4), d1
       0x006be114      2f01           move.l d1, -(a7)
       0x006be116      4ebae89c       jsr USER2_DISK.stn_known(pc)
       0x006be11a      504f           addq.w 0x8, a7
       0x006be11c      4a1f           tst.b (a7)+
   < 0x006be11e      6768           beq.b 0x6be188
  > 0x006be120      4281           clr.l d1
     0x006be122      122c000b       move.b 0xb(a4), d1
     0x006be126      5341           subq.w 0x1, d1
     0x006be128      43bc001e       chk.w 0x1e, d1
     0x006be12c      e541           asl.w 0x2, d1
     0x006be12e      4282           clr.l d2
     0x006be130      142c000a       move.b 0xa(a4), d2
     0x006be134      5342           subq.w 0x1, d2
     0x006be136      45bc001e       chk.w 0x1e, d2
     0x006be13a      c5fc007c       muls.w 0x7c, d2
     0x006be13e      204b           movea.l a3, a0
     0x006be140      41f02000       lea.l (a0, d2.w), a0
     0x006be144      41f01000       lea.l (a0, d1.w), a0
     0x006be148      20680172       movea.l 0x172(a0), a0
     0x006be14c      b1e8fffc       cmpa.l -0x4(a0), a0
 < 0x006be150      6702           beq.b 0x6be154
    0x006be152      4e4d           trap 0xd
 > 0x006be154      bea8003c       cmp.l 0x3c(a0), d7
 < 0x006be158      6e2e           bgt.b 0x6be188
    0x006be15a      4a06           tst.b d6
 < 0x006be15c      662a           bne.b 0x6be188
    0x006be15e      7200           moveq 0x0, d1
    0x006be160      2407           move.l d7, d2
    0x006be162      5382           subq.l 0x1, d2
    0x006be164      b485           cmp.l d5, d2
 < 0x006be166      6302           bls.b 0x6be16a
    0x006be168      4e4f           trap 0xf
 > 0x006be16a      e782           asl.l 0x3, d2
    0x006be16c      4283           clr.l d3
    0x006be16e      362e0008       move.w 0x8(a6), d3
    0x006be172      b6b02810       cmp.l 0x10(a0, d2.l), d3
 < 0x006be176      6602           bne.b 0x6be17a
    0x006be178      5201           addq.b 0x1, d1
 > 0x006be17a      1c01           move.b d1, d6
 < 0x006be17c      6706           beq.b 0x6be184
    0x006be17e      24b0280c       move.l 0xc(a0, d2.l), (a2)
 < 0x006be182      6002           bra.b 0x6be186
 > 0x006be184      5287           addq.l 0x1, d7
 < 0x006be186      6098           bra.b 0x6be120
 > 0x006be188      4cdf0fff       movem.l (a7)+, d0-d7/a0-a3
           0x006be18c      4e5e           unlk a6
           0x006be18e      4e75           rts
            ; XREFS: CALL 0x006b6f68  CALL 0x006b6f9a  CALL 0x006be44a  
            ; XREFS: CALL 0x0077e8be  CALL 0x00784fdc  CALL 0x00798826  
 84: USER2_DISK.exch_drive ();
           0x006be190      4e56ffb2       link.w a6, 0xffb2
           0x006be194      bfd5           cmpa.l (a5), a7
       < 0x006be196      6206           bhi.b 0x6be19e
          0x006be198      44fc0002       move.w 0x2, ccr
          0x006be19c      4e76           trapv
       > 0x006be19e      defc004e       adda.w 0x4e, a7
           0x006be1a2      48e7fff8       movem.l d0-d7/a0-a4, -(a7)
           0x006be1a6      43f90085519a   lea.l 0x85519a, a1
           0x006be1ac      45ee0010       lea.l 0x10(a6), a2
           0x006be1b0      47ee000e       lea.l 0xe(a6), a3
           0x006be1b4      7aff           moveq 0xff, d5
           0x006be1b6      7c1e           moveq 0x1e, d6
           0x006be1b8      7e02           moveq 0x2, d7
           0x006be1ba      1f2e0008       move.b 0x8(a6), -(a7)
           0x006be1be      4ebae784       jsr USER2_DISK.check_scope(pc)
           0x006be1c2      544f           addq.w 0x2, a7
           0x006be1c4      2485           move.l d5, (a2)
           0x006be1c6      4ebae680       jsr USER2_DISK.close_gate(pc)
           0x006be1ca      102e000c       move.b 0xc(a6), d0
           0x006be1ce      4880           ext.w d0
           0x006be1d0      5340           subq.w 0x1, d0
           0x006be1d2      0c400009       cmpi.w 0x9, d0
       < 0x006be1d6      6200017e       bhi.w 0x6be356
          0x006be1da      d040           add.w d0, d0
          0x006be1dc      303b0006       move.w 0x6be1e4(pc, d0.w), d0
          0x006be1e0      4efb0002       jmp 0x6be1e4(pc, d0.w)
           0x006be1e4      001400c6       ori.b 0xc6, (a4)
           0x006be1e8      00140172       ori.b 0x72, (a4)
           0x006be1ec      01720014       bchg.b d0, 0x14(a2, d0.w)
           0x006be1f0      017201720014.  bchg.b d0, ([0x140014, a2], 0x102e)
           0x006be1fa      00084880       
           0x006be1fb      08488001       
           0x006be1fc      4880           ext.w d0
           0x006be1fe      013ac6d4       btst.l d0, 0x6ba8d4(pc)
       < 0x006be202      6722           beq.b 0x6be226
          0x006be204      7248           moveq 0x48, d1
          0x006be206      c3c0           muls.w d0, d1
          0x006be208      2049           movea.l a1, a0
          0x006be20a      4282           clr.l d2
          0x006be20c      3413           move.w (a3), d2
          0x006be20e      b4b0104a       cmp.l 0x4a(a0, d1.w), d2
      < 0x006be212      6e06           bgt.b 0x6be21a
   > 0x006be214      2485           move.l d5, (a2)
  < 0x006be216      6000008e       bra.w 0x6be2a6
  > 0x006be21a      4ab01046       tst.l 0x46(a0, d1.w)
  < 0x006be21e      6602           bne.b 0x6be222
  < 0x006be220      60f2           bra.b 0x6be214
   > 0x006be222      2802           move.l d2, d4
   < 0x006be224      6066           bra.b 0x6be28c
   > 0x006be226      b007           cmp.b d7, d0
   < 0x006be228      667c           bne.b 0x6be2a6
      0x006be22a      554f           subq.w 0x2, a7
      0x006be22c      4281           clr.l d1
      0x006be22e      122e000a       move.b 0xa(a6), d1
      0x006be232      2f01           move.l d1, -(a7)
      0x006be234      4281           clr.l d1
      0x006be236      122e000b       move.b 0xb(a6), d1
      0x006be23a      2f01           move.l d1, -(a7)
      0x006be23c      4ebae776       jsr USER2_DISK.stn_known(pc)
      0x006be240      504f           addq.w 0x8, a7
      0x006be242      4a1f           tst.b (a7)+
  < 0x006be244      6760           beq.b 0x6be2a6
     0x006be246      4281           clr.l d1
     0x006be248      122e000b       move.b 0xb(a6), d1
     0x006be24c      5341           subq.w 0x1, d1
     0x006be24e      4386           chk.w d6, d1
     0x006be250      e541           asl.w 0x2, d1
     0x006be252      4282           clr.l d2
     0x006be254      142e000a       move.b 0xa(a6), d2
     0x006be258      5342           subq.w 0x1, d2
     0x006be25a      4586           chk.w d6, d2
     0x006be25c      c5fc007c       muls.w 0x7c, d2
     0x006be260      2049           movea.l a1, a0
     0x006be262      41f02000       lea.l (a0, d2.w), a0
     0x006be266      41f01000       lea.l (a0, d1.w), a0
     0x006be26a      20680172       movea.l 0x172(a0), a0
     0x006be26e      b1e8fffc       cmpa.l -0x4(a0), a0
  < 0x006be272      6702           beq.b 0x6be276
     0x006be274      4e4d           trap 0xd
  > 0x006be276      4281           clr.l d1
     0x006be278      3213           move.w (a3), d1
     0x006be27a      b2a80040       cmp.l 0x40(a0), d1
  < 0x006be27e      6e02           bgt.b 0x6be282
  < 0x006be280      6092           bra.b 0x6be214
  > 0x006be282      4aa8003c       tst.l 0x3c(a0)
  < 0x006be286      6602           bne.b 0x6be28a
  < 0x006be288      608a           bra.b 0x6be214
  > 0x006be28a      2801           move.l d1, d4
    > 0x006be28c      263c000003e8   move.l 0x3e8, d3
        0x006be292      4eb900406b50   jsr fcn.00406b50
        0x006be298      594f           subq.w 0x4, a7
        0x006be29a      3f04           move.w d4, -(a7)
        0x006be29c      284e           movea.l a6, a4
        0x006be29e      4ebafdd8       jsr USER2_DISK.range_drive(pc)
        0x006be2a2      544f           addq.w 0x2, a7
        0x006be2a4      249f           move.l (a7)+, (a2)
  > 0x006be2a6      600000b0       bra.w 0x6be358
          0x006be2aa      102e0008       move.b 0x8(a6), d0
          0x006be2ae      4880           ext.w d0
          0x006be2b0      013ac624       btst.l d0, 0x6ba8d6(pc)
      < 0x006be2b4      6722           beq.b 0x6be2d8
         0x006be2b6      7248           moveq 0x48, d1
         0x006be2b8      c3c0           muls.w d0, d1
         0x006be2ba      2049           movea.l a1, a0
         0x006be2bc      4282           clr.l d2
         0x006be2be      3413           move.w (a3), d2
         0x006be2c0      b4b0104e       cmp.l 0x4e(a0, d1.w), d2
     < 0x006be2c4      6e06           bgt.b 0x6be2cc
  > 0x006be2c6      2485           move.l d5, (a2)
  < 0x006be2c8      6000008a       bra.w 0x6be354
  > 0x006be2cc      4ab01046       tst.l 0x46(a0, d1.w)
  < 0x006be2d0      6602           bne.b 0x6be2d4
  < 0x006be2d2      60f2           bra.b 0x6be2c6
   > 0x006be2d4      2802           move.l d2, d4
   < 0x006be2d6      6066           bra.b 0x6be33e
   > 0x006be2d8      b007           cmp.b d7, d0
   < 0x006be2da      6678           bne.b 0x6be354
      0x006be2dc      554f           subq.w 0x2, a7
      0x006be2de      4281           clr.l d1
      0x006be2e0      122e000a       move.b 0xa(a6), d1
      0x006be2e4      2f01           move.l d1, -(a7)
      0x006be2e6      4281           clr.l d1
      0x006be2e8      122e000b       move.b 0xb(a6), d1
      0x006be2ec      2f01           move.l d1, -(a7)
      0x006be2ee      4ebae6c4       jsr USER2_DISK.stn_known(pc)
      0x006be2f2      504f           addq.w 0x8, a7
      0x006be2f4      4a1f           tst.b (a7)+
  < 0x006be2f6      675c           beq.b 0x6be354
     0x006be2f8      4281           clr.l d1
     0x006be2fa      122e000b       move.b 0xb(a6), d1
     0x006be2fe      5341           subq.w 0x1, d1
     0x006be300      4386           chk.w d6, d1
     0x006be302      e541           asl.w 0x2, d1
     0x006be304      4282           clr.l d2
     0x006be306      142e000a       move.b 0xa(a6), d2
     0x006be30a      5342           subq.w 0x1, d2
     0x006be30c      4586           chk.w d6, d2
     0x006be30e      c5fc007c       muls.w 0x7c, d2
     0x006be312      2049           movea.l a1, a0
     0x006be314      41f02000       lea.l (a0, d2.w), a0
     0x006be318      41f01000       lea.l (a0, d1.w), a0
     0x006be31c      20680172       movea.l 0x172(a0), a0
     0x006be320      b1e8fffc       cmpa.l -0x4(a0), a0
  < 0x006be324      6702           beq.b 0x6be328
     0x006be326      4e4d           trap 0xd
  > 0x006be328      4281           clr.l d1
     0x006be32a      3213           move.w (a3), d1
     0x006be32c      b2a80044       cmp.l 0x44(a0), d1
  < 0x006be330      6e02           bgt.b 0x6be334
  < 0x006be332      6092           bra.b 0x6be2c6
  > 0x006be334      4aa8003c       tst.l 0x3c(a0)
  < 0x006be338      6602           bne.b 0x6be33c
  < 0x006be33a      608a           bra.b 0x6be2c6
  > 0x006be33c      2801           move.l d1, d4
    > 0x006be33e      7664           moveq 0x64, d3
        0x006be340      4eb900406b50   jsr fcn.00406b50
        0x006be346      594f           subq.w 0x4, a7
        0x006be348      3f04           move.w d4, -(a7)
        0x006be34a      284e           movea.l a6, a4
        0x006be34c      4ebafd2a       jsr USER2_DISK.range_drive(pc)
        0x006be350      544f           addq.w 0x2, a7
        0x006be352      249f           move.l (a7)+, (a2)
  > 0x006be354      6002           bra.b 0x6be358
      > 0x006be356      2485           move.l d5, (a2)
     > 0x006be358      4ebae580       jsr USER2_DISK.open_gate(pc)
            0x006be35c      4cdf1fff       movem.l (a7)+, d0-d7/a0-a4
            0x006be360      4e5e           unlk a6
            0x006be362      4e75           rts
            ; CALL XREFS from USER.copy_stack @ 0x2b88, 0x39f2, 0x6b6822, 0x6b6966
 730: USER2_DISK.on_exchangeable ();
           ; var int32_t var_8h @ a7+0x8
           0x006be364      4e56fea6       link.w a6, 0xfea6
           0x006be368      bfd5           cmpa.l (a5), a7
       < 0x006be36a      6206           bhi.b 0x6be372
          0x006be36c      44fc0002       move.w 0x2, ccr
          0x006be370      4e76           trapv
       > 0x006be372      defc0148       adda.w 0x148, a7
           0x006be376      48e7fff8       movem.l d0-d7/a0-a4, -(a7)
           0x006be37a      47ee0014       lea.l 0x14(a6), a3
           0x006be37e      49f9004047ea   lea.l p_wts_o, a4
           0x006be384      7801           moveq 0x1, d4
           0x006be386      7a0c           moveq 0xc, d5
           0x006be388      1f13           move.b (a3), -(a7)
           0x006be38a      4ebae5b8       jsr USER2_DISK.check_scope(pc)
           0x006be38e      544f           addq.w 0x2, a7
           0x006be390      206e0008       movea.l 0x8(a6), a0
           0x006be394      4210           clr.b (a0)
           0x006be396      554f           subq.w 0x2, a7
           0x006be398      4eb9006ba3c2   jsr USER1_UTILS.udebug_on
           0x006be39e      4a1f           tst.b (a7)+
       < 0x006be3a0      6748           beq.b 0x6be3ea
          0x006be3a2      487ac534       pea.l 0x6ba8d8(pc)
          0x006be3a6      4878000d       pea.l 0xd
          0x006be3aa      2f17           move.l (a7), -(a7)
          0x006be3ac      4e94           jsr (a4)                    ; fcn.0000000d
          0x006be3ae      dec5           adda.w d5, a7
          0x006be3b0      4280           clr.l d0
          0x006be3b2      302e001c       move.w 0x1c(a6), d0
          0x006be3b6      2f00           move.l d0, -(a7)
          0x006be3b8      48780000       pea.l 0x0
          0x006be3bc      4eb9004070e4   jsr p_wti_o
          0x006be3c2      504f           addq.w 0x8, a7
          0x006be3c4      487ac520       pea.l 0x6ba8e6(pc)
          0x006be3c8      4878000b       pea.l 0xb
          0x006be3cc      2f17           move.l (a7), -(a7)
          0x006be3ce      4e94           jsr (a4)                    ; fcn.0000000d
          0x006be3d0      dec5           adda.w d5, a7
          0x006be3d2      226e0010       movea.l 0x10(a6), a1
          0x006be3d6      2f11           move.l (a1), -(a7)
          0x006be3d8      4878ffff       pea.l 0xffff
          0x006be3dc      4eb9004070e4   jsr p_wti_o
          0x006be3e2      504f           addq.w 0x8, a7
          0x006be3e4      4eb900404946   jsr p_wtln_o
       > 0x006be3ea      554f           subq.w 0x2, a7
           0x006be3ec      3f2e001c       move.w 0x1c(a6), -(a7)
           0x006be3f0      1f2e0018       move.b 0x18(a6), -(a7)
           0x006be3f4      2f13           move.l (a3), -(a7)
           0x006be3f6      4ebaf8d0       jsr USER2_DISK.exch_num(pc)
           0x006be3fa      504f           addq.w 0x8, a7
           0x006be3fc      226e0010       movea.l 0x10(a6), a1
           0x006be400      554f           subq.w 0x2, a7
           0x006be402      2f11           move.l (a1), -(a7)
           0x006be404      4ebaf2da       jsr USER2_DISK.volume_removeab(pc)
           0x006be408      584f           addq.w 0x4, a7
           0x006be40a      102f0002       move.b 0x2(a7), d0
           0x006be40e      801f           or.b (a7)+, d0
           0x006be410      4880           ext.w d0
           0x006be412      4184           chk.w d4, d0
           0x006be414      1c00           move.b d0, d6
       < 0x006be416      670001ae       beq.w 0x6be5c6
          0x006be41a      554f           subq.w 0x2, a7
          0x006be41c      4eb9006ba3c2   jsr USER1_UTILS.udebug_on
          0x006be422      4a1f           tst.b (a7)+
      < 0x006be424      6714           beq.b 0x6be43a
         0x006be426      487ac4ca       pea.l 0x6ba8f2(pc)
         0x006be42a      4878000c       pea.l 0xc
         0x006be42e      2f17           move.l (a7), -(a7)
         0x006be430      4e94           jsr (a4)                    ; fcn.0000000d
         0x006be432      dec5           adda.w d5, a7
         0x006be434      4eb900404946   jsr p_wtln_o
      > 0x006be43a      246e000c       movea.l 0xc(a6), a2
          0x006be43e      594f           subq.w 0x4, a7
          0x006be440      3f2e001c       move.w 0x1c(a6), -(a7)
          0x006be444      1f2e0018       move.b 0x18(a6), -(a7)
          0x006be448      2f13           move.l (a3), -(a7)
          0x006be44a      4ebafd44       jsr USER2_DISK.exch_drive(pc)
          0x006be44e      504f           addq.w 0x8, a7
          0x006be450      201f           move.l (a7)+, d0
          0x006be452      2480           move.l d0, (a2)
          0x006be454      0c80ffffffff   cmpi.l 0xffffffff, d0
      < 0x006be45a      666a           bne.b 0x6be4c6
         0x006be45c      9ec5           suba.w d5, a7
         0x006be45e      2f11           move.l (a1), -(a7)
         0x006be460      4eb9005fb748   jsr F6_VOLUME.f_vol_status
         0x006be466      584f           addq.w 0x4, a7
         0x006be468      2d5ffff0       move.l (a7)+, -0x10(a6)
         0x006be46c      2d5ffff4       move.l (a7)+, -0xc(a6)
         0x006be470      2d57fff8       move.l (a7), -0x8(a6)
         0x006be474      2f2efff4       move.l -0xc(a6), -(a7)
         0x006be478      2f13           move.l (a3), -(a7)
         0x006be47a      4ebafade       jsr USER2_DISK.drive_range(pc)
         0x006be47e      504f           addq.w 0x8, a7
         0x006be480      2e1f           move.l (a7)+, d7
         0x006be482      122e0018       move.b 0x18(a6), d1
         0x006be486      b204           cmp.b d4, d1
     < 0x006be488      6616           bne.b 0x6be4a0
        0x006be48a      48780065       pea.l 0x65
        0x006be48e      2f13           move.l (a3), -(a7)
        0x006be490      1f04           move.b d4, -(a7)
        0x006be492      4227           clr.b -(a7)
        0x006be494      0c870000ffff   cmpi.l 0xffff, d7
    < 0x006be49a      6302           bls.b 0x6be49e
       0x006be49c      4e4f           trap 0xf
   > 0x006be49e      6014           bra.b 0x6be4b4
    > 0x006be4a0      48780064       pea.l 0x64
        0x006be4a4      2f13           move.l (a3), -(a7)
        0x006be4a6      1f04           move.b d4, -(a7)
        0x006be4a8      1f04           move.b d4, -(a7)
        0x006be4aa      0c870000ffff   cmpi.l 0xffff, d7
    < 0x006be4b0      6302           bls.b 0x6be4b4
       0x006be4b2      4e4f           trap 0xf
   > 0x006be4b4      3f07           move.w d7, -(a7)
         0x006be4b6      4eb9006b7fd8   jsr USER1_UTILS.num_error
         0x006be4bc      defc000e       adda.w 0xe, a7
         0x006be4c0      1084           move.b d4, (a0)
     < 0x006be4c2      6000012e       bra.w 0x6be5f2
     > 0x006be4c6      122e001a       move.b 0x1a(a6), d1
         0x006be4ca      4881           ext.w d1
         0x006be4cc      033ac430       btst.l d1, 0x6ba8fe(pc)
     < 0x006be4d0      6712           beq.b 0x6be4e4
        0x006be4d2      594f           subq.w 0x4, a7
        0x006be4d4      2f00           move.l d0, -(a7)
        0x006be4d6      4eb9005fb938   jsr F6_VOLUME.f_vol_on
        0x006be4dc      584f           addq.w 0x4, a7
        0x006be4de      229f           move.l (a7)+, (a1)
    < 0x006be4e0      60000110       bra.w 0x6be5f2
    > 0x006be4e4      b204           cmp.b d4, d1
    < 0x006be4e6      6600010a       bne.w 0x6be5f2
       0x006be4ea      2411           move.l (a1), d2
       0x006be4ec      0c82fffffffd   cmpi.l 0xfffffffd, d2
   < 0x006be4f2      670000ac       beq.w 0x6be5a0
      0x006be4f6      594f           subq.w 0x4, a7
      0x006be4f8      2f00           move.l d0, -(a7)
      0x006be4fa      4eb9005fb938   jsr F6_VOLUME.f_vol_on
      0x006be500      584f           addq.w 0x4, a7
      0x006be502      b49f           cmp.l (a7)+, d2
  < 0x006be504      6700009a       beq.w 0x6be5a0
     0x006be508      554f           subq.w 0x2, a7
     0x006be50a      2f02           move.l d2, -(a7)
     0x006be50c      4ebaf1d2       jsr USER2_DISK.volume_removeab(pc)
     0x006be510      584f           addq.w 0x4, a7
     0x006be512      4a1f           tst.b (a7)+
 < 0x006be514      6766           beq.b 0x6be57c
    0x006be516      9ec5           suba.w d5, a7
    0x006be518      2f02           move.l d2, -(a7)
    0x006be51a      4eb9005fb748   jsr F6_VOLUME.f_vol_status
    0x006be520      584f           addq.w 0x4, a7
    0x006be522      2d5ffff0       move.l (a7)+, -0x10(a6)
    0x006be526      2d5ffff4       move.l (a7)+, -0xc(a6)
    0x006be52a      2d57fff8       move.l (a7), -0x8(a6)
    0x006be52e      2f2efff4       move.l -0xc(a6), -(a7)
    0x006be532      2f13           move.l (a3), -(a7)
    0x006be534      4ebafa24       jsr USER2_DISK.drive_range(pc)
    0x006be538      504f           addq.w 0x8, a7
    0x006be53a      2e1f           move.l (a7)+, d7
    0x006be53c      162e0018       move.b 0x18(a6), d3
    0x006be540      b604           cmp.b d4, d3
 < 0x006be542      6616           bne.b 0x6be55a
    0x006be544      48780065       pea.l 0x65
    0x006be548      2f13           move.l (a3), -(a7)
    0x006be54a      1f04           move.b d4, -(a7)
    0x006be54c      4227           clr.b -(a7)
    0x006be54e      0c870000ffff   cmpi.l 0xffff, d7
 < 0x006be554      6302           bls.b 0x6be558
    0x006be556      4e4f           trap 0xf
 > 0x006be558      6014           bra.b 0x6be56e
 > 0x006be55a      48780064       pea.l 0x64
    0x006be55e      2f13           move.l (a3), -(a7)
    0x006be560      1f04           move.b d4, -(a7)
    0x006be562      1f04           move.b d4, -(a7)
    0x006be564      0c870000ffff   cmpi.l 0xffff, d7
 < 0x006be56a      6302           bls.b 0x6be56e
    0x006be56c      4e4f           trap 0xf
 > 0x006be56e      3f07           move.w d7, -(a7)
    0x006be570      4eb9006b7fd8   jsr USER1_UTILS.num_error
    0x006be576      defc000e       adda.w 0xe, a7
 < 0x006be57a      6022           bra.b 0x6be59e
 > 0x006be57c      48780066       pea.l 0x66
     0x006be580      2f13           move.l (a3), -(a7)
     0x006be582      4227           clr.b -(a7)
     0x006be584      4227           clr.b -(a7)
     0x006be586      554f           subq.w 0x2, a7
     0x006be588      1f2e0018       move.b 0x18(a6), -(a7)
     0x006be58c      2f13           move.l (a3), -(a7)
     0x006be58e      4ebaf53e       jsr USER2_DISK.max_fixed_numbe(pc)
     0x006be592      5c4f           addq.w 0x6, a7
     0x006be594      4eb9006b7fd8   jsr USER1_UTILS.num_error
     0x006be59a      defc000e       adda.w 0xe, a7
 > 0x006be59e      1084           move.b d4, (a0)
  > 0x006be5a0      594f           subq.w 0x4, a7
       0x006be5a2      2f00           move.l d0, -(a7)
       0x006be5a4      4eb9005fb938   jsr F6_VOLUME.f_vol_on
       0x006be5aa      584f           addq.w 0x4, a7
       0x006be5ac      4a9f           tst.l (a7)+
   < 0x006be5ae      6642           bne.b 0x6be5f2
      0x006be5b0      487ac34e       pea.l 0x6ba900(pc)
      0x006be5b4      48780012       pea.l 0x12
      0x006be5b8      2f17           move.l (a7), -(a7)
      0x006be5ba      4e94           jsr (a4)                    ; fcn.0000000d
      0x006be5bc      dec5           adda.w d5, a7
      0x006be5be      4eb900404946   jsr p_wtln_o
  < 0x006be5c4      602c           bra.b 0x6be5f2
  > 0x006be5c6      554f           subq.w 0x2, a7
      0x006be5c8      4eb9006ba3c2   jsr USER1_UTILS.udebug_on
      0x006be5ce      4a1f           tst.b (a7)+
  < 0x006be5d0      6714           beq.b 0x6be5e6
     0x006be5d2      487ac33f       pea.l 0x6ba913(pc)
     0x006be5d6      48780007       pea.l 0x7
     0x006be5da      2f17           move.l (a7), -(a7)
     0x006be5dc      4e94           jsr (a4)                    ; fcn.0000000d
     0x006be5de      dec5           adda.w d5, a7
     0x006be5e0      4eb900404946   jsr p_wtln_o
  > 0x006be5e6      4291           clr.l (a1)
      0x006be5e8      246e000c       movea.l 0xc(a6), a2
      0x006be5ec      24bcffffffff   move.l 0xffffffff, (a2)
  > 0x006be5f2      4eb9006ba3c2   jsr USER1_UTILS.udebug_on
           0x006be5f8      4a1f           tst.b (a7)+
       < 0x006be5fa      6736           beq.b 0x6be632
          0x006be5fc      4a10           tst.b (a0)
      < 0x006be5fe      6732           beq.b 0x6be632
         0x006be600      9efc0100       suba.w 0x100, a7
         0x006be604      4eb900408ec0   jsr p_err_string
         0x006be60a      487ac30f       pea.l 0x6ba91b(pc)
         0x006be60e      48780011       pea.l 0x11
         0x006be612      2f17           move.l (a7), -(a7)
         0x006be614      4e94           jsr (a4)                    ; fcn.0000000d
         0x006be616      dec5           adda.w d5, a7
         0x006be618      486f0001       pea.l 0x1(a7)
         0x006be61c      42a7           clr.l -(a7)
         0x006be61e      1f6f00080003   move.b 0x8(a7), 0x3(a7)
         0x006be624      2f17           move.l (a7), -(a7)
         0x006be626      4e94           jsr (a4)                    ; fcn.0000000d
         0x006be628      defc010c       adda.w 0x10c, a7
         0x006be62c      4eb900404946   jsr p_wtln_o
      > 0x006be632      1d46001e       move.b d6, 0x1e(a6)
           0x006be636      4cdf1fff       movem.l (a7)+, d0-d7/a0-a4
           0x006be63a      4e5e           unlk a6
           0x006be63c      4e75           rts
            ; CALL XREFS from K7_HANDLERS.do_copy_stack @ 0x5b5800, 0x5b589c
            ; CALL XREF from SEARCHER.get_num_range @ 0x5e1f56
 282: USER2_DISK.vol_num_range ();
           ; var int32_t var_1h @ a7+0x1
           ; var int32_t var_2h @ a7+0x2
           ; var int32_t var_3h @ a7+0x3
           0x006be63e      4e56ffb6       link.w a6, 0xffb6
           0x006be642      bfd5           cmpa.l (a5), a7
       < 0x006be644      6206           bhi.b 0x6be64c
          0x006be646      44fc0002       move.w 0x2, ccr
          0x006be64a      4e76           trapv
       > 0x006be64c      defc003c       adda.w 0x3c, a7
           0x006be650      48e7e1e0       movem.l d0-d2/d7/a0-a2, -(a7)
           0x006be654      223c0000ffff   move.l 0xffff, d1
           0x006be65a      7401           moveq 0x1, d2
           0x006be65c      206e000c       movea.l 0xc(a6), a0
           0x006be660      4250           clr.w (a0)
           0x006be662      226e0008       movea.l 0x8(a6), a1
           0x006be666      4251           clr.w (a1)
           0x006be668      246e0010       movea.l 0x10(a6), a2
           0x006be66c      594f           subq.w 0x4, a7
           0x006be66e      2f2e0016       move.l 0x16(a6), -(a7)
           0x006be672      4ebaf1b8       jsr USER2_DISK.volume_region(pc)
           0x006be676      584f           addq.w 0x4, a7
           0x006be678      1497           move.b (a7), (a2)
           0x006be67a      156f00010001   move.b 0x1(a7), 0x1(a2)
           0x006be680      156f00020002   move.b 0x2(a7), 0x2(a2)
           0x006be686      156f00030003   move.b 0x3(a7), 0x3(a2)
           0x006be68c      514f           subq.w 0x8, a7
           0x006be68e      2f2e0016       move.l 0x16(a6), -(a7)
           0x006be692      4eb9005fb748   jsr F6_VOLUME.f_vol_status
           0x006be698      584f           addq.w 0x4, a7
           0x006be69a      2d5ffff2       move.l (a7)+, -0xe(a6)
           0x006be69e      2d5ffff6       move.l (a7)+, -0xa(a6)
           0x006be6a2      2d5ffffa       move.l (a7)+, -0x6(a6)
           0x006be6a6      202efffa       move.l -0x6(a6), d0
           0x006be6aa      028000000004   andi.l 0x4, d0
       < 0x006be6b0      676c           beq.b 0x6be71e
          0x006be6b2      594f           subq.w 0x4, a7
          0x006be6b4      2f2efff6       move.l -0xa(a6), -(a7)
          0x006be6b8      594f           subq.w 0x4, a7
          0x006be6ba      1e92           move.b (a2), (a7)
          0x006be6bc      1f6a00010001   move.b 0x1(a2), 0x1(a7)
          0x006be6c2      1f6a00020002   move.b 0x2(a2), 0x2(a7)
          0x006be6c8      1f6a00030003   move.b 0x3(a2), 0x3(a7)
          0x006be6ce      4ebaf88a       jsr USER2_DISK.drive_range(pc)
          0x006be6d2      504f           addq.w 0x8, a7
          0x006be6d4      201f           move.l (a7)+, d0
          0x006be6d6      b081           cmp.l d1, d0
      < 0x006be6d8      6302           bls.b 0x6be6dc
         0x006be6da      4e4f           trap 0xf
      > 0x006be6dc      3e00           move.w d0, d7
      < 0x006be6de      6770           beq.b 0x6be750
         0x006be6e0      4a2e0014       tst.b 0x14(a6)
     < 0x006be6e4      671c           beq.b 0x6be702
        0x006be6e6      7064           moveq 0x64, d0
        0x006be6e8      c0c7           mulu.w d7, d0
        0x006be6ea      b081           cmp.l d1, d0
    < 0x006be6ec      6302           bls.b 0x6be6f0
       0x006be6ee      4e4f           trap 0xf
    > 0x006be6f0      3080           move.w d0, (a0)
        0x006be6f2      068000000063   addi.l 0x63, d0
        0x006be6f8      b081           cmp.l d1, d0
    < 0x006be6fa      6302           bls.b 0x6be6fe
       0x006be6fc      4e4f           trap 0xf
   > 0x006be6fe      3280           move.w d0, (a1)
   < 0x006be700      604e           bra.b 0x6be750
   > 0x006be702      303c03e8       move.w 0x3e8, d0
       0x006be706      c0c7           mulu.w d7, d0
       0x006be708      b081           cmp.l d1, d0
   < 0x006be70a      6302           bls.b 0x6be70e
      0x006be70c      4e4f           trap 0xf
   > 0x006be70e      3080           move.w d0, (a0)
       0x006be710      0680000003e7   addi.l 0x3e7, d0
       0x006be716      b081           cmp.l d1, d0
   < 0x006be718      6302           bls.b 0x6be71c
      0x006be71a      4e4f           trap 0xf
   > 0x006be71c      60e0           bra.b 0x6be6fe
     > 0x006be71e      3082           move.w d2, (a0)
         0x006be720      4a2e0014       tst.b 0x14(a6)
     < 0x006be724      6708           beq.b 0x6be72e
        0x006be726      554f           subq.w 0x2, a7
        0x006be728      1f3c0002       move.b 0x2, -(a7)
    < 0x006be72c      6004           bra.b 0x6be732
    > 0x006be72e      554f           subq.w 0x2, a7
        0x006be730      1f02           move.b d2, -(a7)
    > 0x006be732      594f           subq.w 0x4, a7
         0x006be734      1e92           move.b (a2), (a7)
         0x006be736      1f6a00010001   move.b 0x1(a2), 0x1(a7)
         0x006be73c      1f6a00020002   move.b 0x2(a2), 0x2(a7)
         0x006be742      1f6a00030003   move.b 0x3(a2), 0x3(a7)
         0x006be748      4ebaf384       jsr USER2_DISK.max_fixed_numbe(pc)
         0x006be74c      5c4f           addq.w 0x6, a7
         0x006be74e      329f           move.w (a7)+, (a1)
    > 0x006be750      4cdf0787       movem.l (a7)+, d0-d2/d7/a0-a2
           0x006be754      4e5e           unlk a6
           0x006be756      4e75           rts
            ; CALL XREF from USER2_DISK.get_fixed_volum @ 0x6be846
            ; CALL XREF from USER2_DISK.set_fixed_user @ 0x6bfdaa
 214: USER2_DISK.ntable_volume ();
           0x006be758      4e56ffd8       link.w a6, 0xffd8
           0x006be75c      bfd5           cmpa.l (a5), a7
       < 0x006be75e      6206           bhi.b 0x6be766
          0x006be760      44fc0002       move.w 0x2, ccr
          0x006be764      4e76           trapv
       > 0x006be766      defc0028       adda.w 0x28, a7
           0x006be76a      48e7f0c0       movem.l d0-d3/a0-a1, -(a7)
           0x006be76e      43ee000c       lea.l 0xc(a6), a1
           0x006be772      761e           moveq 0x1e, d3
           0x006be774      4ebae0d2       jsr USER2_DISK.close_gate(pc)
           0x006be778      4291           clr.l (a1)
           0x006be77a      4a2e0008       tst.b 0x8(a6)
       < 0x006be77e      6612           bne.b 0x6be792
          0x006be780      4a39008551ae   tst.b 0x8551ae
      < 0x006be786      670a           beq.b 0x6be792
         0x006be788      22b9008551a8   move.l 0x8551a8, (a1)
     < 0x006be78e      60000092       bra.w 0x6be822
     > 0x006be792      102e0008       move.b 0x8(a6), d0
          0x006be796      0c000001       cmpi.b 0x1, d0
      < 0x006be79a      6610           bne.b 0x6be7ac
         0x006be79c      4a39008551f6   tst.b 0x8551f6
     < 0x006be7a2      6708           beq.b 0x6be7ac
        0x006be7a4      22b9008551f0   move.l 0x8551f0, (a1)
    < 0x006be7aa      6076           bra.b 0x6be822
    > 0x006be7ac      0c000004       cmpi.b 0x4, d0
     < 0x006be7b0      6610           bne.b 0x6be7c2
        0x006be7b2      4a39008552ce   tst.b 0x8552ce
    < 0x006be7b8      6708           beq.b 0x6be7c2
       0x006be7ba      22b9008552c8   move.l 0x8552c8, (a1)
   < 0x006be7c0      6060           bra.b 0x6be822
   > 0x006be7c2      0c000002       cmpi.b 0x2, d0
    < 0x006be7c6      665a           bne.b 0x6be822
       0x006be7c8      554f           subq.w 0x2, a7
       0x006be7ca      4281           clr.l d1
       0x006be7cc      122e000a       move.b 0xa(a6), d1
       0x006be7d0      2f01           move.l d1, -(a7)
       0x006be7d2      4281           clr.l d1
       0x006be7d4      122e000b       move.b 0xb(a6), d1
       0x006be7d8      2f01           move.l d1, -(a7)
       0x006be7da      4ebae1d8       jsr USER2_DISK.stn_known(pc)
       0x006be7de      504f           addq.w 0x8, a7
       0x006be7e0      4a1f           tst.b (a7)+
   < 0x006be7e2      673e           beq.b 0x6be822
      0x006be7e4      4281           clr.l d1
      0x006be7e6      122e000b       move.b 0xb(a6), d1
      0x006be7ea      5341           subq.w 0x1, d1
      0x006be7ec      4383           chk.w d3, d1
      0x006be7ee      e541           asl.w 0x2, d1
      0x006be7f0      4282           clr.l d2
      0x006be7f2      142e000a       move.b 0xa(a6), d2
      0x006be7f6      5342           subq.w 0x1, d2
      0x006be7f8      4583           chk.w d3, d2
      0x006be7fa      c5fc007c       muls.w 0x7c, d2
      0x006be7fe      41f90085519a   lea.l 0x85519a, a0
      0x006be804      41f02000       lea.l (a0, d2.w), a0
      0x006be808      41f01000       lea.l (a0, d1.w), a0
      0x006be80c      20680172       movea.l 0x172(a0), a0
      0x006be810      b1e8fffc       cmpa.l -0x4(a0), a0
  < 0x006be814      6702           beq.b 0x6be818
     0x006be816      4e4d           trap 0xd
  > 0x006be818      4a28000a       tst.b 0xa(a0)
  < 0x006be81c      6704           beq.b 0x6be822
     0x006be81e      22a80004       move.l 0x4(a0), (a1)
  > 0x006be822      4ebae0b6       jsr USER2_DISK.open_gate(pc)
           0x006be826      4cdf030f       movem.l (a7)+, d0-d3/a0-a1
           0x006be82a      4e5e           unlk a6
           0x006be82c      4e75           rts
 38: USER2_DISK.get_fixed_volum ();
           0x006be82e      4e56fff4       link.w a6, 0xfff4
           0x006be832      bfd5           cmpa.l (a5), a7
       < 0x006be834      6206           bhi.b 0x6be83c
          0x006be836      44fc0002       move.w 0x2, ccr
          0x006be83a      4e76           trapv
       > 0x006be83c      defc000c       adda.w 0xc, a7
           0x006be840      594f           subq.w 0x4, a7
           0x006be842      2f2e0008       move.l 0x8(a6), -(a7)
           0x006be846      4ebaff10       jsr USER2_DISK.ntable_volume(pc)
           0x006be84a      584f           addq.w 0x4, a7
           0x006be84c      2d5f000c       move.l (a7)+, 0xc(a6)
           0x006be850      4e5e           unlk a6
           0x006be852      4e75           rts
            ; CALL XREFS from USER2_DISK.init_user @ 0x6c4e18, 0x6c4ff8
 998: USER2_DISK.ntable_drive (int32_t arg_8h);
           ; var int32_t var_1ah @ a6-0x1a
           ; var int32_t var_16h @ a6-0x16
           ; var int32_t var_12h @ a6-0x12
           ; var int32_t var_10h @ a6-0x10
           ; var int32_t var_ah @ a6-0xa
           ; arg int32_t arg_8h @ a6+0x8
           ; var int32_t var_8h @ a7+0x8
           0x006be854      4e56fcfa       link.w a6, 0xfcfa
           0x006be858      bfd5           cmpa.l (a5), a7
       < 0x006be85a      6206           bhi.b 0x6be862
          0x006be85c      44fc0002       move.w 0x2, ccr
          0x006be860      4e76           trapv
       > 0x006be862      defc0150       adda.w 0x150, a7
           0x006be866      48e7fff8       movem.l d0-d7/a0-a4, -(a7)
           0x006be86a      43f9004047ea   lea.l p_wts_o, a1
           0x006be870      45f9004070e4   lea.l p_wti_o, a2
           0x006be876      47ee0008       lea.l 0x8(a6), a3
           0x006be87a      49f9006ba3c2   lea.l USER1_UTILS.udebug_on, a4
           0x006be880      760c           moveq 0xc, d3
           0x006be882      383c0100       move.w 0x100, d4
           0x006be886      1f13           move.b (a3), -(a7)
           0x006be888      4ebae0ba       jsr USER2_DISK.check_scope(pc)
           0x006be88c      4e94           jsr (a4)                    ; fcn.0000000d
           0x006be88e      4a1f           tst.b (a7)+
       < 0x006be890      6742           beq.b 0x6be8d4
          0x006be892      9ec4           suba.w d4, a7
          0x006be894      2f13           move.l (a3), -(a7)
          0x006be896      4eb9006b8ed2   jsr USER1_UTILS.region_str
          0x006be89c      584f           addq.w 0x4, a7
          0x006be89e      487ac08d       pea.l 0x6ba92d(pc)
          0x006be8a2      48780010       pea.l 0x10
          0x006be8a6      2f17           move.l (a7), -(a7)
          0x006be8a8      4e91           jsr (a1)                    ; fcn.0000000a
          0x006be8aa      dec3           adda.w d3, a7
          0x006be8ac      486f0001       pea.l 0x1(a7)
          0x006be8b0      42a7           clr.l -(a7)
          0x006be8b2      1f6f00080003   move.b 0x8(a7), 0x3(a7)
          0x006be8b8      2f17           move.l (a7), -(a7)
          0x006be8ba      4e91           jsr (a1)                    ; fcn.0000000a
          0x006be8bc      defc010c       adda.w 0x10c, a7
          0x006be8c0      487ac07c       pea.l 0x6ba93e(pc)
          0x006be8c4      48780008       pea.l 0x8
          0x006be8c8      2f17           move.l (a7), -(a7)
          0x006be8ca      4e91           jsr (a1)                    ; fcn.0000000a
          0x006be8cc      dec3           adda.w d3, a7
          0x006be8ce      4eb900404946   jsr p_wtln_o
       > 0x006be8d4      486effe6       pea.l -0x1a(a6)
           0x006be8d8      4ebae334       jsr USER2_DISK.clr_drv_info(pc)
           0x006be8dc      486efe52       pea.l -0x1ae(a6)
           0x006be8e0      4267           clr.w -(a7)
           0x006be8e2      3f3c0063       move.w 0x63, -(a7)
           0x006be8e6      4eb9005fb874   jsr F6_VOLUME.f_list_volumes
           0x006be8ec      504f           addq.w 0x8, a7
           0x006be8ee      2a17           move.l (a7), d5
           0x006be8f0      544f           addq.w 0x2, a7
           0x006be8f2      4e94           jsr (a4)                    ; fcn.0000000d
           0x006be8f4      4a1f           tst.b (a7)+
       < 0x006be8f6      671e           beq.b 0x6be916
          0x006be8f8      2f05           move.l d5, -(a7)
          0x006be8fa      48780000       pea.l 0x0
          0x006be8fe      4e92           jsr (a2)                    ; fcn.00000009+0x2
          0x006be900      504f           addq.w 0x8, a7
          0x006be902      487ac043       pea.l 0x6ba947(pc)
          0x006be906      48780011       pea.l 0x11
          0x006be90a      2f17           move.l (a7), -(a7)
          0x006be90c      4e91           jsr (a1)                    ; fcn.0000000a
          0x006be90e      dec3           adda.w d3, a7
          0x006be910      4eb900404946   jsr p_wtln_o
       > 0x006be916      4a85           tst.l d5
       < 0x006be918      670001ac       beq.w 0x6beac6
          0x006be91c      2f05           move.l d5, -(a7)
          0x006be91e      5397           subq.l 0x1, (a7)
          0x006be920      7c00           moveq 0x0, d6
      > 0x006be922      bc97           cmp.l (a7), d6
     < 0x006be924      6e00019e       bgt.w 0x6beac4
        0x006be928      554f           subq.w 0x2, a7
        0x006be92a      4e94           jsr (a4)                    ; fcn.0000000d
        0x006be92c      4a1f           tst.b (a7)+
    < 0x006be92e      671e           beq.b 0x6be94e
       0x006be930      0c8600000063   cmpi.l 0x63, d6
   < 0x006be936      6302           bls.b 0x6be93a
      0x006be938      4e4f           trap 0xf
   > 0x006be93a      2006           move.l d6, d0
       0x006be93c      e580           asl.l 0x2, d0
       0x006be93e      41eefe4a       lea.l -0x1b6(a6), a0
       0x006be942      2f300808       move.l 0x8(a0, d0.l), -(a7)
       0x006be946      4eb9006b8796   jsr USER1_UTILS.show_volume
       0x006be94c      584f           addq.w 0x4, a7
    > 0x006be94e      0c8600000063   cmpi.l 0x63, d6
    < 0x006be954      6302           bls.b 0x6be958
       0x006be956      4e4f           trap 0xf
    > 0x006be958      2006           move.l d6, d0
        0x006be95a      e580           asl.l 0x2, d0
        0x006be95c      41eefe4a       lea.l -0x1b6(a6), a0
        0x006be960      554f           subq.w 0x2, a7
        0x006be962      2f300808       move.l 0x8(a0, d0.l), -(a7)
        0x006be966      2f13           move.l (a3), -(a7)
        0x006be968      4ebae8ec       jsr USER2_DISK.volume_suitable(pc)
        0x006be96c      504f           addq.w 0x8, a7
        0x006be96e      4a1f           tst.b (a7)+
    < 0x006be970      6700014c       beq.w 0x6beabe
       0x006be974      554f           subq.w 0x2, a7
       0x006be976      4e94           jsr (a4)                    ; fcn.0000000d
       0x006be978      4a1f           tst.b (a7)+
   < 0x006be97a      674e           beq.b 0x6be9ca
      0x006be97c      9ec4           suba.w d4, a7
      0x006be97e      2f13           move.l (a3), -(a7)
      0x006be980      4eb9006b8ed2   jsr USER1_UTILS.region_str
      0x006be986      584f           addq.w 0x4, a7
      0x006be988      487abfcf       pea.l 0x6ba959(pc)
      0x006be98c      4878000f       pea.l 0xf
      0x006be990      2f17           move.l (a7), -(a7)
      0x006be992      4e91           jsr (a1)                    ; fcn.0000000a
      0x006be994      dec3           adda.w d3, a7
      0x006be996      486f0001       pea.l 0x1(a7)
      0x006be99a      42a7           clr.l -(a7)
      0x006be99c      1f6f00080003   move.b 0x8(a7), 0x3(a7)
      0x006be9a2      2f17           move.l (a7), -(a7)
      0x006be9a4      4e91           jsr (a1)                    ; fcn.0000000a
      0x006be9a6      defc010c       adda.w 0x10c, a7
      0x006be9aa      487abfbd       pea.l 0x6ba969(pc)
      0x006be9ae      48780008       pea.l 0x8
      0x006be9b2      2f17           move.l (a7), -(a7)
      0x006be9b4      4e91           jsr (a1)                    ; fcn.0000000a
      0x006be9b6      504f           addq.w 0x8, a7
      0x006be9b8      2eb00808       move.l 0x8(a0, d0.l), (a7)
      0x006be9bc      4878ffff       pea.l 0xffff
      0x006be9c0      4e92           jsr (a2)                    ; fcn.00000009+0x2
      0x006be9c2      504f           addq.w 0x8, a7
      0x006be9c4      4eb900404946   jsr p_wtln_o
   > 0x006be9ca      9ec3           suba.w d3, a7
       0x006be9cc      2f300808       move.l 0x8(a0, d0.l), -(a7)
       0x006be9d0      4eb9005fb748   jsr F6_VOLUME.f_vol_status
       0x006be9d6      584f           addq.w 0x4, a7
       0x006be9d8      2d5ffff2       move.l (a7)+, -0xe(a6)
       0x006be9dc      2d5ffff6       move.l (a7)+, -0xa(a6)
       0x006be9e0      2d5ffffa       move.l (a7)+, -0x6(a6)
       0x006be9e4      2d6efff6ffe2   move.l -0xa(a6), -0x1e(a6)
       0x006be9ea      1213           move.b (a3), d1
       0x006be9ec      4881           ext.w d1
       0x006be9ee      033abf82       btst.l d1, 0x6ba972(pc)
   < 0x006be9f2      6716           beq.b 0x6bea0a
      0x006be9f4      7e00           moveq 0x0, d7
      0x006be9f6      4281           clr.l d1
      0x006be9f8      122effe3       move.b -0x1d(a6), d1
      0x006be9fc      ef09           lsl.b 0x7, d1
      0x006be9fe      ee09           lsr.b 0x7, d1
      0x006bea00      b26effee       cmp.w -0x12(a6), d1
  < 0x006bea04      6c02           bge.b 0x6bea08
     0x006bea06      5207           addq.b 0x1, d7
 > 0x006bea08      6002           bra.b 0x6bea0c
  > 0x006bea0a      7e00           moveq 0x0, d7
 > 0x006bea0c      4a07           tst.b d7
   < 0x006bea0e      6626           bne.b 0x6bea36
      0x006bea10      554f           subq.w 0x2, a7
      0x006bea12      4281           clr.l d1
      0x006bea14      122effe4       move.b -0x1c(a6), d1
      0x006bea18      3f01           move.w d1, -(a7)
      0x006bea1a      4281           clr.l d1
      0x006bea1c      122effe5       move.b -0x1b(a6), d1
      0x006bea20      3f01           move.w d1, -(a7)
      0x006bea22      3f2effe6       move.w -0x1a(a6), -(a7)
      0x006bea26      3f2effe8       move.w -0x18(a6), -(a7)
      0x006bea2a      4ebae19e       jsr USER2_DISK.lower_address(pc)
      0x006bea2e      504f           addq.w 0x8, a7
      0x006bea30      4a1f           tst.b (a7)+
  < 0x006bea32      6700008a       beq.w 0x6beabe
  > 0x006bea36      2d700808ffea   move.l 0x8(a0, d0.l), -0x16(a6)
      0x006bea3c      4281           clr.l d1
      0x006bea3e      122effe4       move.b -0x1c(a6), d1
      0x006bea42      3d41ffe6       move.w d1, -0x1a(a6)
      0x006bea46      4281           clr.l d1
      0x006bea48      122effe5       move.b -0x1b(a6), d1
      0x006bea4c      3d41ffe8       move.w d1, -0x18(a6)
      0x006bea50      4281           clr.l d1
      0x006bea52      122effe3       move.b -0x1d(a6), d1
      0x006bea56      ef09           lsl.b 0x7, d1
      0x006bea58      ee09           lsr.b 0x7, d1
      0x006bea5a      3d41ffee       move.w d1, -0x12(a6)
      0x006bea5e      554f           subq.w 0x2, a7
      0x006bea60      4e94           jsr (a4)                    ; fcn.0000000d
      0x006bea62      4a1f           tst.b (a7)+
  < 0x006bea64      6758           beq.b 0x6beabe
     0x006bea66      487abf0c       pea.l 0x6ba974(pc)
     0x006bea6a      48780015       pea.l 0x15
     0x006bea6e      2f17           move.l (a7), -(a7)
     0x006bea70      4e91           jsr (a1)                    ; fcn.0000000a
     0x006bea72      dec3           adda.w d3, a7
     0x006bea74      342effe6       move.w -0x1a(a6), d2
     0x006bea78      48c2           ext.l d2
     0x006bea7a      2f02           move.l d2, -(a7)
     0x006bea7c      48780000       pea.l 0x0
     0x006bea80      4e92           jsr (a2)                    ; fcn.00000009+0x2
     0x006bea82      504f           addq.w 0x8, a7
     0x006bea84      487abf04       pea.l 0x6ba98a(pc)
     0x006bea88      48780006       pea.l 0x6
     0x006bea8c      2f17           move.l (a7), -(a7)
     0x006bea8e      4e91           jsr (a1)                    ; fcn.0000000a
     0x006bea90      dec3           adda.w d3, a7
     0x006bea92      48c1           ext.l d1
     0x006bea94      2f01           move.l d1, -(a7)
     0x006bea96      48780000       pea.l 0x0
     0x006bea9a      4e92           jsr (a2)                    ; fcn.00000009+0x2
     0x006bea9c      504f           addq.w 0x8, a7
     0x006bea9e      487abef1       pea.l 0x6ba991(pc)
     0x006beaa2      48780009       pea.l 0x9
     0x006beaa6      2f17           move.l (a7), -(a7)
     0x006beaa8      4e91           jsr (a1)                    ; fcn.0000000a
     0x006beaaa      504f           addq.w 0x8, a7
     0x006beaac      2eaeffea       move.l -0x16(a6), (a7)
     0x006beab0      4878ffff       pea.l 0xffff
     0x006beab4      4e92           jsr (a2)                    ; fcn.00000009+0x2
     0x006beab6      504f           addq.w 0x8, a7
     0x006beab8      4eb900404946   jsr p_wtln_o
  > 0x006beabe      5286           addq.l 0x1, d6
     < 0x006beac0      6800fe60       bvc.w 0x6be922
     > 0x006beac4      584f           addq.w 0x4, a7
       > 0x006beac6      7000           moveq 0x0, d0
           0x006beac8      4aaeffea       tst.l -0x16(a6)
       < 0x006beacc      6702           beq.b 0x6bead0
          0x006beace      5200           addq.b 0x1, d0
       > 0x006bead0      1d40fff0       move.b d0, -0x10(a6)
           0x006bead4      4a00           tst.b d0
       < 0x006bead6      671c           beq.b 0x6beaf4
          0x006bead8      554f           subq.w 0x2, a7
          0x006beada      2f2effea       move.l -0x16(a6), -(a7)
          0x006beade      4227           clr.b -(a7)
          0x006beae0      4eb9005fbc62   jsr F6_VOLUME.f_accessible
          0x006beae6      5c4f           addq.w 0x6, a7
          0x006beae8      101f           move.b (a7)+, d0
          0x006beaea      4880           ext.w d0
          0x006beaec      41bc0001       chk.w 0x1, d0
          0x006beaf0      1d40fff0       move.b d0, -0x10(a6)
       > 0x006beaf4      554f           subq.w 0x2, a7
           0x006beaf6      4e94           jsr (a4)                    ; fcn.0000000d
           0x006beaf8      4a1f           tst.b (a7)+
       < 0x006beafa      6700011e       beq.w 0x6bec1a
          0x006beafe      4a2efff0       tst.b -0x10(a6)
      < 0x006beb02      6700008a       beq.w 0x6beb8e
         0x006beb06      9ec4           suba.w d4, a7
         0x006beb08      2f13           move.l (a3), -(a7)
         0x006beb0a      4eb9006b8ed2   jsr USER1_UTILS.region_str
         0x006beb10      584f           addq.w 0x4, a7
         0x006beb12      487abe87       pea.l 0x6ba99b(pc)
         0x006beb16      4878000a       pea.l 0xa
         0x006beb1a      2f17           move.l (a7), -(a7)
         0x006beb1c      4e91           jsr (a1)                    ; fcn.0000000a
         0x006beb1e      dec3           adda.w d3, a7
         0x006beb20      486f0001       pea.l 0x1(a7)
         0x006beb24      42a7           clr.l -(a7)
         0x006beb26      1f6f00080003   move.b 0x8(a7), 0x3(a7)
         0x006beb2c      2f17           move.l (a7), -(a7)
         0x006beb2e      4e91           jsr (a1)                    ; fcn.0000000a
         0x006beb30      defc010c       adda.w 0x10c, a7
         0x006beb34      487abe70       pea.l 0x6ba9a6(pc)
         0x006beb38      48780016       pea.l 0x16
         0x006beb3c      2f17           move.l (a7), -(a7)
         0x006beb3e      4e91           jsr (a1)                    ; fcn.0000000a
         0x006beb40      dec3           adda.w d3, a7
         0x006beb42      302effe6       move.w -0x1a(a6), d0
         0x006beb46      48c0           ext.l d0
         0x006beb48      2f00           move.l d0, -(a7)
         0x006beb4a      48780000       pea.l 0x0
         0x006beb4e      4e92           jsr (a2)                    ; fcn.00000009+0x2
         0x006beb50      504f           addq.w 0x8, a7
         0x006beb52      487abe69       pea.l 0x6ba9bd(pc)
         0x006beb56      48780006       pea.l 0x6
         0x006beb5a      2f17           move.l (a7), -(a7)
         0x006beb5c      4e91           jsr (a1)                    ; fcn.0000000a
         0x006beb5e      dec3           adda.w d3, a7
         0x006beb60      302effe8       move.w -0x18(a6), d0
         0x006beb64      48c0           ext.l d0
         0x006beb66      2f00           move.l d0, -(a7)
         0x006beb68      48780000       pea.l 0x0
         0x006beb6c      4e92           jsr (a2)                    ; fcn.00000009+0x2
         0x006beb6e      504f           addq.w 0x8, a7
         0x006beb70      487abe52       pea.l 0x6ba9c4(pc)
         0x006beb74      48780006       pea.l 0x6
         0x006beb78      2f17           move.l (a7), -(a7)
         0x006beb7a      4e91           jsr (a1)                    ; fcn.0000000a
         0x006beb7c      504f           addq.w 0x8, a7
         0x006beb7e      2eaeffea       move.l -0x16(a6), (a7)
         0x006beb82      4878ffff       pea.l 0xffff
         0x006beb86      4e92           jsr (a2)                    ; fcn.00000009+0x2
         0x006beb88      504f           addq.w 0x8, a7
     < 0x006beb8a      60000088       bra.w 0x6bec14
     > 0x006beb8e      4aaeffea       tst.l -0x16(a6)
     < 0x006beb92      6638           bne.b 0x6bebcc
        0x006beb94      9ec4           suba.w d4, a7
        0x006beb96      2f13           move.l (a3), -(a7)
        0x006beb98      4eb9006b8ed2   jsr USER1_UTILS.region_str
        0x006beb9e      584f           addq.w 0x4, a7
        0x006beba0      487abe29       pea.l 0x6ba9cb(pc)
        0x006beba4      48780003       pea.l 0x3
        0x006beba8      2f17           move.l (a7), -(a7)
        0x006bebaa      4e91           jsr (a1)                    ; fcn.0000000a
        0x006bebac      dec3           adda.w d3, a7
        0x006bebae      486f0001       pea.l 0x1(a7)
        0x006bebb2      42a7           clr.l -(a7)
        0x006bebb4      1f6f00080003   move.b 0x8(a7), 0x3(a7)
        0x006bebba      2f17           move.l (a7), -(a7)
        0x006bebbc      4e91           jsr (a1)                    ; fcn.0000000a
        0x006bebbe      defc010c       adda.w 0x10c, a7
        0x006bebc2      487abe0b       pea.l 0x6ba9cf(pc)
        0x006bebc6      4878000e       pea.l 0xe
    < 0x006bebca      6042           bra.b 0x6bec0e
    > 0x006bebcc      9ec4           suba.w d4, a7
        0x006bebce      2f13           move.l (a3), -(a7)
        0x006bebd0      4eb9006b8ed2   jsr USER1_UTILS.region_str
        0x006bebd6      584f           addq.w 0x4, a7
        0x006bebd8      486f0001       pea.l 0x1(a7)
        0x006bebdc      42a7           clr.l -(a7)
        0x006bebde      1f6f00080003   move.b 0x8(a7), 0x3(a7)
        0x006bebe4      2f17           move.l (a7), -(a7)
        0x006bebe6      4e91           jsr (a1)                    ; fcn.0000000a
        0x006bebe8      defc010c       adda.w 0x10c, a7
        0x006bebec      487abdf0       pea.l 0x6ba9de(pc)
        0x006bebf0      48780008       pea.l 0x8
        0x006bebf4      2f17           move.l (a7), -(a7)
        0x006bebf6      4e91           jsr (a1)                    ; fcn.0000000a
        0x006bebf8      504f           addq.w 0x8, a7
        0x006bebfa      2eaeffea       move.l -0x16(a6), (a7)
        0x006bebfe      4878ffff       pea.l 0xffff
        0x006bec02      4e92           jsr (a2)                    ; fcn.00000009+0x2
        0x006bec04      504f           addq.w 0x8, a7
        0x006bec06      487abddf       pea.l 0x6ba9e7(pc)
        0x006bec0a      4878000f       pea.l 0xf
    > 0x006bec0e      2f17           move.l (a7), -(a7)
         0x006bec10      4e91           jsr (a1)                    ; fcn.0000000a
         0x006bec12      dec3           adda.w d3, a7
     > 0x006bec14      4eb900404946   jsr p_wtln_o
       > 0x006bec1a      2d6effe6000c   move.l -0x1a(a6), 0xc(a6)
           0x006bec20      2d6effea0010   move.l -0x16(a6), 0x10(a6)
           0x006bec26      3d6effee0014   move.w -0x12(a6), 0x14(a6)
           0x006bec2c      1d6efff00016   move.b -0x10(a6), 0x16(a6)
           0x006bec32      4cdf1fff       movem.l (a7)+, d0-d7/a0-a4
           0x006bec36      4e5e           unlk a6
           0x006bec38      4e75           rts
            ; CALL XREFS from USER2_DISK.create_and_clea @ 0x6bed34, 0x6bed6e, 0x6bedbe, 0x6bee26
 110: USER2_DISK.argh ();
           ; var int32_t var_8h @ a7+0x8
           0x006bec3a      4e56fef0       link.w a6, 0xfef0
           0x006bec3e      bfd5           cmpa.l (a5), a7
       < 0x006bec40      6206           bhi.b 0x6bec48
          0x006bec42      44fc0002       move.w 0x2, ccr
          0x006bec46      4e76           trapv
       > 0x006bec48      defc0110       adda.w 0x110, a7
           0x006bec4c      486e0009       pea.l 0x9(a6)
           0x006bec50      42a7           clr.l -(a7)
           0x006bec52      1f6e00080003   move.b 0x8(a6), 0x3(a7)
           0x006bec58      2f17           move.l (a7), -(a7)
           0x006bec5a      4eb9004047ea   jsr p_wts_o
           0x006bec60      defc000c       adda.w 0xc, a7
           0x006bec64      4eb900404946   jsr p_wtln_o
           0x006bec6a      9efc0100       suba.w 0x100, a7
           0x006bec6e      4eb900408ec0   jsr p_err_string
           0x006bec74      486f0001       pea.l 0x1(a7)
           0x006bec78      42a7           clr.l -(a7)
           0x006bec7a      1f6f00080003   move.b 0x8(a7), 0x3(a7)
           0x006bec80      2f17           move.l (a7), -(a7)
           0x006bec82      4eb9004047ea   jsr p_wts_o
           0x006bec88      defc010c       adda.w 0x10c, a7
           0x006bec8c      4eb900404946   jsr p_wtln_o
           0x006bec92      4eb900404188   jsr p_Unlink
           0x006bec98      486c0004       pea.l 0x4(a4)
           0x006bec9c      4eb900404468   jsr fcn.00404468
           0x006beca2      584f           addq.w 0x4, a7
           0x006beca4      4e5e           unlk a6
           0x006beca6      4e75           rts
            ; CALL XREFS from USER2_DISK.create_user @ 0x6bf06a, 0x6bf150
            ; CALL XREF from USER2_DISK.grab_file @ 0x6c15ec
 440: USER2_DISK.create_and_clea ();
           0x006beca8      4e56fe72       link.w a6, 0xfe72
           0x006becac      bfd5           cmpa.l (a5), a7
       < 0x006becae      6206           bhi.b 0x6becb6
          0x006becb0      44fc0002       move.w 0x2, ccr
          0x006becb4      4e76           trapv
       > 0x006becb6      defc0138       adda.w 0x138, a7
           0x006becba      48e7f1f8       movem.l d0-d3/d7/a0-a4, -(a7)
           0x006becbe      323c0100       move.w 0x100, d1
           0x006becc2      243cffff0001   move.l 0xffff0001, d2
           0x006becc8      7610           moveq 0x10, d3
           0x006becca      4227           clr.b -(a7)
           0x006beccc      4eb9006b96f2   jsr USER1_UTILS.aux_stack_check
           0x006becd2      544f           addq.w 0x2, a7
           0x006becd4      2d7c00000001.  move.l 0x1, -0x56(a6)
           0x006becdc      2d42fff8       move.l d2, -0x8(a6)
           0x006bece0      206e0008       movea.l 0x8(a6), a0
           0x006bece4      2082           move.l d2, (a0)
           0x006bece6      554f           subq.w 0x2, a7
           0x006bece8      486effae       pea.l -0x52(a6)
           0x006becec      4eb900404434   jsr fcn.00404434
           0x006becf2      584f           addq.w 0x4, a7
           0x006becf4      4a1f           tst.b (a7)+
       < 0x006becf6      6700013a       beq.w 0x6bee32
          0x006becfa      226e000c       movea.l 0xc(a6), a1
          0x006becfe      554f           subq.w 0x2, a7
          0x006bed00      2f2e001a       move.l 0x1a(a6), -(a7)
          0x006bed04      3f2e0018       move.w 0x18(a6), -(a7)
          0x006bed08      2f2e0010       move.l 0x10(a6), -(a7)
          0x006bed0c      4851           pea.l (a1)
          0x006bed0e      4850           pea.l (a0)
          0x006bed10      4eb900607936   jsr F10_FILELIST.f_create
          0x006bed16      defc0012       adda.w 0x12, a7
          0x006bed1a      4a1f           tst.b (a7)+
      < 0x006bed1c      661c           bne.b 0x6bed3a
         0x006bed1e      9ec1           suba.w d1, a7
         0x006bed20      244f           movea.l a7, a2
         0x006bed22      47fabcd2       lea.l 0x6ba9f6(pc), a3
         0x006bed26      7009           moveq 0x9, d0
     > 0x006bed28      24db           move.l (a3)+, (a2)+
     < 0x006bed2a      51c8fffc       dbra d0, 0x6bed28
         0x006bed2e      14db           move.b (a3)+, (a2)+
         0x006bed30      49eeffaa       lea.l -0x56(a6), a4
         0x006bed34      4ebaff04       jsr USER2_DISK.argh(pc)
         0x006bed38      dec1           adda.w d1, a7
      > 0x006bed3a      9efc000c       suba.w 0xc, a7
          0x006bed3e      244f           movea.l a7, a2
          0x006bed40      7009           moveq 0x9, d0
      > 0x006bed42      14d9           move.b (a1)+, (a2)+
      < 0x006bed44      51c8fffc       dbra d0, 0x6bed42
          0x006bed48      1f02           move.b d2, -(a7)
          0x006bed4a      486effaa       pea.l -0x56(a6)
          0x006bed4e      4eb90060477a   jsr F9_FILERDWRT.f_op_block
          0x006bed54      dec3           adda.w d3, a7
          0x006bed56      4a1f           tst.b (a7)+
      < 0x006bed58      661a           bne.b 0x6bed74
         0x006bed5a      9ec1           suba.w d1, a7
         0x006bed5c      224f           movea.l a7, a1
         0x006bed5e      45fabcbf       lea.l 0x6baa1f(pc), a2
         0x006bed62      7028           moveq 0x28, d0
     > 0x006bed64      12da           move.b (a2)+, (a1)+
     < 0x006bed66      51c8fffc       dbra d0, 0x6bed64
         0x006bed6a      49eeffaa       lea.l -0x56(a6), a4
         0x006bed6e      4ebafeca       jsr USER2_DISK.argh(pc)
         0x006bed72      dec1           adda.w d1, a7
      > 0x006bed74      2f2effaa       move.l -0x56(a6), -(a7)
          0x006bed78      4eb90060469c   jsr F9_FILERDWRT.f_check_enable
          0x006bed7e      2eae0010       move.l 0x10(a6), (a7)
          0x006bed82      5397           subq.l 0x1, (a7)
          0x006bed84      7e00           moveq 0x0, d7
      > 0x006bed86      be97           cmp.l (a7), d7
     < 0x006bed88      6e56           bgt.b 0x6bede0
        0x006bed8a      554f           subq.w 0x2, a7
        0x006bed8c      2f2effaa       move.l -0x56(a6), -(a7)
        0x006bed90      2f07           move.l d7, -(a7)
        0x006bed92      1f3c0002       move.b 0x2, -(a7)
        0x006bed96      486efff8       pea.l -0x8(a6)
        0x006bed9a      4eb900604f24   jsr F9_FILERDWRT.f_cached_block
        0x006beda0      defc000e       adda.w 0xe, a7
        0x006beda4      4a1f           tst.b (a7)+
    < 0x006beda6      661c           bne.b 0x6bedc4
       0x006beda8      9ec1           suba.w d1, a7
       0x006bedaa      224f           movea.l a7, a1
       0x006bedac      45fabc9a       lea.l 0x6baa48(pc), a2
       0x006bedb0      700a           moveq 0xa, d0
   > 0x006bedb2      22da           move.l (a2)+, (a1)+
   < 0x006bedb4      51c8fffc       dbra d0, 0x6bedb2
       0x006bedb8      12da           move.b (a2)+, (a1)+
       0x006bedba      49eeffaa       lea.l -0x56(a6), a4
       0x006bedbe      4ebafe7a       jsr USER2_DISK.argh(pc)
       0x006bedc2      dec1           adda.w d1, a7
    > 0x006bedc4      2f2efff8       move.l -0x8(a6), -(a7)
        0x006bedc8      4eb9005eec7c   jsr f_Zap_Header
        0x006bedce      584f           addq.w 0x4, a7
        0x006bedd0      486efff8       pea.l -0x8(a6)
        0x006bedd4      4eb90060500e   jsr F9_FILERDWRT.f_free_block
        0x006bedda      584f           addq.w 0x4, a7
        0x006beddc      5287           addq.l 0x1, d7
     < 0x006bedde      68a6           bvc.b 0x6bed86
     > 0x006bede0      584f           addq.w 0x4, a7
          0x006bede2      486effaa       pea.l -0x56(a6)
          0x006bede6      4eb90060470a   jsr F9_FILERDWRT.f_close
          0x006bedec      544f           addq.w 0x2, a7
          0x006bedee      226e000c       movea.l 0xc(a6), a1
          0x006bedf2      9efc000a       suba.w 0xa, a7
          0x006bedf6      244f           movea.l a7, a2
          0x006bedf8      7009           moveq 0x9, d0
      > 0x006bedfa      14d9           move.b (a1)+, (a2)+
      < 0x006bedfc      51c8fffc       dbra d0, 0x6bedfa
          0x006bee00      2f2e0014       move.l 0x14(a6), -(a7)
          0x006bee04      4227           clr.b -(a7)
          0x006bee06      4eb90060c096   jsr F14_MAP.f_make_map
          0x006bee0c      dec3           adda.w d3, a7
          0x006bee0e      4a1f           tst.b (a7)+
      < 0x006bee10      661a           bne.b 0x6bee2c
         0x006bee12      9ec1           suba.w d1, a7
         0x006bee14      224f           movea.l a7, a1
         0x006bee16      45fabc5d       lea.l 0x6baa75(pc), a2
         0x006bee1a      7028           moveq 0x28, d0
     > 0x006bee1c      12da           move.b (a2)+, (a1)+
     < 0x006bee1e      51c8fffc       dbra d0, 0x6bee1c
         0x006bee22      49eeffaa       lea.l -0x56(a6), a4
         0x006bee26      4ebafe12       jsr USER2_DISK.argh(pc)
         0x006bee2a      dec1           adda.w d1, a7
      > 0x006bee2c      1d42001e       move.b d2, 0x1e(a6)
      < 0x006bee30      6004           bra.b 0x6bee36
      > 0x006bee32      422e001e       clr.b 0x1e(a6)
      > 0x006bee36      486efff8       pea.l -0x8(a6)
           0x006bee3a      4eb90060500e   jsr F9_FILERDWRT.f_free_block
           0x006bee40      584f           addq.w 0x4, a7
           0x006bee42      486effaa       pea.l -0x56(a6)
           0x006bee46      4eb90060470a   jsr F9_FILERDWRT.f_close
           0x006bee4c      544f           addq.w 0x2, a7
           0x006bee4e      1e82           move.b d2, (a7)
           0x006bee50      4eb9006b96f2   jsr USER1_UTILS.aux_stack_check
           0x006bee56      544f           addq.w 0x2, a7
           0x006bee58      4cdf1f8f       movem.l (a7)+, d0-d3/d7/a0-a4
           0x006bee5c      4e5e           unlk a6
           0x006bee5e      4e75           rts
            ; CALL XREF from MENUDISKSCOM.do_init_disk @ 0x4e600a
            ; CALL XREF from N5_PICTURENET.do_remote_init @ 0x66dcc8
            ; CALL XREF from USER2_DISK.ntab_restore @ 0x6c2b90
            ; CALL XREF from PANEL_CMDS.new_user_comman @ 0x78747e
 1422: USER2_DISK.create_user ();
           ; var int32_t var_8h @ a7+0x8
           0x006bee60      4e56fe0a       link.w a6, 0xfe0a
           0x006bee64      bfd5           cmpa.l (a5), a7
       < 0x006bee66      6206           bhi.b 0x6bee6e
          0x006bee68      44fc0002       move.w 0x2, ccr
          0x006bee6c      4e76           trapv
       > 0x006bee6e      defc0144       adda.w 0x144, a7
           0x006bee72      48e7fff8       movem.l d0-d7/a0-a4, -(a7)
           0x006bee76      45f9004047ea   lea.l p_wts_o, a2
           0x006bee7c      47f900404946   lea.l p_wtln_o, a3
           0x006bee82      49eeff98       lea.l -0x68(a6), a4
           0x006bee86      7401           moveq 0x1, d2
           0x006bee88      760a           moveq 0xa, d3
           0x006bee8a      780c           moveq 0xc, d4
           0x006bee8c      2a3cffff0001   move.l 0xffff0001, d5
           0x006bee92      3c3c010c       move.w 0x10c, d6
           0x006bee96      3e3c0100       move.w 0x100, d7
           0x006bee9a      4227           clr.b -(a7)
           0x006bee9c      4eb9006b96f2   jsr USER1_UTILS.aux_stack_check
           0x006beea2      544f           addq.w 0x2, a7
           0x006beea4      2885           move.l d5, (a4)
           0x006beea6      2d45ff9c       move.l d5, -0x64(a6)
           0x006beeaa      2d45ffa0       move.l d5, -0x60(a6)
           0x006beeae      2d45ffa4       move.l d5, -0x5c(a6)
           0x006beeb2      2d42ffc6       move.l d2, -0x3a(a6)
           0x006beeb6      554f           subq.w 0x2, a7
           0x006beeb8      486eff4e       pea.l -0xb2(a6)
           0x006beebc      4eb900404434   jsr fcn.00404434
           0x006beec2      584f           addq.w 0x4, a7
           0x006beec4      4a1f           tst.b (a7)+
       < 0x006beec6      67000426       beq.w 0x6bf2ee
          0x006beeca      9efc0104       suba.w 0x104, a7
          0x006beece      2f2e001e       move.l 0x1e(a6), -(a7)
          0x006beed2      4ebae958       jsr USER2_DISK.volume_region(pc)
          0x006beed6      584f           addq.w 0x4, a7
          0x006beed8      4eb9006b8ed2   jsr USER1_UTILS.region_str
          0x006beede      584f           addq.w 0x4, a7
          0x006beee0      487abbbd       pea.l 0x6baa9f(pc)
          0x006beee4      48780009       pea.l 0x9
          0x006beee8      2f17           move.l (a7), -(a7)
          0x006beeea      4e92           jsr (a2)                    ; fcn.00000009+0x2
          0x006beeec      dec4           adda.w d4, a7
          0x006beeee      486f0001       pea.l 0x1(a7)
          0x006beef2      42a7           clr.l -(a7)
          0x006beef4      1f6f00080003   move.b 0x8(a7), 0x3(a7)
          0x006beefa      2f17           move.l (a7), -(a7)
          0x006beefc      4e92           jsr (a2)                    ; fcn.00000009+0x2
          0x006beefe      dec6           adda.w d6, a7
          0x006bef00      487abba7       pea.l 0x6baaa9(pc)
          0x006bef04      48780010       pea.l 0x10
          0x006bef08      2f17           move.l (a7), -(a7)
          0x006bef0a      4e92           jsr (a2)                    ; fcn.00000009+0x2
          0x006bef0c      dec4           adda.w d4, a7
          0x006bef0e      486e0009       pea.l 0x9(a6)
          0x006bef12      42a7           clr.l -(a7)
          0x006bef14      1f6e00080003   move.b 0x8(a6), 0x3(a7)
          0x006bef1a      2f17           move.l (a7), -(a7)
          0x006bef1c      4e92           jsr (a2)                    ; fcn.00000009+0x2
          0x006bef1e      dec4           adda.w d4, a7
          0x006bef20      4e93           jsr (a3)                    ; fcn.0000000c
          0x006bef22      554f           subq.w 0x2, a7
          0x006bef24      2f2e001e       move.l 0x1e(a6), -(a7)
          0x006bef28      3f3c044d       move.w 0x44d, -(a7)
          0x006bef2c      48780000       pea.l 0x0
          0x006bef30      486effa8       pea.l -0x58(a6)
          0x006bef34      4854           pea.l (a4)
          0x006bef36      4eb900607936   jsr F10_FILELIST.f_create
          0x006bef3c      defc0012       adda.w 0x12, a7
          0x006bef40      4a1f           tst.b (a7)+
      < 0x006bef42      664e           bne.b 0x6bef92
         0x006bef44      487abb74       pea.l 0x6baaba(pc)
         0x006bef48      48780024       pea.l 0x24
         0x006bef4c      2f17           move.l (a7), -(a7)
         0x006bef4e      4e92           jsr (a2)                    ; fcn.00000009+0x2
         0x006bef50      504f           addq.w 0x8, a7
         0x006bef52      2eae001e       move.l 0x1e(a6), (a7)
         0x006bef56      4878ffff       pea.l 0xffff
         0x006bef5a      4eb9004070e4   jsr p_wti_o
         0x006bef60      504f           addq.w 0x8, a7
         0x006bef62      4e93           jsr (a3)                    ; fcn.0000000c
         0x006bef64      9ec7           suba.w d7, a7
         0x006bef66      4eb900408ec0   jsr p_err_string
         0x006bef6c      486f0001       pea.l 0x1(a7)
         0x006bef70      42a7           clr.l -(a7)
         0x006bef72      1f6f00080003   move.b 0x8(a7), 0x3(a7)
         0x006bef78      2f17           move.l (a7), -(a7)
         0x006bef7a      4e92           jsr (a2)                    ; fcn.00000009+0x2
         0x006bef7c      dec6           adda.w d6, a7
         0x006bef7e      4e93           jsr (a3)                    ; fcn.0000000c
         0x006bef80      4eb900404188   jsr p_Unlink
         0x006bef86      486eff4e       pea.l -0xb2(a6)
         0x006bef8a      4eb900404468   jsr fcn.00404468
         0x006bef90      584f           addq.w 0x4, a7
      > 0x006bef92      7012           moveq 0x12, d0
          0x006bef94      41eeffd7       lea.l -0x29(a6), a0
          0x006bef98      43fabb45       lea.l 0x6baadf(pc), a1
      > 0x006bef9c      10d9           move.b (a1)+, (a0)+
      < 0x006bef9e      51c8fffc       dbra d0, 0x6bef9c
          0x006befa2      1d7c0013ffd6   move.b 0x13, -0x2a(a6)
          0x006befa8      4240           clr.w d0
          0x006befaa      102e0008       move.b 0x8(a6), d0
          0x006befae      d12effd6       add.b d0, -0x2a(a6)
          0x006befb2      5300           subq.b 0x1, d0
      < 0x006befb4      650a           bcs.b 0x6befc0
         0x006befb6      43ee0009       lea.l 0x9(a6), a1
     > 0x006befba      10d9           move.b (a1)+, (a0)+
     < 0x006befbc      51c8fffc       dbra d0, 0x6befba
      > 0x006befc0      554f           subq.w 0x2, a7
          0x006befc2      3f3c0014       move.w 0x14, -(a7)
          0x006befc6      2f14           move.l (a4), -(a7)
          0x006befc8      486effd6       pea.l -0x2a(a6)
          0x006befcc      4eb9005eedf6   jsr f_put_string
          0x006befd2      dec3           adda.w d3, a7
          0x006befd4      1017           move.b (a7), d0
          0x006befd6      4880           ext.w d0
          0x006befd8      4182           chk.w d2, d0
          0x006befda      1e80           move.b d0, (a7)
          0x006befdc      4eb90040452a   jsr p_Assert
          0x006befe2      4eb9006ba3c2   jsr USER1_UTILS.udebug_on
          0x006befe8      4a1f           tst.b (a7)+
      < 0x006befea      6730           beq.b 0x6bf01c
         0x006befec      9ec7           suba.w d7, a7
         0x006befee      486effa8       pea.l -0x58(a6)
         0x006beff2      4eb9005ef416   jsr F2_UTILITY.f_fid_string
         0x006beff8      584f           addq.w 0x4, a7
         0x006beffa      487abaf7       pea.l 0x6baaf3(pc)
         0x006beffe      48780012       pea.l 0x12
         0x006bf002      2f17           move.l (a7), -(a7)
         0x006bf004      4e92           jsr (a2)                    ; fcn.00000009+0x2
         0x006bf006      dec4           adda.w d4, a7
         0x006bf008      486f0001       pea.l 0x1(a7)
         0x006bf00c      42a7           clr.l -(a7)
         0x006bf00e      1f6f00080003   move.b 0x8(a7), 0x3(a7)
         0x006bf014      2f17           move.l (a7), -(a7)
         0x006bf016      4e92           jsr (a2)                    ; fcn.00000009+0x2
         0x006bf018      dec6           adda.w d6, a7
         0x006bf01a      4e93           jsr (a3)                    ; fcn.0000000c
      > 0x006bf01c      2d7c0000000b.  move.l 0xb, -0x32(a6)
          0x006bf024      554f           subq.w 0x2, a7
          0x006bf026      4eb9006ba3c2   jsr USER1_UTILS.udebug_on
          0x006bf02c      4a1f           tst.b (a7)+
      < 0x006bf02e      6720           beq.b 0x6bf050
         0x006bf030      487abad4       pea.l 0x6bab06(pc)
         0x006bf034      4878001f       pea.l 0x1f
         0x006bf038      2f17           move.l (a7), -(a7)
         0x006bf03a      4e92           jsr (a2)                    ; fcn.00000009+0x2
         0x006bf03c      dec4           adda.w d4, a7
         0x006bf03e      4878000b       pea.l 0xb
         0x006bf042      48780000       pea.l 0x0
         0x006bf046      4eb9004070e4   jsr p_wti_o
         0x006bf04c      504f           addq.w 0x8, a7
         0x006bf04e      4e93           jsr (a3)                    ; fcn.0000000c
      > 0x006bf050      554f           subq.w 0x2, a7
          0x006bf052      2f2e001e       move.l 0x1e(a6), -(a7)
          0x006bf056      3f3c044f       move.w 0x44f, -(a7)
          0x006bf05a      487803e8       pea.l 0x3e8
          0x006bf05e      4878000b       pea.l 0xb
          0x006bf062      486effb2       pea.l -0x4e(a6)
          0x006bf066      486eff9c       pea.l -0x64(a6)
          0x006bf06a      4ebafc3c       jsr USER2_DISK.create_and_clea(pc)
          0x006bf06e      defc0016       adda.w 0x16, a7
          0x006bf072      4a1f           tst.b (a7)+
      < 0x006bf074      662c           bne.b 0x6bf0a2
         0x006bf076      487abaae       pea.l 0x6bab26(pc)
         0x006bf07a      4878002b       pea.l 0x2b
         0x006bf07e      2f17           move.l (a7), -(a7)
         0x006bf080      4e92           jsr (a2)                    ; fcn.00000009+0x2
         0x006bf082      504f           addq.w 0x8, a7
         0x006bf084      2eae001e       move.l 0x1e(a6), (a7)
         0x006bf088      4878ffff       pea.l 0xffff
         0x006bf08c      4eb9004070e4   jsr p_wti_o
         0x006bf092      504f           addq.w 0x8, a7
         0x006bf094      4e93           jsr (a3)                    ; fcn.0000000c
         0x006bf096      486eff4e       pea.l -0xb2(a6)
         0x006bf09a      4eb900404468   jsr fcn.00404468
         0x006bf0a0      584f           addq.w 0x4, a7
      > 0x006bf0a2      700f           moveq 0xf, d0
          0x006bf0a4      41eeffd7       lea.l -0x29(a6), a0
          0x006bf0a8      43fabaa8       lea.l 0x6bab52(pc), a1
      > 0x006bf0ac      10d9           move.b (a1)+, (a0)+
      < 0x006bf0ae      51c8fffc       dbra d0, 0x6bf0ac
          0x006bf0b2      1d7c0010ffd6   move.b 0x10, -0x2a(a6)
          0x006bf0b8      4240           clr.w d0
          0x006bf0ba      102e0008       move.b 0x8(a6), d0
          0x006bf0be      d12effd6       add.b d0, -0x2a(a6)
          0x006bf0c2      5300           subq.b 0x1, d0
      < 0x006bf0c4      650a           bcs.b 0x6bf0d0
         0x006bf0c6      43ee0009       lea.l 0x9(a6), a1
     > 0x006bf0ca      10d9           move.b (a1)+, (a0)+
     < 0x006bf0cc      51c8fffc       dbra d0, 0x6bf0ca
      > 0x006bf0d0      554f           subq.w 0x2, a7
          0x006bf0d2      3f3c0014       move.w 0x14, -(a7)
          0x006bf0d6      2f2eff9c       move.l -0x64(a6), -(a7)
          0x006bf0da      486effd6       pea.l -0x2a(a6)
          0x006bf0de      4eb9005eedf6   jsr f_put_string
          0x006bf0e4      dec3           adda.w d3, a7
          0x006bf0e6      1017           move.b (a7), d0
          0x006bf0e8      4880           ext.w d0
          0x006bf0ea      4182           chk.w d2, d0
          0x006bf0ec      1e80           move.b d0, (a7)
          0x006bf0ee      4eb90040452a   jsr p_Assert
          0x006bf0f4      4eb9006ba3c2   jsr USER1_UTILS.udebug_on
          0x006bf0fa      4a1f           tst.b (a7)+
      < 0x006bf0fc      6730           beq.b 0x6bf12e
         0x006bf0fe      9ec7           suba.w d7, a7
         0x006bf100      486effb2       pea.l -0x4e(a6)
         0x006bf104      4eb9005ef416   jsr F2_UTILITY.f_fid_string
         0x006bf10a      584f           addq.w 0x4, a7
         0x006bf10c      487aba55       pea.l 0x6bab63(pc)
         0x006bf110      48780019       pea.l 0x19
         0x006bf114      2f17           move.l (a7), -(a7)
         0x006bf116      4e92           jsr (a2)                    ; fcn.00000009+0x2
         0x006bf118      dec4           adda.w d4, a7
         0x006bf11a      486f0001       pea.l 0x1(a7)
         0x006bf11e      42a7           clr.l -(a7)
         0x006bf120      1f6f00080003   move.b 0x8(a7), 0x3(a7)
         0x006bf126      2f17           move.l (a7), -(a7)
         0x006bf128      4e92           jsr (a2)                    ; fcn.00000009+0x2
         0x006bf12a      dec6           adda.w d6, a7
         0x006bf12c      4e93           jsr (a3)                    ; fcn.0000000c
      > 0x006bf12e      2d7c00000066.  move.l 0x66, -0x36(a6)
          0x006bf136      554f           subq.w 0x2, a7
          0x006bf138      2f2e001e       move.l 0x1e(a6), -(a7)
          0x006bf13c      3f3c044e       move.w 0x44e, -(a7)
          0x006bf140      48782710       pea.l 0x2710
          0x006bf144      48780066       pea.l 0x66
          0x006bf148      486effbc       pea.l -0x44(a6)
          0x006bf14c      486effa0       pea.l -0x60(a6)
          0x006bf150      4ebafb56       jsr USER2_DISK.create_and_clea(pc)
          0x006bf154      defc0016       adda.w 0x16, a7
          0x006bf158      4a1f           tst.b (a7)+
      < 0x006bf15a      662c           bne.b 0x6bf188
         0x006bf15c      487aba1f       pea.l 0x6bab7d(pc)
         0x006bf160      4878002d       pea.l 0x2d
         0x006bf164      2f17           move.l (a7), -(a7)
         0x006bf166      4e92           jsr (a2)                    ; fcn.00000009+0x2
         0x006bf168      504f           addq.w 0x8, a7
         0x006bf16a      2eae001e       move.l 0x1e(a6), (a7)
         0x006bf16e      4878ffff       pea.l 0xffff
         0x006bf172      4eb9004070e4   jsr p_wti_o
         0x006bf178      504f           addq.w 0x8, a7
         0x006bf17a      4e93           jsr (a3)                    ; fcn.0000000c
         0x006bf17c      486eff4e       pea.l -0xb2(a6)
         0x006bf180      4eb900404468   jsr fcn.00404468
         0x006bf186      584f           addq.w 0x4, a7
      > 0x006bf188      7018           moveq 0x18, d0
          0x006bf18a      41eeffd7       lea.l -0x29(a6), a0
          0x006bf18e      43faba1b       lea.l 0x6babab(pc), a1
      > 0x006bf192      10d9           move.b (a1)+, (a0)+
      < 0x006bf194      51c8fffc       dbra d0, 0x6bf192
          0x006bf198      4240           clr.w d0
          0x006bf19a      102e0008       move.b 0x8(a6), d0
          0x006bf19e      7228           moveq 0x28, d1
          0x006bf1a0      04410019       subi.w 0x19, d1
          0x006bf1a4      b041           cmp.w d1, d0
      < 0x006bf1a6      6302           bls.b 0x6bf1aa
         0x006bf1a8      3001           move.w d1, d0
      > 0x006bf1aa      1d7c0019ffd6   move.b 0x19, -0x2a(a6)
          0x006bf1b0      d12effd6       add.b d0, -0x2a(a6)
          0x006bf1b4      5300           subq.b 0x1, d0
      < 0x006bf1b6      650a           bcs.b 0x6bf1c2
         0x006bf1b8      43ee0009       lea.l 0x9(a6), a1
     > 0x006bf1bc      10d9           move.b (a1)+, (a0)+
     < 0x006bf1be      51c8fffc       dbra d0, 0x6bf1bc
      > 0x006bf1c2      554f           subq.w 0x2, a7
          0x006bf1c4      3f3c0014       move.w 0x14, -(a7)
          0x006bf1c8      2f2effa0       move.l -0x60(a6), -(a7)
          0x006bf1cc      486effd6       pea.l -0x2a(a6)
          0x006bf1d0      4eb9005eedf6   jsr f_put_string
          0x006bf1d6      dec3           adda.w d3, a7
          0x006bf1d8      1017           move.b (a7), d0
          0x006bf1da      4880           ext.w d0
          0x006bf1dc      4182           chk.w d2, d0
          0x006bf1de      1e80           move.b d0, (a7)
          0x006bf1e0      4eb90040452a   jsr p_Assert
          0x006bf1e6      4eb9006ba3c2   jsr USER1_UTILS.udebug_on
          0x006bf1ec      4a1f           tst.b (a7)+
      < 0x006bf1ee      6730           beq.b 0x6bf220
         0x006bf1f0      9ec7           suba.w d7, a7
         0x006bf1f2      486effbc       pea.l -0x44(a6)
         0x006bf1f6      4eb9005ef416   jsr F2_UTILITY.f_fid_string
         0x006bf1fc      584f           addq.w 0x4, a7
         0x006bf1fe      487ab9c5       pea.l 0x6babc5(pc)
         0x006bf202      4878001a       pea.l 0x1a
         0x006bf206      2f17           move.l (a7), -(a7)
         0x006bf208      4e92           jsr (a2)                    ; fcn.00000009+0x2
         0x006bf20a      dec4           adda.w d4, a7
         0x006bf20c      486f0001       pea.l 0x1(a7)
         0x006bf210      42a7           clr.l -(a7)
         0x006bf212      1f6f00080003   move.b 0x8(a7), 0x3(a7)
         0x006bf218      2f17           move.l (a7), -(a7)
         0x006bf21a      4e92           jsr (a2)                    ; fcn.00000009+0x2
         0x006bf21c      dec6           adda.w d6, a7
         0x006bf21e      4e93           jsr (a3)                    ; fcn.0000000c
      > 0x006bf220      554f           subq.w 0x2, a7
          0x006bf222      3f3c0020       move.w 0x20, -(a7)
          0x006bf226      2f14           move.l (a4), -(a7)
          0x006bf228      486e0008       pea.l 0x8(a6)
          0x006bf22c      4eb9005eedf6   jsr f_put_string
          0x006bf232      dec3           adda.w d3, a7
          0x006bf234      1017           move.b (a7), d0
          0x006bf236      4880           ext.w d0
          0x006bf238      4182           chk.w d2, d0
          0x006bf23a      1e80           move.b d0, (a7)
          0x006bf23c      4eb90040452a   jsr p_Assert
          0x006bf242      3f3c0020       move.w 0x20, -(a7)
          0x006bf246      2f2eff9c       move.l -0x64(a6), -(a7)
          0x006bf24a      486e0008       pea.l 0x8(a6)
          0x006bf24e      4eb9005eedf6   jsr f_put_string
          0x006bf254      dec3           adda.w d3, a7
          0x006bf256      1017           move.b (a7), d0
          0x006bf258      4880           ext.w d0
          0x006bf25a      4182           chk.w d2, d0
          0x006bf25c      1e80           move.b d0, (a7)
          0x006bf25e      4eb90040452a   jsr p_Assert
          0x006bf264      3f3c0020       move.w 0x20, -(a7)
          0x006bf268      2f2effa0       move.l -0x60(a6), -(a7)
          0x006bf26c      486e0008       pea.l 0x8(a6)
          0x006bf270      4eb9005eedf6   jsr f_put_string
          0x006bf276      dec3           adda.w d3, a7
          0x006bf278      1017           move.b (a7), d0
          0x006bf27a      4880           ext.w d0
          0x006bf27c      4182           chk.w d2, d0
          0x006bf27e      1e80           move.b d0, (a7)
          0x006bf280      4eb90040452a   jsr p_Assert
          0x006bf286      3f3c0021       move.w 0x21, -(a7)
          0x006bf28a      2f14           move.l (a4), -(a7)
          0x006bf28c      41eeffbc       lea.l -0x44(a6), a0
          0x006bf290      2f08           move.l a0, -(a7)
          0x006bf292      3f03           move.w d3, -(a7)
          0x006bf294      4eb9005eed96   jsr f_put_field
          0x006bf29a      dec4           adda.w d4, a7
          0x006bf29c      1017           move.b (a7), d0
          0x006bf29e      4880           ext.w d0
          0x006bf2a0      4182           chk.w d2, d0
          0x006bf2a2      1e80           move.b d0, (a7)
          0x006bf2a4      4eb90040452a   jsr p_Assert
          0x006bf2aa      3f3c0022       move.w 0x22, -(a7)
          0x006bf2ae      2f14           move.l (a4), -(a7)
          0x006bf2b0      41eeffb2       lea.l -0x4e(a6), a0
          0x006bf2b4      2f08           move.l a0, -(a7)
          0x006bf2b6      3f03           move.w d3, -(a7)
          0x006bf2b8      4eb9005eed96   jsr f_put_field
          0x006bf2be      dec4           adda.w d4, a7
          0x006bf2c0      1017           move.b (a7), d0
          0x006bf2c2      4880           ext.w d0
          0x006bf2c4      4182           chk.w d2, d0
          0x006bf2c6      1e80           move.b d0, (a7)
          0x006bf2c8      4eb90040452a   jsr p_Assert
          0x006bf2ce      544f           addq.w 0x2, a7
          0x006bf2d0      1d450022       move.b d5, 0x22(a6)
          0x006bf2d4      554f           subq.w 0x2, a7
          0x006bf2d6      4eb9006ba3c2   jsr USER1_UTILS.udebug_on
          0x006bf2dc      4a1f           tst.b (a7)+
      < 0x006bf2de      670000c8       beq.w 0x6bf3a8
         0x006bf2e2      487ab8fc       pea.l 0x6babe0(pc)
         0x006bf2e6      48780023       pea.l 0x23
     < 0x006bf2ea      600000b4       bra.w 0x6bf3a0
     > 0x006bf2ee      202effa4       move.l -0x5c(a6), d0
         0x006bf2f2      b085           cmp.l d5, d0
     < 0x006bf2f4      670c           beq.b 0x6bf302
        0x006bf2f6      486effa4       pea.l -0x5c(a6)
        0x006bf2fa      4eb90060500e   jsr F9_FILERDWRT.f_free_block
        0x006bf300      584f           addq.w 0x4, a7
     > 0x006bf302      2014           move.l (a4), d0
         0x006bf304      b085           cmp.l d5, d0
     < 0x006bf306      6728           beq.b 0x6bf330
        0x006bf308      4854           pea.l (a4)
        0x006bf30a      4eb90060500e   jsr F9_FILERDWRT.f_free_block
        0x006bf310      544f           addq.w 0x2, a7
        0x006bf312      2f2effae       move.l -0x52(a6), -(a7)
        0x006bf316      2f2effaa       move.l -0x56(a6), -(a7)
        0x006bf31a      3f2effa8       move.w -0x58(a6), -(a7)
        0x006bf31e      4eb900605066   jsr F9_FILERDWRT.f_delete
        0x006bf324      dec3           adda.w d3, a7
        0x006bf326      4a1f           tst.b (a7)+
    < 0x006bf328      6606           bne.b 0x6bf330
       0x006bf32a      4eb900404188   jsr p_Unlink
    > 0x006bf330      202eff9c       move.l -0x64(a6), d0
         0x006bf334      b085           cmp.l d5, d0
     < 0x006bf336      672a           beq.b 0x6bf362
        0x006bf338      486eff9c       pea.l -0x64(a6)
        0x006bf33c      4eb90060500e   jsr F9_FILERDWRT.f_free_block
        0x006bf342      544f           addq.w 0x2, a7
        0x006bf344      2f2effb8       move.l -0x48(a6), -(a7)
        0x006bf348      2f2effb4       move.l -0x4c(a6), -(a7)
        0x006bf34c      3f2effb2       move.w -0x4e(a6), -(a7)
        0x006bf350      4eb900605066   jsr F9_FILERDWRT.f_delete
        0x006bf356      dec3           adda.w d3, a7
        0x006bf358      4a1f           tst.b (a7)+
    < 0x006bf35a      6606           bne.b 0x6bf362
       0x006bf35c      4eb900404188   jsr p_Unlink
    > 0x006bf362      202effa0       move.l -0x60(a6), d0
         0x006bf366      b085           cmp.l d5, d0
     < 0x006bf368      672a           beq.b 0x6bf394
        0x006bf36a      486effa0       pea.l -0x60(a6)
        0x006bf36e      4eb90060500e   jsr F9_FILERDWRT.f_free_block
        0x006bf374      544f           addq.w 0x2, a7
        0x006bf376      2f2effc2       move.l -0x3e(a6), -(a7)
        0x006bf37a      2f2effbe       move.l -0x42(a6), -(a7)
        0x006bf37e      3f2effbc       move.w -0x44(a6), -(a7)
        0x006bf382      4eb900605066   jsr F9_FILERDWRT.f_delete
        0x006bf388      dec3           adda.w d3, a7
        0x006bf38a      4a1f           tst.b (a7)+
    < 0x006bf38c      6606           bne.b 0x6bf394
       0x006bf38e      4eb900404188   jsr p_Unlink
    > 0x006bf394      422e0022       clr.b 0x22(a6)
         0x006bf398      487ab86a       pea.l 0x6bac04(pc)
         0x006bf39c      4878001b       pea.l 0x1b
     > 0x006bf3a0      2f17           move.l (a7), -(a7)
          0x006bf3a2      4e92           jsr (a2)                    ; fcn.00000009+0x2
          0x006bf3a4      dec4           adda.w d4, a7
          0x006bf3a6      4e93           jsr (a3)                    ; fcn.0000000c
      > 0x006bf3a8      4854           pea.l (a4)
           0x006bf3aa      4eb90060500e   jsr F9_FILERDWRT.f_free_block
           0x006bf3b0      584f           addq.w 0x4, a7
           0x006bf3b2      486eff9c       pea.l -0x64(a6)
           0x006bf3b6      4eb90060500e   jsr F9_FILERDWRT.f_free_block
           0x006bf3bc      584f           addq.w 0x4, a7
           0x006bf3be      486effa0       pea.l -0x60(a6)
           0x006bf3c2      4eb90060500e   jsr F9_FILERDWRT.f_free_block
           0x006bf3c8      584f           addq.w 0x4, a7
           0x006bf3ca      7001           moveq 0x1, d0
           0x006bf3cc      b005           cmp.b d5, d0
       < 0x006bf3ce      670c           beq.b 0x6bf3dc
          0x006bf3d0      486effc6       pea.l -0x3a(a6)
          0x006bf3d4      4eb90060470a   jsr F9_FILERDWRT.f_close
          0x006bf3da      584f           addq.w 0x4, a7
       > 0x006bf3dc      1f05           move.b d5, -(a7)
           0x006bf3de      4eb9006b96f2   jsr USER1_UTILS.aux_stack_check
           0x006bf3e4      544f           addq.w 0x2, a7
           0x006bf3e6      4cdf1fff       movem.l (a7)+, d0-d7/a0-a4
           0x006bf3ea      4e5e           unlk a6
           0x006bf3ec      4e75           rts
            ; CALL XREF from USER.save_stack @ 0x6b57dc
            ; CALL XREF from USER2_DISK.open_number_tab @ 0x6c105c
 652: USER2_DISK.fixed_drives_ok ();
           ; var int32_t var_8h @ a7+0x8
           0x006bf3ee      4e56feae       link.w a6, 0xfeae
           0x006bf3f2      bfd5           cmpa.l (a5), a7
       < 0x006bf3f4      6206           bhi.b 0x6bf3fc
          0x006bf3f6      44fc0002       move.w 0x2, ccr
          0x006bf3fa      4e76           trapv
       > 0x006bf3fc      defc0152       adda.w 0x152, a7
           0x006bf400      48e7fff8       movem.l d0-d7/a0-a4, -(a7)
           0x006bf404      45f9004047ea   lea.l p_wts_o, a2
           0x006bf40a      47f9008551f0   lea.l 0x8551f0, a3
           0x006bf410      49f9008552c8   lea.l 0x8552c8, a4
           0x006bf416      760c           moveq 0xc, d3
           0x006bf418      7801           moveq 0x1, d4
           0x006bf41a      7a1e           moveq 0x1e, d5
           0x006bf41c      3c3c0100       move.w 0x100, d6
           0x006bf420      3e3c010c       move.w 0x10c, d7
           0x006bf424      1f2e0008       move.b 0x8(a6), -(a7)
           0x006bf428      4ebad51a       jsr USER2_DISK.check_scope(pc)
           0x006bf42c      544f           addq.w 0x2, a7
           0x006bf42e      4ebad418       jsr USER2_DISK.close_gate(pc)
           0x006bf432      422e000c       clr.b 0xc(a6)
           0x006bf436      102e0008       move.b 0x8(a6), d0
           0x006bf43a      b004           cmp.b d4, d0
       < 0x006bf43c      6656           bne.b 0x6bf494
          0x006bf43e      4a93           tst.l (a3)
      < 0x006bf440      6710           beq.b 0x6bf452
         0x006bf442      4a39008551f6   tst.b 0x8551f6
     < 0x006bf448      6708           beq.b 0x6bf452
  > 0x006bf44a      1d44000c       move.b d4, 0xc(a6)
 < 0x006bf44e      6000021e       bra.w 0x6bf66e
 > 0x006bf452      4a93           tst.l (a3)
  < 0x006bf454      6618           bne.b 0x6bf46e
     0x006bf456      487ab7c8       pea.l 0x6bac20(pc)
     0x006bf45a      4878001a       pea.l 0x1a
 > 0x006bf45e      2f17           move.l (a7), -(a7)
    0x006bf460      4e92           jsr (a2)                    ; fcn.00000009+0x2
 > 0x006bf462      dec3           adda.w d3, a7
    0x006bf464      4eb900404946   jsr p_wtln_o
 < 0x006bf46a      60000202       bra.w 0x6bf66e
 > 0x006bf46e      487ab7cb       pea.l 0x6bac3b(pc)
     0x006bf472      4878000e       pea.l 0xe
     0x006bf476      2f17           move.l (a7), -(a7)
     0x006bf478      4e92           jsr (a2)                    ; fcn.00000009+0x2
     0x006bf47a      504f           addq.w 0x8, a7
     0x006bf47c      2e93           move.l (a3), (a7)
     0x006bf47e      4878ffff       pea.l 0xffff
     0x006bf482      4eb9004070e4   jsr p_wti_o
     0x006bf488      504f           addq.w 0x8, a7
     0x006bf48a      487ab7be       pea.l 0x6bac4a(pc)
 > 0x006bf48e      4878000e       pea.l 0xe
 < 0x006bf492      60ca           bra.b 0x6bf45e
 > 0x006bf494      0c000004       cmpi.b 0x4, d0
 < 0x006bf498      663e           bne.b 0x6bf4d8
    0x006bf49a      4a94           tst.l (a4)
 < 0x006bf49c      670a           beq.b 0x6bf4a8
    0x006bf49e      4a39008552ce   tst.b 0x8552ce
 < 0x006bf4a4      6702           beq.b 0x6bf4a8
 < 0x006bf4a6      60a2           bra.b 0x6bf44a
 > 0x006bf4a8      4a94           tst.l (a4)
 < 0x006bf4aa      660a           bne.b 0x6bf4b6
    0x006bf4ac      487ab7ab       pea.l 0x6bac59(pc)
    0x006bf4b0      4878001b       pea.l 0x1b
 < 0x006bf4b4      60a8           bra.b 0x6bf45e
 > 0x006bf4b6      487ab7bd       pea.l 0x6bac75(pc)
     0x006bf4ba      4878000f       pea.l 0xf
     0x006bf4be      2f17           move.l (a7), -(a7)
     0x006bf4c0      4e92           jsr (a2)                    ; fcn.00000009+0x2
     0x006bf4c2      504f           addq.w 0x8, a7
     0x006bf4c4      2e94           move.l (a4), (a7)
     0x006bf4c6      4878ffff       pea.l 0xffff
     0x006bf4ca      4eb9004070e4   jsr p_wti_o
     0x006bf4d0      504f           addq.w 0x8, a7
     0x006bf4d2      487ab7b1       pea.l 0x6bac85(pc)
 < 0x006bf4d6      60b6           bra.b 0x6bf48e
  > 0x006bf4d8      4a00           tst.b d0
  < 0x006bf4da      665a           bne.b 0x6bf536
     0x006bf4dc      4ab9008551a8   tst.l 0x8551a8
 < 0x006bf4e2      670c           beq.b 0x6bf4f0
    0x006bf4e4      4a39008551ae   tst.b 0x8551ae
 < 0x006bf4ea      6704           beq.b 0x6bf4f0
 < 0x006bf4ec      6000ff5c       bra.w 0x6bf44a
 > 0x006bf4f0      4ab9008551a8   tst.l 0x8551a8
  < 0x006bf4f6      660c           bne.b 0x6bf504
     0x006bf4f8      487ab79a       pea.l 0x6bac94(pc)
     0x006bf4fc      48780017       pea.l 0x17
  < 0x006bf500      6000ff5c       bra.w 0x6bf45e
  > 0x006bf504      4a39008551ae   tst.b 0x8551ae
   < 0x006bf50a      66000162       bne.w 0x6bf66e
      0x006bf50e      487ab79c       pea.l 0x6bacac(pc)
      0x006bf512      4878000f       pea.l 0xf
      0x006bf516      2f17           move.l (a7), -(a7)
      0x006bf518      4e92           jsr (a2)                    ; fcn.00000009+0x2
      0x006bf51a      504f           addq.w 0x8, a7
      0x006bf51c      2eb9008551a8   move.l 0x8551a8, (a7)
      0x006bf522      4878ffff       pea.l 0xffff
      0x006bf526      4eb9004070e4   jsr p_wti_o
      0x006bf52c      504f           addq.w 0x8, a7
      0x006bf52e      487ab78c       pea.l 0x6bacbc(pc)
   < 0x006bf532      6000ff5a       bra.w 0x6bf48e
    > 0x006bf536      0c000002       cmpi.b 0x2, d0
    < 0x006bf53a      66000118       bne.w 0x6bf654
       0x006bf53e      4281           clr.l d1
       0x006bf540      122e000b       move.b 0xb(a6), d1
       0x006bf544      5341           subq.w 0x1, d1
       0x006bf546      4385           chk.w d5, d1
       0x006bf548      e541           asl.w 0x2, d1
       0x006bf54a      4282           clr.l d2
       0x006bf54c      142e000a       move.b 0xa(a6), d2
       0x006bf550      5342           subq.w 0x1, d2
       0x006bf552      4585           chk.w d5, d2
       0x006bf554      c5fc007c       muls.w 0x7c, d2
       0x006bf558      41f90085519a   lea.l 0x85519a, a0
       0x006bf55e      41f02000       lea.l (a0, d2.w), a0
       0x006bf562      41f01000       lea.l (a0, d1.w), a0
       0x006bf566      22680172       movea.l 0x172(a0), a1
       0x006bf56a      b2c4           cmpa.w d4, a1
   < 0x006bf56c      663e           bne.b 0x6bf5ac
      0x006bf56e      9ec6           suba.w d6, a7
      0x006bf570      3f2e000a       move.w 0xa(a6), -(a7)
      0x006bf574      4eb90066ea9c   jsr N10_UTILS.n_stn_str
      0x006bf57a      544f           addq.w 0x2, a7
      0x006bf57c      487ab74d       pea.l 0x6baccb(pc)
      0x006bf580      48780008       pea.l 0x8
      0x006bf584      2f17           move.l (a7), -(a7)
      0x006bf586      4e92           jsr (a2)                    ; fcn.00000009+0x2
      0x006bf588      dec3           adda.w d3, a7
      0x006bf58a      486f0001       pea.l 0x1(a7)
      0x006bf58e      42a7           clr.l -(a7)
      0x006bf590      1f6f00080003   move.b 0x8(a7), 0x3(a7)
      0x006bf596      2f17           move.l (a7), -(a7)
      0x006bf598      4e92           jsr (a2)                    ; fcn.00000009+0x2
      0x006bf59a      dec7           adda.w d7, a7
      0x006bf59c      487ab736       pea.l 0x6bacd4(pc)
      0x006bf5a0      4878000a       pea.l 0xa
      0x006bf5a4      2f17           move.l (a7), -(a7)
  > 0x006bf5a6      4e92           jsr (a2)                    ; fcn.00000009+0x2
 < 0x006bf5a8      6000feb8       bra.w 0x6bf462
  > 0x006bf5ac      b3e9fffc       cmpa.l -0x4(a1), a1
  < 0x006bf5b0      6702           beq.b 0x6bf5b4
     0x006bf5b2      4e4d           trap 0xd
  > 0x006bf5b4      4aa90004       tst.l 0x4(a1)
  < 0x006bf5b8      663a           bne.b 0x6bf5f4
     0x006bf5ba      9ec6           suba.w d6, a7
     0x006bf5bc      3f2e000a       move.w 0xa(a6), -(a7)
     0x006bf5c0      4eb90066ea9c   jsr N10_UTILS.n_stn_str
     0x006bf5c6      544f           addq.w 0x2, a7
     0x006bf5c8      487ab715       pea.l 0x6bacdf(pc)
     0x006bf5cc      48780016       pea.l 0x16
     0x006bf5d0      2f17           move.l (a7), -(a7)
     0x006bf5d2      4e92           jsr (a2)                    ; fcn.00000009+0x2
     0x006bf5d4      dec3           adda.w d3, a7
     0x006bf5d6      486f0001       pea.l 0x1(a7)
     0x006bf5da      42a7           clr.l -(a7)
     0x006bf5dc      1f6f00080003   move.b 0x8(a7), 0x3(a7)
     0x006bf5e2      2f17           move.l (a7), -(a7)
     0x006bf5e4      4e92           jsr (a2)                    ; fcn.00000009+0x2
     0x006bf5e6      dec7           adda.w d7, a7
     0x006bf5e8      487ab70c       pea.l 0x6bacf6(pc)
     0x006bf5ec      4878000a       pea.l 0xa
 > 0x006bf5f0      2f17           move.l (a7), -(a7)
 < 0x006bf5f2      60b2           bra.b 0x6bf5a6
  > 0x006bf5f4      4a29000a       tst.b 0xa(a1)
  < 0x006bf5f8      6656           bne.b 0x6bf650
     0x006bf5fa      9ec6           suba.w d6, a7
     0x006bf5fc      3f2e000a       move.w 0xa(a6), -(a7)
     0x006bf600      4eb90066ea9c   jsr N10_UTILS.n_stn_str
     0x006bf606      544f           addq.w 0x2, a7
     0x006bf608      487ab6f7       pea.l 0x6bad01(pc)
     0x006bf60c      48780007       pea.l 0x7
     0x006bf610      2f17           move.l (a7), -(a7)
     0x006bf612      4e92           jsr (a2)                    ; fcn.00000009+0x2
     0x006bf614      504f           addq.w 0x8, a7
     0x006bf616      2ea90004       move.l 0x4(a1), (a7)
     0x006bf61a      4878ffff       pea.l 0xffff
     0x006bf61e      4eb9004070e4   jsr p_wti_o
     0x006bf624      504f           addq.w 0x8, a7
     0x006bf626      487ab6e1       pea.l 0x6bad09(pc)
     0x006bf62a      4878000c       pea.l 0xc
     0x006bf62e      2f17           move.l (a7), -(a7)
     0x006bf630      4e92           jsr (a2)                    ; fcn.00000009+0x2
     0x006bf632      dec3           adda.w d3, a7
     0x006bf634      486f0001       pea.l 0x1(a7)
     0x006bf638      42a7           clr.l -(a7)
     0x006bf63a      1f6f00080003   move.b 0x8(a7), 0x3(a7)
     0x006bf640      2f17           move.l (a7), -(a7)
     0x006bf642      4e92           jsr (a2)                    ; fcn.00000009+0x2
     0x006bf644      dec7           adda.w d7, a7
     0x006bf646      487ab6ce       pea.l 0x6bad16(pc)
     0x006bf64a      4878000e       pea.l 0xe
 < 0x006bf64e      60a0           bra.b 0x6bf5f0
   > 0x006bf650      6000fdf8       bra.w 0x6bf44a
     > 0x006bf654      487ab6cf       pea.l 0x6bad25(pc)
         0x006bf658      48780026       pea.l 0x26
         0x006bf65c      2f17           move.l (a7), -(a7)
         0x006bf65e      4e92           jsr (a2)                    ; fcn.00000009+0x2
         0x006bf660      dec3           adda.w d3, a7
         0x006bf662      4eb900404946   jsr p_wtln_o
         0x006bf668      4eb900401620   jsr p_walkback
 > 0x006bf66e      4ebad26a       jsr USER2_DISK.open_gate(pc)
           0x006bf672      4cdf1fff       movem.l (a7)+, d0-d7/a0-a4
           0x006bf676      4e5e           unlk a6
           0x006bf678      4e75           rts
            ; CALL XREF from USER2_DISK.get_exch_fids @ 0x6c0796
 80: USER2_DISK.exch_fid_record ();
           0x006bf67a      4e56ffe2       link.w a6, 0xffe2
           0x006bf67e      bfd5           cmpa.l (a5), a7
       < 0x006bf680      6206           bhi.b 0x6bf688
          0x006bf682      44fc0002       move.w 0x2, ccr
          0x006bf686      4e76           trapv
       > 0x006bf688      defc0018       adda.w 0x18, a7
           0x006bf68c      48e7c108       movem.l d0-d1/d7/a4, -(a7)
           0x006bf690      286e000c       movea.l 0xc(a6), a4
           0x006bf694      7e00           moveq 0x0, d7
       > 0x006bf696      b8fc0001       cmpa.w 0x1, a4
      < 0x006bf69a      6722           beq.b 0x6bf6be
         0x006bf69c      4a07           tst.b d7
     < 0x006bf69e      661e           bne.b 0x6bf6be
        0x006bf6a0      7000           moveq 0x0, d0
        0x006bf6a2      b9ecfffc       cmpa.l -0x4(a4), a4
    < 0x006bf6a6      6702           beq.b 0x6bf6aa
       0x006bf6a8      4e4d           trap 0xd
    > 0x006bf6aa      2214           move.l (a4), d1
        0x006bf6ac      b2ae0008       cmp.l 0x8(a6), d1
    < 0x006bf6b0      6602           bne.b 0x6bf6b4
       0x006bf6b2      5200           addq.b 0x1, d0
    > 0x006bf6b4      1e00           move.b d0, d7
    < 0x006bf6b6      6604           bne.b 0x6bf6bc
       0x006bf6b8      286c0026       movea.l 0x26(a4), a4
    < 0x006bf6bc      60d8           bra.b 0x6bf696
     > 0x006bf6be      2d4c0010       move.l a4, 0x10(a6)
           0x006bf6c2      4cdf1083       movem.l (a7)+, d0-d1/d7/a4
           0x006bf6c6      4e5e           unlk a6
           0x006bf6c8      4e75           rts
            ; CALL XREF from USER2_DISK.set_fixed_user @ 0x6c000a
            ; CALL XREF from USER2_DISK.set_exch_user @ 0x6c0518
 1458: USER2_DISK.find_tables (int32_t arg_14h);
           ; arg int32_t arg_14h @ a6+0x14
           ; var int32_t var_8h @ a7+0x8
           ; var int32_t var_18h @ a7+0x18
           ; var int32_t var_108h @ a7+0x108
           0x006bf6ca      4e56fd30       link.w a6, 0xfd30
           0x006bf6ce      bfd5           cmpa.l (a5), a7
       < 0x006bf6d0      6206           bhi.b 0x6bf6d8
          0x006bf6d2      44fc0002       move.w 0x2, ccr
          0x006bf6d6      4e76           trapv
       > 0x006bf6d8      defc0244       adda.w 0x244, a7
           0x006bf6dc      48e7fff8       movem.l d0-d7/a0-a4, -(a7)
           0x006bf6e0      45f9004047ea   lea.l p_wts_o, a2
           0x006bf6e6      47f900404946   lea.l p_wtln_o, a3
           0x006bf6ec      49f9006ba3c2   lea.l USER1_UTILS.udebug_on, a4
           0x006bf6f2      720c           moveq 0xc, d1
           0x006bf6f4      343c0100       move.w 0x100, d2
           0x006bf6f8      363c010c       move.w 0x10c, d3
           0x006bf6fc      7801           moveq 0x1, d4
           0x006bf6fe      7a10           moveq 0x10, d5
           0x006bf700      7c0a           moveq 0xa, d6
           0x006bf702      4227           clr.b -(a7)
           0x006bf704      4eb9006b96f2   jsr USER1_UTILS.aux_stack_check
           0x006bf70a      544f           addq.w 0x2, a7
           0x006bf70c      2d7cffff0001.  move.l 0xffff0001, -0x24(a6)
           0x006bf714      2d44ffe0       move.l d4, -0x20(a6)
           0x006bf718      2d44ffe4       move.l d4, -0x1c(a6)
           0x006bf71c      554f           subq.w 0x2, a7
           0x006bf71e      486eff74       pea.l -0x8c(a6)
           0x006bf722      4eb900404434   jsr fcn.00404434
           0x006bf728      584f           addq.w 0x4, a7
           0x006bf72a      4a1f           tst.b (a7)+
       < 0x006bf72c      670004b6       beq.w 0x6bfbe4
          0x006bf730      554f           subq.w 0x2, a7
          0x006bf732      4e94           jsr (a4)                    ; fcn.0000000d
          0x006bf734      4a1f           tst.b (a7)+
      < 0x006bf736      6740           beq.b 0x6bf778
         0x006bf738      487ab612       pea.l 0x6bad4c(pc)
         0x006bf73c      48780016       pea.l 0x16
         0x006bf740      2f17           move.l (a7), -(a7)
         0x006bf742      4e92           jsr (a2)                    ; fcn.00000009+0x2
         0x006bf744      dec1           adda.w d1, a7
         0x006bf746      486e0019       pea.l 0x19(a6)
         0x006bf74a      42a7           clr.l -(a7)
         0x006bf74c      1f6e00180003   move.b 0x18(a6), 0x3(a7)
         0x006bf752      2f17           move.l (a7), -(a7)
         0x006bf754      4e92           jsr (a2)                    ; fcn.00000009+0x2
         0x006bf756      dec1           adda.w d1, a7
         0x006bf758      487ab609       pea.l 0x6bad63(pc)
         0x006bf75c      4878000c       pea.l 0xc
         0x006bf760      2f17           move.l (a7), -(a7)
         0x006bf762      4e92           jsr (a2)                    ; fcn.00000009+0x2
         0x006bf764      504f           addq.w 0x8, a7
         0x006bf766      2eae0014       move.l 0x14(a6), (a7)
         0x006bf76a      4878ffff       pea.l 0xffff
         0x006bf76e      4eb9004070e4   jsr p_wti_o
         0x006bf774      504f           addq.w 0x8, a7
         0x006bf776      4e93           jsr (a3)                    ; fcn.0000000c
      > 0x006bf778      2d6e0014ffbe   move.l 0x14(a6), -0x42(a6)
          0x006bf77e      2d7cffffffff.  move.l 0xffffffff, -0x3e(a6)
          0x006bf786      426effc6       clr.w -0x3a(a6)
          0x006bf78a      7e00           moveq 0x0, d7
      > 0x006bf78c      554f           subq.w 0x2, a7
         0x006bf78e      486effbe       pea.l -0x42(a6)
         0x006bf792      3f3c044d       move.w 0x44d, -(a7)
         0x006bf796      3f3c044d       move.w 0x44d, -(a7)
         0x006bf79a      1f04           move.b d4, -(a7)
         0x006bf79c      486effe8       pea.l -0x18(a6)
         0x006bf7a0      4eb900607986   jsr F10_FILELIST.f_find_file
         0x006bf7a6      defc000e       adda.w 0xe, a7
         0x006bf7aa      4a1f           tst.b (a7)+
     < 0x006bf7ac      67000156       beq.w 0x6bf904
        0x006bf7b0      554f           subq.w 0x2, a7
        0x006bf7b2      4e94           jsr (a4)                    ; fcn.0000000d
        0x006bf7b4      4a1f           tst.b (a7)+
    < 0x006bf7b6      6730           beq.b 0x6bf7e8
       0x006bf7b8      9ec2           suba.w d2, a7
       0x006bf7ba      486effbe       pea.l -0x42(a6)
       0x006bf7be      4eb9005ef416   jsr F2_UTILITY.f_fid_string
       0x006bf7c4      584f           addq.w 0x4, a7
       0x006bf7c6      487ab5a8       pea.l 0x6bad70(pc)
       0x006bf7ca      48780010       pea.l 0x10
       0x006bf7ce      2f17           move.l (a7), -(a7)
       0x006bf7d0      4e92           jsr (a2)                    ; fcn.00000009+0x2
       0x006bf7d2      dec1           adda.w d1, a7
       0x006bf7d4      486f0001       pea.l 0x1(a7)
       0x006bf7d8      42a7           clr.l -(a7)
       0x006bf7da      1f6f00080003   move.b 0x8(a7), 0x3(a7)
       0x006bf7e0      2f17           move.l (a7), -(a7)
       0x006bf7e2      4e92           jsr (a2)                    ; fcn.00000009+0x2
       0x006bf7e4      dec3           adda.w d3, a7
       0x006bf7e6      4e93           jsr (a3)                    ; fcn.0000000c
    > 0x006bf7e8      554f           subq.w 0x2, a7
        0x006bf7ea      2f2effc4       move.l -0x3c(a6), -(a7)
        0x006bf7ee      2f2effc0       move.l -0x40(a6), -(a7)
        0x006bf7f2      3f2effbe       move.w -0x42(a6), -(a7)
        0x006bf7f6      4227           clr.b -(a7)
        0x006bf7f8      486effdc       pea.l -0x24(a6)
        0x006bf7fc      4eb9006082de   jsr F10_FILELIST.f_get_header
        0x006bf802      dec5           adda.w d5, a7
        0x006bf804      4a1f           tst.b (a7)+
    < 0x006bf806      670000c6       beq.w 0x6bf8ce
       0x006bf80a      554f           subq.w 0x2, a7
       0x006bf80c      4e94           jsr (a4)                    ; fcn.0000000d
       0x006bf80e      4a1f           tst.b (a7)+
   < 0x006bf810      6710           beq.b 0x6bf822
      0x006bf812      487ab56d       pea.l 0x6bad81(pc)
      0x006bf816      48780017       pea.l 0x17
      0x006bf81a      2f17           move.l (a7), -(a7)
      0x006bf81c      4e92           jsr (a2)                    ; fcn.00000009+0x2
      0x006bf81e      dec1           adda.w d1, a7
      0x006bf820      4e93           jsr (a3)                    ; fcn.0000000c
   > 0x006bf822      9ec2           suba.w d2, a7
       0x006bf824      3f3c0020       move.w 0x20, -(a7)
       0x006bf828      2f2effdc       move.l -0x24(a6), -(a7)
       0x006bf82c      4eb9005eed64   jsr f_get_string
       0x006bf832      5c4f           addq.w 0x6, a7
       0x006bf834      4240           clr.w d0
       0x006bf836      1017           move.b (a7), d0
       0x006bf838      0c000014       cmpi.b 0x14, d0
   < 0x006bf83c      6302           bls.b 0x6bf840
      0x006bf83e      7014           moveq 0x14, d0
   > 0x006bf840      1d40ffea       move.b d0, -0x16(a6)
       0x006bf844      5300           subq.b 0x1, d0
   < 0x006bf846      650e           bcs.b 0x6bf856
      0x006bf848      41eeffeb       lea.l -0x15(a6), a0
      0x006bf84c      43ef0001       lea.l 0x1(a7), a1
  > 0x006bf850      10d9           move.b (a1)+, (a0)+
  < 0x006bf852      51c8fffc       dbra d0, 0x6bf850
   > 0x006bf856      dec2           adda.w d2, a7
       0x006bf858      7e00           moveq 0x0, d7
       0x006bf85a      4240           clr.w d0
       0x006bf85c      102effea       move.b -0x16(a6), d0
       0x006bf860      b02e0018       cmp.b 0x18(a6), d0
   < 0x006bf864      6304           bls.b 0x6bf86a
      0x006bf866      102e0018       move.b 0x18(a6), d0
   > 0x006bf86a      5300           subq.b 0x1, d0
   < 0x006bf86c      6510           bcs.b 0x6bf87e
      0x006bf86e      41eeffeb       lea.l -0x15(a6), a0
      0x006bf872      43ee0019       lea.l 0x19(a6), a1
  > 0x006bf876      b109           cmpm.b (a1)+, (a0)+
  < 0x006bf878      56c8fffc       dbne d0, 0x6bf876
  < 0x006bf87c      6608           bne.b 0x6bf886
  > 0x006bf87e      102effea       move.b -0x16(a6), d0
      0x006bf882      b02e0018       cmp.b 0x18(a6), d0
  < 0x006bf886      6602           bne.b 0x6bf88a
      0x006bf888      5207           addq.b 0x1, d7
   > 0x006bf88a      4a07           tst.b d7
   < 0x006bf88c      660c           bne.b 0x6bf89a
      0x006bf88e      486effdc       pea.l -0x24(a6)
      0x006bf892      4eb90060500e   jsr F9_FILERDWRT.f_free_block
      0x006bf898      584f           addq.w 0x4, a7
   > 0x006bf89a      554f           subq.w 0x2, a7
       0x006bf89c      4e94           jsr (a4)                    ; fcn.0000000d
       0x006bf89e      4a1f           tst.b (a7)+
   < 0x006bf8a0      6700009c       beq.w 0x6bf93e
      0x006bf8a4      4a07           tst.b d7
  < 0x006bf8a6      66000096       bne.w 0x6bf93e
     0x006bf8aa      487ab4ed       pea.l 0x6bad99(pc)
     0x006bf8ae      4878001e       pea.l 0x1e
     0x006bf8b2      2f17           move.l (a7), -(a7)
     0x006bf8b4      4e92           jsr (a2)                    ; fcn.00000009+0x2
     0x006bf8b6      dec1           adda.w d1, a7
     0x006bf8b8      486effeb       pea.l -0x15(a6)
     0x006bf8bc      42a7           clr.l -(a7)
     0x006bf8be      1f6effea0003   move.b -0x16(a6), 0x3(a7)
     0x006bf8c4      2f17           move.l (a7), -(a7)
     0x006bf8c6      4e92           jsr (a2)                    ; fcn.00000009+0x2
     0x006bf8c8      dec1           adda.w d1, a7
     0x006bf8ca      4e93           jsr (a3)                    ; fcn.0000000c
 < 0x006bf8cc      6070           bra.b 0x6bf93e
 > 0x006bf8ce      487ab4e8       pea.l 0x6badb8(pc)
     0x006bf8d2      48780025       pea.l 0x25
     0x006bf8d6      2f17           move.l (a7), -(a7)
     0x006bf8d8      4e92           jsr (a2)                    ; fcn.00000009+0x2
     0x006bf8da      dec1           adda.w d1, a7
     0x006bf8dc      4e93           jsr (a3)                    ; fcn.0000000c
     0x006bf8de      9ec2           suba.w d2, a7
     0x006bf8e0      4eb900408ec0   jsr p_err_string
     0x006bf8e6      486f0001       pea.l 0x1(a7)
     0x006bf8ea      42a7           clr.l -(a7)
     0x006bf8ec      1f6f00080003   move.b 0x8(a7), 0x3(a7)
     0x006bf8f2      2f17           move.l (a7), -(a7)
     0x006bf8f4      4e92           jsr (a2)                    ; fcn.00000009+0x2
     0x006bf8f6      dec3           adda.w d3, a7
     0x006bf8f8      4e93           jsr (a3)                    ; fcn.0000000c
     0x006bf8fa      4eb900404188   jsr p_Unlink
     0x006bf900      7e00           moveq 0x0, d7
 < 0x006bf902      603a           bra.b 0x6bf93e
 > 0x006bf904      554f           subq.w 0x2, a7
     0x006bf906      4eb9005ef980   jsr F2_UTILITY.f_eof
     0x006bf90c      4a1f           tst.b (a7)+
 < 0x006bf90e      6712           beq.b 0x6bf922
    0x006bf910      4878000c       pea.l 0xc
    0x006bf914      486eff74       pea.l -0x8c(a6)
    0x006bf918      4eb9006b7f94   jsr USER1_UTILS.error
    0x006bf91e      504f           addq.w 0x8, a7
 < 0x006bf920      601c           bra.b 0x6bf93e
 > 0x006bf922      487ab4ba       pea.l 0x6badde(pc)
     0x006bf926      4878001f       pea.l 0x1f
     0x006bf92a      2f17           move.l (a7), -(a7)
     0x006bf92c      4e92           jsr (a2)                    ; fcn.00000009+0x2
     0x006bf92e      dec1           adda.w d1, a7
     0x006bf930      4e93           jsr (a3)                    ; fcn.0000000c
     0x006bf932      486eff74       pea.l -0x8c(a6)
     0x006bf936      4eb900404468   jsr fcn.00404468
     0x006bf93c      584f           addq.w 0x4, a7
 > 0x006bf93e      4a07           tst.b d7
      < 0x006bf940      6700fe4a       beq.w 0x6bf78c
          0x006bf944      554f           subq.w 0x2, a7
          0x006bf946      4e94           jsr (a4)                    ; fcn.0000000d
          0x006bf948      4a1f           tst.b (a7)+
      < 0x006bf94a      6772           beq.b 0x6bf9be
         0x006bf94c      9ec2           suba.w d2, a7
         0x006bf94e      486effbe       pea.l -0x42(a6)
         0x006bf952      4eb9005ef416   jsr F2_UTILITY.f_fid_string
         0x006bf958      584f           addq.w 0x4, a7
         0x006bf95a      487ab4a2       pea.l 0x6badfe(pc)
         0x006bf95e      48780014       pea.l 0x14
         0x006bf962      2f17           move.l (a7), -(a7)
         0x006bf964      4e92           jsr (a2)                    ; fcn.00000009+0x2
         0x006bf966      dec1           adda.w d1, a7
         0x006bf968      486e0019       pea.l 0x19(a6)
         0x006bf96c      42a7           clr.l -(a7)
         0x006bf96e      1f6e00180003   move.b 0x18(a6), 0x3(a7)
         0x006bf974      2f17           move.l (a7), -(a7)
         0x006bf976      4e92           jsr (a2)                    ; fcn.00000009+0x2
         0x006bf978      dec1           adda.w d1, a7
         0x006bf97a      487ab497       pea.l 0x6bae13(pc)
         0x006bf97e      48780002       pea.l 0x2
         0x006bf982      2f17           move.l (a7), -(a7)
         0x006bf984      4e92           jsr (a2)                    ; fcn.00000009+0x2
         0x006bf986      dec1           adda.w d1, a7
         0x006bf988      486f0001       pea.l 0x1(a7)
         0x006bf98c      42a7           clr.l -(a7)
         0x006bf98e      1f6f00080003   move.b 0x8(a7), 0x3(a7)
         0x006bf994      2f17           move.l (a7), -(a7)
         0x006bf996      4e92           jsr (a2)                    ; fcn.00000009+0x2
         0x006bf998      dec3           adda.w d3, a7
         0x006bf99a      487ab47a       pea.l 0x6bae16(pc)
         0x006bf99e      48780006       pea.l 0x6
         0x006bf9a2      2f17           move.l (a7), -(a7)
         0x006bf9a4      4e92           jsr (a2)                    ; fcn.00000009+0x2
         0x006bf9a6      dec1           adda.w d1, a7
         0x006bf9a8      4280           clr.l d0
         0x006bf9aa      302effe8       move.w -0x18(a6), d0
         0x006bf9ae      2f00           move.l d0, -(a7)
         0x006bf9b0      48780001       pea.l 0x1
         0x006bf9b4      4eb9004070e4   jsr p_wti_o
         0x006bf9ba      504f           addq.w 0x8, a7
         0x006bf9bc      4e93           jsr (a3)                    ; fcn.0000000c
      > 0x006bf9be      554f           subq.w 0x2, a7
          0x006bf9c0      3f3c0021       move.w 0x21, -(a7)
          0x006bf9c4      2f2effdc       move.l -0x24(a6), -(a7)
          0x006bf9c8      41eeffc8       lea.l -0x38(a6), a0
          0x006bf9cc      2f08           move.l a0, -(a7)
          0x006bf9ce      3f06           move.w d6, -(a7)
          0x006bf9d0      4eb9005eed1e   jsr f_get_field
          0x006bf9d6      dec1           adda.w d1, a7
          0x006bf9d8      4a1f           tst.b (a7)+
      < 0x006bf9da      671e           beq.b 0x6bf9fa
         0x006bf9dc      554f           subq.w 0x2, a7
         0x006bf9de      3f3c0022       move.w 0x22, -(a7)
         0x006bf9e2      2f2effdc       move.l -0x24(a6), -(a7)
         0x006bf9e6      41eeffd2       lea.l -0x2e(a6), a0
         0x006bf9ea      2f08           move.l a0, -(a7)
         0x006bf9ec      3f06           move.w d6, -(a7)
         0x006bf9ee      4eb9005eed1e   jsr f_get_field
         0x006bf9f4      dec1           adda.w d1, a7
         0x006bf9f6      4a1f           tst.b (a7)+
     < 0x006bf9f8      6622           bne.b 0x6bfa1c
     > 0x006bf9fa      487ab421       pea.l 0x6bae1d(pc)
         0x006bf9fe      4878002b       pea.l 0x2b
         0x006bfa02      2f17           move.l (a7), -(a7)
         0x006bfa04      4e92           jsr (a2)                    ; fcn.00000009+0x2
         0x006bfa06      dec1           adda.w d1, a7
         0x006bfa08      4e93           jsr (a3)                    ; fcn.0000000c
         0x006bfa0a      4878000d       pea.l 0xd
         0x006bfa0e      486eff74       pea.l -0x8c(a6)
         0x006bfa12      4eb9006b7f94   jsr USER1_UTILS.error
         0x006bfa18      504f           addq.w 0x8, a7
     < 0x006bfa1a      6068           bra.b 0x6bfa84
     > 0x006bfa1c      554f           subq.w 0x2, a7
         0x006bfa1e      4e94           jsr (a4)                    ; fcn.0000000d
         0x006bfa20      4a1f           tst.b (a7)+
     < 0x006bfa22      6760           beq.b 0x6bfa84
        0x006bfa24      9ec2           suba.w d2, a7
        0x006bfa26      486effc8       pea.l -0x38(a6)
        0x006bfa2a      4eb9005ef416   jsr F2_UTILITY.f_fid_string
        0x006bfa30      584f           addq.w 0x4, a7
        0x006bfa32      487ab415       pea.l 0x6bae49(pc)
        0x006bfa36      48780024       pea.l 0x24
        0x006bfa3a      2f17           move.l (a7), -(a7)
        0x006bfa3c      4e92           jsr (a2)                    ; fcn.00000009+0x2
        0x006bfa3e      dec1           adda.w d1, a7
        0x006bfa40      486f0001       pea.l 0x1(a7)
        0x006bfa44      42a7           clr.l -(a7)
        0x006bfa46      1f6f00080003   move.b 0x8(a7), 0x3(a7)
        0x006bfa4c      2f17           move.l (a7), -(a7)
        0x006bfa4e      4e92           jsr (a2)                    ; fcn.00000009+0x2
        0x006bfa50      dec3           adda.w d3, a7
        0x006bfa52      4e93           jsr (a3)                    ; fcn.0000000c
        0x006bfa54      9ec2           suba.w d2, a7
        0x006bfa56      486effd2       pea.l -0x2e(a6)
        0x006bfa5a      4eb9005ef416   jsr F2_UTILITY.f_fid_string
        0x006bfa60      584f           addq.w 0x4, a7
        0x006bfa62      487ab40a       pea.l 0x6bae6e(pc)
        0x006bfa66      48780022       pea.l 0x22
        0x006bfa6a      2f17           move.l (a7), -(a7)
        0x006bfa6c      4e92           jsr (a2)                    ; fcn.00000009+0x2
        0x006bfa6e      dec1           adda.w d1, a7
        0x006bfa70      486f0001       pea.l 0x1(a7)
        0x006bfa74      42a7           clr.l -(a7)
        0x006bfa76      1f6f00080003   move.b 0x8(a7), 0x3(a7)
        0x006bfa7c      2f17           move.l (a7), -(a7)
        0x006bfa7e      4e92           jsr (a2)                    ; fcn.00000009+0x2
        0x006bfa80      dec3           adda.w d3, a7
        0x006bfa82      4e93           jsr (a3)                    ; fcn.0000000c
     > 0x006bfa84      486effdc       pea.l -0x24(a6)
          0x006bfa88      4eb90060500e   jsr F9_FILERDWRT.f_free_block
          0x006bfa8e      544f           addq.w 0x2, a7
          0x006bfa90      2f2effce       move.l -0x32(a6), -(a7)
          0x006bfa94      2f2effca       move.l -0x36(a6), -(a7)
          0x006bfa98      3f2effc8       move.w -0x38(a6), -(a7)
          0x006bfa9c      4227           clr.b -(a7)
          0x006bfa9e      486effe4       pea.l -0x1c(a6)
          0x006bfaa2      4eb90060c190   jsr F14_MAP.f_op_map
          0x006bfaa8      dec5           adda.w d5, a7
          0x006bfaaa      4a1f           tst.b (a7)+
      < 0x006bfaac      663c           bne.b 0x6bfaea
         0x006bfaae      9ec2           suba.w d2, a7
         0x006bfab0      486effc8       pea.l -0x38(a6)
         0x006bfab4      4eb9005ef416   jsr F2_UTILITY.f_fid_string
         0x006bfaba      584f           addq.w 0x4, a7
         0x006bfabc      487ab3d3       pea.l 0x6bae91(pc)
         0x006bfac0      4878002b       pea.l 0x2b
         0x006bfac4      2f17           move.l (a7), -(a7)
         0x006bfac6      4e92           jsr (a2)                    ; fcn.00000009+0x2
         0x006bfac8      dec1           adda.w d1, a7
         0x006bfaca      486f0001       pea.l 0x1(a7)
         0x006bface      42a7           clr.l -(a7)
         0x006bfad0      1f6f00080003   move.b 0x8(a7), 0x3(a7)
         0x006bfad6      2f17           move.l (a7), -(a7)
         0x006bfad8      4e92           jsr (a2)                    ; fcn.00000009+0x2
         0x006bfada      dec3           adda.w d3, a7
         0x006bfadc      4e93           jsr (a3)                    ; fcn.0000000c
         0x006bfade      486eff74       pea.l -0x8c(a6)
         0x006bfae2      4eb900404468   jsr fcn.00404468
         0x006bfae8      584f           addq.w 0x4, a7
      > 0x006bfaea      554f           subq.w 0x2, a7
          0x006bfaec      2f2effd8       move.l -0x28(a6), -(a7)
          0x006bfaf0      2f2effd4       move.l -0x2c(a6), -(a7)
          0x006bfaf4      3f2effd2       move.w -0x2e(a6), -(a7)
          0x006bfaf8      4227           clr.b -(a7)
          0x006bfafa      486effe0       pea.l -0x20(a6)
          0x006bfafe      4eb90060c190   jsr F14_MAP.f_op_map
          0x006bfb04      dec5           adda.w d5, a7
          0x006bfb06      4a1f           tst.b (a7)+
      < 0x006bfb08      663c           bne.b 0x6bfb46
         0x006bfb0a      9ec2           suba.w d2, a7
         0x006bfb0c      486effd2       pea.l -0x2e(a6)
         0x006bfb10      4eb9005ef416   jsr F2_UTILITY.f_fid_string
         0x006bfb16      584f           addq.w 0x4, a7
         0x006bfb18      487ab3a3       pea.l 0x6baebd(pc)
         0x006bfb1c      48780029       pea.l 0x29
         0x006bfb20      2f17           move.l (a7), -(a7)
         0x006bfb22      4e92           jsr (a2)                    ; fcn.00000009+0x2
         0x006bfb24      dec1           adda.w d1, a7
         0x006bfb26      486f0001       pea.l 0x1(a7)
         0x006bfb2a      42a7           clr.l -(a7)
         0x006bfb2c      1f6f00080003   move.b 0x8(a7), 0x3(a7)
         0x006bfb32      2f17           move.l (a7), -(a7)
         0x006bfb34      4e92           jsr (a2)                    ; fcn.00000009+0x2
         0x006bfb36      dec3           adda.w d3, a7
         0x006bfb38      4e93           jsr (a3)                    ; fcn.0000000c
         0x006bfb3a      486eff74       pea.l -0x8c(a6)
         0x006bfb3e      4eb900404468   jsr fcn.00404468
         0x006bfb44      584f           addq.w 0x4, a7
      > 0x006bfb46      554f           subq.w 0x2, a7
          0x006bfb48      4e94           jsr (a4)                    ; fcn.0000000d
          0x006bfb4a      4a1f           tst.b (a7)+
      < 0x006bfb4c      6760           beq.b 0x6bfbae
         0x006bfb4e      9ec2           suba.w d2, a7
         0x006bfb50      486effc8       pea.l -0x38(a6)
         0x006bfb54      4eb9005ef416   jsr F2_UTILITY.f_fid_string
         0x006bfb5a      9efc00fc       suba.w 0xfc, a7
         0x006bfb5e      486effd2       pea.l -0x2e(a6)
         0x006bfb62      4eb9005ef416   jsr F2_UTILITY.f_fid_string
         0x006bfb68      584f           addq.w 0x4, a7
         0x006bfb6a      487ab37b       pea.l 0x6baee7(pc)
         0x006bfb6e      4878001b       pea.l 0x1b
         0x006bfb72      2f17           move.l (a7), -(a7)
         0x006bfb74      4e92           jsr (a2)                    ; fcn.00000009+0x2
         0x006bfb76      dec1           adda.w d1, a7
         0x006bfb78      486f0101       pea.l 0x101(a7)
         0x006bfb7c      42a7           clr.l -(a7)
         0x006bfb7e      1f6f01080003   move.b 0x108(a7), 0x3(a7)
         0x006bfb84      2f17           move.l (a7), -(a7)
         0x006bfb86      4e92           jsr (a2)                    ; fcn.00000009+0x2
         0x006bfb88      dec1           adda.w d1, a7
         0x006bfb8a      487ab377       pea.l 0x6baf03(pc)
         0x006bfb8e      48780018       pea.l 0x18
         0x006bfb92      2f17           move.l (a7), -(a7)
         0x006bfb94      4e92           jsr (a2)                    ; fcn.00000009+0x2
         0x006bfb96      dec1           adda.w d1, a7
         0x006bfb98      486f0001       pea.l 0x1(a7)
         0x006bfb9c      42a7           clr.l -(a7)
         0x006bfb9e      1f6f00080003   move.b 0x8(a7), 0x3(a7)
         0x006bfba4      2f17           move.l (a7), -(a7)
         0x006bfba6      4e92           jsr (a2)                    ; fcn.00000009+0x2
         0x006bfba8      defc020c       adda.w 0x20c, a7
         0x006bfbac      4e93           jsr (a3)                    ; fcn.0000000c
      > 0x006bfbae      206e0010       movea.l 0x10(a6), a0
          0x006bfbb2      43eeffbe       lea.l -0x42(a6), a1
          0x006bfbb6      7009           moveq 0x9, d0
      > 0x006bfbb8      10d9           move.b (a1)+, (a0)+
      < 0x006bfbba      51c8fffc       dbra d0, 0x6bfbb8
          0x006bfbbe      206e000c       movea.l 0xc(a6), a0
          0x006bfbc2      43eeffc8       lea.l -0x38(a6), a1
          0x006bfbc6      7009           moveq 0x9, d0
      > 0x006bfbc8      10d9           move.b (a1)+, (a0)+
      < 0x006bfbca      51c8fffc       dbra d0, 0x6bfbc8
          0x006bfbce      206e0008       movea.l 0x8(a6), a0
          0x006bfbd2      43eeffd2       lea.l -0x2e(a6), a1
          0x006bfbd6      7009           moveq 0x9, d0
      > 0x006bfbd8      10d9           move.b (a1)+, (a0)+
      < 0x006bfbda      51c8fffc       dbra d0, 0x6bfbd8
          0x006bfbde      1d44002e       move.b d4, 0x2e(a6)
      < 0x006bfbe2      606e           bra.b 0x6bfc52
      > 0x006bfbe4      422e002e       clr.b 0x2e(a6)
          0x006bfbe8      554f           subq.w 0x2, a7
          0x006bfbea      4e94           jsr (a4)                    ; fcn.0000000d
          0x006bfbec      4a1f           tst.b (a7)+
      < 0x006bfbee      675c           beq.b 0x6bfc4c
         0x006bfbf0      487ab32a       pea.l 0x6baf1c(pc)
         0x006bfbf4      48780027       pea.l 0x27
         0x006bfbf8      2f17           move.l (a7), -(a7)
         0x006bfbfa      4e92           jsr (a2)                    ; fcn.00000009+0x2
         0x006bfbfc      dec1           adda.w d1, a7
         0x006bfbfe      486e0019       pea.l 0x19(a6)
         0x006bfc02      42a7           clr.l -(a7)
         0x006bfc04      1f6e00180003   move.b 0x18(a6), 0x3(a7)
         0x006bfc0a      2f17           move.l (a7), -(a7)
         0x006bfc0c      4e92           jsr (a2)                    ; fcn.00000009+0x2
         0x006bfc0e      dec1           adda.w d1, a7
         0x006bfc10      487ab332       pea.l 0x6baf44(pc)
         0x006bfc14      48780008       pea.l 0x8
         0x006bfc18      2f17           move.l (a7), -(a7)
         0x006bfc1a      4e92           jsr (a2)                    ; fcn.00000009+0x2
         0x006bfc1c      504f           addq.w 0x8, a7
         0x006bfc1e      2eae0014       move.l 0x14(a6), (a7)
         0x006bfc22      4878ffff       pea.l 0xffff
         0x006bfc26      4eb9004070e4   jsr p_wti_o
         0x006bfc2c      504f           addq.w 0x8, a7
         0x006bfc2e      4e93           jsr (a3)                    ; fcn.0000000c
         0x006bfc30      9ec2           suba.w d2, a7
         0x006bfc32      4eb900408ec0   jsr p_err_string
         0x006bfc38      486f0001       pea.l 0x1(a7)
         0x006bfc3c      42a7           clr.l -(a7)
         0x006bfc3e      1f6f00080003   move.b 0x8(a7), 0x3(a7)
         0x006bfc44      2f17           move.l (a7), -(a7)
         0x006bfc46      4e92           jsr (a2)                    ; fcn.00000009+0x2
         0x006bfc48      dec3           adda.w d3, a7
         0x006bfc4a      4e93           jsr (a3)                    ; fcn.0000000c
      > 0x006bfc4c      4eb900404188   jsr p_Unlink
      > 0x006bfc52      486effe0       pea.l -0x20(a6)
           0x006bfc56      4eb90060470a   jsr F9_FILERDWRT.f_close
           0x006bfc5c      584f           addq.w 0x4, a7
           0x006bfc5e      486effe4       pea.l -0x1c(a6)
           0x006bfc62      4eb90060470a   jsr F9_FILERDWRT.f_close
           0x006bfc68      544f           addq.w 0x2, a7
           0x006bfc6a      1e84           move.b d4, (a7)
           0x006bfc6c      4eb9006b96f2   jsr USER1_UTILS.aux_stack_check
           0x006bfc72      544f           addq.w 0x2, a7
           0x006bfc74      4cdf1fff       movem.l (a7)+, d0-d7/a0-a4
           0x006bfc78      4e5e           unlk a6
           0x006bfc7a      4e75           rts
            ; XREFS: CALL 0x006b0f0e  CALL 0x006b148e  CALL 0x006b1948  
            ; XREFS: CALL 0x006b762e  CALL 0x006b7662  CALL 0x006b76b8  
            ; XREFS: CALL 0x006c1106  CALL 0x006c2c0e  CALL 0x006cab48  
            ; XREFS: CALL 0x00776920  CALL 0x00776948  CALL 0x007887f6  
            ; XREFS: CALL 0x0078e4d4  CALL 0x0078e504  
 1920: USER2_DISK.set_fixed_user ();
           ; var int32_t var_8h @ a7+0x8
           ; var int32_t var_ch @ a7+0xc
           ; var int32_t var_108h @ a7+0x108
           0x006bfc7c      4e56fd80       link.w a6, 0xfd80
           0x006bfc80      bfd5           cmpa.l (a5), a7
       < 0x006bfc82      6206           bhi.b 0x6bfc8a
          0x006bfc84      44fc0002       move.w 0x2, ccr
          0x006bfc88      4e76           trapv
       > 0x006bfc8a      defc0248       adda.w 0x248, a7
           0x006bfc8e      48e7fff8       movem.l d0-d7/a0-a4, -(a7)
           0x006bfc92      780c           moveq 0xc, d4
           0x006bfc94      7a01           moveq 0x1, d5
           0x006bfc96      3c3c0100       move.w 0x100, d6
           0x006bfc9a      1f2e0008       move.b 0x8(a6), -(a7)
           0x006bfc9e      4ebacca4       jsr USER2_DISK.check_scope(pc)
           0x006bfca2      4eb9006ba3c2   jsr USER1_UTILS.udebug_on
           0x006bfca8      4a1f           tst.b (a7)+
       < 0x006bfcaa      670000f0       beq.w 0x6bfd9c
          0x006bfcae      9ec6           suba.w d6, a7
          0x006bfcb0      4eb9006b91ea   jsr USER1_UTILS.p_task_name
          0x006bfcb6      487ab295       pea.l 0x6baf4d(pc)
          0x006bfcba      48780005       pea.l 0x5
          0x006bfcbe      2f17           move.l (a7), -(a7)
          0x006bfcc0      4eb9004047ea   jsr p_wts_o
          0x006bfcc6      dec4           adda.w d4, a7
          0x006bfcc8      486f0001       pea.l 0x1(a7)
          0x006bfccc      42a7           clr.l -(a7)
          0x006bfcce      1f6f00080003   move.b 0x8(a7), 0x3(a7)
          0x006bfcd4      2f17           move.l (a7), -(a7)
          0x006bfcd6      4eb9004047ea   jsr p_wts_o
          0x006bfcdc      defc010c       adda.w 0x10c, a7
          0x006bfce0      487ab271       pea.l 0x6baf53(pc)
          0x006bfce4      48780009       pea.l 0x9
          0x006bfce8      2f17           move.l (a7), -(a7)
          0x006bfcea      4eb9004047ea   jsr p_wts_o
          0x006bfcf0      dec4           adda.w d4, a7
          0x006bfcf2      4a2e0008       tst.b 0x8(a6)
      < 0x006bfcf6      6614           bne.b 0x6bfd0c
         0x006bfcf8      487ab263       pea.l 0x6baf5d(pc)
         0x006bfcfc      48780005       pea.l 0x5
         0x006bfd00      2f17           move.l (a7), -(a7)
     > 0x006bfd02      4eb9004047ea   jsr p_wts_o
        0x006bfd08      dec4           adda.w d4, a7
    < 0x006bfd0a      6062           bra.b 0x6bfd6e
    > 0x006bfd0c      102e0008       move.b 0x8(a6), d0
        0x006bfd10      b005           cmp.b d5, d0
    < 0x006bfd12      660c           bne.b 0x6bfd20
       0x006bfd14      487ab24d       pea.l 0x6baf63(pc)
       0x006bfd18      48780006       pea.l 0x6
   > 0x006bfd1c      2f17           move.l (a7), -(a7)
   < 0x006bfd1e      60e2           bra.b 0x6bfd02
    > 0x006bfd20      0c000004       cmpi.b 0x4, d0
    < 0x006bfd24      660a           bne.b 0x6bfd30
       0x006bfd26      487ab242       pea.l 0x6baf6a(pc)
       0x006bfd2a      48780007       pea.l 0x7
   < 0x006bfd2e      60ec           bra.b 0x6bfd1c
     > 0x006bfd30      0c000002       cmpi.b 0x2, d0
     < 0x006bfd34      6638           bne.b 0x6bfd6e
        0x006bfd36      9ec6           suba.w d6, a7
        0x006bfd38      3f2e000a       move.w 0xa(a6), -(a7)
        0x006bfd3c      4eb90066ea9c   jsr N10_UTILS.n_stn_str
        0x006bfd42      544f           addq.w 0x2, a7
        0x006bfd44      487ab22c       pea.l 0x6baf72(pc)
        0x006bfd48      4878000d       pea.l 0xd
        0x006bfd4c      2f17           move.l (a7), -(a7)
        0x006bfd4e      4eb9004047ea   jsr p_wts_o
        0x006bfd54      dec4           adda.w d4, a7
        0x006bfd56      486f0001       pea.l 0x1(a7)
        0x006bfd5a      42a7           clr.l -(a7)
        0x006bfd5c      1f6f00080003   move.b 0x8(a7), 0x3(a7)
        0x006bfd62      2f17           move.l (a7), -(a7)
        0x006bfd64      4eb9004047ea   jsr p_wts_o
        0x006bfd6a      defc010c       adda.w 0x10c, a7
    > 0x006bfd6e      487ab210       pea.l 0x6baf80(pc)
          0x006bfd72      48780016       pea.l 0x16
          0x006bfd76      2f17           move.l (a7), -(a7)
          0x006bfd78      4eb9004047ea   jsr p_wts_o
          0x006bfd7e      dec4           adda.w d4, a7
          0x006bfd80      486e000d       pea.l 0xd(a6)
          0x006bfd84      42a7           clr.l -(a7)
          0x006bfd86      1f6e000c0003   move.b 0xc(a6), 0x3(a7)
          0x006bfd8c      2f17           move.l (a7), -(a7)
          0x006bfd8e      4eb9004047ea   jsr p_wts_o
          0x006bfd94      dec4           adda.w d4, a7
          0x006bfd96      4eb900404946   jsr p_wtln_o
       > 0x006bfd9c      4227           clr.b -(a7)
           0x006bfd9e      4eb9006b96f2   jsr USER1_UTILS.aux_stack_check
           0x006bfda4      554f           subq.w 0x2, a7
           0x006bfda6      2f2e0008       move.l 0x8(a6), -(a7)
           0x006bfdaa      4ebae9ac       jsr USER2_DISK.ntable_volume(pc)
           0x006bfdae      584f           addq.w 0x4, a7
           0x006bfdb0      2e17           move.l (a7), d7
           0x006bfdb2      544f           addq.w 0x2, a7
           0x006bfdb4      4eb9006ba3c2   jsr USER1_UTILS.udebug_on
           0x006bfdba      4a1f           tst.b (a7)+
       < 0x006bfdbc      6726           beq.b 0x6bfde4
          0x006bfdbe      487ab1d7       pea.l 0x6baf97(pc)
          0x006bfdc2      4878001f       pea.l 0x1f
          0x006bfdc6      2f17           move.l (a7), -(a7)
          0x006bfdc8      4eb9004047ea   jsr p_wts_o
          0x006bfdce      504f           addq.w 0x8, a7
          0x006bfdd0      2e87           move.l d7, (a7)
          0x006bfdd2      4878ffff       pea.l 0xffff
          0x006bfdd6      4eb9004070e4   jsr p_wti_o
          0x006bfddc      504f           addq.w 0x8, a7
          0x006bfdde      4eb900404946   jsr p_wtln_o
       > 0x006bfde4      287900856246   movea.l 0x856246, a4
           0x006bfdea      102e0008       move.b 0x8(a6), d0
           0x006bfdee      0c000002       cmpi.b 0x2, d0
       < 0x006bfdf2      661c           bne.b 0x6bfe10
          0x006bfdf4      594f           subq.w 0x4, a7
          0x006bfdf6      4281           clr.l d1
          0x006bfdf8      122e000a       move.b 0xa(a6), d1
          0x006bfdfc      2f01           move.l d1, -(a7)
          0x006bfdfe      4281           clr.l d1
          0x006bfe00      122e000b       move.b 0xb(a6), d1
          0x006bfe04      2f01           move.l d1, -(a7)
          0x006bfe06      4ebad072       jsr USER2_DISK.get_station_ptr(pc)
          0x006bfe0a      504f           addq.w 0x8, a7
          0x006bfe0c      265f           movea.l (a7)+, a3
      < 0x006bfe0e      6012           bra.b 0x6bfe22
      > 0x006bfe10      4880           ext.w d0
          0x006bfe12      3200           move.w d0, d1
          0x006bfe14      e541           asl.w 0x2, d1
          0x006bfe16      b9ecfffc       cmpa.l -0x4(a4), a4
      < 0x006bfe1a      6702           beq.b 0x6bfe1e
         0x006bfe1c      4e4d           trap 0xd
      > 0x006bfe1e      26741016       movea.l 0x16(a4, d1.w), a3
      > 0x006bfe22      b6c5           cmpa.w d5, a3
       < 0x006bfe24      6608           bne.b 0x6bfe2e
          0x006bfe26      422effcc       clr.b -0x34(a6)
      < 0x006bfe2a      60000116       bra.w 0x6bff42
      > 0x006bfe2e      b7ebfffc       cmpa.l -0x4(a3), a3
      < 0x006bfe32      6702           beq.b 0x6bfe36
         0x006bfe34      4e4d           trap 0xd
      > 0x006bfe36      1d45ffcc       move.b d5, -0x34(a6)
          0x006bfe3a      9ec4           suba.w d4, a7
          0x006bfe3c      204f           movea.l a7, a0
          0x006bfe3e      224b           movea.l a3, a1
          0x006bfe40      7209           moveq 0x9, d1
      > 0x006bfe42      10d9           move.b (a1)+, (a0)+
      < 0x006bfe44      51c9fffc       dbra d1, 0x6bfe42
          0x006bfe48      2f3aa6f4       move.l 0x6ba53e(pc), -(a7)
          0x006bfe4c      2f3aa6ec       move.l 0x6ba53a(pc), -(a7)
          0x006bfe50      3f3aa6e6       move.w 0x6ba538(pc), -(a7)
          0x006bfe54      4eb9005ef3d2   jsr F2_UTILITY.f_fids_eq
          0x006bfe5a      defc0014       adda.w 0x14, a7
          0x006bfe5e      4a1f           tst.b (a7)+
      < 0x006bfe60      6654           bne.b 0x6bfeb6
         0x006bfe62      9ec4           suba.w d4, a7
         0x006bfe64      204f           movea.l a7, a0
         0x006bfe66      43eb000a       lea.l 0xa(a3), a1
         0x006bfe6a      7209           moveq 0x9, d1
     > 0x006bfe6c      10d9           move.b (a1)+, (a0)+
     < 0x006bfe6e      51c9fffc       dbra d1, 0x6bfe6c
         0x006bfe72      2f3aa6ca       move.l 0x6ba53e(pc), -(a7)
         0x006bfe76      2f3aa6c2       move.l 0x6ba53a(pc), -(a7)
         0x006bfe7a      3f3aa6bc       move.w 0x6ba538(pc), -(a7)
         0x006bfe7e      4eb9005ef3d2   jsr F2_UTILITY.f_fids_eq
         0x006bfe84      defc0014       adda.w 0x14, a7
         0x006bfe88      4a1f           tst.b (a7)+
     < 0x006bfe8a      662a           bne.b 0x6bfeb6
        0x006bfe8c      9ec4           suba.w d4, a7
        0x006bfe8e      204f           movea.l a7, a0
        0x006bfe90      43eb0014       lea.l 0x14(a3), a1
        0x006bfe94      7209           moveq 0x9, d1
    > 0x006bfe96      10d9           move.b (a1)+, (a0)+
    < 0x006bfe98      51c9fffc       dbra d1, 0x6bfe96
        0x006bfe9c      2f3aa6a0       move.l 0x6ba53e(pc), -(a7)
        0x006bfea0      2f3aa698       move.l 0x6ba53a(pc), -(a7)
        0x006bfea4      3f3aa692       move.w 0x6ba538(pc), -(a7)
        0x006bfea8      4eb9005ef3d2   jsr F2_UTILITY.f_fids_eq
        0x006bfeae      defc0014       adda.w 0x14, a7
        0x006bfeb2      4a1f           tst.b (a7)+
    < 0x006bfeb4      6704           beq.b 0x6bfeba
    > 0x006bfeb6      422effcc       clr.b -0x34(a6)
    > 0x006bfeba      4a2effcc       tst.b -0x34(a6)
      < 0x006bfebe      6726           beq.b 0x6bfee6
         0x006bfec0      9ec4           suba.w d4, a7
         0x006bfec2      204f           movea.l a7, a0
         0x006bfec4      224b           movea.l a3, a1
         0x006bfec6      7209           moveq 0x9, d1
     > 0x006bfec8      10d9           move.b (a1)+, (a0)+
     < 0x006bfeca      51c9fffc       dbra d1, 0x6bfec8
         0x006bfece      486effcc       pea.l -0x34(a6)
         0x006bfed2      4eb900607aaa   jsr F10_FILELIST.f_validate_fid
         0x006bfed8      defc000e       adda.w 0xe, a7
         0x006bfedc      4a1f           tst.b (a7)+
     < 0x006bfede      6606           bne.b 0x6bfee6
        0x006bfee0      4eb900404188   jsr p_Unlink
     > 0x006bfee6      4a2effcc       tst.b -0x34(a6)
      < 0x006bfeea      6728           beq.b 0x6bff14
         0x006bfeec      9ec4           suba.w d4, a7
         0x006bfeee      204f           movea.l a7, a0
         0x006bfef0      43eb000a       lea.l 0xa(a3), a1
         0x006bfef4      7209           moveq 0x9, d1
     > 0x006bfef6      10d9           move.b (a1)+, (a0)+
     < 0x006bfef8      51c9fffc       dbra d1, 0x6bfef6
         0x006bfefc      486effcc       pea.l -0x34(a6)
         0x006bff00      4eb900607aaa   jsr F10_FILELIST.f_validate_fid
         0x006bff06      defc000e       adda.w 0xe, a7
         0x006bff0a      4a1f           tst.b (a7)+
     < 0x006bff0c      6606           bne.b 0x6bff14
        0x006bff0e      4eb900404188   jsr p_Unlink
     > 0x006bff14      4a2effcc       tst.b -0x34(a6)
      < 0x006bff18      6728           beq.b 0x6bff42
         0x006bff1a      9ec4           suba.w d4, a7
         0x006bff1c      204f           movea.l a7, a0
         0x006bff1e      43eb0014       lea.l 0x14(a3), a1
         0x006bff22      7209           moveq 0x9, d1
     > 0x006bff24      10d9           move.b (a1)+, (a0)+
     < 0x006bff26      51c9fffc       dbra d1, 0x6bff24
         0x006bff2a      486effcc       pea.l -0x34(a6)
         0x006bff2e      4eb900607aaa   jsr F10_FILELIST.f_validate_fid
         0x006bff34      defc000e       adda.w 0xe, a7
         0x006bff38      4a1f           tst.b (a7)+
     < 0x006bff3a      6606           bne.b 0x6bff42
        0x006bff3c      4eb900404188   jsr p_Unlink
     > 0x006bff42      4a2effcc       tst.b -0x34(a6)
       < 0x006bff46      671c           beq.b 0x6bff64
          0x006bff48      554f           subq.w 0x2, a7
          0x006bff4a      4eb9006ba3c2   jsr USER1_UTILS.udebug_on
          0x006bff50      4a1f           tst.b (a7)+
      < 0x006bff52      6700048a       beq.w 0x6c03de
         0x006bff56      487ab05f       pea.l 0x6bafb7(pc)
         0x006bff5a      48780020       pea.l 0x20
         0x006bff5e      2f17           move.l (a7), -(a7)
     < 0x006bff60      6000046e       bra.w 0x6c03d0
     > 0x006bff64      554f           subq.w 0x2, a7
         0x006bff66      4eb9006ba3c2   jsr USER1_UTILS.udebug_on
         0x006bff6c      4a1f           tst.b (a7)+
     < 0x006bff6e      6718           beq.b 0x6bff88
        0x006bff70      487ab066       pea.l 0x6bafd8(pc)
        0x006bff74      4878001a       pea.l 0x1a
        0x006bff78      2f17           move.l (a7), -(a7)
        0x006bff7a      4eb9004047ea   jsr p_wts_o
        0x006bff80      dec4           adda.w d4, a7
        0x006bff82      4eb900404946   jsr p_wtln_o
     > 0x006bff88      b9ecfffc       cmpa.l -0x4(a4), a4
     < 0x006bff8c      6702           beq.b 0x6bff90
        0x006bff8e      4e4d           trap 0xd
     > 0x006bff90      4880           ext.w d0
         0x006bff92      48c0           ext.l d0
         0x006bff94      204c           movea.l a4, a0
         0x006bff96      2200           move.l d0, d1
         0x006bff98      e699           ror.l 0x3, d1
         0x006bff9a      d0c1           adda.w d1, a0
         0x006bff9c      4841           swap d1
         0x006bff9e      e759           rol.w 0x3, d1
         0x006bffa0      4a80           tst.l d0
     < 0x006bffa2      6644           bne.b 0x6bffe8
        0x006bffa4      554f           subq.w 0x2, a7
        0x006bffa6      4eb9004755c2   jsr CONFIG.cfg_gender
        0x006bffac      141f           move.b (a7)+, d2
        0x006bffae      0c02000d       cmpi.b 0xd, d2
    < 0x006bffb2      6734           beq.b 0x6bffe8
       0x006bffb4      14280015       move.b 0x15(a0), d2
       0x006bffb8      e32a           lsl.b d1, d2
       0x006bffba      ee0a           lsr.b 0x7, d2
   < 0x006bffbc      672a           beq.b 0x6bffe8
      0x006bffbe      554f           subq.w 0x2, a7
      0x006bffc0      4eb9006ba3c2   jsr USER1_UTILS.udebug_on
      0x006bffc6      4a1f           tst.b (a7)+
  < 0x006bffc8      6718           beq.b 0x6bffe2
     0x006bffca      487ab027       pea.l 0x6baff3(pc)
     0x006bffce      48780027       pea.l 0x27
     0x006bffd2      2f17           move.l (a7), -(a7)
     0x006bffd4      4eb9004047ea   jsr p_wts_o
     0x006bffda      dec4           adda.w d4, a7
     0x006bffdc      4eb900404946   jsr p_wtln_o
 > 0x006bffe2      422effcc       clr.b -0x34(a6)
 < 0x006bffe6      607e           bra.b 0x6c0066
 > 0x006bffe8      4a87           tst.l d7
   < 0x006bffea      6602           bne.b 0x6bffee
 < 0x006bffec      60f4           bra.b 0x6bffe2
    > 0x006bffee      9efc0014       suba.w 0x14, a7
        0x006bfff2      2f3aa568       move.l 0x6ba55c(pc), -(a7)
        0x006bfff6      2f7aa5680004   move.l 0x6ba560(pc), 0x4(a7)
        0x006bfffc      2f07           move.l d7, -(a7)
        0x006bfffe      486effce       pea.l -0x32(a6)
        0x006c0002      486effd8       pea.l -0x28(a6)
        0x006c0006      486effe2       pea.l -0x1e(a6)
        0x006c000a      4ebaf6be       jsr USER2_DISK.find_tables(pc)
        0x006c000e      defc0026       adda.w 0x26, a7
        0x006c0012      121f           move.b (a7)+, d1
        0x006c0014      4881           ext.w d1
        0x006c0016      4385           chk.w d5, d1
        0x006c0018      1d41ffcc       move.b d1, -0x34(a6)
        0x006c001c      122e0008       move.b 0x8(a6), d1
        0x006c0020      4881           ext.w d1
        0x006c0022      48c1           ext.l d1
        0x006c0024      204c           movea.l a4, a0
        0x006c0026      e699           ror.l 0x3, d1
        0x006c0028      d0c1           adda.w d1, a0
        0x006c002a      4841           swap d1
        0x006c002c      e759           rol.w 0x3, d1
        0x006c002e      554f           subq.w 0x2, a7
        0x006c0030      4eb9004755c2   jsr CONFIG.cfg_gender
        0x006c0036      141f           move.b (a7)+, d2
        0x006c0038      0c02000d       cmpi.b 0xd, d2
    < 0x006c003c      6628           bne.b 0x6c0066
       0x006c003e      4a2effcc       tst.b -0x34(a6)
   < 0x006c0042      6722           beq.b 0x6c0066
      0x006c0044      14280015       move.b 0x15(a0), d2
      0x006c0048      e32a           lsl.b d1, d2
      0x006c004a      ee0a           lsr.b 0x7, d2
  < 0x006c004c      6718           beq.b 0x6c0066
     0x006c004e      487aafcb       pea.l 0x6bb01b(pc)
     0x006c0052      48780038       pea.l 0x38
     0x006c0056      2f17           move.l (a7), -(a7)
     0x006c0058      4eb9004047ea   jsr p_wts_o
     0x006c005e      dec4           adda.w d4, a7
     0x006c0060      4eb900404946   jsr p_wtln_o
  > 0x006c0066      4a2effcc       tst.b -0x34(a6)
     < 0x006c006a      6700018e       beq.w 0x6c01fa
        0x006c006e      554f           subq.w 0x2, a7
        0x006c0070      4eb9006ba3c2   jsr USER1_UTILS.udebug_on
        0x006c0076      4a1f           tst.b (a7)+
    < 0x006c0078      6740           beq.b 0x6c00ba
       0x006c007a      487aafd8       pea.l 0x6bb054(pc)
       0x006c007e      4878000b       pea.l 0xb
       0x006c0082      2f17           move.l (a7), -(a7)
       0x006c0084      4eb9004047ea   jsr p_wts_o
       0x006c008a      dec4           adda.w d4, a7
       0x006c008c      486e000d       pea.l 0xd(a6)
       0x006c0090      42a7           clr.l -(a7)
       0x006c0092      1f6e000c0003   move.b 0xc(a6), 0x3(a7)
       0x006c0098      2f17           move.l (a7), -(a7)
       0x006c009a      4eb9004047ea   jsr p_wts_o
       0x006c00a0      dec4           adda.w d4, a7
       0x006c00a2      487aafbc       pea.l 0x6bb060(pc)
       0x006c00a6      48780003       pea.l 0x3
       0x006c00aa      2f17           move.l (a7), -(a7)
       0x006c00ac      4eb9004047ea   jsr p_wts_o
       0x006c00b2      dec4           adda.w d4, a7
       0x006c00b4      4eb900404946   jsr p_wtln_o
    > 0x006c00ba      122e0008       move.b 0x8(a6), d1
        0x006c00be      4881           ext.w d1
        0x006c00c0      033aafa2       btst.l d1, 0x6bb064(pc)
    < 0x006c00c4      670000d8       beq.w 0x6c019e
       0x006c00c8      43bc0004       chk.w 0x4, d1
       0x006c00cc      3401           move.w d1, d2
       0x006c00ce      e542           asl.w 0x2, d2
       0x006c00d0      20742016       movea.l 0x16(a4, d2.w), a0
       0x006c00d4      b0c5           cmpa.w d5, a0
   < 0x006c00d6      6668           bne.b 0x6c0140
      0x006c00d8      594f           subq.w 0x4, a7
      0x006c00da      4ebacc88       jsr USER2_DISK.new_user_table_(pc)
      0x006c00de      29972016       move.l (a7), 0x16(a4, d2.w)
      0x006c00e2      544f           addq.w 0x2, a7
      0x006c00e4      4eb9006ba3c2   jsr USER1_UTILS.udebug_on
      0x006c00ea      4a1f           tst.b (a7)+
  < 0x006c00ec      6752           beq.b 0x6c0140
     0x006c00ee      9ec6           suba.w d6, a7
     0x006c00f0      43bc0004       chk.w 0x4, d1
     0x006c00f4      1f01           move.b d1, -(a7)
     0x006c00f6      4eb9006b8e28   jsr USER1_UTILS.scope_str
     0x006c00fc      544f           addq.w 0x2, a7
     0x006c00fe      487aaf66       pea.l 0x6bb066(pc)
     0x006c0102      48780009       pea.l 0x9
     0x006c0106      2f17           move.l (a7), -(a7)
     0x006c0108      4eb9004047ea   jsr p_wts_o
     0x006c010e      dec4           adda.w d4, a7
     0x006c0110      486f0001       pea.l 0x1(a7)
     0x006c0114      42a7           clr.l -(a7)
     0x006c0116      1f6f00080003   move.b 0x8(a7), 0x3(a7)
     0x006c011c      2f17           move.l (a7), -(a7)
     0x006c011e      4eb9004047ea   jsr p_wts_o
     0x006c0124      defc010c       adda.w 0x10c, a7
     0x006c0128      487aaf46       pea.l 0x6bb070(pc)
     0x006c012c      4878000d       pea.l 0xd
     0x006c0130      2f17           move.l (a7), -(a7)
     0x006c0132      4eb9004047ea   jsr p_wts_o
     0x006c0138      dec4           adda.w d4, a7
     0x006c013a      4eb900404946   jsr p_wtln_o
  > 0x006c0140      20742016       movea.l 0x16(a4, d2.w), a0
       0x006c0144      b1e8fffc       cmpa.l -0x4(a0), a0
   < 0x006c0148      6702           beq.b 0x6c014c
      0x006c014a      4e4d           trap 0xd
   > 0x006c014c      2248           movea.l a0, a1
       0x006c014e      45eeffce       lea.l -0x32(a6), a2
       0x006c0152      7409           moveq 0x9, d2
   > 0x006c0154      12da           move.b (a2)+, (a1)+
   < 0x006c0156      51cafffc       dbra d2, 0x6c0154
       0x006c015a      43e8000a       lea.l 0xa(a0), a1
       0x006c015e      45eeffd8       lea.l -0x28(a6), a2
       0x006c0162      7409           moveq 0x9, d2
   > 0x006c0164      12da           move.b (a2)+, (a1)+
   < 0x006c0166      51cafffc       dbra d2, 0x6c0164
       0x006c016a      43e80014       lea.l 0x14(a0), a1
       0x006c016e      45eeffe2       lea.l -0x1e(a6), a2
       0x006c0172      7409           moveq 0x9, d2
   > 0x006c0174      12da           move.b (a2)+, (a1)+
   < 0x006c0176      51cafffc       dbra d2, 0x6c0174
       0x006c017a      b9ecfffc       cmpa.l -0x4(a4), a4
   < 0x006c017e      6702           beq.b 0x6c0182
      0x006c0180      4e4d           trap 0xd
   > 0x006c0182      48c1           ext.l d1
       0x006c0184      204c           movea.l a4, a0
       0x006c0186      2401           move.l d1, d2
       0x006c0188      e69a           ror.l 0x3, d2
       0x006c018a      d0c2           adda.w d2, a0
       0x006c018c      4842           swap d2
       0x006c018e      e75a           rol.w 0x3, d2
       0x006c0190      363cff7f       move.w 0xff7f, d3
       0x006c0194      e47b           ror.w d2, d3
       0x006c0196      c7280015       and.b d3, 0x15(a0)
   < 0x006c019a      60000242       bra.w 0x6c03de
   > 0x006c019e      0c010002       cmpi.b 0x2, d1
   < 0x006c01a2      6600023a       bne.w 0x6c03de
      0x006c01a6      594f           subq.w 0x4, a7
      0x006c01a8      4282           clr.l d2
      0x006c01aa      142e000a       move.b 0xa(a6), d2
      0x006c01ae      2f02           move.l d2, -(a7)
      0x006c01b0      4282           clr.l d2
      0x006c01b2      142e000b       move.b 0xb(a6), d2
      0x006c01b6      2f02           move.l d2, -(a7)
      0x006c01b8      4ebaccc0       jsr USER2_DISK.get_station_ptr(pc)
      0x006c01bc      504f           addq.w 0x8, a7
      0x006c01be      265f           movea.l (a7)+, a3
      0x006c01c0      b7ebfffc       cmpa.l -0x4(a3), a3
  < 0x006c01c4      6702           beq.b 0x6c01c8
     0x006c01c6      4e4d           trap 0xd
  > 0x006c01c8      204b           movea.l a3, a0
      0x006c01ca      43eeffce       lea.l -0x32(a6), a1
      0x006c01ce      7409           moveq 0x9, d2
  > 0x006c01d0      10d9           move.b (a1)+, (a0)+
  < 0x006c01d2      51cafffc       dbra d2, 0x6c01d0
      0x006c01d6      41eb000a       lea.l 0xa(a3), a0
      0x006c01da      43eeffd8       lea.l -0x28(a6), a1
      0x006c01de      7409           moveq 0x9, d2
  > 0x006c01e0      10d9           move.b (a1)+, (a0)+
  < 0x006c01e2      51cafffc       dbra d2, 0x6c01e0
      0x006c01e6      41eb0014       lea.l 0x14(a3), a0
      0x006c01ea      43eeffe2       lea.l -0x1e(a6), a1
      0x006c01ee      7409           moveq 0x9, d2
  > 0x006c01f0      10d9           move.b (a1)+, (a0)+
  < 0x006c01f2      51cafffc       dbra d2, 0x6c01f0
  < 0x006c01f6      600001e6       bra.w 0x6c03de
  > 0x006c01fa      122e0008       move.b 0x8(a6), d1
      0x006c01fe      4881           ext.w d1
      0x006c0200      43bc0004       chk.w 0x4, d1
      0x006c0204      48c1           ext.l d1
      0x006c0206      204c           movea.l a4, a0
      0x006c0208      2401           move.l d1, d2
      0x006c020a      e69a           ror.l 0x3, d2
      0x006c020c      d0c2           adda.w d2, a0
      0x006c020e      4842           swap d2
      0x006c0210      e75a           rol.w 0x3, d2
      0x006c0212      4a2effcc       tst.b -0x34(a6)
  < 0x006c0216      660000a4       bne.w 0x6c02bc
     0x006c021a      16280015       move.b 0x15(a0), d3
     0x006c021e      e52b           lsl.b d2, d3
     0x006c0220      ee0b           lsr.b 0x7, d3
 < 0x006c0222      66000098       bne.w 0x6c02bc
    0x006c0226      9ec6           suba.w d6, a7
    0x006c0228      4eb9006b91ea   jsr USER1_UTILS.p_task_name
    0x006c022e      9ec6           suba.w d6, a7
    0x006c0230      2f2e0008       move.l 0x8(a6), -(a7)
    0x006c0234      4eb9006b8ed2   jsr USER1_UTILS.region_str
    0x006c023a      584f           addq.w 0x4, a7
    0x006c023c      487aae40       pea.l 0x6bb07e(pc)
    0x006c0240      48780007       pea.l 0x7
    0x006c0244      2f17           move.l (a7), -(a7)
    0x006c0246      4eb9004047ea   jsr p_wts_o
    0x006c024c      dec4           adda.w d4, a7
    0x006c024e      486f0101       pea.l 0x101(a7)
    0x006c0252      42a7           clr.l -(a7)
    0x006c0254      1f6f01080003   move.b 0x108(a7), 0x3(a7)
    0x006c025a      2f17           move.l (a7), -(a7)
    0x006c025c      4eb9004047ea   jsr p_wts_o
    0x006c0262      dec4           adda.w d4, a7
    0x006c0264      487aae20       pea.l 0x6bb086(pc)
    0x006c0268      4878000f       pea.l 0xf
    0x006c026c      2f17           move.l (a7), -(a7)
    0x006c026e      4eb9004047ea   jsr p_wts_o
    0x006c0274      dec4           adda.w d4, a7
    0x006c0276      486f0001       pea.l 0x1(a7)
    0x006c027a      42a7           clr.l -(a7)
    0x006c027c      1f6f00080003   move.b 0x8(a7), 0x3(a7)
    0x006c0282      2f17           move.l (a7), -(a7)
    0x006c0284      4eb9004047ea   jsr p_wts_o
    0x006c028a      defc020c       adda.w 0x20c, a7
    0x006c028e      487aae06       pea.l 0x6bb096(pc)
    0x006c0292      48780006       pea.l 0x6
    0x006c0296      2f17           move.l (a7), -(a7)
    0x006c0298      4eb9004047ea   jsr p_wts_o
    0x006c029e      dec4           adda.w d4, a7
    0x006c02a0      486e000d       pea.l 0xd(a6)
    0x006c02a4      42a7           clr.l -(a7)
    0x006c02a6      1f6e000c0003   move.b 0xc(a6), 0x3(a7)
    0x006c02ac      2f17           move.l (a7), -(a7)
    0x006c02ae      4eb9004047ea   jsr p_wts_o
    0x006c02b4      dec4           adda.w d4, a7
    0x006c02b6      4eb900404946   jsr p_wtln_o
 > 0x006c02bc      b9ecfffc       cmpa.l -0x4(a4), a4
  < 0x006c02c0      6702           beq.b 0x6c02c4
     0x006c02c2      4e4d           trap 0xd
  > 0x006c02c4      204c           movea.l a4, a0
      0x006c02c6      2401           move.l d1, d2
      0x006c02c8      e69a           ror.l 0x3, d2
      0x006c02ca      d0c2           adda.w d2, a0
      0x006c02cc      4842           swap d2
      0x006c02ce      e75a           rol.w 0x3, d2
      0x006c02d0      163c0080       move.b 0x80, d3
      0x006c02d4      e42b           lsr.b d2, d3
      0x006c02d6      87280015       or.b d3, 0x15(a0)
      0x006c02da      3401           move.w d1, d2
      0x006c02dc      e542           asl.w 0x2, d2
      0x006c02de      20742016       movea.l 0x16(a4, d2.w), a0
      0x006c02e2      b0c5           cmpa.w d5, a0
  < 0x006c02e4      67000088       beq.w 0x6c036e
     0x006c02e8      554f           subq.w 0x2, a7
     0x006c02ea      4eb9006ba3c2   jsr USER1_UTILS.udebug_on
     0x006c02f0      4a1f           tst.b (a7)+
 < 0x006c02f2      673e           beq.b 0x6c0332
    0x006c02f4      9ec6           suba.w d6, a7
    0x006c02f6      3f2e000a       move.w 0xa(a6), -(a7)
    0x006c02fa      4eb90066ea9c   jsr N10_UTILS.n_stn_str
    0x006c0300      544f           addq.w 0x2, a7
    0x006c0302      487aad99       pea.l 0x6bb09d(pc)
    0x006c0306      48780028       pea.l 0x28
    0x006c030a      2f17           move.l (a7), -(a7)
    0x006c030c      4eb9004047ea   jsr p_wts_o
    0x006c0312      dec4           adda.w d4, a7
    0x006c0314      486f0001       pea.l 0x1(a7)
    0x006c0318      42a7           clr.l -(a7)
    0x006c031a      1f6f00080003   move.b 0x8(a7), 0x3(a7)
    0x006c0320      2f17           move.l (a7), -(a7)
    0x006c0322      4eb9004047ea   jsr p_wts_o
    0x006c0328      defc010c       adda.w 0x10c, a7
    0x006c032c      4eb900404946   jsr p_wtln_o
 > 0x006c0332      22742016       movea.l 0x16(a4, d2.w), a1
     0x006c0336      b3e9fffc       cmpa.l -0x4(a1), a1
 < 0x006c033a      6702           beq.b 0x6c033e
    0x006c033c      4e4d           trap 0xd
 > 0x006c033e      2449           movea.l a1, a2
     0x006c0340      41faa1f6       lea.l 0x6ba538(pc), a0
     0x006c0344      7609           moveq 0x9, d3
 > 0x006c0346      14d8           move.b (a0)+, (a2)+
 < 0x006c0348      51cbfffc       dbra d3, 0x6c0346
     0x006c034c      41e9000a       lea.l 0xa(a1), a0
     0x006c0350      45faa1e6       lea.l 0x6ba538(pc), a2
     0x006c0354      7609           moveq 0x9, d3
 > 0x006c0356      10da           move.b (a2)+, (a0)+
 < 0x006c0358      51cbfffc       dbra d3, 0x6c0356
     0x006c035c      43e90014       lea.l 0x14(a1), a1
     0x006c0360      41faa1d6       lea.l 0x6ba538(pc), a0
     0x006c0364      7609           moveq 0x9, d3
 > 0x006c0366      12d8           move.b (a0)+, (a1)+
 < 0x006c0368      51cbfffc       dbra d3, 0x6c0366
 < 0x006c036c      6070           bra.b 0x6c03de
 > 0x006c036e      b205           cmp.b d5, d1
 < 0x006c0370      666c           bne.b 0x6c03de
    0x006c0372      b0c5           cmpa.w d5, a0
 < 0x006c0374      6668           bne.b 0x6c03de
    0x006c0376      594f           subq.w 0x4, a7
    0x006c0378      4ebac9ea       jsr USER2_DISK.new_user_table_(pc)
    0x006c037c      29972016       move.l (a7), 0x16(a4, d2.w)
    0x006c0380      544f           addq.w 0x2, a7
    0x006c0382      4eb9006ba3c2   jsr USER1_UTILS.udebug_on
    0x006c0388      4a1f           tst.b (a7)+
 < 0x006c038a      6752           beq.b 0x6c03de
    0x006c038c      9ec6           suba.w d6, a7
    0x006c038e      43bc0004       chk.w 0x4, d1
    0x006c0392      1f01           move.b d1, -(a7)
    0x006c0394      4eb9006b8e28   jsr USER1_UTILS.scope_str
    0x006c039a      544f           addq.w 0x2, a7
    0x006c039c      487aad28       pea.l 0x6bb0c6(pc)
    0x006c03a0      48780009       pea.l 0x9
    0x006c03a4      2f17           move.l (a7), -(a7)
    0x006c03a6      4eb9004047ea   jsr p_wts_o
    0x006c03ac      dec4           adda.w d4, a7
    0x006c03ae      486f0001       pea.l 0x1(a7)
    0x006c03b2      42a7           clr.l -(a7)
    0x006c03b4      1f6f00080003   move.b 0x8(a7), 0x3(a7)
    0x006c03ba      2f17           move.l (a7), -(a7)
    0x006c03bc      4eb9004047ea   jsr p_wts_o
    0x006c03c2      defc010c       adda.w 0x10c, a7
    0x006c03c6      487aad08       pea.l 0x6bb0d0(pc)
    0x006c03ca      48780014       pea.l 0x14
    0x006c03ce      2f17           move.l (a7), -(a7)
 > 0x006c03d0      4eb9004047ea   jsr p_wts_o
     0x006c03d6      dec4           adda.w d4, a7
     0x006c03d8      4eb900404946   jsr p_wtln_o
 > 0x006c03de      1f05           move.b d5, -(a7)
           0x006c03e0      4eb9006b96f2   jsr USER1_UTILS.aux_stack_check
           0x006c03e6      544f           addq.w 0x2, a7
           0x006c03e8      102effcc       move.b -0x34(a6), d0
           0x006c03ec      4880           ext.w d0
           0x006c03ee      4185           chk.w d5, d0
           0x006c03f0      1d400022       move.b d0, 0x22(a6)
           0x006c03f4      4cdf1fff       movem.l (a7)+, d0-d7/a0-a4
           0x006c03f8      4e5e           unlk a6
           0x006c03fa      4e75           rts
            ; CALL XREF from USER2_DISK.get_exch_fids @ 0x6c0b4e
 576: USER2_DISK.set_exch_user ();
           ; var int32_t var_8h @ a7+0x8
           ; var int32_t var_10h @ a7+0x10
           0x006c03fc      4e56fe94       link.w a6, 0xfe94
           0x006c0400      bfd5           cmpa.l (a5), a7
       < 0x006c0402      6206           bhi.b 0x6c040a
          0x006c0404      44fc0002       move.w 0x2, ccr
          0x006c0408      4e76           trapv
       > 0x006c040a      defc0140       adda.w 0x140, a7
           0x006c040e      48e7f1f8       movem.l d0-d3/d7/a0-a4, -(a7)
           0x006c0412      47f9004047ea   lea.l p_wts_o, a3
           0x006c0418      49f9006ba3c2   lea.l USER1_UTILS.udebug_on, a4
           0x006c041e      740c           moveq 0xc, d2
           0x006c0420      7601           moveq 0x1, d3
           0x006c0422      4227           clr.b -(a7)
           0x006c0424      4eb9006b96f2   jsr USER1_UTILS.aux_stack_check
           0x006c042a      544f           addq.w 0x2, a7
           0x006c042c      7e00           moveq 0x0, d7
           0x006c042e      554f           subq.w 0x2, a7
           0x006c0430      4e94           jsr (a4)                    ; fcn.0000000d
           0x006c0432      4a1f           tst.b (a7)+
       < 0x006c0434      677e           beq.b 0x6c04b4
          0x006c0436      9efc0100       suba.w 0x100, a7
          0x006c043a      4eb9006b91ea   jsr USER1_UTILS.p_task_name
          0x006c0440      487aaca3       pea.l 0x6bb0e5(pc)
          0x006c0444      48780005       pea.l 0x5
          0x006c0448      2f17           move.l (a7), -(a7)
          0x006c044a      4e93           jsr (a3)                    ; fcn.0000000c
          0x006c044c      dec2           adda.w d2, a7
          0x006c044e      486f0001       pea.l 0x1(a7)
          0x006c0452      42a7           clr.l -(a7)
          0x006c0454      1f6f00080003   move.b 0x8(a7), 0x3(a7)
          0x006c045a      2f17           move.l (a7), -(a7)
          0x006c045c      4e93           jsr (a3)                    ; fcn.0000000c
          0x006c045e      defc010c       adda.w 0x10c, a7
          0x006c0462      487aac87       pea.l 0x6bb0eb(pc)
          0x006c0466      48780008       pea.l 0x8
          0x006c046a      2f17           move.l (a7), -(a7)
          0x006c046c      4e93           jsr (a3)                    ; fcn.0000000c
          0x006c046e      dec2           adda.w d2, a7
          0x006c0470      487aac82       pea.l 0x6bb0f4(pc)
          0x006c0474      48780015       pea.l 0x15
          0x006c0478      2f17           move.l (a7), -(a7)
          0x006c047a      4e93           jsr (a3)                    ; fcn.0000000c
          0x006c047c      dec2           adda.w d2, a7
          0x006c047e      486e0011       pea.l 0x11(a6)
          0x006c0482      42a7           clr.l -(a7)
          0x006c0484      1f6e00100003   move.b 0x10(a6), 0x3(a7)
          0x006c048a      2f17           move.l (a7), -(a7)
          0x006c048c      4e93           jsr (a3)                    ; fcn.0000000c
          0x006c048e      dec2           adda.w d2, a7
          0x006c0490      487aac78       pea.l 0x6bb10a(pc)
          0x006c0494      4878000b       pea.l 0xb
          0x006c0498      2f17           move.l (a7), -(a7)
          0x006c049a      4e93           jsr (a3)                    ; fcn.0000000c
          0x006c049c      504f           addq.w 0x8, a7
          0x006c049e      2eae000c       move.l 0xc(a6), (a7)
          0x006c04a2      4878ffff       pea.l 0xffff
          0x006c04a6      4eb9004070e4   jsr p_wti_o
          0x006c04ac      504f           addq.w 0x8, a7
          0x006c04ae      4eb900404946   jsr p_wtln_o
       > 0x006c04b4      206e0008       movea.l 0x8(a6), a0
           0x006c04b8      b1e8fffc       cmpa.l -0x4(a0), a0
       < 0x006c04bc      6702           beq.b 0x6c04c0
          0x006c04be      4e4d           trap 0xd
       > 0x006c04c0      202e000c       move.l 0xc(a6), d0
           0x006c04c4      b0a80022       cmp.l 0x22(a0), d0
       < 0x006c04c8      6618           bne.b 0x6c04e2
          0x006c04ca      554f           subq.w 0x2, a7
          0x006c04cc      4e94           jsr (a4)                    ; fcn.0000000d
          0x006c04ce      4a1f           tst.b (a7)+
      < 0x006c04d0      67000154       beq.w 0x6c0626
         0x006c04d4      487aac40       pea.l 0x6bb116(pc)
         0x006c04d8      48780024       pea.l 0x24
     > 0x006c04dc      2f17           move.l (a7), -(a7)
    < 0x006c04de      6000013c       bra.w 0x6c061c
    > 0x006c04e2      4a80           tst.l d0
    < 0x006c04e4      660c           bne.b 0x6c04f2
       0x006c04e6      7e00           moveq 0x0, d7
       0x006c04e8      487aac51       pea.l 0x6bb13b(pc)
       0x006c04ec      48780023       pea.l 0x23
    < 0x006c04f0      60ea           bra.b 0x6c04dc
     > 0x006c04f2      21400022       move.l d0, 0x22(a0)
         0x006c04f6      9efc0018       suba.w 0x18, a7
         0x006c04fa      224f           movea.l a7, a1
         0x006c04fc      45ee0010       lea.l 0x10(a6), a2
         0x006c0500      7204           moveq 0x4, d1
     > 0x006c0502      22da           move.l (a2)+, (a1)+
     < 0x006c0504      51c9fffc       dbra d1, 0x6c0502
         0x006c0508      12da           move.b (a2)+, (a1)+
         0x006c050a      2f00           move.l d0, -(a7)
         0x006c050c      486effda       pea.l -0x26(a6)
         0x006c0510      486effe4       pea.l -0x1c(a6)
         0x006c0514      486effee       pea.l -0x12(a6)
         0x006c0518      4ebaf1b0       jsr USER2_DISK.find_tables(pc)
         0x006c051c      defc0026       adda.w 0x26, a7
         0x006c0520      121f           move.b (a7)+, d1
         0x006c0522      4881           ext.w d1
         0x006c0524      4383           chk.w d3, d1
         0x006c0526      1e01           move.b d1, d7
     < 0x006c0528      676e           beq.b 0x6c0598
        0x006c052a      554f           subq.w 0x2, a7
        0x006c052c      4e94           jsr (a4)                    ; fcn.0000000d
        0x006c052e      4a1f           tst.b (a7)+
    < 0x006c0530      6734           beq.b 0x6c0566
       0x006c0532      487aac2b       pea.l 0x6bb15f(pc)
       0x006c0536      48780010       pea.l 0x10
       0x006c053a      2f17           move.l (a7), -(a7)
       0x006c053c      4e93           jsr (a3)                    ; fcn.0000000c
       0x006c053e      dec2           adda.w d2, a7
       0x006c0540      486e0011       pea.l 0x11(a6)
       0x006c0544      42a7           clr.l -(a7)
       0x006c0546      1f6e00100003   move.b 0x10(a6), 0x3(a7)
       0x006c054c      2f17           move.l (a7), -(a7)
       0x006c054e      4e93           jsr (a3)                    ; fcn.0000000c
       0x006c0550      dec2           adda.w d2, a7
       0x006c0552      487aac1c       pea.l 0x6bb170(pc)
       0x006c0556      48780003       pea.l 0x3
       0x006c055a      2f17           move.l (a7), -(a7)
       0x006c055c      4e93           jsr (a3)                    ; fcn.0000000c
       0x006c055e      dec2           adda.w d2, a7
       0x006c0560      4eb900404946   jsr p_wtln_o
    > 0x006c0566      43e80004       lea.l 0x4(a0), a1
        0x006c056a      45eeffda       lea.l -0x26(a6), a2
        0x006c056e      7209           moveq 0x9, d1
    > 0x006c0570      12da           move.b (a2)+, (a1)+
    < 0x006c0572      51c9fffc       dbra d1, 0x6c0570
        0x006c0576      43e8000e       lea.l 0xe(a0), a1
        0x006c057a      45eeffe4       lea.l -0x1c(a6), a2
        0x006c057e      7209           moveq 0x9, d1
    > 0x006c0580      12da           move.b (a2)+, (a1)+
    < 0x006c0582      51c9fffc       dbra d1, 0x6c0580
        0x006c0586      43e80018       lea.l 0x18(a0), a1
        0x006c058a      45eeffee       lea.l -0x12(a6), a2
        0x006c058e      7209           moveq 0x9, d1
    > 0x006c0590      12da           move.b (a2)+, (a1)+
    < 0x006c0592      51c9fffc       dbra d1, 0x6c0590
    < 0x006c0596      6030           bra.b 0x6c05c8
    > 0x006c0598      43e80004       lea.l 0x4(a0), a1
        0x006c059c      45fa9f9a       lea.l 0x6ba538(pc), a2
        0x006c05a0      7209           moveq 0x9, d1
    > 0x006c05a2      12da           move.b (a2)+, (a1)+
    < 0x006c05a4      51c9fffc       dbra d1, 0x6c05a2
        0x006c05a8      43e8000e       lea.l 0xe(a0), a1
        0x006c05ac      45fa9f8a       lea.l 0x6ba538(pc), a2
        0x006c05b0      7209           moveq 0x9, d1
    > 0x006c05b2      12da           move.b (a2)+, (a1)+
    < 0x006c05b4      51c9fffc       dbra d1, 0x6c05b2
        0x006c05b8      43e80018       lea.l 0x18(a0), a1
        0x006c05bc      45fa9f7a       lea.l 0x6ba538(pc), a2
        0x006c05c0      7209           moveq 0x9, d1
    > 0x006c05c2      12da           move.b (a2)+, (a1)+
    < 0x006c05c4      51c9fffc       dbra d1, 0x6c05c2
    > 0x006c05c8      554f           subq.w 0x2, a7
         0x006c05ca      4e94           jsr (a4)                    ; fcn.0000000d
         0x006c05cc      4a1f           tst.b (a7)+
     < 0x006c05ce      6756           beq.b 0x6c0626
        0x006c05d0      4a07           tst.b d7
    < 0x006c05d2      6652           bne.b 0x6c0626
       0x006c05d4      9efc0100       suba.w 0x100, a7
       0x006c05d8      4eb9006b91ea   jsr USER1_UTILS.p_task_name
       0x006c05de      487aab94       pea.l 0x6bb174(pc)
       0x006c05e2      48780007       pea.l 0x7
       0x006c05e6      2f17           move.l (a7), -(a7)
       0x006c05e8      4e93           jsr (a3)                    ; fcn.0000000c
       0x006c05ea      dec2           adda.w d2, a7
       0x006c05ec      486f0001       pea.l 0x1(a7)
       0x006c05f0      42a7           clr.l -(a7)
       0x006c05f2      1f6f00080003   move.b 0x8(a7), 0x3(a7)
       0x006c05f8      2f17           move.l (a7), -(a7)
       0x006c05fa      4e93           jsr (a3)                    ; fcn.0000000c
       0x006c05fc      defc010c       adda.w 0x10c, a7
       0x006c0600      487aab7a       pea.l 0x6bb17c(pc)
       0x006c0604      48780019       pea.l 0x19
       0x006c0608      2f17           move.l (a7), -(a7)
       0x006c060a      4e93           jsr (a3)                    ; fcn.0000000c
       0x006c060c      dec2           adda.w d2, a7
       0x006c060e      486e0011       pea.l 0x11(a6)
       0x006c0612      42a7           clr.l -(a7)
       0x006c0614      1f6e00100003   move.b 0x10(a6), 0x3(a7)
       0x006c061a      2f17           move.l (a7), -(a7)
    > 0x006c061c      4e93           jsr (a3)                    ; fcn.0000000c
        0x006c061e      dec2           adda.w d2, a7
        0x006c0620      4eb900404946   jsr p_wtln_o
     > 0x006c0626      1d470026       move.b d7, 0x26(a6)
           0x006c062a      1f03           move.b d3, -(a7)
           0x006c062c      4eb9006b96f2   jsr USER1_UTILS.aux_stack_check
           0x006c0632      544f           addq.w 0x2, a7
           0x006c0634      4cdf1f8f       movem.l (a7)+, d0-d3/d7/a0-a4
           0x006c0638      4e5e           unlk a6
           0x006c063a      4e75           rts
            ; CALL XREF from USER2_DISK.get_exch_fids @ 0x6c093a
 170: USER2_DISK.new_exch_fids_r ();
           0x006c063c      4e56ffcc       link.w a6, 0xffcc
           0x006c0640      bfd5           cmpa.l (a5), a7
       < 0x006c0642      6206           bhi.b 0x6c064a
          0x006c0644      44fc0002       move.w 0x2, ccr
          0x006c0648      4e76           trapv
       > 0x006c064a      defc0030       adda.w 0x30, a7
           0x006c064e      48e7c0f8       movem.l d0-d1/a0-a4, -(a7)
           0x006c0652      47eefffc       lea.l -0x4(a6), a3
           0x006c0656      49fa9ee0       lea.l 0x6ba538(pc), a4
           0x006c065a      7201           moveq 0x1, d1
           0x006c065c      4853           pea.l (a3)
           0x006c065e      4878002a       pea.l 0x2a
           0x006c0662      4eb900403a92   jsr p_New
           0x006c0668      504f           addq.w 0x8, a7
           0x006c066a      2053           movea.l (a3), a0
           0x006c066c      b0c1           cmpa.w d1, a0
       < 0x006c066e      661a           bne.b 0x6c068a
          0x006c0670      487aab24       pea.l 0x6bb196(pc)
          0x006c0674      4878001f       pea.l 0x1f
          0x006c0678      2f17           move.l (a7), -(a7)
          0x006c067a      4eb9004047ea   jsr p_wts_o
          0x006c0680      defc000c       adda.w 0xc, a7
          0x006c0684      4eb900404946   jsr p_wtln_o
       > 0x006c068a      4227           clr.b -(a7)
           0x006c068c      b0c1           cmpa.w d1, a0
       < 0x006c068e      6702           beq.b 0x6c0692
          0x006c0690      5217           addq.b 0x1, (a7)
       > 0x006c0692      4eb90040452a   jsr p_Assert
           0x006c0698      544f           addq.w 0x2, a7
           0x006c069a      b1e8fffc       cmpa.l -0x4(a0), a0
       < 0x006c069e      6702           beq.b 0x6c06a2
          0x006c06a0      4e4d           trap 0xd
       > 0x006c06a2      20bcffffffff   move.l 0xffffffff, (a0)
           0x006c06a8      43e80004       lea.l 0x4(a0), a1
           0x006c06ac      244c           movea.l a4, a2
           0x006c06ae      7009           moveq 0x9, d0
       > 0x006c06b0      12da           move.b (a2)+, (a1)+
       < 0x006c06b2      51c8fffc       dbra d0, 0x6c06b0
           0x006c06b6      43e8000e       lea.l 0xe(a0), a1
           0x006c06ba      244c           movea.l a4, a2
           0x006c06bc      7009           moveq 0x9, d0
       > 0x006c06be      12da           move.b (a2)+, (a1)+
       < 0x006c06c0      51c8fffc       dbra d0, 0x6c06be
           0x006c06c4      43e80018       lea.l 0x18(a0), a1
           0x006c06c8      244c           movea.l a4, a2
           0x006c06ca      7009           moveq 0x9, d0
       > 0x006c06cc      12da           move.b (a2)+, (a1)+
       < 0x006c06ce      51c8fffc       dbra d0, 0x6c06cc
           0x006c06d2      42a80022       clr.l 0x22(a0)
           0x006c06d6      21410026       move.l d1, 0x26(a0)
           0x006c06da      2d530008       move.l (a3), 0x8(a6)
           0x006c06de      4cdf1f03       movem.l (a7)+, d0-d1/a0-a4
           0x006c06e2      4e5e           unlk a6
           0x006c06e4      4e75           rts
            ; CALL XREF from USER2_DISK.cur_exch_user @ 0x6c0cdc
            ; CALL XREF from USER2_DISK.open_number_tab @ 0x6c0fa2
 1304: USER2_DISK.get_exch_fids ();
           0x006c06e6      4e56ff98       link.w a6, 0xff98
           0x006c06ea      bfd5           cmpa.l (a5), a7
       < 0x006c06ec      6206           bhi.b 0x6c06f4
          0x006c06ee      44fc0002       move.w 0x2, ccr
          0x006c06f2      4e76           trapv
       > 0x006c06f4      defc005a       adda.w 0x5a, a7
           0x006c06f8      48e7fdf8       movem.l d0-d5/d7/a0-a4, -(a7)
           0x006c06fc      7601           moveq 0x1, d3
           0x006c06fe      780c           moveq 0xc, d4
           0x006c0700      7afd           moveq 0xfd, d5
           0x006c0702      1f2e0008       move.b 0x8(a6), -(a7)
           0x006c0706      4ebac23c       jsr USER2_DISK.check_scope(pc)
           0x006c070a      4217           clr.b (a7)
           0x006c070c      4eb9006b96f2   jsr USER1_UTILS.aux_stack_check
           0x006c0712      544f           addq.w 0x2, a7
           0x006c0714      102e0008       move.b 0x8(a6), d0
           0x006c0718      0c000002       cmpi.b 0x2, d0
       < 0x006c071c      661c           bne.b 0x6c073a
          0x006c071e      594f           subq.w 0x4, a7
          0x006c0720      4281           clr.l d1
          0x006c0722      122e000a       move.b 0xa(a6), d1
          0x006c0726      2f01           move.l d1, -(a7)
          0x006c0728      4281           clr.l d1
          0x006c072a      122e000b       move.b 0xb(a6), d1
          0x006c072e      2f01           move.l d1, -(a7)
          0x006c0730      4ebac748       jsr USER2_DISK.get_station_ptr(pc)
          0x006c0734      504f           addq.w 0x8, a7
          0x006c0736      285f           movea.l (a7)+, a4
      < 0x006c0738      6018           bra.b 0x6c0752
      > 0x006c073a      4880           ext.w d0
          0x006c073c      3200           move.w d0, d1
          0x006c073e      e541           asl.w 0x2, d1
          0x006c0740      206e0014       movea.l 0x14(a6), a0
          0x006c0744      2050           movea.l (a0), a0
          0x006c0746      b1e8fffc       cmpa.l -0x4(a0), a0
      < 0x006c074a      6702           beq.b 0x6c074e
         0x006c074c      4e4d           trap 0xd
      > 0x006c074e      28701016       movea.l 0x16(a0, d1.w), a4
      > 0x006c0752      b8c3           cmpa.w d3, a4
       < 0x006c0754      6604           bne.b 0x6c075a
      > 0x006c0756      3643           movea.w d3, a3
     < 0x006c0758      6044           bra.b 0x6c079e
     > 0x006c075a      b9ecfffc       cmpa.l -0x4(a4), a4
     < 0x006c075e      6702           beq.b 0x6c0762
        0x006c0760      4e4d           trap 0xd
     > 0x006c0762      206c001e       movea.l 0x1e(a4), a0
         0x006c0766      b0c3           cmpa.w d3, a0
     < 0x006c0768      6602           bne.b 0x6c076c
     < 0x006c076a      60ea           bra.b 0x6c0756
      > 0x006c076c      594f           subq.w 0x4, a7
          0x006c076e      4880           ext.w d0
          0x006c0770      3200           move.w d0, d1
          0x006c0772      e541           asl.w 0x2, d1
          0x006c0774      206e0014       movea.l 0x14(a6), a0
          0x006c0778      2050           movea.l (a0), a0
          0x006c077a      b1e8fffc       cmpa.l -0x4(a0), a0
      < 0x006c077e      6702           beq.b 0x6c0782
         0x006c0780      4e4d           trap 0xd
      > 0x006c0782      20701016       movea.l 0x16(a0, d1.w), a0
          0x006c0786      b1e8fffc       cmpa.l -0x4(a0), a0
      < 0x006c078a      6702           beq.b 0x6c078e
         0x006c078c      4e4d           trap 0xd
      > 0x006c078e      2f28001e       move.l 0x1e(a0), -(a7)
          0x006c0792      2f2e000c       move.l 0xc(a6), -(a7)
          0x006c0796      4ebaeee2       jsr USER2_DISK.exch_fid_record(pc)
          0x006c079a      504f           addq.w 0x8, a7
          0x006c079c      265f           movea.l (a7)+, a3
     > 0x006c079e      b6c3           cmpa.w d3, a3
       < 0x006c07a0      6628           bne.b 0x6c07ca
          0x006c07a2      554f           subq.w 0x2, a7
          0x006c07a4      4eb9006ba3c2   jsr USER1_UTILS.udebug_on
          0x006c07aa      4a1f           tst.b (a7)+
      < 0x006c07ac      6718           beq.b 0x6c07c6
         0x006c07ae      487aaa06       pea.l 0x6bb1b6(pc)
         0x006c07b2      4878000e       pea.l 0xe
         0x006c07b6      2f17           move.l (a7), -(a7)
         0x006c07b8      4eb9004047ea   jsr p_wts_o
         0x006c07be      dec4           adda.w d4, a7
         0x006c07c0      4eb900404946   jsr p_wtln_o
     > 0x006c07c6      6000013e       bra.w 0x6c0906
      > 0x006c07ca      b7ebfffc       cmpa.l -0x4(a3), a3
      < 0x006c07ce      6702           beq.b 0x6c07d2
         0x006c07d0      4e4d           trap 0xd
      > 0x006c07d2      222e0010       move.l 0x10(a6), d1
          0x006c07d6      b2ab0004       cmp.l 0x4(a3), d1
      < 0x006c07da      6704           beq.b 0x6c07e0
         0x006c07dc      b285           cmp.l d5, d1
     < 0x006c07de      6638           bne.b 0x6c0818
     > 0x006c07e0      554f           subq.w 0x2, a7
         0x006c07e2      4eb9006ba3c2   jsr USER1_UTILS.udebug_on
         0x006c07e8      4a1f           tst.b (a7)+
     < 0x006c07ea      6726           beq.b 0x6c0812
        0x006c07ec      487aa9d7       pea.l 0x6bb1c5(pc)
        0x006c07f0      48780026       pea.l 0x26
        0x006c07f4      2f17           move.l (a7), -(a7)
        0x006c07f6      4eb9004047ea   jsr p_wts_o
        0x006c07fc      504f           addq.w 0x8, a7
        0x006c07fe      2e93           move.l (a3), (a7)
        0x006c0800      4878ffff       pea.l 0xffff
        0x006c0804      4eb9004070e4   jsr p_wti_o
        0x006c080a      504f           addq.w 0x8, a7
        0x006c080c      4eb900404946   jsr p_wtln_o
     > 0x006c0812      7e01           moveq 0x1, d7
     < 0x006c0814      600000f2       bra.w 0x6c0908
     > 0x006c0818      554f           subq.w 0x2, a7
         0x006c081a      4eb9006ba3c2   jsr USER1_UTILS.udebug_on
         0x006c0820      4a1f           tst.b (a7)+
     < 0x006c0822      6738           beq.b 0x6c085c
        0x006c0824      487aa9c6       pea.l 0x6bb1ec(pc)
        0x006c0828      48780007       pea.l 0x7
        0x006c082c      2f17           move.l (a7), -(a7)
        0x006c082e      4eb9004047ea   jsr p_wts_o
        0x006c0834      504f           addq.w 0x8, a7
        0x006c0836      2e81           move.l d1, (a7)
        0x006c0838      4878ffff       pea.l 0xffff
        0x006c083c      4eb9004070e4   jsr p_wti_o
        0x006c0842      504f           addq.w 0x8, a7
        0x006c0844      487aa9ae       pea.l 0x6bb1f4(pc)
        0x006c0848      48780020       pea.l 0x20
        0x006c084c      2f17           move.l (a7), -(a7)
        0x006c084e      4eb9004047ea   jsr p_wts_o
        0x006c0854      dec4           adda.w d4, a7
        0x006c0856      4eb900404946   jsr p_wtln_o
     > 0x006c085c      554f           subq.w 0x2, a7
         0x006c085e      4eb9006ba3c2   jsr USER1_UTILS.udebug_on
         0x006c0864      4a1f           tst.b (a7)+
     < 0x006c0866      673a           beq.b 0x6c08a2
        0x006c0868      487aa9ab       pea.l 0x6bb215(pc)
        0x006c086c      4878000d       pea.l 0xd
        0x006c0870      2f17           move.l (a7), -(a7)
        0x006c0872      4eb9004047ea   jsr p_wts_o
        0x006c0878      504f           addq.w 0x8, a7
        0x006c087a      2eab0004       move.l 0x4(a3), (a7)
        0x006c087e      4878ffff       pea.l 0xffff
        0x006c0882      4eb9004070e4   jsr p_wti_o
        0x006c0888      504f           addq.w 0x8, a7
        0x006c088a      487aa997       pea.l 0x6bb223(pc)
        0x006c088e      48780011       pea.l 0x11
        0x006c0892      2f17           move.l (a7), -(a7)
        0x006c0894      4eb9004047ea   jsr p_wts_o
        0x006c089a      dec4           adda.w d4, a7
        0x006c089c      4eb900404946   jsr p_wtln_o
     > 0x006c08a2      554f           subq.w 0x2, a7
         0x006c08a4      4eb9006ba3c2   jsr USER1_UTILS.udebug_on
         0x006c08aa      4a1f           tst.b (a7)+
     < 0x006c08ac      6728           beq.b 0x6c08d6
        0x006c08ae      487aa985       pea.l 0x6bb235(pc)
        0x006c08b2      48780011       pea.l 0x11
        0x006c08b6      2f17           move.l (a7), -(a7)
        0x006c08b8      4eb9004047ea   jsr p_wts_o
        0x006c08be      504f           addq.w 0x8, a7
        0x006c08c0      2eab0022       move.l 0x22(a3), (a7)
        0x006c08c4      4878ffff       pea.l 0xffff
        0x006c08c8      4eb9004070e4   jsr p_wti_o
        0x006c08ce      504f           addq.w 0x8, a7
        0x006c08d0      4eb900404946   jsr p_wtln_o
     > 0x006c08d6      41eb0004       lea.l 0x4(a3), a0
         0x006c08da      43fa9c5c       lea.l 0x6ba538(pc), a1
         0x006c08de      7409           moveq 0x9, d2
     > 0x006c08e0      10d9           move.b (a1)+, (a0)+
     < 0x006c08e2      51cafffc       dbra d2, 0x6c08e0
         0x006c08e6      41eb000e       lea.l 0xe(a3), a0
         0x006c08ea      43fa9c4c       lea.l 0x6ba538(pc), a1
         0x006c08ee      7409           moveq 0x9, d2
     > 0x006c08f0      10d9           move.b (a1)+, (a0)+
     < 0x006c08f2      51cafffc       dbra d2, 0x6c08f0
         0x006c08f6      41eb0018       lea.l 0x18(a3), a0
         0x006c08fa      43fa9c3c       lea.l 0x6ba538(pc), a1
         0x006c08fe      7409           moveq 0x9, d2
     > 0x006c0900      10d9           move.b (a1)+, (a0)+
     < 0x006c0902      51cafffc       dbra d2, 0x6c0900
     > 0x006c0906      7e00           moveq 0x0, d7
       > 0x006c0908      4a07           tst.b d7
       < 0x006c090a      6600028e       bne.w 0x6c0b9a
          0x006c090e      554f           subq.w 0x2, a7
          0x006c0910      4eb9006ba3c2   jsr USER1_UTILS.udebug_on
          0x006c0916      4a1f           tst.b (a7)+
      < 0x006c0918      6718           beq.b 0x6c0932
         0x006c091a      487aa92b       pea.l 0x6bb247(pc)
         0x006c091e      48780021       pea.l 0x21
         0x006c0922      2f17           move.l (a7), -(a7)
         0x006c0924      4eb9004047ea   jsr p_wts_o
         0x006c092a      dec4           adda.w d4, a7
         0x006c092c      4eb900404946   jsr p_wtln_o
      > 0x006c0932      b6c3           cmpa.w d3, a3
      < 0x006c0934      66000178       bne.w 0x6c0aae
         0x006c0938      594f           subq.w 0x4, a7
         0x006c093a      4ebafd00       jsr USER2_DISK.new_exch_fids_r(pc)
         0x006c093e      265f           movea.l (a7)+, a3
         0x006c0940      554f           subq.w 0x2, a7
         0x006c0942      4eb9006ba3c2   jsr USER1_UTILS.udebug_on
         0x006c0948      4a1f           tst.b (a7)+
     < 0x006c094a      6726           beq.b 0x6c0972
        0x006c094c      487aa91b       pea.l 0x6bb269(pc)
        0x006c0950      4878001a       pea.l 0x1a
        0x006c0954      2f17           move.l (a7), -(a7)
        0x006c0956      4eb9004047ea   jsr p_wts_o
        0x006c095c      504f           addq.w 0x8, a7
        0x006c095e      2e8b           move.l a3, (a7)
        0x006c0960      4878ffff       pea.l 0xffff
        0x006c0964      4eb9004070e4   jsr p_wti_o
        0x006c096a      504f           addq.w 0x8, a7
        0x006c096c      4eb900404946   jsr p_wtln_o
     > 0x006c0972      b7ebfffc       cmpa.l -0x4(a3), a3
     < 0x006c0976      6702           beq.b 0x6c097a
        0x006c0978      4e4d           trap 0xd
     > 0x006c097a      4227           clr.b -(a7)
         0x006c097c      206b0026       movea.l 0x26(a3), a0
         0x006c0980      b0c3           cmpa.w d3, a0
     < 0x006c0982      6602           bne.b 0x6c0986
        0x006c0984      5217           addq.b 0x1, (a7)
     > 0x006c0986      4eb90040452a   jsr p_Assert
         0x006c098c      544f           addq.w 0x2, a7
         0x006c098e      26ae000c       move.l 0xc(a6), (a3)
         0x006c0992      4880           ext.w d0
         0x006c0994      3200           move.w d0, d1
         0x006c0996      e541           asl.w 0x2, d1
         0x006c0998      206e0014       movea.l 0x14(a6), a0
         0x006c099c      2250           movea.l (a0), a1
         0x006c099e      b3e9fffc       cmpa.l -0x4(a1), a1
     < 0x006c09a2      6702           beq.b 0x6c09a6
        0x006c09a4      4e4d           trap 0xd
     > 0x006c09a6      22711016       movea.l 0x16(a1, d1.w), a1
         0x006c09aa      b3e9fffc       cmpa.l -0x4(a1), a1
     < 0x006c09ae      6702           beq.b 0x6c09b2
        0x006c09b0      4e4d           trap 0xd
     > 0x006c09b2      2469001e       movea.l 0x1e(a1), a2
         0x006c09b6      b4c3           cmpa.w d3, a2
     < 0x006c09b8      6662           bne.b 0x6c0a1c
        0x006c09ba      554f           subq.w 0x2, a7
        0x006c09bc      4eb9006ba3c2   jsr USER1_UTILS.udebug_on
        0x006c09c2      4a1f           tst.b (a7)+
    < 0x006c09c4      6718           beq.b 0x6c09de
       0x006c09c6      487aa8bc       pea.l 0x6bb284(pc)
       0x006c09ca      48780011       pea.l 0x11
       0x006c09ce      2f17           move.l (a7), -(a7)
       0x006c09d0      4eb9004047ea   jsr p_wts_o
       0x006c09d6      dec4           adda.w d4, a7
       0x006c09d8      4eb900404946   jsr p_wtln_o
    > 0x006c09de      234b001e       move.l a3, 0x1e(a1)
        0x006c09e2      4227           clr.b -(a7)
        0x006c09e4      2450           movea.l (a0), a2
        0x006c09e6      b5eafffc       cmpa.l -0x4(a2), a2
    < 0x006c09ea      6702           beq.b 0x6c09ee
       0x006c09ec      4e4d           trap 0xd
    > 0x006c09ee      24721016       movea.l 0x16(a2, d1.w), a2
        0x006c09f2      b5eafffc       cmpa.l -0x4(a2), a2
    < 0x006c09f6      6702           beq.b 0x6c09fa
       0x006c09f8      4e4d           trap 0xd
    > 0x006c09fa      246a001e       movea.l 0x1e(a2), a2
        0x006c09fe      b5eafffc       cmpa.l -0x4(a2), a2
    < 0x006c0a02      6702           beq.b 0x6c0a06
       0x006c0a04      4e4d           trap 0xd
    > 0x006c0a06      246a0026       movea.l 0x26(a2), a2
        0x006c0a0a      b4c3           cmpa.w d3, a2
    < 0x006c0a0c      6602           bne.b 0x6c0a10
       0x006c0a0e      5217           addq.b 0x1, (a7)
    > 0x006c0a10      4eb90040452a   jsr p_Assert
        0x006c0a16      544f           addq.w 0x2, a7
    < 0x006c0a18      60000094       bra.w 0x6c0aae
    > 0x006c0a1c      554f           subq.w 0x2, a7
        0x006c0a1e      4eb9006ba3c2   jsr USER1_UTILS.udebug_on
        0x006c0a24      4a1f           tst.b (a7)+
    < 0x006c0a26      6718           beq.b 0x6c0a40
       0x006c0a28      487aa86c       pea.l 0x6bb296(pc)
       0x006c0a2c      48780015       pea.l 0x15
       0x006c0a30      2f17           move.l (a7), -(a7)
       0x006c0a32      4eb9004047ea   jsr p_wts_o
       0x006c0a38      dec4           adda.w d4, a7
       0x006c0a3a      4eb900404946   jsr p_wtln_o
    > 0x006c0a40      2869001e       movea.l 0x1e(a1), a4
    > 0x006c0a44      b9ecfffc       cmpa.l -0x4(a4), a4
   < 0x006c0a48      6702           beq.b 0x6c0a4c
      0x006c0a4a      4e4d           trap 0xd
   > 0x006c0a4c      246c0026       movea.l 0x26(a4), a2
       0x006c0a50      b4c3           cmpa.w d3, a2
   < 0x006c0a52      6704           beq.b 0x6c0a58
      0x006c0a54      284a           movea.l a2, a4
   < 0x006c0a56      60ec           bra.b 0x6c0a44
   > 0x006c0a58      554f           subq.w 0x2, a7
        0x006c0a5a      4eb9006ba3c2   jsr USER1_UTILS.udebug_on
        0x006c0a60      4a1f           tst.b (a7)+
    < 0x006c0a62      6726           beq.b 0x6c0a8a
       0x006c0a64      487aa846       pea.l 0x6bb2ac(pc)
       0x006c0a68      48780012       pea.l 0x12
       0x006c0a6c      2f17           move.l (a7), -(a7)
       0x006c0a6e      4eb9004047ea   jsr p_wts_o
       0x006c0a74      504f           addq.w 0x8, a7
       0x006c0a76      2e94           move.l (a4), (a7)
       0x006c0a78      4878ffff       pea.l 0xffff
       0x006c0a7c      4eb9004070e4   jsr p_wti_o
       0x006c0a82      504f           addq.w 0x8, a7
       0x006c0a84      4eb900404946   jsr p_wtln_o
    > 0x006c0a8a      b9ecfffc       cmpa.l -0x4(a4), a4
    < 0x006c0a8e      6702           beq.b 0x6c0a92
       0x006c0a90      4e4d           trap 0xd
    > 0x006c0a92      4227           clr.b -(a7)
        0x006c0a94      b8c3           cmpa.w d3, a4
    < 0x006c0a96      670a           beq.b 0x6c0aa2
       0x006c0a98      246c0026       movea.l 0x26(a4), a2
       0x006c0a9c      b4c3           cmpa.w d3, a2
   < 0x006c0a9e      6602           bne.b 0x6c0aa2
      0x006c0aa0      5217           addq.b 0x1, (a7)
   > 0x006c0aa2      4eb90040452a   jsr p_Assert
        0x006c0aa8      544f           addq.w 0x2, a7
        0x006c0aaa      294b0026       move.l a3, 0x26(a4)
    > 0x006c0aae      4227           clr.b -(a7)
          0x006c0ab0      122e0008       move.b 0x8(a6), d1
          0x006c0ab4      4881           ext.w d1
          0x006c0ab6      e541           asl.w 0x2, d1
          0x006c0ab8      206e0014       movea.l 0x14(a6), a0
          0x006c0abc      2050           movea.l (a0), a0
          0x006c0abe      b1e8fffc       cmpa.l -0x4(a0), a0
      < 0x006c0ac2      6702           beq.b 0x6c0ac6
         0x006c0ac4      4e4d           trap 0xd
      > 0x006c0ac6      20701016       movea.l 0x16(a0, d1.w), a0
          0x006c0aca      b1e8fffc       cmpa.l -0x4(a0), a0
      < 0x006c0ace      6702           beq.b 0x6c0ad2
         0x006c0ad0      4e4d           trap 0xd
      > 0x006c0ad2      2068001e       movea.l 0x1e(a0), a0
          0x006c0ad6      b0c3           cmpa.w d3, a0
      < 0x006c0ad8      6702           beq.b 0x6c0adc
         0x006c0ada      5217           addq.b 0x1, (a7)
      > 0x006c0adc      4eb90040452a   jsr p_Assert
          0x006c0ae2      544f           addq.w 0x2, a7
          0x006c0ae4      222e0010       move.l 0x10(a6), d1
          0x006c0ae8      b285           cmp.l d5, d1
      < 0x006c0aea      661a           bne.b 0x6c0b06
         0x006c0aec      594f           subq.w 0x4, a7
         0x006c0aee      b7ebfffc       cmpa.l -0x4(a3), a3
     < 0x006c0af2      6702           beq.b 0x6c0af6
        0x006c0af4      4e4d           trap 0xd
     > 0x006c0af6      2f13           move.l (a3), -(a7)
         0x006c0af8      4eb9005fb938   jsr F6_VOLUME.f_vol_on
         0x006c0afe      584f           addq.w 0x4, a7
         0x006c0b00      2d5f0010       move.l (a7)+, 0x10(a6)
     < 0x006c0b04      6024           bra.b 0x6c0b2a
     > 0x006c0b06      4227           clr.b -(a7)
         0x006c0b08      594f           subq.w 0x4, a7
         0x006c0b0a      b7ebfffc       cmpa.l -0x4(a3), a3
     < 0x006c0b0e      6702           beq.b 0x6c0b12
        0x006c0b10      4e4d           trap 0xd
     > 0x006c0b12      2f13           move.l (a3), -(a7)
         0x006c0b14      4eb9005fb938   jsr F6_VOLUME.f_vol_on
         0x006c0b1a      584f           addq.w 0x4, a7
         0x006c0b1c      b29f           cmp.l (a7)+, d1
     < 0x006c0b1e      6602           bne.b 0x6c0b22
        0x006c0b20      5217           addq.b 0x1, (a7)
     > 0x006c0b22      4eb90040452a   jsr p_Assert
         0x006c0b28      544f           addq.w 0x2, a7
     > 0x006c0b2a      206e0014       movea.l 0x14(a6), a0
          0x006c0b2e      2050           movea.l (a0), a0
          0x006c0b30      b1e8fffc       cmpa.l -0x4(a0), a0
      < 0x006c0b34      6702           beq.b 0x6c0b38
         0x006c0b36      4e4d           trap 0xd
      > 0x006c0b38      9efc0018       suba.w 0x18, a7
          0x006c0b3c      224f           movea.l a7, a1
          0x006c0b3e      2448           movea.l a0, a2
          0x006c0b40      7214           moveq 0x14, d1
      > 0x006c0b42      12da           move.b (a2)+, (a1)+
      < 0x006c0b44      51c9fffc       dbra d1, 0x6c0b42
          0x006c0b48      2f2e0010       move.l 0x10(a6), -(a7)
          0x006c0b4c      2f0b           move.l a3, -(a7)
          0x006c0b4e      4ebaf8ac       jsr USER2_DISK.set_exch_user(pc)
          0x006c0b52      defc001e       adda.w 0x1e, a7
          0x006c0b56      121f           move.b (a7)+, d1
          0x006c0b58      4881           ext.w d1
          0x006c0b5a      4383           chk.w d3, d1
          0x006c0b5c      1e01           move.b d1, d7
          0x006c0b5e      554f           subq.w 0x2, a7
          0x006c0b60      4eb9006ba3c2   jsr USER1_UTILS.udebug_on
          0x006c0b66      4a1f           tst.b (a7)+
      < 0x006c0b68      6730           beq.b 0x6c0b9a
         0x006c0b6a      4a07           tst.b d7
     < 0x006c0b6c      672c           beq.b 0x6c0b9a
        0x006c0b6e      487aa74f       pea.l 0x6bb2bf(pc)
        0x006c0b72      48780021       pea.l 0x21
        0x006c0b76      2f17           move.l (a7), -(a7)
        0x006c0b78      4eb9004047ea   jsr p_wts_o
        0x006c0b7e      dec4           adda.w d4, a7
        0x006c0b80      48680001       pea.l 0x1(a0)
        0x006c0b84      42a7           clr.l -(a7)
        0x006c0b86      1f500003       move.b (a0), 0x3(a7)
        0x006c0b8a      2f17           move.l (a7), -(a7)
        0x006c0b8c      4eb9004047ea   jsr p_wts_o
        0x006c0b92      dec4           adda.w d4, a7
        0x006c0b94      4eb900404946   jsr p_wtln_o
     > 0x006c0b9a      4a07           tst.b d7
       < 0x006c0b9c      6716           beq.b 0x6c0bb4
          0x006c0b9e      554f           subq.w 0x2, a7
          0x006c0ba0      4eb9006ba3c2   jsr USER1_UTILS.udebug_on
          0x006c0ba6      4a1f           tst.b (a7)+
      < 0x006c0ba8      672e           beq.b 0x6c0bd8
         0x006c0baa      487aa735       pea.l 0x6bb2e1(pc)
         0x006c0bae      4878000f       pea.l 0xf
     < 0x006c0bb2      6014           bra.b 0x6c0bc8
     > 0x006c0bb4      554f           subq.w 0x2, a7
         0x006c0bb6      4eb9006ba3c2   jsr USER1_UTILS.udebug_on
         0x006c0bbc      4a1f           tst.b (a7)+
     < 0x006c0bbe      6718           beq.b 0x6c0bd8
        0x006c0bc0      487aa72f       pea.l 0x6bb2f1(pc)
        0x006c0bc4      48780019       pea.l 0x19
     > 0x006c0bc8      2f17           move.l (a7), -(a7)
         0x006c0bca      4eb9004047ea   jsr p_wts_o
         0x006c0bd0      dec4           adda.w d4, a7
         0x006c0bd2      4eb900404946   jsr p_wtln_o
      > 0x006c0bd8      4227           clr.b -(a7)
           0x006c0bda      b6c3           cmpa.w d3, a3
       < 0x006c0bdc      6702           beq.b 0x6c0be0
          0x006c0bde      5217           addq.b 0x1, (a7)
       > 0x006c0be0      4eb90040452a   jsr p_Assert
           0x006c0be6      544f           addq.w 0x2, a7
           0x006c0be8      2d4b0018       move.l a3, 0x18(a6)
           0x006c0bec      1f03           move.b d3, -(a7)
           0x006c0bee      4eb9006b96f2   jsr USER1_UTILS.aux_stack_check
           0x006c0bf4      544f           addq.w 0x2, a7
           0x006c0bf6      4cdf1fbf       movem.l (a7)+, d0-d5/d7/a0-a4
           0x006c0bfa      4e5e           unlk a6
           0x006c0bfc      4e75           rts
            ; CALL XREFS from USER.pic_number @ 0x3a78, 0x4016, 0x6b18ae
            ; CALL XREF from USER2_DISK.ntab_restore @ 0x6c2bd0
 242: USER2_DISK.cur_exch_user ();
           ; var int32_t var_10h @ a6-0x10
           ; var int32_t var_8h @ a7+0x8
           0x006c0bfe      4e56feb4       link.w a6, 0xfeb4
           0x006c0c02      bfd5           cmpa.l (a5), a7
       < 0x006c0c04      6206           bhi.b 0x6c0c0c
          0x006c0c06      44fc0002       move.w 0x2, ccr
          0x006c0c0a      4e76           trapv
       > 0x006c0c0c      defc0138       adda.w 0x138, a7
           0x006c0c10      48e7e0f8       movem.l d0-d2/a0-a4, -(a7)
           0x006c0c14      45ee0008       lea.l 0x8(a6), a2
           0x006c0c18      47eefffc       lea.l -0x4(a6), a3
           0x006c0c1c      49f9004047ea   lea.l p_wts_o, a4
           0x006c0c22      740c           moveq 0xc, d2
           0x006c0c24      1f12           move.b (a2), -(a7)
           0x006c0c26      4ebabd1c       jsr USER2_DISK.check_scope(pc)
           0x006c0c2a      9efc000a       suba.w 0xa, a7
           0x006c0c2e      2f2e000c       move.l 0xc(a6), -(a7)
           0x006c0c32      4eb9005fb748   jsr F6_VOLUME.f_vol_status
           0x006c0c38      584f           addq.w 0x4, a7
           0x006c0c3a      2d5fffec       move.l (a7)+, -0x14(a6)
           0x006c0c3e      2d5ffff0       move.l (a7)+, -0x10(a6)
           0x006c0c42      2d5ffff4       move.l (a7)+, -0xc(a6)
           0x006c0c46      2d6efff0fff8   move.l -0x10(a6), -0x8(a6)
           0x006c0c4c      26b900856246   move.l 0x856246, (a3)
           0x006c0c52      1012           move.b (a2), d0
           0x006c0c54      4880           ext.w d0
           0x006c0c56      013aa6b2       btst.l d0, 0x6bb30a(pc)
       < 0x006c0c5a      6772           beq.b 0x6c0cce
          0x006c0c5c      3200           move.w d0, d1
          0x006c0c5e      e541           asl.w 0x2, d1
          0x006c0c60      2053           movea.l (a3), a0
          0x006c0c62      b1e8fffc       cmpa.l -0x4(a0), a0
      < 0x006c0c66      6702           beq.b 0x6c0c6a
         0x006c0c68      4e4d           trap 0xd
      > 0x006c0c6a      22701016       movea.l 0x16(a0, d1.w), a1
          0x006c0c6e      b2fc0001       cmpa.w 0x1, a1
      < 0x006c0c72      665a           bne.b 0x6c0cce
         0x006c0c74      594f           subq.w 0x4, a7
         0x006c0c76      4ebac0ec       jsr USER2_DISK.new_user_table_(pc)
         0x006c0c7a      21971016       move.l (a7), 0x16(a0, d1.w)
         0x006c0c7e      544f           addq.w 0x2, a7
         0x006c0c80      4eb9006ba3c2   jsr USER1_UTILS.udebug_on
         0x006c0c86      4a1f           tst.b (a7)+
     < 0x006c0c88      6744           beq.b 0x6c0cce
        0x006c0c8a      9efc0100       suba.w 0x100, a7
        0x006c0c8e      1f00           move.b d0, -(a7)
        0x006c0c90      4eb9006b8e28   jsr USER1_UTILS.scope_str
        0x006c0c96      544f           addq.w 0x2, a7
        0x006c0c98      487aa672       pea.l 0x6bb30c(pc)
        0x006c0c9c      48780005       pea.l 0x5
        0x006c0ca0      2f17           move.l (a7), -(a7)
        0x006c0ca2      4e94           jsr (a4)                    ; fcn.0000000d
        0x006c0ca4      dec2           adda.w d2, a7
        0x006c0ca6      486f0001       pea.l 0x1(a7)
        0x006c0caa      42a7           clr.l -(a7)
        0x006c0cac      1f6f00080003   move.b 0x8(a7), 0x3(a7)
        0x006c0cb2      2f17           move.l (a7), -(a7)
        0x006c0cb4      4e94           jsr (a4)                    ; fcn.0000000d
        0x006c0cb6      defc010c       adda.w 0x10c, a7
        0x006c0cba      487aa656       pea.l 0x6bb312(pc)
        0x006c0cbe      4878000d       pea.l 0xd
        0x006c0cc2      2f17           move.l (a7), -(a7)
        0x006c0cc4      4e94           jsr (a4)                    ; fcn.0000000d
        0x006c0cc6      dec2           adda.w d2, a7
        0x006c0cc8      4eb900404946   jsr p_wtln_o
     > 0x006c0cce      594f           subq.w 0x4, a7
           0x006c0cd0      4853           pea.l (a3)
           0x006c0cd2      2f2e000c       move.l 0xc(a6), -(a7)
           0x006c0cd6      2f2efff8       move.l -0x8(a6), -(a7)
           0x006c0cda      2f12           move.l (a2), -(a7)
           0x006c0cdc      4ebafa08       jsr USER2_DISK.get_exch_fids(pc)
           0x006c0ce0      defc0010       adda.w 0x10, a7
           0x006c0ce4      2d5f0010       move.l (a7)+, 0x10(a6)
           0x006c0ce8      4cdf1f07       movem.l (a7)+, d0-d2/a0-a4
           0x006c0cec      4e5e           unlk a6
           0x006c0cee      4e75           rts
            ; XREFS: CALL 0x006c0fb4  CALL 0x006c107e  CALL 0x006c11dc  
            ; XREFS: CALL 0x006c125e  CALL 0x006c1286  CALL 0x006c1314  
            ; XREFS: CALL 0x006c13da  
 514: USER2_DISK.table_fid ();
           ; var int32_t var_696ah @ a6-0x696a
           ; var int32_t var_6968h @ a6-0x6968
           ; var int32_t var_6966h @ a6-0x6966
           ; var int32_t var_68e4h @ a6-0x68e4
           ; var int32_t var_68e2h @ a6-0x68e2
           ; var int32_t var_68e0h @ a6-0x68e0
           ; var int32_t var_6860h @ a6-0x6860
           ; var int32_t var_685eh @ a6-0x685e
           ; var int32_t var_685ch @ a6-0x685c
           ; var int32_t var_67e6h @ a6-0x67e6
           ; var int32_t var_67e4h @ a6-0x67e4
           ; var int32_t var_67e2h @ a6-0x67e2
           ; var int32_t var_8h @ a7+0x8
           0x006c0cf0      4e56feaa       link.w a6, 0xfeaa
           0x006c0cf4      bfd5           cmpa.l (a5), a7
       < 0x006c0cf6      6206           bhi.b 0x6c0cfe
          0x006c0cf8      44fc0002       move.w 0x2, ccr
          0x006c0cfc      4e76           trapv
       > 0x006c0cfe      defc0152       adda.w 0x152, a7
           0x006c0d02      48e7fef0       movem.l d0-d6/a0-a3, -(a7)
           0x006c0d06      7601           moveq 0x1, d3
           0x006c0d08      7802           moveq 0x2, d4
           0x006c0d0a      3a3c0100       move.w 0x100, d5
           0x006c0d0e      7c0c           moveq 0xc, d6
           0x006c0d10      206c0002       movea.l 0x2(a4), a0
           0x006c0d14      b0c3           cmpa.w d3, a0
       < 0x006c0d16      6616           bne.b 0x6c0d2e
     > 0x006c0d18      2d7a981e0008   move.l 0x6ba538(pc), 0x8(a6)
        0x006c0d1e      2d7a981c000c   move.l 0x6ba53c(pc), 0xc(a6)
        0x006c0d24      3d7a981a0010   move.w 0x6ba540(pc), 0x10(a6)
    < 0x006c0d2a      600001be       bra.w 0x6c0eea
    > 0x006c0d2e      102c003c       move.b 0x3c(a4), d0
        0x006c0d32      4880           ext.w d0
        0x006c0d34      3200           move.w d0, d1
        0x006c0d36      e541           asl.w 0x2, d1
        0x006c0d38      b1e8fffc       cmpa.l -0x4(a0), a0
    < 0x006c0d3c      6702           beq.b 0x6c0d40
       0x006c0d3e      4e4d           trap 0xd
    > 0x006c0d40      22701016       movea.l 0x16(a0, d1.w), a1
        0x006c0d44      b2c3           cmpa.w d3, a1
    < 0x006c0d46      6602           bne.b 0x6c0d4a
    < 0x006c0d48      60ce           bra.b 0x6c0d18
     > 0x006c0d4a      4a2c0014       tst.b 0x14(a4)
     < 0x006c0d4e      67000084       beq.w 0x6c0dd4
        0x006c0d52      246c0010       movea.l 0x10(a4), a2
        0x006c0d56      b5eafffc       cmpa.l -0x4(a2), a2
    < 0x006c0d5a      6702           beq.b 0x6c0d5e
       0x006c0d5c      4e4d           trap 0xd
    > 0x006c0d5e      122c0040       move.b 0x40(a4), d1
        0x006c0d62      b203           cmp.b d3, d1
    < 0x006c0d64      6614           bne.b 0x6c0d7a
       0x006c0d66      41ee0008       lea.l 0x8(a6), a0
       0x006c0d6a      45ea000e       lea.l 0xe(a2), a2
       0x006c0d6e      7409           moveq 0x9, d2
   > 0x006c0d70      10da           move.b (a2)+, (a0)+
   < 0x006c0d72      51cafffc       dbra d2, 0x6c0d70
   < 0x006c0d76      60000172       bra.w 0x6c0eea
   > 0x006c0d7a      b204           cmp.b d4, d1
   < 0x006c0d7c      6614           bne.b 0x6c0d92
      0x006c0d7e      41ee0008       lea.l 0x8(a6), a0
      0x006c0d82      45ea0018       lea.l 0x18(a2), a2
      0x006c0d86      7409           moveq 0x9, d2
  > 0x006c0d88      10da           move.b (a2)+, (a0)+
  < 0x006c0d8a      51cafffc       dbra d2, 0x6c0d88
  < 0x006c0d8e      6000015a       bra.w 0x6c0eea
  > 0x006c0d92      2d7a97a40008   move.l 0x6ba538(pc), 0x8(a6)
      0x006c0d98      2d7a97a2000c   move.l 0x6ba53c(pc), 0xc(a6)
      0x006c0d9e      3d7a97a00010   move.w 0x6ba540(pc), 0x10(a6)
      0x006c0da4      9ec5           suba.w d5, a7
      0x006c0da6      1f01           move.b d1, -(a7)
      0x006c0da8      4eb9006b835c   jsr USER1_UTILS.entry_t_str
      0x006c0dae      544f           addq.w 0x2, a7
      0x006c0db0      487aa56e       pea.l 0x6bb320(pc)
  > 0x006c0db4      48780013       pea.l 0x13
     0x006c0db8      2f17           move.l (a7), -(a7)
     0x006c0dba      4eb9004047ea   jsr p_wts_o
     0x006c0dc0      dec6           adda.w d6, a7
     0x006c0dc2      486f0001       pea.l 0x1(a7)
     0x006c0dc6      42a7           clr.l -(a7)
     0x006c0dc8      1f6f00080003   move.b 0x8(a7), 0x3(a7)
     0x006c0dce      2f17           move.l (a7), -(a7)
 < 0x006c0dd0      60000108       bra.w 0x6c0eda
 > 0x006c0dd4      013aa55e       btst.l d0, 0x6bb334(pc)
 < 0x006c0dd8      6762           beq.b 0x6c0e3c
    0x006c0dda      b3e9fffc       cmpa.l -0x4(a1), a1
 < 0x006c0dde      6702           beq.b 0x6c0de2
    0x006c0de0      4e4d           trap 0xd
 > 0x006c0de2      122c0040       move.b 0x40(a4), d1
    0x006c0de6      b203           cmp.b d3, d1
 < 0x006c0de8      6614           bne.b 0x6c0dfe
    0x006c0dea      45ee0008       lea.l 0x8(a6), a2
    0x006c0dee      43e9000a       lea.l 0xa(a1), a1
    0x006c0df2      7409           moveq 0x9, d2
 > 0x006c0df4      14d9           move.b (a1)+, (a2)+
 < 0x006c0df6      51cafffc       dbra d2, 0x6c0df4
 < 0x006c0dfa      600000ee       bra.w 0x6c0eea
 > 0x006c0dfe      b204           cmp.b d4, d1
 < 0x006c0e00      6614           bne.b 0x6c0e16
    0x006c0e02      45ee0008       lea.l 0x8(a6), a2
    0x006c0e06      43e90014       lea.l 0x14(a1), a1
    0x006c0e0a      7409           moveq 0x9, d2
 > 0x006c0e0c      14d9           move.b (a1)+, (a2)+
 < 0x006c0e0e      51cafffc       dbra d2, 0x6c0e0c
 < 0x006c0e12      600000d6       bra.w 0x6c0eea
 > 0x006c0e16      2d7a97200008   move.l 0x6ba538(pc), 0x8(a6)
    0x006c0e1c      2d7a971e000c   move.l 0x6ba53c(pc), 0xc(a6)
    0x006c0e22      3d7a971c0010   move.w 0x6ba540(pc), 0x10(a6)
    0x006c0e28      9ec5           suba.w d5, a7
    0x006c0e2a      1f01           move.b d1, -(a7)
    0x006c0e2c      4eb9006b835c   jsr USER1_UTILS.entry_t_str
    0x006c0e32      544f           addq.w 0x2, a7
    0x006c0e34      487aa500       pea.l 0x6bb336(pc)
 < 0x006c0e38      6000ff7a       bra.w 0x6c0db4
  > 0x006c0e3c      b004           cmp.b d4, d0
  < 0x006c0e3e      660000aa       bne.w 0x6c0eea
     0x006c0e42      594f           subq.w 0x4, a7
     0x006c0e44      4281           clr.l d1
     0x006c0e46      122c003e       move.b 0x3e(a4), d1
     0x006c0e4a      2f01           move.l d1, -(a7)
     0x006c0e4c      4281           clr.l d1
     0x006c0e4e      122c003f       move.b 0x3f(a4), d1
     0x006c0e52      2f01           move.l d1, -(a7)
     0x006c0e54      4ebabfb4       jsr USER2_DISK.user_station_re(pc)
     0x006c0e58      504f           addq.w 0x8, a7
     0x006c0e5a      265f           movea.l (a7)+, a3
     0x006c0e5c      b6c3           cmpa.w d3, a3
 < 0x006c0e5e      6604           bne.b 0x6c0e64
 < 0x006c0e60      6000feb6       bra.w 0x6c0d18
 > 0x006c0e64      b7ebfffc       cmpa.l -0x4(a3), a3
  < 0x006c0e68      6702           beq.b 0x6c0e6c
     0x006c0e6a      4e4d           trap 0xd
  > 0x006c0e6c      122c0040       move.b 0x40(a4), d1
      0x006c0e70      b203           cmp.b d3, d1
  < 0x006c0e72      6612           bne.b 0x6c0e86
     0x006c0e74      45ee0008       lea.l 0x8(a6), a2
     0x006c0e78      41eb000a       lea.l 0xa(a3), a0
     0x006c0e7c      7409           moveq 0x9, d2
 > 0x006c0e7e      14d8           move.b (a0)+, (a2)+
 < 0x006c0e80      51cafffc       dbra d2, 0x6c0e7e
 < 0x006c0e84      6064           bra.b 0x6c0eea
 > 0x006c0e86      b204           cmp.b d4, d1
 < 0x006c0e88      6612           bne.b 0x6c0e9c
    0x006c0e8a      45ee0008       lea.l 0x8(a6), a2
    0x006c0e8e      41eb0014       lea.l 0x14(a3), a0
    0x006c0e92      7409           moveq 0x9, d2
 > 0x006c0e94      14d8           move.b (a0)+, (a2)+
 < 0x006c0e96      51cafffc       dbra d2, 0x6c0e94
 < 0x006c0e9a      604e           bra.b 0x6c0eea
 > 0x006c0e9c      2d7a969a0008   move.l 0x6ba538(pc), 0x8(a6)
     0x006c0ea2      2d7a9698000c   move.l 0x6ba53c(pc), 0xc(a6)
     0x006c0ea8      3d7a96960010   move.w 0x6ba540(pc), 0x10(a6)
     0x006c0eae      9ec5           suba.w d5, a7
     0x006c0eb0      1f01           move.b d1, -(a7)
     0x006c0eb2      4eb9006b835c   jsr USER1_UTILS.entry_t_str
     0x006c0eb8      544f           addq.w 0x2, a7
     0x006c0eba      487aa48e       pea.l 0x6bb34a(pc)
     0x006c0ebe      48780013       pea.l 0x13
     0x006c0ec2      2f17           move.l (a7), -(a7)
     0x006c0ec4      4eb9004047ea   jsr p_wts_o
     0x006c0eca      dec6           adda.w d6, a7
     0x006c0ecc      486f0001       pea.l 0x1(a7)
     0x006c0ed0      42a7           clr.l -(a7)
     0x006c0ed2      1f6f00080003   move.b 0x8(a7), 0x3(a7)
     0x006c0ed8      2f17           move.l (a7), -(a7)
 > 0x006c0eda      4eb9004047ea   jsr p_wts_o
      0x006c0ee0      defc010c       adda.w 0x10c, a7
      0x006c0ee4      4eb900404946   jsr p_wtln_o
 > 0x006c0eea      4cdf0f7f       movem.l (a7)+, d0-d6/a0-a3
           0x006c0eee      4e5e           unlk a6
           0x006c0ef0      4e75           rts
            ; CALL XREFS from USER.remove_fid_from @ 0x2cc2, 0x6b08b6
 1358: USER2_DISK.open_number_tab ();
           ; var int32_t var_22h @ a6-0x22
           ; var int32_t var_8h @ a7+0x8
           0x006c0ef2      4e56fd92       link.w a6, 0xfd92
           0x006c0ef6      bfd5           cmpa.l (a5), a7
       < 0x006c0ef8      6206           bhi.b 0x6c0f00
          0x006c0efa      44fc0002       move.w 0x2, ccr
          0x006c0efe      4e76           trapv
       > 0x006c0f00      defc024c       adda.w 0x24c, a7
           0x006c0f04      48e7fff8       movem.l d0-d7/a0-a4, -(a7)
           0x006c0f08      740c           moveq 0xc, d2
           0x006c0f0a      7601           moveq 0x1, d3
           0x006c0f0c      383c0100       move.w 0x100, d4
           0x006c0f10      3a3c010c       move.w 0x10c, d5
           0x006c0f14      4227           clr.b -(a7)
           0x006c0f16      102e001e       move.b 0x1e(a6), d0
           0x006c0f1a      4880           ext.w d0
           0x006c0f1c      41faa440       lea.l 0x6bb35e(pc), a0
           0x006c0f20      3200           move.w d0, d1
           0x006c0f22      e649           lsr.w 0x3, d1
           0x006c0f24      01301000       btst.l d0, (a0, d1.w)
       < 0x006c0f28      6702           beq.b 0x6c0f2c
          0x006c0f2a      5217           addq.b 0x1, (a7)
       > 0x006c0f2c      4eb90040452a   jsr p_Assert
           0x006c0f32      1eae001a       move.b 0x1a(a6), (a7)
           0x006c0f36      4ebaba0c       jsr USER2_DISK.check_scope(pc)
           0x006c0f3a      4217           clr.b (a7)
           0x006c0f3c      4eb9006b96f2   jsr USER1_UTILS.aux_stack_check
           0x006c0f42      544f           addq.w 0x2, a7
           0x006c0f44      206e000c       movea.l 0xc(a6), a0
           0x006c0f48      2083           move.l d3, (a0)
           0x006c0f4a      226e0008       movea.l 0x8(a6), a1
           0x006c0f4e      22bcffff0001   move.l 0xffff0001, (a1)
           0x006c0f54      2d7900856246.  move.l 0x856246, -0x20(a6)
           0x006c0f5c      422effde       clr.b -0x22(a6)
           0x006c0f60      246effe0       movea.l -0x20(a6), a2
           0x006c0f64      b4c3           cmpa.w d3, a2
       < 0x006c0f66      6704           beq.b 0x6c0f6c
          0x006c0f68      522effde       addq.b 0x1, -0x22(a6)
       > 0x006c0f6c      422efff2       clr.b -0xe(a6)
           0x006c0f70      202e0010       move.l 0x10(a6), d0
           0x006c0f74      0c80ffffffff   cmpi.l 0xffffffff, d0
       < 0x006c0f7a      6704           beq.b 0x6c0f80
          0x006c0f7c      522efff2       addq.b 0x1, -0xe(a6)
       > 0x006c0f80      7c00           moveq 0x0, d6
           0x006c0f82      4a2effde       tst.b -0x22(a6)
       < 0x006c0f86      67000248       beq.w 0x6c11d0
          0x006c0f8a      4a2efff2       tst.b -0xe(a6)
      < 0x006c0f8e      670000c6       beq.w 0x6c1056
         0x006c0f92      594f           subq.w 0x4, a7
         0x006c0f94      486effe0       pea.l -0x20(a6)
         0x006c0f98      2f2e0014       move.l 0x14(a6), -(a7)
         0x006c0f9c      2f00           move.l d0, -(a7)
         0x006c0f9e      2f2e001a       move.l 0x1a(a6), -(a7)
         0x006c0fa2      4ebaf742       jsr USER2_DISK.get_exch_fids(pc)
         0x006c0fa6      defc0010       adda.w 0x10, a7
         0x006c0faa      2d57ffee       move.l (a7), -0x12(a6)
         0x006c0fae      514f           subq.w 0x8, a7
         0x006c0fb0      49eeffde       lea.l -0x22(a6), a4
         0x006c0fb4      4ebafd3a       jsr USER2_DISK.table_fid(pc)
         0x006c0fb8      2f3a9584       move.l 0x6ba53e(pc), -(a7)
         0x006c0fbc      2f3a957c       move.l 0x6ba53a(pc), -(a7)
         0x006c0fc0      3f3a9576       move.w 0x6ba538(pc), -(a7)
         0x006c0fc4      4eb9005ef3d2   jsr F2_UTILITY.f_fids_eq
         0x006c0fca      defc0014       adda.w 0x14, a7
         0x006c0fce      121f           move.b (a7)+, d1
         0x006c0fd0      4401           neg.b d1
         0x006c0fd2      5201           addq.b 0x1, d1
         0x006c0fd4      4881           ext.w d1
         0x006c0fd6      4383           chk.w d3, d1
         0x006c0fd8      1d41ffde       move.b d1, -0x22(a6)
         0x006c0fdc      4a01           tst.b d1
     < 0x006c0fde      660001f0       bne.w 0x6c11d0
        0x006c0fe2      9ec4           suba.w d4, a7
        0x006c0fe4      1f2e001e       move.b 0x1e(a6), -(a7)
        0x006c0fe8      4eb9006b835c   jsr USER1_UTILS.entry_t_str
        0x006c0fee      544f           addq.w 0x2, a7
        0x006c0ff0      487aa36f       pea.l 0x6bb361(pc)
        0x006c0ff4      48780011       pea.l 0x11
        0x006c0ff8      2f17           move.l (a7), -(a7)
        0x006c0ffa      4eb9004047ea   jsr p_wts_o
        0x006c1000      504f           addq.w 0x8, a7
        0x006c1002      2eae0010       move.l 0x10(a6), (a7)
        0x006c1006      4878ffff       pea.l 0xffff
        0x006c100a      4eb9004070e4   jsr p_wti_o
        0x006c1010      504f           addq.w 0x8, a7
        0x006c1012      487aa35f       pea.l 0x6bb373(pc)
        0x006c1016      48780002       pea.l 0x2
        0x006c101a      2f17           move.l (a7), -(a7)
        0x006c101c      4eb9004047ea   jsr p_wts_o
        0x006c1022      dec2           adda.w d2, a7
        0x006c1024      486f0001       pea.l 0x1(a7)
        0x006c1028      42a7           clr.l -(a7)
        0x006c102a      1f6f00080003   move.b 0x8(a7), 0x3(a7)
        0x006c1030      2f17           move.l (a7), -(a7)
        0x006c1032      4eb9004047ea   jsr p_wts_o
        0x006c1038      dec5           adda.w d5, a7
        0x006c103a      487aa33a       pea.l 0x6bb376(pc)
        0x006c103e      4878001a       pea.l 0x1a
        0x006c1042      2f17           move.l (a7), -(a7)
    > 0x006c1044      4eb9004047ea   jsr p_wts_o
       0x006c104a      dec2           adda.w d2, a7
       0x006c104c      4eb900404946   jsr p_wtln_o
   < 0x006c1052      6000017c       bra.w 0x6c11d0
   > 0x006c1056      554f           subq.w 0x2, a7
       0x006c1058      2f2e001a       move.l 0x1a(a6), -(a7)
       0x006c105c      4ebae390       jsr USER2_DISK.fixed_drives_ok(pc)
       0x006c1060      584f           addq.w 0x4, a7
       0x006c1062      4a1f           tst.b (a7)+
   < 0x006c1064      6610           bne.b 0x6c1076
      0x006c1066      422effde       clr.b -0x22(a6)
      0x006c106a      487aa325       pea.l 0x6bb391(pc)
      0x006c106e      4878001a       pea.l 0x1a
      0x006c1072      2f17           move.l (a7), -(a7)
   < 0x006c1074      60ce           bra.b 0x6c1044
    > 0x006c1076      9efc000a       suba.w 0xa, a7
        0x006c107a      49eeffde       lea.l -0x22(a6), a4
        0x006c107e      4ebafc70       jsr USER2_DISK.table_fid(pc)
        0x006c1082      2d5ffff6       move.l (a7)+, -0xa(a6)
        0x006c1086      2d5ffffa       move.l (a7)+, -0x6(a6)
        0x006c108a      3d57fffe       move.w (a7), -0x2(a6)
        0x006c108e      2f2efffc       move.l -0x4(a6), -(a7)
        0x006c1092      2f2efff8       move.l -0x8(a6), -(a7)
        0x006c1096      3f2efff6       move.w -0xa(a6), -(a7)
        0x006c109a      2f3a94a2       move.l 0x6ba53e(pc), -(a7)
        0x006c109e      2f3a949a       move.l 0x6ba53a(pc), -(a7)
        0x006c10a2      3f3a9494       move.w 0x6ba538(pc), -(a7)
        0x006c10a6      4eb9005ef3d2   jsr F2_UTILITY.f_fids_eq
        0x006c10ac      defc0014       adda.w 0x14, a7
        0x006c10b0      4a1f           tst.b (a7)+
    < 0x006c10b2      6704           beq.b 0x6c10b8
       0x006c10b4      422effde       clr.b -0x22(a6)
    > 0x006c10b8      554f           subq.w 0x2, a7
        0x006c10ba      2f2efffc       move.l -0x4(a6), -(a7)
        0x006c10be      2f2efff8       move.l -0x8(a6), -(a7)
        0x006c10c2      3f2efff6       move.w -0xa(a6), -(a7)
        0x006c10c6      486effde       pea.l -0x22(a6)
        0x006c10ca      4eb900607aaa   jsr F10_FILELIST.f_validate_fid
        0x006c10d0      defc000e       adda.w 0xe, a7
        0x006c10d4      4a1f           tst.b (a7)+
    < 0x006c10d6      6606           bne.b 0x6c10de
       0x006c10d8      4eb900404188   jsr p_Unlink
    > 0x006c10de      4a2effde       tst.b -0x22(a6)
    < 0x006c10e2      660000ec       bne.w 0x6c11d0
       0x006c10e6      246effe0       movea.l -0x20(a6), a2
       0x006c10ea      b5eafffc       cmpa.l -0x4(a2), a2
   < 0x006c10ee      6702           beq.b 0x6c10f2
      0x006c10f0      4e4d           trap 0xd
   > 0x006c10f2      2f0a           move.l a2, -(a7)
       0x006c10f4      9efc0018       suba.w 0x18, a7
       0x006c10f8      264f           movea.l a7, a3
       0x006c10fa      7214           moveq 0x14, d1
   > 0x006c10fc      16da           move.b (a2)+, (a3)+
   < 0x006c10fe      51c9fffc       dbra d1, 0x6c10fc
       0x006c1102      2f2e001a       move.l 0x1a(a6), -(a7)
       0x006c1106      4ebaeb74       jsr USER2_DISK.set_fixed_user(pc)
       0x006c110a      defc001a       adda.w 0x1a, a7
       0x006c110e      121f           move.b (a7)+, d1
       0x006c1110      4881           ext.w d1
       0x006c1112      4383           chk.w d3, d1
       0x006c1114      1d41ffde       move.b d1, -0x22(a6)
       0x006c1118      4a01           tst.b d1
   < 0x006c111a      6674           bne.b 0x6c1190
      0x006c111c      9ec4           suba.w d4, a7
      0x006c111e      1f2e001e       move.b 0x1e(a6), -(a7)
      0x006c1122      4eb9006b835c   jsr USER1_UTILS.entry_t_str
      0x006c1128      544f           addq.w 0x2, a7
      0x006c112a      487aa280       pea.l 0x6bb3ac(pc)
      0x006c112e      4878000c       pea.l 0xc
      0x006c1132      2f17           move.l (a7), -(a7)
      0x006c1134      4eb9004047ea   jsr p_wts_o
      0x006c113a      504f           addq.w 0x8, a7
      0x006c113c      2eae0010       move.l 0x10(a6), (a7)
      0x006c1140      4878ffff       pea.l 0xffff
      0x006c1144      4eb9004070e4   jsr p_wti_o
      0x006c114a      504f           addq.w 0x8, a7
      0x006c114c      487aa26b       pea.l 0x6bb3b9(pc)
      0x006c1150      48780002       pea.l 0x2
      0x006c1154      2f17           move.l (a7), -(a7)
      0x006c1156      4eb9004047ea   jsr p_wts_o
      0x006c115c      dec2           adda.w d2, a7
      0x006c115e      486f0001       pea.l 0x1(a7)
      0x006c1162      42a7           clr.l -(a7)
      0x006c1164      1f6f00080003   move.b 0x8(a7), 0x3(a7)
      0x006c116a      2f17           move.l (a7), -(a7)
      0x006c116c      4eb9004047ea   jsr p_wts_o
      0x006c1172      dec5           adda.w d5, a7
      0x006c1174      487aa246       pea.l 0x6bb3bc(pc)
      0x006c1178      48780027       pea.l 0x27
      0x006c117c      2f17           move.l (a7), -(a7)
      0x006c117e      4eb9004047ea   jsr p_wts_o
      0x006c1184      dec2           adda.w d2, a7
      0x006c1186      4eb900404946   jsr p_wtln_o
      0x006c118c      584f           addq.w 0x4, a7
  < 0x006c118e      6040           bra.b 0x6c11d0
  > 0x006c1190      554f           subq.w 0x2, a7
      0x006c1192      4eb9006ba3c2   jsr USER1_UTILS.udebug_on
      0x006c1198      4a1f           tst.b (a7)+
  < 0x006c119a      6604           bne.b 0x6c11a0
     0x006c119c      584f           addq.w 0x4, a7
 < 0x006c119e      6030           bra.b 0x6c11d0
 > 0x006c11a0      487aa242       pea.l 0x6bb3e4(pc)
     0x006c11a4      4878001c       pea.l 0x1c
     0x006c11a8      2f17           move.l (a7), -(a7)
     0x006c11aa      4eb9004047ea   jsr p_wts_o
     0x006c11b0      dec2           adda.w d2, a7
     0x006c11b2      2457           movea.l (a7), a2
     0x006c11b4      486a0001       pea.l 0x1(a2)
     0x006c11b8      42a7           clr.l -(a7)
     0x006c11ba      1f520003       move.b (a2), 0x3(a7)
     0x006c11be      2f17           move.l (a7), -(a7)
     0x006c11c0      4eb9004047ea   jsr p_wts_o
     0x006c11c6      dec2           adda.w d2, a7
     0x006c11c8      4eb900404946   jsr p_wtln_o
     0x006c11ce      584f           addq.w 0x4, a7
 > 0x006c11d0      4a2effde       tst.b -0x22(a6)
       < 0x006c11d4      676e           beq.b 0x6c1244
          0x006c11d6      9ec2           suba.w d2, a7
          0x006c11d8      49eeffde       lea.l -0x22(a6), a4
          0x006c11dc      4ebafb12       jsr USER2_DISK.table_fid(pc)
          0x006c11e0      2f3a935c       move.l 0x6ba53e(pc), -(a7)
          0x006c11e4      2f3a9354       move.l 0x6ba53a(pc), -(a7)
          0x006c11e8      3f3a934e       move.w 0x6ba538(pc), -(a7)
          0x006c11ec      4eb9005ef3d2   jsr F2_UTILITY.f_fids_eq
          0x006c11f2      defc0014       adda.w 0x14, a7
          0x006c11f6      101f           move.b (a7)+, d0
          0x006c11f8      4400           neg.b d0
          0x006c11fa      5200           addq.b 0x1, d0
          0x006c11fc      4880           ext.w d0
          0x006c11fe      4183           chk.w d3, d0
          0x006c1200      1d40ffde       move.b d0, -0x22(a6)
          0x006c1204      4a00           tst.b d0
      < 0x006c1206      663c           bne.b 0x6c1244
         0x006c1208      9ec4           suba.w d4, a7
         0x006c120a      1f2e001e       move.b 0x1e(a6), -(a7)
         0x006c120e      4eb9006b835c   jsr USER1_UTILS.entry_t_str
         0x006c1214      544f           addq.w 0x2, a7
         0x006c1216      486f0001       pea.l 0x1(a7)
         0x006c121a      42a7           clr.l -(a7)
         0x006c121c      1f6f00080003   move.b 0x8(a7), 0x3(a7)
         0x006c1222      2f17           move.l (a7), -(a7)
         0x006c1224      4eb9004047ea   jsr p_wts_o
         0x006c122a      dec5           adda.w d5, a7
         0x006c122c      487aa1d3       pea.l 0x6bb401(pc)
         0x006c1230      48780019       pea.l 0x19
         0x006c1234      2f17           move.l (a7), -(a7)
         0x006c1236      4eb9004047ea   jsr p_wts_o
         0x006c123c      dec2           adda.w d2, a7
         0x006c123e      4eb900404946   jsr p_wtln_o
      > 0x006c1244      4a2e0018       tst.b 0x18(a6)
       < 0x006c1248      6604           bne.b 0x6c124e
          0x006c124a      7e00           moveq 0x0, d7
      < 0x006c124c      6002           bra.b 0x6c1250
      > 0x006c124e      7e03           moveq 0x3, d7
      > 0x006c1250      4a2effde       tst.b -0x22(a6)
       < 0x006c1254      670000b0       beq.w 0x6c1306
          0x006c1258      9ec2           suba.w d2, a7
          0x006c125a      49eeffde       lea.l -0x22(a6), a4
          0x006c125e      4ebafa90       jsr USER2_DISK.table_fid(pc)
          0x006c1262      4227           clr.b -(a7)
          0x006c1264      4a2e0018       tst.b 0x18(a6)
      < 0x006c1268      6702           beq.b 0x6c126c
         0x006c126a      5217           addq.b 0x1, (a7)
      > 0x006c126c      4850           pea.l (a0)
          0x006c126e      4eb90060c190   jsr F14_MAP.f_op_map
          0x006c1274      defc0010       adda.w 0x10, a7
          0x006c1278      4a1f           tst.b (a7)+
      < 0x006c127a      66000088       bne.w 0x6c1304
         0x006c127e      9efc000a       suba.w 0xa, a7
         0x006c1282      49eeffde       lea.l -0x22(a6), a4
         0x006c1286      4ebafa68       jsr USER2_DISK.table_fid(pc)
         0x006c128a      2d5fffe4       move.l (a7)+, -0x1c(a6)
         0x006c128e      2d5fffe8       move.l (a7)+, -0x18(a6)
         0x006c1292      3d57ffec       move.w (a7), -0x14(a6)
         0x006c1296      9efc00fe       suba.w 0xfe, a7
         0x006c129a      486effe4       pea.l -0x1c(a6)
         0x006c129e      4eb9005ef416   jsr F2_UTILITY.f_fid_string
         0x006c12a4      584f           addq.w 0x4, a7
         0x006c12a6      487aa173       pea.l 0x6bb41b(pc)
         0x006c12aa      4878001d       pea.l 0x1d
         0x006c12ae      2f17           move.l (a7), -(a7)
         0x006c12b0      4eb9004047ea   jsr p_wts_o
         0x006c12b6      dec2           adda.w d2, a7
         0x006c12b8      486f0001       pea.l 0x1(a7)
         0x006c12bc      42a7           clr.l -(a7)
         0x006c12be      1f6f00080003   move.b 0x8(a7), 0x3(a7)
         0x006c12c4      2f17           move.l (a7), -(a7)
         0x006c12c6      4eb9004047ea   jsr p_wts_o
         0x006c12cc      dec5           adda.w d5, a7
         0x006c12ce      4eb900404946   jsr p_wtln_o
         0x006c12d4      9ec4           suba.w d4, a7
         0x006c12d6      4eb900408ec0   jsr p_err_string
         0x006c12dc      486f0001       pea.l 0x1(a7)
         0x006c12e0      42a7           clr.l -(a7)
         0x006c12e2      1f6f00080003   move.b 0x8(a7), 0x3(a7)
         0x006c12e8      2f17           move.l (a7), -(a7)
         0x006c12ea      4eb9004047ea   jsr p_wts_o
         0x006c12f0      dec5           adda.w d5, a7
         0x006c12f2      4eb900404946   jsr p_wtln_o
         0x006c12f8      4eb900404188   jsr p_Unlink
         0x006c12fe      422effde       clr.b -0x22(a6)
     < 0x006c1302      6002           bra.b 0x6c1306
     > 0x006c1304      7c01           moveq 0x1, d6
     > 0x006c1306      4a2effde       tst.b -0x22(a6)
       < 0x006c130a      670000a0       beq.w 0x6c13ac
          0x006c130e      9ec2           suba.w d2, a7
          0x006c1310      49eeffde       lea.l -0x22(a6), a4
          0x006c1314      4ebaf9da       jsr USER2_DISK.table_fid(pc)
          0x006c1318      4887           ext.w d7
          0x006c131a      4fbc0004       chk.w 0x4, d7
          0x006c131e      1f07           move.b d7, -(a7)
          0x006c1320      4851           pea.l (a1)
          0x006c1322      4eb9006082de   jsr F10_FILELIST.f_get_header
          0x006c1328      defc0010       adda.w 0x10, a7
          0x006c132c      4a1f           tst.b (a7)+
      < 0x006c132e      667c           bne.b 0x6c13ac
         0x006c1330      9ec4           suba.w d4, a7
         0x006c1332      4eb900408ec0   jsr p_err_string
         0x006c1338      9ec4           suba.w d4, a7
         0x006c133a      7021           moveq 0x21, d0
         0x006c133c      45ef0001       lea.l 0x1(a7), a2
         0x006c1340      47faa0f7       lea.l 0x6bb439(pc), a3
     > 0x006c1344      14db           move.b (a3)+, (a2)+
     < 0x006c1346      51c8fffc       dbra d0, 0x6c1344
         0x006c134a      4240           clr.w d0
         0x006c134c      102f0100       move.b 0x100(a7), d0
         0x006c1350      06000022       addi.b 0x22, d0
     < 0x006c1354      6406           bcc.b 0x6c135c
        0x006c1356      4eb900406c8a   jsr p_strovr
     > 0x006c135c      4240           clr.w d0
         0x006c135e      102f0100       move.b 0x100(a7), d0
         0x006c1362      323c00ff       move.w 0xff, d1
         0x006c1366      04410022       subi.w 0x22, d1
         0x006c136a      b041           cmp.w d1, d0
     < 0x006c136c      6302           bls.b 0x6c1370
        0x006c136e      3001           move.w d1, d0
     > 0x006c1370      1ebc0022       move.b 0x22, (a7)
         0x006c1374      d117           add.b d0, (a7)
         0x006c1376      5300           subq.b 0x1, d0
     < 0x006c1378      650a           bcs.b 0x6c1384
        0x006c137a      47ef0101       lea.l 0x101(a7), a3
    > 0x006c137e      14db           move.b (a3)+, (a2)+
    < 0x006c1380      51c8fffc       dbra d0, 0x6c137e
     > 0x006c1384      486f0001       pea.l 0x1(a7)
         0x006c1388      42a7           clr.l -(a7)
         0x006c138a      1f6f00080003   move.b 0x8(a7), 0x3(a7)
         0x006c1390      2f17           move.l (a7), -(a7)
         0x006c1392      4eb9004047ea   jsr p_wts_o
         0x006c1398      defc020c       adda.w 0x20c, a7
         0x006c139c      4eb900404946   jsr p_wtln_o
         0x006c13a2      4eb900404188   jsr p_Unlink
         0x006c13a8      422effde       clr.b -0x22(a6)
      > 0x006c13ac      4a06           tst.b d6
       < 0x006c13ae      6710           beq.b 0x6c13c0
          0x006c13b0      4a2effde       tst.b -0x22(a6)
      < 0x006c13b4      660a           bne.b 0x6c13c0
         0x006c13b6      4850           pea.l (a0)
         0x006c13b8      4eb90060470a   jsr F9_FILERDWRT.f_close
         0x006c13be      584f           addq.w 0x4, a7
      > 0x006c13c0      554f           subq.w 0x2, a7
           0x006c13c2      4eb9006ba3c2   jsr USER1_UTILS.udebug_on
           0x006c13c8      4a1f           tst.b (a7)+
       < 0x006c13ca      675c           beq.b 0x6c1428
          0x006c13cc      4a2effde       tst.b -0x22(a6)
      < 0x006c13d0      6656           bne.b 0x6c1428
         0x006c13d2      9efc000a       suba.w 0xa, a7
         0x006c13d6      49eeffde       lea.l -0x22(a6), a4
         0x006c13da      4ebaf914       jsr USER2_DISK.table_fid(pc)
         0x006c13de      2d5fffe4       move.l (a7)+, -0x1c(a6)
         0x006c13e2      2d5fffe8       move.l (a7)+, -0x18(a6)
         0x006c13e6      3d57ffec       move.w (a7), -0x14(a6)
         0x006c13ea      9efc00fe       suba.w 0xfe, a7
         0x006c13ee      486effe4       pea.l -0x1c(a6)
         0x006c13f2      4eb9005ef416   jsr F2_UTILITY.f_fid_string
         0x006c13f8      584f           addq.w 0x4, a7
         0x006c13fa      487aa060       pea.l 0x6bb45c(pc)
         0x006c13fe      4878001c       pea.l 0x1c
         0x006c1402      2f17           move.l (a7), -(a7)
         0x006c1404      4eb9004047ea   jsr p_wts_o
         0x006c140a      dec2           adda.w d2, a7
         0x006c140c      486f0001       pea.l 0x1(a7)
         0x006c1410      42a7           clr.l -(a7)
         0x006c1412      1f6f00080003   move.b 0x8(a7), 0x3(a7)
         0x006c1418      2f17           move.l (a7), -(a7)
         0x006c141a      4eb9004047ea   jsr p_wts_o
         0x006c1420      dec5           adda.w d5, a7
         0x006c1422      4eb900404946   jsr p_wtln_o
      > 0x006c1428      1d6effde0020   move.b -0x22(a6), 0x20(a6)
           0x006c142e      1f03           move.b d3, -(a7)
           0x006c1430      4eb9006b96f2   jsr USER1_UTILS.aux_stack_check
           0x006c1436      544f           addq.w 0x2, a7
           0x006c1438      4cdf1fff       movem.l (a7)+, d0-d7/a0-a4
           0x006c143c      4e5e           unlk a6
           0x006c143e      4e75           rts
            ; CALL XREF from USER2_DISK.update_drivesta @ 0x6c3cae
 110: USER2_DISK.set_public_volu ();
           0x006c1440      4e56ffec       link.w a6, 0xffec
           0x006c1444      bfd5           cmpa.l (a5), a7
       < 0x006c1446      6206           bhi.b 0x6c144e
          0x006c1448      44fc0002       move.w 0x2, ccr
          0x006c144c      4e76           trapv
       > 0x006c144e      defc0014       adda.w 0x14, a7
           0x006c1452      48e78000       movem.l d0, -(a7)
           0x006c1456      4a790085621a   tst.w 0x85621a
       < 0x006c145c      6f20           ble.b 0x6c147e
          0x006c145e      487aa019       pea.l 0x6bb479(pc)
          0x006c1462      48780018       pea.l 0x18
          0x006c1466      2f17           move.l (a7), -(a7)
          0x006c1468      4eb9004047ea   jsr p_wts_o
          0x006c146e      defc000c       adda.w 0xc, a7
          0x006c1472      4eb900404946   jsr p_wtln_o
          0x006c1478      4eb900401620   jsr p_walkback
       > 0x006c147e      4280           clr.l d0
           0x006c1480      102e000a       move.b 0xa(a6), d0
           0x006c1484      33c0008551ec   move.w d0, 0x8551ec
           0x006c148a      4280           clr.l d0
           0x006c148c      102e000b       move.b 0xb(a6), d0
           0x006c1490      33c0008551ee   move.w d0, 0x8551ee
           0x006c1496      23ee000c0085.  move.l 0xc(a6), 0x8551f0.l
           0x006c149e      13fc00010085.  move.b 0x1, 0x8551f6.l
           0x006c14a6      4cdf0001       movem.l (a7)+, d0
           0x006c14aa      4e5e           unlk a6
           0x006c14ac      4e75           rts
            ; CALL XREF from USER2_DISK.update_drivesta @ 0x6c3f14
 110: USER2_DISK.set_clipbox_vol ();
           0x006c14ae      4e56ffec       link.w a6, 0xffec
           0x006c14b2      bfd5           cmpa.l (a5), a7
       < 0x006c14b4      6206           bhi.b 0x6c14bc
          0x006c14b6      44fc0002       move.w 0x2, ccr
          0x006c14ba      4e76           trapv
       > 0x006c14bc      defc0014       adda.w 0x14, a7
           0x006c14c0      48e78000       movem.l d0, -(a7)
           0x006c14c4      4a790085621a   tst.w 0x85621a
       < 0x006c14ca      6f20           ble.b 0x6c14ec
          0x006c14cc      487a9fc4       pea.l 0x6bb492(pc)
          0x006c14d0      48780018       pea.l 0x18
          0x006c14d4      2f17           move.l (a7), -(a7)
          0x006c14d6      4eb9004047ea   jsr p_wts_o
          0x006c14dc      defc000c       adda.w 0xc, a7
          0x006c14e0      4eb900404946   jsr p_wtln_o
          0x006c14e6      4eb900401620   jsr p_walkback
       > 0x006c14ec      4280           clr.l d0
           0x006c14ee      102e000a       move.b 0xa(a6), d0
           0x006c14f2      33c0008552c4   move.w d0, 0x8552c4
           0x006c14f8      4280           clr.l d0
           0x006c14fa      102e000b       move.b 0xb(a6), d0
           0x006c14fe      33c0008552c6   move.w d0, 0x8552c6
           0x006c1504      23ee000c0085.  move.l 0xc(a6), 0x8552c8.l
           0x006c150c      13fc00010085.  move.b 0x1, 0x8552ce.l
           0x006c1514      4cdf0001       movem.l (a7)+, d0
           0x006c1518      4e5e           unlk a6
           0x006c151a      4e75           rts
            ; CALL XREF from USER2_DISK.init_user @ 0x6c4d90
            ; CALL XREFS from PANEL_VIDEO.grab_buffer @ 0x7989c6, 0x7989fa
 730: USER2_DISK.grab_file ();
           ; var int32_t var_8h @ a7+0x8
           0x006c151c      4e56fe38       link.w a6, 0xfe38
           0x006c1520      bfd5           cmpa.l (a5), a7
       < 0x006c1522      6206           bhi.b 0x6c152a
          0x006c1524      44fc0002       move.w 0x2, ccr
          0x006c1528      4e76           trapv
       > 0x006c152a      defc0146       adda.w 0x146, a7
           0x006c152e      48e7fff8       movem.l d0-d7/a0-a4, -(a7)
           0x006c1532      45f9004047ea   lea.l p_wts_o, a2
           0x006c1538      47f90085519a   lea.l 0x85519a, a3
           0x006c153e      49eefff6       lea.l -0xa(a6), a4
           0x006c1542      740c           moveq 0xc, d2
           0x006c1544      7601           moveq 0x1, d3
           0x006c1546      7814           moveq 0x14, d4
           0x006c1548      3a3c0100       move.w 0x100, d5
           0x006c154c      7c0a           moveq 0xa, d6
           0x006c154e      3e3c010c       move.w 0x10c, d7
           0x006c1552      2893           move.l (a3), (a4)
           0x006c1554      2d790085519e.  move.l 0x85519e, -0x6(a6)
           0x006c155c      3d79008551a2.  move.w 0x8551a2, -0x2(a6)
           0x006c1564      4227           clr.b -(a7)
           0x006c1566      4eb9006b96f2   jsr USER1_UTILS.aux_stack_check
           0x006c156c      486effac       pea.l -0x54(a6)
           0x006c1570      4eb900404434   jsr fcn.00404434
           0x006c1576      584f           addq.w 0x4, a7
           0x006c1578      4a1f           tst.b (a7)+
       < 0x006c157a      6700022a       beq.w 0x6c17a6
          0x006c157e      4a2e0008       tst.b 0x8(a6)
      < 0x006c1582      6600015a       bne.w 0x6c16de
         0x006c1586      554f           subq.w 0x2, a7
         0x006c1588      4eb9006ba3c2   jsr USER1_UTILS.udebug_on
         0x006c158e      4a1f           tst.b (a7)+
     < 0x006c1590      6714           beq.b 0x6c15a6
        0x006c1592      487a9f17       pea.l 0x6bb4ab(pc)
        0x006c1596      48780012       pea.l 0x12
        0x006c159a      2f17           move.l (a7), -(a7)
        0x006c159c      4e92           jsr (a2)                    ; fcn.00000009+0x2
        0x006c159e      dec2           adda.w d2, a7
        0x006c15a0      4eb900404946   jsr p_wtln_o
     > 0x006c15a6      554f           subq.w 0x2, a7
         0x006c15a8      2f2efffc       move.l -0x4(a6), -(a7)
         0x006c15ac      2f2efff8       move.l -0x8(a6), -(a7)
         0x006c15b0      3f14           move.w (a4), -(a7)
         0x006c15b2      2f3a8f8a       move.l 0x6ba53e(pc), -(a7)
         0x006c15b6      2f3a8f82       move.l 0x6ba53a(pc), -(a7)
         0x006c15ba      3f3a8f7c       move.w 0x6ba538(pc), -(a7)
         0x006c15be      4eb9005ef3d2   jsr F2_UTILITY.f_fids_eq
         0x006c15c4      dec4           adda.w d4, a7
         0x006c15c6      1017           move.b (a7), d0
         0x006c15c8      4880           ext.w d0
         0x006c15ca      4183           chk.w d3, d0
         0x006c15cc      1e80           move.b d0, (a7)
         0x006c15ce      4eb90040452a   jsr p_Assert
         0x006c15d4      2f39008551a8   move.l 0x8551a8, -(a7)
         0x006c15da      3f3c044c       move.w 0x44c, -(a7)
         0x006c15de      48780064       pea.l 0x64
         0x006c15e2      48780001       pea.l 0x1
         0x006c15e6      4854           pea.l (a4)
         0x006c15e8      486eff7e       pea.l -0x82(a6)
         0x006c15ec      4ebad6ba       jsr USER2_DISK.create_and_clea(pc)
         0x006c15f0      defc0016       adda.w 0x16, a7
         0x006c15f4      4a1f           tst.b (a7)+
     < 0x006c15f6      6610           bne.b 0x6c1608
        0x006c15f8      4878000e       pea.l 0xe
        0x006c15fc      486effac       pea.l -0x54(a6)
        0x006c1600      4eb9006b7f94   jsr USER1_UTILS.error
        0x006c1606      504f           addq.w 0x8, a7
     > 0x006c1608      41eeff82       lea.l -0x7e(a6), a0
         0x006c160c      43fa9eaf       lea.l 0x6bb4bd(pc), a1
         0x006c1610      7009           moveq 0x9, d0
     > 0x006c1612      10d9           move.b (a1)+, (a0)+
     < 0x006c1614      51c8fffc       dbra d0, 0x6c1612
         0x006c1618      554f           subq.w 0x2, a7
         0x006c161a      3f04           move.w d4, -(a7)
         0x006c161c      2f2eff7e       move.l -0x82(a6), -(a7)
         0x006c1620      486eff82       pea.l -0x7e(a6)
         0x006c1624      4eb9005eedf6   jsr f_put_string
         0x006c162a      dec6           adda.w d6, a7
         0x006c162c      1017           move.b (a7), d0
         0x006c162e      4880           ext.w d0
         0x006c1630      4183           chk.w d3, d0
         0x006c1632      1e80           move.b d0, (a7)
         0x006c1634      4eb90040452a   jsr p_Assert
         0x006c163a      544f           addq.w 0x2, a7
         0x006c163c      486eff7e       pea.l -0x82(a6)
         0x006c1640      4eb90060500e   jsr F9_FILERDWRT.f_free_block
         0x006c1646      544f           addq.w 0x2, a7
         0x006c1648      4eb9006ba3c2   jsr USER1_UTILS.udebug_on
         0x006c164e      4a1f           tst.b (a7)+
     < 0x006c1650      6732           beq.b 0x6c1684
        0x006c1652      9ec5           suba.w d5, a7
        0x006c1654      4854           pea.l (a4)
        0x006c1656      4eb9005ef416   jsr F2_UTILITY.f_fid_string
        0x006c165c      584f           addq.w 0x4, a7
        0x006c165e      487a9e68       pea.l 0x6bb4c8(pc)
        0x006c1662      48780012       pea.l 0x12
        0x006c1666      2f17           move.l (a7), -(a7)
        0x006c1668      4e92           jsr (a2)                    ; fcn.00000009+0x2
        0x006c166a      dec2           adda.w d2, a7
        0x006c166c      486f0001       pea.l 0x1(a7)
        0x006c1670      42a7           clr.l -(a7)
        0x006c1672      1f6f00080003   move.b 0x8(a7), 0x3(a7)
        0x006c1678      2f17           move.l (a7), -(a7)
        0x006c167a      4e92           jsr (a2)                    ; fcn.00000009+0x2
        0x006c167c      dec7           adda.w d7, a7
        0x006c167e      4eb900404946   jsr p_wtln_o
     > 0x006c1684      4ebab1c2       jsr USER2_DISK.close_gate(pc)
         0x006c1688      554f           subq.w 0x2, a7
         0x006c168a      2f39008551a0   move.l 0x8551a0, -(a7)
         0x006c1690      2f390085519c   move.l 0x85519c, -(a7)
         0x006c1696      3f13           move.w (a3), -(a7)
         0x006c1698      2f3a8ea4       move.l 0x6ba53e(pc), -(a7)
         0x006c169c      2f3a8e9c       move.l 0x6ba53a(pc), -(a7)
         0x006c16a0      3f3a8e96       move.w 0x6ba538(pc), -(a7)
         0x006c16a4      4eb9005ef3d2   jsr F2_UTILITY.f_fids_eq
         0x006c16aa      dec4           adda.w d4, a7
         0x006c16ac      4a1f           tst.b (a7)+
     < 0x006c16ae      6614           bne.b 0x6c16c4
        0x006c16b0      487a9e29       pea.l 0x6bb4db(pc)
        0x006c16b4      48780013       pea.l 0x13
        0x006c16b8      2f17           move.l (a7), -(a7)
        0x006c16ba      4e92           jsr (a2)                    ; fcn.00000009+0x2
        0x006c16bc      dec2           adda.w d2, a7
        0x006c16be      4eb900404946   jsr p_wtln_o
     > 0x006c16c4      2694           move.l (a4), (a3)
         0x006c16c6      23eefffa0085.  move.l -0x6(a6), 0x85519e.l
         0x006c16ce      33eefffe0085.  move.w -0x2(a6), 0x8551a2.l
     > 0x006c16d6      4ebab202       jsr USER2_DISK.open_gate(pc)
    < 0x006c16da      600000c4       bra.w 0x6c17a0
    > 0x006c16de      102e0008       move.b 0x8(a6), d0
        0x006c16e2      b003           cmp.b d3, d0
    < 0x006c16e4      667a           bne.b 0x6c1760
       0x006c16e6      4ebab160       jsr USER2_DISK.close_gate(pc)
       0x006c16ea      554f           subq.w 0x2, a7
       0x006c16ec      2f2efffc       move.l -0x4(a6), -(a7)
       0x006c16f0      2f2efff8       move.l -0x8(a6), -(a7)
       0x006c16f4      3f14           move.w (a4), -(a7)
       0x006c16f6      4eb900605066   jsr F9_FILERDWRT.f_delete
       0x006c16fc      dec6           adda.w d6, a7
       0x006c16fe      4a1f           tst.b (a7)+
   < 0x006c1700      671a           beq.b 0x6c171c
      0x006c1702      26ba8e34       move.l 0x6ba538(pc), (a3)
      0x006c1706      23fa8e340085.  move.l 0x6ba53c(pc), 0x85519e.l
      0x006c170e      33fa8e300085.  move.w 0x6ba540(pc), 0x8551a2.l
      0x006c1716      1d43000a       move.b d3, 0xa(a6)
   < 0x006c171a      60ba           bra.b 0x6c16d6
   > 0x006c171c      9ec5           suba.w d5, a7
        0x006c171e      4854           pea.l (a4)
        0x006c1720      4eb9005ef416   jsr F2_UTILITY.f_fid_string
        0x006c1726      584f           addq.w 0x4, a7
        0x006c1728      487a9dc5       pea.l 0x6bb4ef(pc)
        0x006c172c      4878001d       pea.l 0x1d
        0x006c1730      2f17           move.l (a7), -(a7)
        0x006c1732      4e92           jsr (a2)                    ; fcn.00000009+0x2
        0x006c1734      dec2           adda.w d2, a7
        0x006c1736      486f0001       pea.l 0x1(a7)
        0x006c173a      42a7           clr.l -(a7)
        0x006c173c      1f6f00080003   move.b 0x8(a7), 0x3(a7)
        0x006c1742      2f17           move.l (a7), -(a7)
        0x006c1744      4e92           jsr (a2)                    ; fcn.00000009+0x2
        0x006c1746      dec7           adda.w d7, a7
        0x006c1748      4eb900404946   jsr p_wtln_o
        0x006c174e      4ebab18a       jsr USER2_DISK.open_gate(pc)
        0x006c1752      486effac       pea.l -0x54(a6)
        0x006c1756      4eb900404468   jsr fcn.00404468
        0x006c175c      584f           addq.w 0x4, a7
    < 0x006c175e      6040           bra.b 0x6c17a0
    > 0x006c1760      0c000002       cmpi.b 0x2, d0
    < 0x006c1764      6626           bne.b 0x6c178c
       0x006c1766      9ec5           suba.w d5, a7
       0x006c1768      204f           movea.l a7, a0
       0x006c176a      43fa9da0       lea.l 0x6bb50c(pc), a1
       0x006c176e      7205           moveq 0x5, d1
   > 0x006c1770      20d9           move.l (a1)+, (a0)+
   < 0x006c1772      51c9fffc       dbra d1, 0x6c1770
       0x006c1776      30d9           move.w (a1)+, (a0)+
       0x006c1778      10d9           move.b (a1)+, (a0)+
       0x006c177a      41eeffac       lea.l -0x54(a6), a0
       0x006c177e      2f08           move.l a0, -(a7)
       0x006c1780      4eb900408e0e   jsr p_error
       0x006c1786      defc0104       adda.w 0x104, a7
   < 0x006c178a      6014           bra.b 0x6c17a0
   > 0x006c178c      487a9d9a       pea.l 0x6bb528(pc)
       0x006c1790      4878001a       pea.l 0x1a
       0x006c1794      2f17           move.l (a7), -(a7)
       0x006c1796      4e92           jsr (a2)                    ; fcn.00000009+0x2
       0x006c1798      dec2           adda.w d2, a7
       0x006c179a      4eb900404946   jsr p_wtln_o
   > 0x006c17a0      1d43000a       move.b d3, 0xa(a6)
      < 0x006c17a4      603e           bra.b 0x6c17e4
      > 0x006c17a6      487a9d9b       pea.l 0x6bb543(pc)
          0x006c17aa      48780011       pea.l 0x11
          0x006c17ae      2f17           move.l (a7), -(a7)
          0x006c17b0      4e92           jsr (a2)                    ; fcn.00000009+0x2
          0x006c17b2      dec2           adda.w d2, a7
          0x006c17b4      4eb900404946   jsr p_wtln_o
          0x006c17ba      9ec5           suba.w d5, a7
          0x006c17bc      4eb900408ec0   jsr p_err_string
          0x006c17c2      486f0001       pea.l 0x1(a7)
          0x006c17c6      42a7           clr.l -(a7)
          0x006c17c8      1f6f00080003   move.b 0x8(a7), 0x3(a7)
          0x006c17ce      2f17           move.l (a7), -(a7)
          0x006c17d0      4e92           jsr (a2)                    ; fcn.00000009+0x2
          0x006c17d2      dec7           adda.w d7, a7
          0x006c17d4      4eb900404946   jsr p_wtln_o
          0x006c17da      4eb900404188   jsr p_Unlink
          0x006c17e0      422e000a       clr.b 0xa(a6)
      > 0x006c17e4      1f03           move.b d3, -(a7)
           0x006c17e6      4eb9006b96f2   jsr USER1_UTILS.aux_stack_check
           0x006c17ec      544f           addq.w 0x2, a7
           0x006c17ee      4cdf1fff       movem.l (a7)+, d0-d7/a0-a4
           0x006c17f2      4e5e           unlk a6
           0x006c17f4      4e75           rts
            ; XREFS: CALL 0x006c19c4  CALL 0x006c23bc  CALL 0x006c2444  
            ; XREFS: CALL 0x006c24d2  CALL 0x006c255c  CALL 0x006c25e4  
 318: USER2_DISK.find_next ();
           ; var int32_t var_8h @ a7+0x8
           ; var int32_t var_ch @ a7+0xc
           0x006c17f6      4e56fecc       link.w a6, 0xfecc
           0x006c17fa      bfd5           cmpa.l (a5), a7
       < 0x006c17fc      6206           bhi.b 0x6c1804
          0x006c17fe      44fc0002       move.w 0x2, ccr
          0x006c1802      4e76           trapv
       > 0x006c1804      defc0130       adda.w 0x130, a7
           0x006c1808      48e7e1e0       movem.l d0-d2/d7/a0-a2, -(a7)
           0x006c180c      43f9004047ea   lea.l p_wts_o, a1
           0x006c1812      45f900404946   lea.l p_wtln_o, a2
           0x006c1818      720c           moveq 0xc, d1
           0x006c181a      7401           moveq 0x1, d2
           0x006c181c      206e0008       movea.l 0x8(a6), a0
           0x006c1820      554f           subq.w 0x2, a7
           0x006c1822      4850           pea.l (a0)
           0x006c1824      3f2e010c       move.w 0x10c(a6), -(a7)
           0x006c1828      3f2e010c       move.w 0x10c(a6), -(a7)
           0x006c182c      1f02           move.b d2, -(a7)
           0x006c182e      486efffc       pea.l -0x4(a6)
           0x006c1832      4eb900607986   jsr F10_FILELIST.f_find_file
           0x006c1838      defc000e       adda.w 0xe, a7
           0x006c183c      101f           move.b (a7)+, d0
           0x006c183e      4880           ext.w d0
           0x006c1840      4182           chk.w d2, d0
           0x006c1842      1e00           move.b d0, d7
       < 0x006c1844      6766           beq.b 0x6c18ac
          0x006c1846      554f           subq.w 0x2, a7
          0x006c1848      4eb9006ba3c2   jsr USER1_UTILS.udebug_on
          0x006c184e      4a1f           tst.b (a7)+
      < 0x006c1850      670000d8       beq.w 0x6c192a
         0x006c1854      9efc0100       suba.w 0x100, a7
         0x006c1858      4850           pea.l (a0)
         0x006c185a      4eb9005ef416   jsr F2_UTILITY.f_fid_string
         0x006c1860      584f           addq.w 0x4, a7
         0x006c1862      487a9cf1       pea.l 0x6bb555(pc)
         0x006c1866      48780006       pea.l 0x6
         0x006c186a      2f17           move.l (a7), -(a7)
         0x006c186c      4e91           jsr (a1)                    ; fcn.0000000a
         0x006c186e      dec1           adda.w d1, a7
         0x006c1870      486e000d       pea.l 0xd(a6)
         0x006c1874      42a7           clr.l -(a7)
         0x006c1876      1f6e000c0003   move.b 0xc(a6), 0x3(a7)
         0x006c187c      2f17           move.l (a7), -(a7)
         0x006c187e      4e91           jsr (a1)                    ; fcn.0000000a
         0x006c1880      dec1           adda.w d1, a7
         0x006c1882      487a9cd8       pea.l 0x6bb55c(pc)
         0x006c1886      48780006       pea.l 0x6
         0x006c188a      2f17           move.l (a7), -(a7)
         0x006c188c      4e91           jsr (a1)                    ; fcn.0000000a
         0x006c188e      dec1           adda.w d1, a7
         0x006c1890      486f0001       pea.l 0x1(a7)
         0x006c1894      42a7           clr.l -(a7)
         0x006c1896      1f6f00080003   move.b 0x8(a7), 0x3(a7)
         0x006c189c      2f17           move.l (a7), -(a7)
         0x006c189e      4e91           jsr (a1)                    ; fcn.0000000a
         0x006c18a0      defc010c       adda.w 0x10c, a7
     > 0x006c18a4      4e92           jsr (a2)                    ; fcn.00000009+0x2
    < 0x006c18a6      60000082       bra.w 0x6c192a
    < 0x006c18aa      607e           bra.b 0x6c192a              ; USER2_DISK.find_next+0x134
   > 0x006c18ac      554f           subq.w 0x2, a7
       0x006c18ae      4eb9005ef980   jsr F2_UTILITY.f_eof
       0x006c18b4      4a1f           tst.b (a7)+
   < 0x006c18b6      671c           beq.b 0x6c18d4
      0x006c18b8      554f           subq.w 0x2, a7
      0x006c18ba      4eb9006ba3c2   jsr USER1_UTILS.udebug_on
      0x006c18c0      4a1f           tst.b (a7)+
  < 0x006c18c2      6766           beq.b 0x6c192a
     0x006c18c4      487a9c9d       pea.l 0x6bb563(pc)
     0x006c18c8      4878000d       pea.l 0xd
     0x006c18cc      2f17           move.l (a7), -(a7)
     0x006c18ce      4e91           jsr (a1)                    ; fcn.0000000a
     0x006c18d0      dec1           adda.w d1, a7
  < 0x006c18d2      60d0           bra.b 0x6c18a4
   > 0x006c18d4      487a9c9b       pea.l 0x6bb571(pc)
       0x006c18d8      48780015       pea.l 0x15
       0x006c18dc      2f17           move.l (a7), -(a7)
       0x006c18de      4e91           jsr (a1)                    ; fcn.0000000a
       0x006c18e0      dec1           adda.w d1, a7
       0x006c18e2      486e000d       pea.l 0xd(a6)
       0x006c18e6      42a7           clr.l -(a7)
       0x006c18e8      1f6e000c0003   move.b 0xc(a6), 0x3(a7)
       0x006c18ee      2f17           move.l (a7), -(a7)
       0x006c18f0      4e91           jsr (a1)                    ; fcn.0000000a
       0x006c18f2      dec1           adda.w d1, a7
       0x006c18f4      487a9c91       pea.l 0x6bb587(pc)
       0x006c18f8      48780007       pea.l 0x7
       0x006c18fc      2f17           move.l (a7), -(a7)
       0x006c18fe      4e91           jsr (a1)                    ; fcn.0000000a
       0x006c1900      dec1           adda.w d1, a7
       0x006c1902      4e92           jsr (a2)                    ; fcn.00000009+0x2
       0x006c1904      9efc0100       suba.w 0x100, a7
       0x006c1908      4eb900408ec0   jsr p_err_string
       0x006c190e      486f0001       pea.l 0x1(a7)
       0x006c1912      42a7           clr.l -(a7)
       0x006c1914      1f6f00080003   move.b 0x8(a7), 0x3(a7)
       0x006c191a      2f17           move.l (a7), -(a7)
       0x006c191c      4e91           jsr (a1)                    ; fcn.0000000a
       0x006c191e      defc010c       adda.w 0x10c, a7
       0x006c1922      4e92           jsr (a2)                    ; fcn.00000009+0x2
       0x006c1924      4eb900404188   jsr p_Unlink
  > 0x006c192a      1d47010e       move.b d7, 0x10e(a6)
           0x006c192e      4cdf0787       movem.l (a7)+, d0-d2/d7/a0-a2
           0x006c1932      4e5e           unlk a6
           0x006c1934      4e75           rts
            ; CALL XREFS from USER2_DISK.ntab_restore @ 0x6c2b2c, 0x6c2b54, 0x6c2b72
 598: USER2_DISK.find_and_delete (int32_t arg_4h);
           ; arg int32_t arg_4h @ a6+0x4
           ; var int32_t var_8h @ a7+0x8
           0x006c1936      4e56feac       link.w a6, 0xfeac
           0x006c193a      bfd5           cmpa.l (a5), a7
       < 0x006c193c      6206           bhi.b 0x6c1944
          0x006c193e      44fc0002       move.w 0x2, ccr
          0x006c1942      4e76           trapv
       > 0x006c1944      defc0130       adda.w 0x130, a7
           0x006c1948      48e7f0f0       movem.l d0-d3/a0-a3, -(a7)
           0x006c194c      45f9004047ea   lea.l p_wts_o, a2
           0x006c1952      47f900404946   lea.l p_wtln_o, a3
           0x006c1958      720c           moveq 0xc, d1
           0x006c195a      343c0100       move.w 0x100, d2
           0x006c195e      760a           moveq 0xa, d3
           0x006c1960      487a9c2d       pea.l 0x6bb58f(pc)
           0x006c1964      48780019       pea.l 0x19
           0x006c1968      2f17           move.l (a7), -(a7)
           0x006c196a      4e92           jsr (a2)                    ; fcn.00000009+0x2
           0x006c196c      dec1           adda.w d1, a7
           0x006c196e      486e0009       pea.l 0x9(a6)
           0x006c1972      42a7           clr.l -(a7)
           0x006c1974      1f6e00080003   move.b 0x8(a6), 0x3(a7)
           0x006c197a      2f17           move.l (a7), -(a7)
           0x006c197c      4e92           jsr (a2)                    ; fcn.00000009+0x2
           0x006c197e      dec1           adda.w d1, a7
           0x006c1980      487a9c27       pea.l 0x6bb5a9(pc)
           0x006c1984      48780006       pea.l 0x6
           0x006c1988      2f17           move.l (a7), -(a7)
           0x006c198a      4e92           jsr (a2)                    ; fcn.00000009+0x2
           0x006c198c      dec1           adda.w d1, a7
           0x006c198e      4e93           jsr (a3)                    ; fcn.0000000c
           0x006c1990      2d6c0004fff6   move.l 0x4(a4), -0xa(a6)
           0x006c1996      2d7cffffffff.  move.l 0xffffffff, -0x6(a6)
           0x006c199e      426efffe       clr.w -0x2(a6)
           0x006c19a2      2d7cffff0001.  move.l 0xffff0001, -0x24(a6)
       > 0x006c19aa      554f           subq.w 0x2, a7
          0x006c19ac      3f2e0108       move.w 0x108(a6), -(a7)
          0x006c19b0      9ec2           suba.w d2, a7
          0x006c19b2      204f           movea.l a7, a0
          0x006c19b4      43ee0008       lea.l 0x8(a6), a1
          0x006c19b8      703f           moveq 0x3f, d0
      > 0x006c19ba      20d9           move.l (a1)+, (a0)+
      < 0x006c19bc      51c8fffc       dbra d0, 0x6c19ba
          0x006c19c0      486efff6       pea.l -0xa(a6)
          0x006c19c4      4ebafe30       jsr USER2_DISK.find_next(pc)
          0x006c19c8      defc0106       adda.w 0x106, a7
          0x006c19cc      4a1f           tst.b (a7)+
      < 0x006c19ce      670001b4       beq.w 0x6c1b84
         0x006c19d2      554f           subq.w 0x2, a7
         0x006c19d4      2f2efffc       move.l -0x4(a6), -(a7)
         0x006c19d8      2f2efff8       move.l -0x8(a6), -(a7)
         0x006c19dc      3f2efff6       move.w -0xa(a6), -(a7)
         0x006c19e0      4227           clr.b -(a7)
         0x006c19e2      486effdc       pea.l -0x24(a6)
         0x006c19e6      4eb9006082de   jsr F10_FILELIST.f_get_header
         0x006c19ec      defc0010       adda.w 0x10, a7
         0x006c19f0      4a1f           tst.b (a7)+
     < 0x006c19f2      6700014a       beq.w 0x6c1b3e
        0x006c19f6      9ec2           suba.w d2, a7
        0x006c19f8      3f3c0020       move.w 0x20, -(a7)
        0x006c19fc      2f2effdc       move.l -0x24(a6), -(a7)
        0x006c1a00      4eb9005eed64   jsr f_get_string
        0x006c1a06      5c4f           addq.w 0x6, a7
        0x006c1a08      4240           clr.w d0
        0x006c1a0a      1017           move.b (a7), d0
        0x006c1a0c      0c000014       cmpi.b 0x14, d0
    < 0x006c1a10      6302           bls.b 0x6c1a14
       0x006c1a12      7014           moveq 0x14, d0
    > 0x006c1a14      1d40ffe0       move.b d0, -0x20(a6)
        0x006c1a18      5300           subq.b 0x1, d0
    < 0x006c1a1a      650e           bcs.b 0x6c1a2a
       0x006c1a1c      41eeffe1       lea.l -0x1f(a6), a0
       0x006c1a20      43ef0001       lea.l 0x1(a7), a1
   > 0x006c1a24      10d9           move.b (a1)+, (a0)+
   < 0x006c1a26      51c8fffc       dbra d0, 0x6c1a24
    > 0x006c1a2a      dec2           adda.w d2, a7
        0x006c1a2c      486effdc       pea.l -0x24(a6)
        0x006c1a30      4eb90060500e   jsr F9_FILERDWRT.f_free_block
        0x006c1a36      584f           addq.w 0x4, a7
        0x006c1a38      487a9b76       pea.l 0x6bb5b0(pc)
        0x006c1a3c      48780012       pea.l 0x12
        0x006c1a40      2f17           move.l (a7), -(a7)
        0x006c1a42      4e92           jsr (a2)                    ; fcn.00000009+0x2
        0x006c1a44      dec1           adda.w d1, a7
        0x006c1a46      486effe1       pea.l -0x1f(a6)
        0x006c1a4a      42a7           clr.l -(a7)
        0x006c1a4c      1f6effe00003   move.b -0x20(a6), 0x3(a7)
        0x006c1a52      2f17           move.l (a7), -(a7)
        0x006c1a54      4e92           jsr (a2)                    ; fcn.00000009+0x2
        0x006c1a56      dec3           adda.w d3, a7
        0x006c1a58      1ebc002f       move.b 0x2f, (a7)
        0x006c1a5c      48780001       pea.l 0x1
        0x006c1a60      4eb9004048b4   jsr p_wtc_o
        0x006c1a66      5c4f           addq.w 0x6, a7
        0x006c1a68      4e93           jsr (a3)                    ; fcn.0000000c
        0x006c1a6a      554f           subq.w 0x2, a7
        0x006c1a6c      2f2efffc       move.l -0x4(a6), -(a7)
        0x006c1a70      2f2efff8       move.l -0x8(a6), -(a7)
        0x006c1a74      3f2efff6       move.w -0xa(a6), -(a7)
        0x006c1a78      4eb900605066   jsr F9_FILERDWRT.f_delete
        0x006c1a7e      dec3           adda.w d3, a7
        0x006c1a80      4a1f           tst.b (a7)+
    < 0x006c1a82      6756           beq.b 0x6c1ada
       0x006c1a84      9ec2           suba.w d2, a7
       0x006c1a86      486efff6       pea.l -0xa(a6)
       0x006c1a8a      4eb9005ef416   jsr F2_UTILITY.f_fid_string
       0x006c1a90      584f           addq.w 0x4, a7
       0x006c1a92      487a9b2f       pea.l 0x6bb5c3(pc)
       0x006c1a96      4878000a       pea.l 0xa
       0x006c1a9a      2f17           move.l (a7), -(a7)
       0x006c1a9c      4e92           jsr (a2)                    ; fcn.00000009+0x2
       0x006c1a9e      dec1           adda.w d1, a7
       0x006c1aa0      486e0009       pea.l 0x9(a6)
       0x006c1aa4      42a7           clr.l -(a7)
       0x006c1aa6      1f6e00080003   move.b 0x8(a6), 0x3(a7)
       0x006c1aac      2f17           move.l (a7), -(a7)
       0x006c1aae      4e92           jsr (a2)                    ; fcn.00000009+0x2
       0x006c1ab0      dec1           adda.w d1, a7
       0x006c1ab2      487a9b1a       pea.l 0x6bb5ce(pc)
       0x006c1ab6      48780006       pea.l 0x6
       0x006c1aba      2f17           move.l (a7), -(a7)
       0x006c1abc      4e92           jsr (a2)                    ; fcn.00000009+0x2
       0x006c1abe      dec1           adda.w d1, a7
       0x006c1ac0      486f0001       pea.l 0x1(a7)
       0x006c1ac4      42a7           clr.l -(a7)
       0x006c1ac6      1f6f00080003   move.b 0x8(a7), 0x3(a7)
       0x006c1acc      2f17           move.l (a7), -(a7)
       0x006c1ace      4e92           jsr (a2)                    ; fcn.00000009+0x2
       0x006c1ad0      defc010c       adda.w 0x10c, a7
       0x006c1ad4      4e93           jsr (a3)                    ; fcn.0000000c
   < 0x006c1ad6      600000a8       bra.w 0x6c1b80
   > 0x006c1ada      9ec2           suba.w d2, a7
       0x006c1adc      486efff6       pea.l -0xa(a6)
       0x006c1ae0      4eb9005ef416   jsr F2_UTILITY.f_fid_string
       0x006c1ae6      584f           addq.w 0x4, a7
       0x006c1ae8      487a9aeb       pea.l 0x6bb5d5(pc)
       0x006c1aec      4878000f       pea.l 0xf
       0x006c1af0      2f17           move.l (a7), -(a7)
       0x006c1af2      4e92           jsr (a2)                    ; fcn.00000009+0x2
       0x006c1af4      dec1           adda.w d1, a7
       0x006c1af6      486e0009       pea.l 0x9(a6)
       0x006c1afa      42a7           clr.l -(a7)
       0x006c1afc      1f6e00080003   move.b 0x8(a6), 0x3(a7)
       0x006c1b02      2f17           move.l (a7), -(a7)
       0x006c1b04      4e92           jsr (a2)                    ; fcn.00000009+0x2
       0x006c1b06      dec1           adda.w d1, a7
       0x006c1b08      487a9adb       pea.l 0x6bb5e5(pc)
       0x006c1b0c      48780006       pea.l 0x6
       0x006c1b10      2f17           move.l (a7), -(a7)
       0x006c1b12      4e92           jsr (a2)                    ; fcn.00000009+0x2
       0x006c1b14      dec1           adda.w d1, a7
       0x006c1b16      486f0001       pea.l 0x1(a7)
       0x006c1b1a      42a7           clr.l -(a7)
       0x006c1b1c      1f6f00080003   move.b 0x8(a7), 0x3(a7)
       0x006c1b22      2f17           move.l (a7), -(a7)
       0x006c1b24      4e92           jsr (a2)                    ; fcn.00000009+0x2
       0x006c1b26      defc010a       adda.w 0x10a, a7
       0x006c1b2a      1ebc003a       move.b 0x3a, (a7)
       0x006c1b2e      48780001       pea.l 0x1
       0x006c1b32      4eb9004048b4   jsr p_wtc_o
       0x006c1b38      5c4f           addq.w 0x6, a7
       0x006c1b3a      4e93           jsr (a3)                    ; fcn.0000000c
   < 0x006c1b3c      601e           bra.b 0x6c1b5c
   > 0x006c1b3e      487a9aac       pea.l 0x6bb5ec(pc)
       0x006c1b42      4878001c       pea.l 0x1c
       0x006c1b46      2f17           move.l (a7), -(a7)
       0x006c1b48      4e92           jsr (a2)                    ; fcn.00000009+0x2
       0x006c1b4a      dec1           adda.w d1, a7
       0x006c1b4c      4e93           jsr (a3)                    ; fcn.0000000c
       0x006c1b4e      487a9ab9       pea.l 0x6bb609(pc)
       0x006c1b52      48780021       pea.l 0x21
       0x006c1b56      2f17           move.l (a7), -(a7)
       0x006c1b58      4e92           jsr (a2)                    ; fcn.00000009+0x2
       0x006c1b5a      dec1           adda.w d1, a7
   > 0x006c1b5c      9ec2           suba.w d2, a7
        0x006c1b5e      4eb900408ec0   jsr p_err_string
        0x006c1b64      486f0001       pea.l 0x1(a7)
        0x006c1b68      42a7           clr.l -(a7)
        0x006c1b6a      1f6f00080003   move.b 0x8(a7), 0x3(a7)
        0x006c1b70      2f17           move.l (a7), -(a7)
        0x006c1b72      4e92           jsr (a2)                    ; fcn.00000009+0x2
        0x006c1b74      defc010c       adda.w 0x10c, a7
        0x006c1b78      4e93           jsr (a3)                    ; fcn.0000000c
        0x006c1b7a      4eb900404188   jsr p_Unlink
   < 0x006c1b80      6000fe28       bra.w 0x6c19aa
      > 0x006c1b84      4cdf0f0f       movem.l (a7)+, d0-d3/a0-a3
           0x006c1b88      4e5e           unlk a6
           0x006c1b8a      4e75           rts
            ; CALL XREFS from USER2_DISK.scan_volume @ 0x6c23d4, 0x6c245c, 0x6c24ea, 0x6c2572, 0x6c25fc
 618: USER2_DISK.read_and_set_it ();
           ; var int32_t var_8h @ a7+0x8
           0x006c1b8c      4e56fdae       link.w a6, 0xfdae
           0x006c1b90      bfd5           cmpa.l (a5), a7
       < 0x006c1b92      6206           bhi.b 0x6c1b9a
          0x006c1b94      44fc0002       move.w 0x2, ccr
          0x006c1b98      4e76           trapv
       > 0x006c1b9a      defc014c       adda.w 0x14c, a7
           0x006c1b9e      48e7fff0       movem.l d0-d7/a0-a3, -(a7)
           0x006c1ba2      45f9004047ea   lea.l p_wts_o, a2
           0x006c1ba8      47ec0068       lea.l 0x68(a4), a3
           0x006c1bac      740c           moveq 0xc, d2
           0x006c1bae      3a3c0100       move.w 0x100, d5
           0x006c1bb2      297cffff0001.  move.l 0xffff0001, 0x28(a4)
           0x006c1bba      36bcffff       move.w 0xffff, (a3)
           0x006c1bbe      554f           subq.w 0x2, a7
           0x006c1bc0      2f2e0010       move.l 0x10(a6), -(a7)
           0x006c1bc4      2f2e000c       move.l 0xc(a6), -(a7)
           0x006c1bc8      3f2e000a       move.w 0xa(a6), -(a7)
           0x006c1bcc      4227           clr.b -(a7)
           0x006c1bce      486c0028       pea.l 0x28(a4)
           0x006c1bd2      4eb9006082de   jsr F10_FILELIST.f_get_header
           0x006c1bd8      defc0010       adda.w 0x10, a7
           0x006c1bdc      4a1f           tst.b (a7)+
       < 0x006c1bde      6644           bne.b 0x6c1c24
          0x006c1be0      422c0027       clr.b 0x27(a4)
          0x006c1be4      487a9a45       pea.l 0x6bb62b(pc)
          0x006c1be8      48780027       pea.l 0x27
          0x006c1bec      2f17           move.l (a7), -(a7)
          0x006c1bee      4e92           jsr (a2)                    ; fcn.00000009+0x2
          0x006c1bf0      dec2           adda.w d2, a7
          0x006c1bf2      4eb900404946   jsr p_wtln_o
          0x006c1bf8      9ec5           suba.w d5, a7
          0x006c1bfa      4eb900408ec0   jsr p_err_string
          0x006c1c00      486f0001       pea.l 0x1(a7)
          0x006c1c04      42a7           clr.l -(a7)
          0x006c1c06      1f6f00080003   move.b 0x8(a7), 0x3(a7)
          0x006c1c0c      2f17           move.l (a7), -(a7)
          0x006c1c0e      4e92           jsr (a2)                    ; fcn.00000009+0x2
          0x006c1c10      defc010c       adda.w 0x10c, a7
          0x006c1c14      4eb900404946   jsr p_wtln_o
          0x006c1c1a      4eb900404188   jsr p_Unlink
      < 0x006c1c20      6000070a       bra.w loc.006c232c
      > 0x006c1c24      9ec5           suba.w d5, a7
          0x006c1c26      3f3c0014       move.w 0x14, -(a7)
          0x006c1c2a      2f2c0028       move.l 0x28(a4), -(a7)
          0x006c1c2e      4eb9005eed64   jsr f_get_string
          0x006c1c34      5c4f           addq.w 0x6, a7
          0x006c1c36      41eefefb       lea.l -0x105(a6), a0
          0x006c1c3a      224f           movea.l a7, a1
          0x006c1c3c      303c00ff       move.w 0xff, d0
      > 0x006c1c40      10d9           move.b (a1)+, (a0)+
      < 0x006c1c42      51c8fffc       dbra d0, 0x6c1c40
          0x006c1c46      dec5           adda.w d5, a7
          0x006c1c48      7e01           moveq 0x1, d7
      > 0x006c1c4a      2007           move.l d7, d0
         0x006c1c4c      5380           subq.l 0x1, d0
         0x006c1c4e      0c8000000004   cmpi.l 0x4, d0
     < 0x006c1c54      6302           bls.b 0x6c1c58
        0x006c1c56      4e4f           trap 0xf
     > 0x006c1c58      2800           move.l d0, d4
         0x006c1c5a      760c           moveq 0xc, d3
         0x006c1c5c      4eb900406a74   jsr fcn.00406a74
         0x006c1c62      39bcffff482c   move.w 0xffff, 0x2c(a4, d4.l)
         0x006c1c68      5287           addq.l 0x1, d7
         0x006c1c6a      0c8700000005   cmpi.l 0x5, d7
      < 0x006c1c70      6fd8           ble.b 0x6c1c4a
          0x006c1c72      554f           subq.w 0x2, a7
          0x006c1c74      3f3c0020       move.w 0x20, -(a7)
          0x006c1c78      2f2c0028       move.l 0x28(a4), -(a7)
          0x006c1c7c      41ec002c       lea.l 0x2c(a4), a0
          0x006c1c80      2f08           move.l a0, -(a7)
          0x006c1c82      3f3cffc4       move.w 0xffc4, -(a7)
          0x006c1c86      4eb9005eed1e   jsr f_get_field
          0x006c1c8c      dec2           adda.w d2, a7
          0x006c1c8e      4a1f           tst.b (a7)+
          0x006c1c90      486c0028       pea.l 0x28(a4)
          0x006c1c94      4eb90060500e   jsr F9_FILERDWRT.f_free_block
          0x006c1c9a      584f           addq.w 0x4, a7
          0x006c1c9c      7e05           moveq 0x5, d7
      > 0x006c1c9e      2007           move.l d7, d0
         0x006c1ca0      5380           subq.l 0x1, d0
         0x006c1ca2      0c8000000004   cmpi.l 0x4, d0
     < 0x006c1ca8      6302           bls.b 0x6c1cac
        0x006c1caa      4e4f           trap 0xf
     > 0x006c1cac      2800           move.l d0, d4
         0x006c1cae      760c           moveq 0xc, d3
         0x006c1cb0      4eb900406a74   jsr fcn.00406a74
         0x006c1cb6      3034482c       move.w 0x2c(a4, d4.l), d0
         0x006c1cba      48c0           ext.l d0
         0x006c1cbc      0c800000ffff   cmpi.l 0xffff, d0
     < 0x006c1cc2      67000086       beq.w 0x6c1d4a
        0x006c1cc6      4281           clr.l d1
        0x006c1cc8      3213           move.w (a3), d1
        0x006c1cca      0c810000ffff   cmpi.l 0xffff, d1
    < 0x006c1cd0      676e           beq.b 0x6c1d40
       0x006c1cd2      9ec5           suba.w d5, a7
       0x006c1cd4      486e000a       pea.l 0xa(a6)
       0x006c1cd8      4eb9005ef416   jsr F2_UTILITY.f_fid_string
       0x006c1cde      584f           addq.w 0x4, a7
       0x006c1ce0      487a9971       pea.l 0x6bb653(pc)
       0x006c1ce4      48780022       pea.l 0x22
       0x006c1ce8      2f17           move.l (a7), -(a7)
       0x006c1cea      4e92           jsr (a2)                    ; fcn.00000009+0x2
       0x006c1cec      dec2           adda.w d2, a7
       0x006c1cee      486f0001       pea.l 0x1(a7)
       0x006c1cf2      42a7           clr.l -(a7)
       0x006c1cf4      1f6f00080003   move.b 0x8(a7), 0x3(a7)
       0x006c1cfa      2f17           move.l (a7), -(a7)
       0x006c1cfc      4e92           jsr (a2)                    ; fcn.00000009+0x2
       0x006c1cfe      defc010c       adda.w 0x10c, a7
       0x006c1d02      487a9972       pea.l 0x6bb676(pc)
       0x006c1d06      4878000f       pea.l 0xf
       0x006c1d0a      2f17           move.l (a7), -(a7)
       0x006c1d0c      4e92           jsr (a2)                    ; fcn.00000009+0x2
       0x006c1d0e      504f           addq.w 0x8, a7
       0x006c1d10      2e81           move.l d1, (a7)
       0x006c1d12      48780000       pea.l 0x0
       0x006c1d16      4eb9004070e4   jsr p_wti_o
       0x006c1d1c      504f           addq.w 0x8, a7
       0x006c1d1e      487a9966       pea.l 0x6bb686(pc)
       0x006c1d22      48780005       pea.l 0x5
       0x006c1d26      2f17           move.l (a7), -(a7)
       0x006c1d28      4e92           jsr (a2)                    ; fcn.00000009+0x2
       0x006c1d2a      504f           addq.w 0x8, a7
       0x006c1d2c      2e80           move.l d0, (a7)
       0x006c1d2e      48780000       pea.l 0x0
       0x006c1d32      4eb9004070e4   jsr p_wti_o
       0x006c1d38      504f           addq.w 0x8, a7
       0x006c1d3a      4eb900404946   jsr p_wtln_o
    > 0x006c1d40      0c40ffff       cmpi.w 0xffff, d0
    < 0x006c1d44      6302           bls.b 0x6c1d48
       0x006c1d46      4e4f           trap 0xf
    > 0x006c1d48      3680           move.w d0, (a3)
     > 0x006c1d4a      5387           subq.l 0x1, d7
         0x006c1d4c      4a87           tst.l d7
      < 0x006c1d4e      6e00ff4e       bgt.w 0x6c1c9e
          0x006c1d52      554f           subq.w 0x2, a7
          0x006c1d54      4eb9006ba3c2   jsr USER1_UTILS.udebug_on
          0x006c1d5a      4a1f           tst.b (a7)+
      < 0x006c1d5c      676e           beq.b 0x6c1dcc
         0x006c1d5e      4280           clr.l d0
         0x006c1d60      3013           move.w (a3), d0
         0x006c1d62      0c800000ffff   cmpi.l 0xffff, d0
     < 0x006c1d68      6610           bne.b 0x6c1d7a
        0x006c1d6a      487a9920       pea.l 0x6bb68c(pc)
        0x006c1d6e      4878000f       pea.l 0xf
        0x006c1d72      2f17           move.l (a7), -(a7)
        0x006c1d74      4e92           jsr (a2)                    ; fcn.00000009+0x2
        0x006c1d76      dec2           adda.w d2, a7
    < 0x006c1d78      604c           bra.b 0x6c1dc6
    > 0x006c1d7a      9ec5           suba.w d5, a7
        0x006c1d7c      486e000a       pea.l 0xa(a6)
        0x006c1d80      4eb9005ef416   jsr F2_UTILITY.f_fid_string
        0x006c1d86      584f           addq.w 0x4, a7
        0x006c1d88      487a9912       pea.l 0x6bb69c(pc)
        0x006c1d8c      4878000d       pea.l 0xd
        0x006c1d90      2f17           move.l (a7), -(a7)
        0x006c1d92      4e92           jsr (a2)                    ; fcn.00000009+0x2
        0x006c1d94      504f           addq.w 0x8, a7
        0x006c1d96      2e80           move.l d0, (a7)
        0x006c1d98      4878000c       pea.l 0xc
        0x006c1d9c      4eb9004070e4   jsr p_wti_o
        0x006c1da2      504f           addq.w 0x8, a7
        0x006c1da4      487a9904       pea.l 0x6bb6aa(pc)
        0x006c1da8      4878000a       pea.l 0xa
        0x006c1dac      2f17           move.l (a7), -(a7)
        0x006c1dae      4e92           jsr (a2)                    ; fcn.00000009+0x2
        0x006c1db0      dec2           adda.w d2, a7
        0x006c1db2      486f0001       pea.l 0x1(a7)
        0x006c1db6      42a7           clr.l -(a7)
        0x006c1db8      1f6f00080003   move.b 0x8(a7), 0x3(a7)
        0x006c1dbe      2f17           move.l (a7), -(a7)
        0x006c1dc0      4e92           jsr (a2)                    ; fcn.00000009+0x2
        0x006c1dc2      defc010c       adda.w 0x10c, a7
    > 0x006c1dc6      4eb900404946   jsr p_wtln_o
      > 0x006c1dcc      4280           clr.l d0
          0x006c1dce      3013           move.w (a3), d0
          0x006c1dd0      0c800000ffff   cmpi.l 0xffff, d0
      < 0x006c1dd6      6700051e       beq.w 0x6c22f6
         0x006c1dda      7c00           moveq 0x0, d6
         0x006c1ddc      122e0008       move.b 0x8(a6), d1
         0x006c1de0      4881           ext.w d1
         0x006c1de2      5341           subq.w 0x1, d1
         0x006c1de4      0c410008       cmpi.w 0x8, d1
     < 0x006c1de8      6200034c       bhi.w 0x6c2136
        0x006c1dec      d241           add.w d1, d1
        0x006c1dee      323b1006       move.w 0x6c1df6(pc, d1.w), d1
        0x006c1df2      4efb1002       jmp 0x6c1df6(pc, d1.w)
         0x006c1df6      001201b2       ori.b 0xb2, (a2)
         0x006c1dfa      00120340       ori.b 0x40, (a2)
         0x006c1dfe      0340           bchg.b d1, d0
         0x006c1e00      00120340       ori.b 0x40, (a2)
         0x006c1e04      0340           bchg.b d1, d0
         0x006c1e06      00124aac       ori.b 0xac, (a2)
         0x006c1e0a      022a673a2800   andi.b 0x3a, 0x2800(a2)
         0x006c1e10      263c000003e8   move.l 0x3e8, d3
         0x006c1e16      4eb900406b50   jsr fcn.00406b50
         0x006c1e1c      3683           move.w d3, (a3)
         0x006c1e1e      3f03           move.w d3, -(a7)
         0x006c1e20      282c021e       move.l 0x21e(a4), d4
         0x006c1e24      263c000003e8   move.l 0x3e8, d3
         0x006c1e2a      4eb900406a74   jsr fcn.00406a74
         0x006c1e30      3217           move.w (a7), d1
         0x006c1e32      02810000ffff   andi.l 0xffff, d1
         0x006c1e38      d881           add.l d1, d4
         0x006c1e3a      544f           addq.w 0x2, a7
         0x006c1e3c      0c840000ffff   cmpi.l 0xffff, d4
     < 0x006c1e42      6302           bls.b 0x6c1e46
        0x006c1e44      4e4f           trap 0xf
     > 0x006c1e46      3684           move.w d4, (a3)
         0x006c1e48      554f           subq.w 0x2, a7
         0x006c1e4a      1f3c0001       move.b 0x1, -(a7)
         0x006c1e4e      4853           pea.l (a3)
         0x006c1e50      1f3c0001       move.b 0x1, -(a7)
         0x006c1e54      2f2c022e       move.l 0x22e(a4), -(a7)
         0x006c1e58      1f3c0001       move.b 0x1, -(a7)
         0x006c1e5c      486e000a       pea.l 0xa(a6)
         0x006c1e60      4eb9006b0530   jsr USER.get_pnum
         0x006c1e66      defc0012       adda.w 0x12, a7
         0x006c1e6a      4a1f           tst.b (a7)+
     < 0x006c1e6c      6776           beq.b 0x6c1ee4
        0x006c1e6e      554f           subq.w 0x2, a7
        0x006c1e70      4eb9006ba3c2   jsr USER1_UTILS.udebug_on
        0x006c1e76      4a1f           tst.b (a7)+
    < 0x006c1e78      6764           beq.b 0x6c1ede
       0x006c1e7a      9ec5           suba.w d5, a7
       0x006c1e7c      486e000a       pea.l 0xa(a6)
       0x006c1e80      4eb9005ef416   jsr F2_UTILITY.f_fid_string
       0x006c1e86      584f           addq.w 0x4, a7
       0x006c1e88      487a982b       pea.l 0x6bb6b5(pc)
       0x006c1e8c      48780013       pea.l 0x13
       0x006c1e90      2f17           move.l (a7), -(a7)
       0x006c1e92      4e92           jsr (a2)                    ; fcn.00000009+0x2
       0x006c1e94      dec2           adda.w d2, a7
       0x006c1e96      4281           clr.l d1
       0x006c1e98      3213           move.w (a3), d1
       0x006c1e9a      2f01           move.l d1, -(a7)
       0x006c1e9c      48780000       pea.l 0x0
       0x006c1ea0      4eb9004070e4   jsr p_wti_o
       0x006c1ea6      504f           addq.w 0x8, a7
       0x006c1ea8      487a981f       pea.l 0x6bb6c9(pc)
       0x006c1eac      4878000a       pea.l 0xa
       0x006c1eb0      2f17           move.l (a7), -(a7)
       0x006c1eb2      4e92           jsr (a2)                    ; fcn.00000009+0x2
       0x006c1eb4      dec2           adda.w d2, a7
       0x006c1eb6      486f0001       pea.l 0x1(a7)
       0x006c1eba      42a7           clr.l -(a7)
       0x006c1ebc      1f6f00080003   move.b 0x8(a7), 0x3(a7)
       0x006c1ec2      2f17           move.l (a7), -(a7)
       0x006c1ec4      4e92           jsr (a2)                    ; fcn.00000009+0x2
       0x006c1ec6      defc010c       adda.w 0x10c, a7
       0x006c1eca      487a9808       pea.l 0x6bb6d4(pc)
       0x006c1ece      48780009       pea.l 0x9
       0x006c1ed2      2f17           move.l (a7), -(a7)
       0x006c1ed4      4e92           jsr (a2)                    ; fcn.00000009+0x2
       0x006c1ed6      dec2           adda.w d2, a7
       0x006c1ed8      4eb900404946   jsr p_wtln_o
    > 0x006c1ede      7c01           moveq 0x1, d6
    < 0x006c1ee0      600000a6       bra.w 0x6c1f88
    > 0x006c1ee4      9ec5           suba.w d5, a7
        0x006c1ee6      486e000a       pea.l 0xa(a6)
        0x006c1eea      4eb9005ef416   jsr F2_UTILITY.f_fid_string
        0x006c1ef0      584f           addq.w 0x4, a7
        0x006c1ef2      487a97ea       pea.l 0x6bb6de(pc)
        0x006c1ef6      48780017       pea.l 0x17
        0x006c1efa      2f17           move.l (a7), -(a7)
        0x006c1efc      4e92           jsr (a2)                    ; fcn.00000009+0x2
        0x006c1efe      dec2           adda.w d2, a7
        0x006c1f00      4281           clr.l d1
        0x006c1f02      3213           move.w (a3), d1
        0x006c1f04      2f01           move.l d1, -(a7)
        0x006c1f06      48780000       pea.l 0x0
        0x006c1f0a      4eb9004070e4   jsr p_wti_o
        0x006c1f10      504f           addq.w 0x8, a7
        0x006c1f12      487a97e2       pea.l 0x6bb6f6(pc)
        0x006c1f16      48780017       pea.l 0x17
        0x006c1f1a      2f17           move.l (a7), -(a7)
        0x006c1f1c      4e92           jsr (a2)                    ; fcn.00000009+0x2
        0x006c1f1e      dec2           adda.w d2, a7
        0x006c1f20      486f0001       pea.l 0x1(a7)
        0x006c1f24      42a7           clr.l -(a7)
        0x006c1f26      1f6f00080003   move.b 0x8(a7), 0x3(a7)
        0x006c1f2c      2f17           move.l (a7), -(a7)
        0x006c1f2e      4e92           jsr (a2)                    ; fcn.00000009+0x2
        0x006c1f30      defc010c       adda.w 0x10c, a7
        0x006c1f34      4eb900404946   jsr p_wtln_o
        0x006c1f3a      487a97d2       pea.l 0x6bb70e(pc)
        0x006c1f3e      4878000e       pea.l 0xe
        0x006c1f42      2f17           move.l (a7), -(a7)
        0x006c1f44      4e92           jsr (a2)                    ; fcn.00000009+0x2
        0x006c1f46      dec2           adda.w d2, a7
        0x006c1f48      486efefc       pea.l -0x104(a6)
        0x006c1f4c      42a7           clr.l -(a7)
        0x006c1f4e      1f6efefb0003   move.b -0x105(a6), 0x3(a7)
        0x006c1f54      2f17           move.l (a7), -(a7)
        0x006c1f56      4e92           jsr (a2)                    ; fcn.00000009+0x2
        0x006c1f58      dec2           adda.w d2, a7
        0x006c1f5a      4eb900404946   jsr p_wtln_o
        0x006c1f60      9ec5           suba.w d5, a7
        0x006c1f62      4eb900408ec0   jsr p_err_string
        0x006c1f68      486f0001       pea.l 0x1(a7)
        0x006c1f6c      42a7           clr.l -(a7)
        0x006c1f6e      1f6f00080003   move.b 0x8(a7), 0x3(a7)
        0x006c1f74      2f17           move.l (a7), -(a7)
        0x006c1f76      4e92           jsr (a2)                    ; fcn.00000009+0x2
        0x006c1f78      defc010c       adda.w 0x10c, a7
        0x006c1f7c      4eb900404946   jsr p_wtln_o
        0x006c1f82      4eb900404188   jsr p_Unlink
    > 0x006c1f88      4aac022a       tst.l 0x22a(a4)
     < 0x006c1f8c      6716           beq.b 0x6c1fa4
        0x006c1f8e      3813           move.w (a3), d4
        0x006c1f90      02840000ffff   andi.l 0xffff, d4
        0x006c1f96      263c000003e8   move.l 0x3e8, d3
        0x006c1f9c      4eb900406b50   jsr fcn.00406b50
        0x006c1fa2      3683           move.w d3, (a3)
    > 0x006c1fa4      60000192       bra.w 0x6c2138
        0x006c1fa8      4aac022a       tst.l 0x22a(a4)
    < 0x006c1fac      6732           beq.b 0x6c1fe0
       0x006c1fae      2800           move.l d0, d4
       0x006c1fb0      7664           moveq 0x64, d3
       0x006c1fb2      4eb900406b50   jsr fcn.00406b50
       0x006c1fb8      3683           move.w d3, (a3)
       0x006c1fba      3f03           move.w d3, -(a7)
       0x006c1fbc      282c021e       move.l 0x21e(a4), d4
       0x006c1fc0      7664           moveq 0x64, d3
       0x006c1fc2      4eb900406a74   jsr fcn.00406a74
       0x006c1fc8      3217           move.w (a7), d1
       0x006c1fca      02810000ffff   andi.l 0xffff, d1
       0x006c1fd0      d881           add.l d1, d4
       0x006c1fd2      544f           addq.w 0x2, a7
       0x006c1fd4      0c840000ffff   cmpi.l 0xffff, d4
   < 0x006c1fda      6302           bls.b 0x6c1fde
      0x006c1fdc      4e4f           trap 0xf
   > 0x006c1fde      3684           move.w d4, (a3)
    > 0x006c1fe0      554f           subq.w 0x2, a7
        0x006c1fe2      1f3c0001       move.b 0x1, -(a7)
        0x006c1fe6      4853           pea.l (a3)
        0x006c1fe8      1f3c0001       move.b 0x1, -(a7)
        0x006c1fec      2f2c022e       move.l 0x22e(a4), -(a7)
        0x006c1ff0      486e000a       pea.l 0xa(a6)
        0x006c1ff4      4eb9006b05ba   jsr USER.get_snum
        0x006c1ffa      defc0010       adda.w 0x10, a7
        0x006c1ffe      4a1f           tst.b (a7)+
    < 0x006c2000      6776           beq.b 0x6c2078
       0x006c2002      554f           subq.w 0x2, a7
       0x006c2004      4eb9006ba3c2   jsr USER1_UTILS.udebug_on
       0x006c200a      4a1f           tst.b (a7)+
   < 0x006c200c      6764           beq.b 0x6c2072
      0x006c200e      9ec5           suba.w d5, a7
      0x006c2010      486e000a       pea.l 0xa(a6)
      0x006c2014      4eb9005ef416   jsr F2_UTILITY.f_fid_string
      0x006c201a      584f           addq.w 0x4, a7
      0x006c201c      487a96ff       pea.l 0x6bb71d(pc)
      0x006c2020      48780011       pea.l 0x11
      0x006c2024      2f17           move.l (a7), -(a7)
      0x006c2026      4e92           jsr (a2)                    ; fcn.00000009+0x2
      0x006c2028      dec2           adda.w d2, a7
      0x006c202a      4281           clr.l d1
      0x006c202c      3213           move.w (a3), d1
      0x006c202e      2f01           move.l d1, -(a7)
      0x006c2030      48780000       pea.l 0x0
      0x006c2034      4eb9004070e4   jsr p_wti_o
      0x006c203a      504f           addq.w 0x8, a7
      0x006c203c      487a96f1       pea.l 0x6bb72f(pc)
      0x006c2040      4878000a       pea.l 0xa
      0x006c2044      2f17           move.l (a7), -(a7)
      0x006c2046      4e92           jsr (a2)                    ; fcn.00000009+0x2
      0x006c2048      dec2           adda.w d2, a7
      0x006c204a      486f0001       pea.l 0x1(a7)
      0x006c204e      42a7           clr.l -(a7)
      0x006c2050      1f6f00080003   move.b 0x8(a7), 0x3(a7)
      0x006c2056      2f17           move.l (a7), -(a7)
      0x006c2058      4e92           jsr (a2)                    ; fcn.00000009+0x2
      0x006c205a      defc010c       adda.w 0x10c, a7
      0x006c205e      487a96da       pea.l 0x6bb73a(pc)
      0x006c2062      48780009       pea.l 0x9
      0x006c2066      2f17           move.l (a7), -(a7)
      0x006c2068      4e92           jsr (a2)                    ; fcn.00000009+0x2
      0x006c206a      dec2           adda.w d2, a7
      0x006c206c      4eb900404946   jsr p_wtln_o
   > 0x006c2072      7c01           moveq 0x1, d6
   < 0x006c2074      600000a6       bra.w 0x6c211c
   > 0x006c2078      9ec5           suba.w d5, a7
       0x006c207a      486e000a       pea.l 0xa(a6)
       0x006c207e      4eb9005ef416   jsr F2_UTILITY.f_fid_string
       0x006c2084      584f           addq.w 0x4, a7
       0x006c2086      487a96bc       pea.l 0x6bb744(pc)
       0x006c208a      48780017       pea.l 0x17
       0x006c208e      2f17           move.l (a7), -(a7)
       0x006c2090      4e92           jsr (a2)                    ; fcn.00000009+0x2
       0x006c2092      dec2           adda.w d2, a7
       0x006c2094      4281           clr.l d1
       0x006c2096      3213           move.w (a3), d1
       0x006c2098      2f01           move.l d1, -(a7)
       0x006c209a      48780000       pea.l 0x0
       0x006c209e      4eb9004070e4   jsr p_wti_o
       0x006c20a4      504f           addq.w 0x8, a7
       0x006c20a6      487a96b4       pea.l 0x6bb75c(pc)
       0x006c20aa      48780019       pea.l 0x19
       0x006c20ae      2f17           move.l (a7), -(a7)
       0x006c20b0      4e92           jsr (a2)                    ; fcn.00000009+0x2
       0x006c20b2      dec2           adda.w d2, a7
       0x006c20b4      486f0001       pea.l 0x1(a7)
       0x006c20b8      42a7           clr.l -(a7)
       0x006c20ba      1f6f00080003   move.b 0x8(a7), 0x3(a7)
       0x006c20c0      2f17           move.l (a7), -(a7)
       0x006c20c2      4e92           jsr (a2)                    ; fcn.00000009+0x2
       0x006c20c4      defc010c       adda.w 0x10c, a7
       0x006c20c8      4eb900404946   jsr p_wtln_o
       0x006c20ce      487a96a6       pea.l 0x6bb776(pc)
       0x006c20d2      4878000e       pea.l 0xe
       0x006c20d6      2f17           move.l (a7), -(a7)
       0x006c20d8      4e92           jsr (a2)                    ; fcn.00000009+0x2
       0x006c20da      dec2           adda.w d2, a7
       0x006c20dc      486efefc       pea.l -0x104(a6)
       0x006c20e0      42a7           clr.l -(a7)
       0x006c20e2      1f6efefb0003   move.b -0x105(a6), 0x3(a7)
       0x006c20e8      2f17           move.l (a7), -(a7)
       0x006c20ea      4e92           jsr (a2)                    ; fcn.00000009+0x2
       0x006c20ec      dec2           adda.w d2, a7
       0x006c20ee      4eb900404946   jsr p_wtln_o
       0x006c20f4      9ec5           suba.w d5, a7
       0x006c20f6      4eb900408ec0   jsr p_err_string
       0x006c20fc      486f0001       pea.l 0x1(a7)
       0x006c2100      42a7           clr.l -(a7)
       0x006c2102      1f6f00080003   move.b 0x8(a7), 0x3(a7)
       0x006c2108      2f17           move.l (a7), -(a7)
       0x006c210a      4e92           jsr (a2)                    ; fcn.00000009+0x2
       0x006c210c      defc010c       adda.w 0x10c, a7
       0x006c2110      4eb900404946   jsr p_wtln_o
       0x006c2116      4eb900404188   jsr p_Unlink
   > 0x006c211c      4aac022a       tst.l 0x22a(a4)
    < 0x006c2120      6712           beq.b 0x6c2134
       0x006c2122      3813           move.w (a3), d4
       0x006c2124      02840000ffff   andi.l 0xffff, d4
       0x006c212a      7664           moveq 0x64, d3
       0x006c212c      4eb900406b50   jsr fcn.00406b50
       0x006c2132      3683           move.w d3, (a3)
   > 0x006c2134      6002           bra.b 0x6c2138
    > 0x006c2136      7c00           moveq 0x0, d6
   > 0x006c2138      7e01           moveq 0x1, d7
      > 0x006c213a      2207           move.l d7, d1
         0x006c213c      5381           subq.l 0x1, d1
         0x006c213e      0c8100000004   cmpi.l 0x4, d1
     < 0x006c2144      6302           bls.b 0x6c2148
        0x006c2146      4e4f           trap 0xf
     > 0x006c2148      2801           move.l d1, d4
         0x006c214a      760c           moveq 0xc, d3
         0x006c214c      4eb900406a74   jsr fcn.00406a74
         0x006c2152      39bcffff482c   move.w 0xffff, 0x2c(a4, d4.l)
         0x006c2158      5287           addq.l 0x1, d7
         0x006c215a      0c8700000005   cmpi.l 0x5, d7
      < 0x006c2160      6fd8           ble.b 0x6c213a
          0x006c2162      4a06           tst.b d6
      < 0x006c2164      6730           beq.b 0x6c2196
         0x006c2166      4281           clr.l d1
         0x006c2168      3213           move.w (a3), d1
         0x006c216a      0481ffff8000   subi.l 0xffff8000, d1
         0x006c2170      0c810000ffff   cmpi.l 0xffff, d1
     < 0x006c2176      6302           bls.b 0x6c217a
        0x006c2178      4e4f           trap 0xf
     > 0x006c217a      0681ffff8000   addi.l 0xffff8000, d1
         0x006c2180      3941002c       move.w d1, 0x2c(a4)
         0x006c2184      296c001c002e   move.l 0x1c(a4), 0x2e(a4)
         0x006c218a      296c00200032   move.l 0x20(a4), 0x32(a4)
         0x006c2190      396c00240036   move.w 0x24(a4), 0x36(a4)
      > 0x006c2196      4a06           tst.b d6
      < 0x006c2198      6700013a       beq.w 0x6c22d4
         0x006c219c      554f           subq.w 0x2, a7
         0x006c219e      2f2e0010       move.l 0x10(a6), -(a7)
         0x006c21a2      2f2e000c       move.l 0xc(a6), -(a7)
         0x006c21a6      3f2e000a       move.w 0xa(a6), -(a7)
         0x006c21aa      1f3c0001       move.b 0x1, -(a7)
         0x006c21ae      486c0028       pea.l 0x28(a4)
         0x006c21b2      4eb9006082de   jsr F10_FILELIST.f_get_header
         0x006c21b8      defc0010       adda.w 0x10, a7
         0x006c21bc      4a1f           tst.b (a7)+
     < 0x006c21be      670000dc       beq.w 0x6c229c
        0x006c21c2      554f           subq.w 0x2, a7
        0x006c21c4      3f3c0020       move.w 0x20, -(a7)
        0x006c21c8      2f2c0028       move.l 0x28(a4), -(a7)
        0x006c21cc      41ec002c       lea.l 0x2c(a4), a0
        0x006c21d0      2f08           move.l a0, -(a7)
        0x006c21d2      3f3c003c       move.w 0x3c, -(a7)
        0x006c21d6      4eb9005eed96   jsr f_put_field
        0x006c21dc      dec2           adda.w d2, a7
        0x006c21de      4a1f           tst.b (a7)+
    < 0x006c21e0      6774           beq.b 0x6c2256
       0x006c21e2      554f           subq.w 0x2, a7
       0x006c21e4      4eb9006ba3c2   jsr USER1_UTILS.udebug_on
       0x006c21ea      4a1f           tst.b (a7)+
   < 0x006c21ec      670000a0       beq.w 0x6c228e
      0x006c21f0      9ec5           suba.w d5, a7
      0x006c21f2      486e000a       pea.l 0xa(a6)
      0x006c21f6      4eb9005ef416   jsr F2_UTILITY.f_fid_string
      0x006c21fc      584f           addq.w 0x4, a7
      0x006c21fe      487a9585       pea.l 0x6bb785(pc)
      0x006c2202      4878000b       pea.l 0xb
      0x006c2206      2f17           move.l (a7), -(a7)
      0x006c2208      4e92           jsr (a2)                    ; fcn.00000009+0x2
      0x006c220a      dec2           adda.w d2, a7
      0x006c220c      4281           clr.l d1
      0x006c220e      3213           move.w (a3), d1
      0x006c2210      2f01           move.l d1, -(a7)
      0x006c2212      48780000       pea.l 0x0
      0x006c2216      4eb9004070e4   jsr p_wti_o
      0x006c221c      504f           addq.w 0x8, a7
      0x006c221e      487a9571       pea.l 0x6bb791(pc)
      0x006c2222      4878000a       pea.l 0xa
      0x006c2226      2f17           move.l (a7), -(a7)
      0x006c2228      4e92           jsr (a2)                    ; fcn.00000009+0x2
      0x006c222a      dec2           adda.w d2, a7
      0x006c222c      486f0001       pea.l 0x1(a7)
      0x006c2230      42a7           clr.l -(a7)
      0x006c2232      1f6f00080003   move.b 0x8(a7), 0x3(a7)
      0x006c2238      2f17           move.l (a7), -(a7)
      0x006c223a      4e92           jsr (a2)                    ; fcn.00000009+0x2
      0x006c223c      defc010c       adda.w 0x10c, a7
      0x006c2240      487a955a       pea.l 0x6bb79c(pc)
      0x006c2244      4878000a       pea.l 0xa
      0x006c2248      2f17           move.l (a7), -(a7)
      0x006c224a      4e92           jsr (a2)                    ; fcn.00000009+0x2
      0x006c224c      dec2           adda.w d2, a7
      0x006c224e      4eb900404946   jsr p_wtln_o
  < 0x006c2254      6038           bra.b 0x6c228e
  > 0x006c2256      9ec5           suba.w d5, a7
      0x006c2258      486e000a       pea.l 0xa(a6)
      0x006c225c      4eb9005ef416   jsr F2_UTILITY.f_fid_string
      0x006c2262      584f           addq.w 0x4, a7
      0x006c2264      487a9541       pea.l 0x6bb7a7(pc)
      0x006c2268      48780029       pea.l 0x29
      0x006c226c      2f17           move.l (a7), -(a7)
      0x006c226e      4e92           jsr (a2)                    ; fcn.00000009+0x2
      0x006c2270      dec2           adda.w d2, a7
      0x006c2272      486f0001       pea.l 0x1(a7)
      0x006c2276      42a7           clr.l -(a7)
      0x006c2278      1f6f00080003   move.b 0x8(a7), 0x3(a7)
      0x006c227e      2f17           move.l (a7), -(a7)
      0x006c2280      4e92           jsr (a2)                    ; fcn.00000009+0x2
      0x006c2282      defc010c       adda.w 0x10c, a7
      0x006c2286      4eb900404946   jsr p_wtln_o
      0x006c228c      7c00           moveq 0x0, d6
      ; CODE XREF from USER2_DISK @ +0x7d1c
  > 0x006c228e      486c0028       pea.l 0x28(a4)
        0x006c2292      4eb90060500e   jsr F9_FILERDWRT.f_free_block
        0x006c2298      584f           addq.w 0x4, a7
    < 0x006c229a      6038           bra.b 0x6c22d4
    > 0x006c229c      7c00           moveq 0x0, d6
        0x006c229e      9ec5           suba.w d5, a7
        0x006c22a0      486e000a       pea.l 0xa(a6)
        0x006c22a4      4eb9005ef416   jsr F2_UTILITY.f_fid_string
        0x006c22aa      584f           addq.w 0x4, a7
        0x006c22ac      487a9523       pea.l 0x6bb7d1(pc)
        0x006c22b0      48780037       pea.l 0x37
        0x006c22b4      2f17           move.l (a7), -(a7)
        0x006c22b6      4e92           jsr (a2)                    ; fcn.00000009+0x2
        0x006c22b8      dec2           adda.w d2, a7
        0x006c22ba      486f0001       pea.l 0x1(a7)
        0x006c22be      42a7           clr.l -(a7)
        0x006c22c0      1f6f00080003   move.b 0x8(a7), 0x3(a7)
        0x006c22c6      2f17           move.l (a7), -(a7)
        0x006c22c8      4e92           jsr (a2)                    ; fcn.00000009+0x2
        0x006c22ca      defc010c       adda.w 0x10c, a7
        0x006c22ce      4eb900404946   jsr p_wtln_o
        ; CODE XREF from USER2_DISK @ +0x7d62
    > 0x006c22d4      4a06           tst.b d6
      < 0x006c22d6      6718           beq.b 0x6c22f0
         0x006c22d8      52ac006a       addq.l 0x1, 0x6a(a4)
         0x006c22dc      4281           clr.l d1
         0x006c22de      3213           move.w (a3), d1
         0x006c22e0      2f01           move.l d1, -(a7)
         0x006c22e2      48780004       pea.l 0x4
         0x006c22e6      4eb9004070e4   jsr p_wti_o
         0x006c22ec      504f           addq.w 0x8, a7
     < 0x006c22ee      6014           bra.b 0x6c2304
     > 0x006c22f0      487a9517       pea.l 0x6bb809(pc)
     < 0x006c22f4      6004           bra.b 0x6c22fa
     > 0x006c22f6      487a9516       pea.l 0x6bb80e(pc)
         ; CODE XREF from USER2_DISK @ +0x7dbc
     > 0x006c22fa      48780004       pea.l 0x4
          0x006c22fe      2f17           move.l (a7), -(a7)
          0x006c2300      4e92           jsr (a2)                    ; fcn.00000009+0x2
          0x006c2302      dec2           adda.w d2, a7
          ; CODE XREF from USER2_DISK @ +0x7db6
     > 0x006c2304      1f3c003a       move.b 0x3a, -(a7)
           0x006c2308      48780001       pea.l 0x1
           0x006c230c      4eb9004048b4   jsr p_wtc_o
           0x006c2312      5c4f           addq.w 0x6, a7
           0x006c2314      486efefc       pea.l -0x104(a6)
           0x006c2318      42a7           clr.l -(a7)
           0x006c231a      1f6efefb0003   move.b -0x105(a6), 0x3(a7)
           0x006c2320      2f17           move.l (a7), -(a7)
           0x006c2322      4e92           jsr (a2)                    ; fcn.00000009+0x2
           0x006c2324      dec2           adda.w d2, a7
           0x006c2326      4eb900404946   jsr p_wtln_o
           ; CODE XREF from USER2_DISK.read_and_set_it @ 0x6c1c20
 8: loc.006c232c ();
      > 0x006c232c      4cdf0fff       movem.l (a7)+, d0-d7/a0-a3
           0x006c2330      4e5e           unlk a6
           0x006c2332      4e75           rts
            ; CALL XREFS from USER2_DISK.ntab_restore @ 0x6c2d62, 0x6c2d76
 740: USER2_DISK.scan_volume ();
           0x006c2334      4e56fec6       link.w a6, 0xfec6
           0x006c2338      bfd5           cmpa.l (a5), a7
       < 0x006c233a      6206           bhi.b 0x6c2342
          0x006c233c      44fc0002       move.w 0x2, ccr
          0x006c2340      4e76           trapv
       > 0x006c2342      defc0130       adda.w 0x130, a7
           0x006c2346      48e7f8f0       movem.l d0-d4/a0-a3, -(a7)
           0x006c234a      45eefff6       lea.l -0xa(a6), a2
           0x006c234e      47ee0008       lea.l 0x8(a6), a3
           0x006c2352      720c           moveq 0xc, d1
           0x006c2354      74ff           moveq 0xff, d2
           0x006c2356      363c0106       move.w 0x106, d3
           0x006c235a      383c0100       move.w 0x100, d4
           0x006c235e      2493           move.l (a3), (a2)
           0x006c2360      2d42fffa       move.l d2, -0x6(a6)
           0x006c2364      426efffe       clr.w -0x2(a6)
           0x006c2368      487a94a9       pea.l 0x6bb813(pc)
           0x006c236c      48780010       pea.l 0x10
           0x006c2370      2f17           move.l (a7), -(a7)
           0x006c2372      4eb9004047ea   jsr p_wts_o
           0x006c2378      504f           addq.w 0x8, a7
           0x006c237a      2e93           move.l (a3), (a7)
           0x006c237c      4878ffff       pea.l 0xffff
           0x006c2380      4eb9004070e4   jsr p_wti_o
           0x006c2386      504f           addq.w 0x8, a7
           0x006c2388      487a949a       pea.l 0x6bb824(pc)
           0x006c238c      48780003       pea.l 0x3
           0x006c2390      2f17           move.l (a7), -(a7)
           0x006c2392      4eb9004047ea   jsr p_wts_o
           0x006c2398      dec1           adda.w d1, a7
           0x006c239a      4eb900404946   jsr p_wtln_o
           0x006c23a0      42ac006a       clr.l 0x6a(a4)
       > 0x006c23a4      554f           subq.w 0x2, a7
          0x006c23a6      3f3c012c       move.w 0x12c, -(a7)
          0x006c23aa      9ec4           suba.w d4, a7
          0x006c23ac      204f           movea.l a7, a0
          0x006c23ae      43fa9477       lea.l 0x6bb827(pc), a1
          0x006c23b2      7007           moveq 0x7, d0
      > 0x006c23b4      10d9           move.b (a1)+, (a0)+
      < 0x006c23b6      51c8fffc       dbra d0, 0x6c23b4
          0x006c23ba      4852           pea.l (a2)
          0x006c23bc      4ebaf438       jsr USER2_DISK.find_next(pc)
          0x006c23c0      dec3           adda.w d3, a7
          0x006c23c2      4a1f           tst.b (a7)+
      < 0x006c23c4      6716           beq.b 0x6c23dc
         0x006c23c6      2f2efffc       move.l -0x4(a6), -(a7)
         0x006c23ca      2f2efff8       move.l -0x8(a6), -(a7)
         0x006c23ce      3f12           move.w (a2), -(a7)
         0x006c23d0      1f3c0001       move.b 0x1, -(a7)
         0x006c23d4      4ebaf7b6       jsr USER2_DISK.read_and_set_it(pc)
         0x006c23d8      dec1           adda.w d1, a7
      < 0x006c23da      60c8           bra.b 0x6c23a4
      > 0x006c23dc      202c006e       move.l 0x6e(a4), d0
           0x006c23e0      d0ac006a       add.l 0x6a(a4), d0
           0x006c23e4      2940006e       move.l d0, 0x6e(a4)
           0x006c23e8      2493           move.l (a3), (a2)
           0x006c23ea      2d42fffa       move.l d2, -0x6(a6)
           0x006c23ee      426efffe       clr.w -0x2(a6)
           0x006c23f2      487a943c       pea.l 0x6bb830(pc)
           0x006c23f6      4878001c       pea.l 0x1c
           0x006c23fa      2f17           move.l (a7), -(a7)
           0x006c23fc      4eb9004047ea   jsr p_wts_o
           0x006c2402      504f           addq.w 0x8, a7
           0x006c2404      2e93           move.l (a3), (a7)
           0x006c2406      4878ffff       pea.l 0xffff
           0x006c240a      4eb9004070e4   jsr p_wti_o
           0x006c2410      504f           addq.w 0x8, a7
           0x006c2412      487a9439       pea.l 0x6bb84d(pc)
           0x006c2416      48780003       pea.l 0x3
           0x006c241a      2f17           move.l (a7), -(a7)
           0x006c241c      4eb9004047ea   jsr p_wts_o
           0x006c2422      dec1           adda.w d1, a7
           0x006c2424      4eb900404946   jsr p_wtln_o
           0x006c242a      42ac006a       clr.l 0x6a(a4)
       > 0x006c242e      554f           subq.w 0x2, a7
          0x006c2430      3f3c012d       move.w 0x12d, -(a7)
          0x006c2434      9efc00fc       suba.w 0xfc, a7
          0x006c2438      2f3a9416       move.l 0x6bb850(pc), -(a7)
          0x006c243c      2f7a94160004   move.l 0x6bb854(pc), 0x4(a7)
          0x006c2442      4852           pea.l (a2)
          0x006c2444      4ebaf3b0       jsr USER2_DISK.find_next(pc)
          0x006c2448      dec3           adda.w d3, a7
          0x006c244a      4a1f           tst.b (a7)+
      < 0x006c244c      6716           beq.b 0x6c2464
         0x006c244e      2f2efffc       move.l -0x4(a6), -(a7)
         0x006c2452      2f2efff8       move.l -0x8(a6), -(a7)
         0x006c2456      3f12           move.w (a2), -(a7)
         0x006c2458      1f3c0009       move.b 0x9, -(a7)
         0x006c245c      4ebaf72e       jsr USER2_DISK.read_and_set_it(pc)
         0x006c2460      dec1           adda.w d1, a7
      < 0x006c2462      60ca           bra.b 0x6c242e
      > 0x006c2464      202c0076       move.l 0x76(a4), d0
           0x006c2468      d0ac006a       add.l 0x6a(a4), d0
           0x006c246c      29400076       move.l d0, 0x76(a4)
           0x006c2470      2493           move.l (a3), (a2)
           0x006c2472      2d42fffa       move.l d2, -0x6(a6)
           0x006c2476      426efffe       clr.w -0x2(a6)
           0x006c247a      487a93dd       pea.l 0x6bb859(pc)
           0x006c247e      4878001b       pea.l 0x1b
           0x006c2482      2f17           move.l (a7), -(a7)
           0x006c2484      4eb9004047ea   jsr p_wts_o
           0x006c248a      504f           addq.w 0x8, a7
           0x006c248c      2e93           move.l (a3), (a7)
           0x006c248e      4878ffff       pea.l 0xffff
           0x006c2492      4eb9004070e4   jsr p_wti_o
           0x006c2498      504f           addq.w 0x8, a7
           0x006c249a      487a93d9       pea.l 0x6bb875(pc)
           0x006c249e      48780003       pea.l 0x3
           0x006c24a2      2f17           move.l (a7), -(a7)
           0x006c24a4      4eb9004047ea   jsr p_wts_o
           0x006c24aa      dec1           adda.w d1, a7
           0x006c24ac      4eb900404946   jsr p_wtln_o
           0x006c24b2      42ac006a       clr.l 0x6a(a4)
       > 0x006c24b6      554f           subq.w 0x2, a7
          0x006c24b8      3f3c012e       move.w 0x12e, -(a7)
          0x006c24bc      9efc00fc       suba.w 0xfc, a7
          0x006c24c0      2f3a93b6       move.l 0x6bb878(pc), -(a7)
          0x006c24c4      3f7a93b60004   move.w 0x6bb87c(pc), 0x4(a7)
          0x006c24ca      1f7a93b20006   move.b 0x6bb87e(pc), 0x6(a7)
          0x006c24d0      4852           pea.l (a2)
          0x006c24d2      4ebaf322       jsr USER2_DISK.find_next(pc)
          0x006c24d6      dec3           adda.w d3, a7
          0x006c24d8      4a1f           tst.b (a7)+
      < 0x006c24da      6716           beq.b 0x6c24f2
         0x006c24dc      2f2efffc       move.l -0x4(a6), -(a7)
         0x006c24e0      2f2efff8       move.l -0x8(a6), -(a7)
         0x006c24e4      3f12           move.w (a2), -(a7)
         0x006c24e6      1f3c0003       move.b 0x3, -(a7)
         0x006c24ea      4ebaf6a0       jsr USER2_DISK.read_and_set_it(pc)
         0x006c24ee      dec1           adda.w d1, a7
      < 0x006c24f0      60c4           bra.b 0x6c24b6
      > 0x006c24f2      202c0072       move.l 0x72(a4), d0
           0x006c24f6      d0ac006a       add.l 0x6a(a4), d0
           0x006c24fa      29400072       move.l d0, 0x72(a4)
           0x006c24fe      2493           move.l (a3), (a2)
           0x006c2500      2d42fffa       move.l d2, -0x6(a6)
           0x006c2504      426efffe       clr.w -0x2(a6)
           0x006c2508      487a9376       pea.l 0x6bb880(pc)
           0x006c250c      48780019       pea.l 0x19
           0x006c2510      2f17           move.l (a7), -(a7)
           0x006c2512      4eb9004047ea   jsr p_wts_o
           0x006c2518      504f           addq.w 0x8, a7
           0x006c251a      2e93           move.l (a3), (a7)
           0x006c251c      4878ffff       pea.l 0xffff
           0x006c2520      4eb9004070e4   jsr p_wti_o
           0x006c2526      504f           addq.w 0x8, a7
           0x006c2528      487a9370       pea.l 0x6bb89a(pc)
           0x006c252c      48780003       pea.l 0x3
           0x006c2530      2f17           move.l (a7), -(a7)
           0x006c2532      4eb9004047ea   jsr p_wts_o
           0x006c2538      dec1           adda.w d1, a7
           0x006c253a      4eb900404946   jsr p_wtln_o
           0x006c2540      42ac006a       clr.l 0x6a(a4)
       > 0x006c2544      554f           subq.w 0x2, a7
          0x006c2546      3f3c0258       move.w 0x258, -(a7)
          0x006c254a      9ec4           suba.w d4, a7
          0x006c254c      204f           movea.l a7, a0
          0x006c254e      43fa934d       lea.l 0x6bb89d(pc), a1
          0x006c2552      7004           moveq 0x4, d0
      > 0x006c2554      10d9           move.b (a1)+, (a0)+
      < 0x006c2556      51c8fffc       dbra d0, 0x6c2554
          0x006c255a      4852           pea.l (a2)
          0x006c255c      4ebaf298       jsr USER2_DISK.find_next(pc)
          0x006c2560      dec3           adda.w d3, a7
          0x006c2562      4a1f           tst.b (a7)+
      < 0x006c2564      6714           beq.b 0x6c257a
         0x006c2566      2f2efffc       move.l -0x4(a6), -(a7)
         0x006c256a      2f2efff8       move.l -0x8(a6), -(a7)
         0x006c256e      3f12           move.w (a2), -(a7)
         0x006c2570      1f03           move.b d3, -(a7)
         0x006c2572      4ebaf618       jsr USER2_DISK.read_and_set_it(pc)
         0x006c2576      dec1           adda.w d1, a7
      < 0x006c2578      60ca           bra.b 0x6c2544
      > 0x006c257a      202c007e       move.l 0x7e(a4), d0
           0x006c257e      d0ac006a       add.l 0x6a(a4), d0
           0x006c2582      2940007e       move.l d0, 0x7e(a4)
           0x006c2586      2493           move.l (a3), (a2)
           0x006c2588      2d42fffa       move.l d2, -0x6(a6)
           0x006c258c      426efffe       clr.w -0x2(a6)
           0x006c2590      487a9311       pea.l 0x6bb8a3(pc)
           0x006c2594      4878001a       pea.l 0x1a
           0x006c2598      2f17           move.l (a7), -(a7)
           0x006c259a      4eb9004047ea   jsr p_wts_o
           0x006c25a0      504f           addq.w 0x8, a7
           0x006c25a2      2e93           move.l (a3), (a7)
           0x006c25a4      4878ffff       pea.l 0xffff
           0x006c25a8      4eb9004070e4   jsr p_wti_o
           0x006c25ae      504f           addq.w 0x8, a7
           0x006c25b0      487a930c       pea.l 0x6bb8be(pc)
           0x006c25b4      48780003       pea.l 0x3
           0x006c25b8      2f17           move.l (a7), -(a7)
           0x006c25ba      4eb9004047ea   jsr p_wts_o
           0x006c25c0      dec1           adda.w d1, a7
           0x006c25c2      4eb900404946   jsr p_wtln_o
           0x006c25c8      42ac006a       clr.l 0x6a(a4)
       > 0x006c25cc      554f           subq.w 0x2, a7
          0x006c25ce      3f3c014a       move.w 0x14a, -(a7)
          0x006c25d2      9ec4           suba.w d4, a7
          0x006c25d4      204f           movea.l a7, a0
          0x006c25d6      43fa92e9       lea.l 0x6bb8c1(pc), a1
          0x006c25da      7005           moveq 0x5, d0
      > 0x006c25dc      10d9           move.b (a1)+, (a0)+
      < 0x006c25de      51c8fffc       dbra d0, 0x6c25dc
          0x006c25e2      4852           pea.l (a2)
          0x006c25e4      4ebaf210       jsr USER2_DISK.find_next(pc)
          0x006c25e8      dec3           adda.w d3, a7
          0x006c25ea      4a1f           tst.b (a7)+
      < 0x006c25ec      6716           beq.b 0x6c2604
         0x006c25ee      2f2efffc       move.l -0x4(a6), -(a7)
         0x006c25f2      2f2efff8       move.l -0x8(a6), -(a7)
         0x006c25f6      3f12           move.w (a2), -(a7)
         0x006c25f8      1f3c0002       move.b 0x2, -(a7)
         0x006c25fc      4ebaf58e       jsr USER2_DISK.read_and_set_it(pc)
         0x006c2600      dec1           adda.w d1, a7
      < 0x006c2602      60c8           bra.b 0x6c25cc
      > 0x006c2604      202c007a       move.l 0x7a(a4), d0
           0x006c2608      d0ac006a       add.l 0x6a(a4), d0
           0x006c260c      2940007a       move.l d0, 0x7a(a4)
           0x006c2610      4cdf0f1f       movem.l (a7)+, d0-d4/a0-a3
           0x006c2614      4e5e           unlk a6
           0x006c2616      4e75           rts
            ; CALL XREF from PANEL_CMDS.ntab_restore_co @ 0x787ece
 2140: USER2_DISK.ntab_restore (int32_t arg_4h, int32_t arg_8h);
           ; var int32_t var_20eh @ a6-0x20e
           ; arg int32_t arg_4h @ a6+0x4
           ; arg int32_t arg_8h @ a6+0x8
           ; var int32_t var_8h @ a7+0x8
           0x006c2618      4e56fc98       link.w a6, 0xfc98
           0x006c261c      bfd5           cmpa.l (a5), a7
       < 0x006c261e      6206           bhi.b 0x6c2626
          0x006c2620      44fc0002       move.w 0x2, ccr
          0x006c2624      4e76           trapv
       > 0x006c2626      defc0146       adda.w 0x146, a7
           0x006c262a      48e7fff8       movem.l d0-d7/a0-a4, -(a7)
           0x006c262e      45f9004047ea   lea.l p_wts_o, a2
           0x006c2634      47f900404946   lea.l p_wtln_o, a3
           0x006c263a      760c           moveq 0xc, d3
           0x006c263c      7801           moveq 0x1, d4
           0x006c263e      3a3c0100       move.w 0x100, d5
           0x006c2642      4aae0008       tst.l 0x8(a6)
       < 0x006c2646      660a           bne.b 0x6c2652
          0x006c2648      1f2e000c       move.b 0xc(a6), -(a7)
          0x006c264c      4ebaa2f6       jsr USER2_DISK.check_scope(pc)
          0x006c2650      544f           addq.w 0x2, a7
       > 0x006c2652      7e01           moveq 0x1, d7
           0x006c2654      42aefffc       clr.l -0x4(a6)
           0x006c2658      4ebaa1ee       jsr USER2_DISK.close_gate(pc)
           0x006c265c      4aae0008       tst.l 0x8(a6)
       < 0x006c2660      670001c2       beq.w 0x6c2824
          0x006c2664      9ec3           suba.w d3, a7
          0x006c2666      2f2e0008       move.l 0x8(a6), -(a7)
          0x006c266a      4eb9005fb748   jsr F6_VOLUME.f_vol_status
          0x006c2670      584f           addq.w 0x4, a7
          0x006c2672      2d5ffdee       move.l (a7)+, -0x212(a6)
          0x006c2676      2d5ffdf2       move.l (a7)+, -0x20e(a6)
          0x006c267a      2d5ffdf6       move.l (a7)+, -0x20a(a6)
          0x006c267e      2d6efdf2fdea   move.l -0x20e(a6), -0x216(a6)
          0x006c2684      594f           subq.w 0x4, a7
          0x006c2686      2f2efdea       move.l -0x216(a6), -(a7)
          0x006c268a      4ebab2d4       jsr USER2_DISK.drive_region(pc)
          0x006c268e      584f           addq.w 0x4, a7
          0x006c2690      2d5f000c       move.l (a7)+, 0xc(a6)
          0x006c2694      7e00           moveq 0x0, d7
          0x006c2696      202efdf6       move.l -0x20a(a6), d0
          0x006c269a      028000000004   andi.l 0x4, d0
      < 0x006c26a0      6702           beq.b 0x6c26a4
         0x006c26a2      5207           addq.b 0x1, d7
      > 0x006c26a4      4a07           tst.b d7
      < 0x006c26a6      6630           bne.b 0x6c26d8
         0x006c26a8      487a921e       pea.l 0x6bb8c8(pc)
         0x006c26ac      48780007       pea.l 0x7
         0x006c26b0      2f17           move.l (a7), -(a7)
         0x006c26b2      4e92           jsr (a2)                    ; fcn.00000009+0x2
         0x006c26b4      504f           addq.w 0x8, a7
         0x006c26b6      2eae0008       move.l 0x8(a6), (a7)
         0x006c26ba      4878ffff       pea.l 0xffff
         0x006c26be      4eb9004070e4   jsr p_wti_o
         0x006c26c4      504f           addq.w 0x8, a7
         0x006c26c6      487a9208       pea.l 0x6bb8d0(pc)
         0x006c26ca      48780014       pea.l 0x14
         0x006c26ce      2f17           move.l (a7), -(a7)
         0x006c26d0      4e92           jsr (a2)                    ; fcn.00000009+0x2
         0x006c26d2      dec3           adda.w d3, a7
         0x006c26d4      4e93           jsr (a3)                    ; fcn.0000000c
     < 0x006c26d6      600a           bra.b 0x6c26e2
     > 0x006c26d8      102efdee       move.b -0x212(a6), d0
         0x006c26dc      4880           ext.w d0
         0x006c26de      4184           chk.w d4, d0
         0x006c26e0      1e00           move.b d0, d7
     > 0x006c26e2      4a07           tst.b d7
      < 0x006c26e4      6612           bne.b 0x6c26f8
         0x006c26e6      487a91fd       pea.l 0x6bb8e5(pc)
         0x006c26ea      48780013       pea.l 0x13
         0x006c26ee      2f17           move.l (a7), -(a7)
         0x006c26f0      4e92           jsr (a2)                    ; fcn.00000009+0x2
         0x006c26f2      dec3           adda.w d3, a7
         0x006c26f4      4e93           jsr (a3)                    ; fcn.0000000c
     < 0x006c26f6      6040           bra.b 0x6c2738
     > 0x006c26f8      102e000c       move.b 0xc(a6), d0
         0x006c26fc      0c000002       cmpi.b 0x2, d0
     < 0x006c2700      6636           bne.b 0x6c2738
        0x006c2702      4280           clr.l d0
        0x006c2704      102e000e       move.b 0xe(a6), d0
        0x006c2708      5340           subq.w 0x1, d0
        0x006c270a      41bc001e       chk.w 0x1e, d0
        0x006c270e      c1fc007c       muls.w 0x7c, d0
        0x006c2712      4281           clr.l d1
        0x006c2714      122e000f       move.b 0xf(a6), d1
        0x006c2718      5341           subq.w 0x1, d1
        0x006c271a      43bc001e       chk.w 0x1e, d1
        0x006c271e      e541           asl.w 0x2, d1
        0x006c2720      41f90085519a   lea.l 0x85519a, a0
        0x006c2726      41f00000       lea.l (a0, d0.w), a0
        0x006c272a      41f01000       lea.l (a0, d1.w), a0
        0x006c272e      20680172       movea.l 0x172(a0), a0
        0x006c2732      b0c4           cmpa.w d4, a0
    < 0x006c2734      6602           bne.b 0x6c2738
       0x006c2736      7e00           moveq 0x0, d7
    > 0x006c2738      4a07           tst.b d7
      < 0x006c273a      6644           bne.b 0x6c2780
         0x006c273c      9ec5           suba.w d5, a7
         0x006c273e      3f2e000e       move.w 0xe(a6), -(a7)
         0x006c2742      4eb90066ea9c   jsr N10_UTILS.n_stn_str
         0x006c2748      544f           addq.w 0x2, a7
         0x006c274a      487a91ad       pea.l 0x6bb8f9(pc)
         0x006c274e      4878001a       pea.l 0x1a
         0x006c2752      2f17           move.l (a7), -(a7)
         0x006c2754      4e92           jsr (a2)                    ; fcn.00000009+0x2
         0x006c2756      dec3           adda.w d3, a7
         0x006c2758      486f0001       pea.l 0x1(a7)
         0x006c275c      42a7           clr.l -(a7)
         0x006c275e      1f6f00080003   move.b 0x8(a7), 0x3(a7)
         0x006c2764      2f17           move.l (a7), -(a7)
         0x006c2766      4e92           jsr (a2)                    ; fcn.00000009+0x2
         0x006c2768      defc010c       adda.w 0x10c, a7
         0x006c276c      487a91a6       pea.l 0x6bb914(pc)
         0x006c2770      48780006       pea.l 0x6
     > 0x006c2774      2f17           move.l (a7), -(a7)
        0x006c2776      4e92           jsr (a2)                    ; fcn.00000009+0x2
        0x006c2778      dec3           adda.w d3, a7
        0x006c277a      4e93           jsr (a3)                    ; fcn.0000000c
    < 0x006c277c      6000027c       bra.w 0x6c29fa
    > 0x006c2780      2d6e0008fde2   move.l 0x8(a6), -0x21e(a6)
        0x006c2786      4280           clr.l d0
        0x006c2788      102efdec       move.b -0x214(a6), d0
        0x006c278c      3d40fdde       move.w d0, -0x222(a6)
        0x006c2790      4280           clr.l d0
        0x006c2792      102efded       move.b -0x213(a6), d0
        0x006c2796      3d40fde0       move.w d0, -0x220(a6)
        0x006c279a      554f           subq.w 0x2, a7
        0x006c279c      2f2efde2       move.l -0x21e(a6), -(a7)
        0x006c27a0      4227           clr.b -(a7)
        0x006c27a2      4eb9005fbc62   jsr F6_VOLUME.f_accessible
        0x006c27a8      5c4f           addq.w 0x6, a7
        0x006c27aa      101f           move.b (a7)+, d0
        0x006c27ac      4880           ext.w d0
        0x006c27ae      4184           chk.w d4, d0
        0x006c27b0      1d40fde8       move.b d0, -0x218(a6)
        0x006c27b4      594f           subq.w 0x4, a7
        0x006c27b6      2f2efdea       move.l -0x216(a6), -(a7)
        0x006c27ba      2f2e000c       move.l 0xc(a6), -(a7)
        0x006c27be      4ebab79a       jsr USER2_DISK.drive_range(pc)
        0x006c27c2      504f           addq.w 0x8, a7
        0x006c27c4      2d57fffc       move.l (a7), -0x4(a6)
        0x006c27c8      9efc00fc       suba.w 0xfc, a7
        0x006c27cc      2f2e000c       move.l 0xc(a6), -(a7)
        0x006c27d0      4eb9006b8ed2   jsr USER1_UTILS.region_str
        0x006c27d6      584f           addq.w 0x4, a7
        0x006c27d8      487a9141       pea.l 0x6bb91b(pc)
        0x006c27dc      4878000a       pea.l 0xa
        0x006c27e0      2f17           move.l (a7), -(a7)
        0x006c27e2      4e92           jsr (a2)                    ; fcn.00000009+0x2
        0x006c27e4      dec3           adda.w d3, a7
        0x006c27e6      486f0001       pea.l 0x1(a7)
        0x006c27ea      42a7           clr.l -(a7)
        0x006c27ec      1f6f00080003   move.b 0x8(a7), 0x3(a7)
        0x006c27f2      2f17           move.l (a7), -(a7)
        0x006c27f4      4e92           jsr (a2)                    ; fcn.00000009+0x2
        0x006c27f6      defc010c       adda.w 0x10c, a7
        0x006c27fa      487a912a       pea.l 0x6bb926(pc)
        0x006c27fe      4878001b       pea.l 0x1b
        0x006c2802      2f17           move.l (a7), -(a7)
        0x006c2804      4e92           jsr (a2)                    ; fcn.00000009+0x2
        0x006c2806      504f           addq.w 0x8, a7
        0x006c2808      2eaefffc       move.l -0x4(a6), (a7)
        0x006c280c      48780001       pea.l 0x1
        0x006c2810      4eb9004070e4   jsr p_wti_o
        0x006c2816      504f           addq.w 0x8, a7
        0x006c2818      487a9128       pea.l 0x6bb942(pc)
        0x006c281c      48780003       pea.l 0x3
    < 0x006c2820      6000ff52       bra.w 0x6c2774
      > 0x006c2824      4a2e000c       tst.b 0xc(a6)
      < 0x006c2828      6646           bne.b 0x6c2870
         0x006c282a      487a911a       pea.l 0x6bb946(pc)
         0x006c282e      4878001f       pea.l 0x1f
         0x006c2832      2f17           move.l (a7), -(a7)
         0x006c2834      4e92           jsr (a2)                    ; fcn.00000009+0x2
         0x006c2836      dec3           adda.w d3, a7
         0x006c2838      4e93           jsr (a3)                    ; fcn.0000000c
         0x006c283a      2d79008551a8.  move.l 0x8551a8, -0x21e(a6)
         0x006c2842      3d79008551a6.  move.w 0x8551a6, -0x220(a6)
         0x006c284a      3d79008551a4.  move.w 0x8551a4, -0x222(a6)
         0x006c2852      554f           subq.w 0x2, a7
         0x006c2854      2f2efde2       move.l -0x21e(a6), -(a7)
         0x006c2858      4227           clr.b -(a7)
         0x006c285a      4eb9005fbc62   jsr F6_VOLUME.f_accessible
         0x006c2860      5c4f           addq.w 0x6, a7
         0x006c2862      101f           move.b (a7)+, d0
         0x006c2864      4880           ext.w d0
         0x006c2866      4184           chk.w d4, d0
         0x006c2868      1d40fde8       move.b d0, -0x218(a6)
     < 0x006c286c      6000018c       bra.w 0x6c29fa
     > 0x006c2870      102e000c       move.b 0xc(a6), d0
         0x006c2874      b004           cmp.b d4, d0
     < 0x006c2876      6646           bne.b 0x6c28be
        0x006c2878      487a90ec       pea.l 0x6bb966(pc)
        0x006c287c      4878001d       pea.l 0x1d
        0x006c2880      2f17           move.l (a7), -(a7)
        0x006c2882      4e92           jsr (a2)                    ; fcn.00000009+0x2
        0x006c2884      dec3           adda.w d3, a7
        0x006c2886      4e93           jsr (a3)                    ; fcn.0000000c
        0x006c2888      2d79008551f0.  move.l 0x8551f0, -0x21e(a6)
        0x006c2890      3d79008551ee.  move.w 0x8551ee, -0x220(a6)
        0x006c2898      3d79008551ec.  move.w 0x8551ec, -0x222(a6)
   > 0x006c28a0      554f           subq.w 0x2, a7
      0x006c28a2      2f2efde2       move.l -0x21e(a6), -(a7)
      0x006c28a6      4227           clr.b -(a7)
      0x006c28a8      4eb9005fbc62   jsr F6_VOLUME.f_accessible
      0x006c28ae      5c4f           addq.w 0x6, a7
      0x006c28b0      121f           move.b (a7)+, d1
      0x006c28b2      4881           ext.w d1
      0x006c28b4      4384           chk.w d4, d1
      0x006c28b6      1d41fde8       move.b d1, -0x218(a6)
  < 0x006c28ba      6000013e       bra.w 0x6c29fa
  > 0x006c28be      0c000004       cmpi.b 0x4, d0
  < 0x006c28c2      662a           bne.b 0x6c28ee
     0x006c28c4      487a90be       pea.l 0x6bb984(pc)
     0x006c28c8      48780021       pea.l 0x21
     0x006c28cc      2f17           move.l (a7), -(a7)
     0x006c28ce      4e92           jsr (a2)                    ; fcn.00000009+0x2
     0x006c28d0      dec3           adda.w d3, a7
     0x006c28d2      4e93           jsr (a3)                    ; fcn.0000000c
     0x006c28d4      2d79008552c8.  move.l 0x8552c8, -0x21e(a6)
     0x006c28dc      3d79008552c6.  move.w 0x8552c6, -0x220(a6)
     0x006c28e4      3d79008552c4.  move.w 0x8552c4, -0x222(a6)
  < 0x006c28ec      60b2           bra.b 0x6c28a0
   > 0x006c28ee      0c000002       cmpi.b 0x2, d0
   < 0x006c28f2      660000fc       bne.w 0x6c29f0
      0x006c28f6      554f           subq.w 0x2, a7
      0x006c28f8      4281           clr.l d1
      0x006c28fa      122e000e       move.b 0xe(a6), d1
      0x006c28fe      2f01           move.l d1, -(a7)
      0x006c2900      4281           clr.l d1
      0x006c2902      122e000f       move.b 0xf(a6), d1
      0x006c2906      2f01           move.l d1, -(a7)
      0x006c2908      4ebaa0aa       jsr USER2_DISK.stn_known(pc)
      0x006c290c      504f           addq.w 0x8, a7
      0x006c290e      4a1f           tst.b (a7)+
  < 0x006c2910      6646           bne.b 0x6c2958
     0x006c2912      9ec5           suba.w d5, a7
     0x006c2914      3f2e000e       move.w 0xe(a6), -(a7)
     0x006c2918      4eb90066ea9c   jsr N10_UTILS.n_stn_str
     0x006c291e      544f           addq.w 0x2, a7
     0x006c2920      487a9084       pea.l 0x6bb9a6(pc)
     0x006c2924      48780019       pea.l 0x19
     0x006c2928      2f17           move.l (a7), -(a7)
     0x006c292a      4e92           jsr (a2)                    ; fcn.00000009+0x2
     0x006c292c      dec3           adda.w d3, a7
     0x006c292e      486f0001       pea.l 0x1(a7)
     0x006c2932      42a7           clr.l -(a7)
     0x006c2934      1f6f00080003   move.b 0x8(a7), 0x3(a7)
     0x006c293a      2f17           move.l (a7), -(a7)
     0x006c293c      4e92           jsr (a2)                    ; fcn.00000009+0x2
     0x006c293e      defc010c       adda.w 0x10c, a7
     0x006c2942      487a907c       pea.l 0x6bb9c0(pc)
     0x006c2946      4878000b       pea.l 0xb
     0x006c294a      2f17           move.l (a7), -(a7)
     0x006c294c      4e92           jsr (a2)                    ; fcn.00000009+0x2
     0x006c294e      dec3           adda.w d3, a7
     0x006c2950      4e93           jsr (a3)                    ; fcn.0000000c
     0x006c2952      7e00           moveq 0x0, d7
 < 0x006c2954      600000a4       bra.w 0x6c29fa
 > 0x006c2958      9ec5           suba.w d5, a7
     0x006c295a      2f2e000c       move.l 0xc(a6), -(a7)
     0x006c295e      4eb9006b8ed2   jsr USER1_UTILS.region_str
     0x006c2964      584f           addq.w 0x4, a7
     0x006c2966      487a9064       pea.l 0x6bb9cc(pc)
     0x006c296a      4878000a       pea.l 0xa
     0x006c296e      2f17           move.l (a7), -(a7)
     0x006c2970      4e92           jsr (a2)                    ; fcn.00000009+0x2
     0x006c2972      dec3           adda.w d3, a7
     0x006c2974      486f0001       pea.l 0x1(a7)
     0x006c2978      42a7           clr.l -(a7)
     0x006c297a      1f6f00080003   move.b 0x8(a7), 0x3(a7)
     0x006c2980      2f17           move.l (a7), -(a7)
     0x006c2982      4e92           jsr (a2)                    ; fcn.00000009+0x2
     0x006c2984      defc010c       adda.w 0x10c, a7
     0x006c2988      487a904d       pea.l 0x6bb9d7(pc)
     0x006c298c      48780010       pea.l 0x10
     0x006c2990      2f17           move.l (a7), -(a7)
     0x006c2992      4e92           jsr (a2)                    ; fcn.00000009+0x2
     0x006c2994      dec3           adda.w d3, a7
     0x006c2996      4e93           jsr (a3)                    ; fcn.0000000c
     0x006c2998      4281           clr.l d1
     0x006c299a      122e000f       move.b 0xf(a6), d1
     0x006c299e      5341           subq.w 0x1, d1
     0x006c29a0      43bc001e       chk.w 0x1e, d1
     0x006c29a4      e541           asl.w 0x2, d1
     0x006c29a6      4282           clr.l d2
     0x006c29a8      142e000e       move.b 0xe(a6), d2
     0x006c29ac      5342           subq.w 0x1, d2
     0x006c29ae      45bc001e       chk.w 0x1e, d2
     0x006c29b2      c5fc007c       muls.w 0x7c, d2
     0x006c29b6      41f90085519a   lea.l 0x85519a, a0
     0x006c29bc      41f02000       lea.l (a0, d2.w), a0
     0x006c29c0      41f01000       lea.l (a0, d1.w), a0
     0x006c29c4      20680172       movea.l 0x172(a0), a0
     0x006c29c8      b1e8fffc       cmpa.l -0x4(a0), a0
 < 0x006c29cc      6702           beq.b 0x6c29d0
    0x006c29ce      4e4d           trap 0xd
 > 0x006c29d0      2d680004fde2   move.l 0x4(a0), -0x21e(a6)
     0x006c29d6      32280002       move.w 0x2(a0), d1
     0x006c29da      43bc00ff       chk.w 0xff, d1
     0x006c29de      3d41fde0       move.w d1, -0x220(a6)
     0x006c29e2      3210           move.w (a0), d1
     0x006c29e4      43bc00ff       chk.w 0xff, d1
     0x006c29e8      3d41fdde       move.w d1, -0x222(a6)
  < 0x006c29ec      6000feb2       bra.w 0x6c28a0
   > 0x006c29f0      4227           clr.b -(a7)
       0x006c29f2      4eb90040452a   jsr p_Assert
       0x006c29f8      544f           addq.w 0x2, a7
 > 0x006c29fa      4eba9ede       jsr USER2_DISK.open_gate(pc)
           0x006c29fe      4a07           tst.b d7
       < 0x006c2a00      6724           beq.b 0x6c2a26
          0x006c2a02      7e00           moveq 0x0, d7
          0x006c2a04      4aaefde2       tst.l -0x21e(a6)
      < 0x006c2a08      6708           beq.b 0x6c2a12
         0x006c2a0a      4a2efde8       tst.b -0x218(a6)
     < 0x006c2a0e      6702           beq.b 0x6c2a12
        0x006c2a10      5207           addq.b 0x1, d7
     > 0x006c2a12      4a07           tst.b d7
      < 0x006c2a14      6610           bne.b 0x6c2a26
         0x006c2a16      487a8fd0       pea.l 0x6bb9e8(pc)
         0x006c2a1a      48780012       pea.l 0x12
         0x006c2a1e      2f17           move.l (a7), -(a7)
         0x006c2a20      4e92           jsr (a2)                    ; fcn.00000009+0x2
         0x006c2a22      dec3           adda.w d3, a7
         0x006c2a24      4e93           jsr (a3)                    ; fcn.0000000c
      > 0x006c2a26      4a07           tst.b d7
       < 0x006c2a28      670000a0       beq.w 0x6c2aca
          0x006c2a2c      487a8fcd       pea.l 0x6bb9fb(pc)
          0x006c2a30      4878001d       pea.l 0x1d
          0x006c2a34      2f17           move.l (a7), -(a7)
          0x006c2a36      4e92           jsr (a2)                    ; fcn.00000009+0x2
          0x006c2a38      dec3           adda.w d3, a7
          0x006c2a3a      302efdde       move.w -0x222(a6), d0
          0x006c2a3e      48c0           ext.l d0
          0x006c2a40      2f00           move.l d0, -(a7)
          0x006c2a42      48780000       pea.l 0x0
          0x006c2a46      4eb9004070e4   jsr p_wti_o
          0x006c2a4c      504f           addq.w 0x8, a7
          0x006c2a4e      487a8fc9       pea.l 0x6bba19(pc)
          0x006c2a52      48780006       pea.l 0x6
          0x006c2a56      2f17           move.l (a7), -(a7)
          0x006c2a58      4e92           jsr (a2)                    ; fcn.00000009+0x2
          0x006c2a5a      dec3           adda.w d3, a7
          0x006c2a5c      302efde0       move.w -0x220(a6), d0
          0x006c2a60      48c0           ext.l d0
          0x006c2a62      2f00           move.l d0, -(a7)
          0x006c2a64      48780000       pea.l 0x0
          0x006c2a68      4eb9004070e4   jsr p_wti_o
          0x006c2a6e      504f           addq.w 0x8, a7
          0x006c2a70      487a8fae       pea.l 0x6bba20(pc)
          0x006c2a74      48780006       pea.l 0x6
          0x006c2a78      2f17           move.l (a7), -(a7)
          0x006c2a7a      4e92           jsr (a2)                    ; fcn.00000009+0x2
          0x006c2a7c      504f           addq.w 0x8, a7
          0x006c2a7e      2eaefde2       move.l -0x21e(a6), (a7)
          0x006c2a82      4878ffff       pea.l 0xffff
          0x006c2a86      4eb9004070e4   jsr p_wti_o
          0x006c2a8c      504f           addq.w 0x8, a7
          0x006c2a8e      102e000c       move.b 0xc(a6), d0
          0x006c2a92      0c000002       cmpi.b 0x2, d0
      < 0x006c2a96      6630           bne.b 0x6c2ac8
         0x006c2a98      9ec5           suba.w d5, a7
         0x006c2a9a      3f2e000e       move.w 0xe(a6), -(a7)
         0x006c2a9e      4eb90066ea9c   jsr N10_UTILS.n_stn_str
         0x006c2aa4      544f           addq.w 0x2, a7
         0x006c2aa6      487a8f7f       pea.l 0x6bba27(pc)
         0x006c2aaa      4878000a       pea.l 0xa
         0x006c2aae      2f17           move.l (a7), -(a7)
         0x006c2ab0      4e92           jsr (a2)                    ; fcn.00000009+0x2
         0x006c2ab2      dec3           adda.w d3, a7
         0x006c2ab4      486f0001       pea.l 0x1(a7)
         0x006c2ab8      42a7           clr.l -(a7)
         0x006c2aba      1f6f00080003   move.b 0x8(a7), 0x3(a7)
         0x006c2ac0      2f17           move.l (a7), -(a7)
         0x006c2ac2      4e92           jsr (a2)                    ; fcn.00000009+0x2
         0x006c2ac4      defc010c       adda.w 0x10c, a7
      > 0x006c2ac8      4e93           jsr (a3)                    ; fcn.0000000c
       > 0x006c2aca      4a07           tst.b d7
       < 0x006c2acc      6740           beq.b 0x6c2b0e
          0x006c2ace      554f           subq.w 0x2, a7
          0x006c2ad0      2f2efde2       move.l -0x21e(a6), -(a7)
          0x006c2ad4      4ebaa71e       jsr USER2_DISK.volume_protecte(pc)
          0x006c2ad8      584f           addq.w 0x4, a7
          0x006c2ada      4a1f           tst.b (a7)+
      < 0x006c2adc      6730           beq.b 0x6c2b0e
         0x006c2ade      7e00           moveq 0x0, d7
         0x006c2ae0      487a8f50       pea.l 0x6bba32(pc)
         0x006c2ae4      48780007       pea.l 0x7
         0x006c2ae8      2f17           move.l (a7), -(a7)
         0x006c2aea      4e92           jsr (a2)                    ; fcn.00000009+0x2
         0x006c2aec      504f           addq.w 0x8, a7
         0x006c2aee      2eaefde2       move.l -0x21e(a6), (a7)
         0x006c2af2      4878ffff       pea.l 0xffff
         0x006c2af6      4eb9004070e4   jsr p_wti_o
         0x006c2afc      504f           addq.w 0x8, a7
         0x006c2afe      487a8f3a       pea.l 0x6bba3a(pc)
         0x006c2b02      48780013       pea.l 0x13
         0x006c2b06      2f17           move.l (a7), -(a7)
         0x006c2b08      4e92           jsr (a2)                    ; fcn.00000009+0x2
         0x006c2b0a      dec3           adda.w d3, a7
         0x006c2b0c      4e93           jsr (a3)                    ; fcn.0000000c
      > 0x006c2b0e      4a07           tst.b d7
       < 0x006c2b10      6700035a       beq.w 0x6c2e6c
          0x006c2b14      3f3c044d       move.w 0x44d, -(a7)
          0x006c2b18      9ec5           suba.w d5, a7
          0x006c2b1a      204f           movea.l a7, a0
          0x006c2b1c      43fa8f2f       lea.l 0x6bba4d(pc), a1
          0x006c2b20      7004           moveq 0x4, d0
      > 0x006c2b22      10d9           move.b (a1)+, (a0)+
      < 0x006c2b24      51c8fffc       dbra d0, 0x6c2b22
          0x006c2b28      49eefdde       lea.l -0x222(a6), a4
          0x006c2b2c      4ebaee08       jsr USER2_DISK.find_and_delete(pc)
          0x006c2b30      dec5           adda.w d5, a7
          0x006c2b32      3ebc044e       move.w 0x44e, (a7)
          0x006c2b36      9efc00fc       suba.w 0xfc, a7
          0x006c2b3a      2f3a8f16       move.l 0x6bba52(pc), -(a7)
          0x006c2b3e      2f7a8f160004   move.l 0x6bba56(pc), 0x4(a7)
          0x006c2b44      2f7a8f140008   move.l 0x6bba5a(pc), 0x8(a7)
          0x006c2b4a      1f7a8f12000c   move.b 0x6bba5e(pc), 0xc(a7)
          0x006c2b50      49eefdde       lea.l -0x222(a6), a4
          0x006c2b54      4ebaede0       jsr USER2_DISK.find_and_delete(pc)
          0x006c2b58      dec5           adda.w d5, a7
          0x006c2b5a      3ebc044f       move.w 0x44f, (a7)
          0x006c2b5e      9ec5           suba.w d5, a7
          0x006c2b60      204f           movea.l a7, a0
          0x006c2b62      43fa8efb       lea.l 0x6bba5f(pc), a1
          0x006c2b66      700b           moveq 0xb, d0
      > 0x006c2b68      10d9           move.b (a1)+, (a0)+
      < 0x006c2b6a      51c8fffc       dbra d0, 0x6c2b68
          0x006c2b6e      49eefdde       lea.l -0x222(a6), a4
          0x006c2b72      4ebaedc2       jsr USER2_DISK.find_and_delete(pc)
          0x006c2b76      defc00fc       adda.w 0xfc, a7
          0x006c2b7a      2eaefde2       move.l -0x21e(a6), (a7)
          0x006c2b7e      9efc0012       suba.w 0x12, a7
          0x006c2b82      2f39006ba55c   move.l 0x6ba55c, -(a7)
          0x006c2b88      2f79006ba560.  move.l 0x6ba560, 0x4(a7)
          0x006c2b90      4ebac2ce       jsr USER2_DISK.create_user(pc)
          0x006c2b94      defc001a       adda.w 0x1a, a7
          0x006c2b98      4a1f           tst.b (a7)+
      < 0x006c2b9a      660c           bne.b 0x6c2ba8
         0x006c2b9c      487a8ece       pea.l 0x6bba6c(pc)
         0x006c2ba0      48780021       pea.l 0x21
     < 0x006c2ba4      600002be       bra.w 0x6c2e64
     > 0x006c2ba8      4aae0008       tst.l 0x8(a6)
     < 0x006c2bac      674a           beq.b 0x6c2bf8
        0x006c2bae      9efc0012       suba.w 0x12, a7
        0x006c2bb2      2f39006ba55c   move.l 0x6ba55c, -(a7)
        0x006c2bb8      2f79006ba560.  move.l 0x6ba560, 0x4(a7)
        0x006c2bc0      4ebaa4f8       jsr USER2_DISK.set_username(pc)
        0x006c2bc4      defc000e       adda.w 0xe, a7
        0x006c2bc8      2eae0008       move.l 0x8(a6), (a7)
        0x006c2bcc      2f2e000c       move.l 0xc(a6), -(a7)
        0x006c2bd0      4ebae02c       jsr USER2_DISK.cur_exch_user(pc)
        0x006c2bd4      504f           addq.w 0x8, a7
        0x006c2bd6      2d5ffff8       move.l (a7)+, -0x8(a6)
        0x006c2bda      206efff8       movea.l -0x8(a6), a0
        0x006c2bde      b1e8fffc       cmpa.l -0x4(a0), a0
    < 0x006c2be2      6702           beq.b 0x6c2be6
       0x006c2be4      4e4d           trap 0xd
    > 0x006c2be6      43eefdfa       lea.l -0x206(a6), a1
        0x006c2bea      41e80004       lea.l 0x4(a0), a0
        0x006c2bee      7009           moveq 0x9, d0
    > 0x006c2bf0      12d8           move.b (a0)+, (a1)+
    < 0x006c2bf2      51c8fffc       dbra d0, 0x6c2bf0
    < 0x006c2bf6      6042           bra.b 0x6c2c3a
    > 0x006c2bf8      9efc0014       suba.w 0x14, a7
        0x006c2bfc      2f39006ba55c   move.l 0x6ba55c, -(a7)
        0x006c2c02      2f79006ba560.  move.l 0x6ba560, 0x4(a7)
        0x006c2c0a      2f2e000c       move.l 0xc(a6), -(a7)
        0x006c2c0e      4ebad06c       jsr USER2_DISK.set_fixed_user(pc)
        0x006c2c12      defc001a       adda.w 0x1a, a7
        0x006c2c16      101f           move.b (a7)+, d0
        0x006c2c18      4880           ext.w d0
        0x006c2c1a      4184           chk.w d4, d0
        0x006c2c1c      1e00           move.b d0, d7
        0x006c2c1e      9efc000a       suba.w 0xa, a7
        0x006c2c22      2f2e000c       move.l 0xc(a6), -(a7)
        0x006c2c26      4eb9006c474c   jsr USER2_DISK.cur_user_fid
        0x006c2c2c      584f           addq.w 0x4, a7
        0x006c2c2e      2d5ffdfa       move.l (a7)+, -0x206(a6)
        0x006c2c32      2d5ffdfe       move.l (a7)+, -0x202(a6)
        0x006c2c36      3d5ffe02       move.w (a7)+, -0x1fe(a6)
    > 0x006c2c3a      4a07           tst.b d7
     < 0x006c2c3c      6736           beq.b 0x6c2c74
        0x006c2c3e      554f           subq.w 0x2, a7
        0x006c2c40      2f2efe00       move.l -0x200(a6), -(a7)
        0x006c2c44      2f2efdfc       move.l -0x204(a6), -(a7)
        0x006c2c48      3f2efdfa       move.w -0x206(a6), -(a7)
        0x006c2c4c      2f39006ba53e   move.l 0x6ba53e, -(a7)
        0x006c2c52      2f39006ba53a   move.l 0x6ba53a, -(a7)
        0x006c2c58      3f39006ba538   move.w 0x6ba538, -(a7)
        0x006c2c5e      4eb9005ef3d2   jsr F2_UTILITY.f_fids_eq
        0x006c2c64      defc0014       adda.w 0x14, a7
        0x006c2c68      101f           move.b (a7)+, d0
        0x006c2c6a      4400           neg.b d0
        0x006c2c6c      5200           addq.b 0x1, d0
        0x006c2c6e      4880           ext.w d0
        0x006c2c70      4184           chk.w d4, d0
        0x006c2c72      1e00           move.b d0, d7
     > 0x006c2c74      4a07           tst.b d7
     < 0x006c2c76      660c           bne.b 0x6c2c84
        0x006c2c78      487a8e14       pea.l 0x6bba8e(pc)
        0x006c2c7c      4878002d       pea.l 0x2d
    < 0x006c2c80      600001e2       bra.w 0x6c2e64
    > 0x006c2c84      554f           subq.w 0x2, a7
        0x006c2c86      4eb9006ba3c2   jsr USER1_UTILS.udebug_on
        0x006c2c8c      4a1f           tst.b (a7)+
    < 0x006c2c8e      6732           beq.b 0x6c2cc2
       0x006c2c90      9ec5           suba.w d5, a7
       0x006c2c92      486efdfa       pea.l -0x206(a6)
       0x006c2c96      4eb9005ef416   jsr F2_UTILITY.f_fid_string
       0x006c2c9c      584f           addq.w 0x4, a7
       0x006c2c9e      487a8e1c       pea.l 0x6bbabc(pc)
       0x006c2ca2      48780012       pea.l 0x12
       0x006c2ca6      2f17           move.l (a7), -(a7)
       0x006c2ca8      4e92           jsr (a2)                    ; fcn.00000009+0x2
       0x006c2caa      dec3           adda.w d3, a7
       0x006c2cac      486f0001       pea.l 0x1(a7)
       0x006c2cb0      42a7           clr.l -(a7)
       0x006c2cb2      1f6f00080003   move.b 0x8(a7), 0x3(a7)
       0x006c2cb8      2f17           move.l (a7), -(a7)
       0x006c2cba      4e92           jsr (a2)                    ; fcn.00000009+0x2
       0x006c2cbc      defc010c       adda.w 0x10c, a7
       0x006c2cc0      4e93           jsr (a3)                    ; fcn.0000000c
    > 0x006c2cc2      42aefe4c       clr.l -0x1b4(a6)
        0x006c2cc6      42aefe5c       clr.l -0x1a4(a6)
        0x006c2cca      42aefe50       clr.l -0x1b0(a6)
        0x006c2cce      42aefe54       clr.l -0x1ac(a6)
        0x006c2cd2      42aefe58       clr.l -0x1a8(a6)
        0x006c2cd6      4aae0008       tst.l 0x8(a6)
    < 0x006c2cda      66000092       bne.w 0x6c2d6e
       0x006c2cde      594f           subq.w 0x4, a7
       0x006c2ce0      486efe60       pea.l -0x1a0(a6)
       0x006c2ce4      4267           clr.w -(a7)
       0x006c2ce6      3f3c0063       move.w 0x63, -(a7)
       0x006c2cea      4eb9005fb874   jsr F6_VOLUME.f_list_volumes
       0x006c2cf0      504f           addq.w 0x8, a7
       0x006c2cf2      2c1f           move.l (a7)+, d6
   < 0x006c2cf4      67000086       beq.w 0x6c2d7c
      0x006c2cf8      2f06           move.l d6, -(a7)
      0x006c2cfa      5397           subq.l 0x1, (a7)
      0x006c2cfc      7e00           moveq 0x0, d7
  > 0x006c2cfe      be97           cmp.l (a7), d7
 < 0x006c2d00      6e6a           bgt.b 0x6c2d6c
    0x006c2d02      554f           subq.w 0x2, a7
    0x006c2d04      4eb9006ba3c2   jsr USER1_UTILS.udebug_on
    0x006c2d0a      4a1f           tst.b (a7)+
 < 0x006c2d0c      6722           beq.b 0x6c2d30
    0x006c2d0e      0c8700000063   cmpi.l 0x63, d7
 < 0x006c2d14      6302           bls.b 0x6c2d18
    0x006c2d16      4e4f           trap 0xf
 > 0x006c2d18      2007           move.l d7, d0
    0x006c2d1a      e580           asl.l 0x2, d0
    0x006c2d1c      41eefdde       lea.l -0x222(a6), a0
    0x006c2d20      41f00800       lea.l (a0, d0.l), a0
    0x006c2d24      2f280082       move.l 0x82(a0), -(a7)
    0x006c2d28      4eb9006b8796   jsr USER1_UTILS.show_volume
    0x006c2d2e      584f           addq.w 0x4, a7
 > 0x006c2d30      0c8700000063   cmpi.l 0x63, d7
 < 0x006c2d36      6302           bls.b 0x6c2d3a
    0x006c2d38      4e4f           trap 0xf
 > 0x006c2d3a      2007           move.l d7, d0
    0x006c2d3c      e580           asl.l 0x2, d0
    0x006c2d3e      41eefdde       lea.l -0x222(a6), a0
    0x006c2d42      41f00800       lea.l (a0, d0.l), a0
    0x006c2d46      554f           subq.w 0x2, a7
    0x006c2d48      2f280082       move.l 0x82(a0), -(a7)
    0x006c2d4c      2f2e000c       move.l 0xc(a6), -(a7)
    0x006c2d50      4ebaa504       jsr USER2_DISK.volume_suitable(pc)
    0x006c2d54      504f           addq.w 0x8, a7
    0x006c2d56      4a1f           tst.b (a7)+
 < 0x006c2d58      670e           beq.b 0x6c2d68
    0x006c2d5a      2f280082       move.l 0x82(a0), -(a7)
    0x006c2d5e      49eefdde       lea.l -0x222(a6), a4
    0x006c2d62      4ebaf5d0       jsr USER2_DISK.scan_volume(pc)
    0x006c2d66      584f           addq.w 0x4, a7
 > 0x006c2d68      5287           addq.l 0x1, d7
 < 0x006c2d6a      6892           bvc.b 0x6c2cfe
 < 0x006c2d6c      600c           bra.b 0x6c2d7a
  > 0x006c2d6e      2f2e0008       move.l 0x8(a6), -(a7)
      0x006c2d72      49eefdde       lea.l -0x222(a6), a4
      0x006c2d76      4ebaf5bc       jsr USER2_DISK.scan_volume(pc)
  > 0x006c2d7a      584f           addq.w 0x4, a7
   > 0x006c2d7c      4aaefe4c       tst.l -0x1b4(a6)
    < 0x006c2d80      660a           bne.b 0x6c2d8c
       0x006c2d82      487a8d4b       pea.l 0x6bbacf(pc)
       0x006c2d86      4878001d       pea.l 0x1d
   < 0x006c2d8a      6018           bra.b 0x6c2da4
   > 0x006c2d8c      2f2efe4c       move.l -0x1b4(a6), -(a7)
       0x006c2d90      48780000       pea.l 0x0
       0x006c2d94      4eb9004070e4   jsr p_wti_o
       0x006c2d9a      504f           addq.w 0x8, a7
       0x006c2d9c      487a8d4f       pea.l 0x6bbaed(pc)
       0x006c2da0      4878001b       pea.l 0x1b
   > 0x006c2da4      2f17           move.l (a7), -(a7)
        0x006c2da6      4e92           jsr (a2)                    ; fcn.00000009+0x2
        0x006c2da8      dec3           adda.w d3, a7
        0x006c2daa      4e93           jsr (a3)                    ; fcn.0000000c
        0x006c2dac      4aaefe50       tst.l -0x1b0(a6)
    < 0x006c2db0      660a           bne.b 0x6c2dbc
       0x006c2db2      487a8d55       pea.l 0x6bbb09(pc)
       0x006c2db6      4878001c       pea.l 0x1c
   < 0x006c2dba      6018           bra.b 0x6c2dd4
   > 0x006c2dbc      2f2efe50       move.l -0x1b0(a6), -(a7)
       0x006c2dc0      48780000       pea.l 0x0
       0x006c2dc4      4eb9004070e4   jsr p_wti_o
       0x006c2dca      504f           addq.w 0x8, a7
       0x006c2dcc      487a8d58       pea.l 0x6bbb26(pc)
       0x006c2dd0      4878001a       pea.l 0x1a
   > 0x006c2dd4      2f17           move.l (a7), -(a7)
        0x006c2dd6      4e92           jsr (a2)                    ; fcn.00000009+0x2
        0x006c2dd8      dec3           adda.w d3, a7
        0x006c2dda      4e93           jsr (a3)                    ; fcn.0000000c
        0x006c2ddc      4aaefe54       tst.l -0x1ac(a6)
    < 0x006c2de0      660a           bne.b 0x6c2dec
       0x006c2de2      487a8d5d       pea.l 0x6bbb41(pc)
       0x006c2de6      4878001d       pea.l 0x1d
   < 0x006c2dea      6018           bra.b 0x6c2e04
   > 0x006c2dec      2f2efe54       move.l -0x1ac(a6), -(a7)
       0x006c2df0      48780000       pea.l 0x0
       0x006c2df4      4eb9004070e4   jsr p_wti_o
       0x006c2dfa      504f           addq.w 0x8, a7
       0x006c2dfc      487a8d61       pea.l 0x6bbb5f(pc)
       0x006c2e00      4878001b       pea.l 0x1b
   > 0x006c2e04      2f17           move.l (a7), -(a7)
        0x006c2e06      4e92           jsr (a2)                    ; fcn.00000009+0x2
        0x006c2e08      dec3           adda.w d3, a7
        0x006c2e0a      4e93           jsr (a3)                    ; fcn.0000000c
        0x006c2e0c      4aaefe58       tst.l -0x1a8(a6)
    < 0x006c2e10      660a           bne.b 0x6c2e1c
       0x006c2e12      487a8d67       pea.l 0x6bbb7b(pc)
       0x006c2e16      4878001b       pea.l 0x1b
   < 0x006c2e1a      6018           bra.b 0x6c2e34
   > 0x006c2e1c      2f2efe58       move.l -0x1a8(a6), -(a7)
       0x006c2e20      48780000       pea.l 0x0
       0x006c2e24      4eb9004070e4   jsr p_wti_o
       0x006c2e2a      504f           addq.w 0x8, a7
       0x006c2e2c      487a8d69       pea.l 0x6bbb97(pc)
       0x006c2e30      48780019       pea.l 0x19
   > 0x006c2e34      2f17           move.l (a7), -(a7)
        0x006c2e36      4e92           jsr (a2)                    ; fcn.00000009+0x2
        0x006c2e38      dec3           adda.w d3, a7
        0x006c2e3a      4e93           jsr (a3)                    ; fcn.0000000c
        0x006c2e3c      4aaefe5c       tst.l -0x1a4(a6)
    < 0x006c2e40      660a           bne.b 0x6c2e4c
       0x006c2e42      487a8d6d       pea.l 0x6bbbb1(pc)
       0x006c2e46      4878001a       pea.l 0x1a
   < 0x006c2e4a      6018           bra.b 0x6c2e64
   > 0x006c2e4c      2f2efe5c       move.l -0x1a4(a6), -(a7)
       0x006c2e50      48780000       pea.l 0x0
       0x006c2e54      4eb9004070e4   jsr p_wti_o
       0x006c2e5a      504f           addq.w 0x8, a7
       0x006c2e5c      487a8d6e       pea.l 0x6bbbcc(pc)
       0x006c2e60      48780018       pea.l 0x18
   > 0x006c2e64      2f17           move.l (a7), -(a7)
          0x006c2e66      4e92           jsr (a2)                    ; fcn.00000009+0x2
          0x006c2e68      dec3           adda.w d3, a7
          0x006c2e6a      4e93           jsr (a3)                    ; fcn.0000000c
       > 0x006c2e6c      4cdf1fff       movem.l (a7)+, d0-d7/a0-a4
           0x006c2e70      4e5e           unlk a6
           0x006c2e72      4e75           rts
            ; CALL XREF from USER2_DISK.sort_drive_list @ 0x6c3408
            ; CALL XREF from USER2_DISK.scan_station_fo @ 0x6c37ae
            ; CALL XREF from USER2_DISK.update_drivesta @ 0x6c4538
            ; CALL XREF from USER2_DISK.init_user @ 0x6c55be
 1044: USER2_DISK.add_exch_drive (int32_t arg_ch);
           ; arg int32_t arg_ch @ a6+0xc
           ; var int32_t var_8h @ a7+0x8
           0x006c2e74      4e56fe9e       link.w a6, 0xfe9e
           0x006c2e78      bfd5           cmpa.l (a5), a7
       < 0x006c2e7a      6206           bhi.b 0x6c2e82
          0x006c2e7c      44fc0002       move.w 0x2, ccr
          0x006c2e80      4e76           trapv
       > 0x006c2e82      defc015e       adda.w 0x15e, a7
           0x006c2e86      48e7fff8       movem.l d0-d7/a0-a4, -(a7)
           0x006c2e8a      47f9004047ea   lea.l p_wts_o, a3
           0x006c2e90      49f9004070e4   lea.l p_wti_o, a4
           0x006c2e96      7a0c           moveq 0xc, d5
           0x006c2e98      3c3c0100       move.w 0x100, d6
           0x006c2e9c      7e01           moveq 0x1, d7
           0x006c2e9e      554f           subq.w 0x2, a7
           0x006c2ea0      4eb9006ba3c2   jsr USER1_UTILS.udebug_on
           0x006c2ea6      4a1f           tst.b (a7)+
       < 0x006c2ea8      6750           beq.b 0x6c2efa
          0x006c2eaa      9ec6           suba.w d6, a7
          0x006c2eac      2f2e0008       move.l 0x8(a6), -(a7)
          0x006c2eb0      4eb9006b8ed2   jsr USER1_UTILS.region_str
          0x006c2eb6      584f           addq.w 0x4, a7
          0x006c2eb8      487a8d2b       pea.l 0x6bbbe5(pc)
          0x006c2ebc      48780012       pea.l 0x12
          0x006c2ec0      2f17           move.l (a7), -(a7)
          0x006c2ec2      4e93           jsr (a3)                    ; fcn.0000000c
          0x006c2ec4      504f           addq.w 0x8, a7
          0x006c2ec6      2eae000c       move.l 0xc(a6), (a7)
          0x006c2eca      4878ffff       pea.l 0xffff
          0x006c2ece      4e94           jsr (a4)                    ; fcn.0000000d
          0x006c2ed0      504f           addq.w 0x8, a7
          0x006c2ed2      487a8d24       pea.l 0x6bbbf8(pc)
          0x006c2ed6      4878000d       pea.l 0xd
          0x006c2eda      2f17           move.l (a7), -(a7)
          0x006c2edc      4e93           jsr (a3)                    ; fcn.0000000c
          0x006c2ede      dec5           adda.w d5, a7
          0x006c2ee0      486f0001       pea.l 0x1(a7)
          0x006c2ee4      42a7           clr.l -(a7)
          0x006c2ee6      1f6f00080003   move.b 0x8(a7), 0x3(a7)
          0x006c2eec      2f17           move.l (a7), -(a7)
          0x006c2eee      4e93           jsr (a3)                    ; fcn.0000000c
          0x006c2ef0      defc010c       adda.w 0x10c, a7
          0x006c2ef4      4eb900404946   jsr p_wtln_o
       > 0x006c2efa      554f           subq.w 0x2, a7
           0x006c2efc      1f2e0008       move.b 0x8(a6), -(a7)
           0x006c2f00      4eb9006ba282   jsr USER1_UTILS.scope_ok
           0x006c2f06      544f           addq.w 0x2, a7
           0x006c2f08      1017           move.b (a7), d0
           0x006c2f0a      4880           ext.w d0
           0x006c2f0c      4187           chk.w d7, d0
           0x006c2f0e      1e80           move.b d0, (a7)
           0x006c2f10      4eb90040452a   jsr p_Assert
           0x006c2f16      544f           addq.w 0x2, a7
           0x006c2f18      102e0008       move.b 0x8(a6), d0
           0x006c2f1c      4880           ext.w d0
           0x006c2f1e      013a8ce6       btst.l d0, 0x6bbc06(pc)
       < 0x006c2f22      67000128       beq.w 0x6c304c
          0x006c2f26      7248           moveq 0x48, d1
          0x006c2f28      c3c0           muls.w d0, d1
          0x006c2f2a      41f90085519a   lea.l 0x85519a, a0
          0x006c2f30      52b01046       addq.l 0x1, 0x46(a0, d1.w)
          0x006c2f34      24301046       move.l 0x46(a0, d1.w), d2
          0x006c2f38      5382           subq.l 0x1, d2
          0x006c2f3a      0c8200000005   cmpi.l 0x5, d2
      < 0x006c2f40      6302           bls.b 0x6c2f44
         0x006c2f42      4e4f           trap 0xf
      > 0x006c2f44      e782           asl.l 0x3, d2
          0x006c2f46      43f01000       lea.l (a0, d1.w), a1
          0x006c2f4a      23ae000c2816   move.l 0xc(a6), 0x16(a1, d2.l)
          0x006c2f50      26301046       move.l 0x46(a0, d1.w), d3
          0x006c2f54      b687           cmp.l d7, d3
      < 0x006c2f56      660a           bne.b 0x6c2f62
         0x006c2f58      23bc00000009.  move.l 0x9, 0x1a(a1, d2.l)
     < 0x006c2f60      601c           bra.b 0x6c2f7e
     > 0x006c2f62      2803           move.l d3, d4
         0x006c2f64      5384           subq.l 0x1, d4
         0x006c2f66      5384           subq.l 0x1, d4
         0x006c2f68      0c8400000005   cmpi.l 0x5, d4
     < 0x006c2f6e      6302           bls.b 0x6c2f72
        0x006c2f70      4e4f           trap 0xf
     > 0x006c2f72      e784           asl.l 0x3, d4
         0x006c2f74      23b1481a281a   move.l 0x1a(a1, d4.l), 0x1a(a1, d2.l)
         0x006c2f7a      53b1281a       subq.l 0x1, 0x1a(a1, d2.l)
     > 0x006c2f7e      283c000003e8   move.l 0x3e8, d4
          0x006c2f84      2631281a       move.l 0x1a(a1, d2.l), d3
          0x006c2f88      4eb900406a74   jsr fcn.00406a74
          0x006c2f8e      5384           subq.l 0x1, d4
          0x006c2f90      2344004a       move.l d4, 0x4a(a1)
          0x006c2f94      7864           moveq 0x64, d4
          0x006c2f96      2631281a       move.l 0x1a(a1, d2.l), d3
          0x006c2f9a      4eb900406a74   jsr fcn.00406a74
          0x006c2fa0      5384           subq.l 0x1, d4
          0x006c2fa2      2344004e       move.l d4, 0x4e(a1)
          0x006c2fa6      554f           subq.w 0x2, a7
          0x006c2fa8      4eb9006ba3c2   jsr USER1_UTILS.udebug_on
          0x006c2fae      4a1f           tst.b (a7)+
      < 0x006c2fb0      670002ce       beq.w 0x6c3280
         0x006c2fb4      9ec6           suba.w d6, a7
         0x006c2fb6      1f00           move.b d0, -(a7)
         0x006c2fb8      4eb9006b8e28   jsr USER1_UTILS.scope_str
         0x006c2fbe      544f           addq.w 0x2, a7
         0x006c2fc0      487a8c46       pea.l 0x6bbc08(pc)
         0x006c2fc4      48780006       pea.l 0x6
         0x006c2fc8      2f17           move.l (a7), -(a7)
         0x006c2fca      4e93           jsr (a3)                    ; fcn.0000000c
         0x006c2fcc      dec5           adda.w d5, a7
         0x006c2fce      486f0001       pea.l 0x1(a7)
         0x006c2fd2      42a7           clr.l -(a7)
         0x006c2fd4      1f6f00080003   move.b 0x8(a7), 0x3(a7)
         0x006c2fda      2f17           move.l (a7), -(a7)
         0x006c2fdc      4e93           jsr (a3)                    ; fcn.0000000c
         0x006c2fde      defc010c       adda.w 0x10c, a7
         0x006c2fe2      487a8c2b       pea.l 0x6bbc0f(pc)
         0x006c2fe6      4878000c       pea.l 0xc
         0x006c2fea      2f17           move.l (a7), -(a7)
         0x006c2fec      4e93           jsr (a3)                    ; fcn.0000000c
         0x006c2fee      504f           addq.w 0x8, a7
         0x006c2ff0      2eae000c       move.l 0xc(a6), (a7)
         0x006c2ff4      4878ffff       pea.l 0xffff
         0x006c2ff8      4e94           jsr (a4)                    ; fcn.0000000d
         0x006c2ffa      504f           addq.w 0x8, a7
         0x006c2ffc      487a8c1e       pea.l 0x6bbc1c(pc)
         0x006c3000      48780007       pea.l 0x7
         0x006c3004      2f17           move.l (a7), -(a7)
         0x006c3006      4e93           jsr (a3)                    ; fcn.0000000c
         0x006c3008      504f           addq.w 0x8, a7
         0x006c300a      2eb1281a       move.l 0x1a(a1, d2.l), (a7)
         0x006c300e      48780000       pea.l 0x0
         0x006c3012      4e94           jsr (a4)                    ; fcn.0000000d
         0x006c3014      504f           addq.w 0x8, a7
         0x006c3016      4eb900404946   jsr p_wtln_o
         0x006c301c      487a8c06       pea.l 0x6bbc24(pc)
         0x006c3020      4878000f       pea.l 0xf
         0x006c3024      2f17           move.l (a7), -(a7)
         0x006c3026      4e93           jsr (a3)                    ; fcn.0000000c
         0x006c3028      504f           addq.w 0x8, a7
         0x006c302a      2ea9004a       move.l 0x4a(a1), (a7)
         0x006c302e      48780000       pea.l 0x0
         0x006c3032      4e94           jsr (a4)                    ; fcn.0000000d
         0x006c3034      504f           addq.w 0x8, a7
         0x006c3036      487a8bfc       pea.l 0x6bbc34(pc)
         0x006c303a      48780007       pea.l 0x7
         0x006c303e      2f17           move.l (a7), -(a7)
         0x006c3040      4e93           jsr (a3)                    ; fcn.0000000c
         0x006c3042      504f           addq.w 0x8, a7
         0x006c3044      2ea9004e       move.l 0x4e(a1), (a7)
     < 0x006c3048      60000228       bra.w 0x6c3272
     > 0x006c304c      0c000002       cmpi.b 0x2, d0
     < 0x006c3050      6600022e       bne.w 0x6c3280
        0x006c3054      2d6e000cfffc   move.l 0xc(a6), -0x4(a6)
        0x006c305a      4281           clr.l d1
        0x006c305c      122e000b       move.b 0xb(a6), d1
        0x006c3060      5341           subq.w 0x1, d1
        0x006c3062      43bc001e       chk.w 0x1e, d1
        0x006c3066      e541           asl.w 0x2, d1
        0x006c3068      4282           clr.l d2
        0x006c306a      142e000a       move.b 0xa(a6), d2
        0x006c306e      5342           subq.w 0x1, d2
        0x006c3070      45bc001e       chk.w 0x1e, d2
        0x006c3074      c5fc007c       muls.w 0x7c, d2
        0x006c3078      41f90085519a   lea.l 0x85519a, a0
        0x006c307e      41f02000       lea.l (a0, d2.w), a0
        0x006c3082      41f01000       lea.l (a0, d1.w), a0
        0x006c3086      22680172       movea.l 0x172(a0), a1
        0x006c308a      b2c7           cmpa.w d7, a1
    < 0x006c308c      6634           bne.b 0x6c30c2
       0x006c308e      9ec6           suba.w d6, a7
       0x006c3090      3f2e000a       move.w 0xa(a6), -(a7)
       0x006c3094      4eb90066ea9c   jsr N10_UTILS.n_stn_str
       0x006c309a      544f           addq.w 0x2, a7
       0x006c309c      487a8b9e       pea.l 0x6bbc3c(pc)
       0x006c30a0      48780028       pea.l 0x28
       0x006c30a4      2f17           move.l (a7), -(a7)
       0x006c30a6      4e93           jsr (a3)                    ; fcn.0000000c
       0x006c30a8      dec5           adda.w d5, a7
       0x006c30aa      486f0001       pea.l 0x1(a7)
       0x006c30ae      42a7           clr.l -(a7)
       0x006c30b0      1f6f00080003   move.b 0x8(a7), 0x3(a7)
       0x006c30b6      2f17           move.l (a7), -(a7)
   > 0x006c30b8      4e93           jsr (a3)                    ; fcn.0000000c
      0x006c30ba      defc010c       adda.w 0x10c, a7
  < 0x006c30be      600001ba       bra.w 0x6c327a
  > 0x006c30c2      222e000c       move.l 0xc(a6), d1
      0x006c30c6      0281fffe0000   andi.l 0xfffe0000, d1
      0x006c30cc      594f           subq.w 0x4, a7
      0x006c30ce      3f2e000a       move.w 0xa(a6), -(a7)
      0x006c30d2      4eb90066e8bc   jsr N10_UTILS.n_drive_id
      0x006c30d8      544f           addq.w 0x2, a7
      0x006c30da      b29f           cmp.l (a7)+, d1
  < 0x006c30dc      6746           beq.b 0x6c3124
     0x006c30de      9ec6           suba.w d6, a7
     0x006c30e0      3f2e000a       move.w 0xa(a6), -(a7)
     0x006c30e4      4eb90066ea9c   jsr N10_UTILS.n_stn_str
     0x006c30ea      544f           addq.w 0x2, a7
     0x006c30ec      487a8b77       pea.l 0x6bbc65(pc)
     0x006c30f0      48780018       pea.l 0x18
     0x006c30f4      2f17           move.l (a7), -(a7)
     0x006c30f6      4e93           jsr (a3)                    ; fcn.0000000c
     0x006c30f8      504f           addq.w 0x8, a7
     0x006c30fa      2eae000c       move.l 0xc(a6), (a7)
     0x006c30fe      4878ffff       pea.l 0xffff
     0x006c3102      4e94           jsr (a4)                    ; fcn.0000000d
     0x006c3104      504f           addq.w 0x8, a7
     0x006c3106      487a8b76       pea.l 0x6bbc7e(pc)
     0x006c310a      48780010       pea.l 0x10
     0x006c310e      2f17           move.l (a7), -(a7)
     0x006c3110      4e93           jsr (a3)                    ; fcn.0000000c
     0x006c3112      dec5           adda.w d5, a7
     0x006c3114      486f0001       pea.l 0x1(a7)
     0x006c3118      42a7           clr.l -(a7)
     0x006c311a      1f6f00080003   move.b 0x8(a7), 0x3(a7)
     0x006c3120      2f17           move.l (a7), -(a7)
  < 0x006c3122      6094           bra.b 0x6c30b8
   > 0x006c3124      22680172       movea.l 0x172(a0), a1
       0x006c3128      b3e9fffc       cmpa.l -0x4(a1), a1
   < 0x006c312c      6702           beq.b 0x6c3130
      0x006c312e      4e4d           trap 0xd
   > 0x006c3130      52a9003c       addq.l 0x1, 0x3c(a1)
       0x006c3134      2229003c       move.l 0x3c(a1), d1
       0x006c3138      5381           subq.l 0x1, d1
       0x006c313a      0c8100000005   cmpi.l 0x5, d1
   < 0x006c3140      6302           bls.b 0x6c3144
      0x006c3142      4e4f           trap 0xf
   > 0x006c3144      e781           asl.l 0x3, d1
       0x006c3146      23ae000c180c   move.l 0xc(a6), 0xc(a1, d1.l)
       0x006c314c      24680172       movea.l 0x172(a0), a2
       0x006c3150      b5eafffc       cmpa.l -0x4(a2), a2
   < 0x006c3154      6702           beq.b 0x6c3158
      0x006c3156      4e4d           trap 0xd
   > 0x006c3158      242a003c       move.l 0x3c(a2), d2
       0x006c315c      b487           cmp.l d7, d2
   < 0x006c315e      660a           bne.b 0x6c316a
      0x006c3160      23bc00000009.  move.l 0x9, 0x10(a1, d1.l)
  < 0x006c3168      601c           bra.b 0x6c3186
  > 0x006c316a      2602           move.l d2, d3
      0x006c316c      5383           subq.l 0x1, d3
      0x006c316e      5383           subq.l 0x1, d3
      0x006c3170      0c8300000005   cmpi.l 0x5, d3
  < 0x006c3176      6302           bls.b 0x6c317a
     0x006c3178      4e4f           trap 0xf
  > 0x006c317a      e783           asl.l 0x3, d3
      0x006c317c      23b238101810   move.l 0x10(a2, d3.l), 0x10(a1, d1.l)
      0x006c3182      53b11810       subq.l 0x1, 0x10(a1, d1.l)
  > 0x006c3186      24680172       movea.l 0x172(a0), a2
       0x006c318a      b5eafffc       cmpa.l -0x4(a2), a2
   < 0x006c318e      6702           beq.b 0x6c3192
      0x006c3190      4e4d           trap 0xd
   > 0x006c3192      283c000003e8   move.l 0x3e8, d4
       0x006c3198      26311810       move.l 0x10(a1, d1.l), d3
       0x006c319c      4eb900406a74   jsr fcn.00406a74
       0x006c31a2      5384           subq.l 0x1, d4
       0x006c31a4      25440040       move.l d4, 0x40(a2)
       0x006c31a8      7864           moveq 0x64, d4
       0x006c31aa      26311810       move.l 0x10(a1, d1.l), d3
       0x006c31ae      4eb900406a74   jsr fcn.00406a74
       0x006c31b4      5384           subq.l 0x1, d4
       0x006c31b6      25440044       move.l d4, 0x44(a2)
       0x006c31ba      554f           subq.w 0x2, a7
       0x006c31bc      4eb9006ba3c2   jsr USER1_UTILS.udebug_on
       0x006c31c2      4a1f           tst.b (a7)+
   < 0x006c31c4      670000ba       beq.w 0x6c3280
      0x006c31c8      9ec6           suba.w d6, a7
      0x006c31ca      142e0008       move.b 0x8(a6), d2
      0x006c31ce      4882           ext.w d2
      0x006c31d0      45bc0004       chk.w 0x4, d2
      0x006c31d4      1f02           move.b d2, -(a7)
      0x006c31d6      4eb9006b8e28   jsr USER1_UTILS.scope_str
      0x006c31dc      544f           addq.w 0x2, a7
      0x006c31de      487a8aaf       pea.l 0x6bbc8f(pc)
      0x006c31e2      48780006       pea.l 0x6
      0x006c31e6      2f17           move.l (a7), -(a7)
      0x006c31e8      4e93           jsr (a3)                    ; fcn.0000000c
      0x006c31ea      dec5           adda.w d5, a7
      0x006c31ec      486f0001       pea.l 0x1(a7)
      0x006c31f0      42a7           clr.l -(a7)
      0x006c31f2      1f6f00080003   move.b 0x8(a7), 0x3(a7)
      0x006c31f8      2f17           move.l (a7), -(a7)
      0x006c31fa      4e93           jsr (a3)                    ; fcn.0000000c
      0x006c31fc      defc010c       adda.w 0x10c, a7
      0x006c3200      487a8a94       pea.l 0x6bbc96(pc)
      0x006c3204      4878000c       pea.l 0xc
      0x006c3208      2f17           move.l (a7), -(a7)
      0x006c320a      4e93           jsr (a3)                    ; fcn.0000000c
      0x006c320c      504f           addq.w 0x8, a7
      0x006c320e      2eae000c       move.l 0xc(a6), (a7)
      0x006c3212      4878ffff       pea.l 0xffff
      0x006c3216      4e94           jsr (a4)                    ; fcn.0000000d
      0x006c3218      504f           addq.w 0x8, a7
      0x006c321a      487a8a87       pea.l 0x6bbca3(pc)
      0x006c321e      48780007       pea.l 0x7
      0x006c3222      2f17           move.l (a7), -(a7)
      0x006c3224      4e93           jsr (a3)                    ; fcn.0000000c
      0x006c3226      504f           addq.w 0x8, a7
      0x006c3228      2eb11810       move.l 0x10(a1, d1.l), (a7)
      0x006c322c      48780000       pea.l 0x0
      0x006c3230      4e94           jsr (a4)                    ; fcn.0000000d
      0x006c3232      504f           addq.w 0x8, a7
      0x006c3234      4eb900404946   jsr p_wtln_o
      0x006c323a      24680172       movea.l 0x172(a0), a2
      0x006c323e      b5eafffc       cmpa.l -0x4(a2), a2
  < 0x006c3242      6702           beq.b 0x6c3246
     0x006c3244      4e4d           trap 0xd
  > 0x006c3246      487a8a63       pea.l 0x6bbcab(pc)
      0x006c324a      4878000f       pea.l 0xf
      0x006c324e      2f17           move.l (a7), -(a7)
      0x006c3250      4e93           jsr (a3)                    ; fcn.0000000c
      0x006c3252      504f           addq.w 0x8, a7
      0x006c3254      2eaa0040       move.l 0x40(a2), (a7)
      0x006c3258      48780000       pea.l 0x0
      0x006c325c      4e94           jsr (a4)                    ; fcn.0000000d
      0x006c325e      504f           addq.w 0x8, a7
      0x006c3260      487a8a59       pea.l 0x6bbcbb(pc)
      0x006c3264      48780007       pea.l 0x7
      0x006c3268      2f17           move.l (a7), -(a7)
      0x006c326a      4e93           jsr (a3)                    ; fcn.0000000c
      0x006c326c      504f           addq.w 0x8, a7
      0x006c326e      2eaa0044       move.l 0x44(a2), (a7)
   > 0x006c3272      48780000       pea.l 0x0
       0x006c3276      4e94           jsr (a4)                    ; fcn.0000000d
       0x006c3278      504f           addq.w 0x8, a7
  > 0x006c327a      4eb900404946   jsr p_wtln_o
    > 0x006c3280      4cdf1fff       movem.l (a7)+, d0-d7/a0-a4
           0x006c3284      4e5e           unlk a6
           0x006c3286      4e75           rts
            ; CALL XREF from USER2_DISK.update_drivesta @ 0x6c454c
            ; CALL XREFS from USER2_DISK.init_user @ 0x6c55ce, 0x6c55d8, 0x6c55e2
            ; CALL XREF from USER2_DISK.sort_rem_list_c @ 0x6c5734
 406: USER2_DISK.sort_drive_list ();
           ; var int32_t var_44h @ a6-0x44
           ; var int32_t var_4h @ a6-0x4
           0x006c3288      4e56ff78       link.w a6, 0xff78
           0x006c328c      bfd5           cmpa.l (a5), a7
       < 0x006c328e      6206           bhi.b 0x6c3296
          0x006c3290      44fc0002       move.w 0x2, ccr
          0x006c3294      4e76           trapv
       > 0x006c3296      defc0044       adda.w 0x44, a7
           0x006c329a      48e7fff8       movem.l d0-d7/a0-a4, -(a7)
           0x006c329e      47f90085519a   lea.l 0x85519a, a3
           0x006c32a4      49ee0008       lea.l 0x8(a6), a4
           0x006c32a8      761e           moveq 0x1e, d3
           0x006c32aa      78ff           moveq 0xff, d4
           0x006c32ac      554f           subq.w 0x2, a7
           0x006c32ae      1f14           move.b (a4), -(a7)
           0x006c32b0      4eb9006ba282   jsr USER1_UTILS.scope_ok
           0x006c32b6      544f           addq.w 0x2, a7
           0x006c32b8      1017           move.b (a7), d0
           0x006c32ba      4880           ext.w d0
           0x006c32bc      41bc0001       chk.w 0x1, d0
           0x006c32c0      1e80           move.b d0, (a7)
           0x006c32c2      4eb90040452a   jsr p_Assert
           0x006c32c8      544f           addq.w 0x2, a7
           0x006c32ca      4a790085621a   tst.w 0x85621a
       < 0x006c32d0      6f20           ble.b 0x6c32f2
          0x006c32d2      487a89ef       pea.l 0x6bbcc3(pc)
          0x006c32d6      48780018       pea.l 0x18
          0x006c32da      2f17           move.l (a7), -(a7)
          0x006c32dc      4eb9004047ea   jsr p_wts_o
          0x006c32e2      defc000c       adda.w 0xc, a7
          0x006c32e6      4eb900404946   jsr p_wtln_o
          0x006c32ec      4eb900401620   jsr p_walkback
       > 0x006c32f2      1014           move.b (a4), d0
           0x006c32f4      4880           ext.w d0
           0x006c32f6      013a89e4       btst.l d0, 0x6bbcdc(pc)
       < 0x006c32fa      6720           beq.b 0x6c331c
          0x006c32fc      7248           moveq 0x48, d1
          0x006c32fe      c3c0           muls.w d0, d1
          0x006c3300      204b           movea.l a3, a0
          0x006c3302      2a301046       move.l 0x46(a0, d1.w), d5
          0x006c3306      43eeffbc       lea.l -0x44(a6), a1
          0x006c330a      45f01016       lea.l 0x16(a0, d1.w), a2
          0x006c330e      742f           moveq 0x2f, d2
      > 0x006c3310      12da           move.b (a2)+, (a1)+
      < 0x006c3312      51cafffc       dbra d2, 0x6c3310
          0x006c3316      4870100a       pea.l 0xa(a0, d1.w)
      < 0x006c331a      6078           bra.b 0x6c3394
      > 0x006c331c      4280           clr.l d0
          0x006c331e      102e000a       move.b 0xa(a6), d0
          0x006c3322      5340           subq.w 0x1, d0
          0x006c3324      4183           chk.w d3, d0
          0x006c3326      c1fc007c       muls.w 0x7c, d0
          0x006c332a      4281           clr.l d1
          0x006c332c      122e000b       move.b 0xb(a6), d1
          0x006c3330      5341           subq.w 0x1, d1
          0x006c3332      4383           chk.w d3, d1
          0x006c3334      e541           asl.w 0x2, d1
          0x006c3336      204b           movea.l a3, a0
          0x006c3338      41f00000       lea.l (a0, d0.w), a0
          0x006c333c      41f01000       lea.l (a0, d1.w), a0
          0x006c3340      20680172       movea.l 0x172(a0), a0
          0x006c3344      b0fc0001       cmpa.w 0x1, a0
      < 0x006c3348      6604           bne.b 0x6c334e
         0x006c334a      7a00           moveq 0x0, d5
     < 0x006c334c      604c           bra.b 0x6c339a
     > 0x006c334e      4280           clr.l d0
         0x006c3350      102e000b       move.b 0xb(a6), d0
         0x006c3354      5340           subq.w 0x1, d0
         0x006c3356      4183           chk.w d3, d0
         0x006c3358      e540           asl.w 0x2, d0
         0x006c335a      4281           clr.l d1
         0x006c335c      122e000a       move.b 0xa(a6), d1
         0x006c3360      5341           subq.w 0x1, d1
         0x006c3362      4383           chk.w d3, d1
         0x006c3364      c3fc007c       muls.w 0x7c, d1
         0x006c3368      204b           movea.l a3, a0
         0x006c336a      41f01000       lea.l (a0, d1.w), a0
         0x006c336e      41f00000       lea.l (a0, d0.w), a0
         0x006c3372      20680172       movea.l 0x172(a0), a0
         0x006c3376      b1e8fffc       cmpa.l -0x4(a0), a0
     < 0x006c337a      6702           beq.b 0x6c337e
        0x006c337c      4e4d           trap 0xd
     > 0x006c337e      2a28003c       move.l 0x3c(a0), d5
         0x006c3382      43eeffbc       lea.l -0x44(a6), a1
         0x006c3386      45e8000c       lea.l 0xc(a0), a2
         0x006c338a      702f           moveq 0x2f, d0
     > 0x006c338c      12da           move.b (a2)+, (a1)+
     < 0x006c338e      51c8fffc       dbra d0, 0x6c338c
         0x006c3392      4850           pea.l (a0)
     > 0x006c3394      4eba98ae       jsr USER2_DISK.clear_exch_list(pc)
          0x006c3398      584f           addq.w 0x4, a7
     > 0x006c339a      4a85           tst.l d5
       < 0x006c339c      6f78           ble.b 0x6c3416
      > 0x006c339e      1d7c0008fffb   move.b 0x8, -0x5(a6)
         0x006c33a4      1d7c0008fffa   move.b 0x8, -0x6(a6)
         0x006c33aa      7eff           moveq 0xff, d7
         0x006c33ac      7c01           moveq 0x1, d6
     > 0x006c33ae      bc85           cmp.l d5, d6
    < 0x006c33b0      6e3c           bgt.b 0x6c33ee
       0x006c33b2      2006           move.l d6, d0
       0x006c33b4      5380           subq.l 0x1, d0
       0x006c33b6      0c8000000005   cmpi.l 0x5, d0
   < 0x006c33bc      6302           bls.b 0x6c33c0
      0x006c33be      4e4f           trap 0xf
   > 0x006c33c0      e780           asl.l 0x3, d0
       0x006c33c2      2d7608bcfffc   move.l -0x44(a6, d0.l), -0x4(a6)
       0x006c33c8      102efffe       move.b -0x2(a6), d0
       0x006c33cc      b02efffa       cmp.b -0x6(a6), d0
   < 0x006c33d0      6510           bcs.b 0x6c33e2
      0x006c33d2      b02efffa       cmp.b -0x6(a6), d0
  < 0x006c33d6      6612           bne.b 0x6c33ea
     0x006c33d8      102effff       move.b -0x1(a6), d0
     0x006c33dc      b02efffb       cmp.b -0x5(a6), d0
 < 0x006c33e0      6408           bcc.b 0x6c33ea
 > 0x006c33e2      2e06           move.l d6, d7
     0x006c33e4      2d6efffcfff8   move.l -0x4(a6), -0x8(a6)
 > 0x006c33ea      5286           addq.l 0x1, d6
    < 0x006c33ec      68c0           bvc.b 0x6c33ae
    > 0x006c33ee      be84           cmp.l d4, d7
     < 0x006c33f0      6720           beq.b 0x6c3412
        0x006c33f2      2007           move.l d7, d0
        0x006c33f4      5380           subq.l 0x1, d0
        0x006c33f6      0c8000000005   cmpi.l 0x5, d0
    < 0x006c33fc      6302           bls.b 0x6c3400
       0x006c33fe      4e4f           trap 0xf
    > 0x006c3400      e780           asl.l 0x3, d0
        0x006c3402      2f3608bc       move.l -0x44(a6, d0.l), -(a7)
        0x006c3406      2f14           move.l (a4), -(a7)
        0x006c3408      4ebafa6a       jsr USER2_DISK.add_exch_drive(pc)
        0x006c340c      504f           addq.w 0x8, a7
        0x006c340e      2d8408bc       move.l d4, -0x44(a6, d0.l)
     > 0x006c3412      be84           cmp.l d4, d7
      < 0x006c3414      6688           bne.b 0x6c339e
       > 0x006c3416      4cdf1fff       movem.l (a7)+, d0-d7/a0-a4
           0x006c341a      4e5e           unlk a6
           0x006c341c      4e75           rts
            ; CALL XREF from USER.user_start @ 0x6b75e6
 146: USER2_DISK.sort_exch_list ();
           0x006c341e      4e56ffd6       link.w a6, 0xffd6
           0x006c3422      bfd5           cmpa.l (a5), a7
       < 0x006c3424      6206           bhi.b 0x6c342c
          0x006c3426      44fc0002       move.w 0x2, ccr
          0x006c342a      4e76           trapv
       > 0x006c342c      defc001e       adda.w 0x1e, a7
           0x006c3430      48e78380       movem.l d0/d6-d7/a0, -(a7)
           0x006c3434      41fafe52       lea.l USER2_DISK.sort_drive_list(pc), a0
           0x006c3438      701f           moveq 0x1f, d0
           0x006c343a      4eba940c       jsr USER2_DISK.close_gate(pc)
           0x006c343e      2f3a889e       move.l 0x6bbcde(pc), -(a7)
           0x006c3442      4e90           jsr (a0)                    ; fcn.00000009
           0x006c3444      2eba889c       move.l 0x6bbce2(pc), (a7)
           0x006c3448      4e90           jsr (a0)                    ; fcn.00000009
           0x006c344a      2eba889a       move.l 0x6bbce6(pc), (a7)
           0x006c344e      4e90           jsr (a0)                    ; fcn.00000009
           0x006c3450      584f           addq.w 0x4, a7
           0x006c3452      1d7c0002fff4   move.b 0x2, -0xc(a6)
           0x006c3458      7c01           moveq 0x1, d6
       > 0x006c345a      7e01           moveq 0x1, d7
      > 0x006c345c      554f           subq.w 0x2, a7
         0x006c345e      2f06           move.l d6, -(a7)
         0x006c3460      2f07           move.l d7, -(a7)
         0x006c3462      4eba9550       jsr USER2_DISK.stn_known(pc)
         0x006c3466      504f           addq.w 0x8, a7
         0x006c3468      4a1f           tst.b (a7)+
     < 0x006c346a      6724           beq.b 0x6c3490
        0x006c346c      0c86000000ff   cmpi.l 0xff, d6
    < 0x006c3472      6302           bls.b 0x6c3476
       0x006c3474      4e4f           trap 0xf
    > 0x006c3476      1d46fff6       move.b d6, -0xa(a6)
        0x006c347a      0c87000000ff   cmpi.l 0xff, d7
    < 0x006c3480      6302           bls.b 0x6c3484
       0x006c3482      4e4f           trap 0xf
    > 0x006c3484      1d47fff7       move.b d7, -0x9(a6)
        0x006c3488      2f2efff4       move.l -0xc(a6), -(a7)
        0x006c348c      4e90           jsr (a0)                    ; fcn.00000009
        0x006c348e      584f           addq.w 0x4, a7
     > 0x006c3490      5287           addq.l 0x1, d7
         0x006c3492      be80           cmp.l d0, d7
      < 0x006c3494      6fc6           ble.b 0x6c345c
          0x006c3496      5286           addq.l 0x1, d6
          0x006c3498      bc80           cmp.l d0, d6
       < 0x006c349a      6fbe           ble.b 0x6c345a
           0x006c349c      13fc00010085.  move.b 0x1, 0x85621e.l
           0x006c34a4      4eba9434       jsr USER2_DISK.open_gate(pc)
           0x006c34a8      4cdf01c1       movem.l (a7)+, d0/d6-d7/a0
           0x006c34ac      4e5e           unlk a6
           0x006c34ae      4e75           rts
            ; CALL XREF from USER2_DISK.scan_station_fo @ 0x6c3794
            ; CALL XREF from USER2_DISK.update_drivesta @ 0x6c44fc
 344: USER2_DISK.exch_drive_know ();
           ; var int32_t var_8h @ a7+0x8
           0x006c34b0      4e56feb4       link.w a6, 0xfeb4
           0x006c34b4      bfd5           cmpa.l (a5), a7
       < 0x006c34b6      6206           bhi.b 0x6c34be
          0x006c34b8      44fc0002       move.w 0x2, ccr
          0x006c34bc      4e76           trapv
       > 0x006c34be      defc0146       adda.w 0x146, a7
           0x006c34c2      48e7fff8       movem.l d0-d7/a0-a4, -(a7)
           0x006c34c6      45f90085519a   lea.l 0x85519a, a2
           0x006c34cc      47ee000e       lea.l 0xe(a6), a3
           0x006c34d0      49f9004047ea   lea.l p_wts_o, a4
           0x006c34d6      781e           moveq 0x1e, d4
           0x006c34d8      7a05           moveq 0x5, d5
           0x006c34da      7c00           moveq 0x0, d6
           0x006c34dc      7e01           moveq 0x1, d7
           0x006c34de      102e000c       move.b 0xc(a6), d0
           0x006c34e2      4880           ext.w d0
           0x006c34e4      013a8804       btst.l d0, 0x6bbcea(pc)
       < 0x006c34e8      673e           beq.b 0x6c3528
          0x006c34ea      122e000c       move.b 0xc(a6), d1
          0x006c34ee      4881           ext.w d1
          0x006c34f0      c3fc0048       muls.w 0x48, d1
          0x006c34f4      204a           movea.l a2, a0
      > 0x006c34f6      4a06           tst.b d6
     < 0x006c34f8      66000108       bne.w 0x6c3602
        0x006c34fc      beb01046       cmp.l 0x46(a0, d1.w), d7
    < 0x006c3500      6e000100       bgt.w 0x6c3602
       0x006c3504      2407           move.l d7, d2
       0x006c3506      5382           subq.l 0x1, d2
       0x006c3508      b485           cmp.l d5, d2
   < 0x006c350a      6302           bls.b 0x6c350e
      0x006c350c      4e4f           trap 0xf
   > 0x006c350e      e782           asl.l 0x3, d2
       0x006c3510      43f01000       lea.l (a0, d1.w), a1
       0x006c3514      262e0008       move.l 0x8(a6), d3
       0x006c3518      b6b12816       cmp.l 0x16(a1, d2.l), d3
   < 0x006c351c      6602           bne.b 0x6c3520
      0x006c351e      7c01           moveq 0x1, d6
   > 0x006c3520      5287           addq.l 0x1, d7
    < 0x006c3522      60d2           bra.b 0x6c34f6
     < 0x006c3524      600000dc       bra.w 0x6c3602              ; USER2_DISK.exch_drive_know+0x152
    > 0x006c3528      0c000002       cmpi.b 0x2, d0
    < 0x006c352c      660000b8       bne.w 0x6c35e6
       0x006c3530      4281           clr.l d1
       0x006c3532      1213           move.b (a3), d1
       0x006c3534      5341           subq.w 0x1, d1
       0x006c3536      4384           chk.w d4, d1
       0x006c3538      c3fc007c       muls.w 0x7c, d1
       0x006c353c      4282           clr.l d2
       0x006c353e      142e000f       move.b 0xf(a6), d2
       0x006c3542      5342           subq.w 0x1, d2
       0x006c3544      4584           chk.w d4, d2
       0x006c3546      e542           asl.w 0x2, d2
       0x006c3548      204a           movea.l a2, a0
       0x006c354a      41f01000       lea.l (a0, d1.w), a0
       0x006c354e      41f02000       lea.l (a0, d2.w), a0
       0x006c3552      20680172       movea.l 0x172(a0), a0
       0x006c3556      b0fc0001       cmpa.w 0x1, a0
   < 0x006c355a      6634           bne.b 0x6c3590
      0x006c355c      9efc0100       suba.w 0x100, a7
      0x006c3560      3f13           move.w (a3), -(a7)
      0x006c3562      4eb90066ea9c   jsr N10_UTILS.n_stn_str
      0x006c3568      544f           addq.w 0x2, a7
      0x006c356a      487a8780       pea.l 0x6bbcec(pc)
      0x006c356e      48780025       pea.l 0x25
      0x006c3572      2f17           move.l (a7), -(a7)
      0x006c3574      4e94           jsr (a4)                    ; fcn.0000000d
      0x006c3576      defc000c       adda.w 0xc, a7
      0x006c357a      486f0001       pea.l 0x1(a7)
      0x006c357e      42a7           clr.l -(a7)
      0x006c3580      1f6f00080003   move.b 0x8(a7), 0x3(a7)
      0x006c3586      2f17           move.l (a7), -(a7)
      0x006c3588      4e94           jsr (a4)                    ; fcn.0000000d
      0x006c358a      defc010c       adda.w 0x10c, a7
  < 0x006c358e      606c           bra.b 0x6c35fc
 > 0x006c3590      4281           clr.l d1
     0x006c3592      122e000f       move.b 0xf(a6), d1
     0x006c3596      5341           subq.w 0x1, d1
     0x006c3598      4384           chk.w d4, d1
     0x006c359a      e541           asl.w 0x2, d1
     0x006c359c      4282           clr.l d2
     0x006c359e      1413           move.b (a3), d2
     0x006c35a0      5342           subq.w 0x1, d2
     0x006c35a2      4584           chk.w d4, d2
     0x006c35a4      c5fc007c       muls.w 0x7c, d2
     0x006c35a8      204a           movea.l a2, a0
     0x006c35aa      41f02000       lea.l (a0, d2.w), a0
     0x006c35ae      41f01000       lea.l (a0, d1.w), a0
     0x006c35b2      20680172       movea.l 0x172(a0), a0
     0x006c35b6      b1e8fffc       cmpa.l -0x4(a0), a0
 < 0x006c35ba      6702           beq.b 0x6c35be
    0x006c35bc      4e4d           trap 0xd
 > 0x006c35be      4a06           tst.b d6
 < 0x006c35c0      6640           bne.b 0x6c3602
    0x006c35c2      bea8003c       cmp.l 0x3c(a0), d7
 < 0x006c35c6      6e3a           bgt.b 0x6c3602
    0x006c35c8      2207           move.l d7, d1
    0x006c35ca      5381           subq.l 0x1, d1
    0x006c35cc      b285           cmp.l d5, d1
 < 0x006c35ce      6302           bls.b 0x6c35d2
    0x006c35d0      4e4f           trap 0xf
 > 0x006c35d2      e781           asl.l 0x3, d1
    0x006c35d4      242e0008       move.l 0x8(a6), d2
    0x006c35d8      b4b0180c       cmp.l 0xc(a0, d1.l), d2
 < 0x006c35dc      6602           bne.b 0x6c35e0
    0x006c35de      7c01           moveq 0x1, d6
 > 0x006c35e0      5287           addq.l 0x1, d7
 < 0x006c35e2      60ac           bra.b 0x6c3590
  < 0x006c35e4      601c           bra.b 0x6c3602              ; USER2_DISK.exch_drive_know+0x152
 > 0x006c35e6      0c000003       cmpi.b 0x3, d0
 < 0x006c35ea      6616           bne.b 0x6c3602
    0x006c35ec      487a8724       pea.l 0x6bbd12(pc)
    0x006c35f0      48780027       pea.l 0x27
    0x006c35f4      2f17           move.l (a7), -(a7)
    0x006c35f6      4e94           jsr (a4)                    ; fcn.0000000d
    0x006c35f8      defc000c       adda.w 0xc, a7
 > 0x006c35fc      4eb900404946   jsr p_wtln_o
 > 0x006c3602      1d460010       move.b d6, 0x10(a6)
           0x006c3606      4cdf1fff       movem.l (a7)+, d0-d7/a0-a4
           0x006c360a      4e5e           unlk a6
           0x006c360c      4e75           rts
            ; CALL XREF from USER2_DISK.new_pnet_stn @ 0x6c38c0
            ; CALL XREF from USER2_DISK.init_user @ 0x6c5652
 458: USER2_DISK.scan_station_fo (int32_t arg_9h);
           ; arg int32_t arg_9h @ a6+0x9
           ; var int32_t var_8h @ a7+0x8
           0x006c360e      4e56fe72       link.w a6, 0xfe72
           0x006c3612      bfd5           cmpa.l (a5), a7
       < 0x006c3614      6206           bhi.b 0x6c361c
          0x006c3616      44fc0002       move.w 0x2, ccr
          0x006c361a      4e76           trapv
       > 0x006c361c      defc0144       adda.w 0x144, a7
           0x006c3620      48e7fff8       movem.l d0-d7/a0-a4, -(a7)
           0x006c3624      43f9004047ea   lea.l p_wts_o, a1
           0x006c362a      45eefffe       lea.l -0x2(a6), a2
           0x006c362e      47f90066ea9c   lea.l N10_UTILS.n_stn_str, a3
           0x006c3634      49f900404946   lea.l p_wtln_o, a4
           0x006c363a      740c           moveq 0xc, d2
           0x006c363c      761e           moveq 0x1e, d3
           0x006c363e      7801           moveq 0x1, d4
           0x006c3640      3a3c0100       move.w 0x100, d5
           0x006c3644      14ae000b       move.b 0xb(a6), (a2)
           0x006c3648      1d6e0009ffff   move.b 0x9(a6), -0x1(a6)
           0x006c364e      302e000a       move.w 0xa(a6), d0
           0x006c3652      5340           subq.w 0x1, d0
           0x006c3654      4183           chk.w d3, d0
           0x006c3656      c1fc007c       muls.w 0x7c, d0
           0x006c365a      322e0008       move.w 0x8(a6), d1
           0x006c365e      5341           subq.w 0x1, d1
           0x006c3660      4383           chk.w d3, d1
           0x006c3662      e541           asl.w 0x2, d1
           0x006c3664      41f90085519a   lea.l 0x85519a, a0
           0x006c366a      41f00000       lea.l (a0, d0.w), a0
           0x006c366e      41f01000       lea.l (a0, d1.w), a0
           0x006c3672      20680172       movea.l 0x172(a0), a0
           0x006c3676      b0c4           cmpa.w d4, a0
       < 0x006c3678      6630           bne.b 0x6c36aa
          0x006c367a      9ec5           suba.w d5, a7
          0x006c367c      3f12           move.w (a2), -(a7)
          0x006c367e      4e93           jsr (a3)                    ; fcn.0000000c
          0x006c3680      544f           addq.w 0x2, a7
          0x006c3682      487a86b6       pea.l 0x6bbd3a(pc)
          0x006c3686      4878001e       pea.l 0x1e
          0x006c368a      2f17           move.l (a7), -(a7)
          0x006c368c      4e91           jsr (a1)                    ; fcn.0000000a
          0x006c368e      dec2           adda.w d2, a7
          0x006c3690      486f0001       pea.l 0x1(a7)
          0x006c3694      42a7           clr.l -(a7)
          0x006c3696      1f6f00080003   move.b 0x8(a7), 0x3(a7)
          0x006c369c      2f17           move.l (a7), -(a7)
          0x006c369e      4e91           jsr (a1)                    ; fcn.0000000a
          0x006c36a0      defc010c       adda.w 0x10c, a7
          0x006c36a4      4e94           jsr (a4)                    ; fcn.0000000d
      < 0x006c36a6      60000128       bra.w 0x6c37d0
      > 0x006c36aa      554f           subq.w 0x2, a7
          0x006c36ac      4eb9006ba3c2   jsr USER1_UTILS.udebug_on
          0x006c36b2      4a1f           tst.b (a7)+
      < 0x006c36b4      673a           beq.b 0x6c36f0
         0x006c36b6      9ec5           suba.w d5, a7
         0x006c36b8      3f12           move.w (a2), -(a7)
         0x006c36ba      4e93           jsr (a3)                    ; fcn.0000000c
         0x006c36bc      544f           addq.w 0x2, a7
         0x006c36be      487a8699       pea.l 0x6bbd59(pc)
         0x006c36c2      4878000d       pea.l 0xd
         0x006c36c6      2f17           move.l (a7), -(a7)
         0x006c36c8      4e91           jsr (a1)                    ; fcn.0000000a
         0x006c36ca      dec2           adda.w d2, a7
         0x006c36cc      486f0001       pea.l 0x1(a7)
         0x006c36d0      42a7           clr.l -(a7)
         0x006c36d2      1f6f00080003   move.b 0x8(a7), 0x3(a7)
         0x006c36d8      2f17           move.l (a7), -(a7)
         0x006c36da      4e91           jsr (a1)                    ; fcn.0000000a
         0x006c36dc      defc010c       adda.w 0x10c, a7
         0x006c36e0      487a8685       pea.l 0x6bbd67(pc)
         0x006c36e4      48780011       pea.l 0x11
         0x006c36e8      2f17           move.l (a7), -(a7)
         0x006c36ea      4e91           jsr (a1)                    ; fcn.0000000a
         0x006c36ec      dec2           adda.w d2, a7
         0x006c36ee      4e94           jsr (a4)                    ; fcn.0000000d
      > 0x006c36f0      594f           subq.w 0x4, a7
          0x006c36f2      3f12           move.w (a2), -(a7)
          0x006c36f4      486effbe       pea.l -0x42(a6)
          0x006c36f8      3f04           move.w d4, -(a7)
          0x006c36fa      3f3c0010       move.w 0x10, -(a7)
          0x006c36fe      4eb90066d486   jsr N5_PICTURENET.n5_list_drives
          0x006c3704      defc000a       adda.w 0xa, a7
          0x006c3708      2c17           move.l (a7), d6
          0x006c370a      544f           addq.w 0x2, a7
          0x006c370c      4eb9006ba3c2   jsr USER1_UTILS.udebug_on
          0x006c3712      4a1f           tst.b (a7)+
      < 0x006c3714      673a           beq.b 0x6c3750
         0x006c3716      9ec5           suba.w d5, a7
         0x006c3718      3f12           move.w (a2), -(a7)
         0x006c371a      4e93           jsr (a3)                    ; fcn.0000000c
         0x006c371c      544f           addq.w 0x2, a7
         0x006c371e      2f06           move.l d6, -(a7)
         0x006c3720      48780000       pea.l 0x0
         0x006c3724      4eb9004070e4   jsr p_wti_o
         0x006c372a      504f           addq.w 0x8, a7
         0x006c372c      487a864b       pea.l 0x6bbd79(pc)
         0x006c3730      48780013       pea.l 0x13
         0x006c3734      2f17           move.l (a7), -(a7)
         0x006c3736      4e91           jsr (a1)                    ; fcn.0000000a
         0x006c3738      dec2           adda.w d2, a7
         0x006c373a      486f0001       pea.l 0x1(a7)
         0x006c373e      42a7           clr.l -(a7)
         0x006c3740      1f6f00080003   move.b 0x8(a7), 0x3(a7)
         0x006c3746      2f17           move.l (a7), -(a7)
         0x006c3748      4e91           jsr (a1)                    ; fcn.0000000a
         0x006c374a      defc010c       adda.w 0x10c, a7
         0x006c374e      4e94           jsr (a4)                    ; fcn.0000000d
      > 0x006c3750      7e01           moveq 0x1, d7
      > 0x006c3752      be86           cmp.l d6, d7
     < 0x006c3754      6e7a           bgt.b 0x6c37d0
        0x006c3756      2007           move.l d7, d0
        0x006c3758      5380           subq.l 0x1, d0
        0x006c375a      0c800000000f   cmpi.l 0xf, d0
    < 0x006c3760      6302           bls.b 0x6c3764
       0x006c3762      4e4f           trap 0xf
    > 0x006c3764      e580           asl.l 0x2, d0
        0x006c3766      554f           subq.w 0x2, a7
        0x006c3768      2f3608be       move.l -0x42(a6, d0.l), -(a7)
        0x006c376c      4eba9fd4       jsr USER2_DISK.drive_removeabl(pc)
        0x006c3770      584f           addq.w 0x4, a7
        0x006c3772      4a1f           tst.b (a7)+
    < 0x006c3774      673e           beq.b 0x6c37b4
       0x006c3776      554f           subq.w 0x2, a7
       0x006c3778      2f3608be       move.l -0x42(a6, d0.l), -(a7)
       0x006c377c      4ebaa2e0       jsr USER2_DISK.nums_on_drive(pc)
       0x006c3780      584f           addq.w 0x4, a7
       0x006c3782      4a1f           tst.b (a7)+
   < 0x006c3784      672e           beq.b 0x6c37b4
      0x006c3786      5d4f           subq.w 0x6, a7
      0x006c3788      2f3608be       move.l -0x42(a6, d0.l), -(a7)
      0x006c378c      4ebaa1d2       jsr USER2_DISK.drive_region(pc)
      0x006c3790      2eb608be       move.l -0x42(a6, d0.l), (a7)
      0x006c3794      4ebafd1a       jsr USER2_DISK.exch_drive_know(pc)
      0x006c3798      504f           addq.w 0x8, a7
      0x006c379a      4a1f           tst.b (a7)+
  < 0x006c379c      6616           bne.b 0x6c37b4
     0x006c379e      2f3608be       move.l -0x42(a6, d0.l), -(a7)
     0x006c37a2      594f           subq.w 0x4, a7
     0x006c37a4      2f3608be       move.l -0x42(a6, d0.l), -(a7)
     0x006c37a8      4ebaa1b6       jsr USER2_DISK.drive_region(pc)
     0x006c37ac      584f           addq.w 0x4, a7
     0x006c37ae      4ebaf6c4       jsr USER2_DISK.add_exch_drive(pc)
     0x006c37b2      504f           addq.w 0x8, a7
  > 0x006c37b4      554f           subq.w 0x2, a7
        0x006c37b6      4eb9006ba3c2   jsr USER1_UTILS.udebug_on
        0x006c37bc      4a1f           tst.b (a7)+
    < 0x006c37be      670c           beq.b 0x6c37cc
       0x006c37c0      2f3608be       move.l -0x42(a6, d0.l), -(a7)
       0x006c37c4      4eb9006b8448   jsr USER1_UTILS.show_drive
       0x006c37ca      584f           addq.w 0x4, a7
    > 0x006c37cc      5287           addq.l 0x1, d7
     < 0x006c37ce      6882           bvc.b 0x6c3752
     > 0x006c37d0      4cdf1fff       movem.l (a7)+, d0-d7/a0-a4
           0x006c37d4      4e5e           unlk a6
           0x006c37d6      4e75           rts
            ; CALL XREF from USER2_DISK.set_pnet_volume @ 0x6c3966
            ; CALL XREF from USER2_DISK.update_drivesta @ 0x6c41f4
 246: USER2_DISK.new_pnet_stn ();
           ; var int32_t var_8h @ a7+0x8
           0x006c37d8      4e56febc       link.w a6, 0xfebc
           0x006c37dc      bfd5           cmpa.l (a5), a7
       < 0x006c37de      6206           bhi.b 0x6c37e6
          0x006c37e0      44fc0002       move.w 0x2, ccr
          0x006c37e4      4e76           trapv
       > 0x006c37e6      defc0144       adda.w 0x144, a7
           0x006c37ea      48e7fcf0       movem.l d0-d5/a0-a3, -(a7)
           0x006c37ee      45f9004047ea   lea.l p_wts_o, a2
           0x006c37f4      47ee0008       lea.l 0x8(a6), a3
           0x006c37f8      781e           moveq 0x1e, d4
           0x006c37fa      7a0c           moveq 0xc, d5
           0x006c37fc      4280           clr.l d0
           0x006c37fe      102e0009       move.b 0x9(a6), d0
           0x006c3802      3200           move.w d0, d1
           0x006c3804      5341           subq.w 0x1, d1
           0x006c3806      4384           chk.w d4, d1
           0x006c3808      e541           asl.w 0x2, d1
           0x006c380a      4282           clr.l d2
           0x006c380c      1413           move.b (a3), d2
           0x006c380e      3602           move.w d2, d3
           0x006c3810      5343           subq.w 0x1, d3
           0x006c3812      4784           chk.w d4, d3
           0x006c3814      c7fc007c       muls.w 0x7c, d3
           0x006c3818      41f90085519a   lea.l 0x85519a, a0
           0x006c381e      41f03000       lea.l (a0, d3.w), a0
           0x006c3822      41f01000       lea.l (a0, d1.w), a0
           0x006c3826      48680172       pea.l 0x172(a0)
           0x006c382a      48780048       pea.l 0x48
           0x006c382e      4eb900403a92   jsr p_New
           0x006c3834      504f           addq.w 0x8, a7
           0x006c3836      22680172       movea.l 0x172(a0), a1
           0x006c383a      b2fc0001       cmpa.w 0x1, a1
       < 0x006c383e      6638           bne.b 0x6c3878
          0x006c3840      9efc0100       suba.w 0x100, a7
          0x006c3844      3f13           move.w (a3), -(a7)
          0x006c3846      4eb90066ea9c   jsr N10_UTILS.n_stn_str
          0x006c384c      544f           addq.w 0x2, a7
          0x006c384e      487a853d       pea.l 0x6bbd8d(pc)
          0x006c3852      4878002c       pea.l 0x2c
          0x006c3856      2f17           move.l (a7), -(a7)
          0x006c3858      4e92           jsr (a2)                    ; fcn.00000009+0x2
          0x006c385a      dec5           adda.w d5, a7
          0x006c385c      486f0001       pea.l 0x1(a7)
          0x006c3860      42a7           clr.l -(a7)
          0x006c3862      1f6f00080003   move.b 0x8(a7), 0x3(a7)
          0x006c3868      2f17           move.l (a7), -(a7)
          0x006c386a      4e92           jsr (a2)                    ; fcn.00000009+0x2
          0x006c386c      defc010c       adda.w 0x10c, a7
          0x006c3870      4eb900404946   jsr p_wtln_o
      < 0x006c3876      604e           bra.b 0x6c38c6
      > 0x006c3878      b3e9fffc       cmpa.l -0x4(a1), a1
      < 0x006c387c      6702           beq.b 0x6c3880
         0x006c387e      4e4d           trap 0xd
      > 0x006c3880      4851           pea.l (a1)
          0x006c3882      4eba9426       jsr USER2_DISK.clr_drive_data(pc)
          0x006c3886      9efc00fc       suba.w 0xfc, a7
          0x006c388a      3f13           move.w (a3), -(a7)
          0x006c388c      4eb90066ea9c   jsr N10_UTILS.n_stn_str
          0x006c3892      544f           addq.w 0x2, a7
          0x006c3894      487a8524       pea.l 0x6bbdba(pc)
          0x006c3898      4878001c       pea.l 0x1c
          0x006c389c      2f17           move.l (a7), -(a7)
          0x006c389e      4e92           jsr (a2)                    ; fcn.00000009+0x2
          0x006c38a0      dec5           adda.w d5, a7
          0x006c38a2      486f0001       pea.l 0x1(a7)
          0x006c38a6      42a7           clr.l -(a7)
          0x006c38a8      1f6f00080003   move.b 0x8(a7), 0x3(a7)
          0x006c38ae      2f17           move.l (a7), -(a7)
          0x006c38b0      4e92           jsr (a2)                    ; fcn.00000009+0x2
          0x006c38b2      defc010c       adda.w 0x10c, a7
          0x006c38b6      4eb900404946   jsr p_wtln_o
          0x006c38bc      3f02           move.w d2, -(a7)
          0x006c38be      3f00           move.w d0, -(a7)
          0x006c38c0      4ebafd4c       jsr USER2_DISK.scan_station_fo(pc)
          0x006c38c4      584f           addq.w 0x4, a7
      > 0x006c38c6      4cdf0f3f       movem.l (a7)+, d0-d5/a0-a3
           0x006c38ca      4e5e           unlk a6
           0x006c38cc      4e75           rts
            ; CALL XREF from USER2_DISK.update_drivesta @ 0x6c4360
            ; CALL XREF from USER2_DISK.init_user @ 0x6c52c8
 394: USER2_DISK.set_pnet_volume (int32_t arg_8h);
           ; arg int32_t arg_8h @ a6+0x8
           ; var int32_t var_8h @ a7+0x8
           0x006c38ce      4e56feae       link.w a6, 0xfeae
           0x006c38d2      bfd5           cmpa.l (a5), a7
       < 0x006c38d4      6206           bhi.b 0x6c38dc
          0x006c38d6      44fc0002       move.w 0x2, ccr
          0x006c38da      4e76           trapv
       > 0x006c38dc      defc014c       adda.w 0x14c, a7
           0x006c38e0      48e7fef8       movem.l d0-d6/a0-a4, -(a7)
           0x006c38e4      45f9004047ea   lea.l p_wts_o, a2
           0x006c38ea      47eefffa       lea.l -0x6(a6), a3
           0x006c38ee      49f9004070e4   lea.l p_wti_o, a4
           0x006c38f4      780c           moveq 0xc, d4
           0x006c38f6      7a1e           moveq 0x1e, d5
           0x006c38f8      7c01           moveq 0x1, d6
           0x006c38fa      4a790085621a   tst.w 0x85621a
       < 0x006c3900      6f1a           ble.b 0x6c391c
          0x006c3902      487a84d3       pea.l 0x6bbdd7(pc)
          0x006c3906      48780018       pea.l 0x18
          0x006c390a      2f17           move.l (a7), -(a7)
          0x006c390c      4e92           jsr (a2)                    ; fcn.00000009+0x2
          0x006c390e      dec4           adda.w d4, a7
          0x006c3910      4eb900404946   jsr p_wtln_o
          0x006c3916      4eb900401620   jsr p_walkback
       > 0x006c391c      2d6e0008fffc   move.l 0x8(a6), -0x4(a6)
           0x006c3922      554f           subq.w 0x2, a7
           0x006c3924      2f2e0008       move.l 0x8(a6), -(a7)
           0x006c3928      4eb90066e8fe   jsr N10_UTILS.n_stn_id
           0x006c392e      584f           addq.w 0x4, a7
           0x006c3930      369f           move.w (a7)+, (a3)
           0x006c3932      4280           clr.l d0
           0x006c3934      102efffb       move.b -0x5(a6), d0
           0x006c3938      3200           move.w d0, d1
           0x006c393a      5341           subq.w 0x1, d1
           0x006c393c      4385           chk.w d5, d1
           0x006c393e      e541           asl.w 0x2, d1
           0x006c3940      4282           clr.l d2
           0x006c3942      1413           move.b (a3), d2
           0x006c3944      3602           move.w d2, d3
           0x006c3946      5343           subq.w 0x1, d3
           0x006c3948      4785           chk.w d5, d3
           0x006c394a      c7fc007c       muls.w 0x7c, d3
           0x006c394e      41f90085519a   lea.l 0x85519a, a0
           0x006c3954      41f03000       lea.l (a0, d3.w), a0
           0x006c3958      41f01000       lea.l (a0, d1.w), a0
           0x006c395c      22680172       movea.l 0x172(a0), a1
           0x006c3960      b2c6           cmpa.w d6, a1
       < 0x006c3962      6608           bne.b 0x6c396c
          0x006c3964      3f13           move.w (a3), -(a7)
          0x006c3966      4ebafe70       jsr USER2_DISK.new_pnet_stn(pc)
          0x006c396a      544f           addq.w 0x2, a7
       > 0x006c396c      554f           subq.w 0x2, a7
           0x006c396e      48c2           ext.l d2
           0x006c3970      2f02           move.l d2, -(a7)
           0x006c3972      48c0           ext.l d0
           0x006c3974      2f00           move.l d0, -(a7)
           0x006c3976      4eba903c       jsr USER2_DISK.stn_known(pc)
           0x006c397a      504f           addq.w 0x8, a7
           0x006c397c      4a1f           tst.b (a7)+
       < 0x006c397e      670000d0       beq.w 0x6c3a50
          0x006c3982      22680172       movea.l 0x172(a0), a1
          0x006c3986      b3e9fffc       cmpa.l -0x4(a1), a1
      < 0x006c398a      6702           beq.b 0x6c398e
         0x006c398c      4e4d           trap 0xd
      > 0x006c398e      4280           clr.l d0
          0x006c3990      102efffe       move.b -0x2(a6), d0
          0x006c3994      3280           move.w d0, (a1)
          0x006c3996      4280           clr.l d0
          0x006c3998      102effff       move.b -0x1(a6), d0
          0x006c399c      33400002       move.w d0, 0x2(a1)
          0x006c39a0      4280           clr.l d0
          0x006c39a2      102efffd       move.b -0x3(a6), d0
          0x006c39a6      ef08           lsl.b 0x7, d0
          0x006c39a8      ee08           lsr.b 0x7, d0
          0x006c39aa      33400008       move.w d0, 0x8(a1)
          0x006c39ae      236e000c0004   move.l 0xc(a6), 0x4(a1)
          0x006c39b4      1346000a       move.b d6, 0xa(a1)
          0x006c39b8      554f           subq.w 0x2, a7
          0x006c39ba      4eb9006ba3c2   jsr USER1_UTILS.udebug_on
          0x006c39c0      4a1f           tst.b (a7)+
      < 0x006c39c2      6700008c       beq.w 0x6c3a50
         0x006c39c6      9efc0100       suba.w 0x100, a7
         0x006c39ca      3f13           move.w (a3), -(a7)
         0x006c39cc      4eb90066ea9c   jsr N10_UTILS.n_stn_str
         0x006c39d2      544f           addq.w 0x2, a7
         0x006c39d4      487a841a       pea.l 0x6bbdf0(pc)
         0x006c39d8      48780014       pea.l 0x14
         0x006c39dc      2f17           move.l (a7), -(a7)
         0x006c39de      4e92           jsr (a2)                    ; fcn.00000009+0x2
         0x006c39e0      dec4           adda.w d4, a7
         0x006c39e2      3011           move.w (a1), d0
         0x006c39e4      48c0           ext.l d0
         0x006c39e6      2f00           move.l d0, -(a7)
         0x006c39e8      48780000       pea.l 0x0
         0x006c39ec      4e94           jsr (a4)                    ; fcn.0000000d
         0x006c39ee      504f           addq.w 0x8, a7
         0x006c39f0      487a8413       pea.l 0x6bbe05(pc)
         0x006c39f4      48780006       pea.l 0x6
         0x006c39f8      2f17           move.l (a7), -(a7)
         0x006c39fa      4e92           jsr (a2)                    ; fcn.00000009+0x2
         0x006c39fc      dec4           adda.w d4, a7
         0x006c39fe      30290008       move.w 0x8(a1), d0
         0x006c3a02      48c0           ext.l d0
         0x006c3a04      2f00           move.l d0, -(a7)
         0x006c3a06      48780000       pea.l 0x0
         0x006c3a0a      4e94           jsr (a4)                    ; fcn.0000000d
         0x006c3a0c      504f           addq.w 0x8, a7
         0x006c3a0e      487a83fc       pea.l 0x6bbe0c(pc)
         0x006c3a12      48780008       pea.l 0x8
         0x006c3a16      2f17           move.l (a7), -(a7)
         0x006c3a18      4e92           jsr (a2)                    ; fcn.00000009+0x2
         0x006c3a1a      504f           addq.w 0x8, a7
         0x006c3a1c      2ea90004       move.l 0x4(a1), (a7)
         0x006c3a20      4878ffff       pea.l 0xffff
         0x006c3a24      4e94           jsr (a4)                    ; fcn.0000000d
         0x006c3a26      504f           addq.w 0x8, a7
         0x006c3a28      487a83eb       pea.l 0x6bbe15(pc)
         0x006c3a2c      4878000d       pea.l 0xd
         0x006c3a30      2f17           move.l (a7), -(a7)
         0x006c3a32      4e92           jsr (a2)                    ; fcn.00000009+0x2
         0x006c3a34      dec4           adda.w d4, a7
         0x006c3a36      486f0001       pea.l 0x1(a7)
         0x006c3a3a      42a7           clr.l -(a7)
         0x006c3a3c      1f6f00080003   move.b 0x8(a7), 0x3(a7)
         0x006c3a42      2f17           move.l (a7), -(a7)
         0x006c3a44      4e92           jsr (a2)                    ; fcn.00000009+0x2
         0x006c3a46      defc010c       adda.w 0x10c, a7
         0x006c3a4a      4eb900404946   jsr p_wtln_o
      > 0x006c3a50      4cdf1f7f       movem.l (a7)+, d0-d6/a0-a4
           0x006c3a54      4e5e           unlk a6
           0x006c3a56      4e75           rts
            ; CALL XREF from USER2_DISK.update_drivesta @ 0x6c4384
            ; CALL XREF from USER2_DISK.init_user @ 0x6c54bc
 284: USER2_DISK.pn_driveup ();
           0x006c3a58      4e56ffd6       link.w a6, 0xffd6
           0x006c3a5c      bfd5           cmpa.l (a5), a7
       < 0x006c3a5e      6206           bhi.b 0x6c3a66
          0x006c3a60      44fc0002       move.w 0x2, ccr
          0x006c3a64      4e76           trapv
       > 0x006c3a66      defc002a       adda.w 0x2a, a7
           0x006c3a6a      48e7c0f0       movem.l d0-d1/a0-a3, -(a7)
           0x006c3a6e      41f9004047ea   lea.l p_wts_o, a0
           0x006c3a74      43f9004070e4   lea.l p_wti_o, a1
           0x006c3a7a      45f80002       lea.l 0x2, a2
           0x006c3a7e      47f80000       lea.l 0x0, a3
           0x006c3a82      720c           moveq 0xc, d1
           0x006c3a84      487a839d       pea.l 0x6bbe23(pc)
           0x006c3a88      4878000f       pea.l 0xf
           0x006c3a8c      2f17           move.l (a7), -(a7)
           0x006c3a8e      4e90           jsr (a0)                    ; fcn.00000009
           0x006c3a90      dec1           adda.w d1, a7
           0x006c3a92      302e000a       move.w 0xa(a6), d0
           0x006c3a96      48c0           ext.l d0
           0x006c3a98      2f00           move.l d0, -(a7)
           0x006c3a9a      4852           pea.l (a2)
           0x006c3a9c      4e91           jsr (a1)                    ; fcn.0000000a
           0x006c3a9e      5c4f           addq.w 0x6, a7
           0x006c3aa0      1ebc002d       move.b 0x2d, (a7)
           0x006c3aa4      48780001       pea.l 0x1
           0x006c3aa8      4eb9004048b4   jsr p_wtc_o
           0x006c3aae      5c4f           addq.w 0x6, a7
           0x006c3ab0      302e0008       move.w 0x8(a6), d0
           0x006c3ab4      48c0           ext.l d0
           0x006c3ab6      2f00           move.l d0, -(a7)
           0x006c3ab8      4852           pea.l (a2)
           0x006c3aba      4e91           jsr (a1)                    ; fcn.0000000a
           0x006c3abc      504f           addq.w 0x8, a7
           0x006c3abe      487a8373       pea.l 0x6bbe33(pc)
           0x006c3ac2      48780016       pea.l 0x16
           0x006c3ac6      2f17           move.l (a7), -(a7)
           0x006c3ac8      4e90           jsr (a0)                    ; fcn.00000009
           0x006c3aca      dec1           adda.w d1, a7
           0x006c3acc      4a6e0014       tst.w 0x14(a6)
       < 0x006c3ad0      660e           bne.b 0x6c3ae0
          0x006c3ad2      487a8376       pea.l 0x6bbe4a(pc)
          0x006c3ad6      4852           pea.l (a2)
          0x006c3ad8      2f17           move.l (a7), -(a7)
      > 0x006c3ada      4e90           jsr (a0)                    ; fcn.00000009
         0x006c3adc      dec1           adda.w d1, a7
     < 0x006c3ade      602e           bra.b 0x6c3b0e
     > 0x006c3ae0      302e0014       move.w 0x14(a6), d0
         0x006c3ae4      0c400001       cmpi.w 0x1, d0
     < 0x006c3ae8      660a           bne.b 0x6c3af4
        0x006c3aea      487a8361       pea.l 0x6bbe4d(pc)
        0x006c3aee      4852           pea.l (a2)
        0x006c3af0      2f17           move.l (a7), -(a7)
     < 0x006c3af2      60e6           bra.b 0x6c3ada
      > 0x006c3af4      48c0           ext.l d0
          0x006c3af6      2f00           move.l d0, -(a7)
          0x006c3af8      4853           pea.l (a3)
          0x006c3afa      4e91           jsr (a1)                    ; fcn.0000000a
          0x006c3afc      5c4f           addq.w 0x6, a7
          0x006c3afe      1ebc003a       move.b 0x3a, (a7)
          0x006c3b02      48780001       pea.l 0x1
          0x006c3b06      4eb9004048b4   jsr p_wtc_o
          0x006c3b0c      5c4f           addq.w 0x6, a7
     > 0x006c3b0e      302e000c       move.w 0xc(a6), d0
           0x006c3b12      48c0           ext.l d0
           0x006c3b14      2f00           move.l d0, -(a7)
           0x006c3b16      4853           pea.l (a3)
           0x006c3b18      4e91           jsr (a1)                    ; fcn.0000000a
           0x006c3b1a      504f           addq.w 0x8, a7
           0x006c3b1c      487a8332       pea.l 0x6bbe50(pc)
           0x006c3b20      4852           pea.l (a2)
           0x006c3b22      2f17           move.l (a7), -(a7)
           0x006c3b24      4e90           jsr (a0)                    ; fcn.00000009
           0x006c3b26      dec1           adda.w d1, a7
           0x006c3b28      302e000e       move.w 0xe(a6), d0
           0x006c3b2c      48c0           ext.l d0
           0x006c3b2e      2f00           move.l d0, -(a7)
           0x006c3b30      4853           pea.l (a3)
           0x006c3b32      4e91           jsr (a1)                    ; fcn.0000000a
           0x006c3b34      504f           addq.w 0x8, a7
           0x006c3b36      487a831b       pea.l 0x6bbe53(pc)
           0x006c3b3a      48780008       pea.l 0x8
           0x006c3b3e      2f17           move.l (a7), -(a7)
           0x006c3b40      4e90           jsr (a0)                    ; fcn.00000009
           0x006c3b42      504f           addq.w 0x8, a7
           0x006c3b44      2eae0010       move.l 0x10(a6), (a7)
           0x006c3b48      4878fff8       pea.l 0xfff8
           0x006c3b4c      4e91           jsr (a1)                    ; fcn.0000000a
           0x006c3b4e      504f           addq.w 0x8, a7
           0x006c3b50      4a2e0016       tst.b 0x16(a6)
       < 0x006c3b54      6702           beq.b 0x6c3b58
      < 0x006c3b56      600e           bra.b 0x6c3b66
      > 0x006c3b58      487a8302       pea.l 0x6bbe5c(pc)
          0x006c3b5c      48780009       pea.l 0x9
          0x006c3b60      2f17           move.l (a7), -(a7)
          0x006c3b62      4e90           jsr (a0)                    ; fcn.00000009
          0x006c3b64      dec1           adda.w d1, a7
      > 0x006c3b66      4eb900404946   jsr p_wtln_o
           0x006c3b6c      4cdf0f03       movem.l (a7)+, d0-d1/a0-a3
           0x006c3b70      4e5e           unlk a6
           0x006c3b72      4e75           rts
            ; CALL XREF from USER2_DISK.drive_update_ta @ 0x6c494e
 3032: USER2_DISK.update_drivesta ();
           ; var int32_t var_126h @ a6-0x126
           ; var int32_t var_8h @ a7+0x8
           0x006c3b74      4e56fd76       link.w a6, 0xfd76
           0x006c3b78      bfd5           cmpa.l (a5), a7
       < 0x006c3b7a      6206           bhi.b 0x6c3b82
          0x006c3b7c      44fc0002       move.w 0x2, ccr
          0x006c3b80      4e76           trapv
       > 0x006c3b82      defc0160       adda.w 0x160, a7
           0x006c3b86      48e7fff8       movem.l d0-d7/a0-a4, -(a7)
           0x006c3b8a      49f9004047ea   lea.l p_wts_o, a4
           0x006c3b90      4227           clr.b -(a7)
           0x006c3b92      4eb9006b96f2   jsr USER1_UTILS.aux_stack_check
           0x006c3b98      544f           addq.w 0x2, a7
           0x006c3b9a      4eba8cac       jsr USER2_DISK.close_gate(pc)
           0x006c3b9e      202e000c       move.l 0xc(a6), d0
           0x006c3ba2      0c8000000001   cmpi.l 0x1, d0
       < 0x006c3ba8      66000a2c       bne.w 0x6c45d6
          0x006c3bac      9efc000c       suba.w 0xc, a7
          0x006c3bb0      2f2e0010       move.l 0x10(a6), -(a7)
          0x006c3bb4      4eb9005fb748   jsr F6_VOLUME.f_vol_status
          0x006c3bba      584f           addq.w 0x4, a7
          0x006c3bbc      2d5ffed6       move.l (a7)+, -0x12a(a6)
          0x006c3bc0      2d5ffeda       move.l (a7)+, -0x126(a6)
          0x006c3bc4      2d57fede       move.l (a7), -0x122(a6)
          0x006c3bc8      2f2e0010       move.l 0x10(a6), -(a7)
          0x006c3bcc      4eba9c5e       jsr USER2_DISK.volume_region(pc)
          0x006c3bd0      584f           addq.w 0x4, a7
          0x006c3bd2      2d5ffffc       move.l (a7)+, -0x4(a6)
          0x006c3bd6      123900856244   move.b 0x856244, d1
          0x006c3bdc      4881           ext.w d1
          0x006c3bde      41fa8286       lea.l 0x6bbe66(pc), a0
          0x006c3be2      3401           move.w d1, d2
          0x006c3be4      e64a           lsr.w 0x3, d2
          0x006c3be6      03302000       btst.l d1, (a0, d2.w)
      < 0x006c3bea      674a           beq.b 0x6c3c36
         0x006c3bec      242e0010       move.l 0x10(a6), d2
         0x006c3bf0      b4b9008551a8   cmp.l 0x8551a8, d2
     < 0x006c3bf6      663e           bne.b 0x6c3c36
        0x006c3bf8      4a39008551ae   tst.b 0x8551ae
    < 0x006c3bfe      670a           beq.b 0x6c3c0a
       0x006c3c00      487a8267       pea.l 0x6bbe69(pc)
       0x006c3c04      48780030       pea.l 0x30
   < 0x006c3c08      6008           bra.b 0x6c3c12
   > 0x006c3c0a      487a828e       pea.l 0x6bbe9a(pc)
       0x006c3c0e      48780016       pea.l 0x16
   > 0x006c3c12      2f17           move.l (a7), -(a7)
        0x006c3c14      4e94           jsr (a4)                    ; fcn.0000000d
        0x006c3c16      defc000c       adda.w 0xc, a7
        0x006c3c1a      4eb900404946   jsr p_wtln_o
        0x006c3c20      13fc00010085.  move.b 0x1, 0x8551ae.l
        0x006c3c28      23f9008551a8.  move.l 0x8551a8, 0x85519a.l
    < 0x006c3c32      60000878       bra.w 0x6c44ac
    > 0x006c3c36      41fa8278       lea.l 0x6bbeb0(pc), a0
         0x006c3c3a      3401           move.w d1, d2
         0x006c3c3c      e64a           lsr.w 0x3, d2
         0x006c3c3e      03302000       btst.l d1, (a0, d2.w)
     < 0x006c3c42      6700025a       beq.w 0x6c3e9e
        0x006c3c46      142efffc       move.b -0x4(a6), d2
        0x006c3c4a      0c020001       cmpi.b 0x1, d2
    < 0x006c3c4e      6600024e       bne.w 0x6c3e9e
       0x006c3c52      4ab9008551f0   tst.l 0x8551f0
   < 0x006c3c58      66000140       bne.w 0x6c3d9a
      0x006c3c5c      554f           subq.w 0x2, a7
      0x006c3c5e      4eb9006ba3c2   jsr USER1_UTILS.udebug_on
      0x006c3c64      4a1f           tst.b (a7)+
  < 0x006c3c66      6716           beq.b 0x6c3c7e
     0x006c3c68      487a8249       pea.l 0x6bbeb3(pc)
     0x006c3c6c      4878002c       pea.l 0x2c
     0x006c3c70      2f17           move.l (a7), -(a7)
     0x006c3c72      4e94           jsr (a4)                    ; fcn.0000000d
     0x006c3c74      defc000c       adda.w 0xc, a7
     0x006c3c78      4eb900404946   jsr p_wtln_o
  > 0x006c3c7e      554f           subq.w 0x2, a7
      0x006c3c80      2f2e0010       move.l 0x10(a6), -(a7)
      0x006c3c84      2f3a825a       move.l 0x6bbee0(pc), -(a7)
      0x006c3c88      4eba95cc       jsr USER2_DISK.volume_suitable(pc)
      0x006c3c8c      504f           addq.w 0x8, a7
      0x006c3c8e      4a1f           tst.b (a7)+
  < 0x006c3c90      67000082       beq.w 0x6c3d14
     0x006c3c94      2d6efedaffee   move.l -0x126(a6), -0x12(a6)
     0x006c3c9a      4a2efff0       tst.b -0x10(a6)
 < 0x006c3c9e      6616           bne.b 0x6c3cb6
    0x006c3ca0      4a2efff1       tst.b -0xf(a6)
 < 0x006c3ca4      6610           bne.b 0x6c3cb6
    0x006c3ca6      2f2e0010       move.l 0x10(a6), -(a7)
    0x006c3caa      2f2effee       move.l -0x12(a6), -(a7)
    0x006c3cae      4ebad790       jsr USER2_DISK.set_public_volu(pc)
    0x006c3cb2      504f           addq.w 0x8, a7
 < 0x006c3cb4      605e           bra.b 0x6c3d14
 > 0x006c3cb6      487a822d       pea.l 0x6bbee5(pc)
     0x006c3cba      48780025       pea.l 0x25
     0x006c3cbe      2f17           move.l (a7), -(a7)
     0x006c3cc0      4e94           jsr (a4)                    ; fcn.0000000d
     0x006c3cc2      defc000c       adda.w 0xc, a7
     0x006c3cc6      4282           clr.l d2
     0x006c3cc8      142efff0       move.b -0x10(a6), d2
     0x006c3ccc      2f02           move.l d2, -(a7)
     0x006c3cce      48780000       pea.l 0x0
     0x006c3cd2      4eb9004070e4   jsr p_wti_o
     0x006c3cd8      5c4f           addq.w 0x6, a7
     0x006c3cda      1ebc002f       move.b 0x2f, (a7)
     0x006c3cde      48780001       pea.l 0x1
     0x006c3ce2      4eb9004048b4   jsr p_wtc_o
     0x006c3ce8      5c4f           addq.w 0x6, a7
     0x006c3cea      4282           clr.l d2
     0x006c3cec      142efff1       move.b -0xf(a6), d2
     0x006c3cf0      2f02           move.l d2, -(a7)
     0x006c3cf2      48780000       pea.l 0x0
     0x006c3cf6      4eb9004070e4   jsr p_wti_o
     0x006c3cfc      504f           addq.w 0x8, a7
     0x006c3cfe      487a820b       pea.l 0x6bbf0b(pc)
     0x006c3d02      4878002d       pea.l 0x2d
     0x006c3d06      2f17           move.l (a7), -(a7)
     0x006c3d08      4e94           jsr (a4)                    ; fcn.0000000d
     0x006c3d0a      defc000c       adda.w 0xc, a7
     0x006c3d0e      4eb900404946   jsr p_wtln_o
 > 0x006c3d14      4ab9008551f0   tst.l 0x8551f0
  < 0x006c3d1a      660e           bne.b 0x6c3d2a
     0x006c3d1c      487a821b       pea.l 0x6bbf39(pc)
     0x006c3d20      48780014       pea.l 0x14
 > 0x006c3d24      2f17           move.l (a7), -(a7)
 < 0x006c3d26      60000778       bra.w 0x6c44a0
 > 0x006c3d2a      487a8222       pea.l 0x6bbf4e(pc)
     0x006c3d2e      4878001e       pea.l 0x1e
     0x006c3d32      2f17           move.l (a7), -(a7)
     0x006c3d34      4e94           jsr (a4)                    ; fcn.0000000d
     0x006c3d36      defc000c       adda.w 0xc, a7
     0x006c3d3a      3439008551ec   move.w 0x8551ec, d2
     0x006c3d40      48c2           ext.l d2
     0x006c3d42      2f02           move.l d2, -(a7)
     0x006c3d44      48780000       pea.l 0x0
     0x006c3d48      4eb9004070e4   jsr p_wti_o
     0x006c3d4e      504f           addq.w 0x8, a7
     0x006c3d50      487a821b       pea.l 0x6bbf6d(pc)
     0x006c3d54      48780006       pea.l 0x6
     0x006c3d58      2f17           move.l (a7), -(a7)
     0x006c3d5a      4e94           jsr (a4)                    ; fcn.0000000d
     0x006c3d5c      defc000c       adda.w 0xc, a7
     0x006c3d60      3439008551ee   move.w 0x8551ee, d2
     0x006c3d66      48c2           ext.l d2
     0x006c3d68      2f02           move.l d2, -(a7)
     0x006c3d6a      48780000       pea.l 0x0
     0x006c3d6e      4eb9004070e4   jsr p_wti_o
     0x006c3d74      504f           addq.w 0x8, a7
     0x006c3d76      487a81fc       pea.l 0x6bbf74(pc)
     0x006c3d7a      48780006       pea.l 0x6
     0x006c3d7e      2f17           move.l (a7), -(a7)
     0x006c3d80      4e94           jsr (a4)                    ; fcn.0000000d
     0x006c3d82      504f           addq.w 0x8, a7
     0x006c3d84      2eb9008551f0   move.l 0x8551f0, (a7)
 > 0x006c3d8a      4878ffff       pea.l 0xffff
    0x006c3d8e      4eb9004070e4   jsr p_wti_o
    0x006c3d94      504f           addq.w 0x8, a7
 < 0x006c3d96      6000070e       bra.w 0x6c44a6
 > 0x006c3d9a      4a39008551f6   tst.b 0x8551f6
 < 0x006c3da0      6770           beq.b 0x6c3e12
    0x006c3da2      2439008551f0   move.l 0x8551f0, d2
    0x006c3da8      b4ae0010       cmp.l 0x10(a6), d2
 < 0x006c3dac      662a           bne.b 0x6c3dd8
    0x006c3dae      487a81cb       pea.l 0x6bbf7b(pc)
    0x006c3db2      48780015       pea.l 0x15
    0x006c3db6      2f17           move.l (a7), -(a7)
    0x006c3db8      4e94           jsr (a4)                    ; fcn.0000000d
    0x006c3dba      504f           addq.w 0x8, a7
    0x006c3dbc      2eae0010       move.l 0x10(a6), (a7)
    0x006c3dc0      4878ffff       pea.l 0xffff
    0x006c3dc4      4eb9004070e4   jsr p_wti_o
    0x006c3dca      504f           addq.w 0x8, a7
    0x006c3dcc      487a81c3       pea.l 0x6bbf91(pc)
 > 0x006c3dd0      48780012       pea.l 0x12
 < 0x006c3dd4      6000ff4e       bra.w 0x6c3d24
 > 0x006c3dd8      554f           subq.w 0x2, a7
    0x006c3dda      2f2e0010       move.l 0x10(a6), -(a7)
    0x006c3dde      2f3a81c4       move.l 0x6bbfa4(pc), -(a7)
    0x006c3de2      4eba9472       jsr USER2_DISK.volume_suitable(pc)
    0x006c3de6      504f           addq.w 0x8, a7
    0x006c3de8      4a1f           tst.b (a7)+
 < 0x006c3dea      670006c0       beq.w 0x6c44ac
    0x006c3dee      554f           subq.w 0x2, a7
    0x006c3df0      4eb9006ba3c2   jsr USER1_UTILS.udebug_on
    0x006c3df6      4a1f           tst.b (a7)+
 < 0x006c3df8      670006b2       beq.w 0x6c44ac
    0x006c3dfc      487a81ab       pea.l 0x6bbfa9(pc)
    0x006c3e00      48780020       pea.l 0x20
 > 0x006c3e04      2f17           move.l (a7), -(a7)
    0x006c3e06      4e94           jsr (a4)                    ; fcn.0000000d
    0x006c3e08      504f           addq.w 0x8, a7
    0x006c3e0a      2eae0010       move.l 0x10(a6), (a7)
 < 0x006c3e0e      6000ff7a       bra.w 0x6c3d8a
 > 0x006c3e12      242e0010       move.l 0x10(a6), d2
     0x006c3e16      b4b9008551f0   cmp.l 0x8551f0, d2
 < 0x006c3e1c      663e           bne.b 0x6c3e5c
    0x006c3e1e      487a81aa       pea.l 0x6bbfca(pc)
    0x006c3e22      48780015       pea.l 0x15
    0x006c3e26      2f17           move.l (a7), -(a7)
    0x006c3e28      4e94           jsr (a4)                    ; fcn.0000000d
    0x006c3e2a      504f           addq.w 0x8, a7
    0x006c3e2c      2e82           move.l d2, (a7)
    0x006c3e2e      4878ffff       pea.l 0xffff
    0x006c3e32      4eb9004070e4   jsr p_wti_o
    0x006c3e38      504f           addq.w 0x8, a7
    0x006c3e3a      487a81a4       pea.l 0x6bbfe0(pc)
    0x006c3e3e      4878000a       pea.l 0xa
    0x006c3e42      2f17           move.l (a7), -(a7)
    0x006c3e44      4e94           jsr (a4)                    ; fcn.0000000d
    0x006c3e46      defc000c       adda.w 0xc, a7
    0x006c3e4a      4eb900404946   jsr p_wtln_o
    0x006c3e50      13fc00010085.  move.b 0x1, 0x8551f6.l
 < 0x006c3e58      60000652       bra.w 0x6c44ac
 > 0x006c3e5c      554f           subq.w 0x2, a7
     0x006c3e5e      2f02           move.l d2, -(a7)
     0x006c3e60      2f3a8188       move.l 0x6bbfea(pc), -(a7)
     0x006c3e64      4eba93f0       jsr USER2_DISK.volume_suitable(pc)
     0x006c3e68      504f           addq.w 0x8, a7
     0x006c3e6a      4a1f           tst.b (a7)+
 < 0x006c3e6c      6700063e       beq.w 0x6c44ac
    0x006c3e70      487a817d       pea.l 0x6bbfef(pc)
    0x006c3e74      48780019       pea.l 0x19
    0x006c3e78      2f17           move.l (a7), -(a7)
    0x006c3e7a      4e94           jsr (a4)                    ; fcn.0000000d
    0x006c3e7c      504f           addq.w 0x8, a7
    0x006c3e7e      2eb9008551f0   move.l 0x8551f0, (a7)
    0x006c3e84      4878ffff       pea.l 0xffff
    0x006c3e88      4eb9004070e4   jsr p_wti_o
    0x006c3e8e      504f           addq.w 0x8, a7
    0x006c3e90      487a8177       pea.l 0x6bc009(pc)
 > 0x006c3e94      48780012       pea.l 0x12
    0x006c3e98      2f17           move.l (a7), -(a7)
 < 0x006c3e9a      60000604       bra.w 0x6c44a0
 > 0x006c3e9e      554f           subq.w 0x2, a7
      0x006c3ea0      4eb900475a98   jsr CONFIG.cfg_clipbox
      0x006c3ea6      4a1f           tst.b (a7)+
  < 0x006c3ea8      67000238       beq.w 0x6c40e2
     0x006c3eac      142efffc       move.b -0x4(a6), d2
     0x006c3eb0      0c020004       cmpi.b 0x4, d2
 < 0x006c3eb4      6600022c       bne.w 0x6c40e2
    0x006c3eb8      4ab9008552c8   tst.l 0x8552c8
 < 0x006c3ebe      66000132       bne.w 0x6c3ff2
    0x006c3ec2      554f           subq.w 0x2, a7
    0x006c3ec4      4eb9006ba3c2   jsr USER1_UTILS.udebug_on
    0x006c3eca      4a1f           tst.b (a7)+
 < 0x006c3ecc      6716           beq.b 0x6c3ee4
    0x006c3ece      487a814c       pea.l 0x6bc01c(pc)
    0x006c3ed2      48780030       pea.l 0x30
    0x006c3ed6      2f17           move.l (a7), -(a7)
    0x006c3ed8      4e94           jsr (a4)                    ; fcn.0000000d
    0x006c3eda      defc000c       adda.w 0xc, a7
    0x006c3ede      4eb900404946   jsr p_wtln_o
 > 0x006c3ee4      554f           subq.w 0x2, a7
    0x006c3ee6      2f2e0010       move.l 0x10(a6), -(a7)
    0x006c3eea      2f3a8160       move.l 0x6bc04c(pc), -(a7)
    0x006c3eee      4eba9366       jsr USER2_DISK.volume_suitable(pc)
    0x006c3ef2      504f           addq.w 0x8, a7
    0x006c3ef4      4a1f           tst.b (a7)+
 < 0x006c3ef6      67000082       beq.w 0x6c3f7a
    0x006c3efa      2d6efedaffee   move.l -0x126(a6), -0x12(a6)
    0x006c3f00      4a2efff0       tst.b -0x10(a6)
 < 0x006c3f04      6616           bne.b 0x6c3f1c
    0x006c3f06      4a2efff1       tst.b -0xf(a6)
 < 0x006c3f0a      6610           bne.b 0x6c3f1c
    0x006c3f0c      2f2e0010       move.l 0x10(a6), -(a7)
    0x006c3f10      2f2effee       move.l -0x12(a6), -(a7)
    0x006c3f14      4ebad598       jsr USER2_DISK.set_clipbox_vol(pc)
    0x006c3f18      504f           addq.w 0x8, a7
 < 0x006c3f1a      605e           bra.b 0x6c3f7a
 > 0x006c3f1c      487a8133       pea.l 0x6bc051(pc)
    0x006c3f20      48780029       pea.l 0x29
    0x006c3f24      2f17           move.l (a7), -(a7)
    0x006c3f26      4e94           jsr (a4)                    ; fcn.0000000d
    0x006c3f28      defc000c       adda.w 0xc, a7
    0x006c3f2c      4282           clr.l d2
    0x006c3f2e      142efff0       move.b -0x10(a6), d2
    0x006c3f32      2f02           move.l d2, -(a7)
    0x006c3f34      48780000       pea.l 0x0
    0x006c3f38      4eb9004070e4   jsr p_wti_o
    0x006c3f3e      5c4f           addq.w 0x6, a7
    0x006c3f40      1ebc002f       move.b 0x2f, (a7)
    0x006c3f44      48780001       pea.l 0x1
    0x006c3f48      4eb9004048b4   jsr p_wtc_o
    0x006c3f4e      5c4f           addq.w 0x6, a7
    0x006c3f50      4282           clr.l d2
    0x006c3f52      142efff1       move.b -0xf(a6), d2
    0x006c3f56      2f02           move.l d2, -(a7)
    0x006c3f58      48780000       pea.l 0x0
    0x006c3f5c      4eb9004070e4   jsr p_wti_o
    0x006c3f62      504f           addq.w 0x8, a7
    0x006c3f64      487a8115       pea.l 0x6bc07b(pc)
    0x006c3f68      4878002d       pea.l 0x2d
    0x006c3f6c      2f17           move.l (a7), -(a7)
    0x006c3f6e      4e94           jsr (a4)                    ; fcn.0000000d
    0x006c3f70      defc000c       adda.w 0xc, a7
    0x006c3f74      4eb900404946   jsr p_wtln_o
 > 0x006c3f7a      4ab9008552c8   tst.l 0x8552c8
 < 0x006c3f80      660c           bne.b 0x6c3f8e
    0x006c3f82      487a8125       pea.l 0x6bc0a9(pc)
    0x006c3f86      48780015       pea.l 0x15
 < 0x006c3f8a      6000fd98       bra.w 0x6c3d24
 > 0x006c3f8e      487a812f       pea.l 0x6bc0bf(pc)
     0x006c3f92      4878001f       pea.l 0x1f
     0x006c3f96      2f17           move.l (a7), -(a7)
     0x006c3f98      4e94           jsr (a4)                    ; fcn.0000000d
     0x006c3f9a      defc000c       adda.w 0xc, a7
     0x006c3f9e      3439008552c4   move.w 0x8552c4, d2
     0x006c3fa4      48c2           ext.l d2
     0x006c3fa6      2f02           move.l d2, -(a7)
     0x006c3fa8      48780000       pea.l 0x0
     0x006c3fac      4eb9004070e4   jsr p_wti_o
     0x006c3fb2      504f           addq.w 0x8, a7
     0x006c3fb4      487a8129       pea.l 0x6bc0df(pc)
     0x006c3fb8      48780006       pea.l 0x6
     0x006c3fbc      2f17           move.l (a7), -(a7)
     0x006c3fbe      4e94           jsr (a4)                    ; fcn.0000000d
     0x006c3fc0      defc000c       adda.w 0xc, a7
     0x006c3fc4      3439008552c6   move.w 0x8552c6, d2
     0x006c3fca      48c2           ext.l d2
     0x006c3fcc      2f02           move.l d2, -(a7)
     0x006c3fce      48780000       pea.l 0x0
     0x006c3fd2      4eb9004070e4   jsr p_wti_o
     0x006c3fd8      504f           addq.w 0x8, a7
     0x006c3fda      487a810a       pea.l 0x6bc0e6(pc)
     0x006c3fde      48780006       pea.l 0x6
     0x006c3fe2      2f17           move.l (a7), -(a7)
     0x006c3fe4      4e94           jsr (a4)                    ; fcn.0000000d
     0x006c3fe6      504f           addq.w 0x8, a7
     0x006c3fe8      2eb9008552c8   move.l 0x8552c8, (a7)
  < 0x006c3fee      6000fd9a       bra.w 0x6c3d8a
 > 0x006c3ff2      4a39008552ce   tst.b 0x8552ce
  < 0x006c3ff8      6762           beq.b 0x6c405c
     0x006c3ffa      2439008552c8   move.l 0x8552c8, d2
     0x006c4000      b4ae0010       cmp.l 0x10(a6), d2
 < 0x006c4004      6626           bne.b 0x6c402c
    0x006c4006      487a80e5       pea.l 0x6bc0ed(pc)
    0x006c400a      48780016       pea.l 0x16
    0x006c400e      2f17           move.l (a7), -(a7)
    0x006c4010      4e94           jsr (a4)                    ; fcn.0000000d
    0x006c4012      504f           addq.w 0x8, a7
    0x006c4014      2eae0010       move.l 0x10(a6), (a7)
    0x006c4018      4878ffff       pea.l 0xffff
    0x006c401c      4eb9004070e4   jsr p_wti_o
    0x006c4022      504f           addq.w 0x8, a7
    0x006c4024      487a80de       pea.l 0x6bc104(pc)
 < 0x006c4028      6000fda6       bra.w 0x6c3dd0
 > 0x006c402c      554f           subq.w 0x2, a7
     0x006c402e      2f2e0010       move.l 0x10(a6), -(a7)
     0x006c4032      2f3a80e2       move.l 0x6bc116(pc), -(a7)
     0x006c4036      4eba921e       jsr USER2_DISK.volume_suitable(pc)
     0x006c403a      504f           addq.w 0x8, a7
     0x006c403c      4a1f           tst.b (a7)+
 < 0x006c403e      6700046c       beq.w 0x6c44ac
    0x006c4042      554f           subq.w 0x2, a7
    0x006c4044      4eb9006ba3c2   jsr USER1_UTILS.udebug_on
    0x006c404a      4a1f           tst.b (a7)+
 < 0x006c404c      6700045e       beq.w 0x6c44ac
    0x006c4050      487a80c9       pea.l 0x6bc11b(pc)
    0x006c4054      48780021       pea.l 0x21
 < 0x006c4058      6000fdaa       bra.w 0x6c3e04
 > 0x006c405c      242e0010       move.l 0x10(a6), d2
     0x006c4060      b4b9008552c8   cmp.l 0x8552c8, d2
 < 0x006c4066      663e           bne.b 0x6c40a6
    0x006c4068      487a80d3       pea.l 0x6bc13d(pc)
    0x006c406c      48780016       pea.l 0x16
    0x006c4070      2f17           move.l (a7), -(a7)
    0x006c4072      4e94           jsr (a4)                    ; fcn.0000000d
    0x006c4074      504f           addq.w 0x8, a7
    0x006c4076      2e82           move.l d2, (a7)
    0x006c4078      4878ffff       pea.l 0xffff
    0x006c407c      4eb9004070e4   jsr p_wti_o
    0x006c4082      504f           addq.w 0x8, a7
    0x006c4084      487a80ce       pea.l 0x6bc154(pc)
    0x006c4088      4878000a       pea.l 0xa
    0x006c408c      2f17           move.l (a7), -(a7)
    0x006c408e      4e94           jsr (a4)                    ; fcn.0000000d
    0x006c4090      defc000c       adda.w 0xc, a7
    0x006c4094      4eb900404946   jsr p_wtln_o
    0x006c409a      13fc00010085.  move.b 0x1, 0x8552ce.l
 < 0x006c40a2      60000408       bra.w 0x6c44ac
 > 0x006c40a6      554f           subq.w 0x2, a7
     0x006c40a8      2f02           move.l d2, -(a7)
     0x006c40aa      2f3a80b2       move.l 0x6bc15e(pc), -(a7)
     0x006c40ae      4eba91a6       jsr USER2_DISK.volume_suitable(pc)
     0x006c40b2      504f           addq.w 0x8, a7
     0x006c40b4      4a1f           tst.b (a7)+
 < 0x006c40b6      670003f4       beq.w 0x6c44ac
    0x006c40ba      487a80a7       pea.l 0x6bc163(pc)
    0x006c40be      48780019       pea.l 0x19
    0x006c40c2      2f17           move.l (a7), -(a7)
    0x006c40c4      4e94           jsr (a4)                    ; fcn.0000000d
    0x006c40c6      504f           addq.w 0x8, a7
    0x006c40c8      2eb9008552c8   move.l 0x8552c8, (a7)
    0x006c40ce      4878ffff       pea.l 0xffff
    0x006c40d2      4eb9004070e4   jsr p_wti_o
    0x006c40d8      504f           addq.w 0x8, a7
    0x006c40da      487a80a1       pea.l 0x6bc17d(pc)
 < 0x006c40de      6000fdb4       bra.w 0x6c3e94
 > 0x006c40e2      554f           subq.w 0x2, a7
      0x006c40e4      48780021       pea.l 0x21
      0x006c40e8      4eb900474af8   jsr CONFIG.cfg_option
      0x006c40ee      584f           addq.w 0x4, a7
      0x006c40f0      4a1f           tst.b (a7)+
  < 0x006c40f2      670003b8       beq.w 0x6c44ac
     0x006c40f6      143900856244   move.b 0x856244, d2
     0x006c40fc      4882           ext.w d2
     0x006c40fe      41fa8090       lea.l 0x6bc190(pc), a0
     0x006c4102      3602           move.w d2, d3
     0x006c4104      e64b           lsr.w 0x3, d3
     0x006c4106      05303000       btst.l d2, (a0, d3.w)
 < 0x006c410a      670003a0       beq.w 0x6c44ac
    0x006c410e      142efffc       move.b -0x4(a6), d2
    0x006c4112      0c020002       cmpi.b 0x2, d2
 < 0x006c4116      66000394       bne.w 0x6c44ac
    0x006c411a      2d6efedafff8   move.l -0x126(a6), -0x8(a6)
    0x006c4120      4a6efffe       tst.w -0x2(a6)
 < 0x006c4124      67000386       beq.w 0x6c44ac
    0x006c4128      554f           subq.w 0x2, a7
    0x006c412a      4eb9006ba3c2   jsr USER1_UTILS.udebug_on
    0x006c4130      4a1f           tst.b (a7)+
 < 0x006c4132      673a           beq.b 0x6c416e
    0x006c4134      9efc0100       suba.w 0x100, a7
    0x006c4138      3f2efffe       move.w -0x2(a6), -(a7)
    0x006c413c      4eb90066ea9c   jsr N10_UTILS.n_stn_str
    0x006c4142      544f           addq.w 0x2, a7
    0x006c4144      487a804d       pea.l 0x6bc193(pc)
    0x006c4148      48780015       pea.l 0x15
    0x006c414c      2f17           move.l (a7), -(a7)
    0x006c414e      4e94           jsr (a4)                    ; fcn.0000000d
    0x006c4150      defc000c       adda.w 0xc, a7
    0x006c4154      486f0001       pea.l 0x1(a7)
    0x006c4158      42a7           clr.l -(a7)
    0x006c415a      1f6f00080003   move.b 0x8(a7), 0x3(a7)
    0x006c4160      2f17           move.l (a7), -(a7)
    0x006c4162      4e94           jsr (a4)                    ; fcn.0000000d
    0x006c4164      defc010c       adda.w 0x10c, a7
    0x006c4168      4eb900404946   jsr p_wtln_o
 > 0x006c416e      4282           clr.l d2
    0x006c4170      142effff       move.b -0x1(a6), d2
    0x006c4174      3602           move.w d2, d3
    0x006c4176      5343           subq.w 0x1, d3
    0x006c4178      47bc001e       chk.w 0x1e, d3
    0x006c417c      e543           asl.w 0x2, d3
    0x006c417e      4284           clr.l d4
    0x006c4180      182efffe       move.b -0x2(a6), d4
    0x006c4184      3a04           move.w d4, d5
    0x006c4186      5345           subq.w 0x1, d5
    0x006c4188      4bbc001e       chk.w 0x1e, d5
    0x006c418c      cbfc007c       muls.w 0x7c, d5
    0x006c4190      41f90085519a   lea.l 0x85519a, a0
    0x006c4196      41f05000       lea.l (a0, d5.w), a0
    0x006c419a      41f03000       lea.l (a0, d3.w), a0
    0x006c419e      22680172       movea.l 0x172(a0), a1
    0x006c41a2      b2fc0001       cmpa.w 0x1, a1
 < 0x006c41a6      6652           bne.b 0x6c41fa
    0x006c41a8      554f           subq.w 0x2, a7
    0x006c41aa      4eb9006ba3c2   jsr USER1_UTILS.udebug_on
    0x006c41b0      4a1f           tst.b (a7)+
 < 0x006c41b2      673c           beq.b 0x6c41f0
    0x006c41b4      9efc0100       suba.w 0x100, a7
    0x006c41b8      3f2efffe       move.w -0x2(a6), -(a7)
    0x006c41bc      4eb90066ea9c   jsr N10_UTILS.n_stn_str
    0x006c41c2      544f           addq.w 0x2, a7
    0x006c41c4      4879006bc1a9   pea.l 0x6bc1a9
    0x006c41ca      48780033       pea.l 0x33
    0x006c41ce      2f17           move.l (a7), -(a7)
    0x006c41d0      4e94           jsr (a4)                    ; fcn.0000000d
    0x006c41d2      defc000c       adda.w 0xc, a7
    0x006c41d6      486f0001       pea.l 0x1(a7)
    0x006c41da      42a7           clr.l -(a7)
    0x006c41dc      1f6f00080003   move.b 0x8(a7), 0x3(a7)
    0x006c41e2      2f17           move.l (a7), -(a7)
    0x006c41e4      4e94           jsr (a4)                    ; fcn.0000000d
    0x006c41e6      defc010c       adda.w 0x10c, a7
    0x006c41ea      4eb900404946   jsr p_wtln_o
 > 0x006c41f0      3f2efffe       move.w -0x2(a6), -(a7)
    0x006c41f4      4ebaf5e2       jsr USER2_DISK.new_pnet_stn(pc)
    0x006c41f8      544f           addq.w 0x2, a7
 > 0x006c41fa      22680172       movea.l 0x172(a0), a1
    0x006c41fe      b2fc0001       cmpa.w 0x1, a1
 < 0x006c4202      670002a8       beq.w 0x6c44ac
    0x006c4206      554f           subq.w 0x2, a7
    0x006c4208      2f2e0010       move.l 0x10(a6), -(a7)
    0x006c420c      2f2efffc       move.l -0x4(a6), -(a7)
    0x006c4210      4eba9044       jsr USER2_DISK.volume_suitable(pc)
    0x006c4214      504f           addq.w 0x8, a7
    0x006c4216      4a1f           tst.b (a7)+
 < 0x006c4218      67000292       beq.w 0x6c44ac
    0x006c421c      22680172       movea.l 0x172(a0), a1
    0x006c4220      b3e9fffc       cmpa.l -0x4(a1), a1
 < 0x006c4224      6702           beq.b 0x6c4228
    0x006c4226      4e4d           trap 0xd
 > 0x006c4228      4a29000a       tst.b 0xa(a1)
 < 0x006c422c      670000f0       beq.w 0x6c431e
    0x006c4230      26290004       move.l 0x4(a1), d3
    0x006c4234      b6ae0010       cmp.l 0x10(a6), d3
 < 0x006c4238      6666           bne.b 0x6c42a0
    0x006c423a      9efc0100       suba.w 0x100, a7
    0x006c423e      3f2efffe       move.w -0x2(a6), -(a7)
    0x006c4242      4eb90066ea9c   jsr N10_UTILS.n_stn_str
    0x006c4248      544f           addq.w 0x2, a7
    0x006c424a      4879006bc1dd   pea.l 0x6bc1dd
    0x006c4250      48780013       pea.l 0x13
    0x006c4254      2f17           move.l (a7), -(a7)
    0x006c4256      4e94           jsr (a4)                    ; fcn.0000000d
    0x006c4258      504f           addq.w 0x8, a7
    0x006c425a      2eae0010       move.l 0x10(a6), (a7)
    0x006c425e      4878ffff       pea.l 0xffff
    0x006c4262      4eb9004070e4   jsr p_wti_o
    0x006c4268      504f           addq.w 0x8, a7
    0x006c426a      4879006bc1f1   pea.l 0x6bc1f1
    0x006c4270      48780010       pea.l 0x10
    0x006c4274      2f17           move.l (a7), -(a7)
    0x006c4276      4e94           jsr (a4)                    ; fcn.0000000d
    0x006c4278      defc000c       adda.w 0xc, a7
    0x006c427c      486f0001       pea.l 0x1(a7)
    0x006c4280      42a7           clr.l -(a7)
    0x006c4282      1f6f00080003   move.b 0x8(a7), 0x3(a7)
    0x006c4288      2f17           move.l (a7), -(a7)
    0x006c428a      4e94           jsr (a4)                    ; fcn.0000000d
    0x006c428c      defc010c       adda.w 0x10c, a7
    0x006c4290      4879006bc202   pea.l 0x6bc202
    0x006c4296      4878000e       pea.l 0xe
    0x006c429a      2f17           move.l (a7), -(a7)
 < 0x006c429c      60000202       bra.w 0x6c44a0
 > 0x006c42a0      554f           subq.w 0x2, a7
    0x006c42a2      2f2e0010       move.l 0x10(a6), -(a7)
    0x006c42a6      2f2efffc       move.l -0x4(a6), -(a7)
    0x006c42aa      4eba8faa       jsr USER2_DISK.volume_suitable(pc)
    0x006c42ae      504f           addq.w 0x8, a7
    0x006c42b0      4a1f           tst.b (a7)+
 < 0x006c42b2      670001f8       beq.w 0x6c44ac
    0x006c42b6      554f           subq.w 0x2, a7
    0x006c42b8      4eb9006ba3c2   jsr USER1_UTILS.udebug_on
    0x006c42be      4a1f           tst.b (a7)+
 < 0x006c42c0      670001ea       beq.w 0x6c44ac
    0x006c42c4      9efc0100       suba.w 0x100, a7
    0x006c42c8      3f2efffe       move.w -0x2(a6), -(a7)
    0x006c42cc      4eb90066ea9c   jsr N10_UTILS.n_stn_str
    0x006c42d2      544f           addq.w 0x2, a7
    0x006c42d4      4879006bc211   pea.l 0x6bc211
    0x006c42da      4878001e       pea.l 0x1e
    0x006c42de      2f17           move.l (a7), -(a7)
    0x006c42e0      4e94           jsr (a4)                    ; fcn.0000000d
    0x006c42e2      504f           addq.w 0x8, a7
    0x006c42e4      2eae0010       move.l 0x10(a6), (a7)
    0x006c42e8      4878ffff       pea.l 0xffff
    0x006c42ec      4eb9004070e4   jsr p_wti_o
    0x006c42f2      504f           addq.w 0x8, a7
    0x006c42f4      4879006bc230   pea.l 0x6bc230
    0x006c42fa      4878000c       pea.l 0xc
    0x006c42fe      2f17           move.l (a7), -(a7)
    0x006c4300      4e94           jsr (a4)                    ; fcn.0000000d
    0x006c4302      defc000c       adda.w 0xc, a7
    0x006c4306      486f0001       pea.l 0x1(a7)
    0x006c430a      42a7           clr.l -(a7)
    0x006c430c      1f6f00080003   move.b 0x8(a7), 0x3(a7)
    0x006c4312      2f17           move.l (a7), -(a7)
    0x006c4314      4e94           jsr (a4)                    ; fcn.0000000d
    0x006c4316      defc010c       adda.w 0x10c, a7
 < 0x006c431a      6000018a       bra.w 0x6c44a6
 > 0x006c431e      4aa90004       tst.l 0x4(a1)
 < 0x006c4322      666c           bne.b 0x6c4390
    0x006c4324      4a2efffa       tst.b -0x6(a6)
 < 0x006c4328      66000182       bne.w 0x6c44ac
    0x006c432c      4a2efffb       tst.b -0x5(a6)
 < 0x006c4330      6600017a       bne.w 0x6c44ac
    0x006c4334      554f           subq.w 0x2, a7
    0x006c4336      4eb9006ba3c2   jsr USER1_UTILS.udebug_on
    0x006c433c      4a1f           tst.b (a7)+
 < 0x006c433e      6718           beq.b 0x6c4358
    0x006c4340      4879006bc23d   pea.l 0x6bc23d
    0x006c4346      48780021       pea.l 0x21
    0x006c434a      2f17           move.l (a7), -(a7)
    0x006c434c      4e94           jsr (a4)                    ; fcn.0000000d
    0x006c434e      defc000c       adda.w 0xc, a7
    0x006c4352      4eb900404946   jsr p_wtln_o
 > 0x006c4358      2f2e0010       move.l 0x10(a6), -(a7)
    0x006c435c      2f2efeda       move.l -0x126(a6), -(a7)
    0x006c4360      4ebaf56c       jsr USER2_DISK.set_pnet_volume(pc)
    0x006c4364      504f           addq.w 0x8, a7
    0x006c4366      24680172       movea.l 0x172(a0), a2
    0x006c436a      b5eafffc       cmpa.l -0x4(a2), a2
 < 0x006c436e      6702           beq.b 0x6c4372
    0x006c4370      4e4d           trap 0xd
 > 0x006c4372      9efc000c       suba.w 0xc, a7
    0x006c4376      264f           movea.l a7, a3
    0x006c4378      760a           moveq 0xa, d3
 > 0x006c437a      16da           move.b (a2)+, (a3)+
 < 0x006c437c      51cbfffc       dbra d3, 0x6c437a
    0x006c4380      3f04           move.w d4, -(a7)
    0x006c4382      3f02           move.w d2, -(a7)
    0x006c4384      4ebaf6d2       jsr USER2_DISK.pn_driveup(pc)
    0x006c4388      defc0010       adda.w 0x10, a7
 < 0x006c438c      6000011e       bra.w 0x6c44ac
 > 0x006c4390      262e0010       move.l 0x10(a6), d3
    0x006c4394      b6a90004       cmp.l 0x4(a1), d3
 < 0x006c4398      66000084       bne.w 0x6c441e
    0x006c439c      9efc0100       suba.w 0x100, a7
    0x006c43a0      3f2efffe       move.w -0x2(a6), -(a7)
    0x006c43a4      4eb90066ea9c   jsr N10_UTILS.n_stn_str
    0x006c43aa      544f           addq.w 0x2, a7
    0x006c43ac      4879006bc25f   pea.l 0x6bc25f
    0x006c43b2      4878000d       pea.l 0xd
    0x006c43b6      2f17           move.l (a7), -(a7)
    0x006c43b8      4e94           jsr (a4)                    ; fcn.0000000d
    0x006c43ba      defc000c       adda.w 0xc, a7
    0x006c43be      486f0001       pea.l 0x1(a7)
    0x006c43c2      42a7           clr.l -(a7)
    0x006c43c4      1f6f00080003   move.b 0x8(a7), 0x3(a7)
    0x006c43ca      2f17           move.l (a7), -(a7)
    0x006c43cc      4e94           jsr (a4)                    ; fcn.0000000d
    0x006c43ce      defc010c       adda.w 0x10c, a7
    0x006c43d2      4879006bc26d   pea.l 0x6bc26d
    0x006c43d8      48780010       pea.l 0x10
    0x006c43dc      2f17           move.l (a7), -(a7)
    0x006c43de      4e94           jsr (a4)                    ; fcn.0000000d
    0x006c43e0      504f           addq.w 0x8, a7
    0x006c43e2      2e83           move.l d3, (a7)
    0x006c43e4      4878ffff       pea.l 0xffff
    0x006c43e8      4eb9004070e4   jsr p_wti_o
    0x006c43ee      504f           addq.w 0x8, a7
    0x006c43f0      4879006bc27e   pea.l 0x6bc27e
    0x006c43f6      4878000a       pea.l 0xa
    0x006c43fa      2f17           move.l (a7), -(a7)
    0x006c43fc      4e94           jsr (a4)                    ; fcn.0000000d
    0x006c43fe      defc000c       adda.w 0xc, a7
    0x006c4402      4eb900404946   jsr p_wtln_o
    0x006c4408      24680172       movea.l 0x172(a0), a2
    0x006c440c      b5eafffc       cmpa.l -0x4(a2), a2
 < 0x006c4410      6702           beq.b 0x6c4414
    0x006c4412      4e4d           trap 0xd
 > 0x006c4414      157c0001000a   move.b 0x1, 0xa(a2)
 < 0x006c441a      60000090       bra.w 0x6c44ac
 > 0x006c441e      554f           subq.w 0x2, a7
    0x006c4420      2f03           move.l d3, -(a7)
    0x006c4422      2f2efffc       move.l -0x4(a6), -(a7)
    0x006c4426      4eba8e2e       jsr USER2_DISK.volume_suitable(pc)
    0x006c442a      504f           addq.w 0x8, a7
    0x006c442c      4a1f           tst.b (a7)+
 < 0x006c442e      677c           beq.b 0x6c44ac
    0x006c4430      9efc0100       suba.w 0x100, a7
    0x006c4434      2f2efffc       move.l -0x4(a6), -(a7)
    0x006c4438      4eb9006b8ed2   jsr USER1_UTILS.region_str
    0x006c443e      584f           addq.w 0x4, a7
    0x006c4440      4879006bc289   pea.l 0x6bc289
    0x006c4446      48780012       pea.l 0x12
    0x006c444a      2f17           move.l (a7), -(a7)
    0x006c444c      4e94           jsr (a4)                    ; fcn.0000000d
    0x006c444e      defc000c       adda.w 0xc, a7
    0x006c4452      486f0001       pea.l 0x1(a7)
    0x006c4456      42a7           clr.l -(a7)
    0x006c4458      1f6f00080003   move.b 0x8(a7), 0x3(a7)
    0x006c445e      2f17           move.l (a7), -(a7)
    0x006c4460      4e94           jsr (a4)                    ; fcn.0000000d
    0x006c4462      defc010c       adda.w 0x10c, a7
    0x006c4466      4879006bc29c   pea.l 0x6bc29c
    0x006c446c      4878000f       pea.l 0xf
    0x006c4470      2f17           move.l (a7), -(a7)
    0x006c4472      4e94           jsr (a4)                    ; fcn.0000000d
    0x006c4474      defc000c       adda.w 0xc, a7
    0x006c4478      24680172       movea.l 0x172(a0), a2
    0x006c447c      b5eafffc       cmpa.l -0x4(a2), a2
 < 0x006c4480      6702           beq.b 0x6c4484
    0x006c4482      4e4d           trap 0xd
 > 0x006c4484      2f2a0004       move.l 0x4(a2), -(a7)
    0x006c4488      4878ffff       pea.l 0xffff
    0x006c448c      4eb9004070e4   jsr p_wti_o
    0x006c4492      504f           addq.w 0x8, a7
    0x006c4494      4879006bc2ac   pea.l 0x6bc2ac
    0x006c449a      48780012       pea.l 0x12
    0x006c449e      2f17           move.l (a7), -(a7)
 > 0x006c44a0      4e94           jsr (a4)                    ; fcn.0000000d
    0x006c44a2      defc000c       adda.w 0xc, a7
 > 0x006c44a6      4eb900404946   jsr p_wtln_o
 > 0x006c44ac      122efffc       move.b -0x4(a6), d1
          0x006c44b0      4881           ext.w d1
          0x006c44b2      0339006bc2be   btst.l d1, 0x6bc2be
      < 0x006c44b8      6626           bne.b 0x6c44e0
         0x006c44ba      0c010002       cmpi.b 0x2, d1
     < 0x006c44be      66000274       bne.w 0x6c4734
        0x006c44c2      554f           subq.w 0x2, a7
        0x006c44c4      4281           clr.l d1
        0x006c44c6      122efffe       move.b -0x2(a6), d1
        0x006c44ca      2f01           move.l d1, -(a7)
        0x006c44cc      4281           clr.l d1
        0x006c44ce      122effff       move.b -0x1(a6), d1
        0x006c44d2      2f01           move.l d1, -(a7)
        0x006c44d4      4eba84de       jsr USER2_DISK.stn_known(pc)
        0x006c44d8      504f           addq.w 0x8, a7
        0x006c44da      4a1f           tst.b (a7)+
    < 0x006c44dc      67000256       beq.w 0x6c4734
    > 0x006c44e0      554f           subq.w 0x2, a7
        0x006c44e2      2f2e0010       move.l 0x10(a6), -(a7)
        0x006c44e6      4eba91f8       jsr USER2_DISK.volume_removeab(pc)
        0x006c44ea      584f           addq.w 0x4, a7
        0x006c44ec      4a1f           tst.b (a7)+
    < 0x006c44ee      67000244       beq.w 0x6c4734
       0x006c44f2      554f           subq.w 0x2, a7
       0x006c44f4      2f2efffc       move.l -0x4(a6), -(a7)
       0x006c44f8      2f2efeda       move.l -0x126(a6), -(a7)
       0x006c44fc      4ebaefb2       jsr USER2_DISK.exch_drive_know(pc)
       0x006c4500      504f           addq.w 0x8, a7
       0x006c4502      4a1f           tst.b (a7)+
   < 0x006c4504      6600022e       bne.w 0x6c4734
      0x006c4508      222efede       move.l -0x122(a6), d1
      0x006c450c      028100000008   andi.l 0x8, d1
  < 0x006c4512      66000220       bne.w 0x6c4734
     0x006c4516      554f           subq.w 0x2, a7
     0x006c4518      2f2e0010       move.l 0x10(a6), -(a7)
     0x006c451c      4eba94d8       jsr USER2_DISK.numbers_on_vol(pc)
     0x006c4520      584f           addq.w 0x4, a7
     0x006c4522      4a1f           tst.b (a7)+
 < 0x006c4524      6700020e       beq.w 0x6c4734
    0x006c4528      2f2efeda       move.l -0x126(a6), -(a7)
    0x006c452c      594f           subq.w 0x4, a7
    0x006c452e      2f2e0010       move.l 0x10(a6), -(a7)
    0x006c4532      4eba92f8       jsr USER2_DISK.volume_region(pc)
    0x006c4536      584f           addq.w 0x4, a7
    0x006c4538      4ebae93a       jsr USER2_DISK.add_exch_drive(pc)
    0x006c453c      504f           addq.w 0x8, a7
    0x006c453e      4a390085621e   tst.b 0x85621e
 < 0x006c4544      670001ee       beq.w 0x6c4734
    0x006c4548      2f2efffc       move.l -0x4(a6), -(a7)
    0x006c454c      4ebaed3a       jsr USER2_DISK.sort_drive_list(pc)
    0x006c4550      584f           addq.w 0x4, a7
    0x006c4552      4879006bc2c0   pea.l 0x6bc2c0
    0x006c4558      48780040       pea.l 0x40
    0x006c455c      2f17           move.l (a7), -(a7)
    0x006c455e      4e94           jsr (a4)                    ; fcn.0000000d
    0x006c4560      defc000c       adda.w 0xc, a7
    0x006c4564      4eb900404946   jsr p_wtln_o
    0x006c456a      9efc0100       suba.w 0x100, a7
    0x006c456e      2f2efffc       move.l -0x4(a6), -(a7)
    0x006c4572      4eb9006b8ed2   jsr USER1_UTILS.region_str
    0x006c4578      584f           addq.w 0x4, a7
    0x006c457a      4879006bc301   pea.l 0x6bc301
    0x006c4580      4878002e       pea.l 0x2e
    0x006c4584      2f17           move.l (a7), -(a7)
    0x006c4586      4e94           jsr (a4)                    ; fcn.0000000d
    0x006c4588      504f           addq.w 0x8, a7
    0x006c458a      2eaefeda       move.l -0x126(a6), (a7)
    0x006c458e      4878ffff       pea.l 0xffff
    0x006c4592      4eb9004070e4   jsr p_wti_o
    0x006c4598      504f           addq.w 0x8, a7
    0x006c459a      4879006bc330   pea.l 0x6bc330
    0x006c45a0      48780008       pea.l 0x8
    0x006c45a4      2f17           move.l (a7), -(a7)
    0x006c45a6      4e94           jsr (a4)                    ; fcn.0000000d
    0x006c45a8      defc000c       adda.w 0xc, a7
    0x006c45ac      486f0001       pea.l 0x1(a7)
    0x006c45b0      42a7           clr.l -(a7)
    0x006c45b2      1f6f00080003   move.b 0x8(a7), 0x3(a7)
    0x006c45b8      2f17           move.l (a7), -(a7)
    0x006c45ba      4e94           jsr (a4)                    ; fcn.0000000d
    0x006c45bc      defc010c       adda.w 0x10c, a7
    0x006c45c0      4eb900404946   jsr p_wtln_o
    0x006c45c6      2f2e0010       move.l 0x10(a6), -(a7)
    0x006c45ca      4eb9006b8796   jsr USER1_UTILS.show_volume
    0x006c45d0      584f           addq.w 0x4, a7
 < 0x006c45d2      60000160       bra.w 0x6c4734
 > 0x006c45d6      0c80ffffffff   cmpi.l 0xffffffff, d0
 < 0x006c45dc      66000156       bne.w 0x6c4734
    0x006c45e0      222e0010       move.l 0x10(a6), d1
    0x006c45e4      b2b9008551a8   cmp.l 0x8551a8, d1
 < 0x006c45ea      6638           bne.b 0x6c4624
    0x006c45ec      4879006bc339   pea.l 0x6bc339
    0x006c45f2      4878001a       pea.l 0x1a
    0x006c45f6      2f17           move.l (a7), -(a7)
    0x006c45f8      4e94           jsr (a4)                    ; fcn.0000000d
    0x006c45fa      defc000a       adda.w 0xa, a7
    0x006c45fe      1ebc0007       move.b 0x7, (a7)
    0x006c4602      48780001       pea.l 0x1
    0x006c4606      4eb9004048b4   jsr p_wtc_o
    0x006c460c      5c4f           addq.w 0x6, a7
    0x006c460e      4eb900404946   jsr p_wtln_o
    0x006c4614      4239008551ae   clr.b 0x8551ae
    0x006c461a      42b90085519a   clr.l 0x85519a
 < 0x006c4620      60000112       bra.w 0x6c4734
 > 0x006c4624      b2b9008551f0   cmp.l 0x8551f0, d1
 < 0x006c462a      6622           bne.b 0x6c464e
    0x006c462c      4879006bc354   pea.l 0x6bc354
    0x006c4632      4878001e       pea.l 0x1e
    0x006c4636      2f17           move.l (a7), -(a7)
    0x006c4638      4e94           jsr (a4)                    ; fcn.0000000d
    0x006c463a      defc000c       adda.w 0xc, a7
    0x006c463e      4eb900404946   jsr p_wtln_o
    0x006c4644      4239008551f6   clr.b 0x8551f6
 < 0x006c464a      600000e8       bra.w 0x6c4734
 > 0x006c464e      b2b9008552c8   cmp.l 0x8552c8, d1
 < 0x006c4654      6622           bne.b 0x6c4678
    0x006c4656      4879006bc373   pea.l 0x6bc373
    0x006c465c      4878001f       pea.l 0x1f
    0x006c4660      2f17           move.l (a7), -(a7)
    0x006c4662      4e94           jsr (a4)                    ; fcn.0000000d
    0x006c4664      defc000c       adda.w 0xc, a7
    0x006c4668      4eb900404946   jsr p_wtln_o
    0x006c466e      4239008552ce   clr.b 0x8552ce
 < 0x006c4674      600000be       bra.w 0x6c4734
 > 0x006c4678      7c01           moveq 0x1, d6
 > 0x006c467a      7e01           moveq 0x1, d7
 > 0x006c467c      554f           subq.w 0x2, a7
    0x006c467e      48c6           ext.l d6
    0x006c4680      2f06           move.l d6, -(a7)
    0x006c4682      48c7           ext.l d7
    0x006c4684      2f07           move.l d7, -(a7)
    0x006c4686      4eba832c       jsr USER2_DISK.stn_known(pc)
    0x006c468a      504f           addq.w 0x8, a7
    0x006c468c      4a1f           tst.b (a7)+
 < 0x006c468e      67000090       beq.w 0x6c4720
    0x006c4692      3407           move.w d7, d2
    0x006c4694      5342           subq.w 0x1, d2
    0x006c4696      45bc001e       chk.w 0x1e, d2
    0x006c469a      e542           asl.w 0x2, d2
    0x006c469c      3606           move.w d6, d3
    0x006c469e      5343           subq.w 0x1, d3
    0x006c46a0      47bc001e       chk.w 0x1e, d3
    0x006c46a4      c7fc007c       muls.w 0x7c, d3
    0x006c46a8      41f90085519a   lea.l 0x85519a, a0
    0x006c46ae      41f03000       lea.l (a0, d3.w), a0
    0x006c46b2      41f02000       lea.l (a0, d2.w), a0
    0x006c46b6      22680172       movea.l 0x172(a0), a1
    0x006c46ba      b3e9fffc       cmpa.l -0x4(a1), a1
 < 0x006c46be      6702           beq.b 0x6c46c2
    0x006c46c0      4e4d           trap 0xd
 > 0x006c46c2      242e0010       move.l 0x10(a6), d2
    0x006c46c6      b4a90004       cmp.l 0x4(a1), d2
 < 0x006c46ca      6654           bne.b 0x6c4720
    0x006c46cc      1d46fff6       move.b d6, -0xa(a6)
    0x006c46d0      1d47fff7       move.b d7, -0x9(a6)
    0x006c46d4      9efc0100       suba.w 0x100, a7
    0x006c46d8      3f2efff6       move.w -0xa(a6), -(a7)
    0x006c46dc      4eb90066ea9c   jsr N10_UTILS.n_stn_str
    0x006c46e2      544f           addq.w 0x2, a7
    0x006c46e4      4879006bc393   pea.l 0x6bc393
    0x006c46ea      48780028       pea.l 0x28
    0x006c46ee      2f17           move.l (a7), -(a7)
    0x006c46f0      4e94           jsr (a4)                    ; fcn.0000000d
    0x006c46f2      defc000c       adda.w 0xc, a7
    0x006c46f6      486f0001       pea.l 0x1(a7)
    0x006c46fa      42a7           clr.l -(a7)
    0x006c46fc      1f6f00080003   move.b 0x8(a7), 0x3(a7)
    0x006c4702      2f17           move.l (a7), -(a7)
    0x006c4704      4e94           jsr (a4)                    ; fcn.0000000d
    0x006c4706      defc010c       adda.w 0x10c, a7
    0x006c470a      4eb900404946   jsr p_wtln_o
    0x006c4710      22680172       movea.l 0x172(a0), a1
    0x006c4714      b3e9fffc       cmpa.l -0x4(a1), a1
 < 0x006c4718      6702           beq.b 0x6c471c
    0x006c471a      4e4d           trap 0xd
 > 0x006c471c      4229000a       clr.b 0xa(a1)
 > 0x006c4720      5247           addq.w 0x1, d7
    0x006c4722      0c47001f       cmpi.w 0x1f, d7
 < 0x006c4726      6f00ff54       ble.w 0x6c467c
    0x006c472a      5246           addq.w 0x1, d6
    0x006c472c      0c46001f       cmpi.w 0x1f, d6
 < 0x006c4730      6f00ff48       ble.w 0x6c467a
 > 0x006c4734      4eba81a4       jsr USER2_DISK.open_gate(pc)
           0x006c4738      1f3c0001       move.b 0x1, -(a7)
           0x006c473c      4eb9006b96f2   jsr USER1_UTILS.aux_stack_check
           0x006c4742      544f           addq.w 0x2, a7
           0x006c4744      4cdf1fff       movem.l (a7)+, d0-d7/a0-a4
           0x006c4748      4e5e           unlk a6
           0x006c474a      4e75           rts
            ; XREFS: CALL 0x006b0ec6  CALL 0x006b0f4a  CALL 0x006b1448  
            ; XREFS: CALL 0x006b14a2  CALL 0x006b1900  CALL 0x006b195e  
            ; XREFS: CALL 0x006c2c26  CALL 0x00789770  
 210: USER2_DISK.cur_user_fid ();
           0x006c474c      4e56ffc6       link.w a6, 0xffc6
           0x006c4750      bfd5           cmpa.l (a5), a7
       < 0x006c4752      6206           bhi.b 0x6c475a
          0x006c4754      44fc0002       move.w 0x2, ccr
          0x006c4758      4e76           trapv
       > 0x006c475a      defc0032       adda.w 0x32, a7
           0x006c475e      48e7e0f8       movem.l d0-d2/a0-a4, -(a7)
           0x006c4762      47ee000c       lea.l 0xc(a6), a3
           0x006c4766      7401           moveq 0x1, d2
           0x006c4768      287900856246   movea.l 0x856246, a4
           0x006c476e      b8c2           cmpa.w d2, a4
       < 0x006c4770      670a           beq.b 0x6c477c
          0x006c4772      102e0008       move.b 0x8(a6), d0
          0x006c4776      0c000003       cmpi.b 0x3, d0
      < 0x006c477a      661a           bne.b 0x6c4796
    > 0x006c477c      26b9006ba538   move.l 0x6ba538, (a3)
        0x006c4782      2d79006ba53c.  move.l 0x6ba53c, 0x10(a6)
        0x006c478a      3d79006ba540.  move.w 0x6ba540, 0x14(a6)
    < 0x006c4792      60000082       bra.w 0x6c4816
    > 0x006c4796      102e0008       move.b 0x8(a6), d0
        0x006c479a      4880           ext.w d0
        0x006c479c      0139006bc3bc   btst.l d0, 0x6bc3bc
    < 0x006c47a2      672c           beq.b 0x6c47d0
       0x006c47a4      3200           move.w d0, d1
       0x006c47a6      e541           asl.w 0x2, d1
       0x006c47a8      b9ecfffc       cmpa.l -0x4(a4), a4
   < 0x006c47ac      6702           beq.b 0x6c47b0
      0x006c47ae      4e4d           trap 0xd
   > 0x006c47b0      20741016       movea.l 0x16(a4, d1.w), a0
       0x006c47b4      b0c2           cmpa.w d2, a0
   < 0x006c47b6      6602           bne.b 0x6c47ba
   < 0x006c47b8      60c2           bra.b 0x6c477c
   > 0x006c47ba      b1e8fffc       cmpa.l -0x4(a0), a0
    < 0x006c47be      6702           beq.b 0x6c47c2
       0x006c47c0      4e4d           trap 0xd
    > 0x006c47c2      224b           movea.l a3, a1
        0x006c47c4      2448           movea.l a0, a2
        0x006c47c6      7209           moveq 0x9, d1
    > 0x006c47c8      12da           move.b (a2)+, (a1)+
    < 0x006c47ca      51c9fffc       dbra d1, 0x6c47c8
    < 0x006c47ce      6046           bra.b 0x6c4816
    > 0x006c47d0      0c000002       cmpi.b 0x2, d0
    < 0x006c47d4      6636           bne.b 0x6c480c
       0x006c47d6      594f           subq.w 0x4, a7
       0x006c47d8      4281           clr.l d1
       0x006c47da      122e000a       move.b 0xa(a6), d1
       0x006c47de      2f01           move.l d1, -(a7)
       0x006c47e0      4281           clr.l d1
       0x006c47e2      122e000b       move.b 0xb(a6), d1
       0x006c47e6      2f01           move.l d1, -(a7)
       0x006c47e8      4eba8620       jsr USER2_DISK.user_station_re(pc)
       0x006c47ec      504f           addq.w 0x8, a7
       0x006c47ee      285f           movea.l (a7)+, a4
       0x006c47f0      b8c2           cmpa.w d2, a4
   < 0x006c47f2      6602           bne.b 0x6c47f6
   < 0x006c47f4      6086           bra.b 0x6c477c
   > 0x006c47f6      b9ecfffc       cmpa.l -0x4(a4), a4
    < 0x006c47fa      6702           beq.b 0x6c47fe
       0x006c47fc      4e4d           trap 0xd
    > 0x006c47fe      204b           movea.l a3, a0
        0x006c4800      224c           movea.l a4, a1
        0x006c4802      7209           moveq 0x9, d1
    > 0x006c4804      10d9           move.b (a1)+, (a0)+
    < 0x006c4806      51c9fffc       dbra d1, 0x6c4804
    < 0x006c480a      600a           bra.b 0x6c4816
    > 0x006c480c      4227           clr.b -(a7)
        0x006c480e      4eb90040452a   jsr p_Assert
        0x006c4814      544f           addq.w 0x2, a7
    > 0x006c4816      4cdf1f07       movem.l (a7)+, d0-d2/a0-a4
           0x006c481a      4e5e           unlk a6
           0x006c481c      4e75           rts
            ; CALL XREF from MENUSYSCOM.hit_system_conf @ 0x4ea0f2
 84: USER2_DISK.ntables_restore ();
           0x006c481e      4e56ffec       link.w a6, 0xffec
           0x006c4822      bfd5           cmpa.l (a5), a7
       < 0x006c4824      6206           bhi.b 0x6c482c
          0x006c4826      44fc0002       move.w 0x2, ccr
          0x006c482a      4e76           trapv
       > 0x006c482c      defc0014       adda.w 0x14, a7
           0x006c4830      48e700c0       movem.l a0-a1, -(a7)
           0x006c4834      41f80000       lea.l 0x0, a0
           0x006c4838      43faddde       lea.l USER2_DISK.ntab_restore(pc), a1
           0x006c483c      2f39006bc3be   move.l 0x6bc3be, -(a7)
           0x006c4842      4850           pea.l (a0)
           0x006c4844      4e91           jsr (a1)                    ; fcn.0000000a
           0x006c4846      584f           addq.w 0x4, a7
           0x006c4848      2eb9006bc3c2   move.l 0x6bc3c2, (a7)
           0x006c484e      4850           pea.l (a0)
           0x006c4850      4e91           jsr (a1)                    ; fcn.0000000a
           0x006c4852      5c4f           addq.w 0x6, a7
           0x006c4854      4eb900475a98   jsr CONFIG.cfg_clipbox
           0x006c485a      4a1f           tst.b (a7)+
       < 0x006c485c      670c           beq.b 0x6c486a
          0x006c485e      2f39006bc3c6   move.l 0x6bc3c6, -(a7)
          0x006c4864      4850           pea.l (a0)
          0x006c4866      4e91           jsr (a1)                    ; fcn.0000000a
          0x006c4868      504f           addq.w 0x8, a7
       > 0x006c486a      4cdf0300       movem.l (a7)+, a0-a1
           0x006c486e      4e5e           unlk a6
           0x006c4870      4e75           rts
 246: USER2_DISK.drive_update_ta ();
           0x006c4872      4e56ffd0       link.w a6, 0xffd0
           0x006c4876      bfd5           cmpa.l (a5), a7
       < 0x006c4878      6206           bhi.b 0x6c4880
          0x006c487a      44fc0002       move.w 0x2, ccr
          0x006c487e      4e76           trapv
       > 0x006c4880      defc002c       adda.w 0x2c, a7
           0x006c4884      48e780f8       movem.l d0/a0-a4, -(a7)
           0x006c4888      43f90085623c   lea.l 0x85623c, a1
           0x006c488e      45f90085622e   lea.l 0x85622e, a2
           0x006c4894      47eefffc       lea.l -0x4(a6), a3
           0x006c4898      49f9004070e4   lea.l p_wti_o, a4
           0x006c489e      7001           moveq 0x1, d0
       > 0x006c48a0      487900856220   pea.l 0x856220
          0x006c48a6      4eb9004023c4   jsr p_Wait
          0x006c48ac      584f           addq.w 0x4, a7
          0x006c48ae      4852           pea.l (a2)
          0x006c48b0      4eb9004023c4   jsr p_Wait
          0x006c48b6      584f           addq.w 0x4, a7
          0x006c48b8      2691           move.l (a1), (a3)
          0x006c48ba      2051           movea.l (a1), a0
          0x006c48bc      b1e8fffc       cmpa.l -0x4(a0), a0
      < 0x006c48c0      6702           beq.b 0x6c48c4
         0x006c48c2      4e4d           trap 0xd
      > 0x006c48c4      22a8000c       move.l 0xc(a0), (a1)
          0x006c48c8      2051           movea.l (a1), a0
          0x006c48ca      b0c0           cmpa.w d0, a0
      < 0x006c48cc      6606           bne.b 0x6c48d4
         0x006c48ce      23c000856240   move.l d0, 0x856240
      > 0x006c48d4      4852           pea.l (a2)
          0x006c48d6      4eb90040234e   jsr p_Signal
          0x006c48dc      584f           addq.w 0x4, a7
          0x006c48de      2053           movea.l (a3), a0
          0x006c48e0      b1e8fffc       cmpa.l -0x4(a0), a0
      < 0x006c48e4      6702           beq.b 0x6c48e8
         0x006c48e6      4e4d           trap 0xd
      > 0x006c48e8      554f           subq.w 0x2, a7
          0x006c48ea      4eb9006ba3c2   jsr USER1_UTILS.udebug_on
          0x006c48f0      4a1f           tst.b (a7)+
      < 0x006c48f2      6750           beq.b 0x6c4944
         0x006c48f4      4879006bc3cb   pea.l 0x6bc3cb
         0x006c48fa      48780012       pea.l 0x12
         0x006c48fe      2f17           move.l (a7), -(a7)
         0x006c4900      4eb9004047ea   jsr p_wts_o
         0x006c4906      504f           addq.w 0x8, a7
         0x006c4908      2e90           move.l (a0), (a7)
         0x006c490a      4878ffff       pea.l 0xffff
         0x006c490e      4e94           jsr (a4)                    ; fcn.0000000d
         0x006c4910      584f           addq.w 0x4, a7
         0x006c4912      2ea80004       move.l 0x4(a0), (a7)
         0x006c4916      48780004       pea.l 0x4
         0x006c491a      4e94           jsr (a4)                    ; fcn.0000000d
         0x006c491c      504f           addq.w 0x8, a7
         0x006c491e      4879006bc3de   pea.l 0x6bc3de
         0x006c4924      48780002       pea.l 0x2
         0x006c4928      2f17           move.l (a7), -(a7)
         0x006c492a      4eb9004047ea   jsr p_wts_o
         0x006c4930      504f           addq.w 0x8, a7
         0x006c4932      2ea80008       move.l 0x8(a0), (a7)
         0x006c4936      4878ffff       pea.l 0xffff
         0x006c493a      4e94           jsr (a4)                    ; fcn.0000000d
         0x006c493c      504f           addq.w 0x8, a7
         0x006c493e      4eb900404946   jsr p_wtln_o
      > 0x006c4944      2f10           move.l (a0), -(a7)
          0x006c4946      2f280004       move.l 0x4(a0), -(a7)
          0x006c494a      2f280008       move.l 0x8(a0), -(a7)
          0x006c494e      4ebaf224       jsr USER2_DISK.update_drivesta(pc)
          0x006c4952      defc000c       adda.w 0xc, a7
          0x006c4956      4853           pea.l (a3)
          0x006c4958      48780010       pea.l 0x10
          0x006c495c      4eb900403b98   jsr p_Dispos
          0x006c4962      504f           addq.w 0x8, a7
       < 0x006c4964      6000ff3a       bra.w 0x6c48a0
            0x006c4968      4cdf1f01       movem.l (a7)+, d0/a0-a4
            0x006c496c      4e5e           unlk a6
            0x006c496e      4e75           rts
 258: USER2_DISK.add_to_update_q ();
           0x006c4970      4e56ffd4       link.w a6, 0xffd4
           0x006c4974      bfd5           cmpa.l (a5), a7
       < 0x006c4976      6206           bhi.b 0x6c497e
          0x006c4978      44fc0002       move.w 0x2, ccr
          0x006c497c      4e76           trapv
       > 0x006c497e      defc0028       adda.w 0x28, a7
           0x006c4982      48e780f8       movem.l d0/a0-a4, -(a7)
           0x006c4986      43eefffc       lea.l -0x4(a6), a1
           0x006c498a      45f90085622e   lea.l 0x85622e, a2
           0x006c4990      47f9004070e4   lea.l p_wti_o, a3
           0x006c4996      49f90085623c   lea.l 0x85623c, a4
           0x006c499c      7001           moveq 0x1, d0
           0x006c499e      4852           pea.l (a2)
           0x006c49a0      4eb9004023c4   jsr p_Wait
           0x006c49a6      584f           addq.w 0x4, a7
           0x006c49a8      4851           pea.l (a1)
           0x006c49aa      48780010       pea.l 0x10
           0x006c49ae      4eb900403a92   jsr p_New
           0x006c49b4      5c4f           addq.w 0x6, a7
           0x006c49b6      4eb9006ba3c2   jsr USER1_UTILS.udebug_on
           0x006c49bc      4a1f           tst.b (a7)+
       < 0x006c49be      6752           beq.b 0x6c4a12
          0x006c49c0      4879006bc3e1   pea.l 0x6bc3e1
          0x006c49c6      48780012       pea.l 0x12
          0x006c49ca      2f17           move.l (a7), -(a7)
          0x006c49cc      4eb9004047ea   jsr p_wts_o
          0x006c49d2      504f           addq.w 0x8, a7
          0x006c49d4      2eae0010       move.l 0x10(a6), (a7)
          0x006c49d8      4878ffff       pea.l 0xffff
          0x006c49dc      4e93           jsr (a3)                    ; fcn.0000000c
          0x006c49de      584f           addq.w 0x4, a7
          0x006c49e0      2eae000c       move.l 0xc(a6), (a7)
          0x006c49e4      48780004       pea.l 0x4
          0x006c49e8      4e93           jsr (a3)                    ; fcn.0000000c
          0x006c49ea      504f           addq.w 0x8, a7
          0x006c49ec      4879006bc3f4   pea.l 0x6bc3f4
          0x006c49f2      48780002       pea.l 0x2
          0x006c49f6      2f17           move.l (a7), -(a7)
          0x006c49f8      4eb9004047ea   jsr p_wts_o
          0x006c49fe      504f           addq.w 0x8, a7
          0x006c4a00      2eae0008       move.l 0x8(a6), (a7)
          0x006c4a04      4878ffff       pea.l 0xffff
          0x006c4a08      4e93           jsr (a3)                    ; fcn.0000000c
          0x006c4a0a      504f           addq.w 0x8, a7
          0x006c4a0c      4eb900404946   jsr p_wtln_o
       > 0x006c4a12      2051           movea.l (a1), a0
           0x006c4a14      b1e8fffc       cmpa.l -0x4(a0), a0
       < 0x006c4a18      6702           beq.b 0x6c4a1c
          0x006c4a1a      4e4d           trap 0xd
       > 0x006c4a1c      20ae0010       move.l 0x10(a6), (a0)
           0x006c4a20      216e000c0004   move.l 0xc(a6), 0x4(a0)
           0x006c4a26      216e00080008   move.l 0x8(a6), 0x8(a0)
           0x006c4a2c      2140000c       move.l d0, 0xc(a0)
           0x006c4a30      2054           movea.l (a4), a0
           0x006c4a32      b0c0           cmpa.w d0, a0
       < 0x006c4a34      6604           bne.b 0x6c4a3a
          0x006c4a36      2891           move.l (a1), (a4)
      < 0x006c4a38      6012           bra.b 0x6c4a4c
      > 0x006c4a3a      207900856240   movea.l 0x856240, a0
          0x006c4a40      b1e8fffc       cmpa.l -0x4(a0), a0
      < 0x006c4a44      6702           beq.b 0x6c4a48
         0x006c4a46      4e4d           trap 0xd
      > 0x006c4a48      2151000c       move.l (a1), 0xc(a0)
      > 0x006c4a4c      23d100856240   move.l (a1), 0x856240
           0x006c4a52      487900856220   pea.l 0x856220
           0x006c4a58      4eb90040234e   jsr p_Signal
           0x006c4a5e      584f           addq.w 0x4, a7
           0x006c4a60      4852           pea.l (a2)
           0x006c4a62      4eb90040234e   jsr p_Signal
           0x006c4a68      584f           addq.w 0x4, a7
           0x006c4a6a      4cdf1f01       movem.l (a7)+, d0/a0-a4
           0x006c4a6e      4e5e           unlk a6
           0x006c4a70      4e75           rts
            ; CALL XREF from USER2_DISK.init_user @ 0x6c4ca2
 98: USER2_DISK.init_update_que ();
           0x006c4a72      4e56ffec       link.w a6, 0xffec
           0x006c4a76      bfd5           cmpa.l (a5), a7
       < 0x006c4a78      6206           bhi.b 0x6c4a80
          0x006c4a7a      44fc0002       move.w 0x2, ccr
          0x006c4a7e      4e76           trapv
       > 0x006c4a80      defc0010       adda.w 0x10, a7
           0x006c4a84      48e78000       movem.l d0, -(a7)
           0x006c4a88      7001           moveq 0x1, d0
           0x006c4a8a      48790085622e   pea.l 0x85622e
           0x006c4a90      3f00           move.w d0, -(a7)
           0x006c4a92      3f00           move.w d0, -(a7)
           0x006c4a94      4eb900402b88   jsr p_New_Semaphore
           0x006c4a9a      504f           addq.w 0x8, a7
           0x006c4a9c      487900856220   pea.l 0x856220
           0x006c4aa2      4267           clr.w -(a7)
           0x006c4aa4      3f3c0040       move.w 0x40, -(a7)
           0x006c4aa8      4eb900402b88   jsr p_New_Semaphore
           0x006c4aae      504f           addq.w 0x8, a7
           0x006c4ab0      23c00085623c   move.l d0, 0x85623c
           0x006c4ab6      23c000856240   move.l d0, 0x856240
           0x006c4abc      486d0010       pea.l 0x10(a5)
           0x006c4ac0      487afeae       pea.l USER2_DISK.add_to_update_q(pc)
           0x006c4ac4      4eb9005f7750   jsr F6_DRIVE.f_on_change
           0x006c4aca      504f           addq.w 0x8, a7
           0x006c4acc      4cdf0001       movem.l (a7)+, d0
           0x006c4ad0      4e5e           unlk a6
           0x006c4ad2      4e75           rts
            ; CALL XREF from MAVIS_TEST @ +0x2594
            ; CALL XREF from PANEL.initialise_glob @ 0x773fe8
            ; CALL XREF from PANEL.init_panel @ 0x7766d0
 3140: USER2_DISK.init_user ();
           ; var int32_t var_1cch @ a6-0x1cc
           ; var int32_t var_8h @ a7+0x8
           0x006c4ad4      4e56fc7c       link.w a6, 0xfc7c
           0x006c4ad8      bfd5           cmpa.l (a5), a7
       < 0x006c4ada      6206           bhi.b 0x6c4ae2
          0x006c4adc      44fc0002       move.w 0x2, ccr
          0x006c4ae0      4e76           trapv
       > 0x006c4ae2      defc015a       adda.w 0x15a, a7
           0x006c4ae6      48e7fff8       movem.l d0-d7/a0-a4, -(a7)
           0x006c4aea      47f900856244   lea.l 0x856244, a3
           0x006c4af0      49f90085519a   lea.l 0x85519a, a4
           0x006c4af6      4eb9006ba40e   jsr USER1_UTILS.user1_init
           0x006c4afc      4eb9006b7548   jsr USER.user0_init
           0x006c4b02      487900856210   pea.l 0x856210
           0x006c4b08      3f3c0001       move.w 0x1, -(a7)
           0x006c4b0c      3f3c0001       move.w 0x1, -(a7)
           0x006c4b10      4eb900402b88   jsr p_New_Semaphore
           0x006c4b16      504f           addq.w 0x8, a7
           0x006c4b18      4eb9006bc848   jsr USER2_DISK.close_gate
           0x006c4b1e      42390085621e   clr.b 0x85621e
           0x006c4b24      16ae0008       move.b 0x8(a6), (a3)
           0x006c4b28      28b9006ba538   move.l 0x6ba538, (a4)
           0x006c4b2e      23f9006ba53c.  move.l 0x6ba53c, 0x85519e.l
           0x006c4b38      33f9006ba540.  move.w 0x6ba540, 0x8551a2.l
           0x006c4b42      7a00           moveq 0x0, d5
       > 0x006c4b44      4885           ext.w d5
          0x006c4b46      7048           moveq 0x48, d0
          0x006c4b48      c1c5           muls.w d5, d0
          0x006c4b4a      204c           movea.l a4, a0
          0x006c4b4c      4870000a       pea.l 0xa(a0, d0.w)
          0x006c4b50      4eba8158       jsr USER2_DISK.clr_drive_data(pc)
          0x006c4b54      584f           addq.w 0x4, a7
          0x006c4b56      5205           addq.b 0x1, d5
          0x006c4b58      0c050004       cmpi.b 0x4, d5
       < 0x006c4b5c      6fe6           ble.b 0x6c4b44
           0x006c4b5e      7c01           moveq 0x1, d6
       > 0x006c4b60      7e01           moveq 0x1, d7
      > 0x006c4b62      2007           move.l d7, d0
         0x006c4b64      5380           subq.l 0x1, d0
         0x006c4b66      0c800000001e   cmpi.l 0x1e, d0
     < 0x006c4b6c      6302           bls.b 0x6c4b70
        0x006c4b6e      4e4f           trap 0xf
     > 0x006c4b70      e580           asl.l 0x2, d0
         0x006c4b72      2206           move.l d6, d1
         0x006c4b74      5381           subq.l 0x1, d1
         0x006c4b76      0c810000001e   cmpi.l 0x1e, d1
     < 0x006c4b7c      6302           bls.b 0x6c4b80
        0x006c4b7e      4e4f           trap 0xf
     > 0x006c4b80      2801           move.l d1, d4
         0x006c4b82      767c           moveq 0x7c, d3
         0x006c4b84      4eb900406a74   jsr fcn.00406a74
         0x006c4b8a      204c           movea.l a4, a0
         0x006c4b8c      41f04800       lea.l (a0, d4.l), a0
         0x006c4b90      41f00800       lea.l (a0, d0.l), a0
         0x006c4b94      217c00000001.  move.l 0x1, 0x172(a0)
         0x006c4b9c      5287           addq.l 0x1, d7
         0x006c4b9e      0c870000001f   cmpi.l 0x1f, d7
      < 0x006c4ba4      6fbc           ble.b 0x6c4b62
          0x006c4ba6      5286           addq.l 0x1, d6
          0x006c4ba8      0c860000001f   cmpi.l 0x1f, d6
       < 0x006c4bae      6fb0           ble.b 0x6c4b60
           0x006c4bb0      487900856246   pea.l 0x856246
           0x006c4bb6      4878002a       pea.l 0x2a
           0x006c4bba      4eb900403a92   jsr p_New
           0x006c4bc0      504f           addq.w 0x8, a7
           0x006c4bc2      207900856246   movea.l 0x856246, a0
           0x006c4bc8      b1e8fffc       cmpa.l -0x4(a0), a0
       < 0x006c4bcc      6702           beq.b 0x6c4bd0
          0x006c4bce      4e4d           trap 0xd
       > 0x006c4bd0      2248           movea.l a0, a1
           0x006c4bd2      45f9006ba55c   lea.l 0x6ba55c, a2
           0x006c4bd8      7007           moveq 0x7, d0
       > 0x006c4bda      12da           move.b (a2)+, (a1)+
       < 0x006c4bdc      51c8fffc       dbra d0, 0x6c4bda
           0x006c4be0      7a00           moveq 0x0, d5
       > 0x006c4be2      4885           ext.w d5
          0x006c4be4      48c5           ext.l d5
          0x006c4be6      2248           movea.l a0, a1
          0x006c4be8      2005           move.l d5, d0
          0x006c4bea      e698           ror.l 0x3, d0
          0x006c4bec      d2c0           adda.w d0, a1
          0x006c4bee      4840           swap d0
          0x006c4bf0      e758           rol.w 0x3, d0
          0x006c4bf2      323cff7f       move.w 0xff7f, d1
          0x006c4bf6      e079           ror.w d0, d1
          0x006c4bf8      c3290015       and.b d1, 0x15(a1)
          0x006c4bfc      4885           ext.w d5
          0x006c4bfe      3005           move.w d5, d0
          0x006c4c00      e540           asl.w 0x2, d0
          0x006c4c02      21bc00000001.  move.l 0x1, 0x16(a0, d0.w)
          0x006c4c0a      5205           addq.b 0x1, d5
          0x006c4c0c      0c050004       cmpi.b 0x4, d5
       < 0x006c4c10      6fd0           ble.b 0x6c4be2
           0x006c4c12      1013           move.b (a3), d0
           0x006c4c14      4880           ext.w d0
           0x006c4c16      41f9006bc3f6   lea.l 0x6bc3f6, a0
           0x006c4c1c      3200           move.w d0, d1
           0x006c4c1e      e649           lsr.w 0x3, d1
           0x006c4c20      01301000       btst.l d0, (a0, d1.w)
       < 0x006c4c24      6768           beq.b 0x6c4c8e
          0x006c4c26      554f           subq.w 0x2, a7
          0x006c4c28      48780024       pea.l 0x24
          0x006c4c2c      4eb900474a9c   jsr CONFIG.cfg_hw_option
          0x006c4c32      584f           addq.w 0x4, a7
          0x006c4c34      4a1f           tst.b (a7)+
      < 0x006c4c36      6656           bne.b 0x6c4c8e
         0x006c4c38      594f           subq.w 0x4, a7
         0x006c4c3a      487805dc       pea.l 0x5dc
         0x006c4c3e      4eb90062788a   jsr PICTURENET.sysvol_wait
         0x006c4c44      584f           addq.w 0x4, a7
         0x006c4c46      23d7008551a8   move.l (a7), 0x8551a8
         0x006c4c4c      514f           subq.w 0x8, a7
         0x006c4c4e      2f39008551a8   move.l 0x8551a8, -(a7)
         0x006c4c54      4eb9005fb748   jsr F6_VOLUME.f_vol_status
         0x006c4c5a      584f           addq.w 0x4, a7
         0x006c4c5c      2d5ffe30       move.l (a7)+, -0x1d0(a6)
         0x006c4c60      2d5ffe34       move.l (a7)+, -0x1cc(a6)
         0x006c4c64      2d5ffe38       move.l (a7)+, -0x1c8(a6)
         0x006c4c68      2d6efe34fe3c   move.l -0x1cc(a6), -0x1c4(a6)
         0x006c4c6e      4280           clr.l d0
         0x006c4c70      102efe3e       move.b -0x1c2(a6), d0
         0x006c4c74      33c0008551a4   move.w d0, 0x8551a4
         0x006c4c7a      4280           clr.l d0
         0x006c4c7c      102efe3f       move.b -0x1c1(a6), d0
         0x006c4c80      33c0008551a6   move.w d0, 0x8551a6
         0x006c4c86      13fc00010085.  move.b 0x1, 0x8551ae.l
      > 0x006c4c8e      1013           move.b (a3), d0
           0x006c4c90      4880           ext.w d0
           0x006c4c92      41f9006bc3f8   lea.l 0x6bc3f8, a0
           0x006c4c98      3200           move.w d0, d1
           0x006c4c9a      e649           lsr.w 0x3, d1
           0x006c4c9c      01301000       btst.l d0, (a0, d1.w)
       < 0x006c4ca0      6704           beq.b 0x6c4ca6
          0x006c4ca2      4ebafdce       jsr USER2_DISK.init_update_que(pc)
       > 0x006c4ca6      1013           move.b (a3), d0
           0x006c4ca8      0c000001       cmpi.b 0x1, d0
       < 0x006c4cac      66000138       bne.w 0x6c4de6
          0x006c4cb0      28b9008551a8   move.l 0x8551a8, (a4)
          0x006c4cb6      23fcffffffff.  move.l 0xffffffff, 0x85519e.l
          0x006c4cc0      4279008551a2   clr.w 0x8551a2
          0x006c4cc6      554f           subq.w 0x2, a7
          0x006c4cc8      4854           pea.l (a4)
          0x006c4cca      3f3c044c       move.w 0x44c, -(a7)
          0x006c4cce      3f3c044c       move.w 0x44c, -(a7)
          0x006c4cd2      1f3c0001       move.b 0x1, -(a7)
          0x006c4cd6      486efe2e       pea.l -0x1d2(a6)
          0x006c4cda      4eb900607986   jsr F10_FILELIST.f_find_file
          0x006c4ce0      defc000e       adda.w 0xe, a7
          0x006c4ce4      4a1f           tst.b (a7)+
      < 0x006c4ce6      677e           beq.b 0x6c4d66
         0x006c4ce8      554f           subq.w 0x2, a7
         0x006c4cea      4eb9006ba3c2   jsr USER1_UTILS.udebug_on
         0x006c4cf0      4a1f           tst.b (a7)+
     < 0x006c4cf2      670000f2       beq.w 0x6c4de6
        0x006c4cf6      9efc0100       suba.w 0x100, a7
        0x006c4cfa      4854           pea.l (a4)
        0x006c4cfc      4eb9005ef416   jsr F2_UTILITY.f_fid_string
        0x006c4d02      584f           addq.w 0x4, a7
        0x006c4d04      4879006bc3fb   pea.l 0x6bc3fb
        0x006c4d0a      48780010       pea.l 0x10
        0x006c4d0e      2f17           move.l (a7), -(a7)
        0x006c4d10      4eb9004047ea   jsr p_wts_o
        0x006c4d16      defc000c       adda.w 0xc, a7
        0x006c4d1a      486f0001       pea.l 0x1(a7)
        0x006c4d1e      42a7           clr.l -(a7)
        0x006c4d20      1f6f00080003   move.b 0x8(a7), 0x3(a7)
        0x006c4d26      2f17           move.l (a7), -(a7)
        0x006c4d28      4eb9004047ea   jsr p_wts_o
        0x006c4d2e      defc010c       adda.w 0x10c, a7
        0x006c4d32      4879006bc40c   pea.l 0x6bc40c
        0x006c4d38      48780006       pea.l 0x6
        0x006c4d3c      2f17           move.l (a7), -(a7)
        0x006c4d3e      4eb9004047ea   jsr p_wts_o
        0x006c4d44      defc000c       adda.w 0xc, a7
        0x006c4d48      4280           clr.l d0
        0x006c4d4a      302efe2e       move.w -0x1d2(a6), d0
        0x006c4d4e      2f00           move.l d0, -(a7)
        0x006c4d50      48780001       pea.l 0x1
        0x006c4d54      4eb9004070e4   jsr p_wti_o
        0x006c4d5a      504f           addq.w 0x8, a7
        0x006c4d5c      4eb900404946   jsr p_wtln_o
    < 0x006c4d62      60000082       bra.w 0x6c4de6
    > 0x006c4d66      554f           subq.w 0x2, a7
        0x006c4d68      4eb9005ef980   jsr F2_UTILITY.f_eof
        0x006c4d6e      4a1f           tst.b (a7)+
    < 0x006c4d70      672a           beq.b 0x6c4d9c
       0x006c4d72      28b9006ba538   move.l 0x6ba538, (a4)
       0x006c4d78      23f9006ba53c.  move.l 0x6ba53c, 0x85519e.l
       0x006c4d82      33f9006ba540.  move.w 0x6ba540, 0x8551a2.l
       0x006c4d8c      554f           subq.w 0x2, a7
       0x006c4d8e      4227           clr.b -(a7)
       0x006c4d90      4ebac78a       jsr USER2_DISK.grab_file(pc)
       0x006c4d94      544f           addq.w 0x2, a7
       0x006c4d96      4a1f           tst.b (a7)+
   < 0x006c4d98      664c           bne.b 0x6c4de6
  < 0x006c4d9a      601c           bra.b 0x6c4db8
  > 0x006c4d9c      4879006bc413   pea.l 0x6bc413
      0x006c4da2      48780021       pea.l 0x21
      0x006c4da6      2f17           move.l (a7), -(a7)
      0x006c4da8      4eb9004047ea   jsr p_wts_o
      0x006c4dae      defc000c       adda.w 0xc, a7
      0x006c4db2      4eb900404946   jsr p_wtln_o
  > 0x006c4db8      9efc0100       suba.w 0x100, a7
       0x006c4dbc      4eb900408ec0   jsr p_err_string
       0x006c4dc2      486f0001       pea.l 0x1(a7)
       0x006c4dc6      42a7           clr.l -(a7)
       0x006c4dc8      1f6f00080003   move.b 0x8(a7), 0x3(a7)
       0x006c4dce      2f17           move.l (a7), -(a7)
       0x006c4dd0      4eb9004047ea   jsr p_wts_o
       0x006c4dd6      defc010c       adda.w 0x10c, a7
       0x006c4dda      4eb900404946   jsr p_wtln_o
       0x006c4de0      4eb900404188   jsr p_Unlink
   > 0x006c4de6      1013           move.b (a3), d0
           0x006c4de8      4880           ext.w d0
           0x006c4dea      41f9006bc434   lea.l 0x6bc434, a0
           0x006c4df0      3200           move.w d0, d1
           0x006c4df2      e649           lsr.w 0x3, d1
           0x006c4df4      01301000       btst.l d0, (a0, d1.w)
       < 0x006c4df8      67000872       beq.w 0x6c566c
          0x006c4dfc      41f9006bc436   lea.l 0x6bc436, a0
          0x006c4e02      3200           move.w d0, d1
          0x006c4e04      e649           lsr.w 0x3, d1
          0x006c4e06      01301000       btst.l d0, (a0, d1.w)
      < 0x006c4e0a      670001be       beq.w 0x6c4fca
         0x006c4e0e      9efc000c       suba.w 0xc, a7
         0x006c4e12      2f39006bc438   move.l 0x6bc438, -(a7)
         0x006c4e18      4eba9a3a       jsr USER2_DISK.ntable_drive(pc)
         0x006c4e1c      584f           addq.w 0x4, a7
         0x006c4e1e      23df008551ec   move.l (a7)+, 0x8551ec
         0x006c4e24      23df008551f0   move.l (a7)+, 0x8551f0
         0x006c4e2a      33df008551f4   move.w (a7)+, 0x8551f4
         0x006c4e30      13df008551f6   move.b (a7)+, 0x8551f6
     < 0x006c4e36      670000b2       beq.w 0x6c4eea
        0x006c4e3a      4a79008551ec   tst.w 0x8551ec
    < 0x006c4e40      660a           bne.b 0x6c4e4c
       0x006c4e42      4a79008551ee   tst.w 0x8551ee
   < 0x006c4e48      670000a0       beq.w 0x6c4eea
   > 0x006c4e4c      4879006bc43d   pea.l 0x6bc43d
       0x006c4e52      4878002e       pea.l 0x2e
       0x006c4e56      2f17           move.l (a7), -(a7)
       0x006c4e58      4eb9004047ea   jsr p_wts_o
       0x006c4e5e      defc000c       adda.w 0xc, a7
       0x006c4e62      4eb900404946   jsr p_wtln_o
       0x006c4e68      4879006bc46c   pea.l 0x6bc46c
       0x006c4e6e      4878000f       pea.l 0xf
       0x006c4e72      2f17           move.l (a7), -(a7)
       0x006c4e74      4eb9004047ea   jsr p_wts_o
       0x006c4e7a      defc000c       adda.w 0xc, a7
       0x006c4e7e      3239008551ec   move.w 0x8551ec, d1
       0x006c4e84      48c1           ext.l d1
       0x006c4e86      2f01           move.l d1, -(a7)
       0x006c4e88      48780000       pea.l 0x0
       0x006c4e8c      4eb9004070e4   jsr p_wti_o
       0x006c4e92      504f           addq.w 0x8, a7
       0x006c4e94      4879006bc47c   pea.l 0x6bc47c
       0x006c4e9a      48780006       pea.l 0x6
       0x006c4e9e      2f17           move.l (a7), -(a7)
       0x006c4ea0      4eb9004047ea   jsr p_wts_o
       0x006c4ea6      defc000c       adda.w 0xc, a7
       0x006c4eaa      3239008551ee   move.w 0x8551ee, d1
       0x006c4eb0      48c1           ext.l d1
       0x006c4eb2      2f01           move.l d1, -(a7)
       0x006c4eb4      48780000       pea.l 0x0
       0x006c4eb8      4eb9004070e4   jsr p_wti_o
       0x006c4ebe      504f           addq.w 0x8, a7
       0x006c4ec0      4879006bc483   pea.l 0x6bc483
       0x006c4ec6      4878000f       pea.l 0xf
       0x006c4eca      2f17           move.l (a7), -(a7)
       0x006c4ecc      4eb9004047ea   jsr p_wts_o
       0x006c4ed2      defc000c       adda.w 0xc, a7
       0x006c4ed6      4eb900404946   jsr p_wtln_o
       0x006c4edc      4879008551ec   pea.l 0x8551ec
       0x006c4ee2      4eb9006bcc0e   jsr USER2_DISK.clr_drv_info
       0x006c4ee8      584f           addq.w 0x4, a7
   > 0x006c4eea      4ab9008551f0   tst.l 0x8551f0
     < 0x006c4ef0      661a           bne.b 0x6c4f0c
        0x006c4ef2      4879006bc493   pea.l 0x6bc493
        0x006c4ef8      48780022       pea.l 0x22
    > 0x006c4efc      2f17           move.l (a7), -(a7)
       0x006c4efe      4eb9004047ea   jsr p_wts_o
       0x006c4f04      defc000c       adda.w 0xc, a7
   < 0x006c4f08      600000ba       bra.w 0x6c4fc4
   > 0x006c4f0c      4a39008551f6   tst.b 0x8551f6
   < 0x006c4f12      6632           bne.b 0x6c4f46
      0x006c4f14      4879006bc4b6   pea.l 0x6bc4b6
      0x006c4f1a      48780010       pea.l 0x10
      0x006c4f1e      2f17           move.l (a7), -(a7)
      0x006c4f20      4eb9004047ea   jsr p_wts_o
      0x006c4f26      504f           addq.w 0x8, a7
      0x006c4f28      2eb9008551f0   move.l 0x8551f0, (a7)
      0x006c4f2e      4878ffff       pea.l 0xffff
      0x006c4f32      4eb9004070e4   jsr p_wti_o
      0x006c4f38      504f           addq.w 0x8, a7
      0x006c4f3a      4879006bc4c7   pea.l 0x6bc4c7
      0x006c4f40      4878000f       pea.l 0xf
   < 0x006c4f44      60b6           bra.b 0x6c4efc
    > 0x006c4f46      4879006bc4d7   pea.l 0x6bc4d7
        0x006c4f4c      4878001e       pea.l 0x1e
        0x006c4f50      2f17           move.l (a7), -(a7)
        0x006c4f52      4eb9004047ea   jsr p_wts_o
        0x006c4f58      defc000c       adda.w 0xc, a7
        0x006c4f5c      3239008551ec   move.w 0x8551ec, d1
        0x006c4f62      48c1           ext.l d1
        0x006c4f64      2f01           move.l d1, -(a7)
        0x006c4f66      48780000       pea.l 0x0
        0x006c4f6a      4eb9004070e4   jsr p_wti_o
        0x006c4f70      504f           addq.w 0x8, a7
        0x006c4f72      4879006bc4f6   pea.l 0x6bc4f6
        0x006c4f78      48780006       pea.l 0x6
        0x006c4f7c      2f17           move.l (a7), -(a7)
        0x006c4f7e      4eb9004047ea   jsr p_wts_o
        0x006c4f84      defc000c       adda.w 0xc, a7
        0x006c4f88      3239008551ee   move.w 0x8551ee, d1
        0x006c4f8e      48c1           ext.l d1
        0x006c4f90      2f01           move.l d1, -(a7)
        0x006c4f92      48780000       pea.l 0x0
        0x006c4f96      4eb9004070e4   jsr p_wti_o
        0x006c4f9c      504f           addq.w 0x8, a7
        0x006c4f9e      4879006bc4fd   pea.l 0x6bc4fd
        0x006c4fa4      48780006       pea.l 0x6
        0x006c4fa8      2f17           move.l (a7), -(a7)
        0x006c4faa      4eb9004047ea   jsr p_wts_o
        0x006c4fb0      504f           addq.w 0x8, a7
        0x006c4fb2      2eb9008551f0   move.l 0x8551f0, (a7)
        0x006c4fb8      4878ffff       pea.l 0xffff
        0x006c4fbc      4eb9004070e4   jsr p_wti_o
        0x006c4fc2      504f           addq.w 0x8, a7
   > 0x006c4fc4      4eb900404946   jsr p_wtln_o
      > 0x006c4fca      1213           move.b (a3), d1
          0x006c4fcc      4881           ext.w d1
          0x006c4fce      41f9006bc504   lea.l 0x6bc504, a0
          0x006c4fd4      3401           move.w d1, d2
          0x006c4fd6      e64a           lsr.w 0x3, d2
          0x006c4fd8      03302000       btst.l d1, (a0, d2.w)
      < 0x006c4fdc      670001cc       beq.w 0x6c51aa
         0x006c4fe0      554f           subq.w 0x2, a7
         0x006c4fe2      4eb900475a98   jsr CONFIG.cfg_clipbox
         0x006c4fe8      4a1f           tst.b (a7)+
     < 0x006c4fea      670001be       beq.w 0x6c51aa
        0x006c4fee      9efc000c       suba.w 0xc, a7
        0x006c4ff2      2f39006bc506   move.l 0x6bc506, -(a7)
        0x006c4ff8      4eba985a       jsr USER2_DISK.ntable_drive(pc)
        0x006c4ffc      584f           addq.w 0x4, a7
        0x006c4ffe      23df008552c4   move.l (a7)+, 0x8552c4
        0x006c5004      23df008552c8   move.l (a7)+, 0x8552c8
        0x006c500a      33df008552cc   move.w (a7)+, 0x8552cc
        0x006c5010      13df008552ce   move.b (a7)+, 0x8552ce
    < 0x006c5016      670000b2       beq.w 0x6c50ca
       0x006c501a      4a79008552c4   tst.w 0x8552c4
   < 0x006c5020      660a           bne.b 0x6c502c
      0x006c5022      4a79008552c6   tst.w 0x8552c6
  < 0x006c5028      670000a0       beq.w 0x6c50ca
  > 0x006c502c      4879006bc50b   pea.l 0x6bc50b
      0x006c5032      48780032       pea.l 0x32
      0x006c5036      2f17           move.l (a7), -(a7)
      0x006c5038      4eb9004047ea   jsr p_wts_o
      0x006c503e      defc000c       adda.w 0xc, a7
      0x006c5042      4eb900404946   jsr p_wtln_o
      0x006c5048      4879006bc53e   pea.l 0x6bc53e
      0x006c504e      4878000f       pea.l 0xf
      0x006c5052      2f17           move.l (a7), -(a7)
      0x006c5054      4eb9004047ea   jsr p_wts_o
      0x006c505a      defc000c       adda.w 0xc, a7
      0x006c505e      3239008552c4   move.w 0x8552c4, d1
      0x006c5064      48c1           ext.l d1
      0x006c5066      2f01           move.l d1, -(a7)
      0x006c5068      48780000       pea.l 0x0
      0x006c506c      4eb9004070e4   jsr p_wti_o
      0x006c5072      504f           addq.w 0x8, a7
      0x006c5074      4879006bc54e   pea.l 0x6bc54e
      0x006c507a      48780006       pea.l 0x6
      0x006c507e      2f17           move.l (a7), -(a7)
      0x006c5080      4eb9004047ea   jsr p_wts_o
      0x006c5086      defc000c       adda.w 0xc, a7
      0x006c508a      3239008552c6   move.w 0x8552c6, d1
      0x006c5090      48c1           ext.l d1
      0x006c5092      2f01           move.l d1, -(a7)
      0x006c5094      48780000       pea.l 0x0
      0x006c5098      4eb9004070e4   jsr p_wti_o
      0x006c509e      504f           addq.w 0x8, a7
      0x006c50a0      4879006bc555   pea.l 0x6bc555
      0x006c50a6      4878000f       pea.l 0xf
      0x006c50aa      2f17           move.l (a7), -(a7)
      0x006c50ac      4eb9004047ea   jsr p_wts_o
      0x006c50b2      defc000c       adda.w 0xc, a7
      0x006c50b6      4eb900404946   jsr p_wtln_o
      0x006c50bc      4879008552c4   pea.l 0x8552c4
      0x006c50c2      4eb9006bcc0e   jsr USER2_DISK.clr_drv_info
      0x006c50c8      584f           addq.w 0x4, a7
  > 0x006c50ca      4ab9008552c8   tst.l 0x8552c8
    < 0x006c50d0      661a           bne.b 0x6c50ec
       0x006c50d2      4879006bc565   pea.l 0x6bc565
       0x006c50d8      48780023       pea.l 0x23
   > 0x006c50dc      2f17           move.l (a7), -(a7)
      0x006c50de      4eb9004047ea   jsr p_wts_o
      0x006c50e4      defc000c       adda.w 0xc, a7
  < 0x006c50e8      600000ba       bra.w 0x6c51a4
  > 0x006c50ec      4a39008552ce   tst.b 0x8552ce
  < 0x006c50f2      6632           bne.b 0x6c5126
     0x006c50f4      4879006bc589   pea.l 0x6bc589
     0x006c50fa      48780011       pea.l 0x11
     0x006c50fe      2f17           move.l (a7), -(a7)
     0x006c5100      4eb9004047ea   jsr p_wts_o
     0x006c5106      504f           addq.w 0x8, a7
     0x006c5108      2eb9008552c8   move.l 0x8552c8, (a7)
     0x006c510e      4878ffff       pea.l 0xffff
     0x006c5112      4eb9004070e4   jsr p_wti_o
     0x006c5118      504f           addq.w 0x8, a7
     0x006c511a      4879006bc59b   pea.l 0x6bc59b
     0x006c5120      4878000f       pea.l 0xf
  < 0x006c5124      60b6           bra.b 0x6c50dc
   > 0x006c5126      4879006bc5ab   pea.l 0x6bc5ab
       0x006c512c      4878001f       pea.l 0x1f
       0x006c5130      2f17           move.l (a7), -(a7)
       0x006c5132      4eb9004047ea   jsr p_wts_o
       0x006c5138      defc000c       adda.w 0xc, a7
       0x006c513c      3239008552c4   move.w 0x8552c4, d1
       0x006c5142      48c1           ext.l d1
       0x006c5144      2f01           move.l d1, -(a7)
       0x006c5146      48780000       pea.l 0x0
       0x006c514a      4eb9004070e4   jsr p_wti_o
       0x006c5150      504f           addq.w 0x8, a7
       0x006c5152      4879006bc5cb   pea.l 0x6bc5cb
       0x006c5158      48780006       pea.l 0x6
       0x006c515c      2f17           move.l (a7), -(a7)
       0x006c515e      4eb9004047ea   jsr p_wts_o
       0x006c5164      defc000c       adda.w 0xc, a7
       0x006c5168      3239008552c6   move.w 0x8552c6, d1
       0x006c516e      48c1           ext.l d1
       0x006c5170      2f01           move.l d1, -(a7)
       0x006c5172      48780000       pea.l 0x0
       0x006c5176      4eb9004070e4   jsr p_wti_o
       0x006c517c      504f           addq.w 0x8, a7
       0x006c517e      4879006bc5d2   pea.l 0x6bc5d2
       0x006c5184      48780006       pea.l 0x6
       0x006c5188      2f17           move.l (a7), -(a7)
       0x006c518a      4eb9004047ea   jsr p_wts_o
       0x006c5190      504f           addq.w 0x8, a7
       0x006c5192      2eb9008552c8   move.l 0x8552c8, (a7)
       0x006c5198      4878ffff       pea.l 0xffff
       0x006c519c      4eb9004070e4   jsr p_wti_o
       0x006c51a2      504f           addq.w 0x8, a7
  > 0x006c51a4      4eb900404946   jsr p_wtln_o
     > 0x006c51aa      1213           move.b (a3), d1
          0x006c51ac      4881           ext.w d1
          0x006c51ae      41f9006bc5d8   lea.l 0x6bc5d8, a0
          0x006c51b4      3401           move.w d1, d2
          0x006c51b6      e64a           lsr.w 0x3, d2
          0x006c51b8      03302000       btst.l d1, (a0, d2.w)
      < 0x006c51bc      6700031e       beq.w 0x6c54dc
         0x006c51c0      554f           subq.w 0x2, a7
         0x006c51c2      48780021       pea.l 0x21
         0x006c51c6      4eb900474af8   jsr CONFIG.cfg_option
         0x006c51cc      584f           addq.w 0x4, a7
         0x006c51ce      4a1f           tst.b (a7)+
     < 0x006c51d0      6700030a       beq.w 0x6c54dc
        0x006c51d4      594f           subq.w 0x4, a7
        0x006c51d6      486efe40       pea.l -0x1c0(a6)
        0x006c51da      4267           clr.w -(a7)
        0x006c51dc      3f3c0063       move.w 0x63, -(a7)
        0x006c51e0      4eb9005fb874   jsr F6_VOLUME.f_list_volumes
        0x006c51e6      504f           addq.w 0x8, a7
        0x006c51e8      2d5ffdd6       move.l (a7)+, -0x22a(a6)
    < 0x006c51ec      67000174       beq.w 0x6c5362
       0x006c51f0      2f2efdd6       move.l -0x22a(a6), -(a7)
       0x006c51f4      5397           subq.l 0x1, (a7)
       0x006c51f6      7a00           moveq 0x0, d5
   > 0x006c51f8      ba97           cmp.l (a7), d5
  < 0x006c51fa      6e000164       bgt.w 0x6c5360
     0x006c51fe      1d7c0002fff6   move.b 0x2, -0xa(a6)
     0x006c5204      422efff8       clr.b -0x8(a6)
     0x006c5208      422efff9       clr.b -0x7(a6)
     0x006c520c      0c8500000063   cmpi.l 0x63, d5
 < 0x006c5212      6302           bls.b 0x6c5216
    0x006c5214      4e4f           trap 0xf
 > 0x006c5216      2205           move.l d5, d1
     0x006c5218      e581           asl.l 0x2, d1
     0x006c521a      41eefdd6       lea.l -0x22a(a6), a0
     0x006c521e      554f           subq.w 0x2, a7
     0x006c5220      2f30186a       move.l 0x6a(a0, d1.l), -(a7)
     0x006c5224      2f2efff6       move.l -0xa(a6), -(a7)
     0x006c5228      4eba802c       jsr USER2_DISK.volume_suitable(pc)
     0x006c522c      504f           addq.w 0x8, a7
     0x006c522e      4a1f           tst.b (a7)+
 < 0x006c5230      67000128       beq.w 0x6c535a
    0x006c5234      9efc000c       suba.w 0xc, a7
    0x006c5238      2f30186a       move.l 0x6a(a0, d1.l), -(a7)
    0x006c523c      4eb9005fb748   jsr F6_VOLUME.f_vol_status
    0x006c5242      584f           addq.w 0x4, a7
    0x006c5244      2d5ffe30       move.l (a7)+, -0x1d0(a6)
    0x006c5248      2d5ffe34       move.l (a7)+, -0x1cc(a6)
    0x006c524c      2d5ffe38       move.l (a7)+, -0x1c8(a6)
    0x006c5250      242efe34       move.l -0x1cc(a6), d2
    0x006c5254      2d42ffd0       move.l d2, -0x30(a6)
    0x006c5258      554f           subq.w 0x2, a7
    0x006c525a      2f2efe34       move.l -0x1cc(a6), -(a7)
    0x006c525e      4eb90066e8fe   jsr N10_UTILS.n_stn_id
    0x006c5264      584f           addq.w 0x4, a7
    0x006c5266      3d5fffd4       move.w (a7)+, -0x2c(a6)
 < 0x006c526a      664a           bne.b 0x6c52b6
    0x006c526c      4879006bc5db   pea.l 0x6bc5db
    0x006c5272      48780007       pea.l 0x7
    0x006c5276      2f17           move.l (a7), -(a7)
    0x006c5278      4eb9004047ea   jsr p_wts_o
    0x006c527e      504f           addq.w 0x8, a7
    0x006c5280      2eb0186a       move.l 0x6a(a0, d1.l), (a7)
    0x006c5284      4878ffff       pea.l 0xffff
    0x006c5288      4eb9004070e4   jsr p_wti_o
    0x006c528e      504f           addq.w 0x8, a7
    0x006c5290      4879006bc5e3   pea.l 0x6bc5e3
    0x006c5296      48780016       pea.l 0x16
    0x006c529a      2f17           move.l (a7), -(a7)
    0x006c529c      4eb9004047ea   jsr p_wts_o
    0x006c52a2      504f           addq.w 0x8, a7
    0x006c52a4      2e82           move.l d2, (a7)
    0x006c52a6      4878ffff       pea.l 0xffff
    0x006c52aa      4eb9004070e4   jsr p_wti_o
    0x006c52b0      504f           addq.w 0x8, a7
 < 0x006c52b2      600000a0       bra.w 0x6c5354
 > 0x006c52b6      4a2effd2       tst.b -0x2e(a6)
 < 0x006c52ba      6616           bne.b 0x6c52d2
    0x006c52bc      4a2effd3       tst.b -0x2d(a6)
 < 0x006c52c0      6610           bne.b 0x6c52d2
    0x006c52c2      2f30186a       move.l 0x6a(a0, d1.l), -(a7)
    0x006c52c6      2f02           move.l d2, -(a7)
    0x006c52c8      4ebae604       jsr USER2_DISK.set_pnet_volume(pc)
    0x006c52cc      504f           addq.w 0x8, a7
 < 0x006c52ce      6000008a       bra.w 0x6c535a
 > 0x006c52d2      554f           subq.w 0x2, a7
    0x006c52d4      4eb9006ba3c2   jsr USER1_UTILS.udebug_on
    0x006c52da      4a1f           tst.b (a7)+
 < 0x006c52dc      677c           beq.b 0x6c535a
    0x006c52de      9efc0100       suba.w 0x100, a7
    0x006c52e2      3f2effd4       move.w -0x2c(a6), -(a7)
    0x006c52e6      4eb90066ea9c   jsr N10_UTILS.n_stn_str
    0x006c52ec      544f           addq.w 0x2, a7
    0x006c52ee      4879006bc5fa   pea.l 0x6bc5fa
    0x006c52f4      48780006       pea.l 0x6
    0x006c52f8      2f17           move.l (a7), -(a7)
    0x006c52fa      4eb9004047ea   jsr p_wts_o
    0x006c5300      504f           addq.w 0x8, a7
    0x006c5302      2e82           move.l d2, (a7)
    0x006c5304      4878ffff       pea.l 0xffff
    0x006c5308      4eb9004070e4   jsr p_wti_o
    0x006c530e      504f           addq.w 0x8, a7
    0x006c5310      4879006bc601   pea.l 0x6bc601
    0x006c5316      4878000c       pea.l 0xc
    0x006c531a      2f17           move.l (a7), -(a7)
    0x006c531c      4eb9004047ea   jsr p_wts_o
    0x006c5322      defc000c       adda.w 0xc, a7
    0x006c5326      486f0001       pea.l 0x1(a7)
    0x006c532a      42a7           clr.l -(a7)
    0x006c532c      1f6f00080003   move.b 0x8(a7), 0x3(a7)
    0x006c5332      2f17           move.l (a7), -(a7)
    0x006c5334      4eb9004047ea   jsr p_wts_o
    0x006c533a      defc010c       adda.w 0x10c, a7
    0x006c533e      4879006bc60e   pea.l 0x6bc60e
    0x006c5344      4878000d       pea.l 0xd
    0x006c5348      2f17           move.l (a7), -(a7)
    0x006c534a      4eb9004047ea   jsr p_wts_o
    0x006c5350      defc000c       adda.w 0xc, a7
 > 0x006c5354      4eb900404946   jsr p_wtln_o
 > 0x006c535a      5285           addq.l 0x1, d5
  < 0x006c535c      6800fe9a       bvc.w 0x6c51f8
  > 0x006c5360      584f           addq.w 0x4, a7
    > 0x006c5362      7c01           moveq 0x1, d6
    > 0x006c5364      7e01           moveq 0x1, d7
   > 0x006c5366      554f           subq.w 0x2, a7
      0x006c5368      2f06           move.l d6, -(a7)
      0x006c536a      2f07           move.l d7, -(a7)
      0x006c536c      4eb9006bc9b4   jsr USER2_DISK.stn_known
      0x006c5372      504f           addq.w 0x8, a7
      0x006c5374      4a1f           tst.b (a7)+
  < 0x006c5376      675a           beq.b 0x6c53d2
     0x006c5378      2207           move.l d7, d1
     0x006c537a      5381           subq.l 0x1, d1
     0x006c537c      0c810000001e   cmpi.l 0x1e, d1
 < 0x006c5382      6302           bls.b 0x6c5386
    0x006c5384      4e4f           trap 0xf
 > 0x006c5386      e581           asl.l 0x2, d1
     0x006c5388      2406           move.l d6, d2
     0x006c538a      5382           subq.l 0x1, d2
     0x006c538c      0c820000001e   cmpi.l 0x1e, d2
 < 0x006c5392      6302           bls.b 0x6c5396
    0x006c5394      4e4f           trap 0xf
 > 0x006c5396      2802           move.l d2, d4
     0x006c5398      767c           moveq 0x7c, d3
     0x006c539a      4eb900406a74   jsr fcn.00406a74
     0x006c53a0      204c           movea.l a4, a0
     0x006c53a2      41f04800       lea.l (a0, d4.l), a0
     0x006c53a6      41f01800       lea.l (a0, d1.l), a0
     0x006c53aa      20680172       movea.l 0x172(a0), a0
     0x006c53ae      b1e8fffc       cmpa.l -0x4(a0), a0
 < 0x006c53b2      6702           beq.b 0x6c53b6
    0x006c53b4      4e4d           trap 0xd
 > 0x006c53b6      554f           subq.w 0x2, a7
     0x006c53b8      2f280004       move.l 0x4(a0), -(a7)
     0x006c53bc      4227           clr.b -(a7)
     0x006c53be      4eb9005fbc62   jsr F6_VOLUME.f_accessible
     0x006c53c4      5c4f           addq.w 0x6, a7
     0x006c53c6      121f           move.b (a7)+, d1
     0x006c53c8      4881           ext.w d1
     0x006c53ca      43bc0001       chk.w 0x1, d1
     0x006c53ce      1141000a       move.b d1, 0xa(a0)
  > 0x006c53d2      5287           addq.l 0x1, d7
      0x006c53d4      0c870000001f   cmpi.l 0x1f, d7
   < 0x006c53da      6f8a           ble.b 0x6c5366
       0x006c53dc      5286           addq.l 0x1, d6
       0x006c53de      0c860000001f   cmpi.l 0x1f, d6
    < 0x006c53e4      6f00ff7e       ble.w 0x6c5364
        0x006c53e8      422effd6       clr.b -0x2a(a6)
        0x006c53ec      7c01           moveq 0x1, d6
    > 0x006c53ee      7e01           moveq 0x1, d7
   > 0x006c53f0      554f           subq.w 0x2, a7
      0x006c53f2      2f06           move.l d6, -(a7)
      0x006c53f4      2f07           move.l d7, -(a7)
      0x006c53f6      4eb9006bc9b4   jsr USER2_DISK.stn_known
      0x006c53fc      504f           addq.w 0x8, a7
      0x006c53fe      4a1f           tst.b (a7)+
  < 0x006c5400      6706           beq.b 0x6c5408
     0x006c5402      1d7c0001ffd6   move.b 0x1, -0x2a(a6)
  > 0x006c5408      5287           addq.l 0x1, d7
      0x006c540a      0c870000001f   cmpi.l 0x1f, d7
   < 0x006c5410      6fde           ble.b 0x6c53f0
       0x006c5412      5286           addq.l 0x1, d6
       0x006c5414      0c860000001f   cmpi.l 0x1f, d6
    < 0x006c541a      6fd2           ble.b 0x6c53ee
        0x006c541c      4a2effd6       tst.b -0x2a(a6)
    < 0x006c5420      6620           bne.b 0x6c5442
       0x006c5422      4879006bc61c   pea.l 0x6bc61c
       0x006c5428      48780026       pea.l 0x26
       0x006c542c      2f17           move.l (a7), -(a7)
       0x006c542e      4eb9004047ea   jsr p_wts_o
       0x006c5434      defc000c       adda.w 0xc, a7
       0x006c5438      4eb900404946   jsr p_wtln_o
   < 0x006c543e      6000009c       bra.w 0x6c54dc
   > 0x006c5442      7c01           moveq 0x1, d6
   > 0x006c5444      7e01           moveq 0x1, d7
  > 0x006c5446      554f           subq.w 0x2, a7
     0x006c5448      2f06           move.l d6, -(a7)
     0x006c544a      2f07           move.l d7, -(a7)
     0x006c544c      4eb9006bc9b4   jsr USER2_DISK.stn_known
     0x006c5452      504f           addq.w 0x8, a7
     0x006c5454      4a1f           tst.b (a7)+
 < 0x006c5456      676c           beq.b 0x6c54c4
    0x006c5458      2206           move.l d6, d1
    0x006c545a      5381           subq.l 0x1, d1
    0x006c545c      0c810000001e   cmpi.l 0x1e, d1
 < 0x006c5462      6302           bls.b 0x6c5466
    0x006c5464      4e4f           trap 0xf
 > 0x006c5466      2801           move.l d1, d4
    0x006c5468      767c           moveq 0x7c, d3
    0x006c546a      4eb900406a74   jsr fcn.00406a74
    0x006c5470      2207           move.l d7, d1
    0x006c5472      5381           subq.l 0x1, d1
    0x006c5474      0c810000001e   cmpi.l 0x1e, d1
 < 0x006c547a      6302           bls.b 0x6c547e
    0x006c547c      4e4f           trap 0xf
 > 0x006c547e      e581           asl.l 0x2, d1
    0x006c5480      204c           movea.l a4, a0
    0x006c5482      41f04800       lea.l (a0, d4.l), a0
    0x006c5486      41f01800       lea.l (a0, d1.l), a0
    0x006c548a      20680172       movea.l 0x172(a0), a0
    0x006c548e      b1e8fffc       cmpa.l -0x4(a0), a0
 < 0x006c5492      6702           beq.b 0x6c5496
    0x006c5494      4e4d           trap 0xd
 > 0x006c5496      9efc000c       suba.w 0xc, a7
    0x006c549a      224f           movea.l a7, a1
    0x006c549c      720a           moveq 0xa, d1
 > 0x006c549e      12d8           move.b (a0)+, (a1)+
 < 0x006c54a0      51c9fffc       dbra d1, 0x6c549e
    0x006c54a4      0c86000000ff   cmpi.l 0xff, d6
 < 0x006c54aa      6302           bls.b 0x6c54ae
    0x006c54ac      4e4f           trap 0xf
 > 0x006c54ae      3f06           move.w d6, -(a7)
    0x006c54b0      0c87000000ff   cmpi.l 0xff, d7
 < 0x006c54b6      6302           bls.b 0x6c54ba
    0x006c54b8      4e4f           trap 0xf
 > 0x006c54ba      3f07           move.w d7, -(a7)
    0x006c54bc      4ebae59a       jsr USER2_DISK.pn_driveup(pc)
    0x006c54c0      defc0010       adda.w 0x10, a7
 > 0x006c54c4      5287           addq.l 0x1, d7
     0x006c54c6      0c870000001f   cmpi.l 0x1f, d7
  < 0x006c54cc      6f00ff78       ble.w 0x6c5446
      0x006c54d0      5286           addq.l 0x1, d6
      0x006c54d2      0c860000001f   cmpi.l 0x1f, d6
   < 0x006c54d8      6f00ff6a       ble.w 0x6c5444
   > 0x006c54dc      594f           subq.w 0x4, a7
          0x006c54de      486efdde       pea.l -0x222(a6)
          0x006c54e2      3f3c0001       move.w 0x1, -(a7)
          0x006c54e6      3f3c0010       move.w 0x10, -(a7)
          0x006c54ea      4eb9005f884e   jsr F6_DRIVE.f_list_drives
          0x006c54f0      504f           addq.w 0x8, a7
          0x006c54f2      2d57fdda       move.l (a7), -0x226(a6)
          0x006c54f6      544f           addq.w 0x2, a7
          0x006c54f8      4eb9006ba3c2   jsr USER1_UTILS.udebug_on
          0x006c54fe      4a1f           tst.b (a7)+
      < 0x006c5500      6770           beq.b 0x6c5572
         0x006c5502      4879006bc643   pea.l 0x6bc643
         0x006c5508      4878000a       pea.l 0xa
         0x006c550c      2f17           move.l (a7), -(a7)
         0x006c550e      4eb9004047ea   jsr p_wts_o
         0x006c5514      504f           addq.w 0x8, a7
         0x006c5516      2eaefdda       move.l -0x226(a6), (a7)
         0x006c551a      48780000       pea.l 0x0
         0x006c551e      4eb9004070e4   jsr p_wti_o
         0x006c5524      504f           addq.w 0x8, a7
         0x006c5526      4879006bc64e   pea.l 0x6bc64e
         0x006c552c      4878001c       pea.l 0x1c
         0x006c5530      2f17           move.l (a7), -(a7)
         0x006c5532      4eb9004047ea   jsr p_wts_o
         0x006c5538      defc000c       adda.w 0xc, a7
         0x006c553c      4eb900404946   jsr p_wtln_o
         0x006c5542      2f2efdda       move.l -0x226(a6), -(a7)
         0x006c5546      7a01           moveq 0x1, d5
     > 0x006c5548      ba97           cmp.l (a7), d5
    < 0x006c554a      6e24           bgt.b 0x6c5570
       0x006c554c      2205           move.l d5, d1
       0x006c554e      5381           subq.l 0x1, d1
       0x006c5550      0c810000000f   cmpi.l 0xf, d1
   < 0x006c5556      6302           bls.b 0x6c555a
      0x006c5558      4e4f           trap 0xf
   > 0x006c555a      e581           asl.l 0x2, d1
       0x006c555c      41eefdd6       lea.l -0x22a(a6), a0
       0x006c5560      2f301808       move.l 0x8(a0, d1.l), -(a7)
       0x006c5564      4eb9006b8448   jsr USER1_UTILS.show_drive
       0x006c556a      584f           addq.w 0x4, a7
       0x006c556c      5285           addq.l 0x1, d5
    < 0x006c556e      68d8           bvc.b 0x6c5548
    > 0x006c5570      584f           addq.w 0x4, a7
      > 0x006c5572      7a01           moveq 0x1, d5
      > 0x006c5574      baaefdda       cmp.l -0x226(a6), d5
     < 0x006c5578      6e4e           bgt.b 0x6c55c8
        0x006c557a      2205           move.l d5, d1
        0x006c557c      5381           subq.l 0x1, d1
        0x006c557e      0c810000000f   cmpi.l 0xf, d1
    < 0x006c5584      6302           bls.b 0x6c5588
       0x006c5586      4e4f           trap 0xf
    > 0x006c5588      e581           asl.l 0x2, d1
        0x006c558a      41eefdd6       lea.l -0x22a(a6), a0
        0x006c558e      554f           subq.w 0x2, a7
        0x006c5590      2f301808       move.l 0x8(a0, d1.l), -(a7)
        0x006c5594      4eba81ac       jsr USER2_DISK.drive_removeabl(pc)
        0x006c5598      584f           addq.w 0x4, a7
        0x006c559a      4a1f           tst.b (a7)+
    < 0x006c559c      6726           beq.b 0x6c55c4
       0x006c559e      554f           subq.w 0x2, a7
       0x006c55a0      2f301808       move.l 0x8(a0, d1.l), -(a7)
       0x006c55a4      4eba84b8       jsr USER2_DISK.nums_on_drive(pc)
       0x006c55a8      584f           addq.w 0x4, a7
       0x006c55aa      4a1f           tst.b (a7)+
   < 0x006c55ac      6716           beq.b 0x6c55c4
      0x006c55ae      2f301808       move.l 0x8(a0, d1.l), -(a7)
      0x006c55b2      594f           subq.w 0x4, a7
      0x006c55b4      2f301808       move.l 0x8(a0, d1.l), -(a7)
      0x006c55b8      4eba83a6       jsr USER2_DISK.drive_region(pc)
      0x006c55bc      584f           addq.w 0x4, a7
      0x006c55be      4ebad8b4       jsr USER2_DISK.add_exch_drive(pc)
      0x006c55c2      504f           addq.w 0x8, a7
   > 0x006c55c4      5285           addq.l 0x1, d5
     < 0x006c55c6      68ac           bvc.b 0x6c5574
     > 0x006c55c8      2f39006bc66a   move.l 0x6bc66a, -(a7)
          0x006c55ce      4ebadcb8       jsr USER2_DISK.sort_drive_list(pc)
          0x006c55d2      2eb9006bc66e   move.l 0x6bc66e, (a7)
          0x006c55d8      4ebadcae       jsr USER2_DISK.sort_drive_list(pc)
          0x006c55dc      2eb9006bc672   move.l 0x6bc672, (a7)
          0x006c55e2      4ebadca4       jsr USER2_DISK.sort_drive_list(pc)
          0x006c55e6      544f           addq.w 0x2, a7
          0x006c55e8      4eb9006ba3c2   jsr USER1_UTILS.udebug_on
          0x006c55ee      4a1f           tst.b (a7)+
      < 0x006c55f0      6706           beq.b 0x6c55f8
         0x006c55f2      4eb9006bcba8   jsr USER2_DISK.show_exch
      > 0x006c55f8      1213           move.b (a3), d1
          0x006c55fa      4881           ext.w d1
          0x006c55fc      41f9006bc676   lea.l 0x6bc676, a0
          0x006c5602      3401           move.w d1, d2
          0x006c5604      e64a           lsr.w 0x3, d2
          0x006c5606      03302000       btst.l d1, (a0, d2.w)
      < 0x006c560a      6760           beq.b 0x6c566c
         0x006c560c      554f           subq.w 0x2, a7
         0x006c560e      48780021       pea.l 0x21
         0x006c5612      4eb900474af8   jsr CONFIG.cfg_option
         0x006c5618      584f           addq.w 0x4, a7
         0x006c561a      4a1f           tst.b (a7)+
     < 0x006c561c      674e           beq.b 0x6c566c
        0x006c561e      4a2effd6       tst.b -0x2a(a6)
    < 0x006c5622      6748           beq.b 0x6c566c
       0x006c5624      7c01           moveq 0x1, d6
   > 0x006c5626      7e01           moveq 0x1, d7
  > 0x006c5628      554f           subq.w 0x2, a7
     0x006c562a      2f06           move.l d6, -(a7)
     0x006c562c      2f07           move.l d7, -(a7)
     0x006c562e      4eb9006bc9b4   jsr USER2_DISK.stn_known
     0x006c5634      504f           addq.w 0x8, a7
     0x006c5636      4a1f           tst.b (a7)+
 < 0x006c5638      671e           beq.b 0x6c5658
    0x006c563a      0c86000000ff   cmpi.l 0xff, d6
 < 0x006c5640      6302           bls.b 0x6c5644
    0x006c5642      4e4f           trap 0xf
 > 0x006c5644      3f06           move.w d6, -(a7)
    0x006c5646      0c87000000ff   cmpi.l 0xff, d7
 < 0x006c564c      6302           bls.b 0x6c5650
    0x006c564e      4e4f           trap 0xf
 > 0x006c5650      3f07           move.w d7, -(a7)
    0x006c5652      4ebadfba       jsr USER2_DISK.scan_station_fo(pc)
    0x006c5656      584f           addq.w 0x4, a7
 > 0x006c5658      5287           addq.l 0x1, d7
     0x006c565a      0c870000001f   cmpi.l 0x1f, d7
  < 0x006c5660      6fc6           ble.b 0x6c5628
      0x006c5662      5286           addq.l 0x1, d6
      0x006c5664      0c860000001f   cmpi.l 0x1f, d6
   < 0x006c566a      6fba           ble.b 0x6c5626
    > 0x006c566c      1013           move.b (a3), d0
           0x006c566e      4880           ext.w d0
           0x006c5670      41f9006bc678   lea.l 0x6bc678, a0
           0x006c5676      3200           move.w d0, d1
           0x006c5678      e649           lsr.w 0x3, d1
           0x006c567a      01301000       btst.l d0, (a0, d1.w)
       < 0x006c567e      6700008a       beq.w 0x6c570a
          0x006c5682      4a790085622a   tst.w 0x85622a
      < 0x006c5688      6732           beq.b 0x6c56bc
         0x006c568a      30390085622a   move.w 0x85622a, d0
         0x006c5690      48c0           ext.l d0
         0x006c5692      2f00           move.l d0, -(a7)
         0x006c5694      48780000       pea.l 0x0
         0x006c5698      4eb9004070e4   jsr p_wti_o
         0x006c569e      504f           addq.w 0x8, a7
         0x006c56a0      4879006bc67b   pea.l 0x6bc67b
         0x006c56a6      48780029       pea.l 0x29
         0x006c56aa      2f17           move.l (a7), -(a7)
         0x006c56ac      4eb9004047ea   jsr p_wts_o
         0x006c56b2      defc000c       adda.w 0xc, a7
         0x006c56b6      4eb900404946   jsr p_wtln_o
      > 0x006c56bc      9efc0012       suba.w 0x12, a7
          0x006c56c0      204f           movea.l a7, a0
          0x006c56c2      43f9006bc6a5   lea.l 0x6bc6a5, a1
          0x006c56c8      7010           moveq 0x10, d0
      > 0x006c56ca      10d9           move.b (a1)+, (a0)+
      < 0x006c56cc      51c8fffc       dbra d0, 0x6c56ca
          0x006c56d0      594f           subq.w 0x4, a7
          0x006c56d2      48780800       pea.l 0x800
          0x006c56d6      48780100       pea.l 0x100
          0x006c56da      3f3c0004       move.w 0x4, -(a7)
          0x006c56de      48780000       pea.l 0x0
          0x006c56e2      48780000       pea.l 0x0
          0x006c56e6      486f0016       pea.l 0x16(a7)
          0x006c56ea      3f3c0001       move.w 0x1, -(a7)
          0x006c56ee      3f3c0011       move.w 0x11, -(a7)
          0x006c56f2      486d0010       pea.l 0x10(a5)
          0x006c56f6      487af17a       pea.l USER2_DISK.drive_update_ta(pc)
          0x006c56fa      4eb9004019b4   jsr p_New_Task
          0x006c5700      defc0022       adda.w 0x22, a7
          0x006c5704      2e1f           move.l (a7)+, d7
          0x006c5706      defc0012       adda.w 0x12, a7
       > 0x006c570a      4eb9006bc8da   jsr USER2_DISK.open_gate
           0x006c5710      4cdf1fff       movem.l (a7)+, d0-d7/a0-a4
           0x006c5714      4e5e           unlk a6
           0x006c5716      4e75           rts
            ; CALL XREF from PANEL_CMDS.sort_exch_comma @ 0x787fd4
 44: USER2_DISK.sort_rem_list_c ();
           0x006c5718      4e56fff8       link.w a6, 0xfff8
           0x006c571c      bfd5           cmpa.l (a5), a7
       < 0x006c571e      6206           bhi.b 0x6c5726
          0x006c5720      44fc0002       move.w 0x2, ccr
          0x006c5724      4e76           trapv
       > 0x006c5726      defc0008       adda.w 0x8, a7
           0x006c572a      4eb9006bc848   jsr USER2_DISK.close_gate
           0x006c5730      2f2e0008       move.l 0x8(a6), -(a7)
           0x006c5734      4ebadb52       jsr USER2_DISK.sort_drive_list(pc)
           0x006c5738      584f           addq.w 0x4, a7
           0x006c573a      4eb9006bc8da   jsr USER2_DISK.open_gate
           0x006c5740      4e5e           unlk a6
           0x006c5742      4e75           rts
            ; CALL XREF from PANEL_CMDS.show_drives_com @ 0x789e38
            ; CALL XREF from PANEL_CMDS.drives_pma @ 0x789e58
 1682: USER2_DISK.show_pdrives ();
           0x006c5744      4e56ff9a       link.w a6, 0xff9a
           0x006c5748      bfd5           cmpa.l (a5), a7
       < 0x006c574a      6206           bhi.b 0x6c5752
          0x006c574c      44fc0002       move.w 0x2, ccr
          0x006c5750      4e76           trapv
       > 0x006c5752      defc0058       adda.w 0x58, a7
           0x006c5756      48e7fff8       movem.l d0-d7/a0-a4, -(a7)
           0x006c575a      43f9004047ea   lea.l p_wts_o, a1
           0x006c5760      45f9004070e4   lea.l p_wti_o, a2
           0x006c5766      47f80000       lea.l 0x0, a3
           0x006c576a      49f80009       lea.l 0x9, a4
           0x006c576e      4a2e0008       tst.b 0x8(a6)
       < 0x006c5772      6706           beq.b 0x6c577a
          0x006c5774      4eb9006bc848   jsr USER2_DISK.close_gate
       > 0x006c577a      4879006bc6b7   pea.l 0x6bc6b7
           0x006c5780      48780012       pea.l 0x12
           0x006c5784      2f17           move.l (a7), -(a7)
           0x006c5786      4e91           jsr (a1)                    ; fcn.0000000a
           0x006c5788      defc000c       adda.w 0xc, a7
           0x006c578c      3039008551a4   move.w 0x8551a4, d0
           0x006c5792      48c0           ext.l d0
           0x006c5794      2f00           move.l d0, -(a7)
           0x006c5796      4853           pea.l (a3)
           0x006c5798      4e92           jsr (a2)                    ; fcn.00000009+0x2
           0x006c579a      504f           addq.w 0x8, a7
           0x006c579c      4879006bc6ca   pea.l 0x6bc6ca
           0x006c57a2      48780006       pea.l 0x6
           0x006c57a6      2f17           move.l (a7), -(a7)
           0x006c57a8      4e91           jsr (a1)                    ; fcn.0000000a
           0x006c57aa      defc000c       adda.w 0xc, a7
           0x006c57ae      3039008551a6   move.w 0x8551a6, d0
           0x006c57b4      48c0           ext.l d0
           0x006c57b6      2f00           move.l d0, -(a7)
           0x006c57b8      4853           pea.l (a3)
           0x006c57ba      4e92           jsr (a2)                    ; fcn.00000009+0x2
           0x006c57bc      504f           addq.w 0x8, a7
           0x006c57be      4879006bc6d1   pea.l 0x6bc6d1
           0x006c57c4      4878000a       pea.l 0xa
           0x006c57c8      2f17           move.l (a7), -(a7)
           0x006c57ca      4e91           jsr (a1)                    ; fcn.0000000a
           0x006c57cc      504f           addq.w 0x8, a7
           0x006c57ce      2eb9008551a8   move.l 0x8551a8, (a7)
           0x006c57d4      4878fff8       pea.l 0xfff8
           0x006c57d8      4e92           jsr (a2)                    ; fcn.00000009+0x2
           0x006c57da      504f           addq.w 0x8, a7
           0x006c57dc      4a39008551ae   tst.b 0x8551ae
       < 0x006c57e2      670c           beq.b 0x6c57f0
          0x006c57e4      4879006bc6dc   pea.l 0x6bc6dc
          0x006c57ea      48780005       pea.l 0x5
      < 0x006c57ee      6008           bra.b 0x6c57f8
      > 0x006c57f0      4879006bc6e2   pea.l 0x6bc6e2
          0x006c57f6      4854           pea.l (a4)
      > 0x006c57f8      2f17           move.l (a7), -(a7)
           0x006c57fa      4e91           jsr (a1)                    ; fcn.0000000a
           0x006c57fc      defc000c       adda.w 0xc, a7
           0x006c5800      4879006bc6ec   pea.l 0x6bc6ec
           0x006c5806      4854           pea.l (a4)
           0x006c5808      2f17           move.l (a7), -(a7)
           0x006c580a      4e91           jsr (a1)                    ; fcn.0000000a
           0x006c580c      504f           addq.w 0x8, a7
           0x006c580e      2eb9008551e4   move.l 0x8551e4, (a7)
           0x006c5814      48780004       pea.l 0x4
           0x006c5818      4e92           jsr (a2)                    ; fcn.00000009+0x2
           0x006c581a      5c4f           addq.w 0x6, a7
           0x006c581c      1ebc002f       move.b 0x2f, (a7)
           0x006c5820      48780001       pea.l 0x1
           0x006c5824      4eb9004048b4   jsr p_wtc_o
           0x006c582a      544f           addq.w 0x2, a7
           0x006c582c      2eb9008551e8   move.l 0x8551e8, (a7)
           0x006c5832      4853           pea.l (a3)
           0x006c5834      4e92           jsr (a2)                    ; fcn.00000009+0x2
           0x006c5836      504f           addq.w 0x8, a7
           0x006c5838      4eb900404946   jsr p_wtln_o
           0x006c583e      4ab9008551e0   tst.l 0x8551e0
       < 0x006c5844      677c           beq.b 0x6c58c2
          0x006c5846      2f39008551e0   move.l 0x8551e0, -(a7)
          0x006c584c      7e01           moveq 0x1, d7
      > 0x006c584e      be97           cmp.l (a7), d7
     < 0x006c5850      6e6e           bgt.b 0x6c58c0
        0x006c5852      2007           move.l d7, d0
        0x006c5854      5380           subq.l 0x1, d0
        0x006c5856      0c8000000005   cmpi.l 0x5, d0
    < 0x006c585c      6302           bls.b 0x6c5860
       0x006c585e      4e4f           trap 0xf
    > 0x006c5860      e780           asl.l 0x3, d0
        0x006c5862      41f9008551a4   lea.l 0x8551a4, a0
        0x006c5868      4879006bc6f6   pea.l 0x6bc6f6
        0x006c586e      48780007       pea.l 0x7
        0x006c5872      2f17           move.l (a7), -(a7)
        0x006c5874      4e91           jsr (a1)                    ; fcn.0000000a
        0x006c5876      504f           addq.w 0x8, a7
        0x006c5878      2e87           move.l d7, (a7)
        0x006c587a      4853           pea.l (a3)
        0x006c587c      4e92           jsr (a2)                    ; fcn.00000009+0x2
        0x006c587e      504f           addq.w 0x8, a7
        0x006c5880      4879006bc6fe   pea.l 0x6bc6fe
        0x006c5886      48780008       pea.l 0x8
        0x006c588a      2f17           move.l (a7), -(a7)
        0x006c588c      4e91           jsr (a1)                    ; fcn.0000000a
        0x006c588e      504f           addq.w 0x8, a7
        0x006c5890      2eb00810       move.l 0x10(a0, d0.l), (a7)
        0x006c5894      4853           pea.l (a3)
        0x006c5896      4e92           jsr (a2)                    ; fcn.00000009+0x2
        0x006c5898      504f           addq.w 0x8, a7
        0x006c589a      4879006bc707   pea.l 0x6bc707
        0x006c58a0      48780008       pea.l 0x8
        0x006c58a4      2f17           move.l (a7), -(a7)
        0x006c58a6      4e91           jsr (a1)                    ; fcn.0000000a
        0x006c58a8      504f           addq.w 0x8, a7
        0x006c58aa      2eb0080c       move.l 0xc(a0, d0.l), (a7)
        0x006c58ae      4878ffff       pea.l 0xffff
        0x006c58b2      4e92           jsr (a2)                    ; fcn.00000009+0x2
        0x006c58b4      504f           addq.w 0x8, a7
        0x006c58b6      4eb900404946   jsr p_wtln_o
        0x006c58bc      5287           addq.l 0x1, d7
     < 0x006c58be      688e           bvc.b 0x6c584e
     > 0x006c58c0      584f           addq.w 0x4, a7
       > 0x006c58c2      4879006bc710   pea.l 0x6bc710
           0x006c58c8      48780012       pea.l 0x12
           0x006c58cc      2f17           move.l (a7), -(a7)
           0x006c58ce      4e91           jsr (a1)                    ; fcn.0000000a
           0x006c58d0      defc000c       adda.w 0xc, a7
           0x006c58d4      3039008551ec   move.w 0x8551ec, d0
           0x006c58da      48c0           ext.l d0
           0x006c58dc      2f00           move.l d0, -(a7)
           0x006c58de      4853           pea.l (a3)
           0x006c58e0      4e92           jsr (a2)                    ; fcn.00000009+0x2
           0x006c58e2      504f           addq.w 0x8, a7
           0x006c58e4      4879006bc723   pea.l 0x6bc723
           0x006c58ea      48780006       pea.l 0x6
           0x006c58ee      2f17           move.l (a7), -(a7)
           0x006c58f0      4e91           jsr (a1)                    ; fcn.0000000a
           0x006c58f2      defc000c       adda.w 0xc, a7
           0x006c58f6      3039008551ee   move.w 0x8551ee, d0
           0x006c58fc      48c0           ext.l d0
           0x006c58fe      2f00           move.l d0, -(a7)
           0x006c5900      4853           pea.l (a3)
           0x006c5902      4e92           jsr (a2)                    ; fcn.00000009+0x2
           0x006c5904      504f           addq.w 0x8, a7
           0x006c5906      4879006bc72a   pea.l 0x6bc72a
           0x006c590c      4878000a       pea.l 0xa
           0x006c5910      2f17           move.l (a7), -(a7)
           0x006c5912      4e91           jsr (a1)                    ; fcn.0000000a
           0x006c5914      504f           addq.w 0x8, a7
           0x006c5916      2eb9008551f0   move.l 0x8551f0, (a7)
           0x006c591c      4878fff8       pea.l 0xfff8
           0x006c5920      4e92           jsr (a2)                    ; fcn.00000009+0x2
           0x006c5922      504f           addq.w 0x8, a7
           0x006c5924      4a39008551f6   tst.b 0x8551f6
       < 0x006c592a      670c           beq.b 0x6c5938
          0x006c592c      4879006bc735   pea.l 0x6bc735
          0x006c5932      48780005       pea.l 0x5
      < 0x006c5936      6008           bra.b 0x6c5940
      > 0x006c5938      4879006bc73b   pea.l 0x6bc73b
          0x006c593e      4854           pea.l (a4)
      > 0x006c5940      2f17           move.l (a7), -(a7)
           0x006c5942      4e91           jsr (a1)                    ; fcn.0000000a
           0x006c5944      defc000c       adda.w 0xc, a7
           0x006c5948      4879006bc745   pea.l 0x6bc745
           0x006c594e      4854           pea.l (a4)
           0x006c5950      2f17           move.l (a7), -(a7)
           0x006c5952      4e91           jsr (a1)                    ; fcn.0000000a
           0x006c5954      504f           addq.w 0x8, a7
           0x006c5956      2eb90085522c   move.l 0x85522c, (a7)
           0x006c595c      4853           pea.l (a3)
           0x006c595e      4e92           jsr (a2)                    ; fcn.00000009+0x2
           0x006c5960      5c4f           addq.w 0x6, a7
           0x006c5962      1ebc002f       move.b 0x2f, (a7)
           0x006c5966      48780001       pea.l 0x1
           0x006c596a      4eb9004048b4   jsr p_wtc_o
           0x006c5970      544f           addq.w 0x2, a7
           0x006c5972      2eb900855230   move.l 0x855230, (a7)
           0x006c5978      4853           pea.l (a3)
           0x006c597a      4e92           jsr (a2)                    ; fcn.00000009+0x2
           0x006c597c      504f           addq.w 0x8, a7
           0x006c597e      4eb900404946   jsr p_wtln_o
           0x006c5984      4ab900855228   tst.l 0x855228
       < 0x006c598a      677c           beq.b 0x6c5a08
          0x006c598c      2f3900855228   move.l 0x855228, -(a7)
          0x006c5992      7e01           moveq 0x1, d7
      > 0x006c5994      be97           cmp.l (a7), d7
     < 0x006c5996      6e6e           bgt.b 0x6c5a06
        0x006c5998      2007           move.l d7, d0
        0x006c599a      5380           subq.l 0x1, d0
        0x006c599c      0c8000000005   cmpi.l 0x5, d0
    < 0x006c59a2      6302           bls.b 0x6c59a6
       0x006c59a4      4e4f           trap 0xf
    > 0x006c59a6      e780           asl.l 0x3, d0
        0x006c59a8      41f9008551ec   lea.l 0x8551ec, a0
        0x006c59ae      4879006bc74f   pea.l 0x6bc74f
        0x006c59b4      48780007       pea.l 0x7
        0x006c59b8      2f17           move.l (a7), -(a7)
        0x006c59ba      4e91           jsr (a1)                    ; fcn.0000000a
        0x006c59bc      504f           addq.w 0x8, a7
        0x006c59be      2e87           move.l d7, (a7)
        0x006c59c0      4853           pea.l (a3)
        0x006c59c2      4e92           jsr (a2)                    ; fcn.00000009+0x2
        0x006c59c4      504f           addq.w 0x8, a7
        0x006c59c6      4879006bc757   pea.l 0x6bc757
        0x006c59cc      48780008       pea.l 0x8
        0x006c59d0      2f17           move.l (a7), -(a7)
        0x006c59d2      4e91           jsr (a1)                    ; fcn.0000000a
        0x006c59d4      504f           addq.w 0x8, a7
        0x006c59d6      2eb00810       move.l 0x10(a0, d0.l), (a7)
        0x006c59da      4853           pea.l (a3)
        0x006c59dc      4e92           jsr (a2)                    ; fcn.00000009+0x2
        0x006c59de      504f           addq.w 0x8, a7
        0x006c59e0      4879006bc760   pea.l 0x6bc760
        0x006c59e6      48780008       pea.l 0x8
        0x006c59ea      2f17           move.l (a7), -(a7)
        0x006c59ec      4e91           jsr (a1)                    ; fcn.0000000a
        0x006c59ee      504f           addq.w 0x8, a7
        0x006c59f0      2eb0080c       move.l 0xc(a0, d0.l), (a7)
        0x006c59f4      4878ffff       pea.l 0xffff
        0x006c59f8      4e92           jsr (a2)                    ; fcn.00000009+0x2
        0x006c59fa      504f           addq.w 0x8, a7
        0x006c59fc      4eb900404946   jsr p_wtln_o
        0x006c5a02      5287           addq.l 0x1, d7
     < 0x006c5a04      688e           bvc.b 0x6c5994
     > 0x006c5a06      584f           addq.w 0x4, a7
       > 0x006c5a08      554f           subq.w 0x2, a7
           0x006c5a0a      4eb900475a98   jsr CONFIG.cfg_clipbox
           0x006c5a10      4a1f           tst.b (a7)+
       < 0x006c5a12      67000148       beq.w 0x6c5b5c
          0x006c5a16      4879006bc769   pea.l 0x6bc769
          0x006c5a1c      48780012       pea.l 0x12
          0x006c5a20      2f17           move.l (a7), -(a7)
          0x006c5a22      4e91           jsr (a1)                    ; fcn.0000000a
          0x006c5a24      defc000c       adda.w 0xc, a7
          0x006c5a28      3039008551ec   move.w 0x8551ec, d0
          0x006c5a2e      48c0           ext.l d0
          0x006c5a30      2f00           move.l d0, -(a7)
          0x006c5a32      4853           pea.l (a3)
          0x006c5a34      4e92           jsr (a2)                    ; fcn.00000009+0x2
          0x006c5a36      504f           addq.w 0x8, a7
          0x006c5a38      4879006bc77c   pea.l 0x6bc77c
          0x006c5a3e      48780006       pea.l 0x6
          0x006c5a42      2f17           move.l (a7), -(a7)
          0x006c5a44      4e91           jsr (a1)                    ; fcn.0000000a
          0x006c5a46      defc000c       adda.w 0xc, a7
          0x006c5a4a      3039008551ee   move.w 0x8551ee, d0
          0x006c5a50      48c0           ext.l d0
          0x006c5a52      2f00           move.l d0, -(a7)
          0x006c5a54      4853           pea.l (a3)
          0x006c5a56      4e92           jsr (a2)                    ; fcn.00000009+0x2
          0x006c5a58      504f           addq.w 0x8, a7
          0x006c5a5a      4879006bc783   pea.l 0x6bc783
          0x006c5a60      4878000a       pea.l 0xa
          0x006c5a64      2f17           move.l (a7), -(a7)
          0x006c5a66      4e91           jsr (a1)                    ; fcn.0000000a
          0x006c5a68      504f           addq.w 0x8, a7
          0x006c5a6a      2eb9008551f0   move.l 0x8551f0, (a7)
          0x006c5a70      4878fff8       pea.l 0xfff8
          0x006c5a74      4e92           jsr (a2)                    ; fcn.00000009+0x2
          0x006c5a76      504f           addq.w 0x8, a7
          0x006c5a78      4a39008551f6   tst.b 0x8551f6
      < 0x006c5a7e      670c           beq.b 0x6c5a8c
         0x006c5a80      4879006bc78e   pea.l 0x6bc78e
         0x006c5a86      48780005       pea.l 0x5
     < 0x006c5a8a      6008           bra.b 0x6c5a94
     > 0x006c5a8c      4879006bc794   pea.l 0x6bc794
         0x006c5a92      4854           pea.l (a4)
     > 0x006c5a94      2f17           move.l (a7), -(a7)
          0x006c5a96      4e91           jsr (a1)                    ; fcn.0000000a
          0x006c5a98      defc000c       adda.w 0xc, a7
          0x006c5a9c      4879006bc79e   pea.l 0x6bc79e
          0x006c5aa2      4854           pea.l (a4)
          0x006c5aa4      2f17           move.l (a7), -(a7)
          0x006c5aa6      4e91           jsr (a1)                    ; fcn.0000000a
          0x006c5aa8      504f           addq.w 0x8, a7
          0x006c5aaa      2eb90085522c   move.l 0x85522c, (a7)
          0x006c5ab0      4853           pea.l (a3)
          0x006c5ab2      4e92           jsr (a2)                    ; fcn.00000009+0x2
          0x006c5ab4      5c4f           addq.w 0x6, a7
          0x006c5ab6      1ebc002f       move.b 0x2f, (a7)
          0x006c5aba      48780001       pea.l 0x1
          0x006c5abe      4eb9004048b4   jsr p_wtc_o
          0x006c5ac4      544f           addq.w 0x2, a7
          0x006c5ac6      2eb900855230   move.l 0x855230, (a7)
          0x006c5acc      4853           pea.l (a3)
          0x006c5ace      4e92           jsr (a2)                    ; fcn.00000009+0x2
          0x006c5ad0      504f           addq.w 0x8, a7
          0x006c5ad2      4eb900404946   jsr p_wtln_o
          0x006c5ad8      4ab900855300   tst.l 0x855300
      < 0x006c5ade      677c           beq.b 0x6c5b5c
         0x006c5ae0      2f3900855300   move.l 0x855300, -(a7)
         0x006c5ae6      7e01           moveq 0x1, d7
     > 0x006c5ae8      be97           cmp.l (a7), d7
    < 0x006c5aea      6e6e           bgt.b 0x6c5b5a
       0x006c5aec      2007           move.l d7, d0
       0x006c5aee      5380           subq.l 0x1, d0
       0x006c5af0      0c8000000005   cmpi.l 0x5, d0
   < 0x006c5af6      6302           bls.b 0x6c5afa
      0x006c5af8      4e4f           trap 0xf
   > 0x006c5afa      e780           asl.l 0x3, d0
       0x006c5afc      41f9008551ec   lea.l 0x8551ec, a0
       0x006c5b02      4879006bc7a8   pea.l 0x6bc7a8
       0x006c5b08      48780007       pea.l 0x7
       0x006c5b0c      2f17           move.l (a7), -(a7)
       0x006c5b0e      4e91           jsr (a1)                    ; fcn.0000000a
       0x006c5b10      504f           addq.w 0x8, a7
       0x006c5b12      2e87           move.l d7, (a7)
       0x006c5b14      4853           pea.l (a3)
       0x006c5b16      4e92           jsr (a2)                    ; fcn.00000009+0x2
       0x006c5b18      504f           addq.w 0x8, a7
       0x006c5b1a      4879006bc7b0   pea.l 0x6bc7b0
       0x006c5b20      48780008       pea.l 0x8
       0x006c5b24      2f17           move.l (a7), -(a7)
       0x006c5b26      4e91           jsr (a1)                    ; fcn.0000000a
       0x006c5b28      504f           addq.w 0x8, a7
       0x006c5b2a      2eb00810       move.l 0x10(a0, d0.l), (a7)
       0x006c5b2e      4853           pea.l (a3)
       0x006c5b30      4e92           jsr (a2)                    ; fcn.00000009+0x2
       0x006c5b32      504f           addq.w 0x8, a7
       0x006c5b34      4879006bc7b9   pea.l 0x6bc7b9
       0x006c5b3a      48780008       pea.l 0x8
       0x006c5b3e      2f17           move.l (a7), -(a7)
       0x006c5b40      4e91           jsr (a1)                    ; fcn.0000000a
       0x006c5b42      504f           addq.w 0x8, a7
       0x006c5b44      2eb0080c       move.l 0xc(a0, d0.l), (a7)
       0x006c5b48      4878ffff       pea.l 0xffff
       0x006c5b4c      4e92           jsr (a2)                    ; fcn.00000009+0x2
       0x006c5b4e      504f           addq.w 0x8, a7
       0x006c5b50      4eb900404946   jsr p_wtln_o
       0x006c5b56      5287           addq.l 0x1, d7
    < 0x006c5b58      688e           bvc.b 0x6c5ae8
    > 0x006c5b5a      584f           addq.w 0x4, a7
      > 0x006c5b5c      7a01           moveq 0x1, d5
           0x006c5b5e      554f           subq.w 0x2, a7
           0x006c5b60      48780021       pea.l 0x21
           0x006c5b64      4eb900474af8   jsr CONFIG.cfg_option
           0x006c5b6a      584f           addq.w 0x4, a7
           0x006c5b6c      4a1f           tst.b (a7)+
       < 0x006c5b6e      660e           bne.b 0x6c5b7e
          0x006c5b70      4879006bc7c2   pea.l 0x6bc7c2
          0x006c5b76      48780013       pea.l 0x13
      < 0x006c5b7a      60000238       bra.w 0x6c5db4
      > 0x006c5b7e      7a01           moveq 0x1, d5
          0x006c5b80      7001           moveq 0x1, d0
      > 0x006c5b82      2d40fff6       move.l d0, -0xa(a6)
         0x006c5b86      7c01           moveq 0x1, d6
     > 0x006c5b88      554f           subq.w 0x2, a7
        0x006c5b8a      2f00           move.l d0, -(a7)
        0x006c5b8c      2f06           move.l d6, -(a7)
        0x006c5b8e      4eb9006bc9b4   jsr USER2_DISK.stn_known
        0x006c5b94      504f           addq.w 0x8, a7
        0x006c5b96      4a1f           tst.b (a7)+
    < 0x006c5b98      670001f4       beq.w 0x6c5d8e
       0x006c5b9c      2206           move.l d6, d1
       0x006c5b9e      5381           subq.l 0x1, d1
       0x006c5ba0      0c810000001e   cmpi.l 0x1e, d1
   < 0x006c5ba6      6302           bls.b 0x6c5baa
      0x006c5ba8      4e4f           trap 0xf
   > 0x006c5baa      e581           asl.l 0x2, d1
       0x006c5bac      2400           move.l d0, d2
       0x006c5bae      5382           subq.l 0x1, d2
       0x006c5bb0      0c820000001e   cmpi.l 0x1e, d2
   < 0x006c5bb6      6302           bls.b 0x6c5bba
      0x006c5bb8      4e4f           trap 0xf
   > 0x006c5bba      2802           move.l d2, d4
       0x006c5bbc      767c           moveq 0x7c, d3
       0x006c5bbe      4eb900406a74   jsr fcn.00406a74
       0x006c5bc4      41f90085519a   lea.l 0x85519a, a0
       0x006c5bca      41f04800       lea.l (a0, d4.l), a0
       0x006c5bce      41f01800       lea.l (a0, d1.l), a0
       0x006c5bd2      20680172       movea.l 0x172(a0), a0
       0x006c5bd6      b1e8fffc       cmpa.l -0x4(a0), a0
   < 0x006c5bda      6702           beq.b 0x6c5bde
      0x006c5bdc      4e4d           trap 0xd
   > 0x006c5bde      4879006bc7d6   pea.l 0x6bc7d6
       0x006c5be4      48780005       pea.l 0x5
       0x006c5be8      2f17           move.l (a7), -(a7)
       0x006c5bea      4e91           jsr (a1)                    ; fcn.0000000a
       0x006c5bec      504f           addq.w 0x8, a7
       0x006c5bee      2e80           move.l d0, (a7)
       0x006c5bf0      48780002       pea.l 0x2
       0x006c5bf4      4e92           jsr (a2)                    ; fcn.00000009+0x2
       0x006c5bf6      5c4f           addq.w 0x6, a7
       0x006c5bf8      1ebc002d       move.b 0x2d, (a7)
       0x006c5bfc      48780001       pea.l 0x1
       0x006c5c00      4eb9004048b4   jsr p_wtc_o
       0x006c5c06      544f           addq.w 0x2, a7
       0x006c5c08      2e86           move.l d6, (a7)
       0x006c5c0a      48780002       pea.l 0x2
       0x006c5c0e      4e92           jsr (a2)                    ; fcn.00000009+0x2
       0x006c5c10      504f           addq.w 0x8, a7
       0x006c5c12      4879006bc7dc   pea.l 0x6bc7dc
       0x006c5c18      48780007       pea.l 0x7
       0x006c5c1c      2f17           move.l (a7), -(a7)
       0x006c5c1e      4e91           jsr (a1)                    ; fcn.0000000a
       0x006c5c20      defc000c       adda.w 0xc, a7
       0x006c5c24      4a680008       tst.w 0x8(a0)
   < 0x006c5c28      6614           bne.b 0x6c5c3e
      0x006c5c2a      4879006bc7e4   pea.l 0x6bc7e4
      0x006c5c30      48780002       pea.l 0x2
      0x006c5c34      2f17           move.l (a7), -(a7)
  > 0x006c5c36      4e91           jsr (a1)                    ; fcn.0000000a
     0x006c5c38      defc000c       adda.w 0xc, a7
 < 0x006c5c3c      6032           bra.b 0x6c5c70
 > 0x006c5c3e      32280008       move.w 0x8(a0), d1
     0x006c5c42      0c410001       cmpi.w 0x1, d1
 < 0x006c5c46      660e           bne.b 0x6c5c56
    0x006c5c48      4879006bc7e7   pea.l 0x6bc7e7
    0x006c5c4e      48780002       pea.l 0x2
    0x006c5c52      2f17           move.l (a7), -(a7)
 < 0x006c5c54      60e0           bra.b 0x6c5c36
  > 0x006c5c56      48c1           ext.l d1
      0x006c5c58      2f01           move.l d1, -(a7)
      0x006c5c5a      4853           pea.l (a3)
      0x006c5c5c      4e92           jsr (a2)                    ; fcn.00000009+0x2
      0x006c5c5e      5c4f           addq.w 0x6, a7
      0x006c5c60      1ebc003a       move.b 0x3a, (a7)
      0x006c5c64      48780001       pea.l 0x1
      0x006c5c68      4eb9004048b4   jsr p_wtc_o
      0x006c5c6e      5c4f           addq.w 0x6, a7
 > 0x006c5c70      3210           move.w (a0), d1
       0x006c5c72      48c1           ext.l d1
       0x006c5c74      2f01           move.l d1, -(a7)
       0x006c5c76      4853           pea.l (a3)
       0x006c5c78      4e92           jsr (a2)                    ; fcn.00000009+0x2
       0x006c5c7a      504f           addq.w 0x8, a7
       0x006c5c7c      4879006bc7ea   pea.l 0x6bc7ea
       0x006c5c82      48780002       pea.l 0x2
       0x006c5c86      2f17           move.l (a7), -(a7)
       0x006c5c88      4e91           jsr (a1)                    ; fcn.0000000a
       0x006c5c8a      defc000c       adda.w 0xc, a7
       0x006c5c8e      32280002       move.w 0x2(a0), d1
       0x006c5c92      48c1           ext.l d1
       0x006c5c94      2f01           move.l d1, -(a7)
       0x006c5c96      4853           pea.l (a3)
       0x006c5c98      4e92           jsr (a2)                    ; fcn.00000009+0x2
       0x006c5c9a      504f           addq.w 0x8, a7
       0x006c5c9c      4879006bc7ed   pea.l 0x6bc7ed
       0x006c5ca2      4878000a       pea.l 0xa
       0x006c5ca6      2f17           move.l (a7), -(a7)
       0x006c5ca8      4e91           jsr (a1)                    ; fcn.0000000a
       0x006c5caa      504f           addq.w 0x8, a7
       0x006c5cac      2ea80004       move.l 0x4(a0), (a7)
       0x006c5cb0      4878fff8       pea.l 0xfff8
       0x006c5cb4      4e92           jsr (a2)                    ; fcn.00000009+0x2
       0x006c5cb6      504f           addq.w 0x8, a7
       0x006c5cb8      4a28000a       tst.b 0xa(a0)
   < 0x006c5cbc      670c           beq.b 0x6c5cca
      0x006c5cbe      4879006bc7f8   pea.l 0x6bc7f8
      0x006c5cc4      48780005       pea.l 0x5
  < 0x006c5cc8      6008           bra.b 0x6c5cd2
  > 0x006c5cca      4879006bc7fe   pea.l 0x6bc7fe
      0x006c5cd0      4854           pea.l (a4)
  > 0x006c5cd2      2f17           move.l (a7), -(a7)
       0x006c5cd4      4e91           jsr (a1)                    ; fcn.0000000a
       0x006c5cd6      defc000c       adda.w 0xc, a7
       0x006c5cda      4879006bc808   pea.l 0x6bc808
       0x006c5ce0      4854           pea.l (a4)
       0x006c5ce2      2f17           move.l (a7), -(a7)
       0x006c5ce4      4e91           jsr (a1)                    ; fcn.0000000a
       0x006c5ce6      504f           addq.w 0x8, a7
       0x006c5ce8      2ea80040       move.l 0x40(a0), (a7)
       0x006c5cec      4853           pea.l (a3)
       0x006c5cee      4e92           jsr (a2)                    ; fcn.00000009+0x2
       0x006c5cf0      5c4f           addq.w 0x6, a7
       0x006c5cf2      1ebc002f       move.b 0x2f, (a7)
       0x006c5cf6      48780001       pea.l 0x1
       0x006c5cfa      4eb9004048b4   jsr p_wtc_o
       0x006c5d00      544f           addq.w 0x2, a7
       0x006c5d02      2ea80044       move.l 0x44(a0), (a7)
       0x006c5d06      4853           pea.l (a3)
       0x006c5d08      4e92           jsr (a2)                    ; fcn.00000009+0x2
       0x006c5d0a      504f           addq.w 0x8, a7
       0x006c5d0c      4eb900404946   jsr p_wtln_o
       0x006c5d12      7a00           moveq 0x0, d5
       0x006c5d14      4aa8003c       tst.l 0x3c(a0)
   < 0x006c5d18      6774           beq.b 0x6c5d8e
      0x006c5d1a      2f28003c       move.l 0x3c(a0), -(a7)
      0x006c5d1e      7e01           moveq 0x1, d7
  > 0x006c5d20      be97           cmp.l (a7), d7
 < 0x006c5d22      6e68           bgt.b 0x6c5d8c
    0x006c5d24      2207           move.l d7, d1
    0x006c5d26      5381           subq.l 0x1, d1
    0x006c5d28      0c8100000005   cmpi.l 0x5, d1
 < 0x006c5d2e      6302           bls.b 0x6c5d32
    0x006c5d30      4e4f           trap 0xf
 > 0x006c5d32      e781           asl.l 0x3, d1
    0x006c5d34      4879006bc812   pea.l 0x6bc812
    0x006c5d3a      48780007       pea.l 0x7
    0x006c5d3e      2f17           move.l (a7), -(a7)
    0x006c5d40      4e91           jsr (a1)                    ; fcn.0000000a
    0x006c5d42      504f           addq.w 0x8, a7
    0x006c5d44      2e87           move.l d7, (a7)
    0x006c5d46      4853           pea.l (a3)
    0x006c5d48      4e92           jsr (a2)                    ; fcn.00000009+0x2
    0x006c5d4a      504f           addq.w 0x8, a7
    0x006c5d4c      4879006bc81a   pea.l 0x6bc81a
    0x006c5d52      48780008       pea.l 0x8
    0x006c5d56      2f17           move.l (a7), -(a7)
    0x006c5d58      4e91           jsr (a1)                    ; fcn.0000000a
    0x006c5d5a      504f           addq.w 0x8, a7
    0x006c5d5c      2eb01810       move.l 0x10(a0, d1.l), (a7)
    0x006c5d60      4853           pea.l (a3)
    0x006c5d62      4e92           jsr (a2)                    ; fcn.00000009+0x2
    0x006c5d64      504f           addq.w 0x8, a7
    0x006c5d66      4879006bc823   pea.l 0x6bc823
    0x006c5d6c      48780008       pea.l 0x8
    0x006c5d70      2f17           move.l (a7), -(a7)
    0x006c5d72      4e91           jsr (a1)                    ; fcn.0000000a
    0x006c5d74      504f           addq.w 0x8, a7
    0x006c5d76      2eb0180c       move.l 0xc(a0, d1.l), (a7)
    0x006c5d7a      4878ffff       pea.l 0xffff
    0x006c5d7e      4e92           jsr (a2)                    ; fcn.00000009+0x2
    0x006c5d80      504f           addq.w 0x8, a7
    0x006c5d82      4eb900404946   jsr p_wtln_o
    0x006c5d88      5287           addq.l 0x1, d7
 < 0x006c5d8a      6894           bvc.b 0x6c5d20
 > 0x006c5d8c      584f           addq.w 0x4, a7
   > 0x006c5d8e      5286           addq.l 0x1, d6
        0x006c5d90      0c860000001f   cmpi.l 0x1f, d6
     < 0x006c5d96      6f00fdf0       ble.w 0x6c5b88
         0x006c5d9a      5280           addq.l 0x1, d0
         0x006c5d9c      0c800000001f   cmpi.l 0x1f, d0
      < 0x006c5da2      6f00fdde       ble.w 0x6c5b82
          0x006c5da6      4a05           tst.b d5
      < 0x006c5da8      6718           beq.b 0x6c5dc2
         0x006c5daa      4879006bc82c   pea.l 0x6bc82c
         0x006c5db0      4878001b       pea.l 0x1b
      > 0x006c5db4      2f17           move.l (a7), -(a7)
          0x006c5db6      4e91           jsr (a1)                    ; fcn.0000000a
          0x006c5db8      defc000c       adda.w 0xc, a7
          0x006c5dbc      4eb900404946   jsr p_wtln_o
       > 0x006c5dc2      4a2e0008       tst.b 0x8(a6)
       < 0x006c5dc6      6706           beq.b 0x6c5dce
          0x006c5dc8      4eb9006bc8da   jsr USER2_DISK.open_gate
       > 0x006c5dce      4cdf1fff       movem.l (a7)+, d0-d7/a0-a4
           0x006c5dd2      4e5e           unlk a6
